(lp1
V(guess: regd Q1), West Derby, Lancs
p2
aVdate unknown, ?
p3
aVdate unknown, ?
p4
aVMay 10, 1850, Dublin
p5
aVcirca 1847, ?
p6
aVAugust 19, 1852, Ballycastle, Co Antri
p7
aVJuly 16, 1852, ?
p8
aVDecember 6, 1852, Bangalore
p9
aVSeptember 3, 1855, ?
p10
aVJuly 31, 1853, ?
p11
aVJune 16, 1853, Dublin
p12
aVJune 6, 1852, Dublin
p13
aVOctober 9, 1852, ?
p14
aVDecember 20, 1853, Newtonards, Co.Down, Northern Ireland
p15
aVcirca 1849, ?
p16
aVMarch 14, 1854, Newton-Saville, Tyron, Northern Ireland
p17
aVMarch 13, 1855, Limerick
p18
aVcirca 1850, Omagh
p19
aVAugust 8, 1854, Alabama, United States
p20
aVSeptember 16, 1853, Dublin
p21
aVApril 27, 1855, Tynemouth
p22
aVNovember 1, 1853, Wexford
p23
aVdate unknown, ?
p24
aVdate unknown, ?
p25
aVDecember 5, 1851, Hollyfort, Co.Wexford
p26
aVdate unknown, ?
p27
aVJune 12, 1856, Connor, Co.Antrim
p28
aVcirca 1853, Co.Dublin
p29
aVdate unknown, ?
p30
aVdate unknown, ?
p31
aV(guess: regd Q3), Carnarvon
p32
aVDecember 15, 1851, ?
p33
aVJuly 1, 1850, ?
p34
aVNovember 3, 1853, Clones, Co.Monaghan
p35
aVcirca 1849, ?
p36
aVMay 3, 1857, Newry
p37
aVOctober 29, 1856, Dublin
p38
aVNovember 25, 1852, ?
p39
aVdate unknown, ?
p40
aVcirca 1855, Moira, Co.Down
p41
aVMay 12, 1854, Dublin
p42
aVOctober 11, 1855, Belfast
p43
aVSeptember 14, 1849, ?
p44
aVNovember 27, 1858, Bengal
p45
aVdate unknown, ?
p46
aVdate unknown, ?
p47
aVJuly 3, 1857, Belfast
p48
aVcirca 1858, Connor, Co.Antrim
p49
aVApril 30, 1852, Bradford
p50
aVcirca 1856, Co.Kildare
p51
aVOctober 20, 1856, Ballymore, Galway
p52
aVFebruary 4, 1858, Cork
p53
aVMarch 7, 1856, Shandon, Cork
p54
aVdate unknown, ?
p55
aVcirca 1855, West Indie
p56
aVdate unknown, ?
p57
aVNovember 9, 1856, Dublin
p58
aVJune 30, 1859, ?
p59
aVOctober 1858, ?
p60
aVDecember 25, 1856, Dublin
p61
aVMarch 31, 1850, Portloman, Westmeath
p62
aVMarch 10, 1860, Glendararry, Mayo
p63
aVcirca 1860
p64
aVOctober 13, 1859, Dublin
p65
aVcirca 1858, ?
p66
aVOctober 20, 1860, Dublin
p67
aVcirca 1859, ?
p68
aVAugust 4, 1859, Kingstown
p69
aVJuly 2, 1856, Dublin
p70
aVFebruary 28, 1856, ?
p71
aVJuly 1, 1860, Kilkee, Co.Clare
p72
aVJanuary 14, 1860, ?
p73
aVOctober 15, 1858, Dungannon, Tyrone
p74
aVcirca 1861, ?
p75
aV56 or 57, ?
p76
aVcirca 1858, ?
p77
aVdate unknown, ?
p78
aVSeptember 23, 1862, Dublin
p79
aVJanuary 2, 1859, Greenwich
p80
aVAugust 17, 1860, Monkstown?
p81
aVSeptember 4, 1862, ?
p82
aVcirca 1862, Dublin
p83
aVJanuary 22, 1857, Tipperary
p84
aVSeptember 19, 1859, Spafield, Co.Tipperar
p85
aVcirca 1865, ?
p86
aVcirca 1862, Bansha, Tipperary
p87
aVcirca 1861, ?
p88
aVJune 1857, ?
p89
aVcirca 1861, ?
p90
aVMarch 16, 1858, Woolwich, Kent
p91
aVAugust 4, 1858, Co.Monaghan, Northern Ireland
p92
aVApril 26, 1863, ?
p93
aVdate unknown, ?
p94
aVJuly 1, 1858, Cork
p95
aVOctober 5, 1862, ?
p96
aVNovember 17, 1858, Co.Derry, Northern Ireland
p97
aVNovember 23, 1862, London
p98
aVcirca 1859, Glasnevin, Dublin
p99
aVMay 6, 1863, Kingstown
p100
aVdate unknown, ?
p101
aVcirca 1864, Lisburn, Northern Ireland
p102
aV1861, nr Mullingar
p103
aVJanuary 10, 1860, Belfast
p104
aVcirca 1861, Skibbereen, Co.Cork
p105
aVcirca 1865, Hollywood, Co.Down
p106
aVJanuary 18, 1862, Tipperary
p107
aV59 or 60, Dublin
p108
aVApril 28, 1861, Ambala
p109
aVcirca 1854, ?
p110
aVcirca 1858, ?
p111
aVJuly 29, 1856, Dublin
p112
aVSeptember 1865, Limerick
p113
aVDecember 9, 1864, Belfast
p114
aVcirca 1860, ?
p115
aVdate unknown, ?
p116
aVdate unknown, ?
p117
aVApril 19, 1861
p118
aVdate unknown, ?
p119
aVJune 24, 1863, Kingstown
p120
aVdate unknown
p121
aV(guess: regd Q4), Newport
p122
aVSeptember 3, 1857, Glasnevin, Dublin
p123
aVcirca 1860, Dublin
p124
aVSeptember 11, 1864, Glendermot, Derry
p125
aVMay 27, 1861, Gorey, Co.Wexford
p126
aVJanuary 26, 1861
p127
aVAugust 26, 1860, Coleraine, Northern Ireland
p128
aVDecember 12, 1860, Geelong
p129
aVJanuary 1, 1866, Dublin
p130
aVJanuary 4, 1864, Waterford
p131
aVSeptember 4, 1865, India, Co.Meath
p132
aVdate unknown, ?
p133
aVdate unknown, ?
p134
aVdate unknown, ?
p135
aVNovember 25, 1864, Co Cavan
p136
aVOctober 14, 1865, Dublin
p137
aVApril 23, 1864, Worcester
p138
aVJuly 3, 1864, Mazagan, Bombay
p139
aVJanuary 23, 1864, Templemartin, Cork
p140
aVdate unknown, ?
p141
aVOctober 5, 1865, ?
p142
aVdate unknown, Hollywood, Co.Down
p143
aVMay 29, 1866, Dublin
p144
aV(guess: regd Q3), Preson, Lancs
p145
aVApril 4, 1865, Lisburn.Co.Antrim
p146
aVcirca 1866, Limerick
p147
aVApril 23, 1864, ?
p148
aVFebruary 1, 1866, Belfast
p149
aVAugust 6, 1865, Waterford
p150
aVMarch 27, 1866, Dungannon
p151
aVOctober 12, 1864, Londonderry
p152
aVJanuary 25, 1867, Belfast
p153
aVMarch 4, 1868, ?
p154
aVFebruary 4, 1864, Glasnevin, Dublin
p155
aVdate unknown, ?
p156
aVApril 18, 1863, ?
p157
aVOctober 13, 1866, Bushmills
p158
aVJanuary 29, 1866, Coagh, Co.Tyrone
p159
aVdate unknown, ?
p160
aVdate unknown, ?
p161
aVApril 1, 1864, Dublin
p162
aVJuly 20, 1866, Nenagh, Tipperary
p163
aVOctober 26, 1865, Roscommon
p164
aVOctober 8, 1866, Carnasure, Co Down
p165
aVMay 15, 1867, Co Clare
p166
aVApril 22, 1866, Dublin
p167
aVOctober 5, 1870, Dublin
p168
aVOctober 26, 1867, Dublin
p169
aVAugust 12, 1869, Belfast
p170
aVcirca 1866, Letterkenny
p171
aVDecember 4, 1868, Dungannon
p172
aVApril 1, 1868, ?
p173
aVFebruary 27, 1867, Blarney, Cork
p174
aVMarch 11, 1868, Belfast
p175
aVJuly 23, 1868, Kinsale, Co.Cork
p176
aVJuly 9, 1866, ?
p177
aVSeptember 30, 1867, Lifford
p178
aVDecember 22, 1865, Mooltan, W Bengal
p179
aVdate unknown, ?
p180
aVdate unknown, ?
p181
aVJanuary 20, 1867, Dublin
p182
aVOctober 13, 1862, Dublin
p183
aVMay 15, 1870, Ferozopore
p184
aVOctober 19, 1867, Dublin
p185
aVNovember 27, 1866, Dublin
p186
aVcirca 1865, Kingstown
p187
aVdate unknown, ?
p188
aVOctober 7, 1866, Londonderry
p189
aVcirca 1870, Dublin
p190
aVSeptember 26, 1871, Dunaghadee, Down
p191
aVSeptember 24, 1869, Dublin
p192
aVAugust 6, 1868, Dublin
p193
aVMarch 23, 1867, Limerick
p194
aVApril 11, 1867, Lavagh, Drumkeeran
p195
aVNovember 14, 1865, Woolwich, Kent
p196
aVMay 1, 1871, Agra, W Bengal
p197
aVdate unknown, ?
p198
aVAugust 16, 1868, ?
p199
aVcirca 1870, Armagh, Northern Ireland
p200
aVdate unknown, ?
p201
aVJanuary 15, 1867, Limerick
p202
aVDecember 12, 1870, Dublin
p203
aVDecember 12, 1867, Fintona, Co.Tyrone
p204
aVJanuary 4, 1868, Donnycarney, Dublin
p205
aVNovember 28, 1867, Dublin
p206
aVDecember 31, 1868, Rathdown, Dublin
p207
aVApril 12, 1872, ?
p208
aVdate unknown, ?
p209
aVAugust 13, 1872, Laputa, Co Donegal
p210
aVcirca 1871, Armagh, Northern Ireland
p211
aVOctober 29, 1867, Donnybrook, Co.Dublin
p212
aVFebruary 4, 1864, Donnybrook, Co.Dublin
p213
aVMay 25, 1873, Ramelton, Donegal
p214
aVJuly 12, 1872, Co.Limerick
p215
aVJanuary 21, 1870, Dublin
p216
aVcirca 1869, Kilkenny
p217
aVApril 19, 1873, Dublin
p218
aVMay 18, 1875, Belfast
p219
aVDecember 20, 1868, Navan, Co.Meath
p220
aVAugust 17, 1871, ?
p221
aVDecember 1871, Donnybrook, Co.Dublin
p222
aVFebruary 15, 1875, Rathmines, Co.Dublin
p223
aVNovember 20, 1872, Castlereagh, Co.Down
p224
aVcirca 1874, Dublin
p225
aVMarch 25, 1870, Dublin
p226
aVAugust 19, 1872, Londonderry
p227
aVJuly 11, 1869, Westport, Co.Mayo
p228
aVcirca 1871, ?
p229
aVApril 9, 1873, Belfast
p230
aVSeptember 26, 1871, Belfast
p231
aVApril 21, 1873, Limerick
p232
aVcirca 1874, ?
p233
aVcirca 1872, ?
p234
aVJune 11, 1874, Ramelton, Donegal
p235
aVMarch 14, 1874, Gibraltar
p236
aVFebruary 5, 1870, Co Clare
p237
aVMarch 6, 1876, Londonderry, Northern Ireland
p238
aVMarch 19, 1876, Dundrum, Dublin
p239
aVFebruary 2, 1878, Belfast, Northern Ireland
p240
aVAugust 3, 1874, Belfast
p241
aVdate unknown, ?
p242
aVcirca 1871, ?
p243
aVJanuary 12, 1877, Co.Tipperary
p244
aVMarch 18, 1874, Borris, Co.Carlow
p245
aVSeptember 10, 1875, Rathmines, Co.Dublin
p246
aVSeptember 16, 1876
p247
aVMarch 18, 1879, Kildare
p248
aVDecember 9, 1875, Belfast
p249
aVJuly 23, 1874, Dublin
p250
aVcirca 1874, Cork
p251
aVdate unknown, ?
p252
aVJune 28, 1880, ?
p253
aVdate unknown, ?
p254
aVAugust 10, 1879, Ballyhackamore, Co.Do
p255
aVJune 6, 1874, Crosshaven, Co Cork
p256
aVFebruary 22, 1876, Belfast
p257
aVJanuary 17, 1880, ?
p258
aVJuly 15, 1877, Dublin
p259
aVDecember 18, 1874, Mullingar, Newry
p260
aVFebruary 23, 1877, Londonderry
p261
aVJanuary 28, 1877, Tralee
p262
aVOctober 14, 1880, Gibraltar
p263
aVMay 6, 1877, Dublin
p264
aVcirca 1875, ?
p265
aVMay 31, 1874, Keady, Armagh, Northern Ireland
p266
aVJuly 3, 1877, Co Derry, Northern Ireland
p267
aVMay 15, 1879, Cork
p268
aVJune 27, 1875, Dublin
p269
aVDecember 16, 1878, Dublin
p270
aVApril 17, 1878, Dublin
p271
aV(guess: regd Q4), Salford, Lancs
p272
aVcirca 1878, ?
p273
aVOctober 21, 1875, ?
p274
aVMarch 24, 1875, Belfast
p275
aVJuly 30, 1876, Newry, Co Down
p276
aVAugust 15, 1878, Dublin
p277
aVAugust 1, 1879, Lurgan
p278
aVApril 9, 1881, Balbriggan
p279
aVJanuary 7, 1877, Belfast
p280
aVNovember 8, 1881, ?
p281
aVMarch 17, 1882, Cape Town
p282
aVOctober 27, 1882, ?
p283
aVAugust 18, 1879, Banbridge, Co Down, Northern Ireland
p284
aVOctober 26, 1880, ?
p285
aVOctober 30, 1876, Roscrea
p286
aVJanuary 3, 1882, Belfast
p287
aVJuly 26, 1881, Clones, Co Monaghan
p288
aVJanuary 2, 1879, Dublin
p289
aVFebruary 25, 1882, Galway
p290
aVNovember 17, 1880, ?
p291
aVAugust 3, 1878, Dromakeenan, Roscrea
p292
aVNovember 18, 1881, Dundalk, Louth
p293
aVMarch 2, 1882, Milltown, Dublin
p294
aVJanuary 12, 1882
p295
aVAugust 2, 1880, Gortnor Abbey, Mayo
p296
aVApril 15, 1878, Cork
p297
aVOctober 30, 1878, Blackrock, Co.Dublin
p298
aVDecember 24, 1882, Dublin
p299
aVApril 7, 1881, Portsmouth
p300
aVApril 11, 1879, Rashee, Co Antrim
p301
aVOctober 5, 1882, Dungannon
p302
aVOctober 29, 1881, ?
p303
aV(guess: regd Q1), Birkenhead
p304
aVNovember 28, 1881, Belfast
p305
aVFebruary 2, 1882, ?
p306
aVJanuary 20, 1881, Belfast, Northern Ireland
p307
aVNovember 3, 1886, Strandtown, Belfast, Northern Ireland
p308
aVcirca 1881, Cork
p309
aVDecember 11, 1880, Brentwood, Essex
p310
aVJuly 1, 1886, ?
p311
aVMay 29, 1884, Dunloe, Co Donegal
p312
aVcirca 1881, ?
p313
aVSeptember 1, 1888, Athboy, Co Meath
p314
aVOctober 27, 1882, ?
p315
aVDecember 8, 1883, ?
p316
aVMay 15, 1885, Rathcoole, Co.Dublin
p317
aVJune 28, 1886, ?
p318
aVOctober 30, 1887, Mountmellick
p319
aVJanuary 28, 1886, Dublin
p320
aVDecember 24, 1885, ?
p321
aVDecember 12, 1884, Dirraw, Co.Antrim, Northern Ireland
p322
aVFebruary 27, 1885, Dublin
p323
aVMay 4, 1887, Limerick
p324
aVcirca 1887, ?
p325
aVSeptember 13, 1884, Belfast, Northern Ireland
p326
aVJanuary 13, 1884, Neath
p327
aVOctober 18, 1888, Queen's Co.
p328
aVcirca 1888, ?
p329
aVcirca 1877, Cork City
p330
aVMay 21, 1884, Dalkey
p331
aVdate unknown, ?
p332
aVJune 22, 1890, Londonderry, Northern Ireland
p333
aVAugust 4, 1891, Tamnamore, Tyrone
p334
aVNovember 23, 1888, Dublin
p335
aVNovember 8, 1888, Roscrea, Tipperary
p336
aVAugust 30, 1883, ?
p337
aVJuly 6, 1889, Belfast
p338
aVJune 8, 1890, Downpatrick, Northern Ireland
p339
aVJune 22, 1884, ?
p340
aVAugust 16, 1886, Belfast, Northern Ireland
p341
aVSeptember 8, 1889, Carlow
p342
aVDecember 7, 1886, Dirraw, Co.Antrim
p343
aVOctober 23, 1888, Hollywood, Co.Down
p344
aVNovember 20, 1885, Belfast
p345
aVJune 29, 1889
p346
aVApril 3, 1885, ?
p347
aVAugust 25, 1890, Dublin
p348
aVMarch 31, 1891, Dirraw, Co.Antrim
p349
aVJuly 22, 1889, ?
p350
aVOctober 16, 1887, Strandtown, Northern Ireland
p351
aVAugust 26, 1888, ?
p352
aVAugust 1, 1889, Famad, Co.Donegal
p353
aVFebruary 12, 1891, British Antilles, West Indies
p354
aVOctober 23, 1889, Belfast
p355
aVMay 9, 1887, Dublin
p356
aVJune 15, 1884, Kilrush, Co Clare
p357
aVDecember 1888, Kilmacow, Co.Kilkenny
p358
aVdate unknown, ?
p359
aVDecember 25, 1890, ?
p360
aVJanuary 21, 1893, Limerick
p361
aV(guess: regd Q2), Rathmines
p362
aVJuly 29, 1890, Athy, Co Kildare
p363
aV(guess: regd Q4), Dublin North
p364
aVApril 2, 1886, ?
p365
aVdate unknown, ?
p366
aVOctober 11, 1887, Banbridge, Co Down, Northern Ireland
p367
aV(guess: regd Q2), Dublin
p368
aVApril 3, 1890, Fethard, Tipperary
p369
aVcirca 1888, Carrigaline, Cork
p370
aVApril 29, 1893, Clonakilty
p371
aVdate unknown, ?
p372
aVMarch 27, 1892, Co Tipperary
p373
aVMarch 24, 1885, Dublin
p374
aVFebruary 19, 1889, Belfast
p375
aVJuly 6, 1892, ?
p376
aVSeptember 6, 1891, Ballina, Co Mayo
p377
aVMay 5, 1894, Dublin
p378
aVNovember 16, 1891, Glenageary, Co Dublin
p379
aVAugust 21, 1889, ?
p380
aVApril 11, 1891, Blackrock, Co Cork
p381
aVJune 10, 1892, Belfast
p382
aVAugust 22, 1891, Claudy, Londonderry
p383
aVJune 14, 1891, Cork
p384
aVAugust 8, 1895, Kingstown
p385
aV(guess: regd Q4), Penarth
p386
aVcirca 1897, Limerick
p387
aVDecember 3, 1898, Glastry, Co Down
p388
aVNovember 17, 1891, Belfast
p389
aVAugust 18, 1897, ?
p390
aVDecember 7, 1894, Balghupar
p391
aVMarch 12, 1897, Enniskillen
p392
aVJuly 17, 1893, Wandsworth
p393
aVOctober 13, 1886, Hackney, London
p394
aVMarch 28, 1895, Limerick
p395
aVApril 25, 1892, Kirkshill, Ballymayo
p396
aVMay 19, 1899, Nenagh
p397
aVJune 14, 1898, Skahabeg, Cork
p398
aVFebruary 18, 1898, Londonderry, Northern Ireland
p399
aVAugust 21, 1895, Belfast
p400
aVApril 25, 1892, Glenbeigh, Co Kerry
p401
aVcirca 1901, ?
p402
aVOctober 16, 1897, Cork
p403
aVMarch 27, 1900
p404
aVApril 3, 1897, Dublin
p405
aVJanuary 12, 1900, ?
p406
aVJanuary 27, 1897, Holywood, Co Down
p407
aVDecember 22, 1901, Dromore, Co.Down, Northern Ireland
p408
aVOctober 19, 1899, Rhode, Co.Offaly
p409
aVMay 18, 1902, Howth
p410
aVJuly 19, 1901, Newcastle W, Limerick
p411
aVJune 10, 1897, Ceylon
p412
aVAugust 10, 1900, ?
p413
aVNovember 14, 1893, Belfast
p414
aVNovember 14, 1891, Dublin
p415
aVcirca 1899, ?
p416
aVdate unknown, ?
p417
aVOctober 2, 1898, Rathdown, Dublin
p418
aVDecember 12, 1890, Mosside, Co Antrim, Northern Ireland
p419
aVMarch 19, 1898, Dublin
p420
aVAugust 28, 1898, Mallow, Co Cork
p421
aVDecember 27, 1898, Belfast
p422
aVAugust 19, 1896, Dundrum
p423
aVdate unknown, ?
p424
aVdate unknown, ?
p425
aVNovember 28, 1900, Dromore, Co.Down, Northern Ireland
p426
aVFebruary 13, 1897, Boyle, Co.Roscommon
p427
aVSeptember 24, 1900, Boghill
p428
aVMay 2, 1899, ?
p429
aVFebruary 20, 1901, Belfast
p430
aVOctober 27, 1902, ?
p431
aVJanuary 2, 1896, Ballybray, Co Monaghn
p432
aVAugust 16, 1901, Belfast
p433
aVNovember 22, 1901, Belfast
p434
aVMay 10, 1902, ?
p435
aVdate unknown, ?
p436
aVFebruary 21, 1894, ?
p437
aVSeptember 28, 1901, Clondalkin, Dublin
p438
aVAugust 16, 1902, Belfast
p439
aVApril 9, 1900, Dublin
p440
aVFebruary 16, 1900, Killiney
p441
aVMay 8, 1896, ?
p442
aVOctober 1, 1896, Ballymoney, Northern Ireland
p443
aVSeptember 18, 1902, Dublin
p444
aVOctober 3, 1906, Belfast
p445
aVMarch 12, 1905, Belfast
p446
aVJanuary 5, 1899, Belfast, Northern Ireland
p447
aVSeptember 22, 1897, Cashel
p448
aVFebruary 11, 1902, Leek, Staffs
p449
aVApril 29, 1905, Dunmanway, Munster
p450
aVJanuary 29, 1903, Longford
p451
aVJune 29, 1900, Harrow-on-the-Hill
p452
aVJuly 26, 1904, Dublin
p453
aVcirca 1903, ?
p454
aVJanuary 9, 1903, Co Down, Northern Ireland
p455
aVAugust 7, 1903, Meath
p456
aVApril 30, 1898, Belfast
p457
aVJune 10, 1905, ?
p458
aVMay 21, 1904, ?
p459
aVAugust 18, 1905, Belfast
p460
aVApril 2, 1907, Worcester
p461
aVdate unknown, ?
p462
aVMarch 17, 1906, Belfast, Northern Ireland
p463
aVMarch 7, 1904, Dublin
p464
aVJune 29, 1905, Dublin
p465
aVJuly 15, 1903, Clough, Ballymena
p466
aVFebruary 9, 1901, Ballymoney, Northern Ireland
p467
aVAugust 2, 1904, Thurles
p468
aVJuly 10, 1907, Dublin
p469
aVJanuary 15, 1901, Larne, Co.Antrim
p470
aVFebruary 9, 1904, Monkstown
p471
aVJune 18, 1905, Belfast
p472
aV(guess: regd Q2), Newcastle West
p473
aVJuly 14, 1906, Co.Dublin
p474
aVNovember 28, 1905, St Giles, London
p475
aVJuly 12, 1906, Dublin
p476
aVMarch 5, 1907, Dublin
p477
aVMarch 6, 1900, Dunlavin, Co Wicklow
p478
aVApril 14, 1908, Thurles
p479
aVDecember 12, 1908, Dorset
p480
aVDecember 18, 1905, Kilrea, Co Derry
p481
aVDecember 27, 1904, Cork
p482
aVJuly 1, 1907, Portstewart
p483
aVJanuary 25, 1905, Wexford
p484
aVJuly 1902, Limerick
p485
aVdate unknown, ?
p486
aVNovember 29, 1907, Dublin
p487
aVJune 30, 1909, Queenstown Cobh
p488
aVJune 28, 1909, Belfast
p489
aVOctober 11, 1904, ?
p490
aVDecember 4, 1911, Wandsworth, London
p491
aVJuly 1, 1907, Thurles
p492
aVSeptember 24, 1908, Cookstown
p493
aVJanuary 31, 1908, Dublin
p494
aVJuly 24, 1909, ?
p495
aVcirca 1909, Limerick
p496
aVAugust 8, 1912, ?
p497
aVSeptember 16, 1911, Dublin
p498
aVDecember 24, 1911, Enniskillen
p499
aVMarch 25, 1911, Armagh, Northern Ireland
p500
aVJune 23, 1908, Cork
p501
aVJanuary 7, 1910, Eton
p502
aVOctober 27, 1911, Castleisland
p503
aVAugust 4, 1907, Greystones, Wicklow
p504
aVJanuary 23, 1909, Valentia, Co Kerry
p505
aVMarch 24, 1912, Clontarf, Dublin
p506
aVcirca 1910, ?
p507
aVApril 21, 1912, Belfast
p508
aVJune 5, 1910, Dublin
p509
aVSeptember 30, 1913, Cork
p510
aVApril 16, 1909, Bandon, Co Cork
p511
aVJanuary 1, 1916, Dublin
p512
aVMarch 19, 1910, Dublin
p513
aVFebruary 6, 1909, Wakefield
p514
aVSeptember 16, 1909, Belfast
p515
aVAugust 24, 1910, Dublin
p516
aVNovember 18, 1906, Dunlavin, Co Wicklow
p517
aVcirca 1908, Dunlavin, Co Wicklow
p518
aVMay 1, 1911, Madras
p519
aVMarch 23, 1913, Belfast
p520
aVMay 29, 1915, ?
p521
aVJuly 2, 1915, Dublin
p522
aVJuly 1, 1913, ?
p523
aVMay 2, 1910, Lurgan, Northern Ireland
p524
aVOctober 16, 1913, Dublin
p525
aVSeptember 24, 1910, Belfast
p526
aVcirca 1913, ?
p527
aVSeptember 15, 1910, Lisburn, Northern Ireland
p528
aVMay 8, 1913, Ahogil, Ballymena, Northern Ireland
p529
aVJanuary 11, 1915, Newtownards, Northern Ireland
p530
aVJuly 8, 1912, St Geo.Sq, London
p531
aVJuly 14, 1912, Scariff, Co.Clare
p532
aVAugust 1914, ?
p533
aVAugust 3, 1913, Ulster, Northern Ireland
p534
aVJuly 17, 1911, Belfast
p535
aVJuly 13, 1916, Glenbeigh
p536
aVApril 14, 1916, Belfast
p537
aVJuly 1, 1917, ?
p538
aVNovember 6, 1914, ?
p539
aVJuly 13, 1915, Belfast
p540
aVMarch 10, 1915, ?
p541
aVSeptember 19, 1914, Dublin
p542
aVApril 1, 1917, Dublin
p543
aVMay 6, 1919, Buttevant, Co Cork
p544
aVJune 21, 1918, Ballyporeen
p545
aVMarch 29, 1920, Fenagh, Co Carlow
p546
aVJanuary 6, 1923, Port, Co Louth
p547
aVFebruary 9, 1926, Dublin
p548
aVDecember 12, 1917, Cobh, Queenstown
p549
aVAugust 15, 1921, Belfast
p550
aVJanuary 11, 1920, Dublin
p551
aVMarch 16, 1919, Cork
p552
aVFebruary 10, 1926, Belfast, Northern Ireland
p553
aVJuly 12, 1921, Waterford
p554
aVdate unknown, ?
p555
aVNovember 26, 1926, Courtown Harbour
p556
aVDecember 24, 1919, Craigs, Ballymena, Northern Ireland
p557
aVAugust 1, 1919, Dublin
p558
aVMarch 14, 1923, Gort, Co Galway
p559
aVAugust 24, 1922, Ballymoney, Northern Ireland
p560
aVOctober 23, 1924, Cork
p561
aVMay 26, 1921, ?
p562
aVMay 20, 1920, Rathdrum, Wicklow
p563
aVApril 3, 1926, Cork
p564
aVJuly 14, 1922, Cork
p565
aVOctober 29, 1919, Belfast
p566
aVDecember 13, 1923, Portadown, Northern Ireland
p567
aVAugust 27, 1923, Belfast, Northern Ireland
p568
aVSeptember 16, 1921, Belfast
p569
aVJune 10, 1919, Dublin
p570
aVMarch 17, 1924, Limerick
p571
aVMarch 24, 1915, Dublin
p572
aVJune 30, 1924, Cork
p573
aVNovember 20, 1919, ?
p574
aVJuly 16, 1917, Bandon, Co.Cork
p575
aVMay 22, 1919, Dublin
p576
aVSeptember 29, 1922, Dublin
p577
aVNovember 15, 1923, Tipperary
p578
aVSeptember 5, 1926, Dublin
p579
aVMarch 28, 1922, Coventry
p580
aVApril 1, 1920, Dublin
p581
aVSeptember 14, 1922, Arklow
p582
aVAugust 10, 1928, Drumahoe, Co Derry, Northern Ireland
p583
aVOctober 26, 1928, Tipperary
p584
aVMarch 27, 1924, Shanghai
p585
aVMarch 6, 1927, Belfast, Northern Ireland
p586
aVMarch 30, 1928, Cahir, Co.Tipperary
p587
aVNovember 2, 1927, Peshawar
p588
aVMarch 13, 1925, Dublin
p589
aVOctober 21, 1924, Thurles
p590
aVDecember 31, 1922, Portadown, Northern Ireland
p591
aVAugust 15, 1927, Belfast, Northern Ireland
p592
aVOctober 31, 1923, Pancras, London
p593
aVJune 26, 1929, Cork
p594
aVJuly 27, 1926, Dungannon, Northern Ireland
p595
aVJanuary 9, 1924, Bangor, Co Down, Northern Ireland
p596
aVFebruary 11, 1931, Belfast, Northern Ireland
p597
aVMarch 21, 1928, Dublin
p598
aVNovember 6, 1927, Sligo
p599
aVcirca 1930, ?
p600
aVAugust 20, 1926, Bangor, Co Down, Northern Ireland
p601
aVMay 5, 1931, Belfast, Northern Ireland
p602
aVJune 25, 1926, Drumsna, Co Roscom'n
p603
aVOctober 9, 1928, Dublin
p604
aVNovember 30, 1929, Cork
p605
aVMarch 20, 1929, Dublin
p606
aVJune 6, 1925, Malaya
p607
aVSeptember 2, 1929, Dublin
p608
aVNovember 15, 1928, Dublin
p609
aVNovember 11, 1928, Skierke, Ballybrophy
p610
aVAugust 29, 1929, Belfast, Northern Ireland
p611
aVNovember 13, 1924, Belfast, Northern Ireland
p612
aVNovember 28, 1930, Carnlough, Ballymena, Northern Ireland
p613
aVJanuary 21, 1931, Dublin
p614
aVMarch 13, 1930, Bandon, Co Cork
p615
aVMarch 3, 1926, Limerick
p616
aVJune 7, 1931, Dublin
p617
aVJanuary 20, 1934, Lurgan, Northern Ireland
p618
aVMay 13, 1926, Cork
p619
aVNovember 28, 1930, Cloughmills, Ballymen, Northern Ireland
p620
aVJune 6, 1928, Belfast, Northern Ireland
p621
aVJune 6, 1925, Reading
p622
aVJune 20, 1931, Limerick
p623
aVSeptember 16, 1931, Tilbury, Essex
p624
aVMarch 15, 1931, Wexford
p625
aVFebruary 3, 1929, Clonmel
p626
aVJuly 8, 1927, Belfast, Northern Ireland
p627
aVJune 23, 1933, Cork
p628
aVApril 22, 1930, Limerick
p629
aVNovember 22, 1931, Dun Laoghaire
p630
aVMay 7, 1936, Dublin
p631
aVApril 16, 1929, Clonroche, Co Wexford
p632
aVNovember 24, 1929, Cork
p633
aVFebruary 22, 1930, Woodford, Co Galway
p634
aVMarch 28, 1932, Kinsale
p635
aVJanuary 26, 1930, Cappoquin, Co Waterf
p636
aVNovember 1, 1925, Portadown, Northern Ireland
p637
aVApril 23, 1927, Dublin
p638
aVNovember 4, 1932, Londonderry, Northern Ireland
p639
aVApril 2, 1933, Belfast, Northern Ireland
p640
aVFebruary 4, 1936, Kasauli
p641
aVOctober 13, 1934, Cork
p642
aVDecember 11, 1926, Belfast, Northern Ireland
p643
aVDecember 29, 1932, Dublin
p644
aVJanuary 2, 1930, Cappoquin, Waterford
p645
aVAugust 31, 1931, Lecanvey, Westport
p646
aVMay 7, 1930, Dublin
p647
aVOctober 3, 1933, Cork
p648
aVNovember 19, 1935, Dublin
p649
aVSeptember 2, 1933, Dublin
p650
aVJune 2, 1933, Galway
p651
aVAugust 22, 1934, Belfast, Northern Ireland
p652
aVJune 5, 1932, Dublin
p653
aVSeptember 16, 1936, Belfast, Northern Ireland
p654
aVSeptember 9, 1939, Belfast, Northern Ireland
p655
aVJanuary 7, 1935, Rathkeale, Limerick
p656
aVFebruary 22, 1937, Cork
p657
aVAugust 28, 1929, Belfast, Northern Ireland
p658
aVJune 2, 1933, Limerick
p659
aVSeptember 6, 1930, Belfast, Northern Ireland
p660
aVMay 15, 1934, Belfast, Northern Ireland
p661
aVMay 23, 1934, Ballymena, Northern Ireland
p662
aVJune 15, 1936, Clonaslee, Laois
p663
aVAugust 10, 1934, Galway
p664
aVMarch 20, 1939, Dublin
p665
aV
aVJanuary 7, 1939, Cork
p666
aVJuly 18, 1936, Belfast, Northern Ireland
p667
aVNovember 3, 1938, Cork
p668
aVOctober 9, 1935, Bray
p669
aVAugust 18, 1931, Dublin
p670
aVOctober 22, 1931, Belfast, Northern Ireland
p671
aVAugust 6, 1935, Seaton, Cumberland
p672
aVApril 30, 1937, Belfast, Northern Ireland
p673
aVJanuary 26, 1937, Ballymena, Northern Ireland
p674
aVAugust 18, 1933, Cork
p675
aVNovember 19, 1933, Belfast, Northern Ireland
p676
aVJuly 20, 1941, ?
p677
aVOctober 24, 1939, Ballymena, Northern Ireland
p678
aVOctober 20, 1940, Belfast, Northern Ireland
p679
aVJuly 15, 1940, Bagenalstown, Carlow
p680
aVApril 3, 1938, Belfast, Northern Ireland
p681
aVNovember 1, 1934, Lytham, Lancs
p682
aVJune 6, 1940, Toomebridge, Antrim, Northern Ireland
p683
aVAugust 24, 1939, Ballinasloe
p684
aVJune 26, 1944, Dublin
p685
aVDecember 13, 1936, Co Laois
p686
aVMarch 29, 1937, Omeath, Co Louth
p687
aVDecember 18, 1938, Curragh, Co Kildare
p688
aVApril 8, 1940, Dublin
p689
aVMay 24, 1940, Clonee, Co Galway
p690
aVcirca 1934, ?
p691
aVcirca 1936, ?
p692
aVAugust 4, 1941, Dublin
p693
aVApril 3, 1942, Dublin
p694
aVJune 28, 1939, Galway
p695
aVJuly 25, 1940
p696
aVJune 11, 1942, Dublin
p697
aVDecember 1, 1933, Dublin
p698
aVDecember 3, 1942, Belfast, Northern Ireland
p699
aVJune 28, 1939, Dublin
p700
aVSeptember 7, 1934, Parteen, Co Clare
p701
aVJune 6, 1935, Woodford, Co Galway
p702
aVJuly 27, 1941, Kilmilhil, Co Clare
p703
aVOctober 13, 1941, Castleisland
p704
aVMay 10, 1941, Rochester, Kent
p705
aVNovember 18, 1941, Co Antrim, Northern Ireland
p706
aVApril 6, 1936, Ballina
p707
aVJune 29, 1943, Belfast, Northern Ireland
p708
aVAugust 20, 1941, Burma
p709
aVFebruary 11, 1935, Cork
p710
aVSeptember 27, 1944, Cornamona, Galway
p711
aVMarch 13, 1944, Waterford
p712
aVOctober 16, 1939, Dublin
p713
aVJuly 11, 1943, Cork
p714
aVFebruary 23, 1947, Leeds
p715
aVMarch 25, 1946, Cork
p716
aVMarch 18, 1946, Belfast, Northern Ireland
p717
aVJune 7, 1943, Cork
p718
aVOctober 2, 1941, Belfast, Northern Ireland
p719
aVcirca 1940, ?
p720
aVApril 29, 1945, Cork
p721
aVFebruary 6, 1949, Kampala
p722
aVJuly 5, 1939, Limerick
p723
aVJune 9, 1944, Castleisland
p724
aVOctober 10, 1943, Dunmurry, Antrim, Northern Ireland
p725
aVOctober 28, 1945, Cloheen, Tipperary
p726
aVJune 26, 1945, Limerick
p727
aVOctober 23, 1942, Armagh, Northern Ireland
p728
aVMay 28, 1948, ?
p729
aVMarch 20, 1947, ?
p730
aVAugust 19, 1943, Belfast, Northern Ireland
p731
aVDecember 12, 1942, Tullow, Co Carlow
p732
aVFebruary 12, 1949, Dun Laoghaire
p733
aVApril 13, 1946, Belfast, Northern Ireland
p734
aVApril 12, 1943, Dublin
p735
aVSeptember 22, 1942, Dublin
p736
aVSeptember 18, 1943, Dublin
p737
aVAugust 13, 1946, Dublin
p738
aVOctober 24, 1948, Dublin
p739
aVNovember 20, 1946, Strabane, Northern Ireland
p740
aVDecember 2, 1945, Ballymena, Northern Ireland
p741
aVAugust 27, 1949, Limerick
p742
aVAugust 9, 1949, London
p743
aVcirca 1944, ?
p744
aVSeptember 2, 1950, Bangor, Northern Ireland
p745
aVAugust 17, 1949, Dublin
p746
aVDecember 4, 1948, Bangor, Co Cork
p747
aVJanuary 26, 1950, Abbeyfeale, Limerick
p748
aVMay 31, 1952, Dublin
p749
aVOctober 9, 1947, Dublin
p750
aVJuly 27, 1948, Currow, Co Kerry
p751
aVMarch 18, 1942, Belfast, Northern Ireland
p752
aVAugust 5, 1948, Dublin
p753
aVApril 29, 1949, Cheltenham
p754
aVJuly 31, 1945, Enniscorthy
p755
aVNovember 21, 1952, Dublin
p756
aVAugust 12, 1950, Cork
p757
aVMarch 12, 1950, Kilkenny
p758
aVMay 2, 1950, Limerick
p759
aVJune 21, 1951, Foxford, Co Mayo
p760
aVMarch 5, 1954, Dublin
p761
aVJanuary 10, 1954, Limerick
p762
aVMarch 10, 1946, Ballymena, Northern Ireland
p763
aVAugust 8, 1941, Ballinasloe
p764
aVNovember 17, 1955, Dublin
p765
aVAugust 6, 1950, Limerick
p766
aVDecember 14, 1950, Dublin
p767
aVAugust 14, 1949, Mullingar
p768
aVSeptember 3, 1950, Belfast, Northern Ireland
p769
aVJune 14, 1951, Co.Cork
p770
aVJuly 9, 1948, Dublin
p771
aVApril 9, 1952, Dublin
p772
aVSeptember 4, 1948, Cookstown, Northern Ireland
p773
aVJune 24, 1948, Belfast, Northern Ireland
p774
aVFebruary 11, 1957, Cork
p775
aVJanuary 16, 1945, Dublin
p776
aVJuly 18, 1951, Dublin
p777
aVJanuary 13, 1958, Belfast, Northern Ireland
p778
aVSeptember 1, 1952, Belfast, Northern Ireland
p779
aVSeptember 14, 1948, Kilkenny
p780
aVAugust 30, 1949, Lurgan, Co Armagh, Northern Ireland
p781
aVNovember 25, 1953, Dublin
p782
aVFebruary 8, 1951, Dublin
p783
aVNovember 25, 1950, Dublin
p784
aVNovember 18, 1952, Bray
p785
aVNovember 26, 1953, Dublin
p786
aVAugust 23, 1956, Tralee
p787
aVOctober 8, 1954, Dublin
p788
aVOctober 19, 1954, Dublin
p789
aVMarch 3, 1955, Belfast, Northern Ireland
p790
aVMarch 3, 1954, Dublin
p791
aVJune 11, 1952, Limerick
p792
aVAugust 29, 1950, Tralee
p793
aVSeptember 22, 1952, Limerick
p794
aVMarch 29, 1957, Cork
p795
aVNovember 20, 1952, Dunaghaden, Down
p796
aVJune 4, 1952, Galway
p797
aVAugust 16, 1956, Dublin
p798
aVDecember 24, 1955, Dublin
p799
aVJuly 7, 1953, Dublin
p800
aVJune 5, 1955, Manchester
p801
aVDecember 7, 1955, Dublin
p802
aVFebruary 1, 1959, Belfast, Northern Ireland
p803
aVSeptember 16, 1958, Dublin
p804
aVSeptember 5, 1954, Dublin
p805
aVJanuary 1, 1960, Markethill, Co.Armagh, Northern Ireland
p806
aVJune 28, 1960, Dublin
p807
aVNovember 24, 1955, Cork
p808
aVAugust 27, 1957, Bray
p809
aVNovember 21, 1960, Carrickfergus, Northern Ireland
p810
aVSeptember 12, 1959, Cork
p811
aVNovember 13, 1959, Belfast, Northern Ireland
p812
aVJanuary 17, 1961, Cork
p813
aVDecember 29, 1959, Belfast, Northern Ireland
p814
aVMarch 5, 1957, Kilkenny
p815
aVOctober 3, 1957, Clonmel
p816
aVJuly 14, 1957, Belfast, Northern Ireland
p817
aVJune 28, 1958, Enniskillen, Northern Ireland
p818
aVAugust 19, 1957, Dublin
p819
aVApril 26, 1958, Dublin
p820
aVDecember 20, 1957, Dublin
p821
aVMay 3, 1960, Dublin
p822
aVFebruary 17, 1955, Leamington Spa
p823
aVApril 3, 1955, Sixmilecross, Northern Ireland
p824
aVNovember 17, 1962, Cork
p825
aVJanuary 24, 1960, Gloucester
p826
aVOctober 30, 1963, Jerusalem
p827
aVJuly 21, 1959, ?
p828
aVJuly 27, 1959, Belfast, Northern Ireland
p829
aVJanuary 26, 1960, Cork
p830
aVJune 17, 1959, Armagh, Northern Ireland
p831
aVAugust 24, 1956, ?
p832
aVJanuary 30, 1957, ?
p833
aVAugust 1, 1961, Cork
p834
aVSeptember 19, 1963, Cork
p835
aVDecember 7, 1959, Cork
p836
aVApril 9, 1960, Banbridge, Co Down, Northern Ireland
p837
aVMarch 17, 1964, Dublin
p838
aVcirca 1957, ?
p839
aVOctober 5, 1965, Abbeyfeale, Limerick
p840
aVAugust 31, 1961, London
p841
aVNovember 16, 1960, Newtonards, Northern Ireland
p842
aVMarch 16, 1962, Dublin
p843
aVSeptember 9, 1964, Belfast, Northern Ireland
p844
aVAugust 29, 1960, Dublin
p845
aVMarch 16, 1963, Cork
p846
aVMarch 14, 1967, Dublin
p847
aVJune 27, 1963, Dublin
p848
aVJuly 18, 1959, Belfast, Northern Ireland
p849
aVJanuary 12, 1963, Ballinasloe
p850
aVAugust 4, 1961, Hornchurch, Essex
p851
aVFebruary 25, 1964, Dublin
p852
aVMay 19, 1958, Dublin
p853
aVApril 6, 1964, Dublin
p854
aVJuly 12, 1959, Ballymena, Northern Ireland
p855
aVSeptember 9, 1966, St George
p856
aVFebruary 14, 1966, Dublin
p857
aVJuly 21, 1966, Cork
p858
aVFebruary 22, 1962, Belfast, Northern Ireland
p859
aVFebruary 19, 1968, Portadown, Northern Ireland
p860
aVJuly 2, 1965, Kildare
p861
aVAugust 22, 1966, Dublin
p862
aVOctober 8, 1966, Currow, Co Kerry
p863
aVSeptember 1, 1968, Knebworth
p864
aVMay 13, 1964, Belfast, Northern Ireland
p865
aVSeptember 22, 1963, Portlaoise
p866
aVMarch 20, 1966, Belfast, Northern Ireland
p867
aVAugust 5, 1968, Nottingham
p868
aVSeptember 2, 1968, Kisumu
p869
aVApril 10, 1965, Salisbury, South Rhodesia
p870
aVOctober 20, 1965, Bermondsey
p871
aVJanuary 16, 1968, Cork
p872
aVJanuary 5, 1969, Limerick
p873
aVApril 2, 1965, Askeaton, Limerick
p874
aVJune 29, 1968, Limerick
p875
aVSeptember 14, 1964, Limavady, Northern Ireland
p876
aVAugust 6, 1965, Dungannon, Northern Ireland
p877
aVJuly 10, 1968, Waterford
p878
aVSeptember 1, 1965, Cork
p879
aVAugust 27, 1963, Cork
p880
aVNovember 29, 1967, Bangor, Co Down, Northern Ireland
p881
aVApril 28, 1960, Philippine
p882
aVFebruary 8, 1963, Dublin
p883
aVMarch 8, 1964, Limerick
p884
aVApril 30, 1971, Leeds
p885
aVApril 4, 1961, Belfast, Northern Ireland
p886
aVMarch 8, 1969, Dublin
p887
aVMarch 22, 1966, Limerick
p888
aVApril 17, 1967, ?
p889
aVFebruary 26, 1969, Galway
p890
aVOctober 21, 1970, Limerick
p891
aVJuly 25, 1968, Cork
p892
aVFebruary 24, 1964, Greenisland, Northern Ireland
p893
aVFebruary 7, 1974, Belfast, Northern Ireland
p894
aVNovember 6, 1972, Cork
p895
aVJanuary 27, 1972, Limerick
p896
aVJune 21, 1971, Dublin
p897
aVNovember 27, 1969, Aldershot
p898
aVJanuary 2, 1972, Dublin
p899
aVMay 1, 1973, Paddington
p900
aVOctober 30, 1973, Limerick
p901
aVApril 20, 1971, Dublin
p902
aVJuly 13, 1968, Limerick
p903
aVAugust 11, 1970, Limerick
p904
aVNovember 13, 1959, Ballymoney, Antrim, Northern Ireland
p905
aVAugust 18, 1970, Derry
p906
aVAugust 18, 1972, Cork
p907
aVDecember 30, 1971, Cork
p908
aVApril 28, 1974, Belfast, Northern Ireland
p909
aVAugust 8, 1971, Wallasey
p910
aVJuly 29, 1967, Dungannon, Northern Ireland
p911
aVDecember 28, 1965, Doncaster
p912
aVOctober 23, 1968, Auckland
p913
aVOctober 23, 1970, Stepaside
p914
aVApril 6, 1966, Tekuiti
p915
aVSeptember 10, 1971, Belfast, Northern Ireland
p916
aVOctober 22, 1973, Wirral
p917
aVOctober 27, 1972, Dover
p918
aVDecember 18, 1974, Belfast, Northern Ireland
p919
aVJuly 26, 1974, Cork
p920
aVFebruary 5, 1969, Dublin
p921
aVSeptember 23, 1975, Dublin
p922
aVApril 4, 1972, Dublin
p923
aVFebruary 13, 1976, Dublin
p924
aVJuly 30, 1969, Feilding
p925
aVApril 5, 1976, Cork
p926
aVJanuary 29, 1975, Bangor, Co Down, Northern Ireland
p927
aVMarch 29, 1975, Dublin
p928
aVMay 26, 1976, Dublin
p929
aVJune 26, 1971, Dublin
p930
aVJuly 19, 1974, Chelmsford
p931
aVOctober 14, 1969, Waltham Forest
p932
aVJune 3, 1974, Bristol
p933
aVNovember 19, 1970, Dublin
p934
aVNovember 19, 1971, Manchester
p935
aVSeptember 8, 1970, Whangarei
p936
aVAugust 14, 1971, Drogheda
p937
aVNovember 8, 1974, Crawley, Sussex
p938
aVNovember 21, 1973, Chichester
p939
aVMay 24, 1972, Cape Town
p940
aVSeptember 22, 1973, Leixlip
p941
aVMay 1, 1972
p942
aVOctober 2, 1975, Dublin
p943
aVOctober 15, 1978, Dublin
p944
aVSeptember 10, 1974, Sydney, NSW
p945
aVJanuary 21, 1979, Dublin
p946
aVSeptember 1, 1976, Limerick
p947
aVOctober 29, 1970, Auckland
p948
aVJuly 18, 1978, Dublin
p949
aVFebruary 10, 1980, Wexford
p950
aVFebruary 13, 1969, Drogheda
p951
aVJuly 13, 1974, Tipperary
p952
aVJuly 21, 1975, Harrogate
p953
aVNovember 2, 1973, Cappamore
p954
aVJuly 18, 1978, Bellewstown, Co.Meath
p955
aVMarch 7, 1977, San Diego, CA, United States
p956
aVDecember 13, 1977, Cork
p957
aVNovember 24, 1973, Dublin
p958
aVJuly 8, 1976, Cork
p959
aVMarch 21, 1971, Tadcaster
p960
aVApril 2, 1971, Newtownards, Northern Ireland
p961
aVApril 19, 1978, Dublin
p962
aVSeptember 7, 1977, Limerick
p963
aVAugust 27, 1976, Toronto
p964
aVJuly 30, 1971, Belfast, Northern Ireland
p965
aVApril 4, 1973, Dublin
p966
aVJuly 18, 1971, Aughrim
p967
aVOctober 8, 1978, Cork
p968
aVMay 7, 1980, Limerick
p969
aVOctober 20, 1979, Limerick
p970
aVJune 17, 1976, Dublin
p971
aVApril 18, 1974, Dublin
p972
aVJanuary 9, 1978, Wicklow
p973
aVMarch 24, 1979, Cork
p974
aVAugust 9, 1978, Dun Laoighre
p975
aVFebruary 11, 1978, Craigavon, Northern Ireland
p976
aVNovember 15, 1976, Cork
p977
aVJanuary 5, 1977, Drogheda
p978
aVSeptember 25, 1978, Belfast, Northern Ireland
p979
aVSeptember 18, 1981, Ballina
p980
aVFebruary 9, 1980, Galway
p981
aVFebruary 22, 1984, Emyvale
p982
aVNovember 27, 1981, Tipperary
p983
aVSeptember 9, 1981, ?
p984
aVSeptember 21, 1981, Belfast, Northern Ireland
p985
aVJuly 26, 1979, Hillingdon, London
p986
aVNovember 19, 1979, Nenagh, Co.Tipperary
p987
aVMay 5, 1976, Carlow
p988
aVJanuary 4, 1978, Dublin
p989
aVAugust 19, 1980, Dublin
p990
aVMarch 4, 1979, Belfast, Northern Ireland
p991
aVAugust 15, 1982, Craigavon, Northern Ireland
p992
aVOctober 20, 1984, Belfast, Northern Ireland
p993
aVOctober 17, 1978, Galway
p994
aVNovember 20, 1980, Limerick
p995
aVApril 9, 1980, Tokoroa
p996
aVJune 11, 1981, Ballymena, Northern Ireland
p997
aVAugust 27, 1979, Belfast, Northern Ireland
p998
aVAugust 2, 1985, Portadown, Northern Ireland
p999
aVSeptember 13, 1987, Wicklow
p1000
aVDecember 15, 1983, Tiberias
p1001
aVJuly 23, 1976, Cork
p1002
aVOctober 8, 1980, Cork
p1003
aVNovember 28, 1982, Limerick
p1004
aVOctober 22, 1983, Cork
p1005
aVJuly 8, 1981, Dublin
p1006
aVMarch 26, 1986, Dublin
p1007
aVOctober 2, 1987, Moyross
p1008
aVDecember 11, 1983, Limerick
p1009
aVNovember 6, 1980, Brisbane, QLD
p1010
aVApril 5, 1987, Holywood, Northern Ireland
p1011
aVOctober 5, 1982, Kilkenny
p1012
aVApril 1, 1987, Dublin
p1013
aVNovember 30, 1982, Ballinasloe
p1014
aVSeptember 14, 1982, Pilltown, Co Meath
p1015
aVJune 5, 1987, Lisburn, Northern Ireland
p1016
aVSeptember 1, 1984, Belfast, Northern Ireland
p1017
aVDecember 21, 1979, Cork
p1018
aVJuly 15, 1984, West Cork
p1019
aVOctober 7, 1987, Clontarf
p1020
aVJuly 11, 1985, Dublin
p1021
aVMay 6, 1986, Limerick
p1022
aVFebruary 14, 1987, Dublin
p1023
aVSeptember 20, 1984, Dublin
p1024
aVOctober 18, 1977, Cork
p1025
aVJune 18, 1985, Bristol
p1026
aVOctober 17, 1984, Belfast, Northern Ireland
p1027
aVNovember 13, 1990, Dublin
p1028
aVOctober 29, 1983, Limerick
p1029
aVJune 29, 1986, Moynalvey, Co Meath
p1030
aVJune 17, 1986, Kilkenny
p1031
aVNovember 27, 1981, London
p1032
aVAugust 5, 1987, Dublin
p1033
aVApril 20, 1989, Limerick
p1034
aVSeptember 17, 1989, Cork
p1035
aVJuly 12, 1983, Bromsgrove, Worcs
p1036
aVMarch 16, 1990, Cork
p1037
aVNovember 1, 1984, Galway
p1038
aVJanuary 29, 1986, Pretoria
p1039
aVApril 25, 1986, Hawera
p1040
aVFebruary 21, 1992, Craigavon, Northern Ireland
p1041
aVDecember 14, 1988, Limerick
p1042
aVMarch 11, 1991, Belfast, Northern Ireland
p1043
aVJanuary 5, 1992, Belfast, Northern Ireland
p1044
aVMarch 3, 1991, Ballymoney
p1045
aVMarch 21, 1989, Dublin
p1046
aVJanuary 29, 1988, Cork
p1047
aVJuly 26, 1985, Lisburn, Northern Ireland
p1048
aVJune 12, 1993, Athlone
p1049
aVMarch 11, 1993, Belfast, Northern Ireland
p1050
aVApril 15, 1987, Dublin
p1051
aVMay 21, 1987, Tipperary
p1052
aVJune 18, 1988, Limerick
p1053
aVMarch 23, 1981, Dublin
p1054
aVOctober 11, 1989, Dublin
p1055
aVJune 19, 1989, Dublin
p1056
aVMarch 1, 1991, Dublin
p1057
aVApril 22, 1991, Barcelona
p1058
aVNovember 12, 1985, Johannesburg
p1059
aVOctober 27, 1988, Lower Hutt
p1060
aVFebruary 11, 1992, Barking
p1061
aVNovember 23, 1990, Ballincollig
p1062
aVApril 27, 1990, Cape Town
p1063
aVMay 22, 1990, Dublin
p1064
aVOctober 13, 1985, Tauranga
p1065
aVMay 16, 1988, Tipperary
p1066
aVMarch 28, 1990, Dublin
p1067
aVOctober 23, 1987, Wexford
p1068
a.