(lp1
(lp2
S'William Allen'
p3
aS'1875'
p4
aS'Forward'
p5
aS'Lancs'
p6
aS'1'
aS'0'
aS'0'
aNaa(lp7
S'George Andrews'
p8
aS'1875'
p9
aS'Forward'
p10
aS'?'
aS'2'
aS'0'
aS'0'
aNaa(lp11
S'W.H. Ash'
p12
aS'1875'
p13
aS'Forward'
p14
aS'?'
aS'3'
aS'0'
aS'0'
aNaa(lp15
S'Maurice Barlow'
p16
aS'1875'
p17
aS'Forward'
p18
aS'Dublin'
p19
aS'1'
aS'0'
aS'0'
aNaa(lp20
S'Richard Bell'
p21
aS'1875'
p22
aS'Three-quarters'
p23
aS'?'
aS'2'
aS'0'
aS'0'
aNaa(lp24
S'Brab Casement'
p25
aS'1875'
p26
aS'Forward'
p27
aS'Co Antri'
p28
aS'3'
aS'0'
aS'0'
aNaa(lp29
S'Abram Combe'
p30
aS'1875'
p31
aS'Forward'
p32
aS'?'
aS'1'
aS'0'
aS'0'
aNaa(lp33
S'Henry Cox'
p34
aS'1875'
p35
aS'Forward'
p36
aS'Bangalore'
p37
aS'4'
aS'0'
aS'0'
aNaa(lp38
S'Abraham Cronyn'
p39
aS'1875'
p40
aS'Forward'
p41
aS'?'
aS'3'
aS'0'
aS'0'
aNaa(lp42
S'William Gaffikin'
p43
aS'1875'
p44
aS'Forward'
p45
aS'?'
aS'1'
aS'0'
aS'0'
aNaa(lp46
S'Edgar Galbraith'
p47
aS'1875'
p48
aS'Forward'
p49
aS'Dublin'
p50
aS'1'
aS'0'
aS'0'
aNaa(lp51
S'Richard Galbraith'
p52
aS'1875'
p53
aS'Fullback'
p54
aS'Dublin'
p55
aS'3'
aS'0'
aS'0'
aNaa(lp56
S'Francis Hewson'
p57
aS'1875'
p58
aS'Forward'
p59
aS'?'
aS'1'
aS'0'
aS'0'
aNaa(lp60
S'Sandy McDonald'
p61
aS'1875'
p62
aS'Forward'
p63
aS'Northern Ireland'
p64
aS'13'
p65
aS'1'
aS'0'
aNaa(lp66
S'Edward MacIlwaine'
p67
aS'1875'
p68
aS'Forward'
p69
aS'?'
aS'2'
aS'0'
aS'0'
aNaa(lp70
S'Robert Maginniss'
p71
aS'1875'
p72
aS'Forward'
p73
aS'Northern Ireland'
p74
aS'2'
aS'0'
aS'0'
aNaa(lp75
S'John Myles'
p76
aS'1875'
p77
aS'Halfback'
p78
aS'Limerick'
p79
aS'1'
aS'0'
aS'0'
aNaa(lp80
S'George Stack'
p81
aS'1875'
p82
aS'Forward'
p83
aS'Omagh'
p84
aS'1'
aS'0'
aS'0'
aNaa(lp85
S'Robert Walkington'
p86
aS'1875'
p87
aS'Fullback'
p88
aS'United States'
p89
aS'10'
p90
aS'0'
aS'0'
aNaa(lp91
S'Henry Walsh'
p92
aS'1875'
p93
aS'Forward'
p94
aS'Dublin'
p95
aS'2'
aS'0'
aS'0'
aNaa(lp96
S'David Arnott'
p97
aS'1875'
p98
aS'Forward'
p99
aS'Tynemouth'
p100
aS'1'
aS'0'
aS'0'
aNaa(lp101
S'Tim Cuscaden'
p102
aS'1875'
p103
aS'Forward'
p104
aS'Wexford'
p105
aS'1'
aS'0'
aS'0'
aNaa(lp106
S'William Finlay'
p107
aS'1875'
p108
aS'Forward'
p109
aS'?'
aS'8'
aS'0'
aS'0'
aNaa(lp110
S'R. Greer'
p111
aS'1875'
p112
aS'Forward'
p113
aS'?'
aS'1'
aS'0'
aS'0'
aNaa(lp114
S'Edward Hobson'
p115
aS'1875'
p116
aS'Three-quarters'
p117
aS'Co.Wexford'
p118
aS'1'
aS'0'
aS'0'
aNaa(lp119
S'John Ireland'
p120
aS'1875'
p121
aS'Forward'
p122
aS'?'
aS'2'
aS'0'
aS'0'
aNaa(lp123
S'Hamilton Moore'
p124
aS'1875'
p125
aS'Fullback'
p126
aS'Co.Antrim'
p127
aS'2'
aS'0'
aS'0'
aNaa(lp128
S'Ashley Westby'
p129
aS'1875'
p130
aS'Forward'
p131
aS'Co.Dublin'
p132
aS'1'
aS'0'
aS'0'
aNaa(lp133
S'H. Brown'
p134
aS'1877'
p135
aS'Three-quarters'
p136
aS'?'
aS'1'
aS'0'
aS'0'
aNaa(lp137
S'Thomas Brown'
p138
aS'1877'
p139
aS'Forward'
p140
aS'?'
aS'2'
aS'0'
aS'0'
aNaa(lp141
S'Henry Edwards'
p142
aS'1877'
p143
aS'Forward'
p144
aS'Carnarvon'
p145
aS'2'
aS'0'
aS'0'
aNaa(lp146
S'Thomas Gordon'
p147
aS'1877'
p148
aS'Halfback'
p149
aS'?'
aS'3'
aS'0'
aS'0'
aNaa(lp150
S'William Hamilton'
p151
aS'1877'
p152
aS'Forward'
p153
aS'?'
aS'1'
aS'0'
aS'0'
aNaa(lp154
S'Harry Jackson'
p155
aS'1877'
p156
aS'Forward'
p157
aS'Co.Monaghan'
p158
aS'1'
aS'0'
aS'0'
aNaa(lp159
S'Hugh Kelly'
p160
aS'1877'
p161
aS'Forward'
p162
aS'?'
aS'6'
aS'0'
aS'0'
aNaa(lp163
S'Frederick Kidd'
p164
aS'1877'
p165
aS'Three-quarters'
p166
aS'Newry'
p167
aS'3'
aS'0'
aS'0'
aNaa(lp168
S'Augustus Whitestone'
p169
aS'1877'
p170
aS'Halfback'
p171
aS'Dublin'
p172
aS'5'
aS'0'
aS'0'
aNaa(lp173
S'William Wilson'
p174
aS'1877'
p175
aS'Forward'
p176
aS'?'
aS'2'
aS'0'
aS'0'
aNaa(lp177
S'J. Currell'
p178
aS'1877'
p179
aS'Forward'
p180
aS'?'
aS'1'
aS'0'
aS'0'
aNaa(lp181
S'James Heron'
p182
aS'1877'
p183
aS'Halfback'
p184
aS'Co.Down'
p185
aS'2'
aS'0'
aS'0'
aNaa(lp186
S'Henry Murray'
p187
aS'1877'
p188
aS'Forward'
p189
aS'Dublin'
p190
aS'3'
aS'0'
aS'0'
aNaa(lp191
S'Garvett Shaw'
p192
aS'1877'
p193
aS'Fullback'
p194
aS'Belfast'
p195
aS'1'
aS'0'
aS'0'
aNaa(lp196
S'Edward Croker'
p197
aS'1878'
p198
aS'Forward'
p199
aS'?'
aS'1'
aS'0'
aS'0'
aNaa(lp200
S'George Fagan'
p201
aS'1878'
p202
aS'Halfback'
p203
aS'Bengal'
p204
aS'1'
aS'0'
aS'0'
aNaa(lp205
S'W. Griffiths'
p206
aS'1878'
p207
aS'Forward'
p208
aS'?'
aS'1'
aS'0'
aS'0'
aNaa(lp209
S'Barney Hughes'
p210
aS'1878'
p211
aS'Forward'
p212
aS'?'
aS'12'
p213
aS'1'
aS'0'
aNaa(lp214
S'Robert Matier'
p215
aS'1878'
p216
aS'Three-quarters'
p217
aS'Belfast'
p218
aS'2'
aS'0'
aS'0'
aNaa(lp219
S'William Moore'
p220
aS'1878'
p221
aS'Forward'
p222
aS'Co.Antrim'
p223
aS'1'
aS'0'
aS'0'
aNaa(lp224
S'Frederick Schute'
p225
aS'1878'
p226
aS'Forward'
p227
aS'Bradford'
p228
aS'2'
aS'0'
aS'0'
aNaa(lp229
S'Arthur Archer'
p230
aS'1879'
p231
aS'Forward'
p232
aS'Co.Kildare'
p233
aS'1'
aS'0'
aS'0'
aNaa(lp234
S'John Bagot'
p235
aS'1879'
p236
aS'Three-quarters'
p237
aS'Galway'
p238
aS'5'
aS'1'
aS'0'
aNaa(lp239
S'William Cummins'
p240
aS'1879'
p241
aS'Forward'
p242
aS'Cork'
p243
aS'3'
aS'0'
aS'0'
aNaa(lp244
S'William Goulding'
p245
aS'1879'
p246
aS'Halfback'
p247
aS'Cork'
p248
aS'1'
aS'0'
aS'0'
aNaa(lp249
S'Thomas Harrison'
p250
aS'1879'
p251
aS'Three-quarters'
p252
aS'?'
aS'3'
aS'0'
aS'0'
aNaa(lp253
S'William Neville'
p254
aS'1879'
p255
aS'Forward'
p256
aS'West Indie'
p257
aS'2'
aS'0'
aS'0'
aNaa(lp258
S'Henry Purdon'
p259
aS'1879'
p260
aS'Forward'
p261
aS'?'
aS'5'
aS'1'
aS'0'
aNaa(lp262
S'George Scriven'
p263
aS'1879'
p264
aS'Forward'
p265
aS'Dublin'
p266
aS'8'
aS'0'
aS'0'
aNaa(lp267
S'John Taylor'
p268
aS'1879'
p269
aS'Forward'
p270
aS'?'
aS'8'
aS'1'
aS'0'
aNaa(lp271
S'James Bristow'
p272
aS'1879'
p273
aS'Forward'
p274
aS'?'
aS'1'
aS'0'
aS'0'
aNaa(lp275
S'John Cuppaidge'
p276
aS'1879'
p277
aS'Forward'
p278
aS'Dublin'
p279
aS'3'
aS'0'
aS'1'
aNaa(lp280
S'Jack Keon'
p281
aS'1879'
p282
aS'Forward'
p283
aS'Westmeath'
p284
aS'1'
aS'0'
aS'0'
aNaa(lp285
S'William Pike'
p286
aS'1879'
p287
aS'Three-quarters'
p288
aS'Mayo'
p289
aS'5'
aS'1'
aS'0'
aNaa(lp290
S'Willington Willis'
p291
aS'1879'
p292
aS'Three-quarters'
p293
aS'circa 1860'
p294
aS'1'
aS'0'
aS'0'
aNaa(lp295
S'Arthur Forrest'
p296
aS'1880'
p297
aS'Forward'
p298
aS'Dublin'
p299
aS'8'
aS'1'
aS'1'
aNaa(lp300
S'William Heron'
p301
aS'1880'
p302
aS'Halfback'
p303
aS'?'
aS'2'
aS'0'
aS'0'
aNaa(lp304
S'Meredith Johnston'
p305
aS'1880'
p306
aS'Halfback'
p307
aS'Dublin'
p308
aS'8'
aS'1'
aS'1'
aNaa(lp309
S'Francis Kennedy'
p310
aS'1880'
p311
aS'Forward'
p312
aS'?'
aS'3'
aS'0'
aS'0'
aNaa(lp313
S'Alfred Miller'
p314
aS'1880'
p315
aS'Forward'
p316
aS'Kingstown'
p317
aS'3'
aS'0'
aS'0'
aNaa(lp318
S'William Wallis'
p319
aS'1880'
p320
aS'Forward'
p321
aS'Dublin'
p322
aS'5'
aS'1'
aS'0'
aNaa(lp323
S'David Browning'
p324
aS'1881'
p325
aS'Forward'
p326
aS'?'
aS'2'
aS'1'
aS'0'
aNaa(lp327
S'John Burkitt'
p328
aS'1881'
p329
aS'Forward'
p330
aS'Co.Clare'
p331
aS'1'
aS'0'
aS'0'
aNaa(lp332
S'Alfred MacMullen'
p333
aS'1881'
p334
aS'Forward'
p335
aS'?'
aS'2'
aS'1'
aS'0'
aNaa(lp336
S'Jones Morell'
p337
aS'1881'
p338
aS'Forward'
p339
aS'Tyrone'
p340
aS'4'
aS'1'
aS'0'
aNaa(lp341
S'William Peirce'
p342
aS'1881'
p343
aS'Three-quarters'
p344
aS'?'
aS'1'
aS'0'
aS'0'
aNaa(lp345
S'Henry Spunner'
p346
aS'1881'
p347
aS'Halfback'
p348
aS'?'
aS'3'
aS'1'
aS'0'
aNaa(lp349
S'Jack Johnston'
p350
aS'1881'
p351
aS'Forward'
p352
aS'?'
aS'9'
aS'2'
aS'0'
aNaa(lp353
S'Robert McLean'
p354
aS'1881'
p355
aS'Three-quarters'
p356
aS'?'
aS'10'
p357
aS'1'
aS'0'
aNaa(lp358
S'Joseph Atkinson'
p359
aS'1882'
p360
aS'Three-quarters'
p361
aS'Dublin'
p362
aS'2'
aS'0'
aS'0'
aNaa(lp363
S'Gerrard Bent'
p364
aS'1882'
p365
aS'Halfback'
p366
aS'Greenwich'
p367
aS'2'
aS'0'
aS'0'
aNaa(lp368
S'Arthur Downing'
p369
aS'1882'
p370
aS'Forward'
p371
aS'Monkstown?'
p372
aS'1'
aS'0'
aS'0'
aNaa(lp373
S'William Fletcher'
p374
aS'1882'
p375
aS'Halfback'
p376
aS'?'
aS'3'
aS'0'
aS'0'
aNaa(lp377
S'Ernest Greene'
p378
aS'1882'
p379
aS'Three-quarters'
p380
aS'Dublin'
p381
aS'4'
aS'0'
aS'1'
aNaa(lp382
S'Frederick Heuston'
p383
aS'1882'
p384
aS'Forward'
p385
aS'Tipperary'
p386
aS'3'
aS'0'
aS'0'
aNaa(lp387
S'John Kennedy'
p388
aS'1882'
p389
aS'Forward'
p390
aS'Co.Tipperar'
p391
aS'2'
aS'0'
aS'0'
aNaa(lp392
S'Ted McCarthy'
p393
aS'1882'
p394
aS'Forward'
p395
aS'?'
aS'1'
aS'0'
aS'0'
aNaa(lp396
S'Thomas McCarthy'
p397
aS'1882'
p398
aS'Three-quarters'
p399
aS'Tipperary'
p400
aS'1'
aS'0'
aS'0'
aNaa(lp401
S'Bob Thompson'
p402
aS'1882'
p403
aS'Forward'
p404
aS'?'
aS'1'
aS'0'
aS'0'
aNaa(lp405
S'Thomas Johnson-Smyth'
p406
aS'1882'
p407
aS'Forward'
p408
aS'?'
aS'1'
aS'0'
aS'0'
aNaa(lp409
S'Robert Nelson'
p410
aS'1882'
p411
aS'Forward'
p412
aS'?'
aS'4'
aS'0'
aS'0'
aNaa(lp413
S'Oliver Stokes'
p414
aS'1882'
p415
aS'Forward'
p416
aS'Kent'
p417
aS'2'
aS'0'
aS'1'
aNaa(lp418
S'Edward Wolfe'
p419
aS'1882'
p420
aS'Three-quarters'
p421
aS'Northern Ireland'
p422
aS'1'
aS'0'
aS'0'
aNaa(lp423
S'John Buchanan'
p424
aS'1882'
p425
aS'Forward'
p426
aS'?'
aS'3'
aS'0'
aS'0'
aNaa(lp427
S'Robert Morrow'
p428
aS'1882'
p429
aS'Fullback'
p430
aS'?'
aS'10'
p431
aS'0'
aS'0'
aNaa(lp432
S"Alexander O'Sullivan"
p433
aS'1882'
p434
aS'Forward'
p435
aS'Cork'
p436
aS'1'
aS'0'
aS'0'
aNaa(lp437
S'Joe Pedlow'
p438
aS'1882'
p439
aS'Three-quarters'
p440
aS'?'
aS'2'
aS'0'
aS'0'
aNaa(lp441
S'Stewart Bruce'
p442
aS'1883'
p443
aS'Forward'
p444
aS'Northern Ireland'
p445
aS'3'
aS'0'
aS'0'
aNaa(lp446
S'Henry King'
p447
aS'1883'
p448
aS'Forward'
p449
aS'London'
p450
aS'2'
aS'0'
aS'0'
aNaa(lp451
S'Frank Moore'
p452
aS'1883'
p453
aS'Forward'
p454
aS'Dublin'
p455
aS'4'
aS'0'
aS'0'
aNaa(lp456
S'Rowland Scovell'
p457
aS'1883'
p458
aS'Three-quarters'
p459
aS'Kingstown'
p460
aS'2'
aS'0'
aS'0'
aNaa(lp461
S'Peyton Warren'
p462
aS'1883'
p463
aS'Halfback'
p464
aS'?'
aS'1'
aS'0'
aS'0'
aNaa(lp465
S'Samuel Collier'
p466
aS'1883'
p467
aS'Halfback'
p468
aS'Northern Ireland'
p469
aS'1'
aS'0'
aS'0'
aNaa(lp470
S'Henry Brabazon'
p471
aS'1884'
p472
aS'Forward'
p473
aS'nr Mullingar'
p474
aS'3'
aS'0'
aS'0'
aNaa(lp475
S'William Higgin'
p476
aS'1884'
p477
aS'Halfback'
p478
aS'Belfast'
p479
aS'2'
aS'0'
aS'0'
aNaa(lp480
S'Francis Levis'
p481
aS'1884'
p482
aS'Forward'
p483
aS'Co.Cork'
p484
aS'1'
aS'0'
aS'0'
aNaa(lp485
S'Daniel Ross'
p486
aS'1884'
p487
aS'Three-quarters'
p488
aS'Co.Down'
p489
aS'5'
aS'0'
aS'0'
aNaa(lp490
S'William Rutherford'
p491
aS'1884'
p492
aS'Forward'
p493
aS'Tipperary'
p494
aS'6'
aS'1'
aS'0'
aNaa(lp495
S'Alexander Gordon'
p496
aS'1884'
p497
aS'Forward'
p498
aS'Dublin'
p499
aS'1'
aS'0'
aS'0'
aNaa(lp500
S'Thomas Hobbs'
p501
aS'1884'
p502
aS'Forward'
p503
aS'Ambala'
p504
aS'2'
aS'0'
aS'0'
aNaa(lp505
S'Walter Kelly'
p506
aS'1884'
p507
aS'Forward'
p508
aS'?'
aS'1'
aS'0'
aS'0'
aNaa(lp509
S'Lewis McIntosh'
p510
aS'1884'
p511
aS'Three-quarters'
p512
aS'?'
aS'1'
aS'0'
aS'1'
aNaa(lp513
S'Forbes Maguire'
p514
aS'1884'
p515
aS'Forward'
p516
aS'Dublin'
p517
aS'1'
aS'0'
aS'0'
aNaa(lp518
S"John O'Sullivan"
p519
aS'1884'
p520
aS'Fullback'
p521
aS'Limerick'
p522
aS'2'
aS'0'
aS'0'
aNaa(lp523
S'George Wheeler'
p524
aS'1884'
p525
aS'Fullback'
p526
aS'Belfast'
p527
aS'2'
aS'0'
aS'0'
aNaa(lp528
S'William Collis'
p529
aS'1884'
p530
aS'Forward'
p531
aS'?'
aS'1'
aS'0'
aS'0'
aNaa(lp532
S'Herbert Cook'
p533
aS'1884'
p534
aS'Forward'
p535
aS'?'
aS'1'
aS'0'
aS'0'
aNaa(lp536
S'John Fitzgerald'
p537
aS'1884'
p538
aS'Forward'
p539
aS'?'
aS'1'
aS'0'
aS'0'
aNaa(lp540
S'William Hallaran'
p541
aS'1884'
p542
aS'Halfback'
p543
aS'1861'
p544
aS'1'
aS'0'
aS'0'
aNaa(lp545
S'Alexander Hamilton'
p546
aS'1884'
p547
aS'Forward'
p548
aS'?'
aS'1'
aS'0'
aS'0'
aNaa(lp549
S'Walter Johnstone'
p550
aS'1884'
p551
aS'Forward'
p552
aS'Kingstown'
p553
aS'1'
aS'0'
aS'0'
aNaa(lp554
S'Charles Jordan'
p555
aS'1884'
p556
aS'Wing'
p557
aS'date unknown'
p558
aS'1'
aS'0'
aS'0'
aNaa(lp559
S'John McDaniel'
p560
aS'1884'
p561
aS'Wing'
p562
aS'Newport'
p563
aS'1'
aS'0'
aS'0'
aNaa(lp564
S'Frederick Moore'
p565
aS'1884'
p566
aS'Forward'
p567
aS'Dublin'
p568
aS'4'
aS'0'
aS'0'
aNaa(lp569
S'Lambert Moyers'
p570
aS'1884'
p571
aS'Forward'
p572
aS'Dublin'
p573
aS'1'
aS'0'
aS'0'
aNaa(lp574
S'Thomas Allen'
p575
aS'1885'
p576
aS'Forward'
p577
aS'Derry'
p578
aS'2'
aS'0'
aS'0'
aNaa(lp579
S'Robert Bradshaw'
p580
aS'1885'
p581
aS'Forward'
p582
aS'Co.Wexford'
p583
aS'3'
aS'0'
aS'0'
aNaa(lp584
S'Ernie Crawford'
p585
aS'1885'
p586
aS'Halfback'
p587
aS'1861'
p588
aS'2'
aS'0'
aS'0'
aNaa(lp589
S'Thomas Lyle'
p590
aS'1885'
p591
aS'Forward'
p592
aS'Northern Ireland'
p593
aS'6'
aS'1'
aS'0'
aNaa(lp594
S'Harry Neill'
p595
aS'1885'
p596
aS'Forward'
p597
aS'Geelong'
p598
aS'9'
aS'2'
aS'0'
aNaa(lp599
S'John Ross'
p600
aS'1885'
p601
aS'Three-quarters'
p602
aS'Dublin'
p603
aS'5'
aS'0'
aS'0'
aNaa(lp604
S'Thomas Shanahan'
p605
aS'1885'
p606
aS'Forward'
p607
aS'Waterford'
p608
aS'6'
aS'1'
aS'1'
aNaa(lp609
S'Robert Warren'
p610
aS'1885'
p611
aS'Halfback'
p612
aS'Co.Meath'
p613
aS'15'
p614
aS'3'
aS'1'
aS'0'
aa(lp615
S'J.A. Thompson'
p616
aS'1885'
p617
aS'Forward'
p618
aS'?'
aS'2'
aS'0'
aS'0'
aNaa(lp619
S'William Hogg'
p620
aS'1885'
p621
aS'Forward'
p622
aS'?'
aS'1'
aS'0'
aS'0'
aNaa(lp623
S'D.V. Hunter'
p624
aS'1885'
p625
aS'Halfback'
p626
aS'?'
aS'1'
aS'0'
aS'0'
aNaa(lp627
S'Joseph Chambers'
p628
aS'1886'
p629
aS'Forward'
p630
aS'Co Cavan'
p631
aS'5'
aS'1'
aS'0'
aNaa(lp632
S'Victor le Fanu'
p633
aS'1886'
p634
aS'Forward'
p635
aS'Dublin'
p636
aS'11'
p637
aS'3'
aS'0'
aS'0'
aa(lp638
S'Ralph Massy-Westropp'
p639
aS'1886'
p640
aS'Forward'
p641
aS'Worcester'
p642
aS'1'
aS'0'
aS'0'
aNaa(lp643
S'Maxy Carpendale'
p644
aS'1886'
p645
aS'Three-quarters'
p646
aS'Bombay'
p647
aS'4'
aS'1'
aS'0'
aNaa(lp648
S'Robert Herrick'
p649
aS'1886'
p650
aS'Halfback'
p651
aS'Cork'
p652
aS'1'
aS'0'
aS'0'
aNaa(lp653
S'J. McMordie'
p654
aS'1886'
p655
aS'Forward'
p656
aS'?'
aS'1'
aS'0'
aS'0'
aNaa(lp657
S'Francis Miller'
p658
aS'1886'
p659
aS'Forward'
p660
aS'?'
aS'1'
aS'0'
aS'0'
aNaa(lp661
S'Joseph Ross'
p662
aS'1886'
p663
aS'Halfback'
p664
aS'Co.Down'
p665
aS'1'
aS'0'
aS'0'
aNaa(lp666
S'Frank Stoker'
p667
aS'1886'
p668
aS'Forward'
p669
aS'Dublin'
p670
aS'5'
aS'1'
aS'0'
aS'0'
aa(lp671
S'James Waites'
p672
aS'1886'
p673
aS'Forward'
p674
aS'Lancs'
p675
aS'7'
aS'1'
aS'1'
aS'0'
aa(lp676
S'John Dick'
p677
aS'1887'
p678
aS'Forward'
p679
aS'Lisburn.Co.Antrim'
p680
aS'3'
aS'1'
aS'0'
aNaa(lp681
S'John Macauley'
p682
aS'1887'
p683
aS'Forward'
p684
aS'Limerick'
p685
aS'2'
aS'1'
aS'0'
aNaa(lp686
S'James McLaughlin'
p687
aS'1887'
p688
aS'Halfback'
p689
aS'?'
aS'4'
aS'2'
aS'0'
aNaa(lp690
S'Robert Montgomery'
p691
aS'1887'
p692
aS'Three-quarters'
p693
aS'Belfast'
p694
aS'5'
aS'2'
aS'4'
aS'0'
aa(lp695
S'Daniel Rambaut'
p696
aS'1887'
p697
aS'Three-quarters'
p698
aS'Waterford'
p699
aS'4'
aS'2'
aS'0'
aNaa(lp700
S'Robert Stevenson'
p701
aS'1887'
p702
aS'Forward'
p703
aS'Dungannon'
p704
aS'14'
p705
aS'3'
aS'0'
aS'0'
aa(lp706
S'Charles Tillie'
p707
aS'1887'
p708
aS'Three-quarters'
p709
aS'Londonderry'
p710
aS'4'
aS'2'
aS'1'
aNaa(lp711
S'Dolway Walkington'
p712
aS'1887'
p713
aS'Fullback'
p714
aS'Belfast'
p715
aS'8'
aS'2'
aS'0'
aS'3'
aa(lp716
S'Edward Walshe'
p717
aS'1887'
p718
aS'Forward'
p719
aS'?'
aS'7'
aS'2'
aS'2'
aS'4'
aa(lp720
S'Malcolm Moore'
p721
aS'1887'
p722
aS'Forward'
p723
aS'Dublin'
p724
aS'3'
aS'1'
aS'0'
aNaa(lp725
S'W. Davison'
p726
aS'1887'
p727
aS'Forward'
p728
aS'?'
aS'1'
aS'0'
aS'0'
aNaa(lp729
S"Patrick O'Connor"
p730
aS'1887'
p731
aS'Halfback'
p732
aS'?'
aS'1'
aS'0'
aS'0'
aNaa(lp733
S'Thomas Taggart'
p734
aS'1887'
p735
aS'Forward'
p736
aS'Bushmills'
p737
aS'1'
aS'0'
aS'0'
aNaa(lp738
S'William Ekin'
p739
aS'1888'
p740
aS'Forward'
p741
aS'Co.Tyrone'
p742
aS'2'
aS'1'
aS'0'
aNaa(lp743
S'Robert Mayne'
p744
aS'1888'
p745
aS'Forward'
p746
aS'?'
aS'2'
aS'1'
aS'0'
aNaa(lp747
S'James Moffatt'
p748
aS'1888'
p749
aS'Forward'
p750
aS'?'
aS'7'
aS'1'
aS'0'
aS'0'
aa(lp751
S'Ernest Stoker'
p752
aS'1888'
p753
aS'Forward'
p754
aS'Dublin'
p755
aS'2'
aS'1'
aS'0'
aNaa(lp756
S'William Morton'
p757
aS'1888'
p758
aS'Forward'
p759
aS'Tipperary'
p760
aS'1'
aS'0'
aS'0'
aNaa(lp761
S'Alfred Walpole'
p762
aS'1888'
p763
aS'Three-quarters'
p764
aS'Roscommon'
p765
aS'2'
aS'0'
aS'0'
aNaa(lp766
S'Herbert Andrews'
p767
aS'1888'
p768
aS'Forward'
p769
aS'Co Down'
p770
aS'3'
aS'1'
aS'0'
aNaa(lp771
S'Michael Bulger'
p772
aS'1888'
p773
aS'Three-quarters'
p774
aS'Co Clare'
p775
aS'1'
aS'0'
aS'0'
aNaa(lp776
S'Taffy Edwards'
p777
aS'1888'
p778
aS'Three-quarters'
p779
aS'Dublin'
p780
aS'6'
aS'1'
aS'0'
aS'0'
aa(lp781
S'Edmund Forrest'
p782
aS'1888'
p783
aS'Forward'
p784
aS'Dublin'
p785
aS'13'
p786
aS'5'
aS'0'
aS'4'
aa(lp787
S'Joseph Jameson'
p788
aS'1888'
p789
aS'Forward'
p790
aS'Dublin'
p791
aS'7'
aS'2'
aS'0'
aS'0'
aa(lp792
S'John Lytle'
p793
aS'1888'
p794
aS'Forward'
p795
aS'Belfast'
p796
aS'8'
aS'4'
aS'1'
aS'5'
aa(lp797
S"John O'Conor"
p798
aS'1888'
p799
aS'Forward'
p800
aS'Letterkenny'
p801
aS'17'
p802
aS'6'
aS'0'
aS'0'
aa(lp803
S'James Stevenson'
p804
aS'1888'
p805
aS'Halfback'
p806
aS'Dungannon'
p807
aS'2'
aS'0'
aS'0'
aNaa(lp808
S'David Woods'
p809
aS'1888'
p810
aS'Three-quarters'
p811
aS'?'
aS'2'
aS'0'
aS'1'
aNaa(lp812
S'Thomas Donovan'
p813
aS'1889'
p814
aS'Forward'
p815
aS'Cork'
p816
aS'1'
aS'0'
aS'0'
aNaa(lp817
S'Luke Holmes'
p818
aS'1889'
p819
aS'Fullback'
p820
aS'Belfast'
p821
aS'2'
aS'1'
aS'0'
aNaa(lp822
S'Llewellyn Nash'
p823
aS'1889'
p824
aS'Forward'
p825
aS'Co.Cork'
p826
aS'6'
aS'0'
aS'0'
aS'0'
aa(lp827
S'Thomas Pedlow'
p828
aS'1889'
p829
aS'Three-quarters'
p830
aS'?'
aS'2'
aS'1'
aS'0'
aNaa(lp831
S'Charles Stack'
p832
aS'1889'
p833
aS'Forward'
p834
aS'Lifford'
p835
aS'1'
aS'0'
aS'0'
aNaa(lp836
S'Robert Yeates'
p837
aS'1889'
p838
aS'Three-quarters'
p839
aS'W Bengal'
p840
aS'2'
aS'1'
aS'0'
aNaa(lp841
S'John Cotton'
p842
aS'1889'
p843
aS'Forward'
p844
aS'?'
aS'1'
aS'1'
aS'1'
aNaa(lp845
S'Robert Dunlop'
p846
aS'1889'
p847
aS'Three-quarters'
p848
aS'?'
aS'11'
p849
aS'2'
aS'1'
aS'1'
aa(lp850
S'Alaster McDonnell'
p851
aS'1889'
p852
aS'Halfback'
p853
aS'Dublin'
p854
aS'4'
aS'1'
aS'1'
aS'0'
aa(lp855
S'Henry Richey'
p856
aS'1889'
p857
aS'Forward'
p858
aS'Dublin'
p859
aS'2'
aS'1'
aS'0'
aS'0'
aa(lp860
S'William Davis'
p861
aS'1890'
p862
aS'Forward'
p863
aS'Ferozopore'
p864
aS'9'
aS'0'
aS'0'
aS'0'
aa(lp865
S'Eddie Doran'
p866
aS'1890'
p867
aS'Forward'
p868
aS'Dublin'
p869
aS'2'
aS'0'
aS'0'
aS'0'
aa(lp870
S'Harry Gifford'
p871
aS'1890'
p872
aS'Fullback'
p873
aS'Dublin'
p874
aS'1'
aS'0'
aS'0'
aS'0'
aa(lp875
S'Ralph Johnston'
p876
aS'1890'
p877
aS'Three-quarters'
p878
aS'Kingstown'
p879
aS'3'
aS'0'
aS'0'
aS'0'
aa(lp880
S'J. Roche'
p881
aS'1890'
p882
aS'Forward'
p883
aS'?'
aS'7'
aS'1'
aS'0'
aS'5'
aa(lp884
S'Hugh Galbraith'
p885
aS'1890'
p886
aS'Forward'
p887
aS'Londonderry'
p888
aS'1'
aS'0'
aS'0'
aS'0'
aa(lp889
S'Benjamin Tuke'
p890
aS'1890'
p891
aS'Halfback'
p892
aS'Dublin'
p893
aS'9'
aS'3'
aS'0'
aS'0'
aa(lp894
S'Sam Lee'
p895
aS'1891'
p896
aS'Centre'
p897
aS'Down'
p898
aS'19'
p899
aS'8'
aS'1'
aS'1'
aa(lp900
S'Charles Rooke'
p901
aS'1891'
p902
aS'Forward'
p903
aS'Dublin'
p904
aS'19'
p905
aS'7'
aS'0'
aS'0'
aa(lp906
S'Edwin Cameron'
p907
aS'1891'
p908
aS'Halfback'
p909
aS'Dublin'
p910
aS'2'
aS'0'
aS'0'
aS'0'
aa(lp911
S'George Collopy'
p912
aS'1891'
p913
aS'Forward'
p914
aS'Limerick'
p915
aS'2'
aS'0'
aS'0'
aS'0'
aa(lp916
S'Edward Frazer'
p917
aS'1891'
p918
aS'Forward'
p919
aS'Drumkeeran'
p920
aS'2'
aS'0'
aS'0'
aS'0'
aa(lp921
S'Robert Stokes'
p922
aS'1891'
p923
aS'Forward'
p924
aS'Kent'
p925
aS'2'
aS'0'
aS'0'
aS'0'
aa(lp926
S'Herbert Wells'
p927
aS'1891'
p928
aS'Three-quarters'
p929
aS'W Bengal'
p930
aS'4'
aS'2'
aS'1'
aS'3'
aa(lp931
S'Thomas Fogarty'
p932
aS'1891'
p933
aS'Forward'
p934
aS'?'
aS'1'
aS'0'
aS'0'
aS'0'
aa(lp935
S'Robert Pedlow'
p936
aS'1891'
p937
aS'Halfback'
p938
aS'?'
aS'1'
aS'0'
aS'0'
aS'0'
aa(lp939
S'William Gardiner'
p940
aS'1892'
p941
aS'Wing'
p942
aS'Northern Ireland'
p943
aS'17'
p944
aS'6'
aS'2'
aS'6'
aa(lp945
S'T.J. Johnston'
p946
aS'1892'
p947
aS'Forward'
p948
aS'?'
aS'6'
aS'1'
aS'0'
aS'0'
aa(lp949
S'Thomas Peel'
p950
aS'1892'
p951
aS'Fullback'
p952
aS'Limerick'
p953
aS'3'
aS'1'
aS'0'
aS'0'
aa(lp954
S'Robert Smith'
p955
aS'1892'
p956
aS'Forward'
p957
aS'Dublin'
p958
aS'1'
aS'0'
aS'0'
aS'0'
aa(lp959
S'Thomas Thornhill'
p960
aS'1892'
p961
aS'Halfback'
p962
aS'Co.Tyrone'
p963
aS'4'
aS'1'
aS'0'
aS'0'
aa(lp964
S'Arthur Wallis'
p965
aS'1892'
p966
aS'Forward'
p967
aS'Dublin'
p968
aS'5'
aS'1'
aS'0'
aS'0'
aa(lp969
S'Coo Clinch'
p970
aS'1892'
p971
aS'Forward'
p972
aS'Dublin'
p973
aS'14'
p974
aS'6'
aS'0'
aS'0'
aa(lp975
S'Frederick Davies'
p976
aS'1892'
p977
aS'Halfback'
p978
aS'Dublin'
p979
aS'5'
aS'1'
aS'1'
aS'2'
aa(lp980
S'Michael Egan'
p981
aS'1893'
p982
aS'Forward'
p983
aS'?'
aS'2'
aS'0'
aS'0'
aS'0'
aa(lp984
S'Sam Gardiner'
p985
aS'1893'
p986
aS'Fullback'
p987
aS'?'
aS'2'
aS'0'
aS'0'
aS'0'
aa(lp988
S'Robert Johnston'
p989
aS'1893'
p990
aS'Wing'
p991
aS'Co Donegal'
p992
aS'5'
aS'3'
aS'0'
aS'0'
aa(lp993
S'Harry Lindsay'
p994
aS'1893'
p995
aS'Forward'
p996
aS'Northern Ireland'
p997
aS'13'
p998
aS'6'
aS'1'
aS'3'
aa(lp999
S'Walter Brown'
p1000
aS'1893'
p1001
aS'Halfback'
p1002
aS'Co.Dublin'
p1003
aS'5'
aS'3'
aS'0'
aS'0'
aa(lp1004
S'Herbert Forrest'
p1005
aS'1893'
p1006
aS'Forward'
p1007
aS'Co.Dublin'
p1008
aS'2'
aS'0'
aS'0'
aS'0'
aa(lp1009
S'Lucius Gwynn'
p1010
aS'1893'
p1011
aS'Centre'
p1012
aS'Donegal'
p1013
aS'7'
aS'4'
aS'0'
aS'0'
aa(lp1014
S"Bryan O'Brien"
p1015
aS'1893'
p1016
aS'Forward'
p1017
aS'Co.Limerick'
p1018
aS'2'
aS'0'
aS'0'
aS'0'
aa(lp1019
S'Robert Hamilton'
p1020
aS'1893'
p1021
aS'Forward'
p1022
aS'Dublin'
p1023
aS'1'
aS'0'
aS'0'
aS'0'
aa(lp1024
S'William Sparrow'
p1025
aS'1893'
p1026
aS'Fullback'
p1027
aS'Kilkenny'
p1028
aS'2'
aS'1'
aS'0'
aS'0'
aa(lp1029
S'Tom Crean'
p1030
aS'1894'
p1031
aS'Forward'
p1032
aS'Dublin'
p1033
aS'13'
p1034
aS'8'
aS'3'
aS'9'
aa(lp1035
S'James Lytle'
p1036
aS'1894'
p1037
aS'Forward'
p1038
aS'Belfast'
p1039
aS'12'
p1040
aS'8'
aS'1'
aS'6'
aa(lp1041
S'George Walmsley'
p1042
aS'1894'
p1043
aS'Forward'
p1044
aS'Co.Meath'
p1045
aS'1'
aS'1'
aS'0'
aS'0'
aa(lp1046
S'Andrew Bond'
p1047
aS'1894'
p1048
aS'Forward'
p1049
aS'?'
aS'2'
aS'2'
aS'0'
aS'0'
aa(lp1050
S'Patrick Grant'
p1051
aS'1894'
p1052
aS'Fullback'
p1053
aS'Co.Dublin'
p1054
aS'2'
aS'2'
aS'0'
aS'0'
aa(lp1055
S'Alfred Brunker'
p1056
aS'1895'
p1057
aS'Forward'
p1058
aS'Co.Dublin'
p1059
aS'2'
aS'0'
aS'0'
aS'0'
aa(lp1060
S'Hugh McCoull'
p1061
aS'1895'
p1062
aS'Forward'
p1063
aS'Co.Down'
p1064
aS'4'
aS'1'
aS'0'
aS'0'
aa(lp1065
S'Louis Magee'
p1066
aS'1895'
p1067
aS'Halfback'
p1068
aS'Dublin'
p1069
aS'31'
p1070
aS'14'
p1071
aS'2'
aS'9'
aa(lp1072
S'Joseph Magee'
p1073
aS'1895'
p1074
aS'Wing'
p1075
aS'Dublin'
p1076
aS'2'
aS'0'
aS'0'
aS'0'
aa(lp1077
S'Thomas Stevenson'
p1078
aS'1895'
p1079
aS'Centre'
p1080
aS'Londonderry'
p1081
aS'7'
aS'3'
aS'1'
aS'3'
aa(lp1082
S'Glascott Symes'
p1083
aS'1895'
p1084
aS'Fullback'
p1085
aS'Co.Mayo'
p1086
aS'1'
aS'0'
aS'0'
aS'0'
aa(lp1087
S'John Fulton'
p1088
aS'1895'
p1089
aS'Fullback'
p1090
aS'?'
aS'16'
p1091
aS'6'
aS'0'
aS'0'
aa(lp1092
S'Edward MacIlwaine'
p1093
aS'1895'
p1094
aS'Forward'
p1095
aS'Belfast'
p1096
aS'2'
aS'0'
aS'0'
aS'0'
aa(lp1097
S'Alexander Montgomery'
p1098
aS'1895'
p1099
aS'Centre'
p1100
aS'Belfast'
p1101
aS'1'
aS'0'
aS'0'
aS'0'
aa(lp1102
S"Jack O'Connor"
p1103
aS'1895'
p1104
aS'Wing'
p1105
aS'Limerick'
p1106
aS'1'
aS'0'
aS'0'
aS'0'
aa(lp1107
S"William O'Sullivan"
p1108
aS'1895'
p1109
aS'Forward'
p1110
aS'?'
aS'1'
aS'0'
aS'0'
aS'0'
aa(lp1111
S'Michael Delaney'
p1112
aS'1895'
p1113
aS'Halfback'
p1114
aS'?'
aS'1'
aS'0'
aS'0'
aS'0'
aa(lp1115
S'Arthur Gwynn'
p1116
aS'1895'
p1117
aS'Wing'
p1118
aS'Donegal'
p1119
aS'1'
aS'0'
aS'0'
aS'0'
aa(lp1120
S'Glyn Allen'
p1121
aS'1896'
p1122
aS'Halfback'
p1123
aS'Gibraltar'
p1124
aS'9'
aS'6'
aS'1'
aS'3'
aa(lp1125
S'Lawrence Bulger'
p1126
aS'1896'
p1127
aS'Wing'
p1128
aS'Co Clare'
p1129
aS'12'
p1130
aS'7'
aS'3'
aS'25'
p1131
aa(lp1132
S'Bill Byron'
p1133
aS'1896'
p1134
aS'Forward'
p1135
aS'Northern Ireland'
p1136
aS'11'
p1137
aS'7'
aS'0'
aS'0'
aa(lp1138
S'James Sealy'
p1139
aS'1896'
p1140
aS'Forward'
p1141
aS'Dublin'
p1142
aS'13'
p1143
aS'8'
aS'2'
aS'6'
aa(lp1144
S'George McAllan'
p1145
aS'1896'
p1146
aS'Fullback'
p1147
aS'Northern Ireland'
p1148
aS'2'
aS'1'
aS'0'
aS'0'
aa(lp1149
S'John McIlwaine'
p1150
aS'1897'
p1151
aS'Forward'
p1152
aS'Belfast'
p1153
aS'7'
aS'4'
aS'0'
aS'0'
aa(lp1154
S'John Ryan'
p1155
aS'1897'
p1156
aS'Forward'
p1157
aS'?'
aS'14'
p1158
aS'6'
aS'1'
aS'3'
aa(lp1159
S'Michael Ryan'
p1160
aS'1897'
p1161
aS'Forward'
p1162
aS'?'
aS'17'
p1163
aS'7'
aS'1'
aS'3'
aa(lp1164
S"Pierce O'Brien-Butler"
p1165
aS'1897'
p1166
aS'Fullback'
p1167
aS'Co.Tipperary'
p1168
aS'6'
aS'3'
aS'0'
aS'0'
aa(lp1169
S'John Davis'
p1170
aS'1898'
p1171
aS'Forward'
p1172
aS'Co.Carlow'
p1173
aS'2'
aS'1'
aS'0'
aS'0'
aa(lp1174
S'James Franks'
p1175
aS'1898'
p1176
aS'Forward'
p1177
aS'Co.Dublin'
p1178
aS'3'
aS'1'
aS'0'
aS'0'
aa(lp1179
S'Francis Purser'
p1180
aS'1898'
p1181
aS'Wing'
p1182
aS'1876'
p1183
aS'3'
aS'1'
aS'0'
aS'0'
aa(lp1184
S'Frederick Smithwick'
p1185
aS'1898'
p1186
aS'Centre'
p1187
aS'Kildare'
p1188
aS'2'
aS'0'
aS'0'
aS'0'
aa(lp1189
S'Ainsworth Barr'
p1190
aS'1898'
p1191
aS'Halfback'
p1192
aS'Belfast'
p1193
aS'4'
aS'2'
aS'0'
aS'0'
aa(lp1194
S'Thomas Little'
p1195
aS'1898'
p1196
aS'Forward'
p1197
aS'Dublin'
p1198
aS'7'
aS'3'
aS'0'
aS'0'
aa(lp1199
S'Ned McCarthy'
p1200
aS'1898'
p1201
aS'Forward'
p1202
aS'Cork'
p1203
aS'1'
aS'0'
aS'0'
aS'0'
aa(lp1204
S'Thomas Ahearne'
p1205
aS'1899'
p1206
aS'Forward'
p1207
aS'?'
aS'1'
aS'1'
aS'0'
aS'0'
aa(lp1208
S'James Allison'
p1209
aS'1899'
p1210
aS'Centre'
p1211
aS'?'
aS'12'
p1212
aS'4'
aS'0'
aS'4'
aa(lp1213
S'William Brown'
p1214
aS'1899'
p1215
aS'Wing'
p1216
aS'?'
aS'1'
aS'1'
aS'0'
aS'0'
aa(lp1217
S'Ian Davidson'
p1218
aS'1899'
p1219
aS'Wing'
p1220
aS'Co.Do'
p1221
aS'10'
p1222
aS'3'
aS'2'
aS'6'
aa(lp1223
S'George Harman'
p1224
aS'1899'
p1225
aS'Centre'
p1226
aS'Co Cork'
p1227
aS'2'
aS'2'
aS'0'
aS'0'
aa(lp1228
S'Tom McGown'
p1229
aS'1899'
p1230
aS'Forward'
p1231
aS'Belfast'
p1232
aS'7'
aS'5'
aS'0'
aS'0'
aa(lp1233
S'Edward Campbell'
p1234
aS'1899'
p1235
aS'Wing'
p1236
aS'?'
aS'4'
aS'2'
aS'1'
aS'3'
aa(lp1237
S'Gerry Doran'
p1238
aS'1899'
p1239
aS'Wing'
p1240
aS'Dublin'
p1241
aS'10'
p1242
aS'4'
aS'2'
aS'6'
aa(lp1243
S'Newry Meares'
p1244
aS'1896'
p1245
aS'Forward'
p1246
aS'Newry'
p1247
aS'6'
aS'3'
aS'0'
aS'0'
aa(lp1248
S'Carl Reid'
p1249
aS'1899'
p1250
aS'Centre'
p1251
aS'Londonderry'
p1252
aS'4'
aS'2'
aS'1'
aS'3'
aa(lp1253
S'Cecil Moriarty'
p1254
aS'1899'
p1255
aS'Forward'
p1256
aS'Tralee'
p1257
aS'1'
aS'1'
aS'0'
aS'0'
aa(lp1258
S'Ellie Allen'
p1259
aS'1900'
p1260
aS'Forward'
p1261
aS'Gibraltar'
p1262
aS'21'
p1263
aS'6'
aS'1'
aS'3'
aa(lp1264
S'John Coffey'
p1265
aS'1900'
p1266
aS'Forward'
p1267
aS'Dublin'
p1268
aS'19'
p1269
aS'8'
aS'0'
aS'0'
aa(lp1270
S'John Ferris'
p1271
aS'1900'
p1272
aS'Scrum-half'
p1273
aS'?'
aS'3'
aS'0'
aS'0'
aS'0'
aa(lp1274
S'Fred Gardiner'
p1275
aS'1900'
p1276
aS'Forward'
p1277
aS'Northern Ireland'
p1278
aS'22'
p1279
aS'8'
aS'3'
aS'15'
p1280
aa(lp1281
S'Samuel Irwin'
p1282
aS'1900'
p1283
aS'Forward'
p1284
aS'Northern Ireland'
p1285
aS'9'
aS'2'
aS'0'
aS'4'
aa(lp1286
S'Percy Nicholson'
p1287
aS'1900'
p1288
aS'Forward'
p1289
aS'Cork'
p1290
aS'3'
aS'0'
aS'0'
aS'0'
aa(lp1291
S'Cecil Boyd'
p1292
aS'1896'
p1293
aS'Fullback'
p1294
aS'Dublin'
p1295
aS'4'
aS'1'
aS'0'
aS'0'
aa(lp1296
S'Bertie Doran'
p1297
aS'1900'
p1298
aS'Centre'
p1299
aS'Dublin'
p1300
aS'8'
aS'2'
aS'1'
aS'3'
aa(lp1301
S'Thomas Harvey'
p1302
aS'1900'
p1303
aS'Forward'
p1304
aS'Dublin'
p1305
aS'8'
aS'2'
aS'0'
aS'0'
aa(lp1306
S'Albert Freear'
p1307
aS'1901'
p1308
aS'Wing'
p1309
aS'Lancs'
p1310
aS'3'
aS'1'
aS'1'
aS'3'
aa(lp1311
S'Patrick Healey'
p1312
aS'1901'
p1313
aS'Forward'
p1314
aS'?'
aS'10'
p1315
aS'3'
aS'0'
aS'0'
aa(lp1316
S'Archibald Heron'
p1317
aS'1901'
p1318
aS'Forward'
p1319
aS'?'
aS'1'
aS'1'
aS'0'
aS'0'
aa(lp1320
S'Harry Irvine'
p1321
aS'1901'
p1322
aS'Forward'
p1323
aS'Belfast'
p1324
aS'1'
aS'0'
aS'0'
aS'2'
aa(lp1325
S'Hugh Ferris'
p1326
aS'1901'
p1327
aS'Scrum-half'
p1328
aS'Co Down'
p1329
aS'2'
aS'1'
aS'0'
aS'0'
aa(lp1330
S'Harry Corley'
p1331
aS'1902'
p1332
aS'Halfback'
p1333
aS'Dublin'
p1334
aS'8'
aS'2'
aS'0'
aS'5'
aa(lp1335
S'Charles Fitzgerald'
p1336
aS'1902'
p1337
aS'Wing'
p1338
aS'Lurgan'
p1339
aS'3'
aS'1'
aS'0'
aS'0'
aa(lp1340
S'George Hamlet'
p1341
aS'1902'
p1342
aS'Forward'
p1343
aS'Balbriggan'
p1344
aS'30'
p1345
aS'12'
p1346
aS'0'
aS'0'
aa(lp1347
S'Alfred Tedford'
p1348
aS'1902'
p1349
aS'Forward'
p1350
aS'Belfast'
p1351
aS'26'
p1352
aS'9'
aS'6'
aS'18'
p1353
aa(lp1354
S'John Pringle'
p1355
aS'1902'
p1356
aS'Forward'
p1357
aS'?'
aS'2'
aS'1'
aS'0'
aS'0'
aa(lp1358
S'Henry Anderson'
p1359
aS'1903'
p1360
aS'Wing'
p1361
aS'Cape Town'
p1362
aS'4'
aS'2'
aS'0'
aS'0'
aa(lp1363
S'George Harvey'
p1364
aS'1903'
p1365
aS'Centre'
p1366
aS'?'
aS'5'
aS'4'
aS'0'
aS'0'
aa(lp1367
S'Robertson Smyth'
p1368
aS'1903'
p1369
aS'Forward'
p1370
aS'Northern Ireland'
p1371
aS'6'
aS'1'
aS'0'
aS'0'
aa(lp1372
S'David Taylor'
p1373
aS'1903'
p1374
aS'Centre'
p1375
aS'?'
aS'1'
aS'1'
aS'0'
aS'0'
aa(lp1376
S'James Wallace'
p1377
aS'1903'
p1378
aS'Forward'
p1379
aS'Roscrea'
p1380
aS'10'
p1381
aS'4'
aS'4'
aS'12'
p1382
aa(lp1383
S'George Bradshaw'
p1384
aS'1903'
p1385
aS'Wing'
p1386
aS'Belfast'
p1387
aS'1'
aS'0'
aS'0'
aS'0'
aa(lp1388
S'James Parke'
p1389
aS'1903'
p1390
aS'Centre'
p1391
aS'Co Monaghan'
p1392
aS'20'
p1393
aS'6'
aS'2'
aS'36'
p1394
aa(lp1395
S'Fred Kennedy'
p1396
aS'1904'
p1397
aS'Halfback'
p1398
aS'Dublin'
p1399
aS'2'
aS'1'
aS'0'
aS'0'
aa(lp1400
S'Campbell Robb'
p1401
aS'1904'
p1402
aS'Wing'
p1403
aS'Galway'
p1404
aS'5'
aS'1'
aS'1'
aS'3'
aa(lp1405
S'Thomas Robinson'
p1406
aS'1904'
p1407
aS'Fly-half'
p1408
aS'?'
aS'10'
p1409
aS'3'
aS'1'
aS'3'
aa(lp1410
S'Joseph Wallace'
p1411
aS'1903'
p1412
aS'Forward'
p1413
aS'Roscrea'
p1414
aS'5'
aS'0'
aS'0'
aS'0'
aa(lp1415
S'Ernest Caddell'
p1416
aS'1904'
p1417
aS'Scrum-half'
p1418
aS'Louth'
p1419
aS'13'
p1420
aS'6'
aS'2'
aS'6'
aa(lp1421
S'John Moffatt'
p1422
aS'1904'
p1423
aS'Wing'
p1424
aS'Dublin'
p1425
aS'4'
aS'2'
aS'4'
aS'12'
p1426
aa(lp1427
S'Reg Edwards'
p1428
aS'1904'
p1429
aS'Forward'
p1430
aS'1882'
p1431
aS'4'
aS'3'
aS'0'
aS'0'
aa(lp1432
S'Hercules Knox'
p1433
aS'1904'
p1434
aS'Forward'
p1435
aS'Mayo'
p1436
aS'10'
p1437
aS'6'
aS'0'
aS'0'
aa(lp1438
S'Maurice Landers'
p1439
aS'1904'
p1440
aS'Fullback'
p1441
aS'Cork'
p1442
aS'5'
aS'3'
aS'0'
aS'0'
aa(lp1443
S'Henry Millar'
p1444
aS'1904'
p1445
aS'Forward'
p1446
aS'Co.Dublin'
p1447
aS'4'
aS'3'
aS'0'
aS'0'
aa(lp1448
S'Harry Thrift'
p1449
aS'1904'
p1450
aS'Wing'
p1451
aS'Dublin'
p1452
aS'18'
p1453
aS'8'
aS'5'
aS'15'
p1454
aa(lp1455
S'Basil MacLear'
p1456
aS'1905'
p1457
aS'Centre'
p1458
aS'Portsmouth'
p1459
aS'11'
p1460
aS'5'
aS'4'
aS'18'
p1461
aa(lp1462
S'Hugh Wilson'
p1463
aS'1905'
p1464
aS'Forward'
p1465
aS'Co Antrim'
p1466
aS'18'
p1467
aS'6'
aS'0'
aS'0'
aa(lp1468
S'Harold Sugars'
p1469
aS'1905'
p1470
aS'Forward'
p1471
aS'Dungannon'
p1472
aS'3'
aS'0'
aS'2'
aS'6'
aa(lp1473
S'Francis Casement'
p1474
aS'1906'
p1475
aS'Centre'
p1476
aS'?'
aS'3'
aS'2'
aS'0'
aS'0'
aa(lp1477
S'Geoffrey Henebrey'
p1478
aS'1906'
p1479
aS'Fullback'
p1480
aS'Birkenhead'
p1481
aS'6'
aS'3'
aS'0'
aS'0'
aa(lp1482
S'William Purdon'
p1483
aS'1906'
p1484
aS'Scrum-half'
p1485
aS'Belfast'
p1486
aS'3'
aS'2'
aS'1'
aS'3'
aa(lp1487
S'Michael White'
p1488
aS'1906'
p1489
aS'Forward'
p1490
aS'?'
aS'6'
aS'3'
aS'0'
aS'0'
aa(lp1491
S'Bertie Gotto'
p1492
aS'1906'
p1493
aS'Centre'
p1494
aS'Northern Ireland'
p1495
aS'1'
aS'0'
aS'0'
aS'0'
aa(lp1496
S'George McIldowie'
p1497
aS'1906'
p1498
aS'Forward'
p1499
aS'Northern Ireland'
p1500
aS'4'
aS'0'
aS'1'
aS'3'
aa(lp1501
S'William Cogan'
p1502
aS'1907'
p1503
aS'Forward'
p1504
aS'Cork'
p1505
aS'2'
aS'1'
aS'0'
aS'0'
aa(lp1506
S'Robert Forbes'
p1507
aS'1907'
p1508
aS'Forward'
p1509
aS'Essex'
p1510
aS'1'
aS'1'
aS'0'
aS'0'
aa(lp1511
S'Thomas Greeves'
p1512
aS'1907'
p1513
aS'Centre'
p1514
aS'?'
aS'5'
aS'2'
aS'0'
aS'0'
aa(lp1515
S'James Sweeney'
p1516
aS'1907'
p1517
aS'Forward'
p1518
aS'Co Donegal'
p1519
aS'3'
aS'1'
aS'0'
aS'0'
aa(lp1520
S'Charles Thompson'
p1521
aS'1907'
p1522
aS'Wing'
p1523
aS'?'
aS'13'
p1524
aS'4'
aS'5'
aS'15'
p1525
aa(lp1526
S'Frederick Harvey'
p1527
aS'1907'
p1528
aS'Fullback'
p1529
aS'Co Meath'
p1530
aS'2'
aS'1'
aS'0'
aS'0'
aa(lp1531
S'Billy Hinton'
p1532
aS'1907'
p1533
aS'Fullback'
p1534
aS'?'
aS'16'
p1535
aS'6'
aS'0'
aS'4'
aa(lp1536
S'Charles Adams'
p1537
aS'1908'
p1538
aS'Forward'
p1539
aS'?'
aS'16'
p1540
aS'10'
p1541
aS'1'
aS'3'
aa(lp1542
S'Herbert Aston'
p1543
aS'1908'
p1544
aS'Halfback'
p1545
aS'Co.Dublin'
p1546
aS'2'
aS'0'
aS'1'
aS'3'
aa(lp1547
S'Gerald Beckett'
p1548
aS'1908'
p1549
aS'Centre'
p1550
aS'?'
aS'3'
aS'1'
aS'1'
aS'3'
aa(lp1551
S'Thomas Harpur'
p1552
aS'1908'
p1553
aS'Forward'
p1554
aS'Mountmellick'
p1555
aS'3'
aS'1'
aS'0'
aS'0'
aa(lp1556
S'Edward Morphy'
p1557
aS'1908'
p1558
aS'Forward'
p1559
aS'Dublin'
p1560
aS'1'
aS'0'
aS'0'
aS'0'
aa(lp1561
S'Frank Smartt'
p1562
aS'1908'
p1563
aS'Scrum-half'
p1564
aS'?'
aS'3'
aS'1'
aS'0'
aS'0'
aa(lp1565
S'Tom Smyth'
p1566
aS'1908'
p1567
aS'Forward'
p1568
aS'Northern Ireland'
p1569
aS'16'
p1570
aS'5'
aS'2'
aS'6'
aa(lp1571
S'Bethel Solomons'
p1572
aS'1908'
p1573
aS'Forward'
p1574
aS'Dublin'
p1575
aS'10'
p1576
aS'2'
aS'0'
aS'0'
aa(lp1577
S'Ernest Deane'
p1578
aS'1909'
p1579
aS'Wing'
p1580
aS'Limerick'
p1581
aS'1'
aS'0'
aS'0'
aS'0'
aa(lp1582
S'Michael Garry'
p1583
aS'1909'
p1584
aS'Forward'
p1585
aS'?'
aS'7'
aS'3'
aS'0'
aS'0'
aa(lp1586
S'Godfrey Pinion'
p1587
aS'1909'
p1588
aS'Fly-half'
p1589
aS'Northern Ireland'
p1590
aS'4'
aS'1'
aS'0'
aS'2'
aa(lp1591
S'Oliver Piper'
p1592
aS'1909'
p1593
aS'Forward'
p1594
aS'Neath'
p1595
aS'9'
aS'2'
aS'0'
aS'0'
aa(lp1596
S'John Blackham'
p1597
aS'1909'
p1598
aS'Hooker'
p1599
aS"Queen's Co."
p1600
aS'6'
aS'1'
aS'0'
aS'0'
aa(lp1601
S'Thomas Halpin'
p1602
aS'1909'
p1603
aS'Forward'
p1604
aS'?'
aS'13'
p1605
aS'6'
aS'0'
aS'0'
aa(lp1606
S'Richard Magrath'
p1607
aS'1909'
p1608
aS'Wing'
p1609
aS'Cork City'
p1610
aS'1'
aS'0'
aS'0'
aS'0'
aa(lp1611
S'Frederick McCormac'
p1612
aS'1909'
p1613
aS'Scrum-half'
p1614
aS'Dalkey'
p1615
aS'3'
aS'1'
aS'0'
aS'0'
aa(lp1616
S"Jack O'Connor"
p1617
aS'1909'
p1618
aS'Scrum-half'
p1619
aS'?'
aS'1'
aS'1'
aS'1'
aS'3'
aa(lp1620
S'Alexander Foster'
p1621
aS'1910'
p1622
aS'Centre'
p1623
aS'Northern Ireland'
p1624
aS'19'
p1625
aS'10'
p1626
aS'5'
aS'15'
p1627
aa(lp1628
S'Dickie Lloyd'
p1629
aS'1910'
p1630
aS'Fly-half'
p1631
aS'Tyrone'
p1632
aS'19'
p1633
aS'8'
aS'2'
aS'75'
p1634
aa(lp1635
S'Joseph Quinn'
p1636
aS'1910'
p1637
aS'Wing'
p1638
aS'Dublin'
p1639
aS'15'
p1640
aS'8'
aS'9'
aS'27'
p1641
aa(lp1642
S'Harry Read'
p1643
aS'1910'
p1644
aS'Scrum-half'
p1645
aS'Tipperary'
p1646
aS'13'
p1647
aS'6'
aS'0'
aS'0'
aa(lp1648
S'William Riordan'
p1649
aS'1910'
p1650
aS'Forward'
p1651
aS'?'
aS'1'
aS'0'
aS'0'
aS'0'
aa(lp1652
S'Alfred Taylor'
p1653
aS'1910'
p1654
aS'Centre'
p1655
aS'Belfast'
p1656
aS'4'
aS'1'
aS'1'
aS'3'
aa(lp1657
S'Herbert Moore'
p1658
aS'1910'
p1659
aS'Forward'
p1660
aS'Northern Ireland'
p1661
aS'8'
aS'4'
aS'0'
aS'0'
aa(lp1662
S'Robert Lyle'
p1663
aS'1910'
p1664
aS'Centre'
p1665
aS'?'
aS'2'
aS'1'
aS'0'
aS'0'
aa(lp1666
S'Arthur McClinton'
p1667
aS'1910'
p1668
aS'Fly-half'
p1669
aS'Northern Ireland'
p1670
aS'2'
aS'1'
aS'0'
aS'2'
aa(lp1671
S"Cyril O'Callaghan"
p1672
aS'1910'
p1673
aS'Wing'
p1674
aS'Carlow'
p1675
aS'7'
aS'5'
aS'2'
aS'6'
aa(lp1676
S'William Smyth'
p1677
aS'1910'
p1678
aS'Forward'
p1679
aS'Co.Antrim'
p1680
aS'3'
aS'1'
aS'0'
aS'0'
aa(lp1681
S'William Beatty'
p1682
aS'1910'
p1683
aS'Prop'
p1684
aS'Co.Down'
p1685
aS'3'
aS'3'
aS'0'
aS'0'
aa(lp1686
S'William Tyrrell'
p1687
aS'1910'
p1688
aS'Forward'
p1689
aS'Belfast'
p1690
aS'9'
aS'4'
aS'3'
aS'9'
aa(lp1691
S'Samuel Campbell'
p1692
aS'1911'
p1693
aS'Forward'
p1694
aS'1889'
p1695
aS'12'
p1696
aS'7'
aS'0'
aS'0'
aa(lp1697
S'Michael Heffernan'
p1698
aS'1911'
p1699
aS'Forward'
p1700
aS'?'
aS'4'
aS'3'
aS'1'
aS'3'
aa(lp1701
S'Alexander Jackson'
p1702
aS'1911'
p1703
aS'Centre'
p1704
aS'Dublin'
p1705
aS'10'
p1706
aS'6'
aS'3'
aS'9'
aa(lp1707
S'James Smyth'
p1708
aS'1911'
p1709
aS'Forward'
p1710
aS'Co.Antrim'
p1711
aS'3'
aS'3'
aS'0'
aS'0'
aa(lp1712
S'Richard Graham'
p1713
aS'1911'
p1714
aS'Fullback'
p1715
aS'?'
aS'1'
aS'1'
aS'0'
aS'0'
aa(lp1716
S'William Edwards'
p1717
aS'1912'
p1718
aS'Forward'
p1719
aS'Northern Ireland'
p1720
aS'2'
aS'1'
aS'0'
aS'0'
aa(lp1721
S'Robert Hemphill'
p1722
aS'1912'
p1723
aS'Forward'
p1724
aS'?'
aS'4'
aS'3'
aS'0'
aS'0'
aa(lp1725
S'George McConnell'
p1726
aS'1912'
p1727
aS'Forward'
p1728
aS'Co.Donegal'
p1729
aS'4'
aS'2'
aS'0'
aS'0'
aa(lp1730
S'Charles MacIvor'
p1731
aS'1912'
p1732
aS'Wing'
p1733
aS'West Indies'
p1734
aS'7'
aS'4'
aS'1'
aS'3'
aa(lp1735
S"d'Arcy Patterson"
p1736
aS'1912'
p1737
aS'Forward'
p1738
aS'Belfast'
p1739
aS'8'
aS'4'
aS'1'
aS'3'
aa(lp1740
S'Myley Abraham'
p1741
aS'1912'
p1742
aS'Centre'
p1743
aS'Dublin'
p1744
aS'5'
aS'2'
aS'0'
aS'0'
aa(lp1745
S'George Killeen'
p1746
aS'1912'
p1747
aS'Forward'
p1748
aS'Co Clare'
p1749
aS'10'
p1750
aS'4'
aS'0'
aS'0'
aa(lp1751
S'George Brown'
p1752
aS'1912'
p1753
aS'Prop'
p1754
aS'Co.Kilkenny'
p1755
aS'3'
aS'2'
aS'1'
aS'3'
aa(lp1756
S'Robin Wright'
p1757
aS'1912'
p1758
aS'Fullback'
p1759
aS'?'
aS'1'
aS'1'
aS'0'
aS'0'
aa(lp1760
S'Robert Burgess'
p1761
aS'1912'
p1762
aS'Forward'
p1763
aS'?'
aS'1'
aS'0'
aS'0'
aS'0'
aa(lp1764
S'John Clune'
p1765
aS'1912'
p1766
aS'Lock'
p1767
aS'Limerick'
p1768
aS'6'
aS'2'
aS'0'
aS'0'
aa(lp1769
S'George Holmes'
p1770
aS'1912'
p1771
aS'Centre'
p1772
aS'Rathmines'
p1773
aS'3'
aS'0'
aS'0'
aS'0'
aa(lp1774
S'John Minch'
p1775
aS'1912'
p1776
aS'Centre'
p1777
aS'Co Kildare'
p1778
aS'5'
aS'1'
aS'0'
aS'0'
aa(lp1779
S'Geoffrey Schute'
p1780
aS'1912'
p1781
aS'Forward'
p1782
aS'Dublin North'
p1783
aS'3'
aS'0'
aS'1'
aS'3'
aa(lp1784
S'Charles Stuart'
p1785
aS'1912'
p1786
aS'Fullback'
p1787
aS'?'
aS'1'
aS'0'
aS'0'
aS'0'
aa(lp1788
S'Richard Watson'
p1789
aS'1912'
p1790
aS'Wing'
p1791
aS'?'
aS'1'
aS'0'
aS'0'
aS'0'
aa(lp1792
S'James Finlay'
p1793
aS'1913'
p1794
aS'Forward'
p1795
aS'Northern Ireland'
p1796
aS'6'
aS'0'
aS'0'
aS'0'
aa(lp1797
S'Ernest Jeffares'
p1798
aS'1913'
p1799
aS'Forward'
p1800
aS'Dublin'
p1801
aS'2'
aS'0'
aS'0'
aS'0'
aa(lp1802
S'Patrick Stokes'
p1803
aS'1913'
p1804
aS'Flanker'
p1805
aS'Tipperary'
p1806
aS'12'
p1807
aS'3'
aS'4'
aS'12'
p1808
aa(lp1809
S'Gordon Young'
p1810
aS'1913'
p1811
aS'Fullback'
p1812
aS'Cork'
p1813
aS'1'
aS'0'
aS'0'
aS'0'
aa(lp1814
S'Frank Bennett'
p1815
aS'1913'
p1816
aS'Wing'
p1817
aS'Clonakilty'
p1818
aS'1'
aS'0'
aS'0'
aS'0'
aa(lp1819
S'J.W. McConnell'
p1820
aS'1913'
p1821
aS'Fullback'
p1822
aS'?'
aS'1'
aS'0'
aS'0'
aS'0'
aa(lp1823
S"Patrick O'Connell"
p1824
aS'1913'
p1825
aS'Forward'
p1826
aS'Co Tipperary'
p1827
aS'6'
aS'3'
aS'0'
aS'0'
aa(lp1828
S'Stanhope Polden'
p1829
aS'1913'
p1830
aS'Scrum-half'
p1831
aS'Dublin'
p1832
aS'4'
aS'2'
aS'0'
aS'0'
aa(lp1833
S'Albert Stewart'
p1834
aS'1913'
p1835
aS'Centre'
p1836
aS'Belfast'
p1837
aS'3'
aS'2'
aS'1'
aS'3'
aa(lp1838
S'Andrew Todd'
p1839
aS'1913'
p1840
aS'Fullback'
p1841
aS'?'
aS'3'
aS'2'
aS'0'
aS'0'
aa(lp1842
S'George Wood'
p1843
aS'1913'
p1844
aS'Wing'
p1845
aS'Co Mayo'
p1846
aS'2'
aS'1'
aS'0'
aS'0'
aa(lp1847
S'William Collopy'
p1848
aS'1914'
p1849
aS'Prop'
p1850
aS'Dublin'
p1851
aS'19'
p1852
aS'7'
aS'0'
aS'0'
aa(lp1853
S'John Dowse'
p1854
aS'1914'
p1855
aS'Forward'
p1856
aS'Co Dublin'
p1857
aS'3'
aS'2'
aS'0'
aS'0'
aa(lp1858
S'Jack Parr'
p1859
aS'1914'
p1860
aS'Flanker'
p1861
aS'?'
aS'4'
aS'2'
aS'0'
aS'0'
aa(lp1862
S'Vincent McNamara'
p1863
aS'1914'
p1864
aS'Scrum-half'
p1865
aS'Co Cork'
p1866
aS'3'
aS'1'
aS'1'
aS'3'
aa(lp1867
S'Frank Montgomery'
p1868
aS'1914'
p1869
aS'Fullback'
p1870
aS'Belfast'
p1871
aS'3'
aS'1'
aS'0'
aS'0'
aa(lp1872
S'James Taylor'
p1873
aS'1914'
p1874
aS'Forward'
p1875
aS'Londonderry'
p1876
aS'3'
aS'1'
aS'0'
aS'0'
aa(lp1877
S'Henry Jack'
p1878
aS'1914'
p1879
aS'Fly-half'
p1880
aS'Cork'
p1881
aS'3'
aS'1'
aS'0'
aS'0'
aa(lp1882
S'Jasper Brett'
p1883
aS'1914'
p1884
aS'Wing'
p1885
aS'Kingstown'
p1886
aS'1'
aS'0'
aS'0'
aS'0'
aa(lp1887
S'Charles Bryant'
p1888
aS'1920'
p1889
aS'Wing'
p1890
aS'Penarth'
p1891
aS'2'
aS'0'
aS'0'
aS'0'
aa(lp1892
S'Nick Butler'
p1893
aS'1920'
p1894
aS'Prop'
p1895
aS'Limerick'
p1896
aS'1'
aS'0'
aS'0'
aS'0'
aa(lp1897
S'Henry Coulter'
p1898
aS'1920'
p1899
aS'Hooker'
p1900
aS'Co Down'
p1901
aS'3'
aS'0'
aS'0'
aS'0'
aa(lp1902
S'William Crawford'
p1903
aS'1920'
p1904
aS'Fullback'
p1905
aS'Belfast'
p1906
aS'30'
p1907
aS'12'
p1908
aS'0'
aS'18'
p1909
aa(lp1910
S'Robert Crichton'
p1911
aS'1920'
p1912
aS'Lock'
p1913
aS'?'
aS'15'
p1914
aS'3'
aS'0'
aS'0'
aa(lp1915
S'William Cullen'
p1916
aS'1920'
p1917
aS'Centre'
p1918
aS'Balghupar'
p1919
aS'1'
aS'0'
aS'0'
aS'0'
aa(lp1920
S'James Dickson'
p1921
aS'1920'
p1922
aS'Wing'
p1923
aS'Enniskillen'
p1924
aS'3'
aS'0'
aS'1'
aS'3'
aa(lp1925
S'George Doherty'
p1926
aS'1920'
p1927
aS'Lock'
p1928
aS'Wandsworth'
p1929
aS'7'
aS'1'
aS'0'
aS'0'
aa(lp1930
S'Arthur Horan'
p1931
aS'1920'
p1932
aS'Scrum-half'
p1933
aS'London'
p1934
aS'2'
aS'0'
aS'0'
aS'0'
aa(lp1935
S'William Roche'
p1936
aS'1920'
p1937
aS'No. 8'
p1938
aS'Limerick'
p1939
aS'3'
aS'0'
aS'0'
aS'0'
aa(lp1940
S'Thomas Wallace'
p1941
aS'1920'
p1942
aS'Centre'
p1943
aS'Ballymayo'
p1944
aS'3'
aS'0'
aS'0'
aS'0'
aa(lp1945
S'Andy Courtney'
p1946
aS'1920'
p1947
aS'Prop'
p1948
aS'Nenagh'
p1949
aS'7'
aS'1'
aS'0'
aS'0'
aa(lp1950
S'William Duggan'
p1951
aS'1920'
p1952
aS'Centre'
p1953
aS'Cork'
p1954
aS'2'
aS'0'
aS'0'
aS'0'
aa(lp1955
S'Basil McFarland'
p1956
aS'1920'
p1957
aS'Wing'
p1958
aS'Northern Ireland'
p1959
aS'4'
aS'0'
aS'0'
aS'4'
aa(lp1960
S"James O'Neill"
p1961
aS'1920'
p1962
aS'Scrum-half'
p1963
aS'Belfast'
p1964
aS'1'
aS'0'
aS'0'
aS'0'
aa(lp1965
S'Alfred Price'
p1966
aS'1920'
p1967
aS'Prop'
p1968
aS'Co Kerry'
p1969
aS'2'
aS'0'
aS'1'
aS'3'
aa(lp1970
S'Patrick Roddy'
p1971
aS'1920'
p1972
aS'Centre'
p1973
aS'?'
aS'2'
aS'0'
aS'0'
aS'0'
aa(lp1974
S'Michael Bradley'
p1975
aS'1920'
p1976
aS'Prop'
p1977
aS'Cork'
p1978
aS'19'
p1979
aS'9'
aS'0'
aS'0'
aa(lp1980
S'Bill Cunningham'
p1981
aS'1920'
p1982
aS'Fly-half'
p1983
aS'1900'
p1984
aS'9'
aS'2'
aS'2'
aS'6'
aa(lp1985
S'Norman Potterton'
p1986
aS'1920'
p1987
aS'No. 8'
p1988
aS'Dublin'
p1989
aS'1'
aS'0'
aS'0'
aS'0'
aa(lp1990
S'Declan Browne'
p1991
aS'1920'
p1992
aS'Hooker'
p1993
aS'?'
aS'1'
aS'0'
aS'0'
aS'0'
aa(lp1994
S'John Smyth'
p1995
aS'1920'
p1996
aS'Flanker'
p1997
aS'Co Down'
p1998
aS'1'
aS'0'
aS'0'
aS'0'
aa(lp1999
S'George Stephenson'
p2000
aS'1920'
p2001
aS'Centre'
p2002
aS'Northern Ireland'
p2003
aS'42'
p2004
aS'20'
p2005
aS'14'
p2006
aS'89'
p2007
aa(lp2008
S'John Bermingham'
p2009
aS'1921'
p2010
aS'Prop'
p2011
aS'Co.Offaly'
p2012
aS'4'
aS'1'
aS'0'
aS'0'
aa(lp2013
S'Henry Cormac'
p2014
aS'1921'
p2015
aS'Wing'
p2016
aS'Howth'
p2017
aS'3'
aS'1'
aS'0'
aS'0'
aa(lp2018
S'Denis Cussen'
p2019
aS'1921'
p2020
aS'Wing'
p2021
aS'Limerick'
p2022
aS'15'
p2023
aS'6'
aS'5'
aS'15'
p2024
aa(lp2025
S'Charles Hallaran'
p2026
aS'1921'
p2027
aS'Lock'
p2028
aS'Ceylon'
p2029
aS'15'
p2030
aS'6'
aS'0'
aS'0'
aa(lp2031
S'Thomas McClelland'
p2032
aS'1921'
p2033
aS'Flanker'
p2034
aS'?'
aS'16'
p2035
aS'5'
aS'2'
aS'6'
aa(lp2036
S'Thomas Mayne'
p2037
aS'1921'
p2038
aS'Scrum-half'
p2039
aS'Belfast'
p2040
aS'3'
aS'1'
aS'0'
aS'0'
aa(lp2041
S'Noel Purcell'
p2042
aS'1921'
p2043
aS'No. 8'
p2044
aS'Dublin'
p2045
aS'4'
aS'1'
aS'0'
aS'0'
aa(lp2046
S'John Thompson'
p2047
aS'1921'
p2048
aS'Flanker'
p2049
aS'?'
aS'8'
aS'2'
aS'0'
aS'0'
aa(lp2050
S'Cecil Davidson'
p2051
aS'1921'
p2052
aS'Wing'
p2053
aS'?'
aS'1'
aS'0'
aS'0'
aS'0'
aa(lp2054
S'Thomas Wallis'
p2055
aS'1921'
p2056
aS'Wing'
p2057
aS'Dublin'
p2058
aS'5'
aS'1'
aS'1'
aS'14'
p2059
aa(lp2060
S'Samuel McVicker'
p2061
aS'1922'
p2062
aS'Lock'
p2063
aS'Northern Ireland'
p2064
aS'4'
aS'1'
aS'0'
aS'0'
aa(lp2065
S'Reuben Owens'
p2066
aS'1922'
p2067
aS'Flanker'
p2068
aS'Dublin'
p2069
aS'2'
aS'0'
aS'0'
aS'0'
aa(lp2070
S'Donal Sullivan'
p2071
aS'1922'
p2072
aS'Centre'
p2073
aS'Co Cork'
p2074
aS'4'
aS'1'
aS'0'
aS'0'
aa(lp2075
S'Jim Wheeler'
p2076
aS'1922'
p2077
aS'Fly-half'
p2078
aS'Belfast'
p2079
aS'5'
aS'1'
aS'0'
aS'0'
aa(lp2080
S'Joseph Clarke'
p2081
aS'1922'
p2082
aS'Scrum-half'
p2083
aS'Dundrum'
p2084
aS'7'
aS'2'
aS'1'
aS'3'
aa(lp2085
S'John Egan'
p2086
aS'1922'
p2087
aS'Flanker'
p2088
aS'?'
aS'1'
aS'0'
aS'0'
aS'0'
aa(lp2089
S'Ivan Popham'
p2090
aS'1922'
p2091
aS'Lock'
p2092
aS'?'
aS'4'
aS'1'
aS'0'
aS'0'
aa(lp2093
S'Henry Stephenson'
p2094
aS'1922'
p2095
aS'Wing'
p2096
aS'Northern Ireland'
p2097
aS'14'
p2098
aS'5'
aS'4'
aS'12'
p2099
aa(lp2100
S'Joseph Gillespie'
p2101
aS'1922'
p2102
aS'Prop'
p2103
aS'Co.Roscommon'
p2104
aS'2'
aS'1'
aS'0'
aS'0'
aa(lp2105
S'Joe Stewart'
p2106
aS'1922'
p2107
aS'Fullback'
p2108
aS'Boghill'
p2109
aS'10'
p2110
aS'6'
aS'0'
aS'0'
aa(lp2111
S'Dick Collopy'
p2112
aS'1923'
p2113
aS'Prop'
p2114
aS'?'
aS'13'
p2115
aS'5'
aS'0'
aS'0'
aa(lp2116
S'Dunlop Cunningham'
p2117
aS'1923'
p2118
aS'Lock'
p2119
aS'Belfast'
p2120
aS'6'
aS'3'
aS'0'
aS'0'
aa(lp2121
S'James Gardiner'
p2122
aS'1923'
p2123
aS'Centre'
p2124
aS'?'
aS'13'
p2125
aS'5'
aS'1'
aS'3'
aa(lp2126
S'Robert Gray'
p2127
aS'1923'
p2128
aS'No. 8'
p2129
aS'Co Monaghn'
p2130
aS'4'
aS'2'
aS'0'
aS'0'
aa(lp2131
S'William Hall'
p2132
aS'1923'
p2133
aS'Fly-half'
p2134
aS'Belfast'
p2135
aS'6'
aS'2'
aS'0'
aS'0'
aa(lp2136
S'Finlay Jackson'
p2137
aS'1923'
p2138
aS'Centre'
p2139
aS'Belfast'
p2140
aS'1'
aS'0'
aS'0'
aS'0'
aa(lp2141
S'Robert McClenahan'
p2142
aS'1923'
p2143
aS'Wing'
p2144
aS'?'
aS'3'
aS'1'
aS'0'
aS'0'
aa(lp2145
S'Jack Mahony'
p2146
aS'1923'
p2147
aS'No. 8'
p2148
aS'?'
aS'1'
aS'0'
aS'0'
aS'0'
aa(lp2149
S'Peter Dunn'
p2150
aS'1923'
p2151
aS'Lock'
p2152
aS'?'
aS'1'
aS'0'
aS'0'
aS'0'
aa(lp2153
S'Jamie Clinch'
p2154
aS'1923'
p2155
aS'Flanker'
p2156
aS'Dublin'
p2157
aS'30'
p2158
aS'16'
p2159
aS'0'
aS'0'
aa(lp2160
S'Arthur Douglas'
p2161
aS'1923'
p2162
aS'Wing'
p2163
aS'Belfast'
p2164
aS'5'
aS'1'
aS'2'
aS'6'
aa(lp2165
S'Alfred Atkins'
p2166
aS'1924'
p2167
aS'Wing'
p2168
aS'Dublin'
p2169
aS'1'
aS'1'
aS'1'
aS'3'
aa(lp2170
S'William Collis'
p2171
aS'1924'
p2172
aS'Hooker'
p2173
aS'Killiney'
p2174
aS'7'
aS'4'
aS'0'
aS'0'
aa(lp2175
S'John McDowell'
p2176
aS'1924'
p2177
aS'Fly-half'
p2178
aS'?'
aS'2'
aS'1'
aS'0'
aS'0'
aa(lp2179
S'Jim McVicker'
p2180
aS'1924'
p2181
aS'Lock'
p2182
aS'Northern Ireland'
p2183
aS'23'
p2184
aS'11'
p2185
aS'0'
aS'0'
aa(lp2186
S'Ian Stuart'
p2187
aS'1924'
p2188
aS'Lock'
p2189
aS'Dublin'
p2190
aS'2'
aS'0'
aS'0'
aS'0'
aa(lp2191
S'Frank Hewitt'
p2192
aS'1924'
p2193
aS'Fly-half'
p2194
aS'Belfast'
p2195
aS'9'
aS'5'
aS'2'
aS'6'
aa(lp2196
S'Tom Hewitt'
p2197
aS'1924'
p2198
aS'Wing'
p2199
aS'Belfast'
p2200
aS'9'
aS'5'
aS'2'
aS'8'
aa(lp2201
S'Norman Brand'
p2202
aS'1924'
p2203
aS'Forward'
p2204
aS'Northern Ireland'
p2205
aS'3'
aS'0'
aS'0'
aS'0'
aa(lp2206
S'Alex Spain'
p2207
aS'1924'
p2208
aS'Lock'
p2209
aS'Cashel'
p2210
aS'1'
aS'0'
aS'0'
aS'0'
aa(lp2211
S'Mark Sugden'
p2212
aS'1925'
p2213
aS'Scrum-half'
p2214
aS'Staffs'
p2215
aS'28'
p2216
aS'16'
p2217
aS'3'
aS'9'
aa(lp2218
S'George Beamish'
p2219
aS'1925'
p2220
aS'No. 8'
p2221
aS'Munster'
p2222
aS'30'
p2223
aS'13'
p2224
aS'0'
aS'0'
aa(lp2225
S'William Browne'
p2226
aS'1925'
p2227
aS'Hooker'
p2228
aS'Longford'
p2229
aS'12'
p2230
aS'6'
aS'1'
aS'3'
aa(lp2231
S'Standish Cagney'
p2232
aS'1925'
p2233
aS'Lock'
p2234
aS'Harrow-on-the-Hill'
p2235
aS'13'
p2236
aS'9'
aS'0'
aS'0'
aa(lp2237
S'Eugene Davy'
p2238
aS'1925'
p2239
aS'Fly-half'
p2240
aS'Dublin'
p2241
aS'34'
p2242
aS'19'
p2243
aS'8'
aS'36'
p2244
aa(lp2245
S'Robert Flood'
p2246
aS'1925'
p2247
aS'No. 8'
p2248
aS'?'
aS'1'
aS'1'
aS'0'
aS'0'
aa(lp2249
S'Terence Millin'
p2250
aS'1925'
p2251
aS'Centre'
p2252
aS'Northern Ireland'
p2253
aS'1'
aS'1'
aS'1'
aS'3'
aa(lp2254
S'Jimmy Farrell'
p2255
aS'1926'
p2256
aS'Lock'
p2257
aS'Meath'
p2258
aS'34'
p2259
aS'18'
p2260
aS'0'
aS'0'
aa(lp2261
S'Rex Hamilton'
p2262
aS'1926'
p2263
aS'Wing'
p2264
aS'Belfast'
p2265
aS'1'
aS'1'
aS'0'
aS'0'
aa(lp2266
S'Joseph Neill'
p2267
aS'1926'
p2268
aS'Flanker'
p2269
aS'?'
aS'1'
aS'1'
aS'0'
aS'0'
aa(lp2270
S'Allan Buchanan'
p2271
aS'1926'
p2272
aS'Prop'
p2273
aS'?'
aS'6'
aS'4'
aS'0'
aS'0'
aa(lp2274
S'Charles Payne'
p2275
aS'1926'
p2276
aS'Hooker'
p2277
aS'Belfast'
p2278
aS'16'
p2279
aS'10'
p2280
aS'0'
aS'0'
aa(lp2281
S'Jack Gage'
p2282
aS'1926'
p2283
aS'Wing'
p2284
aS'Worcester'
p2285
aS'5'
aS'4'
aS'1'
aS'3'
aa(lp2286
S'Charles Hanrahan'
p2287
aS'1926'
p2288
aS'Prop'
p2289
aS'?'
aS'20'
p2290
aS'11'
p2291
aS'1'
aS'3'
aa(lp2292
S'Maurice Atkinson'
p2293
aS'1927'
p2294
aS'Centre'
p2295
aS'Northern Ireland'
p2296
aS'2'
aS'1'
aS'0'
aS'0'
aa(lp2297
S'Jim Ganly'
p2298
aS'1927'
p2299
aS'Wing'
p2300
aS'Dublin'
p2301
aS'12'
p2302
aS'7'
aS'7'
aS'24'
p2303
aa(lp2304
S'Paul Murray'
p2305
aS'1927'
p2306
aS'Scrum-half'
p2307
aS'Dublin'
p2308
aS'23'
p2309
aS'11'
p2310
aS'1'
aS'33'
p2311
aa(lp2312
S'Norman Ross'
p2313
aS'1927'
p2314
aS'No. 8'
p2315
aS'Ballymena'
p2316
aS'2'
aS'1'
aS'0'
aS'0'
aa(lp2317
S'Hugh McVicker'
p2318
aS'1927'
p2319
aS'Lock'
p2320
aS'Northern Ireland'
p2321
aS'5'
aS'3'
aS'1'
aS'3'
aa(lp2322
S'Theodore Pike'
p2323
aS'1927'
p2324
aS'Prop'
p2325
aS'Thurles'
p2326
aS'8'
aS'5'
aS'1'
aS'3'
aa(lp2327
S'Joxer Arigho'
p2328
aS'1928'
p2329
aS'Wing'
p2330
aS'Dublin'
p2331
aS'16'
p2332
aS'8'
aS'6'
aS'18'
p2333
aa(lp2334
S'Thomas Bramwell'
p2335
aS'1928'
p2336
aS'Hooker'
p2337
aS'Co.Antrim'
p2338
aS'1'
aS'1'
aS'0'
aS'0'
aa(lp2339
S'Reginald Odbert'
p2340
aS'1928'
p2341
aS'Centre'
p2342
aS'Monkstown'
p2343
aS'1'
aS'1'
aS'0'
aS'0'
aa(lp2344
S'Rowland Byers'
p2345
aS'1928'
p2346
aS'Wing'
p2347
aS'Belfast'
p2348
aS'5'
aS'3'
aS'0'
aS'0'
aa(lp2349
S'Jerry Mullane'
p2350
aS'1928'
p2351
aS'Flanker'
p2352
aS'Newcastle West'
p2353
aS'2'
aS'2'
aS'0'
aS'0'
aa(lp2354
S'Mike Dunne'
p2355
aS'1928'
p2356
aS'Lock'
p2357
aS'Co.Dublin'
p2358
aS'16'
p2359
aS'7'
aS'0'
aS'0'
aa(lp2360
S'Hugh Browne'
p2361
aS'1929'
p2362
aS'Hooker'
p2363
aS'London'
p2364
aS'3'
aS'1'
aS'0'
aS'2'
aa(lp2365
S'John Synge'
p2366
aS'1929'
p2367
aS'Flanker'
p2368
aS'Dublin'
p2369
aS'1'
aS'0'
aS'0'
aS'0'
aa(lp2370
S'Morgan Crowe'
p2371
aS'1929'
p2372
aS'Centre'
p2373
aS'Dublin'
p2374
aS'13'
p2375
aS'6'
aS'2'
aS'6'
aa(lp2376
S'Mark Deering'
p2377
aS'1929'
p2378
aS'Lock'
p2379
aS'Co Wicklow'
p2380
aS'1'
aS'0'
aS'0'
aS'0'
aa(lp2381
S'Claude Carroll'
p2382
aS'1930'
p2383
aS'Lock'
p2384
aS'Thurles'
p2385
aS'1'
aS'0'
aS'0'
aS'0'
aa(lp2386
S'Ted Hunt'
p2387
aS'1930'
p2388
aS'Centre'
p2389
aS'Dorset'
p2390
aS'5'
aS'2'
aS'2'
aS'6'
aa(lp2391
S'William McCormick'
p2392
aS'1930'
p2393
aS'No. 8'
p2394
aS'Co Derry'
p2395
aS'1'
aS'1'
aS'0'
aS'0'
aa(lp2396
S'Noel Murphy'
p2397
aS'1930'
p2398
aS'Flanker'
p2399
aS'Cork'
p2400
aS'11'
p2401
aS'5'
aS'0'
aS'0'
aa(lp2402
S"Henry O'Neill"
p2403
aS'1930'
p2404
aS'Prop'
p2405
aS'Portstewart'
p2406
aS'11'
p2407
aS'4'
aS'0'
aS'0'
aa(lp2408
S'Frederick Williamson'
p2409
aS'1930'
p2410
aS'Fullback'
p2411
aS'Wexford'
p2412
aS'3'
aS'2'
aS'0'
aS'0'
aa(lp2413
S'Ter Casey'
p2414
aS'1930'
p2415
aS'Hooker'
p2416
aS'Limerick'
p2417
aS'2'
aS'1'
aS'0'
aS'0'
aa(lp2418
S'Major Egan'
p2419
aS'1931'
p2420
aS'Fullback'
p2421
aS'?'
aS'3'
aS'1'
aS'0'
aS'0'
aa(lp2422
S'Edward Lightfoot'
p2423
aS'1931'
p2424
aS'Wing'
p2425
aS'Dublin'
p2426
aS'11'
p2427
aS'5'
aS'3'
aS'9'
aa(lp2428
S'Jack Russell'
p2429
aS'1931'
p2430
aS'Lock'
p2431
aS'Queenstown Cobh'
p2432
aS'19'
p2433
aS'8'
aS'2'
aS'6'
aa(lp2434
S'Jack Siggins'
p2435
aS'1931'
p2436
aS'No. 8'
p2437
aS'Belfast'
p2438
aS'24'
p2439
aS'11'
p2440
aS'1'
aS'12'
p2441
aa(lp2442
S'Hal Withers'
p2443
aS'1931'
p2444
aS'No. 8'
p2445
aS'?'
aS'5'
aS'2'
aS'0'
aS'0'
aa(lp2446
S'Laurence McMahon'
p2447
aS'1931'
p2448
aS'Centre'
p2449
aS'London'
p2450
aS'12'
p2451
aS'5'
aS'3'
aS'12'
p2452
aa(lp2453
S'Victor Pike'
p2454
aS'1931'
p2455
aS'Hooker'
p2456
aS'Thurles'
p2457
aS'13'
p2458
aS'5'
aS'1'
aS'3'
aa(lp2459
S'John Entrican'
p2460
aS'1931'
p2461
aS'Fullback'
p2462
aS'Cookstown'
p2463
aS'1'
aS'1'
aS'0'
aS'0'
aa(lp2464
S'Dermot Morris'
p2465
aS'1931'
p2466
aS'Fullback'
p2467
aS'Dublin'
p2468
aS'6'
aS'2'
aS'0'
aS'0'
aa(lp2469
S'William Ross'
p2470
aS'1932'
p2471
aS'Flanker'
p2472
aS'?'
aS'9'
aS'3'
aS'2'
aS'6'
aa(lp2473
S'Michael Sheehan'
p2474
aS'1932'
p2475
aS'Scrum-half'
p2476
aS'Limerick'
p2477
aS'1'
aS'0'
aS'0'
aS'0'
aa(lp2478
S'Shaun Waide'
p2479
aS'1932'
p2480
aS'Wing'
p2481
aS'?'
aS'5'
aS'3'
aS'3'
aS'9'
aa(lp2482
S'Ernest Ridgeway'
p2483
aS'1932'
p2484
aS'Centre'
p2485
aS'Dublin'
p2486
aS'5'
aS'4'
aS'1'
aS'3'
aa(lp2487
S'Robin Pratt'
p2488
aS'1933'
p2489
aS'Fullback'
p2490
aS'Enniskillen'
p2491
aS'5'
aS'1'
aS'0'
aS'0'
aa(lp2492
S'Bobby Barnes'
p2493
aS'1933'
p2494
aS'Centre'
p2495
aS'Northern Ireland'
p2496
aS'1'
aS'1'
aS'1'
aS'3'
aa(lp2497
S'Charles Beamish'
p2498
aS'1933'
p2499
aS'Prop'
p2500
aS'Cork'
p2501
aS'12'
p2502
aS'5'
aS'1'
aS'3'
aa(lp2503
S'Paddy Coote'
p2504
aS'1933'
p2505
aS'Centre'
p2506
aS'Eton'
p2507
aS'1'
aS'0'
aS'0'
aS'0'
aa(lp2508
S"Joseph O'Connor"
p2509
aS'1933'
p2510
aS'Wing'
p2511
aS'Castleisland'
p2512
aS'11'
p2513
aS'3'
aS'3'
aS'9'
aa(lp2514
S'Mebs Bardon'
p2515
aS'1934'
p2516
aS'Flanker'
p2517
aS'Wicklow'
p2518
aS'1'
aS'0'
aS'0'
aS'0'
aa(lp2519
S'Bob Graves'
p2520
aS'1934'
p2521
aS'Hooker'
p2522
aS'Co Kerry'
p2523
aS'17'
p2524
aS'6'
aS'0'
aS'0'
aa(lp2525
S'George Morgan'
p2526
aS'1934'
p2527
aS'Scrum-half'
p2528
aS'Dublin'
p2529
aS'20'
p2530
aS'9'
aS'2'
aS'6'
aa(lp2531
S'James Reardon'
p2532
aS'1934'
p2533
aS'Centre'
p2534
aS'?'
aS'2'
aS'0'
aS'0'
aS'0'
aa(lp2535
S'Sam Walker'
p2536
aS'1934'
p2537
aS'Prop'
p2538
aS'Belfast'
p2539
aS'18'
p2540
aS'7'
aS'1'
aS'7'
aa(lp2541
S'Ham Lambert'
p2542
aS'1934'
p2543
aS'Centre'
p2544
aS'Dublin'
p2545
aS'2'
aS'0'
aS'0'
aS'0'
aa(lp2546
S'David Lane'
p2547
aS'1934'
p2548
aS'Wing'
p2549
aS'Cork'
p2550
aS'4'
aS'1'
aS'0'
aS'0'
aa(lp2551
S'John Reid'
p2552
aS'1934'
p2553
aS'Fly-half'
p2554
aS'Co Cork'
p2555
aS'2'
aS'0'
aS'0'
aS'0'
aa(lp2556
S'Aidan Bailey'
p2557
aS'1934'
p2558
aS'Centre'
p2559
aS'Dublin'
p2560
aS'13'
p2561
aS'6'
aS'4'
aS'22'
p2562
aa(lp2563
S'Daniel Langan'
p2564
aS'1934'
p2565
aS'Fullback'
p2566
aS'Dublin'
p2567
aS'1'
aS'0'
aS'0'
aS'0'
aa(lp2568
S'Noel McGrath'
p2569
aS'1934'
p2570
aS'Prop'
p2571
aS'Wakefield'
p2572
aS'1'
aS'0'
aS'0'
aS'0'
aa(lp2573
S'John Megaw'
p2574
aS'1934'
p2575
aS'No. 8'
p2576
aS'Belfast'
p2577
aS'2'
aS'0'
aS'0'
aS'0'
aa(lp2578
S'Philip Crowe'
p2579
aS'1935'
p2580
aS'Fullback'
p2581
aS'Dublin'
p2582
aS'2'
aS'0'
aS'0'
aS'2'
aa(lp2583
S'Seamus Deering'
p2584
aS'1935'
p2585
aS'Lock'
p2586
aS'Co Wicklow'
p2587
aS'9'
aS'5'
aS'0'
aS'0'
aa(lp2588
S'Patrick Lawlor'
p2589
aS'1935'
p2590
aS'Flanker'
p2591
aS'Co Wicklow'
p2592
aS'6'
aS'4'
aS'1'
aS'3'
aa(lp2593
S'Mike Sayers'
p2594
aS'1935'
p2595
aS'Flanker'
p2596
aS'Madras'
p2597
aS'10'
p2598
aS'6'
aS'0'
aS'3'
aa(lp2599
S'Victor Hewitt'
p2600
aS'1935'
p2601
aS'Fly-half'
p2602
aS'Belfast'
p2603
aS'6'
aS'4'
aS'0'
aS'4'
aa(lp2604
S'Jack Doyle'
p2605
aS'1935'
p2606
aS'Wing'
p2607
aS'?'
aS'1'
aS'1'
aS'1'
aS'3'
aa(lp2608
S'Vesey Boyle'
p2609
aS'1935'
p2610
aS'Wing'
p2611
aS'Dublin'
p2612
aS'11'
p2613
aS'5'
aS'1'
aS'3'
aa(lp2614
S'Thomas Dunn'
p2615
aS'1935'
p2616
aS'Prop'
p2617
aS'?'
aS'1'
aS'0'
aS'0'
aS'0'
aa(lp2618
S'George Malcolmson'
p2619
aS'1935'
p2620
aS'Fullback'
p2621
aS'Northern Ireland'
p2622
aS'7'
aS'4'
aS'0'
aS'0'
aa(lp2623
S'Clive Wallis'
p2624
aS'1935'
p2625
aS'Prop'
p2626
aS'Dublin'
p2627
aS'1'
aS'0'
aS'0'
aS'0'
aa(lp2628
S'Bob Alexander'
p2629
aS'1936'
p2630
aS'Flanker'
p2631
aS'Belfast'
p2632
aS'14'
p2633
aS'7'
aS'2'
aS'6'
aa(lp2634
S'Fred Moran'
p2635
aS'1936'
p2636
aS'Wing'
p2637
aS'?'
aS'9'
aS'5'
aS'6'
aS'18'
p2638
aa(lp2639
S'Thomas Corken'
p2640
aS'1937'
p2641
aS'Hooker'
p2642
aS'Northern Ireland'
p2643
aS'3'
aS'2'
aS'0'
aS'0'
aa(lp2644
S'George Cromey'
p2645
aS'1937'
p2646
aS'Fly-half'
p2647
aS'Northern Ireland'
p2648
aS'10'
p2649
aS'5'
aS'2'
aS'6'
aa(lp2650
S'Blair Mayne'
p2651
aS'1937'
p2652
aS'Lock'
p2653
aS'Northern Ireland'
p2654
aS'9'
aS'4'
aS'1'
aS'3'
aa(lp2655
S'Charles Reidy'
p2656
aS'1937'
p2657
aS'Prop'
p2658
aS'London'
p2659
aS'1'
aS'1'
aS'0'
aS'0'
aa(lp2660
S'Ted Ryan'
p2661
aS'1937'
p2662
aS'Prop'
p2663
aS'Co.Clare'
p2664
aS'3'
aS'1'
aS'0'
aS'0'
aa(lp2665
S'Maurice Daly'
p2666
aS'1938'
p2667
aS'Wing'
p2668
aS'?'
aS'1'
aS'0'
aS'1'
aS'3'
aa(lp2669
S'John Irwin'
p2670
aS'1938'
p2671
aS'No. 8'
p2672
aS'Northern Ireland'
p2673
aS'5'
aS'2'
aS'1'
aS'3'
aa(lp2674
S'Victor Lyttle'
p2675
aS'1938'
p2676
aS'Wing'
p2677
aS'Belfast'
p2678
aS'3'
aS'2'
aS'0'
aS'0'
aa(lp2679
S"David O'Loughlin"
p2680
aS'1938'
p2681
aS'Lock'
p2682
aS'Glenbeigh'
p2683
aS'6'
aS'2'
aS'1'
aS'3'
aa(lp2684
S'Ronald Craig'
p2685
aS'1938'
p2686
aS'Fullback'
p2687
aS'Belfast'
p2688
aS'2'
aS'0'
aS'0'
aS'0'
aa(lp2689
S'Hector Kennedy'
p2690
aS'1938'
p2691
aS'Prop'
p2692
aS'?'
aS'2'
aS'0'
aS'0'
aS'0'
aa(lp2693
S'Donough Tierney'
p2694
aS'1938'
p2695
aS'Lock'
p2696
aS'?'
aS'3'
aS'1'
aS'0'
aS'0'
aa(lp2697
S'Harry McKibbin'
p2698
aS'1938'
p2699
aS'Centre'
p2700
aS'Belfast'
p2701
aS'7'
aS'3'
aS'0'
aS'12'
p2702
aa(lp2703
S'Desmond Torrens'
p2704
aS'1938'
p2705
aS'Centre'
p2706
aS'?'
aS'4'
aS'2'
aS'1'
aS'3'
aa(lp2707
S'Con Murphy'
p2708
aS'1939'
p2709
aS'Fullback'
p2710
aS'Dublin'
p2711
aS'5'
aS'3'
aS'0'
aS'0'
aa(lp2712
S'James Ryan'
p2713
aS'1939'
p2714
aS'Prop'
p2715
aS'Dublin'
p2716
aS'3'
aS'2'
aS'0'
aS'0'
aa(lp2717
S'Charles Teehan'
p2718
aS'1939'
p2719
aS'Prop'
p2720
aS'Co Cork'
p2721
aS'3'
aS'2'
aS'0'
aS'0'
aa(lp2722
S'Thomas Headon'
p2723
aS'1939'
p2724
aS'Prop'
p2725
aS'Ballyporeen'
p2726
aS'2'
aS'1'
aS'0'
aS'0'
aa(lp2727
S'Robert Agar'
p2728
aS'1947'
p2729
aS'No. 8'
p2730
aS'Co Carlow'
p2731
aS'10'
p2732
aS'5'
aS'0'
aS'0'
aa(lp2733
S'Colm Callan'
p2734
aS'1947'
p2735
aS'Lock'
p2736
aS'Co Louth'
p2737
aS'10'
p2738
aS'7'
aS'0'
aS'0'
aa(lp2739
S'Ray Carroll'
p2740
aS'1947'
p2741
aS'Scrum-half'
p2742
aS'Dublin'
p2743
aS'3'
aS'1'
aS'0'
aS'0'
aa(lp2744
S'John Daly'
p2745
aS'1947'
p2746
aS'Prop'
p2747
aS'Queenstown'
p2748
aS'7'
aS'5'
aS'1'
aS'3'
aa(lp2749
S'John Harper'
p2750
aS'1947'
p2751
aS'Centre'
p2752
aS'Belfast'
p2753
aS'3'
aS'2'
aS'0'
aS'0'
aa(lp2754
S'Donal Hingerty'
p2755
aS'1947'
p2756
aS'Flanker'
p2757
aS'Dublin'
p2758
aS'4'
aS'2'
aS'0'
aS'0'
aa(lp2759
S'Ernie Keeffe'
p2760
aS'1947'
p2761
aS'Lock'
p2762
aS'Cork'
p2763
aS'6'
aS'3'
aS'0'
aS'0'
aa(lp2764
S'Jackie Kyle'
p2765
aS'1947'
p2766
aS'Fly-half'
p2767
aS'Northern Ireland'
p2768
aS'52'
p2769
aS'25'
p2770
aS'9'
aS'30'
p2771
aa(lp2772
S'Bill McKay'
p2773
aS'1947'
p2774
aS'Flanker'
p2775
aS'Waterford'
p2776
aS'29'
p2777
aS'16'
p2778
aS'3'
aS'9'
aa(lp2779
S'Barney Mullan'
p2780
aS'1947'
p2781
aS'Wing'
p2782
aS'?'
aS'8'
aS'6'
aS'6'
aS'36'
p2783
aa(lp2784
S'Karl Mullen'
p2785
aS'1947'
p2786
aS'Hooker'
p2787
aS'Courtown Harbour'
p2788
aS'28'
p2789
aS'16'
p2790
aS'0'
aS'0'
aa(lp2791
S'Matthew Neely'
p2792
aS'1947'
p2793
aS'Prop'
p2794
aS'Northern Ireland'
p2795
aS'4'
aS'2'
aS'0'
aS'0'
aa(lp2796
S'Brendan Quinn'
p2797
aS'1947'
p2798
aS'Wing'
p2799
aS'Dublin'
p2800
aS'1'
aS'0'
aS'0'
aS'0'
aa(lp2801
S'Kevin Quinn'
p2802
aS'1947'
p2803
aS'Centre'
p2804
aS'Co Galway'
p2805
aS'5'
aS'2'
aS'0'
aS'3'
aa(lp2806
S'Jack Monteith'
p2807
aS'1947'
p2808
aS'Centre'
p2809
aS'Northern Ireland'
p2810
aS'3'
aS'2'
aS'0'
aS'0'
aa(lp2811
S"Bertie O'Hanlon"
p2812
aS'1947'
p2813
aS'Wing'
p2814
aS'Cork'
p2815
aS'12'
p2816
aS'9'
aS'3'
aS'9'
aa(lp2817
S'Ernest Strathdee'
p2818
aS'1947'
p2819
aS'Scrum-half'
p2820
aS'?'
aS'9'
aS'7'
aS'0'
aS'0'
aa(lp2821
S'Dudley Higgins'
p2822
aS'1947'
p2823
aS'Fullback'
p2824
aS'Wicklow'
p2825
aS'6'
aS'4'
aS'0'
aS'0'
aa(lp2826
S'Mick Lane'
p2827
aS'1947'
p2828
aS'Wing'
p2829
aS'Cork'
p2830
aS'19'
p2831
aS'10'
p2832
aS'1'
aS'3'
aa(lp2833
S'Jimmy Corcoran'
p2834
aS'1947'
p2835
aS'Prop'
p2836
aS'Cork'
p2837
aS'2'
aS'1'
aS'0'
aS'0'
aa(lp2838
S'Albert McConnell'
p2839
aS'1947'
p2840
aS'Prop'
p2841
aS'Belfast'
p2842
aS'7'
aS'5'
aS'0'
aS'0'
aa(lp2843
S'Desmond McCourt'
p2844
aS'1947'
p2845
aS'No. 8'
p2846
aS'Northern Ireland'
p2847
aS'1'
aS'0'
aS'0'
aS'0'
aa(lp2848
S'William McKee'
p2849
aS'1947'
p2850
aS'Centre'
p2851
aS'Northern Ireland'
p2852
aS'12'
p2853
aS'7'
aS'2'
aS'6'
aa(lp2854
S'Jimmy Nelson'
p2855
aS'1947'
p2856
aS'Lock'
p2857
aS'Belfast'
p2858
aS'20'
p2859
aS'11'
p2860
aS'3'
aS'9'
aa(lp2861
S"Kevin O'Flanagan"
p2862
aS'1947'
p2863
aS'Wing'
p2864
aS'Dublin'
p2865
aS'1'
aS'0'
aS'0'
aS'0'
aa(lp2866
S'Paddy Reid'
p2867
aS'1947'
p2868
aS'Centre'
p2869
aS'Limerick'
p2870
aS'4'
aS'3'
aS'1'
aS'3'
aa(lp2871
S'Richard Wilkinson'
p2872
aS'1947'
p2873
aS'Lock'
p2874
aS'Dublin'
p2875
aS'1'
aS'0'
aS'0'
aS'0'
aa(lp2876
S'Jim McCarthy'
p2877
aS'1948'
p2878
aS'Flanker'
p2879
aS'Cork'
p2880
aS'28'
p2881
aS'15'
p2882
aS'8'
aS'24'
p2883
aa(lp2884
S'Hugh de Lacy'
p2885
aS'1948'
p2886
aS'Scrum-half'
p2887
aS'?'
aS'2'
aS'2'
aS'0'
aS'0'
aa(lp2888
S'John Mattsson'
p2889
aS'1948'
p2890
aS'Fullback'
p2891
aS'Co.Cork'
p2892
aS'1'
aS'1'
aS'0'
aS'0'
aa(lp2893
S"Des O'Brien"
p2894
aS'1948'
p2895
aS'No. 8'
p2896
aS'Dublin'
p2897
aS'20'
p2898
aS'12'
p2899
aS'1'
aS'3'
aa(lp2900
S"Michael O'Flanagan"
p2901
aS'1948'
p2902
aS'Centre'
p2903
aS'Dublin'
p2904
aS'1'
aS'1'
aS'0'
aS'0'
aa(lp2905
S'Tom Clifford'
p2906
aS'1949'
p2907
aS'Prop'
p2908
aS'Tipperary'
p2909
aS'19'
p2910
aS'10'
p2911
aS'1'
aS'3'
aa(lp2912
S'Thomas Cullen'
p2913
aS'1949'
p2914
aS'Scrum-half'
p2915
aS'Dublin'
p2916
aS'1'
aS'0'
aS'0'
aS'0'
aa(lp2917
S'Tom Gavin'
p2918
aS'1949'
p2919
aS'Centre'
p2920
aS'Coventry'
p2921
aS'2'
aS'1'
aS'0'
aS'0'
aa(lp2922
S'George Norton'
p2923
aS'1949'
p2924
aS'Fullback'
p2925
aS'Dublin'
p2926
aS'11'
p2927
aS'7'
aS'0'
aS'41'
p2928
aa(lp2929
S'Leslie Griffin'
p2930
aS'1949'
p2931
aS'Prop'
p2932
aS'Arklow'
p2933
aS'2'
aS'2'
aS'0'
aS'0'
aa(lp2934
S'Noel Henderson'
p2935
aS'1949'
p2936
aS'Centre'
p2937
aS'Northern Ireland'
p2938
aS'41'
p2939
aS'18'
p2940
aS'3'
aS'54'
p2941
aa(lp2942
S'John Burges'
p2943
aS'1950'
p2944
aS'Scrum-half'
p2945
aS'Tipperary'
p2946
aS'2'
aS'0'
aS'0'
aS'3'
aa(lp2947
S'Arthur Curtis'
p2948
aS'1950'
p2949
aS'Flanker'
p2950
aS'Shanghai'
p2951
aS'3'
aS'1'
aS'1'
aS'3'
aa(lp2952
S'Des McKibbin'
p2953
aS'1950'
p2954
aS'Prop'
p2955
aS'Northern Ireland'
p2956
aS'8'
aS'4'
aS'0'
aS'3'
aa(lp2957
S'Louis Crowe'
p2958
aS'1950'
p2959
aS'Wing'
p2960
aS'Co.Tipperary'
p2961
aS'3'
aS'1'
aS'1'
aS'3'
aa(lp2962
S'George Phipps'
p2963
aS'1950'
p2964
aS'Centre'
p2965
aS'Peshawar'
p2966
aS'5'
aS'1'
aS'0'
aS'0'
aa(lp2967
S'John Blayney'
p2968
aS'1950'
p2969
aS'Centre'
p2970
aS'Dublin'
p2971
aS'1'
aS'1'
aS'1'
aS'3'
aa(lp2972
S'Jacko Molony'
p2973
aS'1950'
p2974
aS'Lock'
p2975
aS'Thurles'
p2976
aS'1'
aS'1'
aS'0'
aS'0'
aa(lp2977
S'Hex Uprichard'
p2978
aS'1950'
p2979
aS'Centre'
p2980
aS'Northern Ireland'
p2981
aS'2'
aS'1'
aS'0'
aS'0'
aa(lp2982
S'Richard Chambers'
p2983
aS'1951'
p2984
aS'Centre'
p2985
aS'Northern Ireland'
p2986
aS'6'
aS'4'
aS'0'
aS'0'
aa(lp2987
S'Cornelius Griffin'
p2988
aS'1951'
p2989
aS'Wing'
p2990
aS'London'
p2991
aS'2'
aS'2'
aS'0'
aS'0'
aa(lp2992
S"John O'Meara"
p2993
aS'1951'
p2994
aS'Scrum-half'
p2995
aS'Cork'
p2996
aS'22'
p2997
aS'10'
p2998
aS'2'
aS'6'
aa(lp2999
S'John Smith'
p3000
aS'1951'
p3001
aS'Prop'
p3002
aS'Northern Ireland'
p3003
aS'12'
p3004
aS'5'
aS'0'
aS'0'
aa(lp3005
S'William Millar'
p3006
aS'1951'
p3007
aS'Wing'
p3008
aS'Northern Ireland'
p3009
aS'5'
aS'3'
aS'0'
aS'0'
aa(lp3010
S'James Brady'
p3011
aS'1951'
p3012
aS'Lock'
p3013
aS'Northern Ireland'
p3014
aS'12'
p3015
aS'6'
aS'0'
aS'0'
aa(lp3016
S'Patrick Lawlor'
p3017
aS'1951'
p3018
aS'Lock'
p3019
aS'Dublin'
p3020
aS'12'
p3021
aS'5'
aS'1'
aS'3'
aa(lp3022
S'Angus McMorrow'
p3023
aS'1951'
p3024
aS'Fullback'
p3025
aS'Sligo'
p3026
aS'1'
aS'0'
aS'0'
aS'0'
aa(lp3027
S'Antony Browne'
p3028
aS'1951'
p3029
aS'Centre'
p3030
aS'?'
aS'1'
aS'0'
aS'1'
aS'3'
aa(lp3031
S'Gerry Murphy'
p3032
aS'1951'
p3033
aS'Fullback'
p3034
aS'Northern Ireland'
p3035
aS'6'
aS'1'
aS'0'
aS'5'
aa(lp3036
S'Robin Thompson'
p3037
aS'1951'
p3038
aS'Lock'
p3039
aS'Northern Ireland'
p3040
aS'14'
p3041
aS'4'
aS'0'
aS'0'
aa(lp3042
S'John Notley'
p3043
aS'1952'
p3044
aS'Fullback'
p3045
aS"Co Roscom'n"
p3046
aS'2'
aS'2'
aS'0'
aS'2'
aa(lp3047
S'Mick Dargan'
p3048
aS'1952'
p3049
aS'Flanker'
p3050
aS'Dublin'
p3051
aS'2'
aS'1'
aS'0'
aS'0'
aa(lp3052
S"Archie O'Leary"
p3053
aS'1952'
p3054
aS'Lock'
p3055
aS'Cork'
p3056
aS'3'
aS'1'
aS'0'
aS'0'
aa(lp3057
S'Niall Bailey'
p3058
aS'1952'
p3059
aS'Wing'
p3060
aS'Dublin'
p3061
aS'1'
aS'0'
aS'0'
aS'0'
aa(lp3062
S'Michael Hillary'
p3063
aS'1952'
p3064
aS'Wing'
p3065
aS'Malaya'
p3066
aS'1'
aS'0'
aS'0'
aS'0'
aa(lp3067
S'Patrick Kavanagh'
p3068
aS'1952'
p3069
aS'Flanker'
p3070
aS'Dublin'
p3071
aS'2'
aS'0'
aS'0'
aS'0'
aa(lp3072
S"William O'Neill"
p3073
aS'1952'
p3074
aS'Prop'
p3075
aS'Dublin'
p3076
aS'6'
aS'2'
aS'0'
aS'0'
aa(lp3077
S'Robin Roe'
p3078
aS'1952'
p3079
aS'Hooker'
p3080
aS'Ballybrophy'
p3081
aS'21'
p3082
aS'7'
aS'0'
aS'0'
aa(lp3083
S'Fuzzy Anderson'
p3084
aS'1953'
p3085
aS'Prop'
p3086
aS'Northern Ireland'
p3087
aS'13'
p3088
aS'3'
aS'0'
aS'0'
aa(lp3089
S'Ewart Bell'
p3090
aS'1953'
p3091
aS'Flanker'
p3092
aS'Northern Ireland'
p3093
aS'4'
aS'2'
aS'0'
aS'0'
aa(lp3094
S'Robin Gregg'
p3095
aS'1953'
p3096
aS'Fullback'
p3097
aS'Northern Ireland'
p3098
aS'7'
aS'3'
aS'0'
aS'12'
p3099
aa(lp3100
S'James Kavanagh'
p3101
aS'1953'
p3102
aS'Flanker'
p3103
aS'Dublin'
p3104
aS'35'
p3105
aS'12'
p3106
aS'4'
aS'12'
p3107
aa(lp3108
S'Maurice Mortell'
p3109
aS'1953'
p3110
aS'Wing'
p3111
aS'Co Cork'
p3112
aS'9'
aS'3'
aS'5'
aS'15'
p3113
aa(lp3114
S'Tom Reid'
p3115
aS'1953'
p3116
aS'Lock'
p3117
aS'Limerick'
p3118
aS'15'
p3119
aS'4'
aS'0'
aS'0'
aa(lp3120
S'Seamus Byrne'
p3121
aS'1953'
p3122
aS'Wing'
p3123
aS'Dublin'
p3124
aS'3'
aS'1'
aS'4'
aS'12'
p3125
aa(lp3126
S'Cecil Pedlow'
p3127
aS'1953'
p3128
aS'Wing'
p3129
aS'Northern Ireland'
p3130
aS'32'
p3131
aS'7'
aS'4'
aS'36'
p3132
aa(lp3133
S'Gerard Reidy'
p3134
aS'1953'
p3135
aS'Flanker'
p3136
aS'Cork'
p3137
aS'5'
aS'1'
aS'0'
aS'0'
aa(lp3138
S'Joseph Gaston'
p3139
aS'1954'
p3140
aS'Wing'
p3141
aS'Northern Ireland'
p3142
aS'8'
aS'1'
aS'1'
aS'3'
aa(lp3143
S'William Hewitt'
p3144
aS'1954'
p3145
aS'Fly-half'
p3146
aS'Northern Ireland'
p3147
aS'4'
aS'1'
aS'0'
aS'0'
aa(lp3148
S"James Murphy-O'Connor"
p3149
aS'1954'
p3150
aS'No. 8'
p3151
aS'Reading'
p3152
aS'1'
aS'0'
aS'0'
aS'3'
aa(lp3153
S'Gordon Wood'
p3154
aS'1954'
p3155
aS'Prop'
p3156
aS'Limerick'
p3157
aS'31'
p3158
aS'10'
p3159
aS'1'
aS'3'
aa(lp3160
S'Robin Godfrey'
p3161
aS'1954'
p3162
aS'Centre'
p3163
aS'Essex'
p3164
aS'2'
aS'1'
aS'0'
aS'0'
aa(lp3165
S'Seamus Kelly'
p3166
aS'1954'
p3167
aS'Fly-half'
p3168
aS'Wexford'
p3169
aS'5'
aS'1'
aS'0'
aS'12'
p3170
aa(lp3171
S'Patrick Berkery'
p3172
aS'1954'
p3173
aS'Fullback'
p3174
aS'Clonmel'
p3175
aS'11'
p3176
aS'6'
aS'0'
aS'5'
aa(lp3177
S'Herbert McCracken'
p3178
aS'1954'
p3179
aS'Scrum-half'
p3180
aS'Northern Ireland'
p3181
aS'1'
aS'0'
aS'0'
aS'0'
aa(lp3182
S'Marney Cunningham'
p3183
aS'1955'
p3184
aS'Flanker'
p3185
aS'Cork'
p3186
aS'7'
aS'2'
aS'1'
aS'3'
aa(lp3187
S"William O'Connell"
p3188
aS'1955'
p3189
aS'Lock'
p3190
aS'Limerick'
p3191
aS'1'
aS'0'
aS'0'
aS'0'
aa(lp3192
S"Patrick O'Donoghue"
p3193
aS'1955'
p3194
aS'Prop'
p3195
aS'Dun Laoghaire'
p3196
aS'11'
p3197
aS'4'
aS'0'
aS'0'
aa(lp3198
S"Tony O'Reilly"
p3199
aS'1955'
p3200
aS'Wing'
p3201
aS'Dublin'
p3202
aS'39'
p3203
aS'15'
p3204
aS'10'
p3205
aS'30'
p3206
aa(lp3207
S'William Tector'
p3208
aS'1955'
p3209
aS'Fullback'
p3210
aS'Co Wexford'
p3211
aS'3'
aS'0'
aS'0'
aS'0'
aa(lp3212
S'Mick Madden'
p3213
aS'1955'
p3214
aS'Lock'
p3215
aS'Cork'
p3216
aS'3'
aS'0'
aS'0'
aS'0'
aa(lp3217
S'Richard Roche'
p3218
aS'1955'
p3219
aS'Wing'
p3220
aS'Co Galway'
p3221
aS'4'
aS'1'
aS'0'
aS'0'
aa(lp3222
S'Sean McDermott'
p3223
aS'1955'
p3224
aS'Scrum-half'
p3225
aS'Kinsale'
p3226
aS'2'
aS'0'
aS'0'
aS'0'
aa(lp3227
S'David MacSweeney'
p3228
aS'1955'
p3229
aS'Flanker'
p3230
aS'Co Waterf'
p3231
aS'1'
aS'0'
aS'0'
aS'0'
aa(lp3232
S'George Ross'
p3233
aS'1955'
p3234
aS'No. 8'
p3235
aS'Northern Ireland'
p3236
aS'1'
aS'0'
aS'0'
aS'0'
aa(lp3237
S'Cecil Fagan'
p3238
aS'1956'
p3239
aS'Prop'
p3240
aS'Dublin'
p3241
aS'3'
aS'1'
aS'0'
aS'0'
aa(lp3242
S'Adrian Kennedy'
p3243
aS'1956'
p3244
aS'No. 8'
p3245
aS'Northern Ireland'
p3246
aS'1'
aS'0'
aS'0'
aS'0'
aa(lp3247
S'Jimmy McKelvey'
p3248
aS'1956'
p3249
aS'Fullback'
p3250
aS'Northern Ireland'
p3251
aS'2'
aS'0'
aS'0'
aS'0'
aa(lp3252
S'Andy Mulligan'
p3253
aS'1956'
p3254
aS'Scrum-half'
p3255
aS'Kasauli'
p3256
aS'23'
p3257
aS'7'
aS'0'
aS'0'
aa(lp3258
S'Sean Quinlan'
p3259
aS'1956'
p3260
aS'Wing'
p3261
aS'Cork'
p3262
aS'4'
aS'1'
aS'0'
aS'0'
aa(lp3263
S'James Ritchie'
p3264
aS'1956'
p3265
aS'Flanker'
p3266
aS'Northern Ireland'
p3267
aS'2'
aS'0'
aS'0'
aS'0'
aa(lp3268
S'Noel Feddis'
p3269
aS'1956'
p3270
aS'Flanker'
p3271
aS'Dublin'
p3272
aS'1'
aS'0'
aS'0'
aS'0'
aa(lp3273
S'Brendan Guerin'
p3274
aS'1956'
p3275
aS'Lock'
p3276
aS'Waterford'
p3277
aS'1'
aS'1'
aS'0'
aS'0'
aa(lp3278
S'Charlie Lydon'
p3279
aS'1956'
p3280
aS'Flanker'
p3281
aS'Westport'
p3282
aS'1'
aS'1'
aS'0'
aS'0'
aa(lp3283
S'Leo Lynch'
p3284
aS'1956'
p3285
aS'Lock'
p3286
aS'Dublin'
p3287
aS'1'
aS'1'
aS'0'
aS'0'
aa(lp3288
S'Timothy McGrath'
p3289
aS'1956'
p3290
aS'No. 8'
p3291
aS'Cork'
p3292
aS'7'
aS'1'
aS'0'
aS'0'
aa(lp3293
S'Niall Brophy'
p3294
aS'1957'
p3295
aS'Wing'
p3296
aS'Dublin'
p3297
aS'22'
p3298
aS'7'
aS'4'
aS'12'
p3299
aa(lp3300
S"Hubert O'Connor"
p3301
aS'1957'
p3302
aS'Flanker'
p3303
aS'Dublin'
p3304
aS'4'
aS'2'
aS'0'
aS'0'
aa(lp3305
S"Tony O'Sullivan"
p3306
aS'1957'
p3307
aS'No. 8'
p3308
aS'Galway'
p3309
aS'15'
p3310
aS'5'
aS'1'
aS'3'
aa(lp3311
S'James Brennan'
p3312
aS'1957'
p3313
aS'Prop'
p3314
aS'Northern Ireland'
p3315
aS'2'
aS'1'
aS'0'
aS'0'
aa(lp3316
S'Ronnie Dawson'
p3317
aS'1958'
p3318
aS'Hooker'
p3319
aS'Dublin'
p3320
aS'33'
p3321
aS'10'
p3322
aS'2'
aS'6'
aa(lp3323
S'James Donaldson'
p3324
aS'1958'
p3325
aS'Flanker'
p3326
aS'Northern Ireland'
p3327
aS'4'
aS'2'
aS'0'
aS'0'
aa(lp3328
S'Dave Hewitt'
p3329
aS'1958'
p3330
aS'Centre'
p3331
aS'Northern Ireland'
p3332
aS'24'
p3333
aS'8'
aS'2'
aS'32'
p3334
aa(lp3335
S'Bill Mulcahy'
p3336
aS'1958'
p3337
aS'Lock'
p3338
aS'Limerick'
p3339
aS'41'
p3340
aS'12'
p3341
aS'0'
aS'0'
aa(lp3342
S'Noel Murphy'
p3343
aS'1958'
p3344
aS'Flanker'
p3345
aS'Cork'
p3346
aS'49'
p3347
aS'20'
p3348
aS'6'
aS'18'
p3349
aa(lp3350
S'James Stevenson'
p3351
aS'1958'
p3352
aS'Lock'
p3353
aS'Northern Ireland'
p3354
aS'5'
aS'2'
aS'0'
aS'0'
aa(lp3355
S'Michael English'
p3356
aS'1958'
p3357
aS'Fly-half'
p3358
aS'Limerick'
p3359
aS'16'
p3360
aS'3'
aS'0'
aS'9'
aa(lp3361
S'Eric Brown'
p3362
aS'1958'
p3363
aS'Flanker'
p3364
aS'Northern Ireland'
p3365
aS'1'
aS'0'
aS'0'
aS'0'
aa(lp3366
S'Dion Glass'
p3367
aS'1958'
p3368
aS'Centre, Wing'
p3369
aS'Northern Ireland'
p3370
aS'4'
aS'0'
aS'0'
aS'0'
aa(lp3371
S'Syd Millar'
p3372
aS'1958'
p3373
aS'Prop'
p3374
aS'Northern Ireland'
p3375
aS'46'
p3376
aS'14'
p3377
aS'0'
aS'0'
aa(lp3378
S'Gerry Culliton'
p3379
aS'1959'
p3380
aS'Lock'
p3381
aS'Laois'
p3382
aS'19'
p3383
aS'4'
aS'1'
aS'3'
aa(lp3384
S'John Dooley'
p3385
aS'1959'
p3386
aS'Centre'
p3387
aS'Galway'
p3388
aS'3'
aS'1'
aS'1'
aS'3'
aa(lp3389
S'Kevin Flynn'
p3390
aS'1959'
p3391
aS'Centre'
p3392
aS'Dublin'
p3393
aS'22'
p3394
aS'8'
aS'5'
aS'17'
p3395
aa(lp3396
S'Walter Bornemann'
p3397
aS'1960'
p3398
aS'Wing'
p3399
aS''
aS'4'
aS'0'
aS'0'
aS'0'
aa(lp3400
S'Tom Kiernan'
p3401
aS'1960'
p3402
aS'Fullback'
p3403
aS'Cork'
p3404
aS'59'
p3405
aS'23'
p3406
aS'2'
aS'193'
p3407
aa(lp3408
S'Barton McCallan'
p3409
aS'1960'
p3410
aS'Hooker'
p3411
aS'Northern Ireland'
p3412
aS'2'
aS'0'
aS'0'
aS'0'
aa(lp3413
S'Jerry Walsh'
p3414
aS'1960'
p3415
aS'Centre'
p3416
aS'Cork'
p3417
aS'26'
p3418
aS'9'
aS'1'
aS'3'
aa(lp3419
S'Locky Butler'
p3420
aS'1960'
p3421
aS'Hooker'
p3422
aS'Bray'
p3423
aS'1'
aS'0'
aS'0'
aS'0'
aa(lp3424
S'Paddy Costello'
p3425
aS'1960'
p3426
aS'Lock'
p3427
aS'Dublin'
p3428
aS'1'
aS'0'
aS'0'
aS'0'
aa(lp3429
S'William Armstrong'
p3430
aS'1960'
p3431
aS'Fly-half'
p3432
aS'Northern Ireland'
p3433
aS'2'
aS'1'
aS'0'
aS'0'
aa(lp3434
S'Ronald McCarten'
p3435
aS'1961'
p3436
aS'Wing'
p3437
aS'Cumberland'
p3438
aS'3'
aS'1'
aS'0'
aS'0'
aa(lp3439
S'Jonathan Moffett'
p3440
aS'1961'
p3441
aS'Scrum-half'
p3442
aS'Northern Ireland'
p3443
aS'2'
aS'1'
aS'0'
aS'10'
p3444
aa(lp3445
S'Ian Dick'
p3446
aS'1961'
p3447
aS'No. 8'
p3448
aS'Northern Ireland'
p3449
aS'8'
aS'1'
aS'0'
aS'0'
aa(lp3450
S'Thomas Nesdale'
p3451
aS'1961'
p3452
aS'Flanker'
p3453
aS'Cork'
p3454
aS'1'
aS'0'
aS'0'
aS'0'
aa(lp3455
S'Dennis Scott'
p3456
aS'1961'
p3457
aS'Flanker'
p3458
aS'Northern Ireland'
p3459
aS'3'
aS'0'
aS'0'
aS'0'
aa(lp3460
S'Kenneth Houston'
p3461
aS'1961'
p3462
aS'Wing'
p3463
aS'?'
aS'6'
aS'2'
aS'0'
aS'0'
aa(lp3464
S'Jimmy Dick'
p3465
aS'1962'
p3466
aS'Hooker'
p3467
aS'Northern Ireland'
p3468
aS'1'
aS'0'
aS'0'
aS'0'
aa(lp3469
S'Francis Gilpin'
p3470
aS'1962'
p3471
aS'Fullback'
p3472
aS'Northern Ireland'
p3473
aS'3'
aS'0'
aS'0'
aS'0'
aa(lp3474
S'Michael Hipwell'
p3475
aS'1962'
p3476
aS'No. 8'
p3477
aS'Carlow'
p3478
aS'12'
p3479
aS'5'
aS'0'
aS'0'
aa(lp3480
S'Ray Hunter'
p3481
aS'1962'
p3482
aS'Wing'
p3483
aS'Northern Ireland'
p3484
aS'10'
p3485
aS'0'
aS'1'
aS'6'
aa(lp3486
S"Laurence l'Estrange"
p3487
aS'1962'
p3488
aS'Wing'
p3489
aS'Lancs'
p3490
aS'1'
aS'0'
aS'0'
aS'0'
aa(lp3491
S'Willie-John McBride'
p3492
aS'1962'
p3493
aS'Lock'
p3494
aS'Northern Ireland'
p3495
aS'80'
p3496
aS'33'
p3497
aS'2'
aS'7'
aa(lp3498
S'Ray McLoughlin'
p3499
aS'1962'
p3500
aS'Prop'
p3501
aS'Ballinasloe'
p3502
aS'43'
p3503
aS'18'
p3504
aS'2'
aS'7'
aa(lp3505
S'John Quirke'
p3506
aS'1962'
p3507
aS'Scrum-half'
p3508
aS'Dublin'
p3509
aS'3'
aS'1'
aS'0'
aS'0'
aa(lp3510
S'Patrick Turley'
p3511
aS'1962'
p3512
aS'Flanker'
p3513
aS'Co Laois'
p3514
aS'1'
aS'0'
aS'0'
aS'0'
aa(lp3515
S'Gerald Hardy'
p3516
aS'1962'
p3517
aS'Fly-half'
p3518
aS'Co Louth'
p3519
aS'1'
aS'0'
aS'0'
aS'0'
aa(lp3520
S'Noel Byrne'
p3521
aS'1962'
p3522
aS'Wing'
p3523
aS'Co Kildare'
p3524
aS'1'
aS'0'
aS'0'
aS'0'
aa(lp3525
S'James Kelly'
p3526
aS'1962'
p3527
aS'Scrum-half'
p3528
aS'Dublin'
p3529
aS'11'
p3530
aS'2'
aS'0'
aS'0'
aa(lp3531
S'Patrick Dwyer'
p3532
aS'1962'
p3533
aS'Prop'
p3534
aS'Co Galway'
p3535
aS'5'
aS'0'
aS'0'
aS'0'
aa(lp3536
S'Matthew Kiely'
p3537
aS'1962'
p3538
aS'Flanker'
p3539
aS'?'
aS'5'
aS'1'
aS'0'
aS'0'
aa(lp3540
S"Michael O'Callaghan"
p3541
aS'1962'
p3542
aS'Prop'
p3543
aS'?'
aS'3'
aS'1'
aS'0'
aS'0'
aa(lp3544
S'Patrick Casey'
p3545
aS'1963'
p3546
aS'Wing'
p3547
aS'Dublin'
p3548
aS'12'
p3549
aS'4'
aS'3'
aS'9'
aa(lp3550
S'John Murray'
p3551
aS'1963'
p3552
aS'Fly-half'
p3553
aS'Dublin'
p3554
aS'1'
aS'0'
aS'0'
aS'0'
aa(lp3555
S'Eamonn McGuire'
p3556
aS'1963'
p3557
aS'Flanker'
p3558
aS'Galway'
p3559
aS'8'
aS'2'
aS'0'
aS'0'
aa(lp3560
S'Brian Marshall'
p3561
aS'1963'
p3562
aS'Fullback'
p3563
aS'1940'
p3564
aS'1'
aS'0'
aS'0'
aS'0'
aa(lp3565
S'Alan Duggan'
p3566
aS'1963'
p3567
aS'Wing'
p3568
aS'Dublin'
p3569
aS'25'
p3570
aS'14'
p3571
aS'11'
p3572
aS'34'
p3573
aa(lp3574
S'John Fortune'
p3575
aS'1963'
p3576
aS'Wing'
p3577
aS'Dublin'
p3578
aS'2'
aS'1'
aS'1'
aS'3'
aa(lp3579
S'Mike Gibson'
p3580
aS'1964'
p3581
aS'Centre'
p3582
aS'Northern Ireland'
p3583
aS'81'
p3584
aS'31'
p3585
aS'9'
aS'112'
p3586
aa(lp3587
S'Fergus Keogh'
p3588
aS'1964'
p3589
aS'Fullback'
p3590
aS'Dublin'
p3591
aS'2'
aS'0'
aS'0'
aS'6'
aa(lp3592
S'Paddy Lane'
p3593
aS'1964'
p3594
aS'Hooker'
p3595
aS'Co Clare'
p3596
aS'1'
aS'0'
aS'0'
aS'0'
aa(lp3597
S'Mick Leahy'
p3598
aS'1964'
p3599
aS'Lock'
p3600
aS'Co Galway'
p3601
aS'1'
aS'0'
aS'0'
aS'0'
aa(lp3602
S'Al Moroney'
p3603
aS'1964'
p3604
aS'Prop'
p3605
aS'Co Clare'
p3606
aS'3'
aS'1'
aS'0'
aS'0'
aa(lp3607
S'Mick Doyle'
p3608
aS'1965'
p3609
aS'Flanker'
p3610
aS'Castleisland'
p3611
aS'21'
p3612
aS'11'
p3613
aS'2'
aS'6'
aa(lp3614
S'Ken Kennedy'
p3615
aS'1965'
p3616
aS'Hooker'
p3617
aS'Kent'
p3618
aS'49'
p3619
aS'25'
p3620
aS'1'
aS'3'
aa(lp3621
S'Ronnie Lamont'
p3622
aS'1965'
p3623
aS'Flanker'
p3624
aS'Northern Ireland'
p3625
aS'16'
p3626
aS'5'
aS'2'
aS'6'
aa(lp3627
S'Sean MacHale'
p3628
aS'1965'
p3629
aS'Prop'
p3630
aS'Ballina'
p3631
aS'12'
p3632
aS'6'
aS'0'
aS'0'
aa(lp3633
S'Roger Young'
p3634
aS'1965'
p3635
aS'Scrum-half'
p3636
aS'Northern Ireland'
p3637
aS'30'
p3638
aS'15'
p3639
aS'1'
aS'3'
aa(lp3640
S'Paddy McGrath'
p3641
aS'1965'
p3642
aS'Wing'
p3643
aS'Burma'
p3644
aS'10'
p3645
aS'6'
aS'4'
aS'12'
p3646
aa(lp3647
S'Henry Wall'
p3648
aS'1965'
p3649
aS'No. 8'
p3650
aS'Cork'
p3651
aS'2'
aS'1'
aS'0'
aS'0'
aa(lp3652
S'Mick Molloy'
p3653
aS'1966'
p3654
aS'Lock'
p3655
aS'Galway'
p3656
aS'27'
p3657
aS'14'
p3658
aS'2'
aS'6'
aa(lp3659
S'Barry Bresnihan'
p3660
aS'1966'
p3661
aS'Centre'
p3662
aS'Waterford'
p3663
aS'28'
p3664
aS'13'
p3665
aS'5'
aS'15'
p3666
aa(lp3667
S'Aidan Brady'
p3668
aS'1966'
p3669
aS'Hooker'
p3670
aS'Dublin'
p3671
aS'4'
aS'2'
aS'0'
aS'0'
aa(lp3672
S'Oliver Waldron'
p3673
aS'1966'
p3674
aS'Lock'
p3675
aS'Cork'
p3676
aS'3'
aS'2'
aS'0'
aS'0'
aa(lp3677
S'Ken Goodall'
p3678
aS'1967'
p3679
aS'No. 8'
p3680
aS'Leeds'
p3681
aS'19'
p3682
aS'12'
p3683
aS'3'
aS'9'
aa(lp3684
S"Philo O'Callaghan"
p3685
aS'1967'
p3686
aS'Prop'
p3687
aS'Cork'
p3688
aS'21'
p3689
aS'10'
p3690
aS'0'
aS'0'
aa(lp3691
S'Harry Rea'
p3692
aS'1967'
p3693
aS'Centre'
p3694
aS'Northern Ireland'
p3695
aS'2'
aS'2'
aS'0'
aS'0'
aa(lp3696
S'Brendan Sherry'
p3697
aS'1967'
p3698
aS'Scrum-half'
p3699
aS'Cork'
p3700
aS'6'
aS'3'
aS'0'
aS'0'
aa(lp3701
S'Robert Scott'
p3702
aS'1967'
p3703
aS'Wing'
p3704
aS'Northern Ireland'
p3705
aS'5'
aS'1'
aS'0'
aS'0'
aa(lp3706
S'Sam Hutton'
p3707
aS'1967'
p3708
aS'Prop'
p3709
aS'?'
aS'4'
aS'3'
aS'0'
aS'0'
aa(lp3710
S'Terry Moore'
p3711
aS'1967'
p3712
aS'No. 8'
p3713
aS'Cork'
p3714
aS'12'
p3715
aS'5'
aS'1'
aS'4'
aa(lp3716
S'Billy McCombe'
p3717
aS'1968'
p3718
aS'Fly-half'
p3719
aS'Kampala'
p3720
aS'5'
aS'2'
aS'1'
aS'32'
p3721
aa(lp3722
S"Brian O'Brien"
p3723
aS'1968'
p3724
aS'Centre'
p3725
aS'Limerick'
p3726
aS'3'
aS'1'
aS'0'
aS'0'
aa(lp3727
S'Thomas Doyle'
p3728
aS'1968'
p3729
aS'Flanker'
p3730
aS'Castleisland'
p3731
aS'3'
aS'2'
aS'0'
aS'0'
aa(lp3732
S'Laurence Hunter'
p3733
aS'1968'
p3734
aS'Centre'
p3735
aS'Northern Ireland'
p3736
aS'2'
aS'2'
aS'0'
aS'0'
aa(lp3737
S'John Moroney'
p3738
aS'1968'
p3739
aS'Wing'
p3740
aS'Tipperary'
p3741
aS'6'
aS'5'
aS'1'
aS'20'
p3742
aa(lp3743
S'Jim Tydings'
p3744
aS'1968'
p3745
aS'Wing'
p3746
aS'Limerick'
p3747
aS'1'
aS'1'
aS'0'
aS'0'
aa(lp3748
S'James Davidson'
p3749
aS'1969'
p3750
aS'Flanker'
p3751
aS'Northern Ireland'
p3752
aS'6'
aS'3'
aS'0'
aS'0'
aa(lp3753
S'Barry McGann'
p3754
aS'1969'
p3755
aS'Fly-half'
p3756
aS'?'
aS'25'
p3757
aS'11'
p3758
aS'1'
aS'72'
p3759
aa(lp3760
S'Colin Grimshaw'
p3761
aS'1969'
p3762
aS'Scrum-half'
p3763
aS'?'
aS'1'
aS'1'
aS'0'
aS'0'
aa(lp3764
S'William Brown'
p3765
aS'1970'
p3766
aS'Wing'
p3767
aS'Northern Ireland'
p3768
aS'4'
aS'2'
aS'1'
aS'3'
aa(lp3769
S'Eric Campbell'
p3770
aS'1970'
p3771
aS'Lock'
p3772
aS'Co Carlow'
p3773
aS'1'
aS'0'
aS'0'
aS'0'
aa(lp3774
S'Fergus Slattery'
p3775
aS'1970'
p3776
aS'Flanker'
p3777
aS'Dun Laoghaire'
p3778
aS'65'
p3779
aS'27'
p3780
aS'3'
aS'12'
p3781
aa(lp3782
S'Edwin Grant'
p3783
aS'1971'
p3784
aS'Wing'
p3785
aS'Northern Ireland'
p3786
aS'4'
aS'1'
aS'3'
aS'9'
aa(lp3787
S'Denis Hickie'
p3788
aS'1971'
p3789
aS'No. 8'
p3790
aS'Dublin'
p3791
aS'6'
aS'3'
aS'0'
aS'0'
aa(lp3792
S'Sean Lynch'
p3793
aS'1971'
p3794
aS'Prop'
p3795
aS'Dublin'
p3796
aS'21'
p3797
aS'9'
aS'0'
aS'0'
aa(lp3798
S"Barry O'Driscoll"
p3799
aS'1971'
p3800
aS'Fullback'
p3801
aS'Dublin'
p3802
aS'4'
aS'1'
aS'0'
aS'6'
aa(lp3803
S'Con Feighery'
p3804
aS'1972'
p3805
aS'Lock'
p3806
aS'Dublin'
p3807
aS'3'
aS'3'
aS'0'
aS'0'
aa(lp3808
S'Tom Grace'
p3809
aS'1972'
p3810
aS'Wing'
p3811
aS'Dublin'
p3812
aS'25'
p3813
aS'9'
aS'6'
aS'24'
p3814
aa(lp3815
S'Stewart McKinney'
p3816
aS'1972'
p3817
aS'Flanker'
p3818
aS'Northern Ireland'
p3819
aS'25'
p3820
aS'9'
aS'2'
aS'11'
p3821
aa(lp3822
S'Arthur McMaster'
p3823
aS'1972'
p3824
aS'Wing'
p3825
aS'Northern Ireland'
p3826
aS'18'
p3827
aS'8'
aS'2'
aS'8'
aa(lp3828
S'John Moloney'
p3829
aS'1972'
p3830
aS'Scrum-half'
p3831
aS'Limerick'
p3832
aS'27'
p3833
aS'14'
p3834
aS'4'
aS'16'
p3835
aa(lp3836
S'Kevin Mays'
p3837
aS'1973'
p3838
aS'Lock'
p3839
aS'London'
p3840
aS'4'
aS'1'
aS'0'
aS'0'
aa(lp3841
S'James Buckley'
p3842
aS'1973'
p3843
aS'Flanker'
p3844
aS'?'
aS'2'
aS'1'
aS'0'
aS'0'
aa(lp3845
S'Dick Milliken'
p3846
aS'1973'
p3847
aS'Centre'
p3848
aS'Northern Ireland'
p3849
aS'18'
p3850
aS'9'
aS'3'
aS'12'
p3851
aa(lp3852
S'Anthony Ensor'
p3853
aS'1973'
p3854
aS'Fullback'
p3855
aS'Dublin'
p3856
aS'22'
p3857
aS'7'
aS'1'
aS'31'
p3858
aa(lp3859
S'Roger Clegg'
p3860
aS'1973'
p3861
aS'Prop'
p3862
aS'Co Cork'
p3863
aS'5'
aS'3'
aS'0'
aS'0'
aa(lp3864
S'Seamus Dennison'
p3865
aS'1973'
p3866
aS'Wing'
p3867
aS'Limerick'
p3868
aS'3'
aS'2'
aS'1'
aS'4'
aa(lp3869
S'Michael Quinn'
p3870
aS'1973'
p3871
aS'Fly-half'
p3872
aS'Dublin'
p3873
aS'10'
p3874
aS'3'
aS'0'
aS'18'
p3875
aa(lp3876
S'Vincent Becker'
p3877
aS'1974'
p3878
aS'Wing'
p3879
aS'Dublin'
p3880
aS'2'
aS'0'
aS'0'
aS'0'
aa(lp3881
S'Moss Keane'
p3882
aS'1974'
p3883
aS'Lock'
p3884
aS'Co Kerry'
p3885
aS'52'
p3886
aS'17'
p3887
aS'1'
aS'4'
aa(lp3888
S'Patrick Agnew'
p3889
aS'1974'
p3890
aS'Prop'
p3891
aS'Northern Ireland'
p3892
aS'2'
aS'0'
aS'0'
aS'0'
aa(lp3893
S'Shay Deering'
p3894
aS'1974'
p3895
aS'Flanker'
p3896
aS'Dublin'
p3897
aS'8'
aS'1'
aS'0'
aS'0'
aa(lp3898
S'Patrick Lavery'
p3899
aS'1974'
p3900
aS'Centre'
p3901
aS'Cheltenham'
p3902
aS'2'
aS'0'
aS'0'
aS'0'
aa(lp3903
S'Alan Doherty'
p3904
aS'1974'
p3905
aS''
aS'Enniscorthy'
p3906
aS'1'
aS'0'
aS'0'
aS'0'
aa(lp3907
S'James Crowe'
p3908
aS'1974'
p3909
aS'Centre'
p3910
aS'Dublin'
p3911
aS'1'
aS'0'
aS'0'
aS'0'
aa(lp3912
S'Pat Parfrey'
p3913
aS'1974'
p3914
aS'Wing'
p3915
aS'Cork'
p3916
aS'1'
aS'0'
aS'0'
aS'0'
aa(lp3917
S'Willie Duggan'
p3918
aS'1975'
p3919
aS'No. 8'
p3920
aS'Kilkenny'
p3921
aS'45'
p3922
aS'13'
p3923
aS'2'
aS'8'
aa(lp3924
S'Pa Whelan'
p3925
aS'1975'
p3926
aS'Hooker'
p3927
aS'Limerick'
p3928
aS'19'
p3929
aS'3'
aS'0'
aS'0'
aa(lp3930
S'Michael Sherry'
p3931
aS'1975'
p3932
aS'Flanker'
p3933
aS'Co Mayo'
p3934
aS'2'
aS'1'
aS'0'
aS'0'
aa(lp3935
S'Ollie Campbell'
p3936
aS'1976'
p3937
aS'Fly-half'
p3938
aS'Dublin'
p3939
aS'29'
p3940
aS'11'
p3941
aS'1'
aS'243'
p3942
aa(lp3943
S'John Cantrell'
p3944
aS'1976'
p3945
aS'Hooker'
p3946
aS'Limerick'
p3947
aS'9'
aS'1'
aS'0'
aS'0'
aa(lp3948
S'Ian McIlrath'
p3949
aS'1976'
p3950
aS'Centre'
p3951
aS'Northern Ireland'
p3952
aS'5'
aS'0'
aS'0'
aS'0'
aa(lp3953
S'Phelim McLoughlin'
p3954
aS'1976'
p3955
aS'Prop'
p3956
aS'Ballinasloe'
p3957
aS'1'
aS'0'
aS'0'
aS'0'
aa(lp3958
S'John Robbie'
p3959
aS'1976'
p3960
aS'Scrum-half'
p3961
aS'Dublin'
p3962
aS'10'
p3963
aS'1'
aS'0'
aS'9'
aa(lp3964
S'Brendan Foley'
p3965
aS'1976'
p3966
aS'Lock'
p3967
aS'Limerick'
p3968
aS'11'
p3969
aS'2'
aS'0'
aS'0'
aa(lp3970
S'Phil Orr'
p3971
aS'1976'
p3972
aS'Prop'
p3973
aS'Dublin'
p3974
aS'59'
p3975
aS'20'
p3976
aS'0'
aS'0'
aa(lp3977
S'Donal Canniffe'
p3978
aS'1976'
p3979
aS'Scrum-half'
p3980
aS'Mullingar'
p3981
aS'2'
aS'1'
aS'0'
aS'0'
aa(lp3982
S'Ronnie Hakin'
p3983
aS'1976'
p3984
aS'Lock'
p3985
aS'Northern Ireland'
p3986
aS'6'
aS'0'
aS'0'
aS'0'
aa(lp3987
S'Lawrence Moloney'
p3988
aS'1976'
p3989
aS'Fullback'
p3990
aS'Co.Cork'
p3991
aS'4'
aS'1'
aS'0'
aS'0'
aa(lp3992
S'Stephen Blake-Knox'
p3993
aS'1976'
p3994
aS'Wing'
p3995
aS'Dublin'
p3996
aS'3'
aS'1'
aS'0'
aS'0'
aa(lp3997
S'Joseph Brady'
p3998
aS'1976'
p3999
aS'Centre'
p4000
aS'Dublin'
p4001
aS'2'
aS'1'
aS'0'
aS'0'
aa(lp4002
S'Harold Steele'
p4003
aS'1976'
p4004
aS'Lock'
p4005
aS'Northern Ireland'
p4006
aS'10'
p4007
aS'4'
aS'0'
aS'0'
aa(lp4008
S'Christopher McKibbin'
p4009
aS'1976'
p4010
aS''
aS'Northern Ireland'
p4011
aS'1'
aS'0'
aS'0'
aS'0'
aa(lp4012
S'Jimmy Bowen'
p4013
aS'1977'
p4014
aS'Wing'
p4015
aS'Cork'
p4016
aS'3'
aS'0'
aS'0'
aS'0'
aa(lp4017
S'Thomas Feighery'
p4018
aS'1977'
p4019
aS'Prop'
p4020
aS'Dublin'
p4021
aS'2'
aS'0'
aS'0'
aS'0'
aa(lp4022
S'Robbie McGrath'
p4023
aS'1977'
p4024
aS'Scrum-half'
p4025
aS'Dublin'
p4026
aS'16'
p4027
aS'6'
aS'1'
aS'4'
aa(lp4028
S'Alistair McKibbin'
p4029
aS'1977'
p4030
aS'Centre'
p4031
aS'Northern Ireland'
p4032
aS'14'
p4033
aS'3'
aS'0'
aS'0'
aa(lp4034
S'Frank Wilson'
p4035
aS'1977'
p4036
aS'Fullback'
p4037
aS'Northern Ireland'
p4038
aS'3'
aS'0'
aS'0'
aS'0'
aa(lp4039
S'Ned Byrne'
p4040
aS'1977'
p4041
aS'Prop'
p4042
aS'Kilkenny'
p4043
aS'6'
aS'0'
aS'0'
aS'0'
aa(lp4044
S'Charles Murtagh'
p4045
aS'1977'
p4046
aS'Lock'
p4047
aS'Northern Ireland'
p4048
aS'1'
aS'0'
aS'0'
aS'0'
aa(lp4049
S'Raymond Finn'
p4050
aS'1977'
p4051
aS'Centre'
p4052
aS'Dublin'
p4053
aS'1'
aS'0'
aS'0'
aS'0'
aa(lp4054
S'Freddie McLennan'
p4055
aS'1977'
p4056
aS'Wing'
p4057
aS'Dublin'
p4058
aS'18'
p4059
aS'2'
aS'4'
aS'16'
p4060
aa(lp4061
S'Mick Fitzpatrick'
p4062
aS'1978'
p4063
aS'Prop'
p4064
aS'Dublin'
p4065
aS'10'
p4066
aS'3'
aS'0'
aS'0'
aa(lp4067
S'Paul McNaughton'
p4068
aS'1978'
p4069
aS'Centre'
p4070
aS'Bray'
p4071
aS'15'
p4072
aS'6'
aS'0'
aS'0'
aa(lp4073
S"John O'Driscoll"
p4074
aS'1978'
p4075
aS'Flanker'
p4076
aS'Dublin'
p4077
aS'32'
p4078
aS'12'
p4079
aS'3'
aS'12'
p4080
aa(lp4081
S'Donal Spring'
p4082
aS'1978'
p4083
aS'Lock'
p4084
aS'Tralee'
p4085
aS'7'
aS'3'
aS'0'
aS'0'
aa(lp4086
S'Tony Ward'
p4087
aS'1978'
p4088
aS'Fly-half'
p4089
aS'Dublin'
p4090
aS'20'
p4091
aS'5'
aS'0'
aS'131'
p4092
aa(lp4093
S'Terry Kennedy'
p4094
aS'1978'
p4095
aS'Wing'
p4096
aS'Dublin'
p4097
aS'13'
p4098
aS'5'
aS'1'
aS'4'
aa(lp4099
S'Colin Patterson'
p4100
aS'1978'
p4101
aS'Scrum-half'
p4102
aS'Northern Ireland'
p4103
aS'14'
p4104
aS'5'
aS'5'
aS'20'
p4105
aa(lp4106
S'Michael Gibson'
p4107
aS'1979'
p4108
aS'No. 8'
p4109
aS'Dublin'
p4110
aS'10'
p4111
aS'3'
aS'0'
aS'0'
aa(lp4112
S'Ginger McLoughlin'
p4113
aS'1979'
p4114
aS'Prop'
p4115
aS'Limerick'
p4116
aS'18'
p4117
aS'9'
aS'1'
aS'4'
aa(lp4118
S'Dick Spring'
p4119
aS'1979'
p4120
aS'Fullback'
p4121
aS'Tralee'
p4122
aS'3'
aS'1'
aS'0'
aS'0'
aa(lp4123
S'Colm Tucker'
p4124
aS'1979'
p4125
aS'Flanker'
p4126
aS'Limerick'
p4127
aS'5'
aS'1'
aS'0'
aS'0'
aa(lp4128
S'Moss Finn'
p4129
aS'1979'
p4130
aS'Wing'
p4131
aS'Cork'
p4132
aS'14'
p4133
aS'7'
aS'4'
aS'16'
p4134
aa(lp4135
S'Ron Elliott'
p4136
aS'1979'
p4137
aS'Fullback'
p4138
aS'Down'
p4139
aS'1'
aS'0'
aS'0'
aS'0'
aa(lp4140
S'Ciaran Fitzgerald'
p4141
aS'1979'
p4142
aS'Hooker'
p4143
aS'Galway'
p4144
aS'29'
p4145
aS'13'
p4146
aS'1'
aS'4'
aa(lp4147
S"Rodney O'Donnell"
p4148
aS'1979'
p4149
aS'Fullback'
p4150
aS'Dublin'
p4151
aS'6'
aS'4'
aS'0'
aS'0'
aa(lp4152
S'Frank Ennis'
p4153
aS'1979'
p4154
aS'Fullback'
p4155
aS'Dublin'
p4156
aS'1'
aS'1'
aS'0'
aS'0'
aa(lp4157
S'James Glennon'
p4158
aS'1980'
p4159
aS'Lock'
p4160
aS'Dublin'
p4161
aS'7'
aS'3'
aS'0'
aS'0'
aa(lp4162
S"Kevin O'Brien"
p4163
aS'1980'
p4164
aS'Fullback'
p4165
aS'Manchester'
p4166
aS'3'
aS'0'
aS'1'
aS'4'
aa(lp4167
S'Ian Burns'
p4168
aS'1980'
p4169
aS'Fly-half'
p4170
aS'Dublin'
p4171
aS'1'
aS'0'
aS'0'
aS'0'
aa(lp4172
S'David Irwin'
p4173
aS'1980'
p4174
aS'Centre'
p4175
aS'Northern Ireland'
p4176
aS'28'
p4177
aS'7'
aS'2'
aS'8'
aa(lp4178
S'Hugo MacNeill'
p4179
aS'1981'
p4180
aS'Fullback'
p4181
aS'Dublin'
p4182
aS'40'
p4183
aS'15'
p4184
aS'10'
p4185
aS'46'
p4186
aa(lp4187
S'Francis Quinn'
p4188
aS'1981'
p4189
aS'Wing'
p4190
aS'Dublin'
p4191
aS'3'
aS'0'
aS'0'
aS'0'
aa(lp4192
S'Kenneth Hooks'
p4193
aS'1981'
p4194
aS'Wing'
p4195
aS'Northern Ireland'
p4196
aS'6'
aS'2'
aS'1'
aS'4'
aa(lp4197
S'Paul Dean'
p4198
aS'1981'
p4199
aS'Fly-half'
p4200
aS'Dublin'
p4201
aS'32'
p4202
aS'13'
p4203
aS'4'
aS'19'
p4204
aa(lp4205
S'Jerry Holland'
p4206
aS'1981'
p4207
aS'Lock'
p4208
aS'Cork'
p4209
aS'3'
aS'0'
aS'0'
aS'0'
aa(lp4210
S'John Murphy'
p4211
aS'1981'
p4212
aS'Fullback'
p4213
aS'Bray'
p4214
aS'3'
aS'1'
aS'0'
aS'5'
aa(lp4215
S'John Hewitt'
p4216
aS'1981'
p4217
aS'Fullback, Wing'
p4218
aS'Northern Ireland'
p4219
aS'2'
aS'0'
aS'0'
aS'0'
aa(lp4220
S'Donal Lenihan'
p4221
aS'1981'
p4222
aS'Lock'
p4223
aS'Cork'
p4224
aS'52'
p4225
aS'21'
p4226
aS'1'
aS'4'
aa(lp4227
S'Trevor Ringland'
p4228
aS'1981'
p4229
aS'Wing'
p4230
aS'Northern Ireland'
p4231
aS'35'
p4232
aS'14'
p4233
aS'9'
aS'36'
p4234
aa(lp4235
S'Michael Kiernan'
p4236
aS'1982'
p4237
aS'Centre'
p4238
aS'Cork'
p4239
aS'46'
p4240
aS'18'
p4241
aS'6'
aS'308'
p4242
aa(lp4243
S'Keith Crossan'
p4244
aS'1982'
p4245
aS'Wing'
p4246
aS'Northern Ireland'
p4247
aS'41'
p4248
aS'17'
p4249
aS'12'
p4250
aS'48'
p4251
aa(lp4252
S'Ronan Kearney'
p4253
aS'1982'
p4254
aS'Flanker'
p4255
aS'Kilkenny'
p4256
aS'4'
aS'0'
aS'0'
aS'0'
aa(lp4257
S'Rory Moroney'
p4258
aS'1984'
p4259
aS'Centre'
p4260
aS'Clonmel'
p4261
aS'3'
aS'0'
aS'0'
aS'0'
aa(lp4262
S'William Duncan'
p4263
aS'1984'
p4264
aS'Flanker'
p4265
aS'Northern Ireland'
p4266
aS'2'
aS'0'
aS'0'
aS'0'
aa(lp4267
S'JJ McCoy'
p4268
aS'1984'
p4269
aS'Prop'
p4270
aS'Northern Ireland'
p4271
aS'16'
p4272
aS'7'
aS'0'
aS'0'
aa(lp4273
S'Harry Harbison'
p4274
aS'1984'
p4275
aS'Hooker'
p4276
aS'Dublin'
p4277
aS'8'
aS'3'
aS'0'
aS'0'
aa(lp4278
S'Tony Doyle'
p4279
aS'1984'
p4280
aS'Scrum-half'
p4281
aS'Dublin'
p4282
aS'2'
aS'0'
aS'0'
aS'0'
aa(lp4283
S'Des Fitzgerald'
p4284
aS'1984'
p4285
aS'Prop'
p4286
aS'Dublin'
p4287
aS'34'
p4288
aS'8'
aS'0'
aS'0'
aa(lp4289
S'Derek McGrath'
p4290
aS'1984'
p4291
aS'Flanker'
p4292
aS'Dublin'
p4293
aS'5'
aS'2'
aS'0'
aS'0'
aa(lp4294
S'Hugh Condon'
p4295
aS'1984'
p4296
aS'Centre, Fly-half'
p4297
aS'Leamington Spa'
p4298
aS'1'
aS'0'
aS'0'
aS'0'
aa(lp4299
S'Willie Anderson'
p4300
aS'1984'
p4301
aS'Lock'
p4302
aS'Northern Ireland'
p4303
aS'27'
p4304
aS'10'
p4305
aS'1'
aS'4'
aa(lp4306
S'Michael Bradley'
p4307
aS'1984'
p4308
aS'Scrum-half'
p4309
aS'Cork'
p4310
aS'40'
p4311
aS'15'
p4312
aS'5'
aS'21'
p4313
aa(lp4314
S'Philip Matthews'
p4315
aS'1984'
p4316
aS'Flanker'
p4317
aS'Gloucester'
p4318
aS'38'
p4319
aS'12'
p4320
aS'4'
aS'16'
p4321
aa(lp4322
S'Brendan Mullin'
p4323
aS'1984'
p4324
aS'Centre'
p4325
aS'Jerusalem'
p4326
aS'56'
p4327
aS'19'
p4328
aS'17'
p4329
aS'72'
p4330
aa(lp4331
S'William Sexton'
p4332
aS'1984'
p4333
aS'Flanker'
p4334
aS'?'
aS'3'
aS'1'
aS'0'
aS'0'
aa(lp4335
S'Nigel Carr'
p4336
aS'1985'
p4337
aS'Flanker'
p4338
aS'Northern Ireland'
p4339
aS'11'
p4340
aS'6'
aS'0'
aS'0'
aa(lp4341
S'Brian Spillane'
p4342
aS'1985'
p4343
aS'No. 8'
p4344
aS'Cork'
p4345
aS'13'
p4346
aS'5'
aS'1'
aS'4'
aa(lp4347
S'Brian McCall'
p4348
aS'1985'
p4349
aS'Lock'
p4350
aS'Northern Ireland'
p4351
aS'3'
aS'0'
aS'1'
aS'4'
aa(lp4352
S'Robert Morrow'
p4353
aS'1986'
p4354
aS'Flanker'
p4355
aS'?'
aS'3'
aS'0'
aS'0'
aS'0'
aa(lp4356
S'Paul Kennedy'
p4357
aS'1986'
p4358
aS'Prop'
p4359
aS'?'
aS'2'
aS'0'
aS'0'
aS'0'
aa(lp4360
S'Ralph Keyes'
p4361
aS'1986'
p4362
aS'Fly-half'
p4363
aS'Cork'
p4364
aS'8'
aS'2'
aS'1'
aS'94'
p4365
aa(lp4366
S'Terry Kingston'
p4367
aS'1987'
p4368
aS'Hooker'
p4369
aS'Cork'
p4370
aS'30'
p4371
aS'14'
p4372
aS'2'
aS'8'
aa(lp4373
S'Paul Collins'
p4374
aS'1987'
p4375
aS'Flanker'
p4376
aS'Cork'
p4377
aS'2'
aS'1'
aS'0'
aS'0'
aa(lp4378
S'John McDonald'
p4379
aS'1987'
p4380
aS'Hooker'
p4381
aS'Northern Ireland'
p4382
aS'4'
aS'2'
aS'0'
aS'0'
aa(lp4383
S'Neil Francis'
p4384
aS'1987'
p4385
aS'Lock'
p4386
aS'Dublin'
p4387
aS'36'
p4388
aS'13'
p4389
aS'4'
aS'19'
p4390
aa(lp4391
S'Job Langbroek'
p4392
aS'1987'
p4393
aS'Prop'
p4394
aS'?'
aS'1'
aS'1'
aS'0'
aS'0'
aa(lp4395
S'Phil Danaher'
p4396
aS'1988'
p4397
aS'Centre'
p4398
aS'Limerick'
p4399
aS'28'
p4400
aS'9'
aS'0'
aS'6'
aa(lp4401
S'John Fitzgerald'
p4402
aS'1988'
p4403
aS'Prop'
p4404
aS'London'
p4405
aS'12'
p4406
aS'3'
aS'1'
aS'4'
aa(lp4407
S'Don Whittle'
p4408
aS'1988'
p4409
aS'Flanker'
p4410
aS'Northern Ireland'
p4411
aS'1'
aS'0'
aS'0'
aS'0'
aa(lp4412
S'Tom Clancy'
p4413
aS'1988'
p4414
aS'Prop'
p4415
aS'Dublin'
p4416
aS'9'
aS'3'
aS'0'
aS'0'
aa(lp4417
S'Denis McBride'
p4418
aS'1988'
p4419
aS'Flanker'
p4420
aS'Northern Ireland'
p4421
aS'32'
p4422
aS'12'
p4423
aS'4'
aS'18'
p4424
aa(lp4425
S'Michael Moylett'
p4426
aS'1988'
p4427
aS'Lock'
p4428
aS'Dublin'
p4429
aS'1'
aS'0'
aS'0'
aS'0'
aa(lp4430
S'Fergus Aherne'
p4431
aS'1988'
p4432
aS'Scrum-half'
p4433
aS'Cork'
p4434
aS'16'
p4435
aS'4'
aS'1'
aS'4'
aa(lp4436
S'Vince Cunningham'
p4437
aS'1988'
p4438
aS'Centre'
p4439
aS'Dublin'
p4440
aS'16'
p4441
aS'7'
aS'3'
aS'14'
p4442
aa(lp4443
S'John Sexton'
p4444
aS'1988'
p4445
aS'Wing'
p4446
aS'Dublin'
p4447
aS'4'
aS'2'
aS'1'
aS'7'
aa(lp4448
S'Steve Smith'
p4449
aS'1988'
p4450
aS'Hooker'
p4451
aS'Northern Ireland'
p4452
aS'25'
p4453
aS'4'
aS'2'
aS'8'
aa(lp4454
S'Noel Mannion'
p4455
aS'1988'
p4456
aS'No. 8'
p4457
aS'Ballinasloe'
p4458
aS'16'
p4459
aS'6'
aS'3'
aS'12'
p4460
aa(lp4461
S"Pat O'Hara"
p4462
aS'1988'
p4463
aS'Flanker'
p4464
aS'Essex'
p4465
aS'15'
p4466
aS'7'
aS'1'
aS'4'
aa(lp4467
S'Fergus Dunlea'
p4468
aS'1989'
p4469
aS'Fullback'
p4470
aS'Dublin'
p4471
aS'3'
aS'1'
aS'1'
aS'4'
aa(lp4472
S'Paul Haycock'
p4473
aS'1989'
p4474
aS'Wing'
p4475
aS'Dublin'
p4476
aS'1'
aS'0'
aS'0'
aS'0'
aa(lp4477
S'Nick Popplewell'
p4478
aS'1989'
p4479
aS'Prop'
p4480
aS'Dublin'
p4481
aS'51'
p4482
aS'16'
p4483
aS'3'
aS'13'
p4484
aa(lp4485
S'Philip Rainey'
p4486
aS'1989'
p4487
aS'Fullback'
p4488
aS'Northern Ireland'
p4489
aS'1'
aS'0'
aS'0'
aS'0'
aa(lp4490
S'Brian Smith'
p4491
aS'1987'
p4492
aS'Scrum-half'
p4493
aS'St George'
p4494
aS'15'
p4495
aS'6'
aS'4'
aS'52'
p4496
aa(lp4497
S'Gary Halpin'
p4498
aS'1990'
p4499
aS'Prop'
p4500
aS'Dublin'
p4501
aS'11'
p4502
aS'3'
aS'1'
aS'5'
aa(lp4503
S'Kenny Murphy'
p4504
aS'1990'
p4505
aS'Fullback'
p4506
aS'Cork'
p4507
aS'11'
p4508
aS'2'
aS'0'
aS'0'
aa(lp4509
S'Peter Russell'
p4510
aS'1990'
p4511
aS'Fly-half'
p4512
aS'Northern Ireland'
p4513
aS'4'
aS'0'
aS'0'
aS'23'
p4514
aa(lp4515
S'Paddy Johns'
p4516
aS'1990'
p4517
aS'Lock'
p4518
aS'Northern Ireland'
p4519
aS'59'
p4520
aS'22'
p4521
aS'4'
aS'20'
p4522
aa(lp4523
S'Philip Lawlor'
p4524
aS'1990'
p4525
aS'No. 8'
p4526
aS'Kildare'
p4527
aS'3'
aS'1'
aS'0'
aS'0'
aa(lp4528
S'Alain Rolland'
p4529
aS'1990'
p4530
aS'Scrum-half'
p4531
aS'Dublin'
p4532
aS'3'
aS'2'
aS'0'
aS'0'
aa(lp4533
S'Mick Galwey'
p4534
aS'1991'
p4535
aS'Lock'
p4536
aS'Co Kerry'
p4537
aS'41'
p4538
aS'18'
p4539
aS'3'
aS'15'
p4540
aa(lp4541
S'Simon Geoghegan'
p4542
aS'1991'
p4543
aS'Wing'
p4544
aS'Knebworth'
p4545
aS'37'
p4546
aS'12'
p4547
aS'11'
p4548
aS'51'
p4549
aa(lp4550
S'Gordon Hamilton'
p4551
aS'1991'
p4552
aS'Flanker'
p4553
aS'Northern Ireland'
p4554
aS'10'
p4555
aS'2'
aS'1'
aS'4'
aa(lp4556
S'Brian Rigney'
p4557
aS'1991'
p4558
aS'Lock'
p4559
aS'Portlaoise'
p4560
aS'8'
aS'0'
aS'0'
aS'0'
aa(lp4561
S'Brian Robinson'
p4562
aS'1991'
p4563
aS'No. 8'
p4564
aS'Northern Ireland'
p4565
aS'25'
p4566
aS'5'
aS'6'
aS'25'
p4567
aa(lp4568
S'Rob Saunders'
p4569
aS'1991'
p4570
aS'Scrum-half'
p4571
aS'Nottingham'
p4572
aS'12'
p4573
aS'2'
aS'0'
aS'0'
aa(lp4574
S'Jack Clarke'
p4575
aS'1991'
p4576
aS'Wing'
p4577
aS'Kisumu'
p4578
aS'6'
aS'1'
aS'1'
aS'4'
aa(lp4579
S'David Curtis'
p4580
aS'1991'
p4581
aS'Centre'
p4582
aS'South Rhodesia'
p4583
aS'13'
p4584
aS'2'
aS'1'
aS'7'
aa(lp4585
S'Jim Staples'
p4586
aS'1991'
p4587
aS'Fullback'
p4588
aS'Bermondsey'
p4589
aS'26'
p4590
aS'6'
aS'5'
aS'25'
p4591
aa(lp4592
S'Richard Wallace'
p4593
aS'1991'
p4594
aS'Wing'
p4595
aS'Cork'
p4596
aS'29'
p4597
aS'9'
aS'5'
aS'23'
p4598
aa(lp4599
S'Nicky Barry'
p4600
aS'1991'
p4601
aS'Fly-half'
p4602
aS'Limerick'
p4603
aS'1'
aS'0'
aS'0'
aS'0'
aa(lp4604
S'Michael Fitzgibbon'
p4605
aS'1992'
p4606
aS'Flanker'
p4607
aS'Limerick'
p4608
aS'6'
aS'0'
aS'0'
aS'0'
aa(lp4609
S'Paul Hogan'
p4610
aS'1992'
p4611
aS'Flanker'
p4612
aS'Limerick'
p4613
aS'1'
aS'0'
aS'0'
aS'0'
aa(lp4614
S'Derek McAleese'
p4615
aS'1992'
p4616
aS'Fly-half'
p4617
aS'Northern Ireland'
p4618
aS'1'
aS'0'
aS'0'
aS'12'
p4619
aa(lp4620
S'Ronald Carey'
p4621
aS'1992'
p4622
aS'Wing'
p4623
aS'Northern Ireland'
p4624
aS'2'
aS'0'
aS'0'
aS'0'
aa(lp4625
S'Neville Furlong'
p4626
aS'1992'
p4627
aS'Wing'
p4628
aS'Waterford'
p4629
aS'2'
aS'0'
aS'1'
aS'4'
aa(lp4630
S'Kelvin Leahy'
p4631
aS'1992'
p4632
aS'Flanker'
p4633
aS'Cork'
p4634
aS'1'
aS'0'
aS'0'
aS'0'
aa(lp4635
S'Paul McCarthy'
p4636
aS'1992'
p4637
aS'Prop'
p4638
aS'Cork'
p4639
aS'5'
aS'1'
aS'0'
aS'0'
aa(lp4640
S'Mark McCall'
p4641
aS'1992'
p4642
aS'Centre'
p4643
aS'Northern Ireland'
p4644
aS'13'
p4645
aS'1'
aS'0'
aS'0'
aa(lp4646
S'Paddy Kenny'
p4647
aS'1992'
p4648
aS'Flanker'
p4649
aS'Philippine'
p4650
aS'1'
aS'0'
aS'0'
aS'0'
aa(lp4651
S'John Murphy'
p4652
aS'1992'
p4653
aS'Hooker'
p4654
aS'Dublin'
p4655
aS'1'
aS'0'
aS'0'
aS'0'
aa(lp4656
S'Richard Costello'
p4657
aS'1993'
p4658
aS'Lock'
p4659
aS'Limerick'
p4660
aS'1'
aS'0'
aS'0'
aS'0'
aa(lp4661
S'Niall Malone'
p4662
aS'1993'
p4663
aS'Fullback, Centre, Fly-half'
p4664
aS'Leeds'
p4665
aS'3'
aS'1'
aS'0'
aS'9'
aa(lp4666
S'Colin Wilkinson'
p4667
aS'1993'
p4668
aS'Fullback'
p4669
aS'Northern Ireland'
p4670
aS'1'
aS'0'
aS'0'
aS'0'
aa(lp4671
S'Ciaran Clarke'
p4672
aS'1993'
p4673
aS'Fullback'
p4674
aS'Dublin'
p4675
aS'5'
aS'2'
aS'0'
aS'3'
aa(lp4676
S'Peter Clohessy'
p4677
aS'1993'
p4678
aS'Prop'
p4679
aS'Limerick'
p4680
aS'54'
p4681
aS'24'
p4682
aS'4'
aS'20'
p4683
aa(lp4684
S'Brian Glennon'
p4685
aS'1993'
p4686
aS'Centre'
p4687
aS'?'
aS'1'
aS'0'
aS'0'
aS'0'
aa(lp4688
S'Eric Elwood'
p4689
aS'1993'
p4690
aS'Fly-half'
p4691
aS'Galway'
p4692
aS'35'
p4693
aS'15'
p4694
aS'0'
aS'296'
p4695
aa(lp4696
S"Conor O'Shea"
p4697
aS'1993'
p4698
aS'Fullback'
p4699
aS'Limerick'
p4700
aS'35'
p4701
aS'12'
p4702
aS'6'
aS'44'
p4703
aa(lp4704
S"Ken O'Connell"
p4705
aS'1994'
p4706
aS'Flanker'
p4707
aS'Cork'
p4708
aS'2'
aS'1'
aS'0'
aS'0'
aa(lp4709
S'Maurice Field'
p4710
aS'1994'
p4711
aS'Centre'
p4712
aS'Northern Ireland'
p4713
aS'17'
p4714
aS'6'
aS'0'
aS'0'
aa(lp4715
S'Jonathan Bell'
p4716
aS'1994'
p4717
aS'Centre'
p4718
aS'Northern Ireland'
p4719
aS'36'
p4720
aS'16'
p4721
aS'8'
aS'40'
p4722
aa(lp4723
S'David Corkery'
p4724
aS'1994'
p4725
aS'Flanker'
p4726
aS'Cork'
p4727
aS'27'
p4728
aS'7'
aS'3'
aS'15'
p4729
aa(lp4730
S'Keith Wood'
p4731
aS'1994'
p4732
aS'Hooker'
p4733
aS'Limerick'
p4734
aS'63'
p4735
aS'26'
p4736
aS'15'
p4737
aS'75'
p4738
aa(lp4739
S'Niall Woods'
p4740
aS'1994'
p4741
aS'Wing'
p4742
aS'Dublin'
p4743
aS'8'
aS'2'
aS'1'
aS'5'
aa(lp4744
S'Gabriel Fulcher'
p4745
aS'1994'
p4746
aS'Lock'
p4747
aS'Aldershot'
p4748
aS'20'
p4749
aS'7'
aS'1'
aS'5'
aa(lp4750
S'Alan McGowan'
p4751
aS'1994'
p4752
aS'Fly-half'
p4753
aS'Dublin'
p4754
aS'1'
aS'1'
aS'0'
aS'13'
p4755
aa(lp4756
S'Paul Burke'
p4757
aS'1995'
p4758
aS'Fly-half'
p4759
aS'Paddington'
p4760
aS'13'
p4761
aS'7'
aS'0'
aS'108'
p4762
aa(lp4763
S'Anthony Foley'
p4764
aS'1995'
p4765
aS'Back-row'
p4766
aS'Limerick'
p4767
aS'62'
p4768
aS'37'
p4769
aS'5'
aS'25'
p4770
aa(lp4771
S'Niall Hogan'
p4772
aS'1995'
p4773
aS'Scrum-half'
p4774
aS'Dublin'
p4775
aS'13'
p4776
aS'5'
aS'1'
aS'5'
aa(lp4777
S'Ben Cronin'
p4778
aS'1995'
p4779
aS'Back-row'
p4780
aS'Limerick'
p4781
aS'2'
aS'0'
aS'0'
aS'0'
aa(lp4782
S'Eddie Halvey'
p4783
aS'1995'
p4784
aS'Flanker'
p4785
aS'Limerick'
p4786
aS'8'
aS'4'
aS'2'
aS'10'
p4787
aa(lp4788
S'Davy Tweed'
p4789
aS'1995'
p4790
aS'Lock'
p4791
aS'Northern Ireland'
p4792
aS'4'
aS'2'
aS'0'
aS'0'
aa(lp4793
S"David O'Mahony"
p4794
aS'1995'
p4795
aS'Scrum-half'
p4796
aS'Derry'
p4797
aS'1'
aS'0'
aS'0'
aS'0'
aa(lp4798
S"Darragh O'Mahony"
p4799
aS'1995'
p4800
aS'Wing'
p4801
aS'Cork'
p4802
aS'4'
aS'1'
aS'1'
aS'5'
aa(lp4803
S'Paul Wallace'
p4804
aS'1995'
p4805
aS'Prop'
p4806
aS'Cork'
p4807
aS'48'
p4808
aS'21'
p4809
aS'5'
aS'25'
p4810
aa(lp4811
S'Jeremy Davidson'
p4812
aS'1995'
p4813
aS'Lock'
p4814
aS'Northern Ireland'
p4815
aS'35'
p4816
aS'15'
p4817
aS'0'
aS'0'
aa(lp4818
S'Chris Saverimutto'
p4819
aS'1995'
p4820
aS'Scrum-half'
p4821
aS'Wallasey'
p4822
aS'3'
aS'2'
aS'0'
aS'0'
aa(lp4823
S'Allen Clarke'
p4824
aS'1995'
p4825
aS'Hooker'
p4826
aS'Northern Ireland'
p4827
aS'8'
aS'4'
aS'0'
aS'0'
aa(lp4828
S'Henry Hurley'
p4829
aS'1995'
p4830
aS'Prop'
p4831
aS'Doncaster'
p4832
aS'2'
aS'1'
aS'0'
aS'0'
aa(lp4833
S'Sean McCahill'
p4834
aS'1995'
p4835
aS'Centre'
p4836
aS'Auckland'
p4837
aS'1'
aS'1'
aS'0'
aS'0'
aa(lp4838
S'Victor Costello'
p4839
aS'1996'
p4840
aS'Back-row'
p4841
aS'Stepaside'
p4842
aS'39'
p4843
aS'20'
p4844
aS'4'
aS'20'
p4845
aa(lp4846
S'Kurt McQuilkin'
p4847
aS'1996'
p4848
aS'Centre'
p4849
aS'Tekuiti'
p4850
aS'5'
aS'1'
aS'0'
aS'0'
aa(lp4851
S'David Humphreys'
p4852
aS'1996'
p4853
aS'Fly-half'
p4854
aS'Northern Ireland'
p4855
aS'72'
p4856
aS'37'
p4857
aS'6'
aS'560'
p4858
aa(lp4859
S'Simon Mason'
p4860
aS'1996'
p4861
aS'Fullback'
p4862
aS'Wirral'
p4863
aS'3'
aS'1'
aS'0'
aS'42'
p4864
aa(lp4865
S'Rob Henderson'
p4866
aS'1996'
p4867
aS'Centre'
p4868
aS'Dover'
p4869
aS'32'
p4870
aS'16'
p4871
aS'6'
aS'30'
p4872
aa(lp4873
S'James Topping'
p4874
aS'1996'
p4875
aS'Wing'
p4876
aS'Northern Ireland'
p4877
aS'8'
aS'2'
aS'1'
aS'5'
aa(lp4878
S'Dominic Crotty'
p4879
aS'1996'
p4880
aS'Fullback'
p4881
aS'Cork'
p4882
aS'5'
aS'1'
aS'0'
aS'0'
aa(lp4883
S'Stephen McIvor'
p4884
aS'1996'
p4885
aS'Scrum-half'
p4886
aS'Dublin'
p4887
aS'3'
aS'0'
aS'0'
aS'0'
aa(lp4888
S'Eric Miller'
p4889
aS'1997'
p4890
aS'Back-row'
p4891
aS'Dublin'
p4892
aS'49'
p4893
aS'29'
p4894
aS'6'
aS'30'
p4895
aa(lp4896
S'Paul Flavin'
p4897
aS'1997'
p4898
aS'Prop'
p4899
aS'Dublin'
p4900
aS'2'
aS'0'
aS'0'
aS'0'
aa(lp4901
S'Denis Hickie'
p4902
aS'1997'
p4903
aS'Wing'
p4904
aS'Dublin'
p4905
aS'63'
p4906
aS'40'
p4907
aS'29'
p4908
aS'145'
p4909
aa(lp4910
S'Ross Nesdale'
p4911
aS'1997'
p4912
aS'Hooker'
p4913
aS'Feilding'
p4914
aS'13'
p4915
aS'6'
aS'0'
aS'0'
aa(lp4916
S"Brian O'Meara"
p4917
aS'1997'
p4918
aS'Scrum-half'
p4919
aS'Cork'
p4920
aS'9'
aS'5'
aS'0'
aS'0'
aa(lp4921
S'Kieron Dawson'
p4922
aS'1997'
p4923
aS'Flanker'
p4924
aS'Northern Ireland'
p4925
aS'21'
p4926
aS'14'
p4927
aS'2'
aS'10'
p4928
aa(lp4929
S'Conor McGuinness'
p4930
aS'1997'
p4931
aS'Scrum-half'
p4932
aS'Dublin'
p4933
aS'14'
p4934
aS'4'
aS'1'
aS'5'
aa(lp4935
S'John McWeeney'
p4936
aS'1997'
p4937
aS'Wing'
p4938
aS'Dublin'
p4939
aS'1'
aS'0'
aS'0'
aS'0'
aa(lp4940
S'Kevin Nowlan'
p4941
aS'1997'
p4942
aS'Fullback'
p4943
aS'Dublin'
p4944
aS'3'
aS'1'
aS'2'
aS'10'
p4945
aa(lp4946
S"Malcolm O'Kelly"
p4947
aS'1997'
p4948
aS'Lock'
p4949
aS'Chelmsford'
p4950
aS'92'
p4951
aS'51'
p4952
aS'8'
aS'40'
p4953
aa(lp4954
S'David Erskine'
p4955
aS'1997'
p4956
aS'Lock, Flanker'
p4957
aS'Waltham Forest'
p4958
aS'3'
aS'1'
aS'0'
aS'0'
aa(lp4959
S'Kevin Maggs'
p4960
aS'1997'
p4961
aS'Centre'
p4962
aS'Bristol'
p4963
aS'70'
p4964
aS'39'
p4965
aS'15'
p4966
aS'75'
p4967
aa(lp4968
S'Reggie Corrigan'
p4969
aS'1997'
p4970
aS'Prop'
p4971
aS'Dublin'
p4972
aS'47'
p4973
aS'27'
p4974
aS'0'
aS'0'
aa(lp4975
S"Dylan O'Grady"
p4976
aS'1997'
p4977
aS'Flanker'
p4978
aS'Manchester'
p4979
aS'1'
aS'0'
aS'0'
aS'0'
aa(lp4980
S'Andy Ward'
p4981
aS'1998'
p4982
aS'Flanker'
p4983
aS'Whangarei'
p4984
aS'28'
p4985
aS'12'
p4986
aS'3'
aS'15'
p4987
aa(lp4988
S'Killian Keane'
p4989
aS'1998'
p4990
aS'Centre'
p4991
aS'Drogheda'
p4992
aS'1'
aS'0'
aS'0'
aS'0'
aa(lp4993
S'Justin Bishop'
p4994
aS'1998'
p4995
aS'Wing'
p4996
aS'Sussex'
p4997
aS'25'
p4998
aS'9'
aS'8'
aS'40'
p4999
aa(lp5000
S'Justin Fitzpatrick'
p5001
aS'1998'
p5002
aS'Prop'
p5003
aS'Chichester'
p5004
aS'26'
p5005
aS'15'
p5006
aS'0'
aS'0'
aa(lp5007
S"Dion O'Cuinneagain"
p5008
aS'1998'
p5009
aS'No. 8'
p5010
aS'Cape Town'
p5011
aS'19'
p5012
aS'8'
aS'1'
aS'5'
aa(lp5013
S'Trevor Brennan'
p5014
aS'1998'
p5015
aS'Flanker'
p5016
aS'Leixlip'
p5017
aS'13'
p5018
aS'6'
aS'0'
aS'0'
aa(lp5019
S'Pat Duignan'
p5020
aS'1998'
p5021
aS'Wing, Centre'
p5022
aS'1972'
p5023
aS'2'
aS'2'
aS'1'
aS'5'
aa(lp5024
S'Girvan Dempsey'
p5025
aS'1998'
p5026
aS'Fullback'
p5027
aS'Dublin'
p5028
aS'82'
p5029
aS'50'
p5030
aS'19'
p5031
aS'95'
p5032
aa(lp5033
S'Cieran Scally'
p5034
aS'1998'
p5035
aS'Scrum-half'
p5036
aS'Dublin'
p5037
aS'4'
aS'3'
aS'2'
aS'10'
p5038
aa(lp5039
S'Matt Mostyn'
p5040
aS'1999'
p5041
aS'Fullback, Wing'
p5042
aS'NSW'
p5043
aS'6'
aS'3'
aS'3'
aS'15'
p5044
aa(lp5045
S"Brian O'Driscoll"
p5046
aS'1999'
p5047
aS'Centre'
p5048
aS'Dublin'
p5049
aS'141'
p5050
aS'82'
p5051
aS'47'
p5052
aS'250'
p5053
aa(lp5054
S'Tom Tierney'
p5055
aS'1999'
p5056
aS'Scrum-half'
p5057
aS'Limerick'
p5058
aS'8'
aS'3'
aS'1'
aS'5'
aa(lp5059
S'Mike Mullins'
p5060
aS'1999'
p5061
aS'Centre'
p5062
aS'Auckland'
p5063
aS'16'
p5064
aS'12'
p5065
aS'3'
aS'15'
p5066
aa(lp5067
S'Bob Casey'
p5068
aS'1999'
p5069
aS'Lock'
p5070
aS'Dublin'
p5071
aS'7'
aS'3'
aS'1'
aS'5'
aa(lp5072
S"Gordon D'Arcy"
p5073
aS'1999'
p5074
aS'Centre'
p5075
aS'Wexford'
p5076
aS'82'
p5077
aS'52'
p5078
aS'7'
aS'35'
p5079
aa(lp5080
S'Angus McKeen'
p5081
aS'1999'
p5082
aS'Prop'
p5083
aS'Drogheda'
p5084
aS'1'
aS'1'
aS'0'
aS'0'
aa(lp5085
S'Alan Quinlan'
p5086
aS'1999'
p5087
aS'Back-row'
p5088
aS'Tipperary'
p5089
aS'27'
p5090
aS'19'
p5091
aS'6'
aS'30'
p5092
aa(lp5093
S'Simon Easterby'
p5094
aS'2000'
p5095
aS'Back-row'
p5096
aS'Harrogate'
p5097
aS'67'
p5098
aS'43'
p5099
aS'9'
aS'45'
p5100
aa(lp5101
S'John Hayes'
p5102
aS'2000'
p5103
aS'Prop'
p5104
aS'Cappamore'
p5105
aS'107'
p5106
aS'67'
p5107
aS'2'
aS'10'
p5108
aa(lp5109
S'Shane Horgan'
p5110
aS'2000'
p5111
aS'Centre, Wing'
p5112
aS'Co.Meath'
p5113
aS'69'
p5114
aS'40'
p5115
aS'21'
p5116
aS'105'
p5117
aa(lp5118
S"Ronan O'Gara"
p5119
aS'2000'
p5120
aS'Fly-half'
p5121
aS'United States'
p5122
aS'130'
p5123
aS'73'
p5124
aS'16'
p5125
aS'1083'
p5126
aa(lp5127
S'Peter Stringer'
p5128
aS'2000'
p5129
aS'Scrum-half'
p5130
aS'Cork'
p5131
aS'98'
p5132
aS'67'
p5133
aS'6'
aS'30'
p5134
aa(lp5135
S'Peter McKenna'
p5136
aS'2000'
p5137
aS'Wing, Fullback'
p5138
aS'Dublin'
p5139
aS'1'
aS'0'
aS'0'
aS'0'
aa(lp5140
S'David Wallace'
p5141
aS'2000'
p5142
aS'Back-row'
p5143
aS'Cork'
p5144
aS'75'
p5145
aS'45'
p5146
aS'12'
p5147
aS'60'
p5148
aa(lp5149
S'Guy Easterby'
p5150
aS'2000'
p5151
aS'Scrum-half'
p5152
aS'Tadcaster'
p5153
aS'28'
p5154
aS'24'
p5155
aS'6'
aS'30'
p5156
aa(lp5157
S'Tyrone Howe'
p5158
aS'2000'
p5159
aS'Wing'
p5160
aS'Northern Ireland'
p5161
aS'14'
p5162
aS'11'
p5163
aS'6'
aS'30'
p5164
aa(lp5165
S'Geordan Murphy'
p5166
aS'2000'
p5167
aS'Fullback'
p5168
aS'Dublin'
p5169
aS'74'
p5170
aS'43'
p5171
aS'18'
p5172
aS'98'
p5173
aa(lp5174
S'Marcus Horan'
p5175
aS'2000'
p5176
aS'Prop'
p5177
aS'Limerick'
p5178
aS'67'
p5179
aS'44'
p5180
aS'6'
aS'30'
p5181
aa(lp5182
S'Frank Sheahan'
p5183
aS'2000'
p5184
aS'Hooker'
p5185
aS'Toronto'
p5186
aS'29'
p5187
aS'23'
p5188
aS'5'
aS'25'
p5189
aa(lp5190
S'Gary Longwell'
p5191
aS'2000'
p5192
aS'Lock'
p5193
aS'Northern Ireland'
p5194
aS'26'
p5195
aS'17'
p5196
aS'1'
aS'5'
aa(lp5197
S'Emmet Byrne'
p5198
aS'2001'
p5199
aS'Prop'
p5200
aS'Dublin'
p5201
aS'9'
aS'6'
aS'0'
aS'0'
aa(lp5202
S'Shane Byrne'
p5203
aS'2001'
p5204
aS'Hooker'
p5205
aS'Aughrim'
p5206
aS'45'
p5207
aS'30'
p5208
aS'3'
aS'15'
p5209
aa(lp5210
S"Mick O'Driscoll"
p5211
aS'2001'
p5212
aS'Lock'
p5213
aS'Cork'
p5214
aS'23'
p5215
aS'11'
p5216
aS'0'
aS'0'
aa(lp5217
S'Jeremy Staunton'
p5218
aS'2001'
p5219
aS'Fly-half'
p5220
aS'Limerick'
p5221
aS'5'
aS'3'
aS'1'
aS'21'
p5222
aa(lp5223
S"Paul O'Connell"
p5224
aS'2002'
p5225
aS'Lock'
p5226
aS'Limerick'
p5227
aS'108'
p5228
aS'64'
p5229
aS'7'
aS'35'
p5230
aa(lp5231
S'Keith Gleeson'
p5232
aS'2002'
p5233
aS'Flanker'
p5234
aS'Dublin'
p5235
aS'27'
p5236
aS'15'
p5237
aS'4'
aS'20'
p5238
aa(lp5239
S'John Kelly'
p5240
aS'2002'
p5241
aS'Wing'
p5242
aS'Dublin'
p5243
aS'17'
p5244
aS'12'
p5245
aS'8'
aS'40'
p5246
aa(lp5247
S'Leo Cullen'
p5248
aS'2002'
p5249
aS'Lock'
p5250
aS'Wicklow'
p5251
aS'32'
p5252
aS'25'
p5253
aS'0'
aS'0'
aa(lp5254
S"Donncha O'Callaghan"
p5255
aS'2003'
p5256
aS'Lock'
p5257
aS'Cork'
p5258
aS'98'
p5259
aS'53'
p5260
aS'1'
aS'5'
aa(lp5261
S'Mark McHugh'
p5262
aS'2003'
p5263
aS'Fullback, Fly-half'
p5264
aS'Dun Laoighre'
p5265
aS'1'
aS'1'
aS'1'
aS'5'
aa(lp5266
S'Simon Best'
p5267
aS'2003'
p5268
aS'Prop'
p5269
aS'Northern Ireland'
p5270
aS'23'
p5271
aS'17'
p5272
aS'1'
aS'5'
aa(lp5273
S'Anthony Horgan'
p5274
aS'2003'
p5275
aS'Wing'
p5276
aS'Cork'
p5277
aS'7'
aS'5'
aS'1'
aS'5'
aa(lp5278
S'Aidan McCullen'
p5279
aS'2003'
p5280
aS'Flanker'
p5281
aS'Drogheda'
p5282
aS'1'
aS'1'
aS'0'
aS'0'
aa(lp5283
S'Paul Shields'
p5284
aS'2003'
p5285
aS'Hooker'
p5286
aS'Northern Ireland'
p5287
aS'2'
aS'2'
aS'0'
aS'0'
aa(lp5288
S'Gavin Duffy'
p5289
aS'2004'
p5290
aS'Fullback'
p5291
aS'Ballina'
p5292
aS'10'
p5293
aS'5'
aS'3'
aS'18'
p5294
aa(lp5295
S"Johnny O'Connor"
p5296
aS'2004'
p5297
aS'Back-row'
p5298
aS'Galway'
p5299
aS'12'
p5300
aS'8'
aS'1'
aS'5'
aa(lp5301
S'Tommy Bowe'
p5302
aS'2004'
p5303
aS'Wing'
p5304
aS'Emyvale'
p5305
aS'66'
p5306
aS'36'
p5307
aS'28'
p5308
aS'140'
p5309
aa(lp5310
S'Denis Leamy'
p5311
aS'2004'
p5312
aS'Back-row'
p5313
aS'Tipperary'
p5314
aS'57'
p5315
aS'36'
p5316
aS'2'
aS'10'
p5317
aa(lp5318
S'Matt McCullough'
p5319
aS'2005'
p5320
aS'Lock, Flanker'
p5321
aS'?'
aS'4'
aS'2'
aS'0'
aS'0'
aa(lp5322
S'Roger Wilson'
p5323
aS'2005'
p5324
aS'No. 8'
p5325
aS'Northern Ireland'
p5326
aS'1'
aS'1'
aS'0'
aS'0'
aa(lp5327
S'Kieran Campbell'
p5328
aS'2005'
p5329
aS'Scrum-half'
p5330
aS'London'
p5331
aS'3'
aS'3'
aS'0'
aS'0'
aa(lp5332
S'Trevor Hogan'
p5333
aS'2005'
p5334
aS'Lock'
p5335
aS'Co.Tipperary'
p5336
aS'4'
aS'3'
aS'0'
aS'0'
aa(lp5337
S'Bernard Jackman'
p5338
aS'2005'
p5339
aS'Hooker'
p5340
aS'Carlow'
p5341
aS'9'
aS'4'
aS'0'
aS'0'
aa(lp5342
S'David Quinlan'
p5343
aS'2005'
p5344
aS'Centre'
p5345
aS'Dublin'
p5346
aS'2'
aS'2'
aS'0'
aS'0'
aa(lp5347
S'Kieran Lewis'
p5348
aS'2005'
p5349
aS'Wing, Centre'
p5350
aS'Dublin'
p5351
aS'3'
aS'1'
aS'0'
aS'0'
aa(lp5352
S'Neil Best'
p5353
aS'2005'
p5354
aS'Back-row'
p5355
aS'Northern Ireland'
p5356
aS'18'
p5357
aS'8'
aS'2'
aS'10'
p5358
aa(lp5359
S'Rory Best'
p5360
aS'2005'
p5361
aS'Hooker'
p5362
aS'Northern Ireland'
p5363
aS'83'
p5364
aS'47'
p5365
aS'8'
aS'40'
p5366
aa(lp5367
S'Andrew Trimble'
p5368
aS'2005'
p5369
aS'Wing'
p5370
aS'Northern Ireland'
p5371
aS'57'
p5372
aS'31'
p5373
aS'16'
p5374
aS'80'
p5375
aa(lp5376
S'Jerry Flannery'
p5377
aS'2005'
p5378
aS'Hooker'
p5379
aS'Galway'
p5380
aS'41'
p5381
aS'23'
p5382
aS'3'
aS'15'
p5383
aa(lp5384
S'Eoin Reddan'
p5385
aS'2006'
p5386
aS'Scrum-half'
p5387
aS'Limerick'
p5388
aS'60'
p5389
aS'28'
p5390
aS'2'
aS'10'
p5391
aa(lp5392
S'Isaac Boss'
p5393
aS'2006'
p5394
aS'Scrum-half'
p5395
aS'Tokoroa'
p5396
aS'21'
p5397
aS'13'
p5398
aS'3'
aS'15'
p5399
aa(lp5400
S'Bryan Young'
p5401
aS'2006'
p5402
aS'Prop'
p5403
aS'Northern Ireland'
p5404
aS'8'
aS'3'
aS'0'
aS'0'
aa(lp5405
S'Paddy Wallace'
p5406
aS'2006'
p5407
aS'Centre'
p5408
aS'Northern Ireland'
p5409
aS'30'
p5410
aS'17'
p5411
aS'2'
aS'53'
p5412
aa(lp5413
S'Stephen Ferris'
p5414
aS'2006'
p5415
aS'Flanker'
p5416
aS'Northern Ireland'
p5417
aS'35'
p5418
aS'19'
p5419
aS'2'
aS'10'
p5420
aa(lp5421
S'Luke Fitzgerald'
p5422
aS'2006'
p5423
aS'Fullback, Wing'
p5424
aS'Wicklow'
p5425
aS'29'
p5426
aS'12'
p5427
aS'2'
aS'10'
p5428
aa(lp5429
S'Jamie Heaslip'
p5430
aS'2006'
p5431
aS'No. 8'
p5432
aS'Tiberias'
p5433
aS'77'
p5434
aS'40'
p5435
aS'9'
aS'45'
p5436
aa(lp5437
S'Brian Carney'
p5438
aS'2007'
p5439
aS'Outside back'
p5440
aS'Cork'
p5441
aS'4'
aS'1'
aS'1'
aS'5'
aa(lp5442
S'Tony Buckley'
p5443
aS'2007'
p5444
aS'Prop'
p5445
aS'Cork'
p5446
aS'25'
p5447
aS'11'
p5448
aS'2'
aS'10'
p5449
aa(lp5450
S'Barry Murphy'
p5451
aS'2007'
p5452
aS'Wing, Centre'
p5453
aS'Limerick'
p5454
aS'4'
aS'2'
aS'1'
aS'5'
aa(lp5455
S"Tomas O'Leary"
p5456
aS'2007'
p5457
aS'Scrum-half'
p5458
aS'Cork'
p5459
aS'24'
p5460
aS'13'
p5461
aS'3'
aS'15'
p5462
aa(lp5463
S'Shane Jennings'
p5464
aS'2007'
p5465
aS'Flanker'
p5466
aS'Dublin'
p5467
aS'13'
p5468
aS'6'
aS'1'
aS'5'
aa(lp5469
S'Rob Kearney'
p5470
aS'2007'
p5471
aS'Fullback, Wing'
p5472
aS'Dublin'
p5473
aS'65'
p5474
aS'32'
p5475
aS'11'
p5476
aS'57'
p5477
aa(lp5478
S'Keith Earls'
p5479
aS'2008'
p5480
aS'Utility back'
p5481
aS'Moyross'
p5482
aS'39'
p5483
aS'18'
p5484
aS'12'
p5485
aS'60'
p5486
aa(lp5487
S'Donnacha Ryan'
p5488
aS'2008'
p5489
aS'Flanker, Lock'
p5490
aS'Limerick'
p5491
aS'28'
p5492
aS'11'
p5493
aS'0'
aS'0'
aa(lp5494
S'Tom Court'
p5495
aS'2009'
p5496
aS'Prop'
p5497
aS'QLD'
p5498
aS'32'
p5499
aS'18'
p5500
aS'1'
aS'5'
aa(lp5501
S'Darren Cave'
p5502
aS'2009'
p5503
aS'Centre'
p5504
aS'Northern Ireland'
p5505
aS'8'
aS'7'
aS'1'
aS'5'
aa(lp5506
S'Ian Dowling'
p5507
aS'2009'
p5508
aS'Wing'
p5509
aS'Kilkenny'
p5510
aS'2'
aS'2'
aS'0'
aS'0'
aa(lp5511
S'Ian Keatley'
p5512
aS'2009'
p5513
aS'Fly-half'
p5514
aS'Dublin'
p5515
aS'4'
aS'4'
aS'0'
aS'31'
p5516
aa(lp5517
S'John Muldoon'
p5518
aS'2009'
p5519
aS'Back-row'
p5520
aS'Ballinasloe'
p5521
aS'3'
aS'2'
aS'0'
aS'0'
aa(lp5522
S'Niall Ronan'
p5523
aS'2009'
p5524
aS'Back-row'
p5525
aS'Co Meath'
p5526
aS'4'
aS'2'
aS'0'
aS'0'
aa(lp5527
S'Ian Whitten'
p5528
aS'2009'
p5529
aS'Centre'
p5530
aS'Northern Ireland'
p5531
aS'2'
aS'2'
aS'2'
aS'10'
p5532
aa(lp5533
S'Ryan Caldwell'
p5534
aS'2009'
p5535
aS'Lock'
p5536
aS'Northern Ireland'
p5537
aS'2'
aS'2'
aS'0'
aS'0'
aa(lp5538
S'Mike Ross'
p5539
aS'2009'
p5540
aS'Prop'
p5541
aS'Cork'
p5542
aS'49'
p5543
aS'29'
p5544
aS'0'
aS'0'
aa(lp5545
S'Denis Hurley'
p5546
aS'2009'
p5547
aS'Wing, Fullback'
p5548
aS'West Cork'
p5549
aS'1'
aS'1'
aS'0'
aS'0'
aa(lp5550
S'Cian Healy'
p5551
aS'2009'
p5552
aS'Prop'
p5553
aS'Clontarf'
p5554
aS'51'
p5555
aS'24'
p5556
aS'3'
aS'15'
p5557
aa(lp5558
S'Johnny Sexton'
p5559
aS'2009'
p5560
aS'Fly-half'
p5561
aS'Dublin'
p5562
aS'54'
p5563
aS'29'
p5564
aS'9'
aS'486'
p5565
aa(lp5566
S'Sean Cronin'
p5567
aS'2009'
p5568
aS'Hooker'
p5569
aS'Limerick'
p5570
aS'43'
p5571
aS'25'
p5572
aS'1'
aS'5'
aa(lp5573
S"Sean O'Brien"
p5574
aS'2009'
p5575
aS'Back-row'
p5576
aS'Dublin'
p5577
aS'36'
p5578
aS'17'
p5579
aS'5'
aS'25'
p5580
aa(lp5581
S'Kevin McLaughlin'
p5582
aS'2010'
p5583
aS'Lock, Back-row'
p5584
aS'Dublin'
p5585
aS'8'
aS'2'
aS'0'
aS'0'
aa(lp5586
S'John Fogarty'
p5587
aS'2010'
p5588
aS'Hooker'
p5589
aS'Cork'
p5590
aS'1'
aS'0'
aS'0'
aS'0'
aa(lp5591
S'Dan Tuohy'
p5592
aS'2010'
p5593
aS'Lock'
p5594
aS'Bristol'
p5595
aS'9'
aS'4'
aS'1'
aS'5'
aa(lp5596
S'Chris Henry'
p5597
aS'2010'
p5598
aS'Back-row'
p5599
aS'Northern Ireland'
p5600
aS'16'
p5601
aS'11'
p5602
aS'2'
aS'10'
p5603
aa(lp5604
S'Rhys Ruddock'
p5605
aS'2010'
p5606
aS'Back-row'
p5607
aS'Dublin'
p5608
aS'5'
aS'4'
aS'1'
aS'5'
aa(lp5609
S'Damien Varley'
p5610
aS'2010'
p5611
aS'Hooker'
p5612
aS'Limerick'
p5613
aS'3'
aS'2'
aS'0'
aS'0'
aa(lp5614
S'Devin Toner'
p5615
aS'2010'
p5616
aS'Lock'
p5617
aS'Co Meath'
p5618
aS'25'
p5619
aS'18'
p5620
aS'0'
aS'0'
aa(lp5621
S'Fergus McFadden'
p5622
aS'2011'
p5623
aS'Wing, Centre'
p5624
aS'Kilkenny'
p5625
aS'28'
p5626
aS'14'
p5627
aS'9'
aS'45'
p5628
aa(lp5629
S'Mike McCarthy'
p5630
aS'2011'
p5631
aS'Lock'
p5632
aS'London'
p5633
aS'17'
p5634
aS'8'
aS'0'
aS'0'
aa(lp5635
S'Felix Jones'
p5636
aS'2011'
p5637
aS'Utility back'
p5638
aS'Dublin'
p5639
aS'11'
p5640
aS'8'
aS'2'
aS'10'
p5641
aa(lp5642
S'Conor Murray'
p5643
aS'2011'
p5644
aS'Scrum-half'
p5645
aS'Limerick'
p5646
aS'37'
p5647
aS'19'
p5648
aS'3'
aS'15'
p5649
aa(lp5650
S"Peter O'Mahony"
p5651
aS'2012'
p5652
aS'Back-row'
p5653
aS'Cork'
p5654
aS'30'
p5655
aS'16'
p5656
aS'1'
aS'5'
aa(lp5657
S'Declan Fitzpatrick'
p5658
aS'2012'
p5659
aS'Prop'
p5660
aS'Worcs'
p5661
aS'7'
aS'3'
aS'0'
aS'0'
aa(lp5662
S'Simon Zebo'
p5663
aS'2012'
p5664
aS'Wing'
p5665
aS'Cork'
p5666
aS'15'
p5667
aS'11'
p5668
aS'5'
aS'25'
p5669
aa(lp5670
S'Ronan Loughney'
p5671
aS'2012'
p5672
aS'Prop'
p5673
aS'Galway'
p5674
aS'1'
aS'0'
aS'0'
aS'0'
aa(lp5675
S'Richardt Strauss'
p5676
aS'2012'
p5677
aS'Hooker'
p5678
aS'Pretoria'
p5679
aS'6'
aS'5'
aS'2'
aS'10'
p5680
aa(lp5681
S'Michael Bent'
p5682
aS'2012'
p5683
aS'Prop'
p5684
aS'Hawera'
p5685
aS'2'
aS'1'
aS'0'
aS'0'
aa(lp5686
S'Iain Henderson'
p5687
aS'2012'
p5688
aS'Lock'
p5689
aS'Northern Ireland'
p5690
aS'17'
p5691
aS'11'
p5692
aS'0'
aS'0'
aa(lp5693
S'Dave Kilcoyne'
p5694
aS'2012'
p5695
aS'Prop'
p5696
aS'Limerick'
p5697
aS'12'
p5698
aS'8'
aS'1'
aS'5'
aa(lp5699
S'Craig Gilroy'
p5700
aS'2012'
p5701
aS'Wing'
p5702
aS'Northern Ireland'
p5703
aS'6'
aS'3'
aS'2'
aS'10'
p5704
aa(lp5705
S'Paddy Jackson'
p5706
aS'2013'
p5707
aS'Fly-half'
p5708
aS'Northern Ireland'
p5709
aS'9'
aS'5'
aS'1'
aS'56'
p5710
aa(lp5711
S'Luke Marshall'
p5712
aS'2013'
p5713
aS'Centre'
p5714
aS'Ballymoney'
p5715
aS'6'
aS'2'
aS'0'
aS'0'
aa(lp5716
S'Ian Madigan'
p5717
aS'2013'
p5718
aS'Fly-half'
p5719
aS'Dublin'
p5720
aS'18'
p5721
aS'13'
p5722
aS'1'
aS'66'
p5723
aa(lp5724
S'Stephen Archer'
p5725
aS'2013'
p5726
aS'Prop'
p5727
aS'Cork'
p5728
aS'2'
aS'0'
aS'0'
aS'0'
aa(lp5729
S'Paul Marshall'
p5730
aS'2013'
p5731
aS'Scrum-half'
p5732
aS'Northern Ireland'
p5733
aS'3'
aS'2'
aS'0'
aS'0'
aa(lp5734
S'Robbie Henshaw'
p5735
aS'2013'
p5736
aS'Fullback, Centre'
p5737
aS'Athlone'
p5738
aS'10'
p5739
aS'8'
aS'1'
aS'5'
aa(lp5740
S'Stuart Olding'
p5741
aS'2013'
p5742
aS'Fly-half'
p5743
aS'Northern Ireland'
p5744
aS'2'
aS'2'
aS'1'
aS'5'
aa(lp5745
S'Jamie Hagan'
p5746
aS'2013'
p5747
aS'Prop'
p5748
aS'Dublin'
p5749
aS'1'
aS'1'
aS'0'
aS'0'
aa(lp5750
S"Tommy O'Donnell"
p5751
aS'2013'
p5752
aS'Back-row'
p5753
aS'Tipperary'
p5754
aS'8'
aS'8'
aS'2'
aS'10'
p5755
aa(lp5756
S'Mike Sherry'
p5757
aS'2013'
p5758
aS'Hooker'
p5759
aS'Limerick'
p5760
aS'1'
aS'1'
aS'0'
aS'0'
aa(lp5761
S'James Downey'
p5762
aS'2013'
p5763
aS'Centre'
p5764
aS'Dublin'
p5765
aS'1'
aS'1'
aS'0'
aS'0'
aa(lp5766
S'Jack McGrath'
p5767
aS'2013'
p5768
aS'Prop'
p5769
aS'Dublin'
p5770
aS'17'
p5771
aS'13'
p5772
aS'1'
aS'5'
aa(lp5773
S'Dave Kearney'
p5774
aS'2013'
p5775
aS'Fullback, Wing'
p5776
aS'Dublin'
p5777
aS'7'
aS'5'
aS'2'
aS'10'
p5778
aa(lp5779
S'Martin Moore'
p5780
aS'2014'
p5781
aS'Prop'
p5782
aS'Dublin'
p5783
aS'10'
p5784
aS'8'
aS'0'
aS'0'
aa(lp5785
S'Jordi Murphy'
p5786
aS'2014'
p5787
aS'Flanker'
p5788
aS'Barcelona'
p5789
aS'9'
aS'7'
aS'0'
aS'0'
aa(lp5790
S'Robbie Diack'
p5791
aS'2014'
p5792
aS'No. 8'
p5793
aS'Johannesburg'
p5794
aS'2'
aS'2'
aS'0'
aS'0'
aa(lp5795
S'Rodney Ah You'
p5796
aS'2014'
p5797
aS'Prop'
p5798
aS'Lower Hutt'
p5799
aS'3'
aS'3'
aS'0'
aS'0'
aa(lp5800
S'Kieran Marmion'
p5801
aS'2014'
p5802
aS'Scrum-half'
p5803
aS'Barking'
p5804
aS'3'
aS'3'
aS'0'
aS'0'
aa(lp5805
S'James Cronin'
p5806
aS'2014'
p5807
aS'Prop'
p5808
aS'Ballincollig'
p5809
aS'2'
aS'2'
aS'0'
aS'0'
aa(lp5810
S'Rob Herring'
p5811
aS'2014'
p5812
aS'Hooker'
p5813
aS'Cape Town'
p5814
aS'1'
aS'1'
aS'0'
aS'0'
aa(lp5815
S'Noel Reid'
p5816
aS'2014'
p5817
aS'Fly-half, Centre'
p5818
aS'Dublin'
p5819
aS'1'
aS'1'
aS'0'
aS'0'
aa(lp5820
S'Jared Payne'
p5821
aS'2014'
p5822
aS'Fullback'
p5823
aS'Tauranga'
p5824
aS'6'
aS'5'
aS'1'
aS'5'
aa(lp5825
S'Dave Foley'
p5826
aS'2014'
p5827
aS'Lock'
p5828
aS'Tipperary'
p5829
aS'2'
aS'2'
aS'0'
aS'0'
aa(lp5830
S'Dominic Ryan'
p5831
aS'2014'
p5832
aS'Flanker'
p5833
aS'Dublin'
p5834
aS'1'
aS'1'
aS'0'
aS'0'
aa(lp5835
S'Robin Copeland'
p5836
aS'2014'
p5837
aS'Flanker'
p5838
aS'Wexford'
p5839
aS'1'
aS'1'
aS'0'
aS'0'
aa.