(lp1
VForward
p2
aVForward
p3
aVForward
p4
aVForward
p5
aVThree-quarters
p6
aVForward
p7
aVForward
p8
aVForward
p9
aVForward
p10
aVForward
p11
aVForward
p12
aVFullback
p13
aVForward
p14
aVForward
p15
aVForward
p16
aVForward
p17
aVHalfback
p18
aVForward
p19
aVFullback
p20
aVForward
p21
aVForward
p22
aVForward
p23
aVForward
p24
aVForward
p25
aVThree-quarters
p26
aVForward
p27
aVFullback
p28
aVForward
p29
aVThree-quarters
p30
aVForward
p31
aVForward
p32
aVHalfback
p33
aVForward
p34
aVForward
p35
aVForward
p36
aVThree-quarters
p37
aVHalfback
p38
aVForward
p39
aVForward
p40
aVHalfback
p41
aVForward
p42
aVFullback
p43
aVForward
p44
aVHalfback
p45
aVForward
p46
aVForward
p47
aVThree-quarters
p48
aVForward
p49
aVForward
p50
aVForward
p51
aVThree-quarters
p52
aVForward
p53
aVHalfback
p54
aVThree-quarters
p55
aVForward
p56
aVForward
p57
aVForward
p58
aVForward
p59
aVForward
p60
aVForward
p61
aVForward
p62
aVThree-quarters
p63
aVThree-quarters
p64
aVForward
p65
aVHalfback
p66
aVHalfback
p67
aVForward
p68
aVForward
p69
aVForward
p70
aVForward
p71
aVForward
p72
aVForward
p73
aVForward
p74
aVThree-quarters
p75
aVHalfback
p76
aVForward
p77
aVThree-quarters
p78
aVThree-quarters
p79
aVHalfback
p80
aVForward
p81
aVHalfback
p82
aVThree-quarters
p83
aVForward
p84
aVForward
p85
aVForward
p86
aVThree-quarters
p87
aVForward
p88
aVForward
p89
aVForward
p90
aVForward
p91
aVThree-quarters
p92
aVForward
p93
aVFullback
p94
aVForward
p95
aVThree-quarters
p96
aVForward
p97
aVForward
p98
aVForward
p99
aVThree-quarters
p100
aVHalfback
p101
aVHalfback
p102
aVForward
p103
aVHalfback
p104
aVForward
p105
aVThree-quarters
p106
aVForward
p107
aVForward
p108
aVForward
p109
aVForward
p110
aVThree-quarters
p111
aVForward
p112
aVFullback
p113
aVFullback
p114
aVForward
p115
aVForward
p116
aVForward
p117
aVHalfback
p118
aVForward
p119
aVForward
p120
aVWing
p121
aVWing
p122
aVForward
p123
aVForward
p124
aVForward
p125
aVForward
p126
aVHalfback
p127
aVForward
p128
aVForward
p129
aVThree-quarters
p130
aVForward
p131
aVHalfback
p132
aVForward
p133
aVForward
p134
aVHalfback
p135
aVForward
p136
aVForward
p137
aVForward
p138
aVThree-quarters
p139
aVHalfback
p140
aVForward
p141
aVForward
p142
aVHalfback
p143
aVForward
p144
aVForward
p145
aVForward
p146
aVForward
p147
aVHalfback
p148
aVThree-quarters
p149
aVThree-quarters
p150
aVForward
p151
aVThree-quarters
p152
aVFullback
p153
aVForward
p154
aVForward
p155
aVForward
p156
aVHalfback
p157
aVForward
p158
aVForward
p159
aVForward
p160
aVForward
p161
aVForward
p162
aVForward
p163
aVThree-quarters
p164
aVForward
p165
aVThree-quarters
p166
aVThree-quarters
p167
aVForward
p168
aVForward
p169
aVForward
p170
aVForward
p171
aVHalfback
p172
aVThree-quarters
p173
aVForward
p174
aVFullback
p175
aVForward
p176
aVThree-quarters
p177
aVForward
p178
aVThree-quarters
p179
aVForward
p180
aVThree-quarters
p181
aVHalfback
p182
aVForward
p183
aVForward
p184
aVForward
p185
aVFullback
p186
aVThree-quarters
p187
aVForward
p188
aVForward
p189
aVHalfback
p190
aVCentre
p191
aVForward
p192
aVHalfback
p193
aVForward
p194
aVForward
p195
aVForward
p196
aVThree-quarters
p197
aVForward
p198
aVHalfback
p199
aVWing
p200
aVForward
p201
aVFullback
p202
aVForward
p203
aVHalfback
p204
aVForward
p205
aVForward
p206
aVHalfback
p207
aVForward
p208
aVFullback
p209
aVWing
p210
aVForward
p211
aVHalfback
p212
aVForward
p213
aVCentre
p214
aVForward
p215
aVForward
p216
aVFullback
p217
aVForward
p218
aVForward
p219
aVForward
p220
aVForward
p221
aVFullback
p222
aVForward
p223
aVForward
p224
aVHalfback
p225
aVWing
p226
aVCentre
p227
aVFullback
p228
aVFullback
p229
aVForward
p230
aVCentre
p231
aVWing
p232
aVForward
p233
aVHalfback
p234
aVWing
p235
aVHalfback
p236
aVWing
p237
aVForward
p238
aVForward
p239
aVFullback
p240
aVForward
p241
aVForward
p242
aVForward
p243
aVFullback
p244
aVForward
p245
aVForward
p246
aVWing
p247
aVCentre
p248
aVHalfback
p249
aVForward
p250
aVForward
p251
aVForward
p252
aVCentre
p253
aVWing
p254
aVWing
p255
aVCentre
p256
aVForward
p257
aVWing
p258
aVWing
p259
aVForward
p260
aVCentre
p261
aVForward
p262
aVForward
p263
aVForward
p264
aVScrum-half
p265
aVForward
p266
aVForward
p267
aVForward
p268
aVFullback
p269
aVCentre
p270
aVForward
p271
aVWing
p272
aVForward
p273
aVForward
p274
aVForward
p275
aVScrum-half
p276
aVHalfback
p277
aVWing
p278
aVForward
p279
aVForward
p280
aVForward
p281
aVWing
p282
aVCentre
p283
aVForward
p284
aVCentre
p285
aVForward
p286
aVWing
p287
aVCentre
p288
aVHalfback
p289
aVWing
p290
aVFly-half
p291
aVForward
p292
aVScrum-half
p293
aVWing
p294
aVForward
p295
aVForward
p296
aVFullback
p297
aVForward
p298
aVWing
p299
aVCentre
p300
aVForward
p301
aVForward
p302
aVCentre
p303
aVFullback
p304
aVScrum-half
p305
aVForward
p306
aVCentre
p307
aVForward
p308
aVForward
p309
aVForward
p310
aVCentre
p311
aVForward
p312
aVWing
p313
aVFullback
p314
aVFullback
p315
aVForward
p316
aVHalfback
p317
aVCentre
p318
aVForward
p319
aVForward
p320
aVScrum-half
p321
aVForward
p322
aVForward
p323
aVWing
p324
aVForward
p325
aVFly-half
p326
aVForward
p327
aVHooker
p328
aVForward
p329
aVWing
p330
aVScrum-half
p331
aVScrum-half
p332
aVCentre
p333
aVFly-half
p334
aVWing
p335
aVScrum-half
p336
aVForward
p337
aVCentre
p338
aVForward
p339
aVCentre
p340
aVFly-half
p341
aVWing
p342
aVForward
p343
aVProp
p344
aVForward
p345
aVForward
p346
aVForward
p347
aVCentre
p348
aVForward
p349
aVFullback
p350
aVForward
p351
aVForward
p352
aVForward
p353
aVWing
p354
aVForward
p355
aVCentre
p356
aVForward
p357
aVProp
p358
aVFullback
p359
aVForward
p360
aVLock
p361
aVCentre
p362
aVCentre
p363
aVForward
p364
aVFullback
p365
aVWing
p366
aVForward
p367
aVForward
p368
aVFlanker
p369
aVFullback
p370
aVWing
p371
aVFullback
p372
aVForward
p373
aVScrum-half
p374
aVCentre
p375
aVFullback
p376
aVWing
p377
aVProp
p378
aVForward
p379
aVFlanker
p380
aVScrum-half
p381
aVFullback
p382
aVForward
p383
aVFly-half
p384
aVWing
p385
aVWing
p386
aVProp
p387
aVHooker
p388
aVFullback
p389
aVLock
p390
aVCentre
p391
aVWing
p392
aVLock
p393
aVScrum-half
p394
aVNo. 8
p395
aVCentre
p396
aVProp
p397
aVCentre
p398
aVWing
p399
aVScrum-half
p400
aVProp
p401
aVCentre
p402
aVProp
p403
aVFly-half
p404
aVNo. 8
p405
aVHooker
p406
aVFlanker
p407
aVCentre
p408
aVProp
p409
aVWing
p410
aVWing
p411
aVLock
p412
aVFlanker
p413
aVScrum-half
p414
aVNo. 8
p415
aVFlanker
p416
aVWing
p417
aVWing
p418
aVLock
p419
aVFlanker
p420
aVCentre
p421
aVFly-half
p422
aVScrum-half
p423
aVFlanker
p424
aVLock
p425
aVWing
p426
aVProp
p427
aVFullback
p428
aVProp
p429
aVLock
p430
aVCentre
p431
aVNo. 8
p432
aVFly-half
p433
aVCentre
p434
aVWing
p435
aVNo. 8
p436
aVLock
p437
aVFlanker
p438
aVWing
p439
aVWing
p440
aVHooker
p441
aVFly-half
p442
aVLock
p443
aVLock
p444
aVFly-half
p445
aVWing
p446
aVForward
p447
aVLock
p448
aVScrum-half
p449
aVNo. 8
p450
aVHooker
p451
aVLock
p452
aVFly-half
p453
aVNo. 8
p454
aVCentre
p455
aVLock
p456
aVWing
p457
aVFlanker
p458
aVProp
p459
aVHooker
p460
aVWing
p461
aVProp
p462
aVCentre
p463
aVWing
p464
aVScrum-half
p465
aVNo. 8
p466
aVLock
p467
aVProp
p468
aVWing
p469
aVHooker
p470
aVCentre
p471
aVWing
p472
aVFlanker
p473
aVLock
p474
aVHooker
p475
aVFlanker
p476
aVCentre
p477
aVLock
p478
aVLock
p479
aVCentre
p480
aVNo. 8
p481
aVFlanker
p482
aVProp
p483
aVFullback
p484
aVHooker
p485
aVFullback
p486
aVWing
p487
aVLock
p488
aVNo. 8
p489
aVNo. 8
p490
aVCentre
p491
aVHooker
p492
aVFullback
p493
aVFullback
p494
aVFlanker
p495
aVScrum-half
p496
aVWing
p497
aVCentre
p498
aVFullback
p499
aVCentre
p500
aVProp
p501
aVCentre
p502
aVWing
p503
aVFlanker
p504
aVHooker
p505
aVScrum-half
p506
aVCentre
p507
aVProp
p508
aVCentre
p509
aVWing
p510
aVFly-half
p511
aVCentre
p512
aVFullback
p513
aVProp
p514
aVNo. 8
p515
aVFullback
p516
aVLock
p517
aVFlanker
p518
aVFlanker
p519
aVFly-half
p520
aVWing
p521
aVWing
p522
aVProp
p523
aVFullback
p524
aVProp
p525
aVFlanker
p526
aVWing
p527
aVHooker
p528
aVFly-half
p529
aVLock
p530
aVProp
p531
aVProp
p532
aVWing
p533
aVNo. 8
p534
aVWing
p535
aVLock
p536
aVFullback
p537
aVProp
p538
aVLock
p539
aVCentre
p540
aVCentre
p541
aVFullback
p542
aVProp
p543
aVProp
p544
aVProp
p545
aVNo. 8
p546
aVLock
p547
aVScrum-half
p548
aVProp
p549
aVCentre
p550
aVFlanker
p551
aVLock
p552
aVFly-half
p553
aVFlanker
p554
aVWing
p555
aVHooker
p556
aVProp
p557
aVWing
p558
aVCentre
p559
aVCentre
p560
aVWing
p561
aVScrum-half
p562
aVFullback
p563
aVWing
p564
aVProp
p565
aVProp
p566
aVNo. 8
p567
aVCentre
p568
aVLock
p569
aVWing
p570
aVCentre
p571
aVLock
p572
aVFlanker
p573
aVScrum-half
p574
aVFullback
p575
aVNo. 8
p576
aVCentre
p577
aVProp
p578
aVScrum-half
p579
aVCentre
p580
aVFullback
p581
aVProp
p582
aVCentre
p583
aVScrum-half
p584
aVFlanker
p585
aVProp
p586
aVWing
p587
aVCentre
p588
aVCentre
p589
aVLock
p590
aVCentre
p591
aVCentre
p592
aVWing
p593
aVScrum-half
p594
aVProp
p595
aVWing
p596
aVLock
p597
aVLock
p598
aVFullback
p599
aVCentre
p600
aVFullback
p601
aVLock
p602
aVFullback
p603
aVFlanker
p604
aVLock
p605
aVWing
p606
aVWing
p607
aVFlanker
p608
aVProp
p609
aVHooker
p610
aVProp
p611
aVFlanker
p612
aVFullback
p613
aVFlanker
p614
aVWing
p615
aVLock
p616
aVWing
p617
aVWing
p618
aVFlanker
p619
aVWing
p620
aVFly-half
p621
aVNo. 8
p622
aVProp
p623
aVCentre
p624
aVFly-half
p625
aVFullback
p626
aVScrum-half
p627
aVFlanker
p628
aVLock
p629
aVProp
p630
aVWing
p631
aVFullback
p632
aVLock
p633
aVWing
p634
aVScrum-half
p635
aVFlanker
p636
aVNo. 8
p637
aVProp
p638
aVNo. 8
p639
aVFullback
p640
aVScrum-half
p641
aVWing
p642
aVFlanker
p643
aVFlanker
p644
aVLock
p645
aVFlanker
p646
aVLock
p647
aVNo. 8
p648
aVWing
p649
aVFlanker
p650
aVNo. 8
p651
aVProp
p652
aVHooker
p653
aVFlanker
p654
aVCentre
p655
aVLock
p656
aVFlanker
p657
aVLock
p658
aVFly-half
p659
aVFlanker
p660
aVCentre, Wing
p661
aVProp
p662
aVLock
p663
aVCentre
p664
aVCentre
p665
aVWing
p666
aVFullback
p667
aVHooker
p668
aVCentre
p669
aVHooker
p670
aVLock
p671
aVFly-half
p672
aVWing
p673
aVScrum-half
p674
aVNo. 8
p675
aVFlanker
p676
aVFlanker
p677
aVWing
p678
aVHooker
p679
aVFullback
p680
aVNo. 8
p681
aVWing
p682
aVWing
p683
aVLock
p684
aVProp
p685
aVScrum-half
p686
aVFlanker
p687
aVFly-half
p688
aVWing
p689
aVScrum-half
p690
aVProp
p691
aVFlanker
p692
aVProp
p693
aVWing
p694
aVFly-half
p695
aVFlanker
p696
aVFullback
p697
aVWing
p698
aVWing
p699
aVCentre
p700
aVFullback
p701
aVHooker
p702
aVLock
p703
aVProp
p704
aVFlanker
p705
aVHooker
p706
aVFlanker
p707
aVProp
p708
aVScrum-half
p709
aVWing
p710
aVNo. 8
p711
aVLock
p712
aVCentre
p713
aVHooker
p714
aVLock
p715
aVNo. 8
p716
aVProp
p717
aVCentre
p718
aVScrum-half
p719
aVWing
p720
aVProp
p721
aVNo. 8
p722
aVFly-half
p723
aVCentre
p724
aVFlanker
p725
aVCentre
p726
aVWing
p727
aVWing
p728
aVFlanker
p729
aVFly-half
p730
aVScrum-half
p731
aVWing
p732
aVLock
p733
aVFlanker
p734
aVWing
p735
aVNo. 8
p736
aVProp
p737
aVFullback
p738
aVLock
p739
aVWing
p740
aVFlanker
p741
aVWing
p742
aVScrum-half
p743
aVLock
p744
aVFlanker
p745
aVCentre
p746
aVFullback
p747
aVProp
p748
aVWing
p749
aVFly-half
p750
aVWing
p751
aVLock
p752
aVProp
p753
aVFlanker
p754
aVCentre
p755
aV
aVCentre
p756
aVWing
p757
aVNo. 8
p758
aVHooker
p759
aVFlanker
p760
aVFly-half
p761
aVHooker
p762
aVCentre
p763
aVProp
p764
aVScrum-half
p765
aVLock
p766
aVProp
p767
aVScrum-half
p768
aVLock
p769
aVFullback
p770
aVWing
p771
aVCentre
p772
aVLock
p773
aV
aVWing
p774
aVProp
p775
aVScrum-half
p776
aVCentre
p777
aVFullback
p778
aVProp
p779
aVLock
p780
aVCentre
p781
aVWing
p782
aVProp
p783
aVCentre
p784
aVFlanker
p785
aVLock
p786
aVFly-half
p787
aVWing
p788
aVScrum-half
p789
aVNo. 8
p790
aVProp
p791
aVFullback
p792
aVFlanker
p793
aVWing
p794
aVFullback
p795
aVHooker
p796
aVFullback
p797
aVFullback
p798
aVLock
p799
aVFullback
p800
aVFly-half
p801
aVCentre
p802
aVFullback
p803
aVWing
p804
aVWing
p805
aVFly-half
p806
aVLock
p807
aVFullback
p808
aVFullback, Wing
p809
aVLock
p810
aVWing
p811
aVCentre
p812
aVWing
p813
aVFlanker
p814
aVCentre
p815
aVFlanker
p816
aVProp
p817
aVHooker
p818
aVScrum-half
p819
aVProp
p820
aVFlanker
p821
aVCentre, Fly-half
p822
aVLock
p823
aVScrum-half
p824
aVFlanker
p825
aVCentre
p826
aVFlanker
p827
aVFlanker
p828
aVNo. 8
p829
aVLock
p830
aVFlanker
p831
aVProp
p832
aVFly-half
p833
aVHooker
p834
aVFlanker
p835
aVHooker
p836
aVLock
p837
aVProp
p838
aVCentre
p839
aVProp
p840
aVFlanker
p841
aVProp
p842
aVFlanker
p843
aVLock
p844
aVScrum-half
p845
aVCentre
p846
aVWing
p847
aVHooker
p848
aVNo. 8
p849
aVFlanker
p850
aVFullback
p851
aVWing
p852
aVProp
p853
aVFullback
p854
aVScrum-half
p855
aVProp
p856
aVFullback
p857
aVFly-half
p858
aVLock
p859
aVNo. 8
p860
aVScrum-half
p861
aVLock
p862
aVWing
p863
aVFlanker
p864
aVLock
p865
aVNo. 8
p866
aVScrum-half
p867
aVWing
p868
aVCentre
p869
aVFullback
p870
aVWing
p871
aVFly-half
p872
aVFlanker
p873
aVFlanker
p874
aVFly-half
p875
aVWing
p876
aVWing
p877
aVFlanker
p878
aVProp
p879
aVCentre
p880
aVFlanker
p881
aVHooker
p882
aVLock
p883
aVFullback, Centre, Fly-half
p884
aVFullback
p885
aVFullback
p886
aVProp
p887
aVCentre
p888
aVFly-half
p889
aVFullback
p890
aVFlanker
p891
aVCentre
p892
aVCentre
p893
aVFlanker
p894
aVHooker
p895
aVWing
p896
aVLock
p897
aVFly-half
p898
aVFly-half
p899
aVBack-row
p900
aVScrum-half
p901
aVBack-row
p902
aVFlanker
p903
aVLock
p904
aVScrum-half
p905
aVWing
p906
aVProp
p907
aVLock
p908
aVScrum-half
p909
aVHooker
p910
aVProp
p911
aVCentre
p912
aVBack-row
p913
aVCentre
p914
aVFly-half
p915
aVFullback
p916
aVCentre
p917
aVWing
p918
aVFullback
p919
aVScrum-half
p920
aVBack-row
p921
aVProp
p922
aVWing
p923
aVHooker
p924
aVScrum-half
p925
aVFlanker
p926
aVScrum-half
p927
aVWing
p928
aVFullback
p929
aVLock
p930
aVLock, Flanker
p931
aVCentre
p932
aVProp
p933
aVFlanker
p934
aVFlanker
p935
aVCentre
p936
aVWing
p937
aVProp
p938
aVNo. 8
p939
aVFlanker
p940
aVWing, Centre
p941
aVFullback
p942
aVScrum-half
p943
aVFullback, Wing
p944
aVCentre
p945
aVScrum-half
p946
aVCentre
p947
aVLock
p948
aVCentre
p949
aVProp
p950
aVBack-row
p951
aVBack-row
p952
aVProp
p953
aVCentre, Wing
p954
aVFly-half
p955
aVScrum-half
p956
aVWing, Fullback
p957
aVBack-row
p958
aVScrum-half
p959
aVWing
p960
aVFullback
p961
aVProp
p962
aVHooker
p963
aVLock
p964
aVProp
p965
aVHooker
p966
aVLock
p967
aVFly-half
p968
aVLock
p969
aVFlanker
p970
aVWing
p971
aVLock
p972
aVLock
p973
aVFullback, Fly-half
p974
aVProp
p975
aVWing
p976
aVFlanker
p977
aVHooker
p978
aVFullback
p979
aVBack-row
p980
aVWing
p981
aVBack-row
p982
aVLock, Flanker
p983
aVNo. 8
p984
aVScrum-half
p985
aVLock
p986
aVHooker
p987
aVCentre
p988
aVWing, Centre
p989
aVBack-row
p990
aVHooker
p991
aVWing
p992
aVHooker
p993
aVScrum-half
p994
aVScrum-half
p995
aVProp
p996
aVCentre
p997
aVFlanker
p998
aVFullback, Wing
p999
aVNo. 8
p1000
aVOutside back
p1001
aVProp
p1002
aVWing, Centre
p1003
aVScrum-half
p1004
aVFlanker
p1005
aVFullback, Wing
p1006
aVUtility back
p1007
aVFlanker, Lock
p1008
aVProp
p1009
aVCentre
p1010
aVWing
p1011
aVFly-half
p1012
aVBack-row
p1013
aVBack-row
p1014
aVCentre
p1015
aVLock
p1016
aVProp
p1017
aVWing, Fullback
p1018
aVProp
p1019
aVFly-half
p1020
aVHooker
p1021
aVBack-row
p1022
aVLock, Back-row
p1023
aVHooker
p1024
aVLock
p1025
aVBack-row
p1026
aVBack-row
p1027
aVHooker
p1028
aVLock
p1029
aVWing, Centre
p1030
aVLock
p1031
aVUtility back
p1032
aVScrum-half
p1033
aVBack-row
p1034
aVProp
p1035
aVWing
p1036
aVProp
p1037
aVHooker
p1038
aVProp
p1039
aVLock
p1040
aVProp
p1041
aVWing
p1042
aVFly-half
p1043
aVCentre
p1044
aVFly-half
p1045
aVProp
p1046
aVScrum-half
p1047
aVFullback, Centre
p1048
aVFly-half
p1049
aVProp
p1050
aVBack-row
p1051
aVHooker
p1052
aVCentre
p1053
aVProp
p1054
aVFullback, Wing
p1055
aVProp
p1056
aVFlanker
p1057
aVNo. 8
p1058
aVProp
p1059
aVScrum-half
p1060
aVProp
p1061
aVHooker
p1062
aVFly-half, Centre
p1063
aVFullback
p1064
aVLock
p1065
aVFlanker
p1066
aVFlanker
p1067
a.