(lp1
Vcirca 1847, Derbyshire
p2
aVMarch 28, 1849, London
p3
aVMay 28, 1848, Perth
p4
aVAugust 24, 1848, Liverpool
p5
aVOctober 21, 1848, Cork
p6
aVMay 5, 1849, Oxford
p7
aVOctober 15, 1851, Salford
p8
aVJuly 14, 1844, New Forest, Hampshire
p9
aVApril 28, 1846, W Ham
p10
aVDecember 18, 1845, Lewisham
p11
aVOctober 8, 1848, Great Haseley, Oxon
p12
aVMay 25, 1848, Forest Hill, Kent
p13
aVAugust 4, 1851, W Derby
p14
aV(guess: regd Q2), Chorlton, Lancashire
p15
aVMay 20, 1848, Middleham, Yorks
p16
aVDecember 25, 1848, Kensington, London
p17
aVJuly 12, 1850, Greenwich
p18
aVSeptember 23, 1849, Liverpool
p19
aVDecember 15, 1846, Calcutta
p20
aVJanuary 23, 1850, Wartling, Sussex
p21
aVMay 18, 1846, Hentland, Hereford
p22
aVSeptember 3, 1846, Tenterden, Kent
p23
aVJuly 28, 1850, Cawnpore
p24
aVMay 3, 1849, Kent
p25
aVDecember 11, 1849, Meerut, Bengal
p26
aVSeptember 8, 1852, Marylebone
p27
aVJanuary 15, 1850, Dursley, Glos
p28
aVOctober 16, 1852, Berkshire
p29
aVNovember 23, 1849, Norwood, Surrey
p30
aVDecember 17, 1850, Guildford
p31
aVMay 5, 1849, Chertsey
p32
aVNovember 14, 1850, Shoreham-by-Sea, Sx
p33
aVMarch 24, 1851, Gravesend
p34
aVDecember 16, 1847, Hampstead
p35
aVMarch 16, 1853, St Georges H, London
p36
aVOctober 24, 1848, Hackney
p37
aVDecember 10, 1851, Kensington
p38
aVMarch 17, 1848, Lahore
p39
aVSeptember 8, 1850
p40
aVOctober 7, 1852, Goldalming
p41
aVJune 1, 1854, Birmingham
p42
aVJanuary 11, 1854, Jeypon
p43
aVJuly 14, 1852, Epsom
p44
aVJuly 1, 1853, Kandy, Ceylon
p45
aVFebruary 28, 1853, Almora, Kumaon
p46
aVMay 30, 1855, Haslingden, Lancs
p47
aVMay 3, 1854, Banbury
p48
aVOctober 14, 1853, Monghyr
p49
aVJune 13, 1854, Bushey, Herts
p50
aVApril 20, 1854, Llanfyllin
p51
aVJuly 17, 1849, Ardwick, Manchester
p52
aVJune 20, 1852, Eton, Bucks
p53
aVDecember 3, 1854, Lt.Marlow, Bucks
p54
aVOctober 3, 1852, Shirburn Castle, Oxon
p55
aVDecember 19, 1854
p56
aVSeptember 18, 1846, Bury
p57
aVSeptember 14, 1852, Newcastle-upon-Tyne
p58
aVApril 2, 1853, Burnside
p59
aVAugust 12, 1853, Wimbledon
p60
aVOctober 31, 1849, Sculcoates
p61
aVSeptember 16, 1852, Headington
p62
aVDecember 20, 1853, Eton
p63
aVNovember 30, 1853, Mount Ridley, VIC
p64
aVSeptember 16, 1851, Llanfyllin
p65
aVFebruary 12, 1856, Greenwich
p66
aVJanuary 1, 1853, St Saviour
p67
aV(guess: regd Q2), Llansoy
p68
aVMay 24, 1853, Tetbury, Glos
p69
aV(guess: regd Q4), Ebbw Vale
p70
aVJune 16, 1852, Banbury
p71
aVSeptember 29, 1849, Liverpool
p72
aVMarch 19, 1857, W Derby
p73
aV(guess: regd Q2), Wimbledon, Surrey
p74
aVFebruary 14, 1851, Macclesfield
p75
aVJanuary 7, 1853, Bishops Waltham
p76
aVSeptember 24, 1851, Futleghur, Punjab
p77
aVJanuary 15, 1857, Salford
p78
aVSeptember 1854, Epping
p79
aVNovember 16, 1855, Wirral
p80
aVMay 29, 1856, Newcastle-under-Lyme
p81
aVMay 11, 1854, Preston
p82
aVcirca 1856, Charlton
p83
aVSeptember 14, 1855, Chelsea
p84
aVDecember 17, 1855, Bury St Edmunds
p85
aVApril 12, 1856, Bradford
p86
aVOctober 22, 1855, Essex
p87
aV(guess: regd Q3), Watford, Herts
p88
aVJune 13, 1858, Cottingham
p89
aVFebruary 10, 1847, Blackburn
p90
aVApril 25, 1856, Poona
p91
aV(guess: regd Q2), Wirral, Cheshire
p92
aVSeptember 16, 1851, Otley, Yorks
p93
aVFebruary 2, 1853, Nice
p94
aVApril 1847, Bury
p95
aVOctober 25, 1855, Reading
p96
aVAugust 16, 1855, Newbury
p97
aVOctober 20, 1857, Tottenham
p98
aVJanuary 25, 1854, Barnham Broom, Norflk
p99
aVJuly 16, 1855, Sunderland
p100
aVNovember 26, 1856, Skircoat, Yorks
p101
aVJune 20, 1856, Marylebone, London
p102
aVApril 19, 1853, North Elswick
p103
aVDecember 25, 1855, Quebec
p104
aVOctober 14, 1853, Bristol
p105
aVMay 10, 1858, Charlottetown, PEI
p106
aVMarch 16, 1855, Liverpool
p107
aVDecember 4, 1854, Cawnpore
p108
aVAugust 12, 1858, Spanish Town
p109
aV(guess: regd Q4), Langport
p110
aVAugust 29, 1855, Wakefield
p111
aVFebruary 14, 1856, Huddersfield
p112
aVJune 30, 1856, Madras
p113
aVJune 15, 1856, Preston FavershaKent
p114
aV(guess: regd Q2), Chorlton-upon-Medloc
p115
aV(guess: regd Q2), W Derby
p116
aVSeptember 21, 1858, Greenwich
p117
aVMay 2, 1855, Liverpool
p118
aVFebruary 5, 1852, Cape Town
p119
aVFebruary 14, 1853, Bishopsgate, Hants
p120
aVMarch 13, 1859, Lewisham
p121
aVSeptember 15, 1858, Greenwich
p122
aVDecember 3, 1855, Forehoe, Norfolk
p123
aVJanuary 21, 1856, Preston
p124
aVOctober 11, 1852, Thornhill Leer
p125
aVNovember 11, 1856, Salford
p126
aVMarch 10, 1858, Stretford
p127
aVFebruary 2, 1857, Huddersfield
p128
aVMay 4, 1857, Lambeth
p129
aV(guess: regd Q3), Kensington
p130
aVAugust 14, 1857, ?
p131
aVMarch 20, 1856, Rusholme, Manchester
p132
aVApril 3, 1857, Wakefield
p133
aV(guess: regd Q4), Deptford, Kent
p134
aVJune 11, 1856, Wirral
p135
aVSeptember 13, 1861, Chorlton
p136
aVApril 24, 1858, Staines
p137
aVOctober 22, 1860, Tadcaster
p138
aVMay 12, 1859, Roydon, Norfolk
p139
aVJuly 2, 1862, Leigh
p140
aV(guess: regd Q3), Penrith
p141
aVSeptember 14, 1862, Worthing, Sx
p142
aVOctober 4, 1856, Bath
p143
aVFebruary 14, 1858, Longton, Preston
p144
aVDecember 25, 1858, Whitehaven
p145
aVJuly 19, 1856, Camberwell
p146
aVApril 11, 1860, Brentford
p147
aVMarch 19, 1858, Broughton, Lancs
p148
aVJuly 30, 1862, Walsingham
p149
aVSeptember 15, 1859, Llansoy, nr.Usk
p150
aVDecember 11, 1858, Calcutta
p151
aVSeptember 27, 1858, St Thomas, Devon
p152
aVJuly 31, 1862, Coventry
p153
aVDecember 20, 1860, Clapham
p154
aVDecember 7, 1859, Greenwich
p155
aVJanuary 26, 1863, Singleton, NSW
p156
aVDecember 31, 1858, Winchester
p157
aVMay 25, 1862, Dudley
p158
aVAugust 5, 1860, Tonbridge
p159
aVSeptember 5, 1861, Greatham, Durham
p160
aVAugust 26, 1860, Bourn, Lincs
p161
aVJuly 15, 1861, Rensham, Suffolk
p162
aVDecember 27, 1861, Burnham, Somerset
p163
aV(guess: regd Q1), Liverpool
p164
aVNovember 1, 1861, Wakefield
p165
aVNovember 22, 1862, Castle Ward
p166
aVOctober 22, 1860, Broughton, Manchester
p167
aV(guess: regd Q3), Doncaster
p168
aVdate unknown
p169
aVJune 22, 1862, Northwich
p170
aVSeptember 28, 1863, Macclesfield
p171
aVFebruary 3, 1862, Sebergham, Carlisle
p172
aVDecember 12, 1858, Wirral
p173
aV(guess: regd Q1), Manchester
p174
aVMarch 11, 1863, Westoe, S Shields
p175
aV(guess: regd Q3), Pendlebury
p176
aV1862
p177
aVSeptember 28, 1859, Clonmel, Co Tipperary
p178
aVMay 31, 1861, Bishop Wearmouth
p179
aVAugust 29, 1865, Wellington, Somerset
p180
aVMay 17, 1863, Hanover Square
p181
aVDecember 26, 1861, London
p182
aV(guess: regd Q4), Bradford
p183
aVOctober 27, 1863, Bradford
p184
aVFebruary 15, 1864, Blackheath
p185
aVJuly 29, 1864, Tynemouth
p186
aVJune 30, 1863, Clifton
p187
aVNovember 2, 1866, Bombay
p188
aVDecember 27, 1863, Skipton, Yorks
p189
aVJuly 18, 1862, Clapham Common
p190
aVOctober 23, 1865, Tonbridge
p191
aVNovember 11, 1867, Crigglestone
p192
aVJuly 5, 1860, Bury
p193
aVcirca 1860, Lancashire
p194
aVNovember 24, 1862, Calcutta
p195
aVJanuary 17, 1864, Darlington
p196
aVDecember 20, 1865, Newcastle-upon-Tyne
p197
aVSeptember 30, 1862, Ardwick, Machester
p198
aV(guess: regd Q1), Gildersome, Leeds
p199
aVFebruary 5, 1867, Surbiton
p200
aVSeptember 6, 1866, Winshill, Staffs
p201
aVDecember 4, 1866, Bradford
p202
aVMarch 1, 1868, Wakefield
p203
aVNovember 8, 1865, Darlington
p204
aVJanuary 28, 1862, Salford
p205
aVMarch 27, 1870, Gateshead
p206
aVApril 14, 1868, Shibden, nr Halifax
p207
aV(guess: regd Q2), Halifax
p208
aVSeptember 29, 1861, Winchcome
p209
aVOctober 17, 1867, Grensted Hall, Essex
p210
aVJune 12, 1863, Wellington
p211
aVMay 23, 1865, Quebec
p212
aVJuly 30, 1868, Guisborough
p213
aV(guess: regd Q1), Aston
p214
aVJuly 29, 1866, Salford
p215
aVApril 14, 1867, Ashfield, NSW
p216
aVApril 1, 1863, Bramham, Yorks
p217
aVSeptember 6, 1869, Kensington
p218
aVSeptember 6, 1866, Skelmanthorpe
p219
aVApril 20, 1862, Girlington, Bradford
p220
aV(guess: regd Q2), Bradford
p221
aV(guess: regd Q2), Claughton, Cheshire
p222
aVJune 27, 1867, Hartford, Nthumberlnd
p223
aVSeptember 25, 1866, Fellside
p224
aVMay 17, 1868, Tadcaster
p225
aVMarch 31, 1866, Kidbrooke, Blackheath
p226
aVJune 19, 1864, Radford, Nottingham
p227
aVDecember 21, 1865, Kandy, Ceylon
p228
aVNovember 4, 1868, Lewisham
p229
aVAugust 31, 1867, Bedworth, Warks
p230
aVMay 13, 1870, W Derby
p231
aVMay 22, 1869, Clifton
p232
aVApril 2, 1870, Kensington
p233
aVSeptember 12, 1867, Brixton
p234
aVcirca 1869, ?
p235
aVDecember 17, 1866, Wigan
p236
aV(guess: regd Q1), Shipley, Bradford
p237
aVNovember 23, 1867, Benares
p238
aVOctober 30, 1868, Raistrick, Yorks?
p239
aVFebruary 8, 1866, St Helens
p240
aVJune 27, 1871, Inyati, Matabeleland, South Rhodesia
p241
aV(guess: regd Q2), Ashton
p242
aVAugust 16, 1870, Runcorn
p243
aVcirca 1866, ?
p244
aVFebruary 20, 1869, Newcastle-upon-Tyne
p245
aVApril 17, 1868, Bramley, Leeds
p246
aVMarch 10, 1863, Tottington, Lancs
p247
aVNovember 25, 1867, Cleckheaton, Yorks
p248
aVAugust 18, 1871, Bingley
p249
aVSeptember 9, 1868, Hay
p250
aVDecember 16, 1871, Hampstead
p251
aV(guess: regd Q3), Tynemouth
p252
aVJune 13, 1871, Hartlepool
p253
aVDecember 20, 1870, Sunderland
p254
aVAugust 8, 1870, Sudbury
p255
aVOctober 11, 1867, Thornton, Bradford
p256
aVdate unknown
p257
aV(guess: regd Q2), Birkenhead
p258
aVJune 28, 1872, Burton-on-Trent
p259
aVSeptember 12, 1865, Bath
p260
aVMarch 21, 1871, St Pancras, London
p261
aVJune 19, 1871, Penns, Birmingham
p262
aVcirca 1870, Cleckheaton, Yorks
p263
aVJune 20, 1869, Gateshead
p264
aVJune 6, 1869, Stonehouse, Glos
p265
aV(guess: regd Q1), Kingston-upon-Hull
p266
aVAugust 19, 1871, Castleford
p267
aVAugust 17, 1872
p268
aVNovember 14, 1872, Pontefract
p269
aVMarch 5, 1869, Basset Mnt, Sthampton
p270
aVMarch 16, 1870, Gloucester
p271
aVSeptember 23, 1874, ?
p272
aVAugust 12, 1874, New Jersey, United States
p273
aVAugust 17, 1872, St Peterport, Guernsey
p274
aVMarch 23, 1871, Erdington
p275
aVJanuary 20, 1872, Old Charlton, Kent
p276
aVJune 9, 1871, Bedford
p277
aVJuly 9, 1874, Fylde
p278
aVAugust 13, 1872, Market Weighton
p279
aVDecember 17, 1870, Houghton
p280
aVcirca 1874, Barnstaple
p281
aVcirca 1873, Bradford
p282
aVFebruary 1872, Bradford
p283
aVMay 31, 1874, Waverley
p284
aVNovember 29, 1872, Hobart, TAS
p285
aVDecember 2, 1870, Lancaster
p286
aVSeptember 6, 1869, Castleford
p287
aVAugust 11, 1873, Castleford
p288
aVJanuary 29, 1873, Castleford
p289
aVMay 31, 1870, Bury, Yorks
p290
aVAugust 28, 1874, Micklethwaite
p291
aVFebruary 24, 1870, Otley, Yorks
p292
aVApril 3, 1868, Waberthwaite, Cumb.
p293
aVNovember 4, 1874, Hartlepool
p294
aVDecember 18, 1871, Woodbury, Devon
p295
aV(guess: regd Q2), Aston, Birmingham
p296
aVMarch 16, 1874, Milverton, Somerset
p297
aVcirca 1874, Seaton, Cumberland
p298
aVJanuary 4, 1873, Northbourne, Kent
p299
aVFebruary 9, 1874, Guildford
p300
aV(guess: regd Q4), Hartlepool
p301
aVApril 27, 1871, W Derby, Liverpool
p302
aVFebruary 21, 1877, Gloucester
p303
aVAugust 9, 1874, Daventry
p304
aV(guess: regd Q1), Millom, Cumberland
p305
aV(guess: regd Q2), Gateshead
p306
aVMay 26, 1877, Castleford
p307
aVDecember 28, 1868, ?
p308
aVSeptember 4, 1872, Wallsend, Tynemouth
p309
aVAugust 23, 1869, Wakefield
p310
aVOctober 20, 1878, S Shields
p311
aVMay 14, 1875, Seoni
p312
aVFebruary 3, 1875, Leeds
p313
aVMay 30, 1874, W Derby
p314
aVcirca 1871, Huddersfield
p315
aVJune 2, 1871, Fermoy, Co Cork
p316
aVJuly 26, 1877, Prescot
p317
aVSeptember 6, 1873, Harden, Bingley
p318
aVMay 27, 1869, Coventry
p319
aVApril 5, 1874, Rochdale
p320
aVJanuary 2, 1878, Burton
p321
aVNovember 20, 1875, Gloucester
p322
aVJune 1, 1874, Ecclesall Bay
p323
aVJune 27, 1876, O Brompton, Gillinghm
p324
aVDecember 12, 1878, Bath
p325
aVOctober 5, 1878, Chester-le-Street
p326
aVMay 12, 1878, Bristol
p327
aVFebruary 12, 1878, Wellington, Somerset
p328
aVMarch 14, 1878, Gateshead
p329
aVFebruary 24, 1876, Caistor
p330
aVApril 2, 1874, Warrington
p331
aVAugust 5, 1871, Walsend, r Tynemouth
p332
aVJanuary 9, 1876, Chester
p333
aVMarch 25, 1874, Nottingham
p334
aVNovember 10, 1874, Stockport
p335
aVJanuary 30, 1878, Tyldesley
p336
aV(guess: regd Q1), Stoke Damerel
p337
aVMay 4, 1875, Lee, Lewisham
p338
aVJune 8, 1870, Rock Ferry, Cheshire
p339
aVAugust 3, 1876, Cullercoates
p340
aVDecember 19, 1875, Newcastle-upon-Tyne
p341
aVDecember 22, 1877, Egremont, Cheshire
p342
aVJuly 5, 1877, Swine, Hull
p343
aVJanuary 7, 1876, Little Horton, Bradfo
p344
aVOctober 1878, Hoo
p345
aVFebruary 1877, Southampton
p346
aVJuly 17, 1872, Towcester
p347
aVOctober 16, 1880, Morley
p348
aVDecember 13, 1871, W Derby
p349
aVcirca 1874, Lahore
p350
aVAugust 26, 1877, Wimbledon
p351
aVJanuary 6, 1879, Oxton, Cheshire
p352
aVFebruary 15, 1876, Birkenhead
p353
aVSeptember 20, 1873, Forest Hill, London
p354
aVFebruary 27, 1876, Hendon
p355
aVJuly 9, 1878, Roker, Sunderland
p356
aVAugust 3, 1877, Pancras, London
p357
aVOctober 27, 1876, Gateshead
p358
aVJune 1875, Aspatria?
p359
aVcirca 1878, ?
p360
aVNovember 14, 1878, Lowestoft
p361
aVDecember 6, 1878, Easington
p362
aVJuly 18, 1878, Westgate, Gloucester
p363
aVJanuary 6, 1879, Stoke Damerel
p364
aVNovember 1879, York
p365
aVSeptember 1874, Gloucester
p366
aVJanuary 3, 1873, W Derby
p367
aVSeptember 3, 1877, Sunderland
p368
aV(guess: regd Q2), W Derby
p369
aVMarch 16, 1879, Woodford
p370
aVAugust 21, 1878, Prescot
p371
aVAugust 22, 1880, Hartlepool
p372
aVJuly 9, 1869, Potterspury
p373
aVOctober 28, 1880, Douglas, Isle of Ma
p374
aVSeptember 15, 1877, Fulham
p375
aV(guess: regd Q2), Quebec, Co.Durham
p376
aVMay 30, 1876, Monmouth
p377
aVApril 30, 1882, Brussels
p378
aVJanuary 12, 1880, Exeter
p379
aV(guess: regd Q2), Buckfastleigh
p380
aVMay 14, 1880, Stoke Damerel
p381
aVMay 15, 1877, Tynemouth
p382
aVAugust 8, 1881, Newcastle-upon-Tyne
p383
aVcirca 1873, Durham
p384
aVSeptember 10, 1882, The Park, Nottingham
p385
aV(guess: regd Q2), Hartlepool
p386
aVAugust 31, 1881, Oxton, Cheshire
p387
aV(guess: regd Q1), Grimsby
p388
aVOctober 21, 1880, Litherland, Lancs
p389
aVJanuary 2, 1877, Weston-super-Mare
p390
aVApril 23, 1880, Broughty Ferry
p391
aVJune 22, 1879, Churt, Frensham, Sy
p392
aVFebruary 2, 1878, Tooting Graveney, Sy
p393
aVFebruary 15, 1881, Penge, Kent
p394
aVJuly 8, 1883, Assam
p395
aVOctober 13, 1878, Peterborough
p396
aVMay 1, 1885, Cape Colony
p397
aVcirca 1877, Lewisham
p398
aVJanuary 12, 1881, Tunbridge Wells
p399
aVNovember 24, 1882, Croydon
p400
aVJanuary 30, 1880, Gateshead
p401
aV(guess: regd Q3), Hartlepool
p402
aV(guess: regd Q3), Cardigan
p403
aVAugust 6, 1877, Hereford
p404
aVSeptember 20, 1878, Pewsey, Wilts
p405
aVSeptember 17, 1881, Skipton?
p406
aVJanuary 9, 1885, Redruth
p407
aVApril 26, 1881, Keynsham
p408
aVMay 9, 1881, Kensington
p409
aVMay 25, 1879, Chard
p410
aVOctober 3, 1879, Pontefract
p411
aVFebruary 26, 1880, Camberwell
p412
aVMarch 27, 1883, Kensington
p413
aVApril 21, 1873, Leeds
p414
aVJanuary 9, 1883, Llandovery
p415
aVMay 10, 1880, St Helier, Jersey
p416
aVApril 7, 1878, Preston
p417
aV(guess: regd Q3), Durham
p418
aVJuly 4, 1878, Falmouth
p419
aVApril 5, 1879, Bingham
p420
aV(guess: regd Q4), Durham
p421
aVJuly 21, 1884, Castlecomer, Kildare
p422
aVJanuary 22, 1886, Mansfield Woodhouse
p423
aVOctober 27, 1882, Gloucester
p424
aVJanuary 20, 1882, Chidcock, Dorset
p425
aVAugust 15, 1882, Tiverton
p426
aVSeptember 13, 1882, Tynemouth
p427
aVFebruary 2, 1879, Stoke Damerel
p428
aV(guess: regd Q2), Stockton-on-Tees
p429
aVJanuary 7, 1884, Cape Colony
p430
aVMarch 5, 1881, Landkey, Devon
p431
aVDecember 27, 1884, Richmond
p432
aVOctober 29, 1882, Bridgwater
p433
aVAugust 7, 1879, Salford
p434
aVAugust 1, 1879, Wolverhampton
p435
aVFebruary 16, 1878, Hartlepool
p436
aVAugust 18, 1882, Woolstanton, Staffs
p437
aVMay 1, 1883, Cape Town
p438
aVJune 22, 1884, Wirral
p439
aVAugust 27, 1883, Grahamstown
p440
aVOctober 4, 1883, Cranbrook
p441
aVDecember 8, 1882, Dewsbury
p442
aVDecember 12, 1880, Carlisle
p443
aVDecember 25, 1886, Stratford
p444
aV(guess: regd Q3), Penzance
p445
aVJanuary 9, 1886, Perth, WA
p446
aVFebruary 22, 1881, Leigh
p447
aVMarch 24, 1885, Dewsbury
p448
aVJune 22, 1885, Brisbane, QLD
p449
aVSeptember 12, 1879, Partaferry, Co Down
p450
aVAugust 27, 1886, Exeter
p451
aVMay 17, 1879, Salford
p452
aVDecember 1878, Hartlepool
p453
aVJuly 24, 1882, Hackney
p454
aV(guess: regd Q1), Hartlepool
p455
aVFebruary 5, 1883, Nantwich
p456
aVJune 7, 1883, Morpeth, NSW
p457
aVMay 9, 1885, Antananarivo
p458
aVNovember 27, 1883, Wolverhampton
p459
a.