(lp1
VScotland v England at Edinburgh, Mar 27, 1871
p2
aVScotland v England at Edinburgh, Mar 27, 1871
p3
aVScotland v England at Edinburgh, Mar 27, 1871
p4
aVScotland v England at Edinburgh, Mar 27, 1871
p5
aVScotland v England at Edinburgh, Mar 27, 1871
p6
aVScotland v England at Edinburgh, Mar 27, 1871
p7
aVScotland v England at Edinburgh, Mar 27, 1871
p8
aVScotland v England at Edinburgh, Mar 27, 1871
p9
aVScotland v England at Edinburgh, Mar 27, 1871
p10
aVScotland v England at Edinburgh, Mar 27, 1871
p11
aVScotland v England at Edinburgh, Mar 27, 1871
p12
aVScotland v England at Edinburgh, Mar 27, 1871
p13
aVScotland v England at Edinburgh, Mar 27, 1871
p14
aVScotland v England at Edinburgh, Mar 27, 1871
p15
aVScotland v England at Edinburgh, Mar 27, 1871
p16
aVScotland v England at Edinburgh, Mar 27, 1871
p17
aVScotland v England at Edinburgh, Mar 27, 1871
p18
aVScotland v England at Edinburgh, Mar 27, 1871
p19
aVScotland v England at Edinburgh, Mar 27, 1871
p20
aVScotland v England at Edinburgh, Mar 27, 1871
p21
aVEngland v Scotland at The Oval, Feb 5, 1872
p22
aVEngland v Scotland at The Oval, Feb 5, 1872
p23
aVEngland v Scotland at The Oval, Feb 5, 1872
p24
aVEngland v Scotland at The Oval, Feb 5, 1872
p25
aVEngland v Scotland at The Oval, Feb 5, 1872
p26
aVEngland v Scotland at The Oval, Feb 5, 1872
p27
aVEngland v Scotland at The Oval, Feb 5, 1872
p28
aVEngland v Scotland at The Oval, Feb 5, 1872
p29
aVEngland v Scotland at The Oval, Feb 5, 1872
p30
aVEngland v Scotland at The Oval, Feb 5, 1872
p31
aVEngland v Scotland at The Oval, Feb 5, 1872
p32
aVEngland v Scotland at The Oval, Feb 5, 1872
p33
aVEngland v Scotland at The Oval, Feb 5, 1872
p34
aVEngland v Scotland at The Oval, Feb 5, 1872
p35
aVScotland v England at Glasgow, Mar 3, 1873
p36
aVScotland v England at Glasgow, Mar 3, 1873
p37
aVScotland v England at Glasgow, Mar 3, 1873
p38
aVScotland v England at Glasgow, Mar 3, 1873
p39
aVScotland v England at Glasgow, Mar 3, 1873
p40
aVScotland v England at Glasgow, Mar 3, 1873
p41
aVScotland v England at Glasgow, Mar 3, 1873
p42
aVScotland v England at Glasgow, Mar 3, 1873
p43
aVScotland v England at Glasgow, Mar 3, 1873
p44
aVScotland v England at Glasgow, Mar 3, 1873
p45
aVEngland v Scotland at The Oval, Feb 23, 1874
p46
aVEngland v Scotland at The Oval, Feb 23, 1874
p47
aVEngland v Scotland at The Oval, Feb 23, 1874
p48
aVEngland v Scotland at The Oval, Feb 23, 1874
p49
aVEngland v Scotland at The Oval, Feb 23, 1874
p50
aVEngland v Scotland at The Oval, Feb 23, 1874
p51
aVEngland v Scotland at The Oval, Feb 23, 1874
p52
aVEngland v Scotland at The Oval, Feb 23, 1874
p53
aVEngland v Scotland at The Oval, Feb 23, 1874
p54
aVEngland v Scotland at The Oval, Feb 23, 1874
p55
aVEngland v Scotland at The Oval, Feb 23, 1874
p56
aVEngland v Scotland at The Oval, Feb 23, 1874
p57
aVEngland v Ireland at The Oval, Feb 15, 1875
p58
aVEngland v Ireland at The Oval, Feb 15, 1875
p59
aVEngland v Ireland at The Oval, Feb 15, 1875
p60
aVEngland v Ireland at The Oval, Feb 15, 1875
p61
aVEngland v Ireland at The Oval, Feb 15, 1875
p62
aVEngland v Ireland at The Oval, Feb 15, 1875
p63
aVEngland v Ireland at The Oval, Feb 15, 1875
p64
aVEngland v Ireland at The Oval, Feb 15, 1875
p65
aVEngland v Ireland at The Oval, Feb 15, 1875
p66
aVScotland v England at Edinburgh, Mar 8, 1875
p67
aVScotland v England at Edinburgh, Mar 8, 1875
p68
aVScotland v England at Edinburgh, Mar 8, 1875
p69
aVIreland v England at Dublin, Dec 13, 1875
p70
aVIreland v England at Dublin, Dec 13, 1875
p71
aVIreland v England at Dublin, Dec 13, 1875
p72
aVIreland v England at Dublin, Dec 13, 1875
p73
aVIreland v England at Dublin, Dec 13, 1875
p74
aVIreland v England at Dublin, Dec 13, 1875
p75
aVIreland v England at Dublin, Dec 13, 1875
p76
aVIreland v England at Dublin, Dec 13, 1875
p77
aVIreland v England at Dublin, Dec 13, 1875
p78
aVIreland v England at Dublin, Dec 13, 1875
p79
aVIreland v England at Dublin, Dec 13, 1875
p80
aVEngland v Scotland at The Oval, Mar 6, 1876
p81
aVEngland v Scotland at The Oval, Mar 6, 1876
p82
aVEngland v Scotland at The Oval, Mar 6, 1876
p83
aVEngland v Scotland at The Oval, Mar 6, 1876
p84
aVEngland v Scotland at The Oval, Mar 6, 1876
p85
aVEngland v Scotland at The Oval, Mar 6, 1876
p86
aVEngland v Scotland at The Oval, Mar 6, 1876
p87
aVEngland v Ireland at The Oval, Feb 5, 1877
p88
aVEngland v Ireland at The Oval, Feb 5, 1877
p89
aVEngland v Ireland at The Oval, Feb 5, 1877
p90
aVEngland v Ireland at The Oval, Feb 5, 1877
p91
aVEngland v Ireland at The Oval, Feb 5, 1877
p92
aVScotland v England at Edinburgh, Mar 5, 1877
p93
aVScotland v England at Edinburgh, Mar 5, 1877
p94
aVScotland v England at Edinburgh, Mar 5, 1877
p95
aVEngland v Scotland at The Oval, Mar 4, 1878
p96
aVEngland v Scotland at The Oval, Mar 4, 1878
p97
aVEngland v Scotland at The Oval, Mar 4, 1878
p98
aVEngland v Scotland at The Oval, Mar 4, 1878
p99
aVEngland v Scotland at The Oval, Mar 4, 1878
p100
aVEngland v Scotland at The Oval, Mar 4, 1878
p101
aVEngland v Scotland at The Oval, Mar 4, 1878
p102
aVIreland v England at Lansdowne Road, Mar 11, 1878
p103
aVIreland v England at Lansdowne Road, Mar 11, 1878
p104
aVIreland v England at Lansdowne Road, Mar 11, 1878
p105
aVIreland v England at Lansdowne Road, Mar 11, 1878
p106
aVIreland v England at Lansdowne Road, Mar 11, 1878
p107
aVIreland v England at Lansdowne Road, Mar 11, 1878
p108
aVIreland v England at Lansdowne Road, Mar 11, 1878
p109
aVIreland v England at Lansdowne Road, Mar 11, 1878
p110
aVScotland v England at Edinburgh, Mar 10, 1879
p111
aVScotland v England at Edinburgh, Mar 10, 1879
p112
aVScotland v England at Edinburgh, Mar 10, 1879
p113
aVScotland v England at Edinburgh, Mar 10, 1879
p114
aVScotland v England at Edinburgh, Mar 10, 1879
p115
aVScotland v England at Edinburgh, Mar 10, 1879
p116
aVScotland v England at Edinburgh, Mar 10, 1879
p117
aVEngland v Ireland at The Oval, Mar 24, 1879
p118
aVEngland v Ireland at The Oval, Mar 24, 1879
p119
aVEngland v Ireland at The Oval, Mar 24, 1879
p120
aVIreland v England at Lansdowne Road, Feb 2, 1880
p121
aVIreland v England at Lansdowne Road, Feb 2, 1880
p122
aVIreland v England at Lansdowne Road, Feb 2, 1880
p123
aVIreland v England at Lansdowne Road, Feb 2, 1880
p124
aVIreland v England at Lansdowne Road, Feb 2, 1880
p125
aVIreland v England at Lansdowne Road, Feb 2, 1880
p126
aVIreland v England at Lansdowne Road, Feb 2, 1880
p127
aVIreland v England at Lansdowne Road, Feb 2, 1880
p128
aVEngland v Scotland at Manchester, Feb 28, 1880
p129
aVEngland v Scotland at Manchester, Feb 28, 1880
p130
aVEngland v Scotland at Manchester, Feb 28, 1880
p131
aVEngland v Scotland at Manchester, Feb 28, 1880
p132
aVEngland v Ireland at Manchester, Feb 5, 1881
p133
aVEngland v Ireland at Manchester, Feb 5, 1881
p134
aVEngland v Ireland at Manchester, Feb 5, 1881
p135
aVEngland v Ireland at Manchester, Feb 5, 1881
p136
aVEngland v Ireland at Manchester, Feb 5, 1881
p137
aVEngland v Wales at Blackheath, Feb 19, 1881
p138
aVEngland v Wales at Blackheath, Feb 19, 1881
p139
aVScotland v England at Edinburgh, Mar 19, 1881
p140
aVIreland v England at Lansdowne Road, Feb 6, 1882
p141
aVIreland v England at Lansdowne Road, Feb 6, 1882
p142
aVIreland v England at Lansdowne Road, Feb 6, 1882
p143
aVIreland v England at Lansdowne Road, Feb 6, 1882
p144
aVIreland v England at Lansdowne Road, Feb 6, 1882
p145
aVIreland v England at Lansdowne Road, Feb 6, 1882
p146
aVEngland v Scotland at Manchester, Mar 4, 1882
p147
aVEngland v Scotland at Manchester, Mar 4, 1882
p148
aVEngland v Scotland at Manchester, Mar 4, 1882
p149
aVWales v England at Swansea, Dec 16, 1882
p150
aVWales v England at Swansea, Dec 16, 1882
p151
aVWales v England at Swansea, Dec 16, 1882
p152
aVWales v England at Swansea, Dec 16, 1882
p153
aVWales v England at Swansea, Dec 16, 1882
p154
aVWales v England at Swansea, Dec 16, 1882
p155
aVWales v England at Swansea, Dec 16, 1882
p156
aVWales v England at Swansea, Dec 16, 1882
p157
aVEngland v Ireland at Manchester, Feb 5, 1883
p158
aVEngland v Ireland at Manchester, Feb 5, 1883
p159
aVScotland v England at Edinburgh, Mar 3, 1883
p160
aVEngland v Wales at Leeds, Jan 5, 1884
p161
aVEngland v Wales at Leeds, Jan 5, 1884
p162
aVEngland v Wales at Leeds, Jan 5, 1884
p163
aVIreland v England at Lansdowne Road, Feb 4, 1884
p164
aVIreland v England at Lansdowne Road, Feb 4, 1884
p165
aVIreland v England at Lansdowne Road, Feb 4, 1884
p166
aVIreland v England at Lansdowne Road, Feb 4, 1884
p167
aVIreland v England at Lansdowne Road, Feb 4, 1884
p168
aVIreland v England at Lansdowne Road, Feb 4, 1884
p169
aVWales v England at Swansea, Jan 3, 1885
p170
aVWales v England at Swansea, Jan 3, 1885
p171
aVWales v England at Swansea, Jan 3, 1885
p172
aVWales v England at Swansea, Jan 3, 1885
p173
aVWales v England at Swansea, Jan 3, 1885
p174
aVWales v England at Swansea, Jan 3, 1885
p175
aVEngland v Ireland at Manchester, Feb 7, 1885
p176
aVEngland v Wales at Blackheath, Jan 2, 1886
p177
aVEngland v Wales at Blackheath, Jan 2, 1886
p178
aVEngland v Wales at Blackheath, Jan 2, 1886
p179
aVEngland v Wales at Blackheath, Jan 2, 1886
p180
aVEngland v Wales at Blackheath, Jan 2, 1886
p181
aVEngland v Wales at Blackheath, Jan 2, 1886
p182
aVEngland v Wales at Blackheath, Jan 2, 1886
p183
aVEngland v Wales at Blackheath, Jan 2, 1886
p184
aVIreland v England at Lansdowne Road, Feb 6, 1886
p185
aVScotland v England at Edinburgh, Mar 13, 1886
p186
aVWales v England at Llanelli, Jan 8, 1887
p187
aVWales v England at Llanelli, Jan 8, 1887
p188
aVWales v England at Llanelli, Jan 8, 1887
p189
aVWales v England at Llanelli, Jan 8, 1887
p190
aVWales v England at Llanelli, Jan 8, 1887
p191
aVWales v England at Llanelli, Jan 8, 1887
p192
aVWales v England at Llanelli, Jan 8, 1887
p193
aVWales v England at Llanelli, Jan 8, 1887
p194
aVIreland v England at Lansdowne Road, Feb 5, 1887
p195
aVIreland v England at Lansdowne Road, Feb 5, 1887
p196
aVIreland v England at Lansdowne Road, Feb 5, 1887
p197
aVEngland v New Zealand Natives at Blackheath, Feb 16, 1889
p198
aVEngland v New Zealand Natives at Blackheath, Feb 16, 1889
p199
aVEngland v New Zealand Natives at Blackheath, Feb 16, 1889
p200
aVEngland v New Zealand Natives at Blackheath, Feb 16, 1889
p201
aVEngland v New Zealand Natives at Blackheath, Feb 16, 1889
p202
aVEngland v New Zealand Natives at Blackheath, Feb 16, 1889
p203
aVEngland v New Zealand Natives at Blackheath, Feb 16, 1889
p204
aVEngland v New Zealand Natives at Blackheath, Feb 16, 1889
p205
aVEngland v New Zealand Natives at Blackheath, Feb 16, 1889
p206
aVEngland v New Zealand Natives at Blackheath, Feb 16, 1889
p207
aVEngland v New Zealand Natives at Blackheath, Feb 16, 1889
p208
aVEngland v New Zealand Natives at Blackheath, Feb 16, 1889
p209
aVEngland v Wales at Dewsbury, Feb 15, 1890
p210
aVEngland v Wales at Dewsbury, Feb 15, 1890
p211
aVEngland v Wales at Dewsbury, Feb 15, 1890
p212
aVEngland v Wales at Dewsbury, Feb 15, 1890
p213
aVEngland v Wales at Dewsbury, Feb 15, 1890
p214
aVEngland v Wales at Dewsbury, Feb 15, 1890
p215
aVEngland v Wales at Dewsbury, Feb 15, 1890
p216
aVEngland v Wales at Dewsbury, Feb 15, 1890
p217
aVScotland v England at Edinburgh, Mar 1, 1890
p218
aVScotland v England at Edinburgh, Mar 1, 1890
p219
aVScotland v England at Edinburgh, Mar 1, 1890
p220
aVScotland v England at Edinburgh, Mar 1, 1890
p221
aVEngland v Ireland at Blackheath, Mar 15, 1890
p222
aVWales v England at Newport, Jan 3, 1891
p223
aVWales v England at Newport, Jan 3, 1891
p224
aVWales v England at Newport, Jan 3, 1891
p225
aVWales v England at Newport, Jan 3, 1891
p226
aVWales v England at Newport, Jan 3, 1891
p227
aVWales v England at Newport, Jan 3, 1891
p228
aVWales v England at Newport, Jan 3, 1891
p229
aVWales v England at Newport, Jan 3, 1891
p230
aVWales v England at Newport, Jan 3, 1891
p231
aVIreland v England at Lansdowne Road, Feb 7, 1891
p232
aVEngland v Scotland at Richmond, Mar 7, 1891
p233
aVEngland v Wales at Blackheath, Jan 2, 1892
p234
aVEngland v Wales at Blackheath, Jan 2, 1892
p235
aVEngland v Wales at Blackheath, Jan 2, 1892
p236
aVEngland v Wales at Blackheath, Jan 2, 1892
p237
aVEngland v Wales at Blackheath, Jan 2, 1892
p238
aVEngland v Wales at Blackheath, Jan 2, 1892
p239
aVEngland v Wales at Blackheath, Jan 2, 1892
p240
aVEngland v Wales at Blackheath, Jan 2, 1892
p241
aVEngland v Ireland at Manchester, Feb 6, 1892
p242
aVEngland v Ireland at Manchester, Feb 6, 1892
p243
aVScotland v Wales at Edinburgh, Feb 2, 1889
p244
aVEngland v Ireland at Manchester, Feb 6, 1892
p245
aVScotland v England at Edinburgh, Mar 5, 1892
p246
aVScotland v England at Edinburgh, Mar 5, 1892
p247
aVScotland v England at Edinburgh, Mar 5, 1892
p248
aVWales v England at Cardiff, Jan 7, 1893
p249
aVWales v England at Cardiff, Jan 7, 1893
p250
aVWales v England at Cardiff, Jan 7, 1893
p251
aVWales v England at Cardiff, Jan 7, 1893
p252
aVWales v England at Cardiff, Jan 7, 1893
p253
aVSouth Africa v Great Britain at Kimberley, Aug 29, 1891
p254
aVWales v England at Cardiff, Jan 7, 1893
p255
aVIreland v England at Lansdowne Road, Feb 4, 1893
p256
aVIreland v England at Lansdowne Road, Feb 4, 1893
p257
aVEngland v Scotland at Leeds, Mar 4, 1893
p258
aVEngland v Scotland at Leeds, Mar 4, 1893
p259
aVEngland v Scotland at Leeds, Mar 4, 1893
p260
aVEngland v Scotland at Leeds, Mar 4, 1893
p261
aVEngland v Wales at Birkenhead, Jan 6, 1894
p262
aVEngland v Wales at Birkenhead, Jan 6, 1894
p263
aVEngland v Wales at Birkenhead, Jan 6, 1894
p264
aVEngland v Wales at Birkenhead, Jan 6, 1894
p265
aVEngland v Wales at Birkenhead, Jan 6, 1894
p266
aVEngland v Wales at Birkenhead, Jan 6, 1894
p267
aVEngland v Wales at Birkenhead, Jan 6, 1894
p268
aVEngland v Ireland at Blackheath, Feb 3, 1894
p269
aVScotland v England at Edinburgh, Mar 17, 1894
p270
aVScotland v England at Edinburgh, Mar 17, 1894
p271
aVScotland v England at Edinburgh, Mar 17, 1894
p272
aVWales v England at Swansea, Jan 5, 1895
p273
aVWales v England at Swansea, Jan 5, 1895
p274
aVWales v England at Swansea, Jan 5, 1895
p275
aVWales v England at Swansea, Jan 5, 1895
p276
aVWales v England at Swansea, Jan 5, 1895
p277
aVWales v England at Swansea, Jan 5, 1895
p278
aVWales v England at Swansea, Jan 5, 1895
p279
aVWales v England at Swansea, Jan 5, 1895
p280
aVWales v England at Swansea, Jan 5, 1895
p281
aVWales v England at Swansea, Jan 5, 1895
p282
aVEngland v Scotland at Richmond, Mar 9, 1895
p283
aVEngland v Wales at Blackheath, Jan 4, 1896
p284
aVEngland v Wales at Blackheath, Jan 4, 1896
p285
aVEngland v Wales at Blackheath, Jan 4, 1896
p286
aVEngland v Wales at Blackheath, Jan 4, 1896
p287
aVEngland v Wales at Blackheath, Jan 4, 1896
p288
aVEngland v Wales at Blackheath, Jan 4, 1896
p289
aVEngland v Wales at Blackheath, Jan 4, 1896
p290
aVScotland v England at Glasgow, Mar 14, 1896
p291
aVScotland v England at Glasgow, Mar 14, 1896
p292
aVScotland v England at Glasgow, Mar 14, 1896
p293
aVScotland v England at Glasgow, Mar 14, 1896
p294
aVWales v England at Newport, Jan 9, 1897
p295
aVWales v England at Newport, Jan 9, 1897
p296
aVWales v England at Newport, Jan 9, 1897
p297
aVWales v England at Newport, Jan 9, 1897
p298
aVWales v England at Newport, Jan 9, 1897
p299
aVWales v England at Newport, Jan 9, 1897
p300
aVWales v England at Newport, Jan 9, 1897
p301
aVWales v England at Newport, Jan 9, 1897
p302
aVWales v England at Newport, Jan 9, 1897
p303
aVIreland v England at Lansdowne Road, Feb 6, 1897
p304
aVIreland v England at Lansdowne Road, Feb 6, 1897
p305
aVIreland v England at Lansdowne Road, Feb 6, 1897
p306
aVIreland v England at Lansdowne Road, Feb 6, 1897
p307
aVEngland v Scotland at Manchester, Mar 13, 1897
p308
aVEngland v Scotland at Manchester, Mar 13, 1897
p309
aVSouth Africa v Great Britain at Port Elizabeth, Jul 30, 1896
p310
aVEngland v Ireland at Richmond, Feb 5, 1898
p311
aVEngland v Ireland at Richmond, Feb 5, 1898
p312
aVEngland v Ireland at Richmond, Feb 5, 1898
p313
aVEngland v Ireland at Richmond, Feb 5, 1898
p314
aVEngland v Ireland at Richmond, Feb 5, 1898
p315
aVEngland v Ireland at Richmond, Feb 5, 1898
p316
aVScotland v England at Edinburgh, Mar 12, 1898
p317
aVScotland v England at Edinburgh, Mar 12, 1898
p318
aVSouth Africa v Great Britain at Port Elizabeth, Jul 30, 1891
p319
aVScotland v England at Edinburgh, Mar 12, 1898
p320
aVScotland v England at Edinburgh, Mar 12, 1898
p321
aVScotland v England at Edinburgh, Mar 12, 1898
p322
aVScotland v England at Edinburgh, Mar 12, 1898
p323
aVEngland v Wales at Blackheath, Apr 2, 1898
p324
aVWales v England at Swansea, Jan 7, 1899
p325
aVWales v England at Swansea, Jan 7, 1899
p326
aVWales v England at Swansea, Jan 7, 1899
p327
aVWales v England at Swansea, Jan 7, 1899
p328
aVWales v England at Swansea, Jan 7, 1899
p329
aVWales v England at Swansea, Jan 7, 1899
p330
aVSouth Africa v Great Britain at Port Elizabeth, Jul 30, 1896
p331
aVIreland v England at Lansdowne Road, Feb 4, 1899
p332
aVIreland v England at Lansdowne Road, Feb 4, 1899
p333
aVIreland v England at Lansdowne Road, Feb 4, 1899
p334
aVEngland v Scotland at Blackheath, Mar 11, 1899
p335
aVEngland v Scotland at Blackheath, Mar 11, 1899
p336
aVEngland v Scotland at Blackheath, Mar 11, 1899
p337
aVEngland v Scotland at Blackheath, Mar 11, 1899
p338
aVEngland v Wales at Gloucester, Jan 6, 1900
p339
aVEngland v Wales at Gloucester, Jan 6, 1900
p340
aVEngland v Wales at Gloucester, Jan 6, 1900
p341
aVEngland v Wales at Gloucester, Jan 6, 1900
p342
aVEngland v Wales at Gloucester, Jan 6, 1900
p343
aVEngland v Wales at Gloucester, Jan 6, 1900
p344
aVEngland v Wales at Gloucester, Jan 6, 1900
p345
aVEngland v Wales at Gloucester, Jan 6, 1900
p346
aVAustralia v Great Britain at Sydney, Jun 24, 1899
p347
aVEngland v Wales at Gloucester, Jan 6, 1900
p348
aVAustralia v Great Britain at Sydney, Aug 5, 1899
p349
aVEngland v Wales at Gloucester, Jan 6, 1900
p350
aVEngland v Wales at Gloucester, Jan 6, 1900
p351
aVEngland v Ireland at Richmond, Feb 3, 1900
p352
aVEngland v Ireland at Richmond, Feb 3, 1900
p353
aVSouth Africa v Great Britain at Port Elizabeth, Jul 30, 1896
p354
aVScotland v England at Inverleith, Mar 10, 1900
p355
aVWales v England at Cardiff, Jan 5, 1901
p356
aVWales v England at Cardiff, Jan 5, 1901
p357
aVWales v England at Cardiff, Jan 5, 1901
p358
aVWales v England at Cardiff, Jan 5, 1901
p359
aVWales v England at Cardiff, Jan 5, 1901
p360
aVWales v England at Cardiff, Jan 5, 1901
p361
aVWales v England at Cardiff, Jan 5, 1901
p362
aVWales v England at Cardiff, Jan 5, 1901
p363
aVWales v England at Cardiff, Jan 5, 1901
p364
aVWales v England at Cardiff, Jan 5, 1901
p365
aVIreland v England at Lansdowne Road, Feb 9, 1901
p366
aVIreland v England at Lansdowne Road, Feb 9, 1901
p367
aVEngland v Scotland at Blackheath, Mar 9, 1901
p368
aVEngland v Scotland at Blackheath, Mar 9, 1901
p369
aVEngland v Scotland at Blackheath, Mar 9, 1901
p370
aVEngland v Scotland at Blackheath, Mar 9, 1901
p371
aVEngland v Scotland at Blackheath, Mar 9, 1901
p372
aVEngland v Scotland at Blackheath, Mar 9, 1901
p373
aVEngland v Wales at Blackheath, Jan 11, 1902
p374
aVEngland v Wales at Blackheath, Jan 11, 1902
p375
aVEngland v Wales at Blackheath, Jan 11, 1902
p376
aVEngland v Wales at Blackheath, Jan 11, 1902
p377
aVEngland v Wales at Blackheath, Jan 11, 1902
p378
aVEngland v Wales at Blackheath, Jan 11, 1902
p379
aVEngland v Wales at Blackheath, Jan 11, 1902
p380
aVEngland v Wales at Blackheath, Jan 11, 1902
p381
aVEngland v Ireland at Leicester, Feb 8, 1902
p382
aVScotland v England at Inverleith, Mar 15, 1902
p383
aVWales v England at Swansea, Jan 10, 1903
p384
aVWales v England at Swansea, Jan 10, 1903
p385
aVWales v England at Swansea, Jan 10, 1903
p386
aVWales v England at Swansea, Jan 10, 1903
p387
aVWales v England at Swansea, Jan 10, 1903
p388
aVWales v England at Swansea, Jan 10, 1903
p389
aVIreland v England at Lansdowne Road, Feb 14, 1903
p390
aVIreland v England at Lansdowne Road, Feb 14, 1903
p391
aVEngland v Scotland at Richmond, Mar 21, 1903
p392
aVEngland v Scotland at Richmond, Mar 21, 1903
p393
aVEngland v Wales at Leicester, Jan 9, 1904
p394
aVSouth Africa v Great Britain at Johannesburg, Aug 26, 1903
p395
aVEngland v Wales at Leicester, Jan 9, 1904
p396
aVEngland v Wales at Leicester, Jan 9, 1904
p397
aVEngland v Wales at Leicester, Jan 9, 1904
p398
aVEngland v Wales at Leicester, Jan 9, 1904
p399
aVSouth Africa v Great Britain at Johannesburg, Aug 26, 1903
p400
aVSouth Africa v Great Britain at Johannesburg, Aug 26, 1903
p401
aVWales v England at Cardiff, Jan 14, 1905
p402
aVWales v England at Cardiff, Jan 14, 1905
p403
aVWales v England at Cardiff, Jan 14, 1905
p404
aVWales v England at Cardiff, Jan 14, 1905
p405
aVIreland v England at Cork, Feb 11, 1905
p406
aVIreland v England at Cork, Feb 11, 1905
p407
aVIreland v England at Cork, Feb 11, 1905
p408
aVAustralia v Great Britain at Sydney, Jul 2, 1904
p409
aVIreland v England at Cork, Feb 11, 1905
p410
aVEngland v Scotland at Richmond, Mar 18, 1905
p411
aVEngland v Scotland at Richmond, Mar 18, 1905
p412
aVEngland v Scotland at Richmond, Mar 18, 1905
p413
aVEngland v New Zealand at Crystal Palace, Dec 2, 1905
p414
aVEngland v New Zealand at Crystal Palace, Dec 2, 1905
p415
aVEngland v New Zealand at Crystal Palace, Dec 2, 1905
p416
aVEngland v New Zealand at Crystal Palace, Dec 2, 1905
p417
aVEngland v New Zealand at Crystal Palace, Dec 2, 1905
p418
aVEngland v New Zealand at Crystal Palace, Dec 2, 1905
p419
aVEngland v New Zealand at Crystal Palace, Dec 2, 1905
p420
aVEngland v New Zealand at Crystal Palace, Dec 2, 1905
p421
aVEngland v Wales at Richmond, Jan 13, 1906
p422
aVEngland v Wales at Richmond, Jan 13, 1906
p423
aVEngland v Wales at Richmond, Jan 13, 1906
p424
aVEngland v Wales at Richmond, Jan 13, 1906
p425
aVEngland v Wales at Richmond, Jan 13, 1906
p426
aVEngland v Wales at Richmond, Jan 13, 1906
p427
aVEngland v Wales at Richmond, Jan 13, 1906
p428
aVEngland v Ireland at Leicester, Feb 10, 1906
p429
aVEngland v Ireland at Leicester, Feb 10, 1906
p430
aVEngland v Ireland at Leicester, Feb 10, 1906
p431
aVScotland v England at Inverleith, Mar 17, 1906
p432
aVScotland v England at Inverleith, Mar 17, 1906
p433
aVScotland v England at Inverleith, Mar 17, 1906
p434
aVScotland v England at Inverleith, Mar 17, 1906
p435
aVFrance v England at Parc des Princes, Mar 22, 1906
p436
aVEngland v South Africa at Crystal Palace, Dec 8, 1906
p437
aVEngland v South Africa at Crystal Palace, Dec 8, 1906
p438
aVEngland v France at Richmond, Jan 5, 1907
p439
aVEngland v France at Richmond, Jan 5, 1907
p440
aVEngland v France at Richmond, Jan 5, 1907
p441
aVEngland v France at Richmond, Jan 5, 1907
p442
aVEngland v France at Richmond, Jan 5, 1907
p443
aVEngland v France at Richmond, Jan 5, 1907
p444
aVEngland v France at Richmond, Jan 5, 1907
p445
aVWales v England at Swansea, Jan 12, 1907
p446
aVIreland v England at Lansdowne Road, Feb 9, 1907
p447
aVIreland v England at Lansdowne Road, Feb 9, 1907
p448
aVIreland v England at Lansdowne Road, Feb 9, 1907
p449
aVEngland v Scotland at Blackheath, Mar 16, 1907
p450
aVEngland v Scotland at Blackheath, Mar 16, 1907
p451
aVEngland v Scotland at Blackheath, Mar 16, 1907
p452
aVFrance v England at Colombes, Jan 1, 1908
p453
aVFrance v England at Colombes, Jan 1, 1908
p454
aVFrance v England at Colombes, Jan 1, 1908
p455
aVFrance v England at Colombes, Jan 1, 1908
p456
aVFrance v England at Colombes, Jan 1, 1908
p457
aVFrance v England at Colombes, Jan 1, 1908
p458
aVFrance v England at Colombes, Jan 1, 1908
p459
a.