(lp1
S'John Bentley'
p2
aS'Reginald Birkett'
p3
aS'Benjamin Burns'
p4
aS'John Clayton'
p5
aS'Charles Crompton'
p6
aS'Alfred Davenport'
p7
aS'John Dugdale'
p8
aS'Arthur Gibson'
p9
aS'Joseph Green'
p10
aS'Arthur Guillemard'
p11
aS'Alfred Hamersley'
p12
aS'Harry Luscombe'
p13
aS'Arthur Lyon'
p14
aS'William MacLaren'
p15
aS'Richard Osborne'
p16
aS'Charles Sherrard'
p17
aS'Frederic Stokes'
p18
aS'Frank Tobin'
p19
aS'Dawson Turner'
p20
aS'Henry Turner'
p21
aS'Thomas Batson'
p22
aS'James Body'
p23
aS'James Bush'
p24
aS'Frederick Currey'
p25
aS"Francis d'Aguilar"
p26
aS'Stephen Finney'
p27
aS'Harold Freeman'
p28
aS'Francis Isherwood'
p29
aS'Frank Luscombe'
p30
aS'James Mackinlay'
p31
aS'Frederick Mills'
p32
aS'William Moberly'
p33
aS'Nipper Pinching'
p34
aS'Percy Wilkinson'
p35
aS'Cecil Boyle'
p36
aS'Ernest Cheston'
p37
aS'William Fletcher'
p38
aS'Henry Lawrence'
p39
aS'Henry Marsh'
p40
aS'Murray Marshall'
p41
aS'Sydney Morse'
p42
aS'Cyril Rickards'
p43
aS'Ernest Still'
p44
aS'Charles Vanderspar'
p45
aS'John Batten'
p46
aS'Marshall Brooks'
p47
aS'Henry Bryden'
p48
aS'William Collins'
p49
aS'Charles Crosse'
p50
aS'Foster Cunliffe'
p51
aS'James Genth'
p52
aS'Edward Kewley'
p53
aS'William Milton'
p54
aS'Sidney Parker'
p55
aS'William Stafford'
p56
aS'Roger Walker'
p57
aS'Frank Adams'
p58
aS'Edward Fraser'
p59
aS'Harry Graham'
p60
aS'William Hutchinson'
p61
aS'Arthur Michell'
p62
aS'Edward Nash'
p63
aS'Alec Pearson'
p64
aS'Edward Perrott'
p65
aS'Lennard Stokes'
p66
aS'Louis Birkett'
p67
aS'Wyndham Evanson'
p68
aS'Josiah Paul'
p69
aS'Jeaffreson Brewer'
p70
aS'Charles Bryden'
p71
aS'Mark Bulteel'
p72
aS'Charles Clark'
p73
aS'John Graham'
p74
aS'Walter Greg'
p75
aS'Charles Gunner'
p76
aS'Spencer Login'
p77
aS'Ernest Marriott'
p78
aS'Edward Turner'
p79
aS'Courteney Verelst'
p80
aS'Arthur Heath'
p81
aS'William Hunt'
p82
aS'William Hutchinson'
p83
aS'Frederic Lee'
p84
aS'William Rawlinson'
p85
aS'Thomas Tetley'
p86
aS'George Turner'
p87
aS'Henry Fowler'
p88
aS'Gillie Harrison'
p89
aS'Monkey Hornby'
p90
aS'Petley Price'
p91
aS'Charles Touzel'
p92
aS'Harry Garnett'
p93
aS'Archibald Law'
p94
aS'Robert Todd'
p95
aS'John Biggs'
p96
aS'Frank Fowler'
p97
aS'Howard Fowler'
p98
aS'Temple Gurdon'
p99
aS'Henry Kayll'
p100
aS'George Thomson'
p101
aS'George Vernon'
p102
aS'John Bell'
p103
aS'Thomas Blatherwick'
p104
aS'Jimmy Budd'
p105
aS'Ernest Dawson'
p106
aS'Henry Enthoven'
p107
aS'Herbert Gardner'
p108
aS'Allan Jackson'
p109
aS'William Penny'
p110
aS'George Burton'
p111
aS'Harry Huth'
p112
aS'Norman McLeod'
p113
aS'Stuart Neame'
p114
aS'Hugh Rowley'
p115
aS'Henry Springmann'
p116
aS'Henry Taylor'
p117
aS'Harold Bateson'
p118
aS'William Openshaw'
p119
aS'Henry Twynam'
p120
aS'Sidney Ellis'
p121
aS'Thomas Fry'
p122
aS'Charles Gurdon'
p123
aS'Robert Hunt'
p124
aS'Barron Kilner'
p125
aS'Ellis Markendale'
p126
aS'John Schofield'
p127
aS'Ernie Woodhead'
p128
aS'Charles Coates'
p129
aS'Richard Finch'
p130
aS'Charles Phillips'
p131
aS'Charles Sawyer'
p132
aS'Charles Fernandes'
p133
aS'Walter Hewitt'
p134
aS'John Ravenscroft'
p135
aS'Ryder Richardson'
p136
aS'James Ward'
p137
aS'Harry Vassall'
p138
aS'Charles Wilson'
p139
aS'Frank Wright'
p140
aS'Teddy Beswick'
p141
aS'Wilfred Bolton'
p142
aS'Herbert Fuller'
p143
aS'James Hunt'
p144
aS'Bernard Middleton'
p145
aS'Aubrey Spurling'
p146
aS'Philip Newton'
p147
aS'John Payne'
p148
aS'William Tatham'
p149
aS'Arthur Evanson'
p150
aS'Robert Henderson'
p151
aS'Richard Kindersley'
p152
aS'Alan Rotherham'
p153
aS'Graham Standing'
p154
aS'Arthur Taylor'
p155
aS'Gregory Wade'
p156
aS'Charles Wooldridge'
p157
aS'Edward Moore'
p158
aS'Richard Pattisson'
p159
aS'Henry Tristram'
p160
aS'Charles Chapman'
p161
aS'Charles Marriott'
p162
aS'Edmund Strong'
p163
aS'Henry Bell'
p164
aS'Herbert Fallas'
p165
aS'Charles Sample'
p166
aS'Alfred Teggin'
p167
aS'Henry Wigglesworth'
p168
aS'Albert Wood'
p169
aS'Edward Court'
p170
aS'John Hawcridge'
p171
aS'Arthur Kemble'
p172
aS'Henry Ryalls'
p173
aS'Frank (Slazenger-)Moss'
p174
aS'Drewy Stoddart'
p175
aS'Charles Horley'
p176
aS'Fred Bonsor'
p177
aS'William Clibbon'
p178
aS'Charles Elliot'
p179
aS'Froude Hancock'
p180
aS'Rupert Inglis'
p181
aS'George Jeffery'
p182
aS'Rawson Robertshaw'
p183
aS'Edgar Wilkinson'
p184
aS'Norman Spurling'
p185
aS'Rev Brutton'
p186
aS'Hiatt Baker'
p187
aS'Charles Cleveland'
p188
aS'John Dewhurst'
p189
aS'John Hickson'
p190
aS'John le Fleming'
p191
aS'Dicky Lockwood'
p192
aS'Sam Roberts'
p193
aS'Bob Seddon'
p194
aS'Arthur Fagan'
p195
aS'Frank Pease'
p196
aS'Mason Scott'
p197
aS'Charles Anderton'
p198
aS'Harry Bedford'
p199
aS'John Cave'
p200
aS'Frank Evershed'
p201
aS'Donald Jowett'
p202
aS'Frederick Lowrie'
p203
aS'Arthur Robinson'
p204
aS'Arty Royle'
p205
aS'William Scott'
p206
aS'John Sutcliffe'
p207
aS'Harry Wilkinson'
p208
aS'William Yiend'
p209
aS'Richard Budworth'
p210
aS'Francis Fox'
p211
aS'Willie Mitchell'
p212
aS'Dolly Morrison'
p213
aS'John Rogers'
p214
aS'Jim Valentine'
p215
aS'Samuel Woods'
p216
aS'James Wright'
p217
aS'Randolph Aston'
p218
aS'Jack Dyson'
p219
aS'Edgar Holmes'
p220
aS'Jack Toothill'
p221
aS'William Spence'
p222
aS'Frederick Alderson'
p223
aS'John Berry'
p224
aS'William Bromet'
p225
aS'Percy Christopherson'
p226
aS'Tom Kent'
p227
aS'William Leake'
p228
aS'Eustace North'
p229
aS'James Richards'
p230
aS'Roger Wilson'
p231
aS'Launcelot Percival'
p232
aS'Edgar Bonham-Carter'
p233
aS'Alfred Allport'
p234
aS'Arthur Briggs'
p235
aS'Edward Bullough'
p236
aS'Charles Emmott'
p237
aS'Scatter Hubbard'
p238
aS'William Nicholl'
p239
aS'James Pyke'
p240
aS'Wardlaw Thomson'
p241
aS'Abel Ashworth'
p242
aS'Samuel Houghton'
p243
aS'James Marsh'
p244
aS'Ernest Taylor'
p245
aS'Harry Bradshaw'
p246
aS'Thomas Coop'
p247
aS'Harry Varley'
p248
aS'Tom Broadley'
p249
aS'Robert de Winton'
p250
aS'Edwin Field'
p251
aS'John Greenwell'
p252
aS'Frederick Lohden'
p253
aS'Howard Marshall'
p254
aS'Philip Maud'
p255
aS'Horace Duckett'
p256
aS'Thomas Nicholson'
p257
aS'Frederic Jones'
p258
aS'John Robinson'
p259
aS'Buster Soane'
p260
aS'Cyril Wells'
p261
aS'Fred Byrne'
p262
aS'Frederick Firth'
p263
aS'John Hall'
p264
aS'Charles Hooper'
p265
aS'Samuel Morfitt'
p266
aS'Harry Speed'
p267
aS'William Tucker'
p268
aS'Bob Wood'
p269
aS'Albert Elliott'
p270
aS'Walter Jackson'
p271
aS'William Walton'
p272
aS'Edward Baker'
p273
aS'Godfrey Carey'
p274
aS'Dick Cattell'
p275
aS'John Fegan'
p276
aS'Horace Finlinson'
p277
aS'Frederick Leslie-Jones'
p278
aS'Frank Mitchell'
p279
aS'Francis Poole'
p280
aS'Charles Thomas'
p281
aS'Herbert Ward'
p282
aS'Thomas Dobson'
p283
aS'Ernest Fookes'
p284
aS'Lyndhurst Giblin'
p285
aS'John Pinch'
p286
aS'John Rhodes'
p287
aS'Anthony Starks'
p288
aS'John Ward'
p289
aS'Willie Whiteley'
p290
aS'James Baron'
p291
aS'George Hughes'
p292
aS'Edward Knowles'
p293
aS'Bob Poole'
p294
aS'William Ashford'
p295
aS'Francis Byrne'
p296
aS'Percy Ebdon'
p297
aS'Tom Fletcher'
p298
aS'Frederick Jacob'
p299
aS'Roland Mangles'
p300
aS'Robert Oakes'
p301
aS'Wilfred Stoddart'
p302
aS'Frank Stout'
p303
aS'William Bunting'
p304
aS'Samuel Northmore'
p305
aS'Tot Robinson'
p306
aS'John Taylor'
p307
aS'James Davidson'
p308
aS'Herbert Dudgeon'
p309
aS'Osbert Mackie'
p310
aS'Joseph Blacklock'
p311
aS'Philip Jacob'
p312
aS'Harry Myers'
p313
aS'Richard Pierce'
p314
aS'Fred Shaw'
p315
aS'Charles Wilson'
p316
aS'William Pilkington'
p317
aS'Harold Ramsden'
p318
aS'Arthur Rotherham'
p319
aS'Percy Royds'
p320
aS'James Shaw'
p321
aS'Percy Stout'
p322
aS'Geoffrey Unwin'
p323
aS'Robert Livesay'
p324
aS'John Daniell'
p325
aS'Joseph Davidson'
p326
aS'Reginald Forrest'
p327
aS'Octopus Gamlin'
p328
aS'George Gibson'
p329
aS'Charles Harper'
p330
aS'William Mortimer'
p331
aS'Stanley Anderson'
p332
aS'Arthur Darby'
p333
aS'John Shooter'
p334
aS'Aubrey Dowson'
p335
aS'Reginald Hobbs'
p336
aS'John Matters'
p337
aS'Reginald Schwarz'
p338
aS'Bim Baxter'
p339
aS'Fred Bell'
p340
aS'Robert Bell'
p341
aS'Arthur Brettargh'
p342
aS'William Cobby'
p343
aS'Arthur Cockerham'
p344
aS'Sydney Coopper'
p345
aS'Gerald Gordon-Smith'
p346
aS'Wallace Jarman'
p347
aS'George Marsden'
p348
aS'Elliot Nicholson'
p349
aS'Shirley Reynolds'
p350
aS'Charles Scott'
p351
aS'Harry Alexander'
p352
aS'John Marquis'
p353
aS'Alexander Todd'
p354
aS'Arthur Luxmoore'
p355
aS'Edgar Elliot'
p356
aS'Nigel Fletcher'
p357
aS'Charles Gibson'
p358
aS'David Graham'
p359
aS"Arthur O'Neill"
p360
aS'Ernest Roberts'
p361
aS'John Sagar'
p362
aS'Whacker Smith'
p363
aS'Elliott Vivyan'
p364
aS'Katie Walton'
p365
aS'Charlie Hall'
p366
aS'Robert Wood'
p367
aS'Norman Cox'
p368
aS'Charles Edgar'
p369
aS'Jock Hartley'
p370
aS'Toggie Kendall'
p371
aS'Bernard Oughtred'
p372
aS'Henry Weston'
p373
aS'Denys Dobson'
p374
aS'George Fraser'
p375
aS'John Jewitt'
p376
aS'Philip Nicholas'
p377
aS'John Raphael'
p378
aS'Leonard Tosswill'
p379
aS'Thomas Willcocks'
p380
aS'Samuel Williams'
p381
aS'Peter Hardwick'
p382
aS'Thomas Simpson'
p383
aS'Robert Bradley'
p384
aS'Vincent Cartwright'
p385
aS'James Duthie'
p386
aS'Frankie Hulme'
p387
aS'Jack Miles'
p388
aS'Reginald Spooner'
p389
aS'Walter Heppel'
p390
aS'Basil Hill'
p391
aS'Edward Barrett'
p392
aS'Walter Butcher'
p393
aS'Edward Dillon'
p394
aS'Patrick Hancock'
p395
aS'George Keeton'
p396
aS'Jumbo Milton'
p397
aS'Norman Moore'
p398
aS'Charles Newbold'
p399
aS'William Cave'
p400
aS'Thomas Gibson'
p401
aS'Sam Irvin'
p402
aS'John Mathias'
p403
aS'Francis Palmer'
p404
aS'Walter Rogers'
p405
aS'John Green'
p406
aS'William Grylls'
p407
aS'Harry Shewring'
p408
aS'Christopher Stanger-Leathes'
p409
aS'George Vickery'
p410
aS'Curly Hammond'
p411
aS'Sidney Osborne'
p412
aS'Adrian Stoop'
p413
aS'Jacky Braithwaite'
p414
aS'Dai Gent'
p415
aS'Reginald Godfray'
p416
aS'Alfred Hind'
p417
aS'Henry Imrie'
p418
aS'John Jackett'
p419
aS'Richard Russell'
p420
aS'George Summerscale'
p421
aS'George Dobbs'
p422
aS'Harold Hodges'
p423
aS'Arthur Hudson'
p424
aS'Raphael Jago'
p425
aS'Thomas Kelly'
p426
aS'Alf Kewney'
p427
aS'William Mills'
p428
aS'James Hutchinson'
p429
aS'Cecil Milton'
p430
aS'Joseph Sandford'
p431
aS'John Birkett'
p432
aS'Robert Dibble'
p433
aS'Darkie Peters'
p434
aS'Cecil Shaw'
p435
aS'Thomas Hogarth'
p436
aS'Arnold Alcock'
p437
aS'Freddie Brooks'
p438
aS'Tremlett Batchelor'
p439
aS'John Hopley'
p440
aS'Danny Lambert'
p441
aS'Harry Lee'
p442
aS'Billy Nanson'
p443
aS'Andrew Slocock'
p444
aS'Thomas Wedge'
p445
aS'Frank Scott'
p446
aS'Jumbo Leather'
p447
aS'Arthur Pickering'
p448
aS'Walter Wilson'
p449
aS'Andrew Newton'
p450
aS'Khaki Roberts'
p451
aS'Sydney Start'
p452
aS'Patsy Boylen'
p453
aS'Ernest Chambers'
p454
aS'Harry Havelock'
p455
aS'Walter Lapage'
p456
aS'Garnet Portus'
p457
aS'Herbert Sibree'
p458
aS'Alf Wood'
p459
a.