(lp1
VHalfback
p2
aVForward
p3
aVForward
p4
aVForward
p5
aVForward
p6
aVForward
p7
aVForward
p8
aVForward
p9
aVHalfback
p10
aVFullback
p11
aVForward
p12
aVForward
p13
aVFullback
p14
aVThree-quarters
p15
aVFullback
p16
aVForward
p17
aVForward
p18
aVHalfback
p19
aVForward
p20
aVForward
p21
aVForward
p22
aVForward
p23
aVForward
p24
aVForward
p25
aVForward
p26
aVHalfback
p27
aVThree-quarters
p28
aVForward
p29
aVForward
p30
aVForward
p31
aVFullback
p32
aVFullback
p33
aVForward
p34
aVHalfback
p35
aVHalfback
p36
aVForward
p37
aVForward
p38
aVForward
p39
aVForward
p40
aVForward
p41
aVFullback
p42
aVForward
p43
aVForward
p44
aVFullback
p45
aVFullback
p46
aVFullback
p47
aVForward
p48
aVHalfback
p49
aVForward
p50
aVForward
p51
aVForward
p52
aVForward
p53
aVThree-quarters
p54
aVForward
p55
aVForward
p56
aVForward
p57
aVForward
p58
aVForward
p59
aVForward
p60
aVForward
p61
aVHalfback
p62
aVHalfback
p63
aVFullback
p64
aVForward
p65
aVThree-quarters
p66
aVFullback
p67
aVHalfback
p68
aVForward
p69
aVForward
p70
aVForward
p71
aVForward
p72
aVHalfback
p73
aVForward
p74
aVForward
p75
aVThree-quarters
p76
aVFullback
p77
aVForward
p78
aVForward
p79
aVForward
p80
aVFullback
p81
aVForward
p82
aVHalfback
p83
aVForward
p84
aVForward
p85
aVThree-quarters
p86
aVForward
p87
aVForward
p88
aVForward
p89
aVFullback
p90
aVHalfback
p91
aVForward
p92
aVForward
p93
aVForward
p94
aVForward
p95
aVForward
p96
aVNo. 8
p97
aVForward
p98
aVForward
p99
aVFullback
p100
aVForward
p101
aVForward
p102
aVHalfback
p103
aVForward
p104
aVForward
p105
aVForward
p106
aVThree-quarters
p107
aVForward
p108
aVHalfback
p109
aVFullback
p110
aVForward
p111
aVFullback
p112
aVForward
p113
aVForward
p114
aVForward
p115
aVForward
p116
aVHalfback
p117
aVForward
p118
aVHalfback
p119
aVHalfback
p120
aVForward
p121
aVFullback
p122
aVForward
p123
aVThree-quarters
p124
aVForward
p125
aVForward
p126
aVForward
p127
aVForward
p128
aVForward
p129
aVHalfback
p130
aVForward
p131
aVThree-quarters
p132
aVForward
p133
aVForward
p134
aVForward
p135
aVHalfback
p136
aVForward
p137
aVForward
p138
aVForward
p139
aVHalfback
p140
aVThree-quarters
p141
aVThree-quarters
p142
aVForward
p143
aVForward
p144
aVForward
p145
aVForward
p146
aVForward
p147
aVHalfback
p148
aVForward
p149
aVThree-quarters
p150
aVForward
p151
aVForward
p152
aVHalfback
p153
aVForward
p154
aVFullback
p155
aVThree-quarters
p156
aVForward
p157
aVForward
p158
aVForward
p159
aVFullback
p160
aVThree-quarters
p161
aVForward
p162
aVForward
p163
aVForward
p164
aVThree-quarters
p165
aVFullback
p166
aVForward
p167
aVThree-quarters
p168
aVForward
p169
aVForward
p170
aVThree-quarters
p171
aVForward
p172
aVForward
p173
aVForward
p174
aVThree-quarters
p175
aVForward
p176
aVHalfback
p177
aVForward
p178
aVForward
p179
aVForward
p180
aVForward
p181
aVForward
p182
aVThree-quarters
p183
aVForward
p184
aVForward
p185
aVThree-quarters
p186
aVForward
p187
aVForward
p188
aVForward
p189
aVForward
p190
aVThree-quarters
p191
aVThree-quarters
p192
aVFullback
p193
aVForward
p194
aVThree-quarters
p195
aVForward
p196
aVHalfback
p197
aVForward
p198
aVForward
p199
aVForward
p200
aVForward
p201
aVForward
p202
aVForward
p203
aVForward
p204
aVFullback
p205
aVHalfback
p206
aVThree-quarters
p207
aVForward
p208
aVForward
p209
aVForward
p210
aVHalfback
p211
aVFullback
p212
aVThree-quarters
p213
aVForward
p214
aVCentre
p215
aVForward
p216
aVHalfback
p217
aVCentre
p218
aVThree-quarters
p219
aVForward
p220
aVForward
p221
aVHalfback
p222
aVThree-quarters
p223
aVHalfback
p224
aVForward
p225
aVThree-quarters
p226
aVForward
p227
aVHalfback
p228
aVForward
p229
aVForward
p230
aVForward
p231
aVForward
p232
aVForward
p233
aVForward
p234
aVHalfback
p235
aVForward
p236
aVHalfback
p237
aVThree-quarters
p238
aVForward
p239
aVForward
p240
aVCentre
p241
aVForward
p242
aVFullback
p243
aVThree-quarters
p244
aVHalfback
p245
aVForward
p246
aVFullback
p247
aVScrum-half
p248
aVForward
p249
aVHalfback
p250
aVFullback
p251
aVForward
p252
aVForward
p253
aVHalfback
p254
aVForward
p255
aVHalfback
p256
aVThree-quarters
p257
aVThree-quarters
p258
aVForward
p259
aVForward
p260
aVHalfback
p261
aVFullback
p262
aVWing
p263
aVForward
p264
aVCentre
p265
aVCentre
p266
aVForward
p267
aVForward
p268
aVHalfback
p269
aVForward
p270
aVWing
p271
aVForward
p272
aVCentre
p273
aVForward
p274
aVFly-half
p275
aVWing
p276
aVForward
p277
aVCentre
p278
aVForward
p279
aVForward
p280
aVForward
p281
aVFullback
p282
aVCentre
p283
aVWing
p284
aVForward
p285
aVForward
p286
aVForward
p287
aVForward
p288
aVForward
p289
aVForward
p290
aVForward
p291
aVForward
p292
aVForward
p293
aVFullback
p294
aVForward
p295
aVWing
p296
aVForward
p297
aVCentre
p298
aVForward
p299
aVForward
p300
aVForward
p301
aVForward
p302
aVForward
p303
aVCentre
p304
aVFly-half
p305
aVWing
p306
aVCentre
p307
aVForward
p308
aVForward
p309
aVCentre
p310
aVForward
p311
aVScrum-half
p312
aVFly-half
p313
aVForward
p314
aVForward
p315
aVForward
p316
aVWing
p317
aVForward
p318
aVScrum-half
p319
aVCentre
p320
aVForward
p321
aVCentre
p322
aVFly-half
p323
aVFly-half
p324
aVForward
p325
aVForward
p326
aVWing
p327
aVFullback
p328
aVForward
p329
aVForward
p330
aVForward
p331
aVWing
p332
aVForward
p333
aVForward
p334
aVForward
p335
aVForward
p336
aVWing
p337
aVFly-half
p338
aVForward
p339
aVForward
p340
aVForward
p341
aVCentre
p342
aVForward
p343
aVForward
p344
aVWing
p345
aVCentre
p346
aVForward
p347
aVFly-half
p348
aVWing
p349
aVForward
p350
aVForward
p351
aVForward
p352
aVScrum-half
p353
aVForward
p354
aVForward
p355
aVWing
p356
aVForward
p357
aVForward
p358
aVForward
p359
aVForward
p360
aVForward
p361
aVFullback
p362
aVWing
p363
aVWing
p364
aVScrum-half
p365
aVForward
p366
aVForward
p367
aVCentre
p368
aVForward
p369
aVForward
p370
aVScrum-half
p371
aVFly-half
p372
aVForward
p373
aVForward
p374
aVForward
p375
aVLock
p376
aVWing
p377
aVCentre
p378
aVForward
p379
aVForward
p380
aVForward
p381
aVForward
p382
aVWing
p383
aVForward
p384
aVForward
p385
aVForward
p386
aVHalfback
p387
aVWing
p388
aVCentre
p389
aVForward
p390
aVForward
p391
aVCentre
p392
aVScrum-half
p393
aVCentre
p394
aVFly-half
p395
aVHooker
p396
aVForward
p397
aVForward
p398
aVHooker
p399
aVForward
p400
aVForward
p401
aVFullback
p402
aVLock
p403
aVWing
p404
aVForward
p405
aVForward
p406
aVLock
p407
aVCentre
p408
aVFullback
p409
aVForward
p410
aVForward
p411
aVForward
p412
aVFly-half
p413
aVScrum-half
p414
aVFly-half
p415
aVCentre
p416
aVWing
p417
aVWing
p418
aVFullback
p419
aVForward
p420
aVForward
p421
aVFlanker
p422
aVProp
p423
aVWing
p424
aVScrum-half
p425
aVLock
p426
aVForward
p427
aVNo. 8
p428
aVWing
p429
aVCentre
p430
aVCentre
p431
aVCentre
p432
aVForward
p433
aVFly-half
p434
aVForward
p435
aVForward
p436
aVHooker
p437
aVWing
p438
aVWing
p439
aVFlanker
p440
aVWing
p441
aVFullback
p442
aVForward
p443
aVForward
p444
aVScrum-half
p445
aVWing
p446
aVForward
p447
aVCentre
p448
aVWing
p449
aVWing
p450
aVForward
p451
aVScrum-half
p452
aVForward
p453
aVForward
p454
aVFlanker
p455
aVCentre
p456
aVFly-half
p457
aVScrum-half
p458
aVFullback
p459
aVForward
p460
aVScrum-half
p461
aVCentre
p462
aVForward
p463
aVFly-half
p464
aVFullback
p465
aVForward
p466
aVForward
p467
aVFly-half
p468
aVCentre
p469
aVWing
p470
aVForward
p471
aVForward
p472
aVFlanker
p473
aVWing
p474
aVForward
p475
aVForward
p476
aVCentre
p477
aVForward
p478
aVFlanker
p479
aVLock
p480
aVForward
p481
aVFlanker
p482
aVFly-half
p483
aVCentre
p484
aVProp
p485
aVWing
p486
aVForward
p487
aVCentre
p488
aVForward
p489
aVNo. 8
p490
aVForward
p491
aVWing
p492
aVProp
p493
aVFullback
p494
aVFlanker
p495
aVForward
p496
aVCentre
p497
aVCentre
p498
aVCentre
p499
aVFly-half
p500
aVForward
p501
aVScrum-half
p502
aVForward
p503
aVLock
p504
aVFullback
p505
aVForward
p506
aVForward
p507
aVWing
p508
aVCentre
p509
aVProp
p510
aVNo. 8
p511
aVForward
p512
aVWing
p513
aVCentre
p514
aVFullback
p515
aVNo. 8
p516
aVWing
p517
aVForward
p518
aVForward
p519
aVProp
p520
aVScrum-half
p521
aVProp
p522
aVForward
p523
aVLock
p524
aVWing
p525
aVScrum-half
p526
aVWing
p527
aVFly-half
p528
aVWing
p529
aVNo. 8
p530
aVCentre
p531
aVNo. 8
p532
aVWing
p533
aVLock
p534
aVScrum-half
p535
aVLock
p536
aVProp
p537
aVHooker
p538
aVFly-half
p539
aVCentre
p540
aVScrum-half
p541
aVForward
p542
aVFlanker
p543
aVNo. 8
p544
aVForward
p545
aVFullback
p546
aVWing
p547
aVLock
p548
aVCentre
p549
aVScrum-half
p550
aVCentre
p551
aVFlanker
p552
aVLock
p553
aVHooker
p554
aVFlanker
p555
aVProp
p556
aVNo. 8
p557
aVWing
p558
aVFullback
p559
aVWing
p560
aVProp
p561
aVWing
p562
aVCentre
p563
aVFlanker
p564
aVFlanker
p565
aVForward
p566
aVProp
p567
aVHooker
p568
aVLock
p569
aVWing
p570
aVCentre
p571
aVFly-half
p572
aVHooker
p573
aVCentre
p574
aVProp
p575
aVFlanker
p576
aVFullback
p577
aVFlanker
p578
aVFullback
p579
aVWing
p580
aVProp
p581
aVFullback
p582
aVProp
p583
aVHooker
p584
aVFullback
p585
aVCentre
p586
aVWing
p587
aVFullback
p588
aVWing
p589
aVHooker
p590
aVScrum-half
p591
aVProp
p592
aVWing
p593
aVFullback
p594
aVWing
p595
aVProp
p596
aVFly-half
p597
aVProp
p598
aVScrum-half
p599
aVFlanker
p600
aVNo. 8
p601
aVProp
p602
aVNo. 8
p603
aVWing
p604
aVCentre
p605
aVWing
p606
aVCentre
p607
aVProp
p608
aVFlanker
p609
aVScrum-half
p610
aVWing
p611
aVLock
p612
aVNo. 8
p613
aVNo. 8
p614
aVNo. 8
p615
aVFlanker
p616
aVFly-half
p617
aVFullback
p618
aVProp
p619
aVFlanker
p620
aVNo. 8
p621
aVProp
p622
aVLock
p623
aVWing
p624
aVFly-half
p625
aVCentre
p626
aVFullback
p627
aVCentre
p628
aVWing
p629
aVNo. 8
p630
aVCentre
p631
aVLock
p632
aVWing
p633
aVNo. 8
p634
aVProp
p635
aVFullback
p636
aVNo. 8
p637
aVCentre
p638
aVWing
p639
aVNo. 8
p640
aVScrum-half
p641
aVFlanker
p642
aVWing
p643
aVNo. 8
p644
aVFly-half
p645
aVWing
p646
aVProp
p647
aVScrum-half
p648
aVNo. 8
p649
aVNo. 8
p650
aVLock
p651
aVWing
p652
aVFly-half
p653
aVFullback
p654
aVProp
p655
aVLock
p656
aVLock
p657
aVNo. 8
p658
aVProp
p659
aVCentre
p660
aVCentre
p661
aVScrum-half
p662
aVScrum-half
p663
aVFlanker
p664
aVFullback
p665
aVWing
p666
aVFly-half
p667
aVFullback
p668
aVProp
p669
aVCentre
p670
aVFlanker
p671
aVCentre
p672
aVScrum-half
p673
aVFlanker
p674
aVScrum-half
p675
aVNo. 8
p676
aVHooker
p677
aVNo. 8
p678
aVWing
p679
aVFlanker
p680
aVFly-half
p681
aVCentre
p682
aVFullback
p683
aVFullback
p684
aVProp
p685
aVCentre
p686
aVLock
p687
aVFlanker
p688
aVHooker
p689
aVNo. 8
p690
aVFlanker
p691
aVLock
p692
aVProp
p693
aVFly-half
p694
aVScrum-half
p695
aVHooker
p696
aVFlanker
p697
aVProp
p698
aVFlanker
p699
aVWing
p700
aVLock
p701
aVFlanker
p702
aVNo. 8
p703
aVFlanker
p704
aVCentre
p705
aVLock
p706
aVFlanker
p707
aVWing
p708
aVFullback
p709
aVWing
p710
aVLock
p711
aVFly-half
p712
aVFullback
p713
aVFly-half
p714
aVLock
p715
aVFlanker
p716
aVScrum-half
p717
aVCentre
p718
aVNo. 8
p719
aVWing
p720
aVHooker
p721
aVNo. 8
p722
aVFly-half
p723
aVFlanker
p724
aVWing
p725
aVWing
p726
aVProp
p727
aVHooker
p728
aVWing
p729
aVFlanker
p730
aVLock
p731
aVFly-half
p732
aVNo. 8
p733
aVProp
p734
aVLock
p735
aVFlanker
p736
aVFly-half
p737
aVWing
p738
aVFullback
p739
aVCentre
p740
aVNo. 8
p741
aVFullback
p742
aVFlanker
p743
aVFlanker
p744
aVWing
p745
aVScrum-half
p746
aVWing
p747
aVCentre
p748
aVProp
p749
aVFly-half
p750
aVFlanker
p751
aVScrum-half
p752
aVFullback
p753
aVCentre
p754
aVFullback
p755
aVFly-half
p756
aVHooker
p757
aVProp
p758
aVScrum-half
p759
aVLock
p760
aVLock
p761
aVCentre
p762
aVFlanker
p763
aVWing
p764
aVFlanker
p765
aVProp
p766
aVFlanker
p767
aVCentre
p768
aVLock
p769
aVWing
p770
aVScrum-half
p771
aVNo. 8
p772
aVProp
p773
aVFullback
p774
aVFlanker
p775
aVHooker
p776
aVHooker
p777
aVScrum-half
p778
aVNo. 8
p779
aVLock
p780
aVFly-half
p781
aVFullback
p782
aVProp
p783
aVWing
p784
aVCentre
p785
aVScrum-half
p786
aVCentre
p787
aVProp
p788
aVNo. 8
p789
aVWing
p790
aVWing
p791
aVFullback
p792
aVFlanker
p793
aVLock
p794
aVScrum-half
p795
aVCentre
p796
aVNo. 8
p797
aVWing
p798
aVLock
p799
aVHooker
p800
aVCentre
p801
aVWing
p802
aVFlanker
p803
aVFullback
p804
aVProp
p805
aVLock
p806
aVFlanker
p807
aVWing
p808
aVLock
p809
aVWing
p810
aVProp
p811
aVLock
p812
aVFullback
p813
aVNo. 8
p814
aVCentre
p815
aVFlanker
p816
aVHooker
p817
aVProp
p818
aVWing
p819
aVLock
p820
aVWing
p821
aVFly-half
p822
aVLock
p823
aVCentre
p824
aVFullback
p825
aVScrum-half
p826
aVCentre
p827
aVFlanker
p828
aVWing
p829
aVWing
p830
aVProp
p831
aVFullback
p832
aVWing
p833
aVHooker
p834
aVFly-half
p835
aVCentre
p836
aVFlanker
p837
aVCentre
p838
aVFlanker
p839
aVFullback
p840
aVCentre
p841
aVProp
p842
aVLock
p843
aVLock
p844
aVLock
p845
aVFullback
p846
aVNo. 8
p847
aVHooker
p848
aVScrum-half
p849
aVFly-half
p850
aVLock
p851
aVProp
p852
aVProp
p853
aVFlanker
p854
aVNo. 8
p855
aVNo. 8
p856
aVFullback
p857
aVWing
p858
aVFullback
p859
aVFullback
p860
aVNo. 8
p861
aVLock
p862
aVWing
p863
aVProp
p864
aVScrum-half
p865
aVLock
p866
aVFlanker
p867
aVFly-half
p868
aVWing
p869
aVFly-half
p870
aVFullback
p871
aVFly-half
p872
aVFlanker
p873
aVFullback
p874
aVCentre
p875
aVWing
p876
aVFlanker
p877
aVFullback
p878
aVProp
p879
aVFly-half
p880
aVScrum-half
p881
aVHooker
p882
aVProp
p883
aVNo. 8
p884
aVFlanker
p885
aVHooker
p886
aVHooker
p887
aVNo. 8
p888
aVWing
p889
aVFullback
p890
aVFly-half
p891
aVCentre
p892
aVProp
p893
aVCentre
p894
aVFlanker
p895
aVLock
p896
aVFullback
p897
aVLock
p898
aVFlanker
p899
aVFullback
p900
aVLock
p901
aVProp
p902
aVWing
p903
aVCentre
p904
aVCentre
p905
aVWing
p906
aVLock
p907
aVFlanker
p908
aVScrum-half
p909
aVLock
p910
aVProp
p911
aVProp
p912
aVFlanker
p913
aVLock
p914
aVHooker
p915
aVNo. 8
p916
aVProp
p917
aVFullback
p918
aVFlanker
p919
aVWing
p920
aVCentre
p921
aVFlanker
p922
aVLock
p923
aVFly-half
p924
aVLock
p925
aVNo. 8
p926
aVProp
p927
aVCentre
p928
aVProp
p929
aVHooker
p930
aVCentre
p931
aVWing
p932
aVFlanker
p933
aVWing
p934
aVWing
p935
aVWing
p936
aVCentre
p937
aVProp
p938
aVHooker
p939
aVWing
p940
aVScrum-half
p941
aVFlanker
p942
aVScrum-half
p943
aVFlanker
p944
aVCentre
p945
aVHooker
p946
aVCentre
p947
aVNo. 8
p948
aVScrum-half
p949
aVProp
p950
aVWing
p951
aVCentre
p952
aVLock
p953
aVLock
p954
aVFly-half
p955
aVNo. 8
p956
aVScrum-half
p957
aVNo. 8
p958
aVLock
p959
aVWing
p960
aVScrum-half
p961
aVCentre
p962
aVFlanker
p963
aVNo. 8
p964
aVFullback
p965
aVProp
p966
aVLock
p967
aVWing
p968
aVScrum-half
p969
aVFlanker
p970
aVCentre
p971
aVWing
p972
aVProp
p973
aVWing
p974
aVLock
p975
aVCentre
p976
aV
aVWing
p977
aVFlanker
p978
aVWing
p979
aVFly-half
p980
aVScrum-half
p981
aVProp
p982
aVCentre
p983
aVWing
p984
aVWing
p985
aVProp
p986
aVFullback
p987
aVLock
p988
aVNo. 8
p989
aVNo. 8
p990
aVWing
p991
aVFlanker
p992
aVLock
p993
aVScrum-half
p994
aVFullback
p995
aVFly-half
p996
aVProp
p997
aVFly-half
p998
aVLock
p999
aVFlanker
p1000
aVFlanker
p1001
aVCentre
p1002
aVLock
p1003
aVProp
p1004
aVFly-half
p1005
aVNo. 8
p1006
aVScrum-half
p1007
aVFullback
p1008
aVScrum-half
p1009
aVLock
p1010
aVCentre
p1011
aVFullback
p1012
aVWing
p1013
aVCentre
p1014
aVFlanker
p1015
aVProp
p1016
aVCentre
p1017
aVScrum-half
p1018
aVLock
p1019
aVFly-half
p1020
aVWing
p1021
aVCentre
p1022
aVCentre
p1023
aVFullback
p1024
aVLock
p1025
aVHooker
p1026
aVFly-half
p1027
aVFullback
p1028
aVScrum-half
p1029
aVLock
p1030
aVCentre
p1031
aVProp
p1032
aVFly-half
p1033
aVFullback
p1034
aVLock
p1035
aVCentre
p1036
aVFlanker
p1037
aVScrum-half
p1038
aVCentre
p1039
aVWing
p1040
aVNo. 8
p1041
aVWing
p1042
aVFly-half
p1043
aVProp
p1044
aVCentre
p1045
aVFlanker
p1046
aVScrum-half
p1047
aVNo. 8
p1048
aVCentre
p1049
aVFly-half
p1050
aVFlanker
p1051
aVFullback
p1052
aVLock
p1053
aVCentre
p1054
aVProp
p1055
aVCentre
p1056
aVProp
p1057
aVWing
p1058
aVFly-half
p1059
aVCentre
p1060
aVProp
p1061
aVCentre
p1062
aVFlanker
p1063
aVProp
p1064
aVFly-half
p1065
aVFlanker
p1066
aVNo. 8
p1067
aVFullback
p1068
aVProp
p1069
aVLock
p1070
aVHooker
p1071
aVWing
p1072
aVFlanker
p1073
aVFullback
p1074
aVLock
p1075
aVLock, No. 8
p1076
aVLock
p1077
aVWing
p1078
aVScrum-half
p1079
aVFlanker
p1080
aVProp
p1081
aVFlanker
p1082
aVCentre
p1083
aVWing
p1084
aVProp
p1085
aVFlanker
p1086
aVProp
p1087
aVWing
p1088
aVFlanker
p1089
aVScrum-half
p1090
aVCentre
p1091
aVProp
p1092
aVHooker
p1093
aVFlanker
p1094
aVFly-half
p1095
aVProp
p1096
aVCentre
p1097
aVScrum-half
p1098
aVLock
p1099
aVFly-half
p1100
aVLock
p1101
aVScrum-half
p1102
aVLock
p1103
aVCentre
p1104
aVWing
p1105
aVFullback
p1106
aVFlanker
p1107
aVWing
p1108
aVProp
p1109
aVCentre
p1110
aVCentre
p1111
aVNo. 8
p1112
aVCentre
p1113
aVNo. 8
p1114
aVLock
p1115
aVHooker, Lock
p1116
aVHooker
p1117
aVFly-half
p1118
aVFullback
p1119
aVCentre
p1120
aVProp
p1121
aVFlanker
p1122
aVWing
p1123
aVWing
p1124
aVNo. 8
p1125
aVWing
p1126
aVFlanker
p1127
aVLock
p1128
aVWing
p1129
aVScrum-half
p1130
aVCentre
p1131
aVScrum-half
p1132
aVCentre
p1133
aVFullback
p1134
aVProp
p1135
aVProp
p1136
aVWing
p1137
aVProp
p1138
aVFullback, Fly-half
p1139
aVLock, No. 8
p1140
aVHooker
p1141
aVLock
p1142
aVBack-row
p1143
aVFullback, Wing
p1144
aVProp
p1145
aVWing
p1146
aVBack-row
p1147
aVCentre
p1148
aVLock
p1149
aVScrum-half
p1150
aVFullback
p1151
aVFlanker
p1152
aVBack-row
p1153
aVFly-half, Centre
p1154
aVFullback
p1155
aVProp
p1156
aVLock
p1157
aVWing, Centre
p1158
aVProp
p1159
aVHooker
p1160
aVNo. 8
p1161
aVScrum-half
p1162
aVFly-half
p1163
aVWing
p1164
aVNo. 8, Lock
p1165
aVWing
p1166
aVScrum-half
p1167
aVLock
p1168
aVNo. 8
p1169
aVFullback
p1170
aVHooker
p1171
aVProp
p1172
aVFullback
p1173
aVBack-row
p1174
aVUtility back
p1175
aVProp
p1176
aVLock, Back-row
p1177
aVNo. 8
p1178
aVCentre
p1179
aVLock
p1180
aVFullback
p1181
aVProp
p1182
aVHooker
p1183
aVLock
p1184
aVFly-half
p1185
aVFly-half
p1186
aVProp
p1187
aVCentre
p1188
aVHooker
p1189
aVFullback
p1190
aVUtility back
p1191
aVHooker
p1192
aVProp
p1193
aVFly-half
p1194
aVScrum-half
p1195
aVWing
p1196
aVFlanker
p1197
aVCentre
p1198
aVFlanker
p1199
aVWing
p1200
aVCentre
p1201
aVWing, Centre
p1202
aVBack-row
p1203
aVWing
p1204
aVLock
p1205
aVFly-half, Centre
p1206
aVLock
p1207
aVWing, Fullback
p1208
aVWing
p1209
aVHooker
p1210
aVWing
p1211
aVCentre
p1212
aVProp
p1213
aVBack-row
p1214
aVWing
p1215
aVCentre
p1216
aVFullback
p1217
aVProp
p1218
aVProp
p1219
aVCentre, Wing
p1220
aVFullback
p1221
aVLock
p1222
aVLock
p1223
aVFlanker
p1224
aVCentre
p1225
aVWing
p1226
aVFly-half
p1227
aVFlanker
p1228
aVScrum-half
p1229
aVCentre
p1230
aVFly-half
p1231
aVLock
p1232
aVWing
p1233
aVFly-half
p1234
aVBack-row
p1235
aVHooker
p1236
aVScrum-half
p1237
aVCentre
p1238
aVCentre
p1239
aVCentre
p1240
aVLock
p1241
aVFullback
p1242
aVCentre
p1243
aVWing
p1244
aVProp
p1245
aVCentre
p1246
aVProp
p1247
aVCentre
p1248
aVFullback
p1249
aVLock
p1250
aVProp
p1251
aVFlanker
p1252
aVHooker
p1253
aVProp
p1254
aVWing
p1255
aVBack-row
p1256
aVProp
p1257
aVLock
p1258
aVScrum-half
p1259
aVFullback
p1260
aVBack-row
p1261
aVProp
p1262
aVFly-half
p1263
aVFullback
p1264
aVLock
p1265
aVProp
p1266
aVHooker
p1267
aVWing
p1268
aVLock
p1269
aVFlanker
p1270
aVScrum-half
p1271
aVHooker
p1272
aVFly-half, Scrum-half
p1273
aVCentre
p1274
aVScrum-half
p1275
aVWing
p1276
aVFly-half
p1277
aVCentre
p1278
aVFullback
p1279
aVBack-row
p1280
aVBack-row
p1281
aVWing
p1282
aVFly-half
p1283
aVBack-row
p1284
aVProp
p1285
aVFullback
p1286
aVLock
p1287
aVHooker
p1288
aVProp
p1289
aVLock
p1290
aVBack-row
p1291
aVWing, Fullback
p1292
aVCentre
p1293
aVNo. 8
p1294
aVFly-half
p1295
aVWing
p1296
aVScrum-half
p1297
aVBack-row
p1298
aVScrum-half
p1299
aVWing
p1300
aVScrum-half
p1301
aVHooker
p1302
aVProp
p1303
aVFullback
p1304
aVCentre
p1305
aVLock
p1306
aVWing
p1307
aVHooker
p1308
aVBack-row
p1309
aVBack-row
p1310
aVFullback
p1311
aVWing
p1312
aVCentre
p1313
aVProp
p1314
aVFly-half, Fullback
p1315
aVBack-row
p1316
aVCentre
p1317
aVLock, Back-row
p1318
aVProp
p1319
aVProp
p1320
aVProp
p1321
aVScrum-half
p1322
aVWing
p1323
aVCentre
p1324
aVLock
p1325
aVFlanker
p1326
aVFlanker
p1327
aVProp
p1328
aVCentre
p1329
aVLock
p1330
aVWing
p1331
aVScrum-half
p1332
aVCentre
p1333
aVBack-row
p1334
aVCentre, Fly-half
p1335
aVScrum-half
p1336
aVNo. 8
p1337
aVLock
p1338
aVCentre
p1339
aVHooker
p1340
aVBack-row
p1341
aVProp
p1342
aVCentre
p1343
aVFullback, Fly-half
p1344
aVNo. 8
p1345
aVHooker
p1346
aVLock
p1347
aVProp
p1348
aVFly-half
p1349
aVCentre
p1350
aVBack-row
p1351
aVWing
p1352
aVFullback, Wing
p1353
aVProp
p1354
aVNo. 8
p1355
aVWing
p1356
aVWing
p1357
aVFly-half
p1358
aVCentre
p1359
aVCentre
p1360
aVFullback
p1361
aVFly-half
p1362
aVHooker
p1363
aVFullback
p1364
aVProp
p1365
aVCentre, Wing
p1366
aVBack-row
p1367
aVWing, Fullback
p1368
a.