(lp1
VHalfback
p2
aVForward
p3
aVForward
p4
aVForward
p5
aVForward
p6
aVForward
p7
aVForward
p8
aVForward
p9
aVHalfback
p10
aVFullback
p11
aVForward
p12
aVForward
p13
aVFullback
p14
aVThree-quarters
p15
aVFullback
p16
aVForward
p17
aVForward
p18
aVHalfback
p19
aVForward
p20
aVForward
p21
aVForward
p22
aVForward
p23
aVForward
p24
aVForward
p25
aVForward
p26
aVHalfback
p27
aVThree-quarters
p28
aVForward
p29
aVForward
p30
aVForward
p31
aVFullback
p32
aVFullback
p33
aVForward
p34
aVHalfback
p35
aVHalfback
p36
aVForward
p37
aVForward
p38
aVForward
p39
aVForward
p40
aVForward
p41
aVFullback
p42
aVForward
p43
aVForward
p44
aVFullback
p45
aVFullback
p46
aVFullback
p47
aVForward
p48
aVHalfback
p49
aVForward
p50
aVForward
p51
aVForward
p52
aVForward
p53
aVThree-quarters
p54
aVForward
p55
aVForward
p56
aVForward
p57
aVForward
p58
aVForward
p59
aVForward
p60
aVForward
p61
aVHalfback
p62
aVHalfback
p63
aVFullback
p64
aVForward
p65
aVThree-quarters
p66
aVFullback
p67
aVHalfback
p68
aVForward
p69
aVForward
p70
aVForward
p71
aVForward
p72
aVHalfback
p73
aVForward
p74
aVForward
p75
aVThree-quarters
p76
aVFullback
p77
aVForward
p78
aVForward
p79
aVForward
p80
aVFullback
p81
aVForward
p82
aVHalfback
p83
aVForward
p84
aVForward
p85
aVThree-quarters
p86
aVForward
p87
aVForward
p88
aVForward
p89
aVFullback
p90
aVHalfback
p91
aVForward
p92
aVForward
p93
aVForward
p94
aVForward
p95
aVForward
p96
aVNo. 8
p97
aVForward
p98
aVForward
p99
aVFullback
p100
aVForward
p101
aVForward
p102
aVHalfback
p103
aVForward
p104
aVForward
p105
aVForward
p106
aVThree-quarters
p107
aVForward
p108
aVHalfback
p109
aVFullback
p110
aVForward
p111
aVFullback
p112
aVForward
p113
aVForward
p114
aVForward
p115
aVForward
p116
aVHalfback
p117
aVForward
p118
aVHalfback
p119
aVHalfback
p120
aVForward
p121
aVFullback
p122
aVForward
p123
aVThree-quarters
p124
aVForward
p125
aVForward
p126
aVForward
p127
aVForward
p128
aVForward
p129
aVHalfback
p130
aVForward
p131
aVThree-quarters
p132
aVForward
p133
aVForward
p134
aVForward
p135
aVHalfback
p136
aVForward
p137
aVForward
p138
aVForward
p139
aVHalfback
p140
aVThree-quarters
p141
aVThree-quarters
p142
aVForward
p143
aVForward
p144
aVForward
p145
aVForward
p146
aVForward
p147
aVHalfback
p148
aVForward
p149
aVThree-quarters
p150
aVForward
p151
aVForward
p152
aVHalfback
p153
aVForward
p154
aVFullback
p155
aVThree-quarters
p156
aVForward
p157
aVForward
p158
aVForward
p159
aVFullback
p160
aVThree-quarters
p161
aVForward
p162
aVForward
p163
aVForward
p164
aVThree-quarters
p165
aVFullback
p166
aVForward
p167
aVThree-quarters
p168
aVForward
p169
aVForward
p170
aVThree-quarters
p171
aVForward
p172
aVForward
p173
aVForward
p174
aVThree-quarters
p175
aVForward
p176
aVHalfback
p177
aVForward
p178
aVForward
p179
aVForward
p180
aVForward
p181
aVForward
p182
aVThree-quarters
p183
aVForward
p184
aVForward
p185
aVThree-quarters
p186
aVForward
p187
aVForward
p188
aVForward
p189
aVForward
p190
aVThree-quarters
p191
aVThree-quarters
p192
aVFullback
p193
aVForward
p194
aVThree-quarters
p195
aVForward
p196
aVHalfback
p197
aVForward
p198
aVForward
p199
aVForward
p200
aVForward
p201
aVForward
p202
aVForward
p203
aVForward
p204
aVFullback
p205
aVHalfback
p206
aVThree-quarters
p207
aVForward
p208
aVForward
p209
aVForward
p210
aVHalfback
p211
aVFullback
p212
aVThree-quarters
p213
aVForward
p214
aVCentre
p215
aVForward
p216
aVHalfback
p217
aVCentre
p218
aVThree-quarters
p219
aVForward
p220
aVForward
p221
aVHalfback
p222
aVThree-quarters
p223
aVHalfback
p224
aVForward
p225
aVThree-quarters
p226
aVForward
p227
aVHalfback
p228
aVForward
p229
aVForward
p230
aVForward
p231
aVForward
p232
aVForward
p233
aVForward
p234
aVHalfback
p235
aVForward
p236
aVHalfback
p237
aVThree-quarters
p238
aVForward
p239
aVForward
p240
aVCentre
p241
aVForward
p242
aVFullback
p243
aVThree-quarters
p244
aVHalfback
p245
aVForward
p246
aVFullback
p247
aVScrum-half
p248
aVForward
p249
aVHalfback
p250
aVFullback
p251
aVForward
p252
aVForward
p253
aVHalfback
p254
aVForward
p255
aVHalfback
p256
aVThree-quarters
p257
aVThree-quarters
p258
aVForward
p259
aVForward
p260
aVHalfback
p261
aVFullback
p262
aVWing
p263
aVForward
p264
aVCentre
p265
aVCentre
p266
aVForward
p267
aVForward
p268
aVHalfback
p269
aVForward
p270
aVWing
p271
aVForward
p272
aVCentre
p273
aVForward
p274
aVFly-half
p275
aVWing
p276
aVForward
p277
aVCentre
p278
aVForward
p279
aVForward
p280
aVForward
p281
aVFullback
p282
aVCentre
p283
aVWing
p284
aVForward
p285
aVForward
p286
aVForward
p287
aVForward
p288
aVForward
p289
aVForward
p290
aVForward
p291
aVForward
p292
aVForward
p293
aVFullback
p294
aVForward
p295
aVWing
p296
aVForward
p297
aVCentre
p298
aVForward
p299
aVForward
p300
aVForward
p301
aVForward
p302
aVForward
p303
aVCentre
p304
aVFly-half
p305
aVWing
p306
aVCentre
p307
aVForward
p308
aVForward
p309
aVCentre
p310
aVForward
p311
aVScrum-half
p312
aVFly-half
p313
aVForward
p314
aVForward
p315
aVForward
p316
aVWing
p317
aVForward
p318
aVScrum-half
p319
aVCentre
p320
aVForward
p321
aVCentre
p322
aVFly-half
p323
aVFly-half
p324
aVForward
p325
aVForward
p326
aVWing
p327
aVFullback
p328
aVForward
p329
aVForward
p330
aVForward
p331
aVWing
p332
aVForward
p333
aVForward
p334
aVForward
p335
aVForward
p336
aVWing
p337
aVFly-half
p338
aVForward
p339
aVForward
p340
aVForward
p341
aVCentre
p342
aVForward
p343
aVForward
p344
aVWing
p345
aVCentre
p346
aVForward
p347
aVFly-half
p348
aVWing
p349
aVForward
p350
aVForward
p351
aVForward
p352
aVScrum-half
p353
aVForward
p354
aVForward
p355
aVWing
p356
aVForward
p357
aVForward
p358
aVForward
p359
aVForward
p360
aVForward
p361
aVFullback
p362
aVWing
p363
aVWing
p364
aVScrum-half
p365
aVForward
p366
aVForward
p367
aVCentre
p368
aVForward
p369
aVForward
p370
aVScrum-half
p371
aVFly-half
p372
aVForward
p373
aVForward
p374
aVForward
p375
aVLock
p376
aVWing
p377
aVCentre
p378
aVForward
p379
aVForward
p380
aVForward
p381
aVForward
p382
aVWing
p383
aVForward
p384
aVForward
p385
aVForward
p386
aVHalfback
p387
aVWing
p388
aVCentre
p389
aVForward
p390
aVForward
p391
aVCentre
p392
aVScrum-half
p393
aVCentre
p394
aVFly-half
p395
aVHooker
p396
aVForward
p397
aVForward
p398
aVHooker
p399
aVForward
p400
aVForward
p401
aVFullback
p402
aVLock
p403
aVWing
p404
aVForward
p405
aVForward
p406
aVLock
p407
aVCentre
p408
aVFullback
p409
aVForward
p410
aVForward
p411
aVForward
p412
aVFly-half
p413
aVScrum-half
p414
aVFly-half
p415
aVCentre
p416
aVWing
p417
aVWing
p418
aVFullback
p419
aVForward
p420
aVForward
p421
aVFlanker
p422
aVProp
p423
aVWing
p424
aVScrum-half
p425
aVLock
p426
aVForward
p427
aVNo. 8
p428
aVWing
p429
aVCentre
p430
aVCentre
p431
aVCentre
p432
aVForward
p433
aVFly-half
p434
aVForward
p435
aVForward
p436
aVHooker
p437
aVWing
p438
aVWing
p439
aVFlanker
p440
aVWing
p441
aVFullback
p442
aVForward
p443
aVForward
p444
aVScrum-half
p445
aVWing
p446
aVForward
p447
aVCentre
p448
aVWing
p449
aVWing
p450
aVForward
p451
aVScrum-half
p452
aVForward
p453
aVForward
p454
aVFlanker
p455
aVCentre
p456
aVFly-half
p457
aVScrum-half
p458
aVFullback
p459
a.