(lp1
(dp2
S'Pens'
p3
S'0'
sS'Sub'
p4
S'0'
sS'Lost'
p5
S'1'
sS'Drop'
p6
S'0'
sS'Start'
p7
S'2'
sS'Won'
p8
S'1'
sS'GfM'
p9
S'0'
sS'Draw'
p10
S'0'
sS'Mat'
p11
S'2'
sS'Conv'
p12
S'0'
sS'Tries'
p13
S'0'
sS'Goals'
p14
S'0'
sa(dp15
S'Pens'
p16
S'0'
sS'Sub'
p17
S'0'
sS'Lost'
p18
S'1'
sS'Drop'
p19
S'0'
sS'Start'
p20
S'4'
sS'Won'
p21
S'2'
sS'GfM'
p22
S'0'
sS'Draw'
p23
S'1'
sS'Mat'
p24
S'4'
sS'Conv'
p25
S'0'
sS'Tries'
p26
S'1'
sS'Goals'
p27
S'0'
sa(dp28
S'Pens'
p29
S'0'
sS'Sub'
p30
S'0'
sS'Lost'
p31
S'1'
sS'Drop'
p32
S'0'
sS'Start'
p33
S'1'
sS'Won'
p34
S'0'
sS'GfM'
p35
S'0'
sS'Draw'
p36
S'0'
sS'Mat'
p37
S'1'
sS'Conv'
p38
S'0'
sS'Tries'
p39
S'0'
sS'Goals'
p40
S'0'
sa(dp41
S'Pens'
p42
S'0'
sS'Sub'
p43
S'0'
sS'Lost'
p44
S'1'
sS'Drop'
p45
S'0'
sS'Start'
p46
S'1'
sS'Won'
p47
S'0'
sS'GfM'
p48
S'0'
sS'Draw'
p49
S'0'
sS'Mat'
p50
S'1'
sS'Conv'
p51
S'0'
sS'Tries'
p52
S'0'
sS'Goals'
p53
S'0'
sa(dp54
S'Pens'
p55
S'0'
sS'Sub'
p56
S'0'
sS'Lost'
p57
S'1'
sS'Drop'
p58
S'0'
sS'Start'
p59
S'1'
sS'Won'
p60
S'0'
sS'GfM'
p61
S'0'
sS'Draw'
p62
S'0'
sS'Mat'
p63
S'1'
sS'Conv'
p64
S'0'
sS'Tries'
p65
S'0'
sS'Goals'
p66
S'0'
sa(dp67
S'Pens'
p68
S'0'
sS'Sub'
p69
S'0'
sS'Lost'
p70
S'1'
sS'Drop'
p71
S'0'
sS'Start'
p72
S'1'
sS'Won'
p73
S'0'
sS'GfM'
p74
S'0'
sS'Draw'
p75
S'0'
sS'Mat'
p76
S'1'
sS'Conv'
p77
S'0'
sS'Tries'
p78
S'0'
sS'Goals'
p79
S'0'
sa(dp80
S'Pens'
p81
S'0'
sS'Sub'
p82
S'0'
sS'Lost'
p83
S'1'
sS'Drop'
p84
S'0'
sS'Start'
p85
S'1'
sS'Won'
p86
S'0'
sS'GfM'
p87
S'0'
sS'Draw'
p88
S'0'
sS'Mat'
p89
S'1'
sS'Conv'
p90
S'0'
sS'Tries'
p91
S'0'
sS'Goals'
p92
S'0'
sa(dp93
S'Pens'
p94
S'0'
sS'Sub'
p95
S'0'
sS'Lost'
p96
S'1'
sS'Drop'
p97
S'0'
sS'Start'
p98
S'1'
sS'Won'
p99
S'0'
sS'GfM'
p100
S'0'
sS'Draw'
p101
S'0'
sS'Mat'
p102
S'1'
sS'Conv'
p103
S'0'
sS'Tries'
p104
S'0'
sS'Goals'
p105
S'0'
sa(dp106
S'Pens'
p107
S'0'
sS'Sub'
p108
S'0'
sS'Lost'
p109
S'1'
sS'Drop'
p110
S'0'
sS'Start'
p111
S'1'
sS'Won'
p112
S'0'
sS'GfM'
p113
S'0'
sS'Draw'
p114
S'0'
sS'Mat'
p115
S'1'
sS'Conv'
p116
S'0'
sS'Tries'
p117
S'0'
sS'Goals'
p118
S'0'
sa(dp119
S'Pens'
p120
S'0'
sS'Sub'
p121
S'0'
sS'Lost'
p122
S'1'
sS'Drop'
p123
S'0'
sS'Start'
p124
S'2'
sS'Won'
p125
S'1'
sS'GfM'
p126
S'0'
sS'Draw'
p127
S'0'
sS'Mat'
p128
S'2'
sS'Conv'
p129
S'0'
sS'Tries'
p130
S'0'
sS'Goals'
p131
S'0'
sa(dp132
S'Pens'
p133
S'0'
sS'Sub'
p134
S'0'
sS'Lost'
p135
S'1'
sS'Drop'
p136
S'0'
sS'Start'
p137
S'4'
sS'Won'
p138
S'2'
sS'GfM'
p139
S'0'
sS'Draw'
p140
S'1'
sS'Mat'
p141
S'4'
sS'Conv'
p142
S'0'
sS'Tries'
p143
S'1'
sS'Goals'
p144
S'0'
sa(dp145
S'Pens'
p146
S'0'
sS'Sub'
p147
S'0'
sS'Lost'
p148
S'1'
sS'Drop'
p149
S'0'
sS'Start'
p150
S'1'
sS'Won'
p151
S'0'
sS'GfM'
p152
S'0'
sS'Draw'
p153
S'0'
sS'Mat'
p154
S'1'
sS'Conv'
p155
S'0'
sS'Tries'
p156
S'0'
sS'Goals'
p157
S'0'
sa(dp158
S'Pens'
p159
S'0'
sS'Sub'
p160
S'0'
sS'Lost'
p161
S'1'
sS'Drop'
p162
S'0'
sS'Start'
p163
S'1'
sS'Won'
p164
S'0'
sS'GfM'
p165
S'0'
sS'Draw'
p166
S'0'
sS'Mat'
p167
S'1'
sS'Conv'
p168
S'0'
sS'Tries'
p169
S'0'
sS'Goals'
p170
S'0'
sa(dp171
S'Pens'
p172
S'0'
sS'Sub'
p173
S'0'
sS'Lost'
p174
S'1'
sS'Drop'
p175
S'0'
sS'Start'
p176
S'1'
sS'Won'
p177
S'0'
sS'GfM'
p178
S'0'
sS'Draw'
p179
S'0'
sS'Mat'
p180
S'1'
sS'Conv'
p181
S'0'
sS'Tries'
p182
S'0'
sS'Goals'
p183
S'0'
sa(dp184
S'Pens'
p185
S'0'
sS'Sub'
p186
S'0'
sS'Lost'
p187
S'1'
sS'Drop'
p188
S'0'
sS'Start'
p189
S'1'
sS'Won'
p190
S'0'
sS'GfM'
p191
S'0'
sS'Draw'
p192
S'0'
sS'Mat'
p193
S'1'
sS'Conv'
p194
S'0'
sS'Tries'
p195
S'0'
sS'Goals'
p196
S'0'
sa(dp197
S'Pens'
p198
S'0'
sS'Sub'
p199
S'0'
sS'Lost'
p200
S'1'
sS'Drop'
p201
S'0'
sS'Start'
p202
S'2'
sS'Won'
p203
S'1'
sS'GfM'
p204
S'0'
sS'Draw'
p205
S'0'
sS'Mat'
p206
S'2'
sS'Conv'
p207
S'0'
sS'Tries'
p208
S'0'
sS'Goals'
p209
S'0'
sa(dp210
S'Pens'
p211
S'0'
sS'Sub'
p212
S'0'
sS'Lost'
p213
S'1'
sS'Drop'
p214
S'0'
sS'Start'
p215
S'3'
sS'Won'
p216
S'1'
sS'GfM'
p217
S'0'
sS'Draw'
p218
S'1'
sS'Mat'
p219
S'3'
sS'Conv'
p220
S'0'
sS'Tries'
p221
S'0'
sS'Goals'
p222
S'0'
sa(dp223
S'Pens'
p224
S'0'
sS'Sub'
p225
S'0'
sS'Lost'
p226
S'1'
sS'Drop'
p227
S'0'
sS'Start'
p228
S'1'
sS'Won'
p229
S'0'
sS'GfM'
p230
S'0'
sS'Draw'
p231
S'0'
sS'Mat'
p232
S'1'
sS'Conv'
p233
S'0'
sS'Tries'
p234
S'0'
sS'Goals'
p235
S'0'
sa(dp236
S'Pens'
p237
S'0'
sS'Sub'
p238
S'0'
sS'Lost'
p239
S'1'
sS'Drop'
p240
S'0'
sS'Start'
p241
S'6'
sS'Won'
p242
S'3'
sS'GfM'
p243
S'0'
sS'Draw'
p244
S'2'
sS'Mat'
p245
S'6'
sS'Conv'
p246
S'0'
sS'Tries'
p247
S'0'
sS'Goals'
p248
S'0'
sa(dp249
S'Pens'
p250
S'0'
sS'Sub'
p251
S'0'
sS'Lost'
p252
S'1'
sS'Drop'
p253
S'0'
sS'Start'
p254
S'1'
sS'Won'
p255
S'0'
sS'GfM'
p256
S'0'
sS'Draw'
p257
S'0'
sS'Mat'
p258
S'1'
sS'Conv'
p259
S'0'
sS'Tries'
p260
S'0'
sS'Goals'
p261
S'0'
sa(dp262
S'Pens'
p263
S'0'
sS'Sub'
p264
S'0'
sS'Lost'
p265
S'0'
sS'Drop'
p266
S'0'
sS'Start'
p267
S'3'
sS'Won'
p268
S'3'
sS'GfM'
p269
S'0'
sS'Draw'
p270
S'0'
sS'Mat'
p271
S'3'
sS'Conv'
p272
S'0'
sS'Tries'
p273
S'0'
sS'Goals'
p274
S'0'
sa(dp275
S'Pens'
p276
S'0'
sS'Sub'
p277
S'0'
sS'Lost'
p278
S'0'
sS'Drop'
p279
S'0'
sS'Start'
p280
S'2'
sS'Won'
p281
S'1'
sS'GfM'
p282
S'0'
sS'Draw'
p283
S'1'
sS'Mat'
p284
S'2'
sS'Conv'
p285
S'0'
sS'Tries'
p286
S'0'
sS'Goals'
p287
S'0'
sa(dp288
S'Pens'
p289
S'0'
sS'Sub'
p290
S'0'
sS'Lost'
p291
S'0'
sS'Drop'
p292
S'0'
sS'Start'
p293
S'5'
sS'Won'
p294
S'3'
sS'GfM'
p295
S'0'
sS'Draw'
p296
S'2'
sS'Mat'
p297
S'5'
sS'Conv'
p298
S'0'
sS'Tries'
p299
S'0'
sS'Goals'
p300
S'0'
sa(dp301
S'Pens'
p302
S'0'
sS'Sub'
p303
S'0'
sS'Lost'
p304
S'0'
sS'Drop'
p305
S'0'
sS'Start'
p306
S'1'
sS'Won'
p307
S'1'
sS'GfM'
p308
S'0'
sS'Draw'
p309
S'0'
sS'Mat'
p310
S'1'
sS'Conv'
p311
S'0'
sS'Tries'
p312
S'0'
sS'Goals'
p313
S'0'
sa(dp314
S'Pens'
p315
S'0'
sS'Sub'
p316
S'0'
sS'Lost'
p317
S'0'
sS'Drop'
p318
S'0'
sS'Start'
p319
S'1'
sS'Won'
p320
S'1'
sS'GfM'
p321
S'0'
sS'Draw'
p322
S'0'
sS'Mat'
p323
S'1'
sS'Conv'
p324
S'0'
sS'Tries'
p325
S'1'
sS'Goals'
p326
S'0'
sa(dp327
S'Pens'
p328
S'0'
sS'Sub'
p329
S'0'
sS'Lost'
p330
S'0'
sS'Drop'
p331
S'0'
sS'Start'
p332
S'2'
sS'Won'
p333
S'1'
sS'GfM'
p334
S'0'
sS'Draw'
p335
S'1'
sS'Mat'
p336
S'2'
sS'Conv'
p337
S'0'
sS'Tries'
p338
S'1'
sS'Goals'
p339
S'0'
sa(dp340
S'Pens'
p341
S'0'
sS'Sub'
p342
S'0'
sS'Lost'
p343
S'0'
sS'Drop'
p344
S'2'
sS'Start'
p345
S'3'
sS'Won'
p346
S'2'
sS'GfM'
p347
S'0'
sS'Draw'
p348
S'1'
sS'Mat'
p349
S'3'
sS'Conv'
p350
S'0'
sS'Tries'
p351
S'0'
sS'Goals'
p352
S'2'
sa(dp353
S'Pens'
p354
S'0'
sS'Sub'
p355
S'0'
sS'Lost'
p356
S'0'
sS'Drop'
p357
S'0'
sS'Start'
p358
S'1'
sS'Won'
p359
S'1'
sS'GfM'
p360
S'0'
sS'Draw'
p361
S'0'
sS'Mat'
p362
S'1'
sS'Conv'
p363
S'1'
sS'Tries'
p364
S'0'
sS'Goals'
p365
S'1'
sa(dp366
S'Pens'
p367
S'0'
sS'Sub'
p368
S'0'
sS'Lost'
p369
S'0'
sS'Drop'
p370
S'0'
sS'Start'
p371
S'6'
sS'Won'
p372
S'4'
sS'GfM'
p373
S'0'
sS'Draw'
p374
S'2'
sS'Mat'
p375
S'6'
sS'Conv'
p376
S'0'
sS'Tries'
p377
S'0'
sS'Goals'
p378
S'0'
sa(dp379
S'Pens'
p380
S'0'
sS'Sub'
p381
S'0'
sS'Lost'
p382
S'0'
sS'Drop'
p383
S'0'
sS'Start'
p384
S'3'
sS'Won'
p385
S'2'
sS'GfM'
p386
S'0'
sS'Draw'
p387
S'1'
sS'Mat'
p388
S'3'
sS'Conv'
p389
S'0'
sS'Tries'
p390
S'0'
sS'Goals'
p391
S'0'
sa(dp392
S'Pens'
p393
S'0'
sS'Sub'
p394
S'0'
sS'Lost'
p395
S'0'
sS'Drop'
p396
S'0'
sS'Start'
p397
S'2'
sS'Won'
p398
S'1'
sS'GfM'
p399
S'0'
sS'Draw'
p400
S'1'
sS'Mat'
p401
S'2'
sS'Conv'
p402
S'0'
sS'Tries'
p403
S'0'
sS'Goals'
p404
S'0'
sa(dp405
S'Pens'
p406
S'0'
sS'Sub'
p407
S'0'
sS'Lost'
p408
S'0'
sS'Drop'
p409
S'0'
sS'Start'
p410
S'1'
sS'Won'
p411
S'1'
sS'GfM'
p412
S'0'
sS'Draw'
p413
S'0'
sS'Mat'
p414
S'1'
sS'Conv'
p415
S'0'
sS'Tries'
p416
S'0'
sS'Goals'
p417
S'0'
sa(dp418
S'Pens'
p419
S'0'
sS'Sub'
p420
S'0'
sS'Lost'
p421
S'0'
sS'Drop'
p422
S'0'
sS'Start'
p423
S'1'
sS'Won'
p424
S'1'
sS'GfM'
p425
S'0'
sS'Draw'
p426
S'0'
sS'Mat'
p427
S'1'
sS'Conv'
p428
S'0'
sS'Tries'
p429
S'0'
sS'Goals'
p430
S'0'
sa(dp431
S'Pens'
p432
S'0'
sS'Sub'
p433
S'0'
sS'Lost'
p434
S'0'
sS'Drop'
p435
S'0'
sS'Start'
p436
S'1'
sS'Won'
p437
S'1'
sS'GfM'
p438
S'0'
sS'Draw'
p439
S'0'
sS'Mat'
p440
S'1'
sS'Conv'
p441
S'0'
sS'Tries'
p442
S'0'
sS'Goals'
p443
S'0'
sa(dp444
S'Pens'
p445
S'0'
sS'Sub'
p446
S'0'
sS'Lost'
p447
S'0'
sS'Drop'
p448
S'0'
sS'Start'
p449
S'1'
sS'Won'
p450
S'0'
sS'GfM'
p451
S'0'
sS'Draw'
p452
S'1'
sS'Mat'
p453
S'1'
sS'Conv'
p454
S'0'
sS'Tries'
p455
S'0'
sS'Goals'
p456
S'0'
sa(dp457
S'Pens'
p458
S'0'
sS'Sub'
p459
S'0'
sS'Lost'
p460
S'0'
sS'Drop'
p461
S'0'
sS'Start'
p462
S'5'
sS'Won'
p463
S'3'
sS'GfM'
p464
S'0'
sS'Draw'
p465
S'2'
sS'Mat'
p466
S'5'
sS'Conv'
p467
S'0'
sS'Tries'
p468
S'1'
sS'Goals'
p469
S'0'
sa(dp470
S'Pens'
p471
S'0'
sS'Sub'
p472
S'0'
sS'Lost'
p473
S'0'
sS'Drop'
p474
S'0'
sS'Start'
p475
S'2'
sS'Won'
p476
S'0'
sS'GfM'
p477
S'0'
sS'Draw'
p478
S'2'
sS'Mat'
p479
S'2'
sS'Conv'
p480
S'0'
sS'Tries'
p481
S'0'
sS'Goals'
p482
S'0'
sa(dp483
S'Pens'
p484
S'0'
sS'Sub'
p485
S'0'
sS'Lost'
p486
S'0'
sS'Drop'
p487
S'0'
sS'Start'
p488
S'4'
sS'Won'
p489
S'2'
sS'GfM'
p490
S'0'
sS'Draw'
p491
S'2'
sS'Mat'
p492
S'4'
sS'Conv'
p493
S'0'
sS'Tries'
p494
S'0'
sS'Goals'
p495
S'0'
sa(dp496
S'Pens'
p497
S'0'
sS'Sub'
p498
S'0'
sS'Lost'
p499
S'0'
sS'Drop'
p500
S'0'
sS'Start'
p501
S'1'
sS'Won'
p502
S'0'
sS'GfM'
p503
S'0'
sS'Draw'
p504
S'1'
sS'Mat'
p505
S'1'
sS'Conv'
p506
S'0'
sS'Tries'
p507
S'0'
sS'Goals'
p508
S'0'
sa(dp509
S'Pens'
p510
S'0'
sS'Sub'
p511
S'0'
sS'Lost'
p512
S'1'
sS'Drop'
p513
S'0'
sS'Start'
p514
S'10'
p515
sS'Won'
p516
S'6'
sS'GfM'
p517
S'0'
sS'Draw'
p518
S'3'
sS'Mat'
p519
S'10'
p520
sS'Conv'
p521
S'0'
sS'Tries'
p522
S'0'
sS'Goals'
p523
S'0'
sa(dp524
S'Pens'
p525
S'0'
sS'Sub'
p526
S'0'
sS'Lost'
p527
S'0'
sS'Drop'
p528
S'0'
sS'Start'
p529
S'3'
sS'Won'
p530
S'1'
sS'GfM'
p531
S'0'
sS'Draw'
p532
S'2'
sS'Mat'
p533
S'3'
sS'Conv'
p534
S'0'
sS'Tries'
p535
S'0'
sS'Goals'
p536
S'0'
sa(dp537
S'Pens'
p538
S'0'
sS'Sub'
p539
S'0'
sS'Lost'
p540
S'0'
sS'Drop'
p541
S'0'
sS'Start'
p542
S'1'
sS'Won'
p543
S'0'
sS'GfM'
p544
S'0'
sS'Draw'
p545
S'1'
sS'Mat'
p546
S'1'
sS'Conv'
p547
S'0'
sS'Tries'
p548
S'0'
sS'Goals'
p549
S'0'
sa(dp550
S'Pens'
p551
S'0'
sS'Sub'
p552
S'0'
sS'Lost'
p553
S'0'
sS'Drop'
p554
S'0'
sS'Start'
p555
S'1'
sS'Won'
p556
S'0'
sS'GfM'
p557
S'0'
sS'Draw'
p558
S'1'
sS'Mat'
p559
S'1'
sS'Conv'
p560
S'0'
sS'Tries'
p561
S'0'
sS'Goals'
p562
S'0'
sa(dp563
S'Pens'
p564
S'0'
sS'Sub'
p565
S'0'
sS'Lost'
p566
S'0'
sS'Drop'
p567
S'0'
sS'Start'
p568
S'1'
sS'Won'
p569
S'0'
sS'GfM'
p570
S'0'
sS'Draw'
p571
S'1'
sS'Mat'
p572
S'1'
sS'Conv'
p573
S'0'
sS'Tries'
p574
S'0'
sS'Goals'
p575
S'0'
sa(dp576
S'Pens'
p577
S'0'
sS'Sub'
p578
S'0'
sS'Lost'
p579
S'0'
sS'Drop'
p580
S'0'
sS'Start'
p581
S'1'
sS'Won'
p582
S'1'
sS'GfM'
p583
S'0'
sS'Draw'
p584
S'0'
sS'Mat'
p585
S'1'
sS'Conv'
p586
S'0'
sS'Tries'
p587
S'0'
sS'Goals'
p588
S'0'
sa(dp589
S'Pens'
p590
S'0'
sS'Sub'
p591
S'0'
sS'Lost'
p592
S'0'
sS'Drop'
p593
S'0'
sS'Start'
p594
S'1'
sS'Won'
p595
S'1'
sS'GfM'
p596
S'0'
sS'Draw'
p597
S'0'
sS'Mat'
p598
S'1'
sS'Conv'
p599
S'0'
sS'Tries'
p600
S'0'
sS'Goals'
p601
S'0'
sa(dp602
S'Pens'
p603
S'0'
sS'Sub'
p604
S'0'
sS'Lost'
p605
S'0'
sS'Drop'
p606
S'0'
sS'Start'
p607
S'1'
sS'Won'
p608
S'1'
sS'GfM'
p609
S'0'
sS'Draw'
p610
S'0'
sS'Mat'
p611
S'1'
sS'Conv'
p612
S'0'
sS'Tries'
p613
S'0'
sS'Goals'
p614
S'0'
sa(dp615
S'Pens'
p616
S'0'
sS'Sub'
p617
S'0'
sS'Lost'
p618
S'0'
sS'Drop'
p619
S'0'
sS'Start'
p620
S'5'
sS'Won'
p621
S'4'
sS'GfM'
p622
S'0'
sS'Draw'
p623
S'1'
sS'Mat'
p624
S'5'
sS'Conv'
p625
S'0'
sS'Tries'
p626
S'1'
sS'Goals'
p627
S'0'
sa(dp628
S'Pens'
p629
S'0'
sS'Sub'
p630
S'0'
sS'Lost'
p631
S'0'
sS'Drop'
p632
S'0'
sS'Start'
p633
S'2'
sS'Won'
p634
S'2'
sS'GfM'
p635
S'0'
sS'Draw'
p636
S'0'
sS'Mat'
p637
S'2'
sS'Conv'
p638
S'0'
sS'Tries'
p639
S'0'
sS'Goals'
p640
S'0'
sa(dp641
S'Pens'
p642
S'0'
sS'Sub'
p643
S'0'
sS'Lost'
p644
S'0'
sS'Drop'
p645
S'0'
sS'Start'
p646
S'1'
sS'Won'
p647
S'1'
sS'GfM'
p648
S'0'
sS'Draw'
p649
S'0'
sS'Mat'
p650
S'1'
sS'Conv'
p651
S'0'
sS'Tries'
p652
S'0'
sS'Goals'
p653
S'0'
sa(dp654
S'Pens'
p655
S'0'
sS'Sub'
p656
S'0'
sS'Lost'
p657
S'0'
sS'Drop'
p658
S'0'
sS'Start'
p659
S'2'
sS'Won'
p660
S'1'
sS'GfM'
p661
S'0'
sS'Draw'
p662
S'1'
sS'Mat'
p663
S'2'
sS'Conv'
p664
S'0'
sS'Tries'
p665
S'0'
sS'Goals'
p666
S'0'
sa(dp667
S'Pens'
p668
S'0'
sS'Sub'
p669
S'0'
sS'Lost'
p670
S'1'
sS'Drop'
p671
S'0'
sS'Start'
p672
S'7'
sS'Won'
p673
S'4'
sS'GfM'
p674
S'0'
sS'Draw'
p675
S'2'
sS'Mat'
p676
S'7'
sS'Conv'
p677
S'0'
sS'Tries'
p678
S'1'
sS'Goals'
p679
S'0'
sa(dp680
S'Pens'
p681
S'0'
sS'Sub'
p682
S'0'
sS'Lost'
p683
S'0'
sS'Drop'
p684
S'0'
sS'Start'
p685
S'2'
sS'Won'
p686
S'2'
sS'GfM'
p687
S'0'
sS'Draw'
p688
S'0'
sS'Mat'
p689
S'2'
sS'Conv'
p690
S'0'
sS'Tries'
p691
S'0'
sS'Goals'
p692
S'0'
sa(dp693
S'Pens'
p694
S'0'
sS'Sub'
p695
S'0'
sS'Lost'
p696
S'0'
sS'Drop'
p697
S'0'
sS'Start'
p698
S'2'
sS'Won'
p699
S'1'
sS'GfM'
p700
S'0'
sS'Draw'
p701
S'1'
sS'Mat'
p702
S'2'
sS'Conv'
p703
S'0'
sS'Tries'
p704
S'0'
sS'Goals'
p705
S'0'
sa(dp706
S'Pens'
p707
S'0'
sS'Sub'
p708
S'0'
sS'Lost'
p709
S'0'
sS'Drop'
p710
S'0'
sS'Start'
p711
S'1'
sS'Won'
p712
S'1'
sS'GfM'
p713
S'0'
sS'Draw'
p714
S'0'
sS'Mat'
p715
S'1'
sS'Conv'
p716
S'0'
sS'Tries'
p717
S'0'
sS'Goals'
p718
S'0'
sa(dp719
S'Pens'
p720
S'0'
sS'Sub'
p721
S'0'
sS'Lost'
p722
S'0'
sS'Drop'
p723
S'0'
sS'Start'
p724
S'5'
sS'Won'
p725
S'4'
sS'GfM'
p726
S'0'
sS'Draw'
p727
S'1'
sS'Mat'
p728
S'5'
sS'Conv'
p729
S'0'
sS'Tries'
p730
S'0'
sS'Goals'
p731
S'0'
sa(dp732
S'Pens'
p733
S'0'
sS'Sub'
p734
S'0'
sS'Lost'
p735
S'0'
sS'Drop'
p736
S'0'
sS'Start'
p737
S'7'
sS'Won'
p738
S'4'
sS'GfM'
p739
S'0'
sS'Draw'
p740
S'3'
sS'Mat'
p741
S'7'
sS'Conv'
p742
S'0'
sS'Tries'
p743
S'2'
sS'Goals'
p744
S'0'
sa(dp745
S'Pens'
p746
S'0'
sS'Sub'
p747
S'0'
sS'Lost'
p748
S'0'
sS'Drop'
p749
S'0'
sS'Start'
p750
S'1'
sS'Won'
p751
S'1'
sS'GfM'
p752
S'0'
sS'Draw'
p753
S'0'
sS'Mat'
p754
S'1'
sS'Conv'
p755
S'0'
sS'Tries'
p756
S'0'
sS'Goals'
p757
S'0'
sa(dp758
S'Pens'
p759
S'0'
sS'Sub'
p760
S'0'
sS'Lost'
p761
S'0'
sS'Drop'
p762
S'0'
sS'Start'
p763
S'4'
sS'Won'
p764
S'3'
sS'GfM'
p765
S'0'
sS'Draw'
p766
S'1'
sS'Mat'
p767
S'4'
sS'Conv'
p768
S'0'
sS'Tries'
p769
S'0'
sS'Goals'
p770
S'0'
sa(dp771
S'Pens'
p772
S'0'
sS'Sub'
p773
S'0'
sS'Lost'
p774
S'0'
sS'Drop'
p775
S'0'
sS'Start'
p776
S'2'
sS'Won'
p777
S'2'
sS'GfM'
p778
S'0'
sS'Draw'
p779
S'0'
sS'Mat'
p780
S'2'
sS'Conv'
p781
S'0'
sS'Tries'
p782
S'0'
sS'Goals'
p783
S'0'
sa(dp784
S'Pens'
p785
S'0'
sS'Sub'
p786
S'0'
sS'Lost'
p787
S'0'
sS'Drop'
p788
S'0'
sS'Start'
p789
S'3'
sS'Won'
p790
S'2'
sS'GfM'
p791
S'0'
sS'Draw'
p792
S'1'
sS'Mat'
p793
S'3'
sS'Conv'
p794
S'0'
sS'Tries'
p795
S'1'
sS'Goals'
p796
S'0'
sa(dp797
S'Pens'
p798
S'0'
sS'Sub'
p799
S'0'
sS'Lost'
p800
S'0'
sS'Drop'
p801
S'1'
sS'Start'
p802
S'1'
sS'Won'
p803
S'1'
sS'GfM'
p804
S'0'
sS'Draw'
p805
S'0'
sS'Mat'
p806
S'1'
sS'Conv'
p807
S'0'
sS'Tries'
p808
S'0'
sS'Goals'
p809
S'1'
sa(dp810
S'Pens'
p811
S'0'
sS'Sub'
p812
S'0'
sS'Lost'
p813
S'1'
sS'Drop'
p814
S'0'
sS'Start'
p815
S'7'
sS'Won'
p816
S'4'
sS'GfM'
p817
S'0'
sS'Draw'
p818
S'2'
sS'Mat'
p819
S'7'
sS'Conv'
p820
S'4'
sS'Tries'
p821
S'0'
sS'Goals'
p822
S'4'
sa(dp823
S'Pens'
p824
S'0'
sS'Sub'
p825
S'0'
sS'Lost'
p826
S'0'
sS'Drop'
p827
S'0'
sS'Start'
p828
S'1'
sS'Won'
p829
S'1'
sS'GfM'
p830
S'0'
sS'Draw'
p831
S'0'
sS'Mat'
p832
S'1'
sS'Conv'
p833
S'0'
sS'Tries'
p834
S'0'
sS'Goals'
p835
S'0'
sa(dp836
S'Pens'
p837
S'0'
sS'Sub'
p838
S'0'
sS'Lost'
p839
S'1'
sS'Drop'
p840
S'2'
sS'Start'
p841
S'12'
p842
sS'Won'
p843
S'8'
sS'GfM'
p844
S'0'
sS'Draw'
p845
S'3'
sS'Mat'
p846
S'12'
p847
sS'Conv'
p848
S'17'
p849
sS'Tries'
p850
S'0'
sS'Goals'
p851
S'19'
p852
sa(dp853
S'Pens'
p854
S'0'
sS'Sub'
p855
S'0'
sS'Lost'
p856
S'1'
sS'Drop'
p857
S'0'
sS'Start'
p858
S'3'
sS'Won'
p859
S'1'
sS'GfM'
p860
S'0'
sS'Draw'
p861
S'1'
sS'Mat'
p862
S'3'
sS'Conv'
p863
S'0'
sS'Tries'
p864
S'0'
sS'Goals'
p865
S'0'
sa(dp866
S'Pens'
p867
S'0'
sS'Sub'
p868
S'0'
sS'Lost'
p869
S'1'
sS'Drop'
p870
S'0'
sS'Start'
p871
S'5'
sS'Won'
p872
S'1'
sS'GfM'
p873
S'0'
sS'Draw'
p874
S'3'
sS'Mat'
p875
S'5'
sS'Conv'
p876
S'0'
sS'Tries'
p877
S'1'
sS'Goals'
p878
S'0'
sa(dp879
S'Pens'
p880
S'0'
sS'Sub'
p881
S'0'
sS'Lost'
p882
S'0'
sS'Drop'
p883
S'0'
sS'Start'
p884
S'1'
sS'Won'
p885
S'0'
sS'GfM'
p886
S'0'
sS'Draw'
p887
S'1'
sS'Mat'
p888
S'1'
sS'Conv'
p889
S'0'
sS'Tries'
p890
S'0'
sS'Goals'
p891
S'0'
sa(dp892
S'Pens'
p893
S'0'
sS'Sub'
p894
S'0'
sS'Lost'
p895
S'0'
sS'Drop'
p896
S'0'
sS'Start'
p897
S'1'
sS'Won'
p898
S'1'
sS'GfM'
p899
S'0'
sS'Draw'
p900
S'0'
sS'Mat'
p901
S'1'
sS'Conv'
p902
S'0'
sS'Tries'
p903
S'0'
sS'Goals'
p904
S'0'
sa(dp905
S'Pens'
p906
S'0'
sS'Sub'
p907
S'0'
sS'Lost'
p908
S'1'
sS'Drop'
p909
S'0'
sS'Start'
p910
S'2'
sS'Won'
p911
S'1'
sS'GfM'
p912
S'0'
sS'Draw'
p913
S'0'
sS'Mat'
p914
S'2'
sS'Conv'
p915
S'0'
sS'Tries'
p916
S'0'
sS'Goals'
p917
S'0'
sa(dp918
S'Pens'
p919
S'0'
sS'Sub'
p920
S'0'
sS'Lost'
p921
S'0'
sS'Drop'
p922
S'0'
sS'Start'
p923
S'1'
sS'Won'
p924
S'1'
sS'GfM'
p925
S'0'
sS'Draw'
p926
S'0'
sS'Mat'
p927
S'1'
sS'Conv'
p928
S'0'
sS'Tries'
p929
S'0'
sS'Goals'
p930
S'0'
sa(dp931
S'Pens'
p932
S'0'
sS'Sub'
p933
S'0'
sS'Lost'
p934
S'0'
sS'Drop'
p935
S'0'
sS'Start'
p936
S'1'
sS'Won'
p937
S'1'
sS'GfM'
p938
S'0'
sS'Draw'
p939
S'0'
sS'Mat'
p940
S'1'
sS'Conv'
p941
S'0'
sS'Tries'
p942
S'1'
sS'Goals'
p943
S'0'
sa(dp944
S'Pens'
p945
S'0'
sS'Sub'
p946
S'0'
sS'Lost'
p947
S'0'
sS'Drop'
p948
S'0'
sS'Start'
p949
S'1'
sS'Won'
p950
S'1'
sS'GfM'
p951
S'0'
sS'Draw'
p952
S'0'
sS'Mat'
p953
S'1'
sS'Conv'
p954
S'0'
sS'Tries'
p955
S'0'
sS'Goals'
p956
S'0'
sa(dp957
S'Pens'
p958
S'0'
sS'Sub'
p959
S'0'
sS'Lost'
p960
S'0'
sS'Drop'
p961
S'0'
sS'Start'
p962
S'2'
sS'Won'
p963
S'2'
sS'GfM'
p964
S'0'
sS'Draw'
p965
S'0'
sS'Mat'
p966
S'2'
sS'Conv'
p967
S'0'
sS'Tries'
p968
S'0'
sS'Goals'
p969
S'0'
sa(dp970
S'Pens'
p971
S'0'
sS'Sub'
p972
S'0'
sS'Lost'
p973
S'0'
sS'Drop'
p974
S'0'
sS'Start'
p975
S'1'
sS'Won'
p976
S'1'
sS'GfM'
p977
S'0'
sS'Draw'
p978
S'0'
sS'Mat'
p979
S'1'
sS'Conv'
p980
S'0'
sS'Tries'
p981
S'0'
sS'Goals'
p982
S'0'
sa(dp983
S'Pens'
p984
S'0'
sS'Sub'
p985
S'0'
sS'Lost'
p986
S'0'
sS'Drop'
p987
S'0'
sS'Start'
p988
S'1'
sS'Won'
p989
S'1'
sS'GfM'
p990
S'0'
sS'Draw'
p991
S'0'
sS'Mat'
p992
S'1'
sS'Conv'
p993
S'0'
sS'Tries'
p994
S'0'
sS'Goals'
p995
S'0'
sa(dp996
S'Pens'
p997
S'0'
sS'Sub'
p998
S'0'
sS'Lost'
p999
S'0'
sS'Drop'
p1000
S'0'
sS'Start'
p1001
S'1'
sS'Won'
p1002
S'1'
sS'GfM'
p1003
S'0'
sS'Draw'
p1004
S'0'
sS'Mat'
p1005
S'1'
sS'Conv'
p1006
S'0'
sS'Tries'
p1007
S'0'
sS'Goals'
p1008
S'0'
sa(dp1009
S'Pens'
p1010
S'0'
sS'Sub'
p1011
S'0'
sS'Lost'
p1012
S'0'
sS'Drop'
p1013
S'0'
sS'Start'
p1014
S'3'
sS'Won'
p1015
S'3'
sS'GfM'
p1016
S'0'
sS'Draw'
p1017
S'0'
sS'Mat'
p1018
S'3'
sS'Conv'
p1019
S'0'
sS'Tries'
p1020
S'1'
sS'Goals'
p1021
S'0'
sa(dp1022
S'Pens'
p1023
S'0'
sS'Sub'
p1024
S'0'
sS'Lost'
p1025
S'0'
sS'Drop'
p1026
S'0'
sS'Start'
p1027
S'2'
sS'Won'
p1028
S'2'
sS'GfM'
p1029
S'0'
sS'Draw'
p1030
S'0'
sS'Mat'
p1031
S'2'
sS'Conv'
p1032
S'0'
sS'Tries'
p1033
S'0'
sS'Goals'
p1034
S'0'
sa(dp1035
S'Pens'
p1036
S'0'
sS'Sub'
p1037
S'0'
sS'Lost'
p1038
S'0'
sS'Drop'
p1039
S'0'
sS'Start'
p1040
S'1'
sS'Won'
p1041
S'1'
sS'GfM'
p1042
S'0'
sS'Draw'
p1043
S'0'
sS'Mat'
p1044
S'1'
sS'Conv'
p1045
S'0'
sS'Tries'
p1046
S'0'
sS'Goals'
p1047
S'0'
sa(dp1048
S'Pens'
p1049
S'0'
sS'Sub'
p1050
S'0'
sS'Lost'
p1051
S'1'
sS'Drop'
p1052
S'0'
sS'Start'
p1053
S'4'
sS'Won'
p1054
S'3'
sS'GfM'
p1055
S'0'
sS'Draw'
p1056
S'0'
sS'Mat'
p1057
S'4'
sS'Conv'
p1058
S'0'
sS'Tries'
p1059
S'0'
sS'Goals'
p1060
S'0'
sa(dp1061
S'Pens'
p1062
S'0'
sS'Sub'
p1063
S'0'
sS'Lost'
p1064
S'0'
sS'Drop'
p1065
S'0'
sS'Start'
p1066
S'2'
sS'Won'
p1067
S'2'
sS'GfM'
p1068
S'0'
sS'Draw'
p1069
S'0'
sS'Mat'
p1070
S'2'
sS'Conv'
p1071
S'0'
sS'Tries'
p1072
S'2'
sS'Goals'
p1073
S'0'
sa(dp1074
S'Pens'
p1075
S'0'
sS'Sub'
p1076
S'0'
sS'Lost'
p1077
S'0'
sS'Drop'
p1078
S'0'
sS'Start'
p1079
S'2'
sS'Won'
p1080
S'2'
sS'GfM'
p1081
S'0'
sS'Draw'
p1082
S'0'
sS'Mat'
p1083
S'2'
sS'Conv'
p1084
S'0'
sS'Tries'
p1085
S'1'
sS'Goals'
p1086
S'0'
sa(dp1087
S'Pens'
p1088
S'0'
sS'Sub'
p1089
S'0'
sS'Lost'
p1090
S'0'
sS'Drop'
p1091
S'0'
sS'Start'
p1092
S'1'
sS'Won'
p1093
S'1'
sS'GfM'
p1094
S'0'
sS'Draw'
p1095
S'0'
sS'Mat'
p1096
S'1'
sS'Conv'
p1097
S'0'
sS'Tries'
p1098
S'0'
sS'Goals'
p1099
S'0'
sa(dp1100
S'Pens'
p1101
S'0'
sS'Sub'
p1102
S'0'
sS'Lost'
p1103
S'0'
sS'Drop'
p1104
S'0'
sS'Start'
p1105
S'1'
sS'Won'
p1106
S'1'
sS'GfM'
p1107
S'0'
sS'Draw'
p1108
S'0'
sS'Mat'
p1109
S'1'
sS'Conv'
p1110
S'0'
sS'Tries'
p1111
S'0'
sS'Goals'
p1112
S'0'
sa(dp1113
S'Pens'
p1114
S'0'
sS'Sub'
p1115
S'0'
sS'Lost'
p1116
S'0'
sS'Drop'
p1117
S'0'
sS'Start'
p1118
S'1'
sS'Won'
p1119
S'1'
sS'GfM'
p1120
S'0'
sS'Draw'
p1121
S'0'
sS'Mat'
p1122
S'1'
sS'Conv'
p1123
S'0'
sS'Tries'
p1124
S'0'
sS'Goals'
p1125
S'0'
sa(dp1126
S'Pens'
p1127
S'0'
sS'Sub'
p1128
S'0'
sS'Lost'
p1129
S'0'
sS'Drop'
p1130
S'0'
sS'Start'
p1131
S'1'
sS'Won'
p1132
S'1'
sS'GfM'
p1133
S'0'
sS'Draw'
p1134
S'0'
sS'Mat'
p1135
S'1'
sS'Conv'
p1136
S'0'
sS'Tries'
p1137
S'0'
sS'Goals'
p1138
S'0'
sa(dp1139
S'Pens'
p1140
S'0'
sS'Sub'
p1141
S'0'
sS'Lost'
p1142
S'1'
sS'Drop'
p1143
S'0'
sS'Start'
p1144
S'7'
sS'Won'
p1145
S'5'
sS'GfM'
p1146
S'0'
sS'Draw'
p1147
S'1'
sS'Mat'
p1148
S'7'
sS'Conv'
p1149
S'0'
sS'Tries'
p1150
S'0'
sS'Goals'
p1151
S'0'
sa(dp1152
S'Pens'
p1153
S'0'
sS'Sub'
p1154
S'0'
sS'Lost'
p1155
S'2'
sS'Drop'
p1156
S'0'
sS'Start'
p1157
S'9'
sS'Won'
p1158
S'4'
sS'GfM'
p1159
S'0'
sS'Draw'
p1160
S'3'
sS'Mat'
p1161
S'9'
sS'Conv'
p1162
S'0'
sS'Tries'
p1163
S'1'
sS'Goals'
p1164
S'0'
sa(dp1165
S'Pens'
p1166
S'0'
sS'Sub'
p1167
S'0'
sS'Lost'
p1168
S'1'
sS'Drop'
p1169
S'0'
sS'Start'
p1170
S'3'
sS'Won'
p1171
S'1'
sS'GfM'
p1172
S'0'
sS'Draw'
p1173
S'1'
sS'Mat'
p1174
S'3'
sS'Conv'
p1175
S'0'
sS'Tries'
p1176
S'0'
sS'Goals'
p1177
S'0'
sa(dp1178
S'Pens'
p1179
S'0'
sS'Sub'
p1180
S'0'
sS'Lost'
p1181
S'1'
sS'Drop'
p1182
S'0'
sS'Start'
p1183
S'2'
sS'Won'
p1184
S'1'
sS'GfM'
p1185
S'0'
sS'Draw'
p1186
S'0'
sS'Mat'
p1187
S'2'
sS'Conv'
p1188
S'0'
sS'Tries'
p1189
S'0'
sS'Goals'
p1190
S'0'
sa(dp1191
S'Pens'
p1192
S'0'
sS'Sub'
p1193
S'0'
sS'Lost'
p1194
S'1'
sS'Drop'
p1195
S'0'
sS'Start'
p1196
S'1'
sS'Won'
p1197
S'0'
sS'GfM'
p1198
S'0'
sS'Draw'
p1199
S'0'
sS'Mat'
p1200
S'1'
sS'Conv'
p1201
S'0'
sS'Tries'
p1202
S'0'
sS'Goals'
p1203
S'0'
sa(dp1204
S'Pens'
p1205
S'0'
sS'Sub'
p1206
S'0'
sS'Lost'
p1207
S'1'
sS'Drop'
p1208
S'0'
sS'Start'
p1209
S'1'
sS'Won'
p1210
S'0'
sS'GfM'
p1211
S'0'
sS'Draw'
p1212
S'0'
sS'Mat'
p1213
S'1'
sS'Conv'
p1214
S'0'
sS'Tries'
p1215
S'0'
sS'Goals'
p1216
S'0'
sa(dp1217
S'Pens'
p1218
S'0'
sS'Sub'
p1219
S'0'
sS'Lost'
p1220
S'1'
sS'Drop'
p1221
S'0'
sS'Start'
p1222
S'1'
sS'Won'
p1223
S'0'
sS'GfM'
p1224
S'0'
sS'Draw'
p1225
S'0'
sS'Mat'
p1226
S'1'
sS'Conv'
p1227
S'0'
sS'Tries'
p1228
S'0'
sS'Goals'
p1229
S'0'
sa(dp1230
S'Pens'
p1231
S'0'
sS'Sub'
p1232
S'0'
sS'Lost'
p1233
S'0'
sS'Drop'
p1234
S'0'
sS'Start'
p1235
S'2'
sS'Won'
p1236
S'1'
sS'GfM'
p1237
S'0'
sS'Draw'
p1238
S'1'
sS'Mat'
p1239
S'2'
sS'Conv'
p1240
S'0'
sS'Tries'
p1241
S'0'
sS'Goals'
p1242
S'0'
sa(dp1243
S'Pens'
p1244
S'0'
sS'Sub'
p1245
S'0'
sS'Lost'
p1246
S'0'
sS'Drop'
p1247
S'0'
sS'Start'
p1248
S'2'
sS'Won'
p1249
S'0'
sS'GfM'
p1250
S'0'
sS'Draw'
p1251
S'2'
sS'Mat'
p1252
S'2'
sS'Conv'
p1253
S'0'
sS'Tries'
p1254
S'0'
sS'Goals'
p1255
S'0'
sa(dp1256
S'Pens'
p1257
S'0'
sS'Sub'
p1258
S'0'
sS'Lost'
p1259
S'0'
sS'Drop'
p1260
S'0'
sS'Start'
p1261
S'3'
sS'Won'
p1262
S'1'
sS'GfM'
p1263
S'0'
sS'Draw'
p1264
S'2'
sS'Mat'
p1265
S'3'
sS'Conv'
p1266
S'0'
sS'Tries'
p1267
S'0'
sS'Goals'
p1268
S'0'
sa(dp1269
S'Pens'
p1270
S'0'
sS'Sub'
p1271
S'0'
sS'Lost'
p1272
S'1'
sS'Drop'
p1273
S'0'
sS'Start'
p1274
S'16'
p1275
sS'Won'
p1276
S'12'
p1277
sS'GfM'
p1278
S'0'
sS'Draw'
p1279
S'3'
sS'Mat'
p1280
S'16'
p1281
sS'Conv'
p1282
S'0'
sS'Tries'
p1283
S'1'
sS'Goals'
p1284
S'0'
sa(dp1285
S'Pens'
p1286
S'0'
sS'Sub'
p1287
S'0'
sS'Lost'
p1288
S'0'
sS'Drop'
p1289
S'0'
sS'Start'
p1290
S'1'
sS'Won'
p1291
S'0'
sS'GfM'
p1292
S'0'
sS'Draw'
p1293
S'1'
sS'Mat'
p1294
S'1'
sS'Conv'
p1295
S'0'
sS'Tries'
p1296
S'0'
sS'Goals'
p1297
S'0'
sa(dp1298
S'Pens'
p1299
S'0'
sS'Sub'
p1300
S'0'
sS'Lost'
p1301
S'1'
sS'Drop'
p1302
S'0'
sS'Start'
p1303
S'9'
sS'Won'
p1304
S'6'
sS'GfM'
p1305
S'0'
sS'Draw'
p1306
S'2'
sS'Mat'
p1307
S'9'
sS'Conv'
p1308
S'0'
sS'Tries'
p1309
S'1'
sS'Goals'
p1310
S'0'
sa(dp1311
S'Pens'
p1312
S'0'
sS'Sub'
p1313
S'0'
sS'Lost'
p1314
S'0'
sS'Drop'
p1315
S'0'
sS'Start'
p1316
S'5'
sS'Won'
p1317
S'4'
sS'GfM'
p1318
S'0'
sS'Draw'
p1319
S'1'
sS'Mat'
p1320
S'5'
sS'Conv'
p1321
S'0'
sS'Tries'
p1322
S'0'
sS'Goals'
p1323
S'0'
sa(dp1324
S'Pens'
p1325
S'0'
sS'Sub'
p1326
S'0'
sS'Lost'
p1327
S'0'
sS'Drop'
p1328
S'0'
sS'Start'
p1329
S'1'
sS'Won'
p1330
S'1'
sS'GfM'
p1331
S'0'
sS'Draw'
p1332
S'0'
sS'Mat'
p1333
S'1'
sS'Conv'
p1334
S'0'
sS'Tries'
p1335
S'0'
sS'Goals'
p1336
S'0'
sa(dp1337
S'Pens'
p1338
S'0'
sS'Sub'
p1339
S'0'
sS'Lost'
p1340
S'0'
sS'Drop'
p1341
S'0'
sS'Start'
p1342
S'1'
sS'Won'
p1343
S'1'
sS'GfM'
p1344
S'0'
sS'Draw'
p1345
S'0'
sS'Mat'
p1346
S'1'
sS'Conv'
p1347
S'0'
sS'Tries'
p1348
S'0'
sS'Goals'
p1349
S'0'
sa(dp1350
S'Pens'
p1351
S'0'
sS'Sub'
p1352
S'0'
sS'Lost'
p1353
S'0'
sS'Drop'
p1354
S'0'
sS'Start'
p1355
S'5'
sS'Won'
p1356
S'3'
sS'GfM'
p1357
S'0'
sS'Draw'
p1358
S'2'
sS'Mat'
p1359
S'5'
sS'Conv'
p1360
S'0'
sS'Tries'
p1361
S'1'
sS'Goals'
p1362
S'0'
sa(dp1363
S'Pens'
p1364
S'0'
sS'Sub'
p1365
S'0'
sS'Lost'
p1366
S'0'
sS'Drop'
p1367
S'0'
sS'Start'
p1368
S'1'
sS'Won'
p1369
S'1'
sS'GfM'
p1370
S'0'
sS'Draw'
p1371
S'0'
sS'Mat'
p1372
S'1'
sS'Conv'
p1373
S'0'
sS'Tries'
p1374
S'0'
sS'Goals'
p1375
S'0'
sa(dp1376
S'Pens'
p1377
S'0'
sS'Sub'
p1378
S'0'
sS'Lost'
p1379
S'0'
sS'Drop'
p1380
S'0'
sS'Start'
p1381
S'1'
sS'Won'
p1382
S'1'
sS'GfM'
p1383
S'0'
sS'Draw'
p1384
S'0'
sS'Mat'
p1385
S'1'
sS'Conv'
p1386
S'0'
sS'Tries'
p1387
S'0'
sS'Goals'
p1388
S'0'
sa(dp1389
S'Pens'
p1390
S'0'
sS'Sub'
p1391
S'0'
sS'Lost'
p1392
S'0'
sS'Drop'
p1393
S'0'
sS'Start'
p1394
S'1'
sS'Won'
p1395
S'1'
sS'GfM'
p1396
S'0'
sS'Draw'
p1397
S'0'
sS'Mat'
p1398
S'1'
sS'Conv'
p1399
S'0'
sS'Tries'
p1400
S'1'
sS'Goals'
p1401
S'0'
sa(dp1402
S'<table class="engineTable">\n<caption>Test career</caption>\n<thead>\n<tr class="head">\n<th class="left" nowrap="" title="class name"><b></b></th>\n<th class="left" nowrap="" title="playing span">Span</th>\n<th nowrap="" title="total matches played">Mat</th>\n<th nowrap="" title="matches in the starting lineup">Start</th>\n<th nowrap="" title="matches as a used substitute">Sub</th>\n<th nowrap="" title="total goals scored">Goals</th>\n<th nowrap="" title="total tries scored">Tries</th>\n<th nowrap="" title="total conversions scored">Conv</th>\n<th nowrap="" title="total penalty goals scored">Pens</th>\n<th nowrap="" title="total drop goals scored">Drop</th>\n<th nowrap="" title="total goals scored from a mark">GfM</th>\n<th nowrap="" title="matches won">Won</th>\n<th nowrap="" title="matches lost">Lost</th>\n<th nowrap="" title="matches drawn">Draw</th>\n<th nowrap="" title="success percentage">%</th>\n</tr>\n</thead>\n<tbody>\n<tr class="data1">\n<td class="left" nowrap=""><b>All Tests</b></td>\n<td class="left" nowrap="">1878-1880</td>\n<td nowrap="">2</td>\n<td nowrap="">2</td>\n<td nowrap="">0</td>\n<td nowrap="">0</td>\n<td nowrap="">0</td>\n<td nowrap="">0</td>\n<td nowrap="">0</td>\n<td nowrap="">0</td>\n<td nowrap="">0</td>\n<td nowrap="">2</td>\n<td nowrap="">0</td>\n<td nowrap="">0</td>\n<td nowrap="">100.00</td>\n</tr>\n</tbody>\n</table>'
p1403
S'0'
sS' Halfback'
p1404
S'0'
sS'Major teams'
p1405
S'0'
sS'<div class="scrumPlayerDesc"><b>Position</b> Halfback</div>'
p1406
S'0'
sS'Test career'
p1407
S'2'
sS'<b>Died</b>'
p1408
S'2'
sS'\n'
S'0'
sS'<th class="left" nowrap="" title="class name"><b></b></th>'
p1409
S'0'
sa(dp1410
S'Pens'
p1411
S'0'
sS'Sub'
p1412
S'0'
sS'Lost'
p1413
S'0'
sS'Drop'
p1414
S'0'
sS'Start'
p1415
S'3'
sS'Won'
p1416
S'2'
sS'GfM'
p1417
S'0'
sS'Draw'
p1418
S'1'
sS'Mat'
p1419
S'3'
sS'Conv'
p1420
S'0'
sS'Tries'
p1421
S'1'
sS'Goals'
p1422
S'0'
sa(dp1423
S'Pens'
p1424
S'0'
sS'Sub'
p1425
S'0'
sS'Lost'
p1426
S'0'
sS'Drop'
p1427
S'0'
sS'Start'
p1428
S'6'
sS'Won'
p1429
S'4'
sS'GfM'
p1430
S'0'
sS'Draw'
p1431
S'2'
sS'Mat'
p1432
S'6'
sS'Conv'
p1433
S'0'
sS'Tries'
p1434
S'6'
sS'Goals'
p1435
S'0'
sa(dp1436
S'Pens'
p1437
S'0'
sS'Sub'
p1438
S'0'
sS'Lost'
p1439
S'0'
sS'Drop'
p1440
S'0'
sS'Start'
p1441
S'1'
sS'Won'
p1442
S'0'
sS'GfM'
p1443
S'0'
sS'Draw'
p1444
S'1'
sS'Mat'
p1445
S'1'
sS'Conv'
p1446
S'0'
sS'Tries'
p1447
S'0'
sS'Goals'
p1448
S'0'
sa(dp1449
S'Pens'
p1450
S'0'
sS'Sub'
p1451
S'0'
sS'Lost'
p1452
S'0'
sS'Drop'
p1453
S'0'
sS'Start'
p1454
S'2'
sS'Won'
p1455
S'1'
sS'GfM'
p1456
S'0'
sS'Draw'
p1457
S'1'
sS'Mat'
p1458
S'2'
sS'Conv'
p1459
S'0'
sS'Tries'
p1460
S'0'
sS'Goals'
p1461
S'0'
sa(dp1462
S'Pens'
p1463
S'0'
sS'Sub'
p1464
S'0'
sS'Lost'
p1465
S'0'
sS'Drop'
p1466
S'0'
sS'Start'
p1467
S'4'
sS'Won'
p1468
S'3'
sS'GfM'
p1469
S'0'
sS'Draw'
p1470
S'1'
sS'Mat'
p1471
S'4'
sS'Conv'
p1472
S'0'
sS'Tries'
p1473
S'0'
sS'Goals'
p1474
S'0'
sa(dp1475
S'Pens'
p1476
S'0'
sS'Sub'
p1477
S'0'
sS'Lost'
p1478
S'1'
sS'Drop'
p1479
S'0'
sS'Start'
p1480
S'9'
sS'Won'
p1481
S'5'
sS'GfM'
p1482
S'0'
sS'Draw'
p1483
S'3'
sS'Mat'
p1484
S'9'
sS'Conv'
p1485
S'0'
sS'Tries'
p1486
S'3'
sS'Goals'
p1487
S'0'
sa(dp1488
S'Pens'
p1489
S'0'
sS'Sub'
p1490
S'0'
sS'Lost'
p1491
S'0'
sS'Drop'
p1492
S'0'
sS'Start'
p1493
S'2'
sS'Won'
p1494
S'0'
sS'GfM'
p1495
S'0'
sS'Draw'
p1496
S'2'
sS'Mat'
p1497
S'2'
sS'Conv'
p1498
S'0'
sS'Tries'
p1499
S'0'
sS'Goals'
p1500
S'0'
sa(dp1501
S'Pens'
p1502
S'0'
sS'Sub'
p1503
S'0'
sS'Lost'
p1504
S'1'
sS'Drop'
p1505
S'0'
sS'Start'
p1506
S'5'
sS'Won'
p1507
S'3'
sS'GfM'
p1508
S'0'
sS'Draw'
p1509
S'1'
sS'Mat'
p1510
S'5'
sS'Conv'
p1511
S'0'
sS'Tries'
p1512
S'6'
sS'Goals'
p1513
S'0'
sa(dp1514
S'Pens'
p1515
S'0'
sS'Sub'
p1516
S'0'
sS'Lost'
p1517
S'0'
sS'Drop'
p1518
S'0'
sS'Start'
p1519
S'1'
sS'Won'
p1520
S'1'
sS'GfM'
p1521
S'0'
sS'Draw'
p1522
S'0'
sS'Mat'
p1523
S'1'
sS'Conv'
p1524
S'0'
sS'Tries'
p1525
S'0'
sS'Goals'
p1526
S'0'
sa(dp1527
S'Pens'
p1528
S'0'
sS'Sub'
p1529
S'0'
sS'Lost'
p1530
S'0'
sS'Drop'
p1531
S'0'
sS'Start'
p1532
S'1'
sS'Won'
p1533
S'1'
sS'GfM'
p1534
S'0'
sS'Draw'
p1535
S'0'
sS'Mat'
p1536
S'1'
sS'Conv'
p1537
S'0'
sS'Tries'
p1538
S'0'
sS'Goals'
p1539
S'0'
sa(dp1540
S'Pens'
p1541
S'0'
sS'Sub'
p1542
S'0'
sS'Lost'
p1543
S'0'
sS'Drop'
p1544
S'0'
sS'Start'
p1545
S'8'
sS'Won'
p1546
S'7'
sS'GfM'
p1547
S'0'
sS'Draw'
p1548
S'1'
sS'Mat'
p1549
S'8'
sS'Conv'
p1550
S'0'
sS'Tries'
p1551
S'4'
sS'Goals'
p1552
S'0'
sa(dp1553
S'Pens'
p1554
S'0'
sS'Sub'
p1555
S'0'
sS'Lost'
p1556
S'0'
sS'Drop'
p1557
S'0'
sS'Start'
p1558
S'1'
sS'Won'
p1559
S'1'
sS'GfM'
p1560
S'0'
sS'Draw'
p1561
S'0'
sS'Mat'
p1562
S'1'
sS'Conv'
p1563
S'0'
sS'Tries'
p1564
S'1'
sS'Goals'
p1565
S'0'
sa(dp1566
S'Pens'
p1567
S'0'
sS'Sub'
p1568
S'0'
sS'Lost'
p1569
S'0'
sS'Drop'
p1570
S'0'
sS'Start'
p1571
S'3'
sS'Won'
p1572
S'3'
sS'GfM'
p1573
S'0'
sS'Draw'
p1574
S'0'
sS'Mat'
p1575
S'3'
sS'Conv'
p1576
S'0'
sS'Tries'
p1577
S'1'
sS'Goals'
p1578
S'0'
sa(dp1579
S'Pens'
p1580
S'0'
sS'Sub'
p1581
S'0'
sS'Lost'
p1582
S'1'
sS'Drop'
p1583
S'0'
sS'Start'
p1584
S'14'
p1585
sS'Won'
p1586
S'10'
p1587
sS'GfM'
p1588
S'0'
sS'Draw'
p1589
S'3'
sS'Mat'
p1590
S'14'
p1591
sS'Conv'
p1592
S'0'
sS'Tries'
p1593
S'0'
sS'Goals'
p1594
S'0'
sa(dp1595
S'Pens'
p1596
S'0'
sS'Sub'
p1597
S'0'
sS'Lost'
p1598
S'0'
sS'Drop'
p1599
S'1'
sS'Start'
p1600
S'4'
sS'Won'
p1601
S'2'
sS'GfM'
p1602
S'0'
sS'Draw'
p1603
S'2'
sS'Mat'
p1604
S'4'
sS'Conv'
p1605
S'1'
sS'Tries'
p1606
S'2'
sS'Goals'
p1607
S'2'
sa(dp1608
S'Pens'
p1609
S'0'
sS'Sub'
p1610
S'0'
sS'Lost'
p1611
S'0'
sS'Drop'
p1612
S'0'
sS'Start'
p1613
S'1'
sS'Won'
p1614
S'1'
sS'GfM'
p1615
S'0'
sS'Draw'
p1616
S'0'
sS'Mat'
p1617
S'1'
sS'Conv'
p1618
S'0'
sS'Tries'
p1619
S'0'
sS'Goals'
p1620
S'0'
sa(dp1621
S'Pens'
p1622
S'0'
sS'Sub'
p1623
S'0'
sS'Lost'
p1624
S'0'
sS'Drop'
p1625
S'0'
sS'Start'
p1626
S'1'
sS'Won'
p1627
S'1'
sS'GfM'
p1628
S'0'
sS'Draw'
p1629
S'0'
sS'Mat'
p1630
S'1'
sS'Conv'
p1631
S'0'
sS'Tries'
p1632
S'1'
sS'Goals'
p1633
S'0'
sa(dp1634
S'Pens'
p1635
S'0'
sS'Sub'
p1636
S'0'
sS'Lost'
p1637
S'0'
sS'Drop'
p1638
S'0'
sS'Start'
p1639
S'1'
sS'Won'
p1640
S'1'
sS'GfM'
p1641
S'0'
sS'Draw'
p1642
S'0'
sS'Mat'
p1643
S'1'
sS'Conv'
p1644
S'0'
sS'Tries'
p1645
S'0'
sS'Goals'
p1646
S'0'
sa(dp1647
S'Pens'
p1648
S'0'
sS'Sub'
p1649
S'0'
sS'Lost'
p1650
S'0'
sS'Drop'
p1651
S'0'
sS'Start'
p1652
S'1'
sS'Won'
p1653
S'1'
sS'GfM'
p1654
S'0'
sS'Draw'
p1655
S'0'
sS'Mat'
p1656
S'1'
sS'Conv'
p1657
S'0'
sS'Tries'
p1658
S'0'
sS'Goals'
p1659
S'0'
sa(dp1660
S'Pens'
p1661
S'0'
sS'Sub'
p1662
S'0'
sS'Lost'
p1663
S'1'
sS'Drop'
p1664
S'0'
sS'Start'
p1665
S'3'
sS'Won'
p1666
S'1'
sS'GfM'
p1667
S'0'
sS'Draw'
p1668
S'1'
sS'Mat'
p1669
S'3'
sS'Conv'
p1670
S'0'
sS'Tries'
p1671
S'0'
sS'Goals'
p1672
S'0'
sa(dp1673
S'Pens'
p1674
S'0'
sS'Sub'
p1675
S'0'
sS'Lost'
p1676
S'0'
sS'Drop'
p1677
S'0'
sS'Start'
p1678
S'1'
sS'Won'
p1679
S'1'
sS'GfM'
p1680
S'0'
sS'Draw'
p1681
S'0'
sS'Mat'
p1682
S'1'
sS'Conv'
p1683
S'0'
sS'Tries'
p1684
S'0'
sS'Goals'
p1685
S'0'
sa(dp1686
S'Pens'
p1687
S'0'
sS'Sub'
p1688
S'0'
sS'Lost'
p1689
S'0'
sS'Drop'
p1690
S'0'
sS'Start'
p1691
S'3'
sS'Won'
p1692
S'2'
sS'GfM'
p1693
S'0'
sS'Draw'
p1694
S'1'
sS'Mat'
p1695
S'3'
sS'Conv'
p1696
S'0'
sS'Tries'
p1697
S'0'
sS'Goals'
p1698
S'0'
sa(dp1699
S'Pens'
p1700
S'0'
sS'Sub'
p1701
S'0'
sS'Lost'
p1702
S'0'
sS'Drop'
p1703
S'0'
sS'Start'
p1704
S'2'
sS'Won'
p1705
S'2'
sS'GfM'
p1706
S'0'
sS'Draw'
p1707
S'0'
sS'Mat'
p1708
S'2'
sS'Conv'
p1709
S'0'
sS'Tries'
p1710
S'1'
sS'Goals'
p1711
S'0'
sa(dp1712
S'Pens'
p1713
S'0'
sS'Sub'
p1714
S'0'
sS'Lost'
p1715
S'0'
sS'Drop'
p1716
S'0'
sS'Start'
p1717
S'3'
sS'Won'
p1718
S'2'
sS'GfM'
p1719
S'0'
sS'Draw'
p1720
S'1'
sS'Mat'
p1721
S'3'
sS'Conv'
p1722
S'0'
sS'Tries'
p1723
S'1'
sS'Goals'
p1724
S'0'
sa(dp1725
S'Pens'
p1726
S'0'
sS'Sub'
p1727
S'0'
sS'Lost'
p1728
S'0'
sS'Drop'
p1729
S'0'
sS'Start'
p1730
S'4'
sS'Won'
p1731
S'2'
sS'GfM'
p1732
S'0'
sS'Draw'
p1733
S'2'
sS'Mat'
p1734
S'4'
sS'Conv'
p1735
S'0'
sS'Tries'
p1736
S'0'
sS'Goals'
p1737
S'0'
sa(dp1738
S'Pens'
p1739
S'0'
sS'Sub'
p1740
S'0'
sS'Lost'
p1741
S'0'
sS'Drop'
p1742
S'0'
sS'Start'
p1743
S'1'
sS'Won'
p1744
S'1'
sS'GfM'
p1745
S'0'
sS'Draw'
p1746
S'0'
sS'Mat'
p1747
S'1'
sS'Conv'
p1748
S'0'
sS'Tries'
p1749
S'0'
sS'Goals'
p1750
S'0'
sa(dp1751
S'Pens'
p1752
S'0'
sS'Sub'
p1753
S'0'
sS'Lost'
p1754
S'0'
sS'Drop'
p1755
S'0'
sS'Start'
p1756
S'1'
sS'Won'
p1757
S'1'
sS'GfM'
p1758
S'0'
sS'Draw'
p1759
S'0'
sS'Mat'
p1760
S'1'
sS'Conv'
p1761
S'0'
sS'Tries'
p1762
S'0'
sS'Goals'
p1763
S'0'
sa(dp1764
S'Pens'
p1765
S'0'
sS'Sub'
p1766
S'0'
sS'Lost'
p1767
S'0'
sS'Drop'
p1768
S'0'
sS'Start'
p1769
S'2'
sS'Won'
p1770
S'1'
sS'GfM'
p1771
S'0'
sS'Draw'
p1772
S'1'
sS'Mat'
p1773
S'2'
sS'Conv'
p1774
S'0'
sS'Tries'
p1775
S'0'
sS'Goals'
p1776
S'0'
sa(dp1777
S'Pens'
p1778
S'0'
sS'Sub'
p1779
S'0'
sS'Lost'
p1780
S'1'
sS'Drop'
p1781
S'0'
sS'Start'
p1782
S'5'
sS'Won'
p1783
S'2'
sS'GfM'
p1784
S'0'
sS'Draw'
p1785
S'2'
sS'Mat'
p1786
S'5'
sS'Conv'
p1787
S'0'
sS'Tries'
p1788
S'3'
sS'Goals'
p1789
S'0'
sa(dp1790
S'Pens'
p1791
S'0'
sS'Sub'
p1792
S'0'
sS'Lost'
p1793
S'0'
sS'Drop'
p1794
S'0'
sS'Start'
p1795
S'1'
sS'Won'
p1796
S'1'
sS'GfM'
p1797
S'0'
sS'Draw'
p1798
S'0'
sS'Mat'
p1799
S'1'
sS'Conv'
p1800
S'0'
sS'Tries'
p1801
S'0'
sS'Goals'
p1802
S'0'
sa(dp1803
S'Pens'
p1804
S'0'
sS'Sub'
p1805
S'0'
sS'Lost'
p1806
S'0'
sS'Drop'
p1807
S'0'
sS'Start'
p1808
S'1'
sS'Won'
p1809
S'0'
sS'GfM'
p1810
S'0'
sS'Draw'
p1811
S'1'
sS'Mat'
p1812
S'1'
sS'Conv'
p1813
S'0'
sS'Tries'
p1814
S'0'
sS'Goals'
p1815
S'0'
sa(dp1816
S'Pens'
p1817
S'0'
sS'Sub'
p1818
S'0'
sS'Lost'
p1819
S'1'
sS'Drop'
p1820
S'0'
sS'Start'
p1821
S'2'
sS'Won'
p1822
S'0'
sS'GfM'
p1823
S'0'
sS'Draw'
p1824
S'1'
sS'Mat'
p1825
S'2'
sS'Conv'
p1826
S'0'
sS'Tries'
p1827
S'0'
sS'Goals'
p1828
S'0'
sa(dp1829
S'Pens'
p1830
S'0'
sS'Sub'
p1831
S'0'
sS'Lost'
p1832
S'2'
sS'Drop'
p1833
S'0'
sS'Start'
p1834
S'11'
p1835
sS'Won'
p1836
S'7'
sS'GfM'
p1837
S'0'
sS'Draw'
p1838
S'2'
sS'Mat'
p1839
S'11'
p1840
sS'Conv'
p1841
S'2'
sS'Tries'
p1842
S'6'
sS'Goals'
p1843
S'2'
sa(dp1844
S'Pens'
p1845
S'0'
sS'Sub'
p1846
S'0'
sS'Lost'
p1847
S'1'
sS'Drop'
p1848
S'0'
sS'Start'
p1849
S'6'
sS'Won'
p1850
S'4'
sS'GfM'
p1851
S'0'
sS'Draw'
p1852
S'1'
sS'Mat'
p1853
S'6'
sS'Conv'
p1854
S'0'
sS'Tries'
p1855
S'0'
sS'Goals'
p1856
S'0'
sa(dp1857
S'Pens'
p1858
S'0'
sS'Sub'
p1859
S'0'
sS'Lost'
p1860
S'1'
sS'Drop'
p1861
S'0'
sS'Start'
p1862
S'3'
sS'Won'
p1863
S'1'
sS'GfM'
p1864
S'0'
sS'Draw'
p1865
S'1'
sS'Mat'
p1866
S'3'
sS'Conv'
p1867
S'0'
sS'Tries'
p1868
S'0'
sS'Goals'
p1869
S'0'
sa(dp1870
S'Pens'
p1871
S'0'
sS'Sub'
p1872
S'0'
sS'Lost'
p1873
S'0'
sS'Drop'
p1874
S'0'
sS'Start'
p1875
S'2'
sS'Won'
p1876
S'1'
sS'GfM'
p1877
S'0'
sS'Draw'
p1878
S'1'
sS'Mat'
p1879
S'2'
sS'Conv'
p1880
S'0'
sS'Tries'
p1881
S'0'
sS'Goals'
p1882
S'0'
sa(dp1883
S'Pens'
p1884
S'0'
sS'Sub'
p1885
S'0'
sS'Lost'
p1886
S'0'
sS'Drop'
p1887
S'0'
sS'Start'
p1888
S'1'
sS'Won'
p1889
S'0'
sS'GfM'
p1890
S'0'
sS'Draw'
p1891
S'1'
sS'Mat'
p1892
S'1'
sS'Conv'
p1893
S'0'
sS'Tries'
p1894
S'0'
sS'Goals'
p1895
S'0'
sa(dp1896
S'Pens'
p1897
S'0'
sS'Sub'
p1898
S'0'
sS'Lost'
p1899
S'1'
sS'Drop'
p1900
S'0'
sS'Start'
p1901
S'1'
sS'Won'
p1902
S'0'
sS'GfM'
p1903
S'0'
sS'Draw'
p1904
S'0'
sS'Mat'
p1905
S'1'
sS'Conv'
p1906
S'0'
sS'Tries'
p1907
S'0'
sS'Goals'
p1908
S'0'
sa(dp1909
S'Pens'
p1910
S'0'
sS'Sub'
p1911
S'0'
sS'Lost'
p1912
S'1'
sS'Drop'
p1913
S'0'
sS'Start'
p1914
S'7'
sS'Won'
p1915
S'6'
sS'GfM'
p1916
S'0'
sS'Draw'
p1917
S'0'
sS'Mat'
p1918
S'7'
sS'Conv'
p1919
S'1'
sS'Tries'
p1920
S'0'
sS'Goals'
p1921
S'1'
sa(dp1922
S'Pens'
p1923
S'0'
sS'Sub'
p1924
S'0'
sS'Lost'
p1925
S'1'
sS'Drop'
p1926
S'0'
sS'Start'
p1927
S'7'
sS'Won'
p1928
S'6'
sS'GfM'
p1929
S'0'
sS'Draw'
p1930
S'0'
sS'Mat'
p1931
S'7'
sS'Conv'
p1932
S'0'
sS'Tries'
p1933
S'1'
sS'Goals'
p1934
S'0'
sa(dp1935
S'Pens'
p1936
S'0'
sS'Sub'
p1937
S'0'
sS'Lost'
p1938
S'0'
sS'Drop'
p1939
S'0'
sS'Start'
p1940
S'4'
sS'Won'
p1941
S'4'
sS'GfM'
p1942
S'0'
sS'Draw'
p1943
S'0'
sS'Mat'
p1944
S'4'
sS'Conv'
p1945
S'3'
sS'Tries'
p1946
S'0'
sS'Goals'
p1947
S'3'
sa(dp1948
S'Pens'
p1949
S'0'
sS'Sub'
p1950
S'0'
sS'Lost'
p1951
S'0'
sS'Drop'
p1952
S'0'
sS'Start'
p1953
S'5'
sS'Won'
p1954
S'5'
sS'GfM'
p1955
S'0'
sS'Draw'
p1956
S'0'
sS'Mat'
p1957
S'5'
sS'Conv'
p1958
S'0'
sS'Tries'
p1959
S'1'
sS'Goals'
p1960
S'0'
sa(dp1961
S'Pens'
p1962
S'0'
sS'Sub'
p1963
S'0'
sS'Lost'
p1964
S'0'
sS'Drop'
p1965
S'0'
sS'Start'
p1966
S'3'
sS'Won'
p1967
S'3'
sS'GfM'
p1968
S'0'
sS'Draw'
p1969
S'0'
sS'Mat'
p1970
S'3'
sS'Conv'
p1971
S'0'
sS'Tries'
p1972
S'2'
sS'Goals'
p1973
S'0'
sa(dp1974
S'Pens'
p1975
S'0'
sS'Sub'
p1976
S'0'
sS'Lost'
p1977
S'1'
sS'Drop'
p1978
S'0'
sS'Start'
p1979
S'12'
p1980
sS'Won'
p1981
S'8'
sS'GfM'
p1982
S'0'
sS'Draw'
p1983
S'3'
sS'Mat'
p1984
S'12'
p1985
sS'Conv'
p1986
S'0'
sS'Tries'
p1987
S'2'
sS'Goals'
p1988
S'0'
sa(dp1989
S'Pens'
p1990
S'0'
sS'Sub'
p1991
S'0'
sS'Lost'
p1992
S'0'
sS'Drop'
p1993
S'0'
sS'Start'
p1994
S'2'
sS'Won'
p1995
S'2'
sS'GfM'
p1996
S'0'
sS'Draw'
p1997
S'0'
sS'Mat'
p1998
S'2'
sS'Conv'
p1999
S'0'
sS'Tries'
p2000
S'0'
sS'Goals'
p2001
S'0'
sa(dp2002
S'Pens'
p2003
S'0'
sS'Sub'
p2004
S'0'
sS'Lost'
p2005
S'0'
sS'Drop'
p2006
S'0'
sS'Start'
p2007
S'4'
sS'Won'
p2008
S'4'
sS'GfM'
p2009
S'0'
sS'Draw'
p2010
S'0'
sS'Mat'
p2011
S'4'
sS'Conv'
p2012
S'0'
sS'Tries'
p2013
S'0'
sS'Goals'
p2014
S'0'
sa(dp2015
S'Pens'
p2016
S'0'
sS'Sub'
p2017
S'0'
sS'Lost'
p2018
S'0'
sS'Drop'
p2019
S'0'
sS'Start'
p2020
S'8'
sS'Won'
p2021
S'8'
sS'GfM'
p2022
S'0'
sS'Draw'
p2023
S'0'
sS'Mat'
p2024
S'8'
sS'Conv'
p2025
S'0'
sS'Tries'
p2026
S'7'
sS'Goals'
p2027
S'0'
sa(dp2028
S'Pens'
p2029
S'0'
sS'Sub'
p2030
S'0'
sS'Lost'
p2031
S'0'
sS'Drop'
p2032
S'0'
sS'Start'
p2033
S'7'
sS'Won'
p2034
S'7'
sS'GfM'
p2035
S'0'
sS'Draw'
p2036
S'0'
sS'Mat'
p2037
S'7'
sS'Conv'
p2038
S'0'
sS'Tries'
p2039
S'0'
sS'Goals'
p2040
S'0'
sa(dp2041
S'Pens'
p2042
S'0'
sS'Sub'
p2043
S'0'
sS'Lost'
p2044
S'0'
sS'Drop'
p2045
S'0'
sS'Start'
p2046
S'2'
sS'Won'
p2047
S'2'
sS'GfM'
p2048
S'0'
sS'Draw'
p2049
S'0'
sS'Mat'
p2050
S'2'
sS'Conv'
p2051
S'0'
sS'Tries'
p2052
S'0'
sS'Goals'
p2053
S'0'
sa(dp2054
S'Pens'
p2055
S'0'
sS'Sub'
p2056
S'0'
sS'Lost'
p2057
S'0'
sS'Drop'
p2058
S'0'
sS'Start'
p2059
S'2'
sS'Won'
p2060
S'2'
sS'GfM'
p2061
S'0'
sS'Draw'
p2062
S'0'
sS'Mat'
p2063
S'2'
sS'Conv'
p2064
S'0'
sS'Tries'
p2065
S'0'
sS'Goals'
p2066
S'0'
sa(dp2067
S'Pens'
p2068
S'0'
sS'Sub'
p2069
S'0'
sS'Lost'
p2070
S'0'
sS'Drop'
p2071
S'0'
sS'Start'
p2072
S'5'
sS'Won'
p2073
S'4'
sS'GfM'
p2074
S'0'
sS'Draw'
p2075
S'1'
sS'Mat'
p2076
S'5'
sS'Conv'
p2077
S'0'
sS'Tries'
p2078
S'0'
sS'Goals'
p2079
S'0'
sa(dp2080
S'Pens'
p2081
S'0'
sS'Sub'
p2082
S'0'
sS'Lost'
p2083
S'0'
sS'Drop'
p2084
S'0'
sS'Start'
p2085
S'1'
sS'Won'
p2086
S'1'
sS'GfM'
p2087
S'0'
sS'Draw'
p2088
S'0'
sS'Mat'
p2089
S'1'
sS'Conv'
p2090
S'0'
sS'Tries'
p2091
S'0'
sS'Goals'
p2092
S'0'
sa(dp2093
S'Pens'
p2094
S'0'
sS'Sub'
p2095
S'0'
sS'Lost'
p2096
S'1'
sS'Drop'
p2097
S'0'
sS'Start'
p2098
S'7'
sS'Won'
p2099
S'5'
sS'GfM'
p2100
S'0'
sS'Draw'
p2101
S'1'
sS'Mat'
p2102
S'7'
sS'Conv'
p2103
S'0'
sS'Tries'
p2104
S'0'
sS'Goals'
p2105
S'0'
sa(dp2106
S'Pens'
p2107
S'0'
sS'Sub'
p2108
S'0'
sS'Lost'
p2109
S'0'
sS'Drop'
p2110
S'0'
sS'Start'
p2111
S'3'
sS'Won'
p2112
S'3'
sS'GfM'
p2113
S'0'
sS'Draw'
p2114
S'0'
sS'Mat'
p2115
S'3'
sS'Conv'
p2116
S'0'
sS'Tries'
p2117
S'0'
sS'Goals'
p2118
S'0'
sa(dp2119
S'Pens'
p2120
S'0'
sS'Sub'
p2121
S'0'
sS'Lost'
p2122
S'0'
sS'Drop'
p2123
S'0'
sS'Start'
p2124
S'1'
sS'Won'
p2125
S'1'
sS'GfM'
p2126
S'0'
sS'Draw'
p2127
S'0'
sS'Mat'
p2128
S'1'
sS'Conv'
p2129
S'0'
sS'Tries'
p2130
S'0'
sS'Goals'
p2131
S'0'
sa(dp2132
S'Pens'
p2133
S'0'
sS'Sub'
p2134
S'0'
sS'Lost'
p2135
S'0'
sS'Drop'
p2136
S'0'
sS'Start'
p2137
S'1'
sS'Won'
p2138
S'1'
sS'GfM'
p2139
S'0'
sS'Draw'
p2140
S'0'
sS'Mat'
p2141
S'1'
sS'Conv'
p2142
S'0'
sS'Tries'
p2143
S'0'
sS'Goals'
p2144
S'0'
sa(dp2145
S'Pens'
p2146
S'0'
sS'Sub'
p2147
S'0'
sS'Lost'
p2148
S'0'
sS'Drop'
p2149
S'0'
sS'Start'
p2150
S'3'
sS'Won'
p2151
S'2'
sS'GfM'
p2152
S'0'
sS'Draw'
p2153
S'1'
sS'Mat'
p2154
S'3'
sS'Conv'
p2155
S'1'
sS'Tries'
p2156
S'0'
sS'Goals'
p2157
S'1'
sa(dp2158
S'Pens'
p2159
S'0'
sS'Sub'
p2160
S'0'
sS'Lost'
p2161
S'1'
sS'Drop'
p2162
S'0'
sS'Start'
p2163
S'6'
sS'Won'
p2164
S'3'
sS'GfM'
p2165
S'0'
sS'Draw'
p2166
S'2'
sS'Mat'
p2167
S'6'
sS'Conv'
p2168
S'0'
sS'Tries'
p2169
S'1'
sS'Goals'
p2170
S'0'
sa(dp2171
S'Pens'
p2172
S'0'
sS'Sub'
p2173
S'0'
sS'Lost'
p2174
S'0'
sS'Drop'
p2175
S'0'
sS'Start'
p2176
S'1'
sS'Won'
p2177
S'1'
sS'GfM'
p2178
S'0'
sS'Draw'
p2179
S'0'
sS'Mat'
p2180
S'1'
sS'Conv'
p2181
S'0'
sS'Tries'
p2182
S'0'
sS'Goals'
p2183
S'0'
sa(dp2184
S'Pens'
p2185
S'0'
sS'Sub'
p2186
S'0'
sS'Lost'
p2187
S'0'
sS'Drop'
p2188
S'0'
sS'Start'
p2189
S'1'
sS'Won'
p2190
S'1'
sS'GfM'
p2191
S'0'
sS'Draw'
p2192
S'0'
sS'Mat'
p2193
S'1'
sS'Conv'
p2194
S'0'
sS'Tries'
p2195
S'0'
sS'Goals'
p2196
S'0'
sa(dp2197
S'Pens'
p2198
S'0'
sS'Sub'
p2199
S'0'
sS'Lost'
p2200
S'0'
sS'Drop'
p2201
S'0'
sS'Start'
p2202
S'1'
sS'Won'
p2203
S'1'
sS'GfM'
p2204
S'0'
sS'Draw'
p2205
S'0'
sS'Mat'
p2206
S'1'
sS'Conv'
p2207
S'0'
sS'Tries'
p2208
S'0'
sS'Goals'
p2209
S'0'
sa(dp2210
S'Pens'
p2211
S'0'
sS'Sub'
p2212
S'0'
sS'Lost'
p2213
S'0'
sS'Drop'
p2214
S'0'
sS'Start'
p2215
S'2'
sS'Won'
p2216
S'2'
sS'GfM'
p2217
S'0'
sS'Draw'
p2218
S'0'
sS'Mat'
p2219
S'2'
sS'Conv'
p2220
S'0'
sS'Tries'
p2221
S'2'
sS'Goals'
p2222
S'0'
sa(dp2223
S'Pens'
p2224
S'0'
sS'Sub'
p2225
S'0'
sS'Lost'
p2226
S'1'
sS'Drop'
p2227
S'0'
sS'Start'
p2228
S'3'
sS'Won'
p2229
S'2'
sS'GfM'
p2230
S'0'
sS'Draw'
p2231
S'0'
sS'Mat'
p2232
S'3'
sS'Conv'
p2233
S'0'
sS'Tries'
p2234
S'0'
sS'Goals'
p2235
S'0'
sa(dp2236
S'Pens'
p2237
S'0'
sS'Sub'
p2238
S'0'
sS'Lost'
p2239
S'0'
sS'Drop'
p2240
S'0'
sS'Start'
p2241
S'2'
sS'Won'
p2242
S'2'
sS'GfM'
p2243
S'0'
sS'Draw'
p2244
S'0'
sS'Mat'
p2245
S'2'
sS'Conv'
p2246
S'0'
sS'Tries'
p2247
S'1'
sS'Goals'
p2248
S'0'
sa(dp2249
S'Pens'
p2250
S'0'
sS'Sub'
p2251
S'0'
sS'Lost'
p2252
S'0'
sS'Drop'
p2253
S'0'
sS'Start'
p2254
S'3'
sS'Won'
p2255
S'3'
sS'GfM'
p2256
S'0'
sS'Draw'
p2257
S'0'
sS'Mat'
p2258
S'3'
sS'Conv'
p2259
S'0'
sS'Tries'
p2260
S'0'
sS'Goals'
p2261
S'0'
sa(dp2262
S'Pens'
p2263
S'0'
sS'Sub'
p2264
S'0'
sS'Lost'
p2265
S'3'
sS'Drop'
p2266
S'0'
sS'Start'
p2267
S'10'
p2268
sS'Won'
p2269
S'6'
sS'GfM'
p2270
S'1'
sS'Draw'
p2271
S'1'
sS'Mat'
p2272
S'10'
p2273
sS'Conv'
p2274
S'1'
sS'Tries'
p2275
S'2'
sS'Pts'
p2276
S'5'
sa(dp2277
S'Pens'
p2278
S'0'
sS'Sub'
p2279
S'0'
sS'Lost'
p2280
S'0'
sS'Drop'
p2281
S'0'
sS'Start'
p2282
S'1'
sS'Won'
p2283
S'1'
sS'GfM'
p2284
S'0'
sS'Draw'
p2285
S'0'
sS'Mat'
p2286
S'1'
sS'Conv'
p2287
S'0'
sS'Tries'
p2288
S'0'
sS'Goals'
p2289
S'0'
sa(dp2290
S'Pens'
p2291
S'0'
sS'Sub'
p2292
S'0'
sS'Lost'
p2293
S'0'
sS'Drop'
p2294
S'0'
sS'Start'
p2295
S'6'
sS'Won'
p2296
S'3'
sS'GfM'
p2297
S'0'
sS'Draw'
p2298
S'3'
sS'Mat'
p2299
S'6'
sS'Conv'
p2300
S'0'
sS'Tries'
p2301
S'0'
sS'Pts'
p2302
S'0'
sa(dp2303
S'Pens'
p2304
S'0'
sS'Sub'
p2305
S'0'
sS'Lost'
p2306
S'1'
sS'Drop'
p2307
S'0'
sS'Start'
p2308
S'6'
sS'Won'
p2309
S'2'
sS'GfM'
p2310
S'0'
sS'Draw'
p2311
S'3'
sS'Mat'
p2312
S'6'
sS'Conv'
p2313
S'0'
sS'Tries'
p2314
S'0'
sS'Goals'
p2315
S'0'
sa(dp2316
S'Pens'
p2317
S'0'
sS'Sub'
p2318
S'0'
sS'Lost'
p2319
S'0'
sS'Drop'
p2320
S'0'
sS'Start'
p2321
S'1'
sS'Won'
p2322
S'1'
sS'GfM'
p2323
S'0'
sS'Draw'
p2324
S'0'
sS'Mat'
p2325
S'1'
sS'Conv'
p2326
S'0'
sS'Tries'
p2327
S'0'
sS'Goals'
p2328
S'0'
sa(dp2329
S'Pens'
p2330
S'0'
sS'Sub'
p2331
S'0'
sS'Lost'
p2332
S'2'
sS'Drop'
p2333
S'0'
sS'Start'
p2334
S'10'
p2335
sS'Won'
p2336
S'8'
sS'GfM'
p2337
S'0'
sS'Draw'
p2338
S'0'
sS'Mat'
p2339
S'10'
p2340
sS'Conv'
p2341
S'0'
sS'Tries'
p2342
S'1'
sS'Pts'
p2343
S'3'
sa(dp2344
S'Pens'
p2345
S'0'
sS'Sub'
p2346
S'0'
sS'Lost'
p2347
S'0'
sS'Drop'
p2348
S'0'
sS'Start'
p2349
S'3'
sS'Won'
p2350
S'2'
sS'GfM'
p2351
S'0'
sS'Draw'
p2352
S'1'
sS'Mat'
p2353
S'3'
sS'Conv'
p2354
S'0'
sS'Tries'
p2355
S'0'
sS'Goals'
p2356
S'0'
sa(dp2357
S'Pens'
p2358
S'0'
sS'Sub'
p2359
S'0'
sS'Lost'
p2360
S'1'
sS'Drop'
p2361
S'0'
sS'Start'
p2362
S'6'
sS'Won'
p2363
S'2'
sS'GfM'
p2364
S'0'
sS'Draw'
p2365
S'3'
sS'Mat'
p2366
S'6'
sS'Conv'
p2367
S'0'
sS'Tries'
p2368
S'1'
sS'Goals'
p2369
S'0'
sa(dp2370
S'Pens'
p2371
S'0'
sS'Sub'
p2372
S'0'
sS'Lost'
p2373
S'0'
sS'Drop'
p2374
S'0'
sS'Start'
p2375
S'5'
sS'Won'
p2376
S'2'
sS'GfM'
p2377
S'0'
sS'Draw'
p2378
S'3'
sS'Mat'
p2379
S'5'
sS'Conv'
p2380
S'0'
sS'Tries'
p2381
S'0'
sS'Goals'
p2382
S'0'
sa(dp2383
S'Pens'
p2384
S'0'
sS'Sub'
p2385
S'0'
sS'Lost'
p2386
S'0'
sS'Drop'
p2387
S'0'
sS'Start'
p2388
S'5'
sS'Won'
p2389
S'2'
sS'GfM'
p2390
S'0'
sS'Draw'
p2391
S'3'
sS'Mat'
p2392
S'5'
sS'Conv'
p2393
S'0'
sS'Tries'
p2394
S'2'
sS'Goals'
p2395
S'0'
sa(dp2396
S'Pens'
p2397
S'0'
sS'Sub'
p2398
S'0'
sS'Lost'
p2399
S'0'
sS'Drop'
p2400
S'0'
sS'Start'
p2401
S'3'
sS'Won'
p2402
S'1'
sS'GfM'
p2403
S'0'
sS'Draw'
p2404
S'2'
sS'Mat'
p2405
S'3'
sS'Conv'
p2406
S'0'
sS'Tries'
p2407
S'0'
sS'Goals'
p2408
S'0'
sa(dp2409
S'Pens'
p2410
S'0'
sS'Sub'
p2411
S'0'
sS'Lost'
p2412
S'0'
sS'Drop'
p2413
S'0'
sS'Start'
p2414
S'1'
sS'Won'
p2415
S'0'
sS'GfM'
p2416
S'0'
sS'Draw'
p2417
S'1'
sS'Mat'
p2418
S'1'
sS'Conv'
p2419
S'0'
sS'Tries'
p2420
S'0'
sS'Goals'
p2421
S'0'
sa(dp2422
S'Pens'
p2423
S'0'
sS'Sub'
p2424
S'0'
sS'Lost'
p2425
S'0'
sS'Drop'
p2426
S'0'
sS'Start'
p2427
S'1'
sS'Won'
p2428
S'0'
sS'GfM'
p2429
S'0'
sS'Draw'
p2430
S'1'
sS'Mat'
p2431
S'1'
sS'Conv'
p2432
S'0'
sS'Tries'
p2433
S'0'
sS'Goals'
p2434
S'0'
sa(dp2435
S'Pens'
p2436
S'0'
sS'Sub'
p2437
S'0'
sS'Lost'
p2438
S'0'
sS'Drop'
p2439
S'0'
sS'Start'
p2440
S'2'
sS'Won'
p2441
S'0'
sS'GfM'
p2442
S'0'
sS'Draw'
p2443
S'2'
sS'Mat'
p2444
S'2'
sS'Conv'
p2445
S'0'
sS'Tries'
p2446
S'0'
sS'Goals'
p2447
S'0'
sa(dp2448
S'Pens'
p2449
S'0'
sS'Sub'
p2450
S'0'
sS'Lost'
p2451
S'2'
sS'Drop'
p2452
S'0'
sS'Start'
p2453
S'4'
sS'Won'
p2454
S'0'
sS'GfM'
p2455
S'0'
sS'Draw'
p2456
S'2'
sS'Mat'
p2457
S'4'
sS'Conv'
p2458
S'0'
sS'Tries'
p2459
S'0'
sS'Pts'
p2460
S'0'
sa(dp2461
S'Pens'
p2462
S'0'
sS'Sub'
p2463
S'0'
sS'Lost'
p2464
S'2'
sS'Drop'
p2465
S'0'
sS'Start'
p2466
S'6'
sS'Won'
p2467
S'2'
sS'GfM'
p2468
S'0'
sS'Draw'
p2469
S'2'
sS'Mat'
p2470
S'6'
sS'Conv'
p2471
S'0'
sS'Tries'
p2472
S'0'
sS'Pts'
p2473
S'0'
sa(dp2474
S'Pens'
p2475
S'0'
sS'Sub'
p2476
S'0'
sS'Lost'
p2477
S'0'
sS'Drop'
p2478
S'0'
sS'Start'
p2479
S'1'
sS'Won'
p2480
S'0'
sS'GfM'
p2481
S'0'
sS'Draw'
p2482
S'1'
sS'Mat'
p2483
S'1'
sS'Conv'
p2484
S'0'
sS'Tries'
p2485
S'0'
sS'Goals'
p2486
S'0'
sa(dp2487
S'Pens'
p2488
S'0'
sS'Sub'
p2489
S'0'
sS'Lost'
p2490
S'4'
sS'Drop'
p2491
S'0'
sS'Start'
p2492
S'14'
p2493
sS'Won'
p2494
S'8'
sS'GfM'
p2495
S'0'
sS'Draw'
p2496
S'2'
sS'Mat'
p2497
S'14'
p2498
sS'Conv'
p2499
S'8'
sS'Tries'
p2500
S'5'
sS'Pts'
p2501
S'28'
p2502
sa(dp2503
S'Pens'
p2504
S'0'
sS'Sub'
p2505
S'0'
sS'Lost'
p2506
S'1'
sS'Drop'
p2507
S'0'
sS'Start'
p2508
S'2'
sS'Won'
p2509
S'0'
sS'GfM'
p2510
S'0'
sS'Draw'
p2511
S'1'
sS'Mat'
p2512
S'2'
sS'Conv'
p2513
S'0'
sS'Tries'
p2514
S'0'
sS'Goals'
p2515
S'0'
sa(dp2516
S'Pens'
p2517
S'0'
sS'Sub'
p2518
S'0'
sS'Lost'
p2519
S'1'
sS'Drop'
p2520
S'0'
sS'Start'
p2521
S'3'
sS'Won'
p2522
S'0'
sS'GfM'
p2523
S'0'
sS'Draw'
p2524
S'2'
sS'Mat'
p2525
S'3'
sS'Conv'
p2526
S'0'
sS'Tries'
p2527
S'0'
sS'Goals'
p2528
S'0'
sa(dp2529
S'Pens'
p2530
S'0'
sS'Sub'
p2531
S'0'
sS'Lost'
p2532
S'1'
sS'Drop'
p2533
S'0'
sS'Start'
p2534
S'1'
sS'Won'
p2535
S'0'
sS'GfM'
p2536
S'0'
sS'Draw'
p2537
S'0'
sS'Mat'
p2538
S'1'
sS'Conv'
p2539
S'0'
sS'Tries'
p2540
S'0'
sS'Goals'
p2541
S'0'
sa(dp2542
S'Pens'
p2543
S'0'
sS'Sub'
p2544
S'0'
sS'Lost'
p2545
S'1'
sS'Drop'
p2546
S'0'
sS'Start'
p2547
S'1'
sS'Won'
p2548
S'0'
sS'GfM'
p2549
S'0'
sS'Draw'
p2550
S'0'
sS'Mat'
p2551
S'1'
sS'Conv'
p2552
S'0'
sS'Tries'
p2553
S'0'
sS'Goals'
p2554
S'0'
sa(dp2555
S'Pens'
p2556
S'0'
sS'Sub'
p2557
S'0'
sS'Lost'
p2558
S'1'
sS'Drop'
p2559
S'0'
sS'Start'
p2560
S'3'
sS'Won'
p2561
S'2'
sS'GfM'
p2562
S'0'
sS'Draw'
p2563
S'0'
sS'Mat'
p2564
S'3'
sS'Conv'
p2565
S'0'
sS'Tries'
p2566
S'0'
sS'Pts'
p2567
S'0'
sa(dp2568
S'Pens'
p2569
S'0'
sS'Sub'
p2570
S'0'
sS'Lost'
p2571
S'0'
sS'Drop'
p2572
S'0'
sS'Start'
p2573
S'1'
sS'Won'
p2574
S'1'
sS'GfM'
p2575
S'0'
sS'Draw'
p2576
S'0'
sS'Mat'
p2577
S'1'
sS'Conv'
p2578
S'0'
sS'Tries'
p2579
S'0'
sS'Pts'
p2580
S'0'
sa(dp2581
S'Pens'
p2582
S'0'
sS'Sub'
p2583
S'0'
sS'Lost'
p2584
S'0'
sS'Drop'
p2585
S'0'
sS'Start'
p2586
S'3'
sS'Won'
p2587
S'3'
sS'GfM'
p2588
S'0'
sS'Draw'
p2589
S'0'
sS'Mat'
p2590
S'3'
sS'Conv'
p2591
S'0'
sS'Tries'
p2592
S'2'
sS'Pts'
p2593
S'2'
sa(dp2594
S'Pens'
p2595
S'0'
sS'Sub'
p2596
S'0'
sS'Lost'
p2597
S'0'
sS'Drop'
p2598
S'0'
sS'Start'
p2599
S'1'
sS'Won'
p2600
S'1'
sS'GfM'
p2601
S'0'
sS'Draw'
p2602
S'0'
sS'Mat'
p2603
S'1'
sS'Conv'
p2604
S'0'
sS'Tries'
p2605
S'0'
sS'Pts'
p2606
S'0'
sa(dp2607
S'Pens'
p2608
S'0'
sS'Sub'
p2609
S'0'
sS'Lost'
p2610
S'3'
sS'Drop'
p2611
S'0'
sS'Start'
p2612
S'10'
p2613
sS'Won'
p2614
S'7'
sS'GfM'
p2615
S'0'
sS'Draw'
p2616
S'0'
sS'Mat'
p2617
S'10'
p2618
sS'Conv'
p2619
S'0'
sS'Tries'
p2620
S'4'
sS'Pts'
p2621
S'7'
sa(dp2622
S'Pens'
p2623
S'0'
sS'Sub'
p2624
S'0'
sS'Lost'
p2625
S'1'
sS'Drop'
p2626
S'0'
sS'Start'
p2627
S'6'
sS'Won'
p2628
S'5'
sS'GfM'
p2629
S'0'
sS'Draw'
p2630
S'0'
sS'Mat'
p2631
S'6'
sS'Conv'
p2632
S'1'
sS'Tries'
p2633
S'0'
sS'Pts'
p2634
S'2'
sa(dp2635
S'Pens'
p2636
S'0'
sS'Sub'
p2637
S'0'
sS'Lost'
p2638
S'1'
sS'Drop'
p2639
S'0'
sS'Start'
p2640
S'2'
sS'Won'
p2641
S'1'
sS'GfM'
p2642
S'0'
sS'Draw'
p2643
S'0'
sS'Mat'
p2644
S'2'
sS'Conv'
p2645
S'0'
sS'Tries'
p2646
S'0'
sS'Pts'
p2647
S'0'
sa(dp2648
S'Pens'
p2649
S'0'
sS'Sub'
p2650
S'0'
sS'Lost'
p2651
S'1'
sS'Drop'
p2652
S'0'
sS'Start'
p2653
S'4'
sS'Won'
p2654
S'3'
sS'GfM'
p2655
S'0'
sS'Draw'
p2656
S'0'
sS'Mat'
p2657
S'4'
sS'Conv'
p2658
S'0'
sS'Tries'
p2659
S'0'
sS'Pts'
p2660
S'0'
sa(dp2661
S'Pens'
p2662
S'0'
sS'Sub'
p2663
S'0'
sS'Lost'
p2664
S'0'
sS'Drop'
p2665
S'0'
sS'Start'
p2666
S'1'
sS'Won'
p2667
S'1'
sS'GfM'
p2668
S'0'
sS'Draw'
p2669
S'0'
sS'Mat'
p2670
S'1'
sS'Conv'
p2671
S'0'
sS'Tries'
p2672
S'0'
sS'Pts'
p2673
S'0'
sa(dp2674
S'Pens'
p2675
S'0'
sS'Sub'
p2676
S'0'
sS'Lost'
p2677
S'0'
sS'Drop'
p2678
S'0'
sS'Start'
p2679
S'1'
sS'Won'
p2680
S'1'
sS'GfM'
p2681
S'0'
sS'Draw'
p2682
S'0'
sS'Mat'
p2683
S'1'
sS'Conv'
p2684
S'0'
sS'Tries'
p2685
S'0'
sS'Pts'
p2686
S'0'
sa(dp2687
S'Pens'
p2688
S'0'
sS'Sub'
p2689
S'0'
sS'Lost'
p2690
S'0'
sS'Drop'
p2691
S'0'
sS'Start'
p2692
S'1'
sS'Won'
p2693
S'1'
sS'GfM'
p2694
S'0'
sS'Draw'
p2695
S'0'
sS'Mat'
p2696
S'1'
sS'Conv'
p2697
S'1'
sS'Tries'
p2698
S'1'
sS'Pts'
p2699
S'3'
sa(dp2700
S'Pens'
p2701
S'0'
sS'Sub'
p2702
S'0'
sS'Lost'
p2703
S'0'
sS'Drop'
p2704
S'0'
sS'Start'
p2705
S'1'
sS'Won'
p2706
S'1'
sS'GfM'
p2707
S'0'
sS'Draw'
p2708
S'0'
sS'Mat'
p2709
S'1'
sS'Conv'
p2710
S'0'
sS'Tries'
p2711
S'0'
sS'Pts'
p2712
S'0'
sa(dp2713
S'Pens'
p2714
S'0'
sS'Sub'
p2715
S'0'
sS'Lost'
p2716
S'1'
sS'Drop'
p2717
S'0'
sS'Start'
p2718
S'6'
sS'Won'
p2719
S'5'
sS'GfM'
p2720
S'0'
sS'Draw'
p2721
S'0'
sS'Mat'
p2722
S'6'
sS'Conv'
p2723
S'0'
sS'Tries'
p2724
S'0'
sS'Pts'
p2725
S'0'
sa(dp2726
S'Pens'
p2727
S'0'
sS'Sub'
p2728
S'0'
sS'Lost'
p2729
S'2'
sS'Drop'
p2730
S'0'
sS'Start'
p2731
S'3'
sS'Won'
p2732
S'1'
sS'GfM'
p2733
S'0'
sS'Draw'
p2734
S'0'
sS'Mat'
p2735
S'3'
sS'Conv'
p2736
S'0'
sS'Tries'
p2737
S'1'
sS'Pts'
p2738
S'1'
sa(dp2739
S'Pens'
p2740
S'0'
sS'Sub'
p2741
S'0'
sS'Lost'
p2742
S'1'
sS'Drop'
p2743
S'0'
sS'Start'
p2744
S'2'
sS'Won'
p2745
S'1'
sS'GfM'
p2746
S'0'
sS'Draw'
p2747
S'0'
sS'Mat'
p2748
S'2'
sS'Conv'
p2749
S'0'
sS'Tries'
p2750
S'0'
sS'Pts'
p2751
S'0'
sa(dp2752
S'Pens'
p2753
S'0'
sS'Sub'
p2754
S'0'
sS'Lost'
p2755
S'3'
sS'Drop'
p2756
S'0'
sS'Start'
p2757
S'10'
p2758
sS'Won'
p2759
S'7'
sS'GfM'
p2760
S'1'
sS'Draw'
p2761
S'0'
sS'Mat'
p2762
S'10'
p2763
sS'Conv'
p2764
S'0'
sS'Tries'
p2765
S'0'
sS'Pts'
p2766
S'3'
sa(dp2767
S'Pens'
p2768
S'0'
sS'Sub'
p2769
S'0'
sS'Lost'
p2770
S'1'
sS'Drop'
p2771
S'0'
sS'Start'
p2772
S'4'
sS'Won'
p2773
S'3'
sS'GfM'
p2774
S'0'
sS'Draw'
p2775
S'0'
sS'Mat'
p2776
S'4'
sS'Conv'
p2777
S'0'
sS'Tries'
p2778
S'1'
sS'Pts'
p2779
S'1'
sa(dp2780
S'Pens'
p2781
S'0'
sS'Sub'
p2782
S'0'
sS'Lost'
p2783
S'2'
sS'Drop'
p2784
S'0'
sS'Start'
p2785
S'4'
sS'Won'
p2786
S'2'
sS'GfM'
p2787
S'0'
sS'Draw'
p2788
S'0'
sS'Mat'
p2789
S'4'
sS'Conv'
p2790
S'0'
sS'Tries'
p2791
S'1'
sS'Pts'
p2792
S'1'
sa(dp2793
S'Pens'
p2794
S'0'
sS'Sub'
p2795
S'0'
sS'Lost'
p2796
S'3'
sS'Drop'
p2797
S'0'
sS'Start'
p2798
S'4'
sS'Won'
p2799
S'1'
sS'GfM'
p2800
S'0'
sS'Draw'
p2801
S'0'
sS'Mat'
p2802
S'4'
sS'Conv'
p2803
S'1'
sS'Tries'
p2804
S'0'
sS'Pts'
p2805
S'2'
sa(dp2806
S'Pens'
p2807
S'0'
sS'Sub'
p2808
S'0'
sS'Lost'
p2809
S'4'
sS'Drop'
p2810
S'0'
sS'Start'
p2811
S'13'
p2812
sS'Won'
p2813
S'9'
sS'GfM'
p2814
S'0'
sS'Draw'
p2815
S'0'
sS'Mat'
p2816
S'13'
p2817
sS'Conv'
p2818
S'1'
sS'Tries'
p2819
S'1'
sS'Pts'
p2820
S'6'
sa(dp2821
S'Pens'
p2822
S'0'
sS'Sub'
p2823
S'0'
sS'Lost'
p2824
S'1'
sS'Drop'
p2825
S'0'
sS'Start'
p2826
S'1'
sS'Won'
p2827
S'0'
sS'GfM'
p2828
S'0'
sS'Draw'
p2829
S'0'
sS'Mat'
p2830
S'1'
sS'Conv'
p2831
S'0'
sS'Tries'
p2832
S'0'
sS'Pts'
p2833
S'0'
sa(dp2834
S'Pens'
p2835
S'0'
sS'Sub'
p2836
S'0'
sS'Lost'
p2837
S'0'
sS'Drop'
p2838
S'0'
sS'Start'
p2839
S'5'
sS'Won'
p2840
S'5'
sS'GfM'
p2841
S'0'
sS'Draw'
p2842
S'0'
sS'Mat'
p2843
S'5'
sS'Conv'
p2844
S'0'
sS'Tries'
p2845
S'2'
sS'Pts'
p2846
S'2'
sa(dp2847
S'Pens'
p2848
S'0'
sS'Sub'
p2849
S'0'
sS'Lost'
p2850
S'1'
sS'Drop'
p2851
S'0'
sS'Start'
p2852
S'4'
sS'Won'
p2853
S'3'
sS'GfM'
p2854
S'0'
sS'Draw'
p2855
S'0'
sS'Mat'
p2856
S'4'
sS'Conv'
p2857
S'0'
sS'Tries'
p2858
S'1'
sS'Pts'
p2859
S'2'
sa(dp2860
S'Pens'
p2861
S'0'
sS'Sub'
p2862
S'0'
sS'Lost'
p2863
S'0'
sS'Drop'
p2864
S'0'
sS'Start'
p2865
S'2'
sS'Won'
p2866
S'2'
sS'GfM'
p2867
S'0'
sS'Draw'
p2868
S'0'
sS'Mat'
p2869
S'2'
sS'Conv'
p2870
S'0'
sS'Tries'
p2871
S'0'
sS'Pts'
p2872
S'0'
sa(dp2873
S'Pens'
p2874
S'0'
sS'Sub'
p2875
S'0'
sS'Lost'
p2876
S'3'
sS'Drop'
p2877
S'0'
sS'Start'
p2878
S'12'
p2879
sS'Won'
p2880
S'9'
sS'GfM'
p2881
S'0'
sS'Draw'
p2882
S'0'
sS'Mat'
p2883
S'12'
p2884
sS'Conv'
p2885
S'0'
sS'Tries'
p2886
S'1'
sS'Pts'
p2887
S'1'
sa(dp2888
S'Pens'
p2889
S'0'
sS'Sub'
p2890
S'0'
sS'Lost'
p2891
S'0'
sS'Drop'
p2892
S'0'
sS'Start'
p2893
S'1'
sS'Won'
p2894
S'1'
sS'GfM'
p2895
S'0'
sS'Draw'
p2896
S'0'
sS'Mat'
p2897
S'1'
sS'Conv'
p2898
S'0'
sS'Tries'
p2899
S'0'
sS'Pts'
p2900
S'0'
sa(dp2901
S'Pens'
p2902
S'0'
sS'Sub'
p2903
S'0'
sS'Lost'
p2904
S'2'
sS'Drop'
p2905
S'0'
sS'Start'
p2906
S'6'
sS'Won'
p2907
S'4'
sS'GfM'
p2908
S'0'
sS'Draw'
p2909
S'0'
sS'Mat'
p2910
S'6'
sS'Conv'
p2911
S'4'
sS'Tries'
p2912
S'1'
sS'Pts'
p2913
S'11'
p2914
sa(dp2915
S'Pens'
p2916
S'0'
sS'Sub'
p2917
S'0'
sS'Lost'
p2918
S'1'
sS'Drop'
p2919
S'0'
sS'Start'
p2920
S'3'
sS'Won'
p2921
S'2'
sS'GfM'
p2922
S'0'
sS'Draw'
p2923
S'0'
sS'Mat'
p2924
S'3'
sS'Conv'
p2925
S'0'
sS'Tries'
p2926
S'0'
sS'Pts'
p2927
S'0'
sa(dp2928
S'Pens'
p2929
S'0'
sS'Sub'
p2930
S'0'
sS'Lost'
p2931
S'4'
sS'Drop'
p2932
S'0'
sS'Start'
p2933
S'15'
p2934
sS'Won'
p2935
S'11'
p2936
sS'GfM'
p2937
S'0'
sS'Draw'
p2938
S'0'
sS'Mat'
p2939
S'15'
p2940
sS'Conv'
p2941
S'0'
sS'Tries'
p2942
S'1'
sS'Pts'
p2943
S'2'
sa(dp2944
S'Pens'
p2945
S'0'
sS'Sub'
p2946
S'0'
sS'Lost'
p2947
S'1'
sS'Drop'
p2948
S'0'
sS'Start'
p2949
S'2'
sS'Won'
p2950
S'1'
sS'GfM'
p2951
S'0'
sS'Draw'
p2952
S'0'
sS'Mat'
p2953
S'2'
sS'Conv'
p2954
S'0'
sS'Tries'
p2955
S'2'
sS'Pts'
p2956
S'2'
sa(dp2957
S'Pens'
p2958
S'0'
sS'Sub'
p2959
S'0'
sS'Lost'
p2960
S'1'
sS'Drop'
p2961
S'0'
sS'Start'
p2962
S'6'
sS'Won'
p2963
S'5'
sS'GfM'
p2964
S'0'
sS'Draw'
p2965
S'0'
sS'Mat'
p2966
S'6'
sS'Conv'
p2967
S'0'
sS'Tries'
p2968
S'0'
sS'Pts'
p2969
S'0'
sa(dp2970
S'Pens'
p2971
S'0'
sS'Sub'
p2972
S'0'
sS'Lost'
p2973
S'1'
sS'Drop'
p2974
S'0'
sS'Start'
p2975
S'3'
sS'Won'
p2976
S'2'
sS'GfM'
p2977
S'0'
sS'Draw'
p2978
S'0'
sS'Mat'
p2979
S'3'
sS'Conv'
p2980
S'0'
sS'Tries'
p2981
S'0'
sS'Pts'
p2982
S'0'
sa(dp2983
S'Pens'
p2984
S'0'
sS'Sub'
p2985
S'0'
sS'Lost'
p2986
S'1'
sS'Drop'
p2987
S'0'
sS'Start'
p2988
S'3'
sS'Won'
p2989
S'2'
sS'GfM'
p2990
S'0'
sS'Draw'
p2991
S'0'
sS'Mat'
p2992
S'3'
sS'Conv'
p2993
S'0'
sS'Tries'
p2994
S'0'
sS'Pts'
p2995
S'0'
sa(dp2996
S'Pens'
p2997
S'0'
sS'Sub'
p2998
S'0'
sS'Lost'
p2999
S'1'
sS'Drop'
p3000
S'0'
sS'Start'
p3001
S'3'
sS'Won'
p3002
S'2'
sS'GfM'
p3003
S'0'
sS'Draw'
p3004
S'0'
sS'Mat'
p3005
S'3'
sS'Conv'
p3006
S'0'
sS'Tries'
p3007
S'0'
sS'Pts'
p3008
S'0'
sa(dp3009
S'Pens'
p3010
S'0'
sS'Sub'
p3011
S'0'
sS'Lost'
p3012
S'1'
sS'Drop'
p3013
S'0'
sS'Start'
p3014
S'3'
sS'Won'
p3015
S'2'
sS'GfM'
p3016
S'0'
sS'Draw'
p3017
S'0'
sS'Mat'
p3018
S'3'
sS'Conv'
p3019
S'0'
sS'Tries'
p3020
S'2'
sS'Pts'
p3021
S'2'
sa(dp3022
S'Pens'
p3023
S'0'
sS'Sub'
p3024
S'0'
sS'Lost'
p3025
S'1'
sS'Drop'
p3026
S'0'
sS'Start'
p3027
S'3'
sS'Won'
p3028
S'2'
sS'GfM'
p3029
S'0'
sS'Draw'
p3030
S'0'
sS'Mat'
p3031
S'3'
sS'Conv'
p3032
S'0'
sS'Tries'
p3033
S'1'
sS'Pts'
p3034
S'2'
sa(dp3035
S'Pens'
p3036
S'0'
sS'Sub'
p3037
S'0'
sS'Lost'
p3038
S'1'
sS'Drop'
p3039
S'0'
sS'Start'
p3040
S'1'
sS'Won'
p3041
S'0'
sS'GfM'
p3042
S'0'
sS'Draw'
p3043
S'0'
sS'Mat'
p3044
S'1'
sS'Conv'
p3045
S'0'
sS'Tries'
p3046
S'0'
sS'Pts'
p3047
S'0'
sa(dp3048
S'Pens'
p3049
S'0'
sS'Sub'
p3050
S'0'
sS'Lost'
p3051
S'2'
sS'Drop'
p3052
S'0'
sS'Start'
p3053
S'5'
sS'Won'
p3054
S'3'
sS'GfM'
p3055
S'0'
sS'Draw'
p3056
S'0'
sS'Mat'
p3057
S'5'
sS'Conv'
p3058
S'0'
sS'Tries'
p3059
S'0'
sS'Pts'
p3060
S'0'
sa(dp3061
S'Pens'
p3062
S'0'
sS'Sub'
p3063
S'0'
sS'Lost'
p3064
S'0'
sS'Drop'
p3065
S'0'
sS'Start'
p3066
S'3'
sS'Won'
p3067
S'3'
sS'GfM'
p3068
S'0'
sS'Draw'
p3069
S'0'
sS'Mat'
p3070
S'3'
sS'Conv'
p3071
S'0'
sS'Tries'
p3072
S'0'
sS'Pts'
p3073
S'0'
sa(dp3074
S'Pens'
p3075
S'0'
sS'Sub'
p3076
S'0'
sS'Lost'
p3077
S'0'
sS'Drop'
p3078
S'0'
sS'Start'
p3079
S'3'
sS'Won'
p3080
S'3'
sS'GfM'
p3081
S'0'
sS'Draw'
p3082
S'0'
sS'Mat'
p3083
S'3'
sS'Conv'
p3084
S'0'
sS'Tries'
p3085
S'0'
sS'Pts'
p3086
S'0'
sa(dp3087
S'Pens'
p3088
S'0'
sS'Sub'
p3089
S'0'
sS'Lost'
p3090
S'0'
sS'Drop'
p3091
S'0'
sS'Start'
p3092
S'1'
sS'Won'
p3093
S'1'
sS'GfM'
p3094
S'0'
sS'Draw'
p3095
S'0'
sS'Mat'
p3096
S'1'
sS'Conv'
p3097
S'0'
sS'Tries'
p3098
S'0'
sS'Pts'
p3099
S'0'
sa(dp3100
S'Pens'
p3101
S'0'
sS'Sub'
p3102
S'0'
sS'Lost'
p3103
S'0'
sS'Drop'
p3104
S'0'
sS'Start'
p3105
S'2'
sS'Won'
p3106
S'2'
sS'GfM'
p3107
S'0'
sS'Draw'
p3108
S'0'
sS'Mat'
p3109
S'2'
sS'Conv'
p3110
S'0'
sS'Tries'
p3111
S'1'
sS'Pts'
p3112
S'2'
sa(dp3113
S'Pens'
p3114
S'0'
sS'Sub'
p3115
S'0'
sS'Lost'
p3116
S'0'
sS'Drop'
p3117
S'0'
sS'Start'
p3118
S'2'
sS'Won'
p3119
S'2'
sS'GfM'
p3120
S'0'
sS'Draw'
p3121
S'0'
sS'Mat'
p3122
S'2'
sS'Conv'
p3123
S'0'
sS'Tries'
p3124
S'1'
sS'Pts'
p3125
S'2'
sa(dp3126
S'Pens'
p3127
S'0'
sS'Sub'
p3128
S'0'
sS'Lost'
p3129
S'0'
sS'Drop'
p3130
S'0'
sS'Start'
p3131
S'1'
sS'Won'
p3132
S'1'
sS'GfM'
p3133
S'0'
sS'Draw'
p3134
S'0'
sS'Mat'
p3135
S'1'
sS'Conv'
p3136
S'0'
sS'Tries'
p3137
S'0'
sS'Pts'
p3138
S'0'
sa(dp3139
S'Pens'
p3140
S'0'
sS'Sub'
p3141
S'0'
sS'Lost'
p3142
S'1'
sS'Drop'
p3143
S'0'
sS'Start'
p3144
S'4'
sS'Won'
p3145
S'3'
sS'GfM'
p3146
S'0'
sS'Draw'
p3147
S'0'
sS'Mat'
p3148
S'4'
sS'Conv'
p3149
S'0'
sS'Tries'
p3150
S'1'
sS'Pts'
p3151
S'3'
sa(dp3152
S'Pens'
p3153
S'0'
sS'Sub'
p3154
S'0'
sS'Lost'
p3155
S'0'
sS'Drop'
p3156
S'0'
sS'Start'
p3157
S'1'
sS'Won'
p3158
S'1'
sS'GfM'
p3159
S'0'
sS'Draw'
p3160
S'0'
sS'Mat'
p3161
S'1'
sS'Conv'
p3162
S'0'
sS'Tries'
p3163
S'0'
sS'Pts'
p3164
S'0'
sa(dp3165
S'Pens'
p3166
S'0'
sS'Sub'
p3167
S'0'
sS'Lost'
p3168
S'0'
sS'Drop'
p3169
S'0'
sS'Start'
p3170
S'2'
sS'Won'
p3171
S'2'
sS'GfM'
p3172
S'0'
sS'Draw'
p3173
S'0'
sS'Mat'
p3174
S'2'
sS'Conv'
p3175
S'0'
sS'Tries'
p3176
S'0'
sS'Pts'
p3177
S'0'
sa(dp3178
S'Pens'
p3179
S'0'
sS'Sub'
p3180
S'0'
sS'Lost'
p3181
S'0'
sS'Drop'
p3182
S'0'
sS'Start'
p3183
S'3'
sS'Won'
p3184
S'3'
sS'GfM'
p3185
S'0'
sS'Draw'
p3186
S'0'
sS'Mat'
p3187
S'3'
sS'Conv'
p3188
S'0'
sS'Tries'
p3189
S'0'
sS'Pts'
p3190
S'0'
sa(dp3191
S'Pens'
p3192
S'0'
sS'Sub'
p3193
S'0'
sS'Lost'
p3194
S'7'
sS'Drop'
p3195
S'0'
sS'Start'
p3196
S'14'
p3197
sS'Won'
p3198
S'7'
sS'GfM'
p3199
S'1'
sS'Draw'
p3200
S'0'
sS'Mat'
p3201
S'14'
p3202
sS'Conv'
p3203
S'3'
sS'Tries'
p3204
S'2'
sS'Pts'
p3205
S'15'
p3206
sa(dp3207
S'Pens'
p3208
S'0'
sS'Sub'
p3209
S'0'
sS'Lost'
p3210
S'4'
sS'Drop'
p3211
S'0'
sS'Start'
p3212
S'7'
sS'Won'
p3213
S'3'
sS'GfM'
p3214
S'0'
sS'Draw'
p3215
S'0'
sS'Mat'
p3216
S'7'
sS'Conv'
p3217
S'0'
sS'Tries'
p3218
S'2'
sS'Pts'
p3219
S'5'
sa(dp3220
S'Pens'
p3221
S'0'
sS'Sub'
p3222
S'0'
sS'Lost'
p3223
S'0'
sS'Drop'
p3224
S'0'
sS'Start'
p3225
S'1'
sS'Won'
p3226
S'1'
sS'GfM'
p3227
S'0'
sS'Draw'
p3228
S'0'
sS'Mat'
p3229
S'1'
sS'Conv'
p3230
S'0'
sS'Tries'
p3231
S'0'
sS'Pts'
p3232
S'0'
sa(dp3233
S'Pens'
p3234
S'0'
sS'Sub'
p3235
S'0'
sS'Lost'
p3236
S'0'
sS'Drop'
p3237
S'0'
sS'Start'
p3238
S'1'
sS'Won'
p3239
S'1'
sS'GfM'
p3240
S'0'
sS'Draw'
p3241
S'0'
sS'Mat'
p3242
S'1'
sS'Conv'
p3243
S'0'
sS'Tries'
p3244
S'0'
sS'Pts'
p3245
S'0'
sa(dp3246
S'Pens'
p3247
S'0'
sS'Sub'
p3248
S'0'
sS'Lost'
p3249
S'5'
sS'Drop'
p3250
S'0'
sS'Start'
p3251
S'6'
sS'Won'
p3252
S'1'
sS'GfM'
p3253
S'0'
sS'Draw'
p3254
S'0'
sS'Mat'
p3255
S'6'
sS'Conv'
p3256
S'0'
sS'Tries'
p3257
S'0'
sS'Pts'
p3258
S'0'
sa(dp3259
S'Pens'
p3260
S'0'
sS'Sub'
p3261
S'0'
sS'Lost'
p3262
S'1'
sS'Drop'
p3263
S'0'
sS'Start'
p3264
S'1'
sS'Won'
p3265
S'0'
sS'GfM'
p3266
S'0'
sS'Draw'
p3267
S'0'
sS'Mat'
p3268
S'1'
sS'Conv'
p3269
S'0'
sS'Tries'
p3270
S'0'
sS'Pts'
p3271
S'0'
sa(dp3272
S'Pens'
p3273
S'0'
sS'Sub'
p3274
S'0'
sS'Lost'
p3275
S'1'
sS'Drop'
p3276
S'0'
sS'Start'
p3277
S'2'
sS'Won'
p3278
S'1'
sS'GfM'
p3279
S'0'
sS'Draw'
p3280
S'0'
sS'Mat'
p3281
S'2'
sS'Conv'
p3282
S'0'
sS'Tries'
p3283
S'0'
sS'Pts'
p3284
S'0'
sa(dp3285
S'Pens'
p3286
S'0'
sS'Sub'
p3287
S'0'
sS'Lost'
p3288
S'1'
sS'Drop'
p3289
S'0'
sS'Start'
p3290
S'2'
sS'Won'
p3291
S'1'
sS'GfM'
p3292
S'0'
sS'Draw'
p3293
S'0'
sS'Mat'
p3294
S'2'
sS'Conv'
p3295
S'0'
sS'Tries'
p3296
S'0'
sS'Pts'
p3297
S'0'
sa(dp3298
S'Pens'
p3299
S'0'
sS'Sub'
p3300
S'0'
sS'Lost'
p3301
S'1'
sS'Drop'
p3302
S'0'
sS'Start'
p3303
S'1'
sS'Won'
p3304
S'0'
sS'GfM'
p3305
S'0'
sS'Draw'
p3306
S'0'
sS'Mat'
p3307
S'1'
sS'Conv'
p3308
S'0'
sS'Tries'
p3309
S'1'
sS'Pts'
p3310
S'2'
sa(dp3311
S'Pens'
p3312
S'0'
sS'Sub'
p3313
S'0'
sS'Lost'
p3314
S'1'
sS'Drop'
p3315
S'0'
sS'Start'
p3316
S'3'
sS'Won'
p3317
S'2'
sS'GfM'
p3318
S'0'
sS'Draw'
p3319
S'0'
sS'Mat'
p3320
S'3'
sS'Conv'
p3321
S'0'
sS'Tries'
p3322
S'3'
sS'Pts'
p3323
S'6'
sa(dp3324
S'Pens'
p3325
S'0'
sS'Sub'
p3326
S'0'
sS'Lost'
p3327
S'1'
sS'Drop'
p3328
S'0'
sS'Start'
p3329
S'2'
sS'Won'
p3330
S'1'
sS'GfM'
p3331
S'0'
sS'Draw'
p3332
S'0'
sS'Mat'
p3333
S'2'
sS'Conv'
p3334
S'0'
sS'Tries'
p3335
S'0'
sS'Pts'
p3336
S'0'
sa(dp3337
S'Pens'
p3338
S'0'
sS'Sub'
p3339
S'0'
sS'Lost'
p3340
S'1'
sS'Drop'
p3341
S'0'
sS'Start'
p3342
S'2'
sS'Won'
p3343
S'1'
sS'GfM'
p3344
S'0'
sS'Draw'
p3345
S'0'
sS'Mat'
p3346
S'2'
sS'Conv'
p3347
S'0'
sS'Tries'
p3348
S'0'
sS'Pts'
p3349
S'0'
sa(dp3350
S'Pens'
p3351
S'0'
sS'Sub'
p3352
S'0'
sS'Lost'
p3353
S'0'
sS'Drop'
p3354
S'0'
sS'Start'
p3355
S'1'
sS'Won'
p3356
S'1'
sS'GfM'
p3357
S'0'
sS'Draw'
p3358
S'0'
sS'Mat'
p3359
S'1'
sS'Conv'
p3360
S'0'
sS'Tries'
p3361
S'0'
sS'Pts'
p3362
S'0'
sa(dp3363
S'Pens'
p3364
S'0'
sS'Sub'
p3365
S'0'
sS'Lost'
p3366
S'1'
sS'Drop'
p3367
S'0'
sS'Start'
p3368
S'1'
sS'Won'
p3369
S'0'
sS'GfM'
p3370
S'0'
sS'Draw'
p3371
S'0'
sS'Mat'
p3372
S'1'
sS'Conv'
p3373
S'0'
sS'Tries'
p3374
S'0'
sS'Pts'
p3375
S'0'
sa(dp3376
S'Pens'
p3377
S'0'
sS'Sub'
p3378
S'0'
sS'Lost'
p3379
S'2'
sS'Drop'
p3380
S'0'
sS'Start'
p3381
S'4'
sS'Won'
p3382
S'2'
sS'GfM'
p3383
S'0'
sS'Draw'
p3384
S'0'
sS'Mat'
p3385
S'4'
sS'Conv'
p3386
S'0'
sS'Tries'
p3387
S'1'
sS'Pts'
p3388
S'3'
sa(dp3389
S'Pens'
p3390
S'0'
sS'Sub'
p3391
S'0'
sS'Lost'
p3392
S'3'
sS'Drop'
p3393
S'0'
sS'Start'
p3394
S'4'
sS'Won'
p3395
S'1'
sS'GfM'
p3396
S'0'
sS'Draw'
p3397
S'0'
sS'Mat'
p3398
S'4'
sS'Conv'
p3399
S'0'
sS'Tries'
p3400
S'0'
sS'Pts'
p3401
S'0'
sa(dp3402
S'Pens'
p3403
S'0'
sS'Sub'
p3404
S'0'
sS'Lost'
p3405
S'4'
sS'Drop'
p3406
S'0'
sS'Start'
p3407
S'6'
sS'Won'
p3408
S'2'
sS'GfM'
p3409
S'0'
sS'Draw'
p3410
S'0'
sS'Mat'
p3411
S'6'
sS'Conv'
p3412
S'0'
sS'Tries'
p3413
S'0'
sS'Pts'
p3414
S'0'
sa(dp3415
S'Pens'
p3416
S'4'
sS'Sub'
p3417
S'0'
sS'Lost'
p3418
S'9'
sS'Drop'
p3419
S'3'
sS'Start'
p3420
S'17'
p3421
sS'Won'
p3422
S'7'
sS'GfM'
p3423
S'0'
sS'Draw'
p3424
S'1'
sS'Mat'
p3425
S'17'
p3426
sS'Conv'
p3427
S'6'
sS'Tries'
p3428
S'0'
sS'Pts'
p3429
S'36'
p3430
sa(dp3431
S'Pens'
p3432
S'0'
sS'Sub'
p3433
S'0'
sS'Lost'
p3434
S'2'
sS'Drop'
p3435
S'0'
sS'Start'
p3436
S'3'
sS'Won'
p3437
S'1'
sS'GfM'
p3438
S'0'
sS'Draw'
p3439
S'0'
sS'Mat'
p3440
S'3'
sS'Conv'
p3441
S'0'
sS'Tries'
p3442
S'0'
sS'Pts'
p3443
S'0'
sa(dp3444
S'Pens'
p3445
S'0'
sS'Sub'
p3446
S'0'
sS'Lost'
p3447
S'2'
sS'Drop'
p3448
S'0'
sS'Start'
p3449
S'3'
sS'Won'
p3450
S'1'
sS'GfM'
p3451
S'0'
sS'Draw'
p3452
S'0'
sS'Mat'
p3453
S'3'
sS'Conv'
p3454
S'0'
sS'Tries'
p3455
S'0'
sS'Pts'
p3456
S'0'
sa(dp3457
S'Pens'
p3458
S'0'
sS'Sub'
p3459
S'0'
sS'Lost'
p3460
S'2'
sS'Drop'
p3461
S'0'
sS'Start'
p3462
S'3'
sS'Won'
p3463
S'1'
sS'GfM'
p3464
S'0'
sS'Draw'
p3465
S'0'
sS'Mat'
p3466
S'3'
sS'Conv'
p3467
S'0'
sS'Tries'
p3468
S'0'
sS'Pts'
p3469
S'0'
sa(dp3470
S'Pens'
p3471
S'0'
sS'Sub'
p3472
S'0'
sS'Lost'
p3473
S'4'
sS'Drop'
p3474
S'0'
sS'Start'
p3475
S'6'
sS'Won'
p3476
S'2'
sS'GfM'
p3477
S'0'
sS'Draw'
p3478
S'0'
sS'Mat'
p3479
S'6'
sS'Conv'
p3480
S'0'
sS'Tries'
p3481
S'3'
sS'Pts'
p3482
S'9'
sa(dp3483
S'Pens'
p3484
S'0'
sS'Sub'
p3485
S'0'
sS'Lost'
p3486
S'3'
sS'Drop'
p3487
S'0'
sS'Start'
p3488
S'4'
sS'Won'
p3489
S'1'
sS'GfM'
p3490
S'0'
sS'Draw'
p3491
S'0'
sS'Mat'
p3492
S'4'
sS'Conv'
p3493
S'0'
sS'Tries'
p3494
S'0'
sS'Pts'
p3495
S'0'
sa(dp3496
S'Pens'
p3497
S'0'
sS'Sub'
p3498
S'0'
sS'Lost'
p3499
S'2'
sS'Drop'
p3500
S'0'
sS'Start'
p3501
S'5'
sS'Won'
p3502
S'3'
sS'GfM'
p3503
S'0'
sS'Draw'
p3504
S'0'
sS'Mat'
p3505
S'5'
sS'Conv'
p3506
S'0'
sS'Tries'
p3507
S'0'
sS'Pts'
p3508
S'0'
sa(dp3509
S'Pens'
p3510
S'0'
sS'Sub'
p3511
S'0'
sS'Lost'
p3512
S'1'
sS'Drop'
p3513
S'0'
sS'Start'
p3514
S'1'
sS'Won'
p3515
S'0'
sS'GfM'
p3516
S'0'
sS'Draw'
p3517
S'0'
sS'Mat'
p3518
S'1'
sS'Conv'
p3519
S'0'
sS'Tries'
p3520
S'0'
sS'Pts'
p3521
S'0'
sa(dp3522
S'Pens'
p3523
S'0'
sS'Sub'
p3524
S'0'
sS'Lost'
p3525
S'1'
sS'Drop'
p3526
S'0'
sS'Start'
p3527
S'1'
sS'Won'
p3528
S'0'
sS'GfM'
p3529
S'0'
sS'Draw'
p3530
S'0'
sS'Mat'
p3531
S'1'
sS'Conv'
p3532
S'0'
sS'Tries'
p3533
S'0'
sS'Pts'
p3534
S'0'
sa(dp3535
S'Pens'
p3536
S'0'
sS'Sub'
p3537
S'0'
sS'Lost'
p3538
S'1'
sS'Drop'
p3539
S'0'
sS'Start'
p3540
S'1'
sS'Won'
p3541
S'0'
sS'GfM'
p3542
S'0'
sS'Draw'
p3543
S'0'
sS'Mat'
p3544
S'1'
sS'Conv'
p3545
S'0'
sS'Tries'
p3546
S'0'
sS'Pts'
p3547
S'0'
sa(dp3548
S'Pens'
p3549
S'0'
sS'Sub'
p3550
S'0'
sS'Lost'
p3551
S'1'
sS'Drop'
p3552
S'0'
sS'Start'
p3553
S'1'
sS'Won'
p3554
S'0'
sS'GfM'
p3555
S'0'
sS'Draw'
p3556
S'0'
sS'Mat'
p3557
S'1'
sS'Conv'
p3558
S'0'
sS'Tries'
p3559
S'0'
sS'Pts'
p3560
S'0'
sa(dp3561
S'Pens'
p3562
S'0'
sS'Sub'
p3563
S'0'
sS'Lost'
p3564
S'4'
sS'Drop'
p3565
S'0'
sS'Start'
p3566
S'7'
sS'Won'
p3567
S'3'
sS'GfM'
p3568
S'0'
sS'Draw'
p3569
S'0'
sS'Mat'
p3570
S'7'
sS'Conv'
p3571
S'0'
sS'Tries'
p3572
S'0'
sS'Pts'
p3573
S'0'
sa(dp3574
S'Pens'
p3575
S'0'
sS'Sub'
p3576
S'0'
sS'Lost'
p3577
S'2'
sS'Drop'
p3578
S'0'
sS'Start'
p3579
S'5'
sS'Won'
p3580
S'3'
sS'GfM'
p3581
S'0'
sS'Draw'
p3582
S'0'
sS'Mat'
p3583
S'5'
sS'Conv'
p3584
S'0'
sS'Tries'
p3585
S'1'
sS'Pts'
p3586
S'3'
sa(dp3587
S'Pens'
p3588
S'0'
sS'Sub'
p3589
S'0'
sS'Lost'
p3590
S'4'
sS'Drop'
p3591
S'0'
sS'Start'
p3592
S'7'
sS'Won'
p3593
S'3'
sS'GfM'
p3594
S'0'
sS'Draw'
p3595
S'0'
sS'Mat'
p3596
S'7'
sS'Conv'
p3597
S'0'
sS'Tries'
p3598
S'2'
sS'Pts'
p3599
S'6'
sa(dp3600
S'Pens'
p3601
S'0'
sS'Sub'
p3602
S'0'
sS'Lost'
p3603
S'1'
sS'Drop'
p3604
S'0'
sS'Start'
p3605
S'3'
sS'Won'
p3606
S'2'
sS'GfM'
p3607
S'0'
sS'Draw'
p3608
S'0'
sS'Mat'
p3609
S'3'
sS'Conv'
p3610
S'0'
sS'Tries'
p3611
S'1'
sS'Pts'
p3612
S'3'
sa(dp3613
S'Pens'
p3614
S'0'
sS'Sub'
p3615
S'0'
sS'Lost'
p3616
S'1'
sS'Drop'
p3617
S'0'
sS'Start'
p3618
S'3'
sS'Won'
p3619
S'2'
sS'GfM'
p3620
S'0'
sS'Draw'
p3621
S'0'
sS'Mat'
p3622
S'3'
sS'Conv'
p3623
S'0'
sS'Tries'
p3624
S'0'
sS'Pts'
p3625
S'0'
sa(dp3626
S'Pens'
p3627
S'0'
sS'Sub'
p3628
S'0'
sS'Lost'
p3629
S'0'
sS'Drop'
p3630
S'0'
sS'Start'
p3631
S'2'
sS'Won'
p3632
S'2'
sS'GfM'
p3633
S'0'
sS'Draw'
p3634
S'0'
sS'Mat'
p3635
S'2'
sS'Conv'
p3636
S'0'
sS'Tries'
p3637
S'1'
sS'Pts'
p3638
S'3'
sa(dp3639
S'Pens'
p3640
S'0'
sS'Sub'
p3641
S'0'
sS'Lost'
p3642
S'3'
sS'Drop'
p3643
S'0'
sS'Start'
p3644
S'6'
sS'Won'
p3645
S'3'
sS'GfM'
p3646
S'0'
sS'Draw'
p3647
S'0'
sS'Mat'
p3648
S'6'
sS'Conv'
p3649
S'1'
sS'Tries'
p3650
S'1'
sS'Pts'
p3651
S'5'
sa(dp3652
S'Pens'
p3653
S'0'
sS'Sub'
p3654
S'0'
sS'Lost'
p3655
S'1'
sS'Drop'
p3656
S'0'
sS'Start'
p3657
S'3'
sS'Won'
p3658
S'2'
sS'GfM'
p3659
S'0'
sS'Draw'
p3660
S'0'
sS'Mat'
p3661
S'3'
sS'Conv'
p3662
S'0'
sS'Tries'
p3663
S'0'
sS'Pts'
p3664
S'0'
sa(dp3665
S'Pens'
p3666
S'0'
sS'Sub'
p3667
S'0'
sS'Lost'
p3668
S'2'
sS'Drop'
p3669
S'0'
sS'Start'
p3670
S'4'
sS'Won'
p3671
S'2'
sS'GfM'
p3672
S'0'
sS'Draw'
p3673
S'0'
sS'Mat'
p3674
S'4'
sS'Conv'
p3675
S'0'
sS'Tries'
p3676
S'1'
sS'Pts'
p3677
S'3'
sa(dp3678
S'Pens'
p3679
S'0'
sS'Sub'
p3680
S'0'
sS'Lost'
p3681
S'0'
sS'Drop'
p3682
S'0'
sS'Start'
p3683
S'1'
sS'Won'
p3684
S'1'
sS'GfM'
p3685
S'0'
sS'Draw'
p3686
S'0'
sS'Mat'
p3687
S'1'
sS'Conv'
p3688
S'0'
sS'Tries'
p3689
S'0'
sS'Pts'
p3690
S'0'
sa(dp3691
S'Pens'
p3692
S'0'
sS'Sub'
p3693
S'0'
sS'Lost'
p3694
S'1'
sS'Drop'
p3695
S'0'
sS'Start'
p3696
S'1'
sS'Won'
p3697
S'0'
sS'GfM'
p3698
S'0'
sS'Draw'
p3699
S'0'
sS'Mat'
p3700
S'1'
sS'Conv'
p3701
S'0'
sS'Tries'
p3702
S'0'
sS'Pts'
p3703
S'0'
sa(dp3704
S'Pens'
p3705
S'0'
sS'Sub'
p3706
S'0'
sS'Lost'
p3707
S'7'
sS'Drop'
p3708
S'0'
sS'Start'
p3709
S'10'
p3710
sS'Won'
p3711
S'3'
sS'GfM'
p3712
S'0'
sS'Draw'
p3713
S'0'
sS'Mat'
p3714
S'10'
p3715
sS'Conv'
p3716
S'0'
sS'Tries'
p3717
S'5'
sS'Pts'
p3718
S'15'
p3719
sa(dp3720
S'Pens'
p3721
S'0'
sS'Sub'
p3722
S'0'
sS'Lost'
p3723
S'1'
sS'Drop'
p3724
S'0'
sS'Start'
p3725
S'3'
sS'Won'
p3726
S'2'
sS'GfM'
p3727
S'0'
sS'Draw'
p3728
S'0'
sS'Mat'
p3729
S'3'
sS'Conv'
p3730
S'0'
sS'Tries'
p3731
S'0'
sS'Pts'
p3732
S'0'
sa(dp3733
S'Pens'
p3734
S'0'
sS'Sub'
p3735
S'0'
sS'Lost'
p3736
S'1'
sS'Drop'
p3737
S'0'
sS'Start'
p3738
S'3'
sS'Won'
p3739
S'2'
sS'GfM'
p3740
S'0'
sS'Draw'
p3741
S'0'
sS'Mat'
p3742
S'3'
sS'Conv'
p3743
S'0'
sS'Tries'
p3744
S'0'
sS'Pts'
p3745
S'0'
sa(dp3746
S'Pens'
p3747
S'0'
sS'Sub'
p3748
S'0'
sS'Lost'
p3749
S'2'
sS'Drop'
p3750
S'0'
sS'Start'
p3751
S'3'
sS'Won'
p3752
S'1'
sS'GfM'
p3753
S'0'
sS'Draw'
p3754
S'0'
sS'Mat'
p3755
S'3'
sS'Conv'
p3756
S'0'
sS'Tries'
p3757
S'0'
sS'Pts'
p3758
S'0'
sa(dp3759
S'Pens'
p3760
S'0'
sS'Sub'
p3761
S'0'
sS'Lost'
p3762
S'1'
sS'Drop'
p3763
S'0'
sS'Start'
p3764
S'2'
sS'Won'
p3765
S'1'
sS'GfM'
p3766
S'0'
sS'Draw'
p3767
S'0'
sS'Mat'
p3768
S'2'
sS'Conv'
p3769
S'0'
sS'Tries'
p3770
S'0'
sS'Pts'
p3771
S'0'
sa(dp3772
S'Pens'
p3773
S'0'
sS'Sub'
p3774
S'0'
sS'Lost'
p3775
S'2'
sS'Drop'
p3776
S'0'
sS'Start'
p3777
S'3'
sS'Won'
p3778
S'1'
sS'GfM'
p3779
S'0'
sS'Draw'
p3780
S'0'
sS'Mat'
p3781
S'3'
sS'Conv'
p3782
S'0'
sS'Tries'
p3783
S'0'
sS'Pts'
p3784
S'0'
sa(dp3785
S'Pens'
p3786
S'0'
sS'Sub'
p3787
S'0'
sS'Lost'
p3788
S'0'
sS'Drop'
p3789
S'0'
sS'Start'
p3790
S'1'
sS'Won'
p3791
S'1'
sS'GfM'
p3792
S'0'
sS'Draw'
p3793
S'0'
sS'Mat'
p3794
S'1'
sS'Conv'
p3795
S'0'
sS'Tries'
p3796
S'0'
sS'Pts'
p3797
S'0'
sa(dp3798
S'Pens'
p3799
S'0'
sS'Sub'
p3800
S'0'
sS'Lost'
p3801
S'3'
sS'Drop'
p3802
S'0'
sS'Start'
p3803
S'3'
sS'Won'
p3804
S'0'
sS'GfM'
p3805
S'0'
sS'Draw'
p3806
S'0'
sS'Mat'
p3807
S'3'
sS'Conv'
p3808
S'0'
sS'Tries'
p3809
S'0'
sS'Pts'
p3810
S'0'
sa(dp3811
S'Pens'
p3812
S'0'
sS'Sub'
p3813
S'0'
sS'Lost'
p3814
S'1'
sS'Drop'
p3815
S'0'
sS'Start'
p3816
S'1'
sS'Won'
p3817
S'0'
sS'GfM'
p3818
S'0'
sS'Draw'
p3819
S'0'
sS'Mat'
p3820
S'1'
sS'Conv'
p3821
S'0'
sS'Tries'
p3822
S'0'
sS'Pts'
p3823
S'0'
sa(dp3824
S'Pens'
p3825
S'0'
sS'Sub'
p3826
S'0'
sS'Lost'
p3827
S'1'
sS'Drop'
p3828
S'0'
sS'Start'
p3829
S'2'
sS'Won'
p3830
S'1'
sS'GfM'
p3831
S'0'
sS'Draw'
p3832
S'0'
sS'Mat'
p3833
S'2'
sS'Conv'
p3834
S'0'
sS'Tries'
p3835
S'0'
sS'Pts'
p3836
S'0'
sa(dp3837
S'Pens'
p3838
S'0'
sS'Sub'
p3839
S'0'
sS'Lost'
p3840
S'1'
sS'Drop'
p3841
S'0'
sS'Start'
p3842
S'1'
sS'Won'
p3843
S'0'
sS'GfM'
p3844
S'0'
sS'Draw'
p3845
S'0'
sS'Mat'
p3846
S'1'
sS'Conv'
p3847
S'0'
sS'Tries'
p3848
S'0'
sS'Pts'
p3849
S'0'
sa(dp3850
S'Pens'
p3851
S'0'
sS'Sub'
p3852
S'0'
sS'Lost'
p3853
S'2'
sS'Drop'
p3854
S'0'
sS'Start'
p3855
S'4'
sS'Won'
p3856
S'1'
sS'GfM'
p3857
S'0'
sS'Draw'
p3858
S'1'
sS'Mat'
p3859
S'4'
sS'Conv'
p3860
S'0'
sS'Tries'
p3861
S'0'
sS'Pts'
p3862
S'0'
sa(dp3863
S'Pens'
p3864
S'0'
sS'Sub'
p3865
S'0'
sS'Lost'
p3866
S'1'
sS'Drop'
p3867
S'0'
sS'Start'
p3868
S'1'
sS'Won'
p3869
S'0'
sS'GfM'
p3870
S'0'
sS'Draw'
p3871
S'0'
sS'Mat'
p3872
S'1'
sS'Conv'
p3873
S'0'
sS'Tries'
p3874
S'0'
sS'Pts'
p3875
S'0'
sa(dp3876
S'Pens'
p3877
S'0'
sS'Sub'
p3878
S'0'
sS'Lost'
p3879
S'2'
sS'Drop'
p3880
S'0'
sS'Start'
p3881
S'2'
sS'Won'
p3882
S'0'
sS'GfM'
p3883
S'0'
sS'Draw'
p3884
S'0'
sS'Mat'
p3885
S'2'
sS'Conv'
p3886
S'0'
sS'Tries'
p3887
S'0'
sS'Pts'
p3888
S'0'
sa(dp3889
S'Pens'
p3890
S'0'
sS'Sub'
p3891
S'0'
sS'Lost'
p3892
S'1'
sS'Drop'
p3893
S'0'
sS'Start'
p3894
S'1'
sS'Won'
p3895
S'0'
sS'GfM'
p3896
S'0'
sS'Draw'
p3897
S'0'
sS'Mat'
p3898
S'1'
sS'Conv'
p3899
S'0'
sS'Tries'
p3900
S'0'
sS'Pts'
p3901
S'0'
sa(dp3902
S'Pens'
p3903
S'0'
sS'Sub'
p3904
S'0'
sS'Lost'
p3905
S'5'
sS'Drop'
p3906
S'0'
sS'Start'
p3907
S'8'
sS'Won'
p3908
S'2'
sS'GfM'
p3909
S'0'
sS'Draw'
p3910
S'1'
sS'Mat'
p3911
S'8'
sS'Conv'
p3912
S'0'
sS'Tries'
p3913
S'0'
sS'Pts'
p3914
S'0'
sa(dp3915
S'Pens'
p3916
S'0'
sS'Sub'
p3917
S'0'
sS'Lost'
p3918
S'2'
sS'Drop'
p3919
S'0'
sS'Start'
p3920
S'2'
sS'Won'
p3921
S'0'
sS'GfM'
p3922
S'0'
sS'Draw'
p3923
S'0'
sS'Mat'
p3924
S'2'
sS'Conv'
p3925
S'0'
sS'Tries'
p3926
S'0'
sS'Pts'
p3927
S'0'
sa(dp3928
S'Pens'
p3929
S'0'
sS'Sub'
p3930
S'0'
sS'Lost'
p3931
S'5'
sS'Drop'
p3932
S'0'
sS'Start'
p3933
S'8'
sS'Won'
p3934
S'2'
sS'GfM'
p3935
S'0'
sS'Draw'
p3936
S'1'
sS'Mat'
p3937
S'8'
sS'Conv'
p3938
S'0'
sS'Tries'
p3939
S'0'
sS'Pts'
p3940
S'0'
sa(dp3941
S'Pens'
p3942
S'0'
sS'Sub'
p3943
S'0'
sS'Lost'
p3944
S'2'
sS'Drop'
p3945
S'0'
sS'Start'
p3946
S'3'
sS'Won'
p3947
S'1'
sS'GfM'
p3948
S'0'
sS'Draw'
p3949
S'0'
sS'Mat'
p3950
S'3'
sS'Conv'
p3951
S'0'
sS'Tries'
p3952
S'0'
sS'Pts'
p3953
S'0'
sa(dp3954
S'Pens'
p3955
S'0'
sS'Sub'
p3956
S'0'
sS'Lost'
p3957
S'12'
p3958
sS'Drop'
p3959
S'0'
sS'Start'
p3960
S'21'
p3961
sS'Won'
p3962
S'5'
sS'GfM'
p3963
S'0'
sS'Draw'
p3964
S'4'
sS'Mat'
p3965
S'21'
p3966
sS'Conv'
p3967
S'1'
sS'Tries'
p3968
S'1'
sS'Pts'
p3969
S'5'
sa(dp3970
S'Pens'
p3971
S'0'
sS'Sub'
p3972
S'0'
sS'Lost'
p3973
S'5'
sS'Drop'
p3974
S'0'
sS'Start'
p3975
S'9'
sS'Won'
p3976
S'2'
sS'GfM'
p3977
S'0'
sS'Draw'
p3978
S'2'
sS'Mat'
p3979
S'9'
sS'Conv'
p3980
S'0'
sS'Tries'
p3981
S'0'
sS'Pts'
p3982
S'0'
sa(dp3983
S'Pens'
p3984
S'0'
sS'Sub'
p3985
S'0'
sS'Lost'
p3986
S'1'
sS'Drop'
p3987
S'0'
sS'Start'
p3988
S'1'
sS'Won'
p3989
S'0'
sS'GfM'
p3990
S'0'
sS'Draw'
p3991
S'0'
sS'Mat'
p3992
S'1'
sS'Conv'
p3993
S'0'
sS'Tries'
p3994
S'0'
sS'Pts'
p3995
S'0'
sa(dp3996
S'Pens'
p3997
S'0'
sS'Sub'
p3998
S'0'
sS'Lost'
p3999
S'5'
sS'Drop'
p4000
S'0'
sS'Start'
p4001
S'8'
sS'Won'
p4002
S'2'
sS'GfM'
p4003
S'0'
sS'Draw'
p4004
S'1'
sS'Mat'
p4005
S'8'
sS'Conv'
p4006
S'0'
sS'Tries'
p4007
S'8'
sS'Pts'
p4008
S'24'
p4009
sa(dp4010
S'Pens'
p4011
S'0'
sS'Sub'
p4012
S'0'
sS'Lost'
p4013
S'8'
sS'Drop'
p4014
S'0'
sS'Start'
p4015
S'11'
p4016
sS'Won'
p4017
S'3'
sS'GfM'
p4018
S'0'
sS'Draw'
p4019
S'0'
sS'Mat'
p4020
S'11'
p4021
sS'Conv'
p4022
S'1'
sS'Tries'
p4023
S'1'
sS'Pts'
p4024
S'5'
sa(dp4025
S'Pens'
p4026
S'0'
sS'Sub'
p4027
S'0'
sS'Lost'
p4028
S'2'
sS'Drop'
p4029
S'0'
sS'Start'
p4030
S'5'
sS'Won'
p4031
S'2'
sS'GfM'
p4032
S'0'
sS'Draw'
p4033
S'1'
sS'Mat'
p4034
S'5'
sS'Conv'
p4035
S'0'
sS'Tries'
p4036
S'0'
sS'Pts'
p4037
S'0'
sa(dp4038
S'Pens'
p4039
S'0'
sS'Sub'
p4040
S'0'
sS'Lost'
p4041
S'4'
sS'Drop'
p4042
S'0'
sS'Start'
p4043
S'7'
sS'Won'
p4044
S'2'
sS'GfM'
p4045
S'0'
sS'Draw'
p4046
S'1'
sS'Mat'
p4047
S'7'
sS'Conv'
p4048
S'0'
sS'Tries'
p4049
S'0'
sS'Pts'
p4050
S'0'
sa(dp4051
S'Pens'
p4052
S'0'
sS'Sub'
p4053
S'0'
sS'Lost'
p4054
S'2'
sS'Drop'
p4055
S'1'
sS'Start'
p4056
S'6'
sS'Won'
p4057
S'4'
sS'GfM'
p4058
S'0'
sS'Draw'
p4059
S'0'
sS'Mat'
p4060
S'6'
sS'Conv'
p4061
S'0'
sS'Tries'
p4062
S'1'
sS'Pts'
p4063
S'7'
sa(dp4064
S'Pens'
p4065
S'0'
sS'Sub'
p4066
S'0'
sS'Lost'
p4067
S'2'
sS'Drop'
p4068
S'0'
sS'Start'
p4069
S'2'
sS'Won'
p4070
S'0'
sS'GfM'
p4071
S'0'
sS'Draw'
p4072
S'0'
sS'Mat'
p4073
S'2'
sS'Conv'
p4074
S'0'
sS'Tries'
p4075
S'0'
sS'Pts'
p4076
S'0'
sa(dp4077
S'Pens'
p4078
S'0'
sS'Sub'
p4079
S'0'
sS'Lost'
p4080
S'1'
sS'Drop'
p4081
S'0'
sS'Start'
p4082
S'1'
sS'Won'
p4083
S'0'
sS'GfM'
p4084
S'0'
sS'Draw'
p4085
S'0'
sS'Mat'
p4086
S'1'
sS'Conv'
p4087
S'0'
sS'Tries'
p4088
S'0'
sS'Pts'
p4089
S'0'
sa(dp4090
S'Pens'
p4091
S'0'
sS'Sub'
p4092
S'0'
sS'Lost'
p4093
S'1'
sS'Drop'
p4094
S'0'
sS'Start'
p4095
S'1'
sS'Won'
p4096
S'0'
sS'GfM'
p4097
S'0'
sS'Draw'
p4098
S'0'
sS'Mat'
p4099
S'1'
sS'Conv'
p4100
S'0'
sS'Tries'
p4101
S'0'
sS'Pts'
p4102
S'0'
sa(dp4103
S'Pens'
p4104
S'0'
sS'Sub'
p4105
S'0'
sS'Lost'
p4106
S'2'
sS'Drop'
p4107
S'0'
sS'Start'
p4108
S'2'
sS'Won'
p4109
S'0'
sS'GfM'
p4110
S'0'
sS'Draw'
p4111
S'0'
sS'Mat'
p4112
S'2'
sS'Conv'
p4113
S'0'
sS'Tries'
p4114
S'0'
sS'Pts'
p4115
S'0'
sa(dp4116
S'Pens'
p4117
S'0'
sS'Sub'
p4118
S'0'
sS'Lost'
p4119
S'1'
sS'Drop'
p4120
S'0'
sS'Start'
p4121
S'1'
sS'Won'
p4122
S'0'
sS'GfM'
p4123
S'0'
sS'Draw'
p4124
S'0'
sS'Mat'
p4125
S'1'
sS'Conv'
p4126
S'0'
sS'Tries'
p4127
S'0'
sS'Pts'
p4128
S'0'
sa(dp4129
S'Pens'
p4130
S'0'
sS'Sub'
p4131
S'0'
sS'Lost'
p4132
S'1'
sS'Drop'
p4133
S'0'
sS'Start'
p4134
S'1'
sS'Won'
p4135
S'0'
sS'GfM'
p4136
S'0'
sS'Draw'
p4137
S'0'
sS'Mat'
p4138
S'1'
sS'Conv'
p4139
S'0'
sS'Tries'
p4140
S'0'
sS'Pts'
p4141
S'0'
sa(dp4142
S'Pens'
p4143
S'0'
sS'Sub'
p4144
S'0'
sS'Lost'
p4145
S'0'
sS'Drop'
p4146
S'0'
sS'Start'
p4147
S'1'
sS'Won'
p4148
S'0'
sS'GfM'
p4149
S'0'
sS'Draw'
p4150
S'1'
sS'Mat'
p4151
S'1'
sS'Conv'
p4152
S'0'
sS'Tries'
p4153
S'0'
sS'Pts'
p4154
S'0'
sa(dp4155
S'Pens'
p4156
S'0'
sS'Sub'
p4157
S'0'
sS'Lost'
p4158
S'0'
sS'Drop'
p4159
S'0'
sS'Start'
p4160
S'2'
sS'Won'
p4161
S'1'
sS'GfM'
p4162
S'0'
sS'Draw'
p4163
S'1'
sS'Mat'
p4164
S'2'
sS'Conv'
p4165
S'0'
sS'Tries'
p4166
S'0'
sS'Pts'
p4167
S'0'
sa(dp4168
S'Pens'
p4169
S'0'
sS'Sub'
p4170
S'0'
sS'Lost'
p4171
S'3'
sS'Drop'
p4172
S'0'
sS'Start'
p4173
S'8'
sS'Won'
p4174
S'4'
sS'GfM'
p4175
S'0'
sS'Draw'
p4176
S'1'
sS'Mat'
p4177
S'8'
sS'Conv'
p4178
S'2'
sS'Tries'
p4179
S'0'
sS'Pts'
p4180
S'4'
sa(dp4181
S'Pens'
p4182
S'0'
sS'Sub'
p4183
S'0'
sS'Lost'
p4184
S'1'
sS'Drop'
p4185
S'0'
sS'Start'
p4186
S'3'
sS'Won'
p4187
S'1'
sS'GfM'
p4188
S'0'
sS'Draw'
p4189
S'1'
sS'Mat'
p4190
S'3'
sS'Conv'
p4191
S'0'
sS'Tries'
p4192
S'1'
sS'Pts'
p4193
S'3'
sa(dp4194
S'Pens'
p4195
S'0'
sS'Sub'
p4196
S'0'
sS'Lost'
p4197
S'0'
sS'Drop'
p4198
S'0'
sS'Start'
p4199
S'2'
sS'Won'
p4200
S'1'
sS'GfM'
p4201
S'0'
sS'Draw'
p4202
S'1'
sS'Mat'
p4203
S'2'
sS'Conv'
p4204
S'0'
sS'Tries'
p4205
S'0'
sS'Pts'
p4206
S'0'
sa(dp4207
S'Pens'
p4208
S'0'
sS'Sub'
p4209
S'0'
sS'Lost'
p4210
S'3'
sS'Drop'
p4211
S'0'
sS'Start'
p4212
S'5'
sS'Won'
p4213
S'1'
sS'GfM'
p4214
S'0'
sS'Draw'
p4215
S'1'
sS'Mat'
p4216
S'5'
sS'Conv'
p4217
S'0'
sS'Tries'
p4218
S'1'
sS'Pts'
p4219
S'3'
sa(dp4220
S'Pens'
p4221
S'0'
sS'Sub'
p4222
S'0'
sS'Lost'
p4223
S'0'
sS'Drop'
p4224
S'0'
sS'Start'
p4225
S'1'
sS'Won'
p4226
S'0'
sS'GfM'
p4227
S'0'
sS'Draw'
p4228
S'1'
sS'Mat'
p4229
S'1'
sS'Conv'
p4230
S'0'
sS'Tries'
p4231
S'0'
sS'Pts'
p4232
S'0'
sa(dp4233
S'Pens'
p4234
S'0'
sS'Sub'
p4235
S'0'
sS'Lost'
p4236
S'1'
sS'Drop'
p4237
S'0'
sS'Start'
p4238
S'2'
sS'Won'
p4239
S'1'
sS'GfM'
p4240
S'0'
sS'Draw'
p4241
S'0'
sS'Mat'
p4242
S'2'
sS'Conv'
p4243
S'0'
sS'Tries'
p4244
S'0'
sS'Pts'
p4245
S'0'
sa(dp4246
S'Pens'
p4247
S'0'
sS'Sub'
p4248
S'0'
sS'Lost'
p4249
S'2'
sS'Drop'
p4250
S'0'
sS'Start'
p4251
S'7'
sS'Won'
p4252
S'4'
sS'GfM'
p4253
S'0'
sS'Draw'
p4254
S'1'
sS'Mat'
p4255
S'7'
sS'Conv'
p4256
S'0'
sS'Tries'
p4257
S'0'
sS'Pts'
p4258
S'0'
sa(dp4259
S'Pens'
p4260
S'0'
sS'Sub'
p4261
S'0'
sS'Lost'
p4262
S'2'
sS'Drop'
p4263
S'0'
sS'Start'
p4264
S'2'
sS'Won'
p4265
S'0'
sS'GfM'
p4266
S'0'
sS'Draw'
p4267
S'0'
sS'Mat'
p4268
S'2'
sS'Conv'
p4269
S'0'
sS'Tries'
p4270
S'0'
sS'Pts'
p4271
S'0'
sa(dp4272
S'Pens'
p4273
S'0'
sS'Sub'
p4274
S'0'
sS'Lost'
p4275
S'3'
sS'Drop'
p4276
S'0'
sS'Start'
p4277
S'6'
sS'Won'
p4278
S'2'
sS'GfM'
p4279
S'0'
sS'Draw'
p4280
S'1'
sS'Mat'
p4281
S'6'
sS'Conv'
p4282
S'0'
sS'Tries'
p4283
S'1'
sS'Pts'
p4284
S'3'
sa(dp4285
S'Pens'
p4286
S'1'
sS'Sub'
p4287
S'0'
sS'Lost'
p4288
S'9'
sS'Drop'
p4289
S'0'
sS'Start'
p4290
S'15'
p4291
sS'Won'
p4292
S'4'
sS'GfM'
p4293
S'0'
sS'Draw'
p4294
S'2'
sS'Mat'
p4295
S'15'
p4296
sS'Conv'
p4297
S'0'
sS'Tries'
p4298
S'0'
sS'Pts'
p4299
S'3'
sa(dp4300
S'Pens'
p4301
S'0'
sS'Sub'
p4302
S'0'
sS'Lost'
p4303
S'3'
sS'Drop'
p4304
S'0'
sS'Start'
p4305
S'6'
sS'Won'
p4306
S'3'
sS'GfM'
p4307
S'0'
sS'Draw'
p4308
S'0'
sS'Mat'
p4309
S'6'
sS'Conv'
p4310
S'0'
sS'Tries'
p4311
S'0'
sS'Pts'
p4312
S'0'
sa(dp4313
S'Pens'
p4314
S'0'
sS'Sub'
p4315
S'0'
sS'Lost'
p4316
S'1'
sS'Drop'
p4317
S'0'
sS'Start'
p4318
S'1'
sS'Won'
p4319
S'0'
sS'GfM'
p4320
S'0'
sS'Draw'
p4321
S'0'
sS'Mat'
p4322
S'1'
sS'Conv'
p4323
S'0'
sS'Tries'
p4324
S'0'
sS'Pts'
p4325
S'0'
sa(dp4326
S'Pens'
p4327
S'0'
sS'Sub'
p4328
S'0'
sS'Lost'
p4329
S'2'
sS'Drop'
p4330
S'0'
sS'Start'
p4331
S'5'
sS'Won'
p4332
S'3'
sS'GfM'
p4333
S'0'
sS'Draw'
p4334
S'0'
sS'Mat'
p4335
S'5'
sS'Conv'
p4336
S'0'
sS'Tries'
p4337
S'0'
sS'Pts'
p4338
S'0'
sa(dp4339
S'Pens'
p4340
S'0'
sS'Sub'
p4341
S'0'
sS'Lost'
p4342
S'1'
sS'Drop'
p4343
S'0'
sS'Start'
p4344
S'1'
sS'Won'
p4345
S'0'
sS'GfM'
p4346
S'0'
sS'Draw'
p4347
S'0'
sS'Mat'
p4348
S'1'
sS'Conv'
p4349
S'0'
sS'Tries'
p4350
S'0'
sS'Pts'
p4351
S'0'
sa(dp4352
S'Pens'
p4353
S'0'
sS'Sub'
p4354
S'0'
sS'Lost'
p4355
S'1'
sS'Drop'
p4356
S'0'
sS'Start'
p4357
S'1'
sS'Won'
p4358
S'0'
sS'GfM'
p4359
S'0'
sS'Draw'
p4360
S'0'
sS'Mat'
p4361
S'1'
sS'Conv'
p4362
S'0'
sS'Tries'
p4363
S'0'
sS'Pts'
p4364
S'0'
sa(dp4365
S'Pens'
p4366
S'0'
sS'Sub'
p4367
S'0'
sS'Lost'
p4368
S'2'
sS'Drop'
p4369
S'0'
sS'Start'
p4370
S'4'
sS'Won'
p4371
S'1'
sS'GfM'
p4372
S'0'
sS'Draw'
p4373
S'1'
sS'Mat'
p4374
S'4'
sS'Conv'
p4375
S'0'
sS'Tries'
p4376
S'0'
sS'Pts'
p4377
S'0'
sa(dp4378
S'Pens'
p4379
S'0'
sS'Sub'
p4380
S'0'
sS'Lost'
p4381
S'1'
sS'Drop'
p4382
S'0'
sS'Start'
p4383
S'1'
sS'Won'
p4384
S'0'
sS'GfM'
p4385
S'0'
sS'Draw'
p4386
S'0'
sS'Mat'
p4387
S'1'
sS'Conv'
p4388
S'0'
sS'Tries'
p4389
S'0'
sS'Pts'
p4390
S'0'
sa(dp4391
S'Pens'
p4392
S'0'
sS'Sub'
p4393
S'0'
sS'Lost'
p4394
S'2'
sS'Drop'
p4395
S'0'
sS'Start'
p4396
S'2'
sS'Won'
p4397
S'0'
sS'GfM'
p4398
S'0'
sS'Draw'
p4399
S'0'
sS'Mat'
p4400
S'2'
sS'Conv'
p4401
S'0'
sS'Tries'
p4402
S'0'
sS'Pts'
p4403
S'0'
sa(dp4404
S'Pens'
p4405
S'0'
sS'Sub'
p4406
S'0'
sS'Lost'
p4407
S'1'
sS'Drop'
p4408
S'0'
sS'Start'
p4409
S'1'
sS'Won'
p4410
S'0'
sS'GfM'
p4411
S'0'
sS'Draw'
p4412
S'0'
sS'Mat'
p4413
S'1'
sS'Conv'
p4414
S'0'
sS'Tries'
p4415
S'0'
sS'Pts'
p4416
S'0'
sa(dp4417
S'Pens'
p4418
S'0'
sS'Sub'
p4419
S'0'
sS'Lost'
p4420
S'3'
sS'Drop'
p4421
S'0'
sS'Start'
p4422
S'3'
sS'Won'
p4423
S'0'
sS'GfM'
p4424
S'0'
sS'Draw'
p4425
S'0'
sS'Mat'
p4426
S'3'
sS'Conv'
p4427
S'0'
sS'Tries'
p4428
S'0'
sS'Pts'
p4429
S'0'
sa(dp4430
S'Pens'
p4431
S'0'
sS'Sub'
p4432
S'0'
sS'Lost'
p4433
S'1'
sS'Drop'
p4434
S'0'
sS'Start'
p4435
S'3'
sS'Won'
p4436
S'1'
sS'GfM'
p4437
S'0'
sS'Draw'
p4438
S'1'
sS'Mat'
p4439
S'3'
sS'Conv'
p4440
S'0'
sS'Tries'
p4441
S'0'
sS'Pts'
p4442
S'0'
sa(dp4443
S'Pens'
p4444
S'0'
sS'Sub'
p4445
S'0'
sS'Lost'
p4446
S'1'
sS'Drop'
p4447
S'0'
sS'Start'
p4448
S'1'
sS'Won'
p4449
S'0'
sS'GfM'
p4450
S'0'
sS'Draw'
p4451
S'0'
sS'Mat'
p4452
S'1'
sS'Conv'
p4453
S'0'
sS'Tries'
p4454
S'0'
sS'Pts'
p4455
S'0'
sa(dp4456
S'Pens'
p4457
S'0'
sS'Sub'
p4458
S'0'
sS'Lost'
p4459
S'1'
sS'Drop'
p4460
S'0'
sS'Start'
p4461
S'3'
sS'Won'
p4462
S'1'
sS'GfM'
p4463
S'0'
sS'Draw'
p4464
S'1'
sS'Mat'
p4465
S'3'
sS'Conv'
p4466
S'0'
sS'Tries'
p4467
S'0'
sS'Pts'
p4468
S'0'
sa(dp4469
S'Pens'
p4470
S'0'
sS'Sub'
p4471
S'0'
sS'Lost'
p4472
S'6'
sS'Drop'
p4473
S'0'
sS'Start'
p4474
S'8'
sS'Won'
p4475
S'1'
sS'GfM'
p4476
S'0'
sS'Draw'
p4477
S'1'
sS'Mat'
p4478
S'8'
sS'Conv'
p4479
S'0'
sS'Tries'
p4480
S'1'
sS'Pts'
p4481
S'3'
sa(dp4482
S'Pens'
p4483
S'0'
sS'Sub'
p4484
S'0'
sS'Lost'
p4485
S'1'
sS'Drop'
p4486
S'0'
sS'Start'
p4487
S'1'
sS'Won'
p4488
S'0'
sS'GfM'
p4489
S'0'
sS'Draw'
p4490
S'0'
sS'Mat'
p4491
S'1'
sS'Conv'
p4492
S'0'
sS'Tries'
p4493
S'0'
sS'Pts'
p4494
S'0'
sa(dp4495
S'Pens'
p4496
S'0'
sS'Sub'
p4497
S'0'
sS'Lost'
p4498
S'1'
sS'Drop'
p4499
S'0'
sS'Start'
p4500
S'1'
sS'Won'
p4501
S'0'
sS'GfM'
p4502
S'0'
sS'Draw'
p4503
S'0'
sS'Mat'
p4504
S'1'
sS'Conv'
p4505
S'0'
sS'Tries'
p4506
S'0'
sS'Pts'
p4507
S'0'
sa(dp4508
S'Pens'
p4509
S'0'
sS'Sub'
p4510
S'0'
sS'Lost'
p4511
S'6'
sS'Drop'
p4512
S'0'
sS'Start'
p4513
S'7'
sS'Won'
p4514
S'1'
sS'GfM'
p4515
S'0'
sS'Draw'
p4516
S'0'
sS'Mat'
p4517
S'7'
sS'Conv'
p4518
S'0'
sS'Tries'
p4519
S'2'
sS'Pts'
p4520
S'6'
sa(dp4521
S'Pens'
p4522
S'0'
sS'Sub'
p4523
S'0'
sS'Lost'
p4524
S'1'
sS'Drop'
p4525
S'1'
sS'Start'
p4526
S'3'
sS'Won'
p4527
S'1'
sS'GfM'
p4528
S'0'
sS'Draw'
p4529
S'1'
sS'Mat'
p4530
S'3'
sS'Conv'
p4531
S'0'
sS'Tries'
p4532
S'1'
sS'Pts'
p4533
S'7'
sa(dp4534
S'Pens'
p4535
S'0'
sS'Sub'
p4536
S'0'
sS'Lost'
p4537
S'2'
sS'Drop'
p4538
S'0'
sS'Start'
p4539
S'5'
sS'Won'
p4540
S'3'
sS'GfM'
p4541
S'0'
sS'Draw'
p4542
S'0'
sS'Mat'
p4543
S'5'
sS'Conv'
p4544
S'0'
sS'Tries'
p4545
S'0'
sS'Pts'
p4546
S'0'
sa(dp4547
S'Pens'
p4548
S'0'
sS'Sub'
p4549
S'0'
sS'Lost'
p4550
S'1'
sS'Drop'
p4551
S'0'
sS'Start'
p4552
S'3'
sS'Won'
p4553
S'1'
sS'GfM'
p4554
S'0'
sS'Draw'
p4555
S'1'
sS'Mat'
p4556
S'3'
sS'Conv'
p4557
S'0'
sS'Tries'
p4558
S'0'
sS'Pts'
p4559
S'0'
sa(dp4560
S'Pens'
p4561
S'0'
sS'Sub'
p4562
S'0'
sS'Lost'
p4563
S'1'
sS'Drop'
p4564
S'0'
sS'Start'
p4565
S'4'
sS'Won'
p4566
S'3'
sS'GfM'
p4567
S'0'
sS'Draw'
p4568
S'0'
sS'Mat'
p4569
S'4'
sS'Conv'
p4570
S'0'
sS'Tries'
p4571
S'1'
sS'Pts'
p4572
S'3'
sa(dp4573
S'Pens'
p4574
S'0'
sS'Sub'
p4575
S'0'
sS'Lost'
p4576
S'2'
sS'Drop'
p4577
S'0'
sS'Start'
p4578
S'4'
sS'Won'
p4579
S'1'
sS'GfM'
p4580
S'0'
sS'Draw'
p4581
S'1'
sS'Mat'
p4582
S'4'
sS'Conv'
p4583
S'0'
sS'Tries'
p4584
S'0'
sS'Pts'
p4585
S'0'
sa(dp4586
S'Pens'
p4587
S'0'
sS'Sub'
p4588
S'0'
sS'Lost'
p4589
S'3'
sS'Drop'
p4590
S'0'
sS'Start'
p4591
S'4'
sS'Won'
p4592
S'1'
sS'GfM'
p4593
S'0'
sS'Draw'
p4594
S'0'
sS'Mat'
p4595
S'4'
sS'Conv'
p4596
S'0'
sS'Tries'
p4597
S'0'
sS'Pts'
p4598
S'0'
sa(dp4599
S'Pens'
p4600
S'1'
sS'Sub'
p4601
S'0'
sS'Lost'
p4602
S'4'
sS'Drop'
p4603
S'0'
sS'Start'
p4604
S'7'
sS'Won'
p4605
S'2'
sS'GfM'
p4606
S'0'
sS'Draw'
p4607
S'1'
sS'Mat'
p4608
S'7'
sS'Conv'
p4609
S'2'
sS'Tries'
p4610
S'0'
sS'Pts'
p4611
S'7'
sa(dp4612
S'Pens'
p4613
S'0'
sS'Sub'
p4614
S'0'
sS'Lost'
p4615
S'0'
sS'Drop'
p4616
S'0'
sS'Start'
p4617
S'2'
sS'Won'
p4618
S'1'
sS'GfM'
p4619
S'0'
sS'Draw'
p4620
S'1'
sS'Mat'
p4621
S'2'
sS'Conv'
p4622
S'0'
sS'Tries'
p4623
S'0'
sS'Pts'
p4624
S'0'
sa(dp4625
S'Pens'
p4626
S'0'
sS'Sub'
p4627
S'0'
sS'Lost'
p4628
S'1'
sS'Drop'
p4629
S'0'
sS'Start'
p4630
S'6'
sS'Won'
p4631
S'4'
sS'GfM'
p4632
S'0'
sS'Draw'
p4633
S'1'
sS'Mat'
p4634
S'6'
sS'Conv'
p4635
S'0'
sS'Tries'
p4636
S'1'
sS'Pts'
p4637
S'3'
sa(dp4638
S'Pens'
p4639
S'0'
sS'Sub'
p4640
S'0'
sS'Lost'
p4641
S'1'
sS'Drop'
p4642
S'0'
sS'Start'
p4643
S'2'
sS'Won'
p4644
S'0'
sS'GfM'
p4645
S'0'
sS'Draw'
p4646
S'1'
sS'Mat'
p4647
S'2'
sS'Conv'
p4648
S'0'
sS'Tries'
p4649
S'0'
sS'Pts'
p4650
S'0'
sa(dp4651
S'Pens'
p4652
S'0'
sS'Sub'
p4653
S'0'
sS'Lost'
p4654
S'3'
sS'Drop'
p4655
S'0'
sS'Start'
p4656
S'4'
sS'Won'
p4657
S'0'
sS'GfM'
p4658
S'0'
sS'Draw'
p4659
S'1'
sS'Mat'
p4660
S'4'
sS'Conv'
p4661
S'0'
sS'Tries'
p4662
S'2'
sS'Pts'
p4663
S'6'
sa(dp4664
S'Pens'
p4665
S'0'
sS'Sub'
p4666
S'0'
sS'Lost'
p4667
S'4'
sS'Drop'
p4668
S'0'
sS'Start'
p4669
S'4'
sS'Won'
p4670
S'0'
sS'GfM'
p4671
S'0'
sS'Draw'
p4672
S'0'
sS'Mat'
p4673
S'4'
sS'Conv'
p4674
S'0'
sS'Tries'
p4675
S'0'
sS'Pts'
p4676
S'0'
sa(dp4677
S'Pens'
p4678
S'0'
sS'Sub'
p4679
S'0'
sS'Lost'
p4680
S'1'
sS'Drop'
p4681
S'0'
sS'Start'
p4682
S'1'
sS'Won'
p4683
S'0'
sS'GfM'
p4684
S'0'
sS'Draw'
p4685
S'0'
sS'Mat'
p4686
S'1'
sS'Conv'
p4687
S'0'
sS'Tries'
p4688
S'0'
sS'Pts'
p4689
S'0'
sa(dp4690
S'Pens'
p4691
S'0'
sS'Sub'
p4692
S'0'
sS'Lost'
p4693
S'1'
sS'Drop'
p4694
S'0'
sS'Start'
p4695
S'1'
sS'Won'
p4696
S'0'
sS'GfM'
p4697
S'0'
sS'Draw'
p4698
S'0'
sS'Mat'
p4699
S'1'
sS'Conv'
p4700
S'0'
sS'Tries'
p4701
S'0'
sS'Pts'
p4702
S'0'
sa(dp4703
S'Pens'
p4704
S'0'
sS'Sub'
p4705
S'0'
sS'Lost'
p4706
S'3'
sS'Drop'
p4707
S'0'
sS'Start'
p4708
S'3'
sS'Won'
p4709
S'0'
sS'GfM'
p4710
S'0'
sS'Draw'
p4711
S'0'
sS'Mat'
p4712
S'3'
sS'Conv'
p4713
S'0'
sS'Tries'
p4714
S'0'
sS'Pts'
p4715
S'0'
sa(dp4716
S'Pens'
p4717
S'0'
sS'Sub'
p4718
S'0'
sS'Lost'
p4719
S'6'
sS'Drop'
p4720
S'0'
sS'Start'
p4721
S'6'
sS'Won'
p4722
S'0'
sS'GfM'
p4723
S'0'
sS'Draw'
p4724
S'0'
sS'Mat'
p4725
S'6'
sS'Conv'
p4726
S'0'
sS'Tries'
p4727
S'0'
sS'Pts'
p4728
S'0'
sa(dp4729
S'Pens'
p4730
S'0'
sS'Sub'
p4731
S'0'
sS'Lost'
p4732
S'2'
sS'Drop'
p4733
S'0'
sS'Start'
p4734
S'2'
sS'Won'
p4735
S'0'
sS'GfM'
p4736
S'0'
sS'Draw'
p4737
S'0'
sS'Mat'
p4738
S'2'
sS'Conv'
p4739
S'0'
sS'Tries'
p4740
S'0'
sS'Pts'
p4741
S'0'
sa(dp4742
S'Pens'
p4743
S'0'
sS'Sub'
p4744
S'0'
sS'Lost'
p4745
S'1'
sS'Drop'
p4746
S'0'
sS'Start'
p4747
S'1'
sS'Won'
p4748
S'0'
sS'GfM'
p4749
S'0'
sS'Draw'
p4750
S'0'
sS'Mat'
p4751
S'1'
sS'Conv'
p4752
S'0'
sS'Tries'
p4753
S'0'
sS'Pts'
p4754
S'0'
sa(dp4755
S'Pens'
p4756
S'0'
sS'Sub'
p4757
S'0'
sS'Lost'
p4758
S'2'
sS'Drop'
p4759
S'0'
sS'Start'
p4760
S'4'
sS'Won'
p4761
S'1'
sS'GfM'
p4762
S'0'
sS'Draw'
p4763
S'1'
sS'Mat'
p4764
S'4'
sS'Conv'
p4765
S'2'
sS'Tries'
p4766
S'3'
sS'Pts'
p4767
S'13'
p4768
sa(dp4769
S'Pens'
p4770
S'0'
sS'Sub'
p4771
S'0'
sS'Lost'
p4772
S'2'
sS'Drop'
p4773
S'0'
sS'Start'
p4774
S'4'
sS'Won'
p4775
S'2'
sS'GfM'
p4776
S'0'
sS'Draw'
p4777
S'0'
sS'Mat'
p4778
S'4'
sS'Conv'
p4779
S'0'
sS'Tries'
p4780
S'0'
sS'Pts'
p4781
S'0'
sa(dp4782
S'Pens'
p4783
S'0'
sS'Sub'
p4784
S'0'
sS'Lost'
p4785
S'2'
sS'Drop'
p4786
S'0'
sS'Start'
p4787
S'2'
sS'Won'
p4788
S'0'
sS'GfM'
p4789
S'0'
sS'Draw'
p4790
S'0'
sS'Mat'
p4791
S'2'
sS'Conv'
p4792
S'0'
sS'Tries'
p4793
S'0'
sS'Pts'
p4794
S'0'
sa(dp4795
S'Pens'
p4796
S'0'
sS'Sub'
p4797
S'0'
sS'Lost'
p4798
S'3'
sS'Drop'
p4799
S'0'
sS'Start'
p4800
S'3'
sS'Won'
p4801
S'0'
sS'GfM'
p4802
S'0'
sS'Draw'
p4803
S'0'
sS'Mat'
p4804
S'3'
sS'Conv'
p4805
S'0'
sS'Tries'
p4806
S'0'
sS'Pts'
p4807
S'0'
sa(dp4808
S'Pens'
p4809
S'0'
sS'Sub'
p4810
S'0'
sS'Lost'
p4811
S'1'
sS'Drop'
p4812
S'0'
sS'Start'
p4813
S'1'
sS'Won'
p4814
S'0'
sS'GfM'
p4815
S'0'
sS'Draw'
p4816
S'0'
sS'Mat'
p4817
S'1'
sS'Conv'
p4818
S'0'
sS'Tries'
p4819
S'0'
sS'Pts'
p4820
S'0'
sa(dp4821
S'Pens'
p4822
S'0'
sS'Sub'
p4823
S'0'
sS'Lost'
p4824
S'1'
sS'Drop'
p4825
S'0'
sS'Start'
p4826
S'1'
sS'Won'
p4827
S'0'
sS'GfM'
p4828
S'0'
sS'Draw'
p4829
S'0'
sS'Mat'
p4830
S'1'
sS'Conv'
p4831
S'0'
sS'Tries'
p4832
S'0'
sS'Pts'
p4833
S'0'
sa(dp4834
S'Pens'
p4835
S'0'
sS'Sub'
p4836
S'0'
sS'Lost'
p4837
S'1'
sS'Drop'
p4838
S'0'
sS'Start'
p4839
S'2'
sS'Won'
p4840
S'1'
sS'GfM'
p4841
S'0'
sS'Draw'
p4842
S'0'
sS'Mat'
p4843
S'2'
sS'Conv'
p4844
S'0'
sS'Tries'
p4845
S'0'
sS'Pts'
p4846
S'0'
sa(dp4847
S'Pens'
p4848
S'0'
sS'Sub'
p4849
S'0'
sS'Lost'
p4850
S'3'
sS'Drop'
p4851
S'0'
sS'Start'
p4852
S'3'
sS'Won'
p4853
S'0'
sS'GfM'
p4854
S'0'
sS'Draw'
p4855
S'0'
sS'Mat'
p4856
S'3'
sS'Conv'
p4857
S'0'
sS'Tries'
p4858
S'0'
sS'Pts'
p4859
S'0'
sa(dp4860
S'Pens'
p4861
S'0'
sS'Sub'
p4862
S'0'
sS'Lost'
p4863
S'4'
sS'Drop'
p4864
S'0'
sS'Start'
p4865
S'6'
sS'Won'
p4866
S'2'
sS'GfM'
p4867
S'0'
sS'Draw'
p4868
S'0'
sS'Mat'
p4869
S'6'
sS'Conv'
p4870
S'0'
sS'Tries'
p4871
S'0'
sS'Pts'
p4872
S'0'
sa(dp4873
S'Pens'
p4874
S'0'
sS'Sub'
p4875
S'0'
sS'Lost'
p4876
S'1'
sS'Drop'
p4877
S'0'
sS'Start'
p4878
S'1'
sS'Won'
p4879
S'0'
sS'GfM'
p4880
S'0'
sS'Draw'
p4881
S'0'
sS'Mat'
p4882
S'1'
sS'Conv'
p4883
S'0'
sS'Tries'
p4884
S'0'
sS'Pts'
p4885
S'0'
sa(dp4886
S'Pens'
p4887
S'0'
sS'Sub'
p4888
S'0'
sS'Lost'
p4889
S'5'
sS'Drop'
p4890
S'0'
sS'Start'
p4891
S'10'
p4892
sS'Won'
p4893
S'5'
sS'GfM'
p4894
S'0'
sS'Draw'
p4895
S'0'
sS'Mat'
p4896
S'10'
p4897
sS'Conv'
p4898
S'0'
sS'Tries'
p4899
S'3'
sS'Pts'
p4900
S'9'
sa(dp4901
S'Pens'
p4902
S'0'
sS'Sub'
p4903
S'0'
sS'Lost'
p4904
S'3'
sS'Drop'
p4905
S'0'
sS'Start'
p4906
S'5'
sS'Won'
p4907
S'2'
sS'GfM'
p4908
S'0'
sS'Draw'
p4909
S'0'
sS'Mat'
p4910
S'5'
sS'Conv'
p4911
S'0'
sS'Tries'
p4912
S'0'
sS'Pts'
p4913
S'0'
sa(dp4914
S'Pens'
p4915
S'0'
sS'Sub'
p4916
S'0'
sS'Lost'
p4917
S'1'
sS'Drop'
p4918
S'0'
sS'Start'
p4919
S'1'
sS'Won'
p4920
S'0'
sS'GfM'
p4921
S'0'
sS'Draw'
p4922
S'0'
sS'Mat'
p4923
S'1'
sS'Conv'
p4924
S'0'
sS'Tries'
p4925
S'0'
sS'Pts'
p4926
S'0'
sa(dp4927
S'Pens'
p4928
S'0'
sS'Sub'
p4929
S'0'
sS'Lost'
p4930
S'1'
sS'Drop'
p4931
S'0'
sS'Start'
p4932
S'1'
sS'Won'
p4933
S'0'
sS'GfM'
p4934
S'0'
sS'Draw'
p4935
S'0'
sS'Mat'
p4936
S'1'
sS'Conv'
p4937
S'0'
sS'Tries'
p4938
S'0'
sS'Pts'
p4939
S'0'
sa(dp4940
S'Pens'
p4941
S'0'
sS'Sub'
p4942
S'0'
sS'Lost'
p4943
S'5'
sS'Drop'
p4944
S'0'
sS'Start'
p4945
S'9'
sS'Won'
p4946
S'4'
sS'GfM'
p4947
S'0'
sS'Draw'
p4948
S'0'
sS'Mat'
p4949
S'9'
sS'Conv'
p4950
S'0'
sS'Tries'
p4951
S'1'
sS'Pts'
p4952
S'3'
sa(dp4953
S'Pens'
p4954
S'0'
sS'Sub'
p4955
S'0'
sS'Lost'
p4956
S'1'
sS'Drop'
p4957
S'0'
sS'Start'
p4958
S'3'
sS'Won'
p4959
S'2'
sS'GfM'
p4960
S'0'
sS'Draw'
p4961
S'0'
sS'Mat'
p4962
S'3'
sS'Conv'
p4963
S'0'
sS'Tries'
p4964
S'0'
sS'Pts'
p4965
S'0'
sa(dp4966
S'Pens'
p4967
S'0'
sS'Sub'
p4968
S'0'
sS'Lost'
p4969
S'1'
sS'Drop'
p4970
S'0'
sS'Start'
p4971
S'1'
sS'Won'
p4972
S'0'
sS'GfM'
p4973
S'0'
sS'Draw'
p4974
S'0'
sS'Mat'
p4975
S'1'
sS'Conv'
p4976
S'0'
sS'Tries'
p4977
S'0'
sS'Pts'
p4978
S'0'
sa(dp4979
S'Pens'
p4980
S'0'
sS'Sub'
p4981
S'0'
sS'Lost'
p4982
S'5'
sS'Drop'
p4983
S'0'
sS'Start'
p4984
S'7'
sS'Won'
p4985
S'2'
sS'GfM'
p4986
S'0'
sS'Draw'
p4987
S'0'
sS'Mat'
p4988
S'7'
sS'Conv'
p4989
S'0'
sS'Tries'
p4990
S'2'
sS'Pts'
p4991
S'6'
sa(dp4992
S'Pens'
p4993
S'0'
sS'Sub'
p4994
S'0'
sS'Lost'
p4995
S'4'
sS'Drop'
p4996
S'0'
sS'Start'
p4997
S'8'
sS'Won'
p4998
S'3'
sS'GfM'
p4999
S'0'
sS'Draw'
p5000
S'1'
sS'Mat'
p5001
S'8'
sS'Conv'
p5002
S'0'
sS'Tries'
p5003
S'0'
sS'Pts'
p5004
S'0'
sa(dp5005
S'Pens'
p5006
S'0'
sS'Sub'
p5007
S'0'
sS'Lost'
p5008
S'6'
sS'Drop'
p5009
S'0'
sS'Start'
p5010
S'11'
p5011
sS'Won'
p5012
S'4'
sS'GfM'
p5013
S'0'
sS'Draw'
p5014
S'1'
sS'Mat'
p5015
S'11'
p5016
sS'Conv'
p5017
S'0'
sS'Tries'
p5018
S'3'
sS'Pts'
p5019
S'9'
sa(dp5020
S'Pens'
p5021
S'0'
sS'Sub'
p5022
S'0'
sS'Lost'
p5023
S'1'
sS'Drop'
p5024
S'0'
sS'Start'
p5025
S'1'
sS'Won'
p5026
S'0'
sS'GfM'
p5027
S'0'
sS'Draw'
p5028
S'0'
sS'Mat'
p5029
S'1'
sS'Conv'
p5030
S'0'
sS'Tries'
p5031
S'0'
sS'Pts'
p5032
S'0'
sa(dp5033
S'Pens'
p5034
S'0'
sS'Sub'
p5035
S'0'
sS'Lost'
p5036
S'10'
p5037
sS'Drop'
p5038
S'0'
sS'Start'
p5039
S'14'
p5040
sS'Won'
p5041
S'2'
sS'GfM'
p5042
S'0'
sS'Draw'
p5043
S'2'
sS'Mat'
p5044
S'14'
p5045
sS'Conv'
p5046
S'4'
sS'Tries'
p5047
S'0'
sS'Pts'
p5048
S'8'
sa(dp5049
S'Pens'
p5050
S'0'
sS'Sub'
p5051
S'0'
sS'Lost'
p5052
S'1'
sS'Drop'
p5053
S'0'
sS'Start'
p5054
S'1'
sS'Won'
p5055
S'0'
sS'GfM'
p5056
S'0'
sS'Draw'
p5057
S'0'
sS'Mat'
p5058
S'1'
sS'Conv'
p5059
S'0'
sS'Tries'
p5060
S'0'
sS'Pts'
p5061
S'0'
sa(dp5062
S'Pens'
p5063
S'0'
sS'Sub'
p5064
S'0'
sS'Lost'
p5065
S'4'
sS'Drop'
p5066
S'0'
sS'Start'
p5067
S'5'
sS'Won'
p5068
S'1'
sS'GfM'
p5069
S'0'
sS'Draw'
p5070
S'0'
sS'Mat'
p5071
S'5'
sS'Conv'
p5072
S'0'
sS'Tries'
p5073
S'0'
sS'Pts'
p5074
S'0'
sa(dp5075
S'Pens'
p5076
S'0'
sS'Sub'
p5077
S'0'
sS'Lost'
p5078
S'1'
sS'Drop'
p5079
S'0'
sS'Start'
p5080
S'1'
sS'Won'
p5081
S'0'
sS'GfM'
p5082
S'0'
sS'Draw'
p5083
S'0'
sS'Mat'
p5084
S'1'
sS'Conv'
p5085
S'0'
sS'Tries'
p5086
S'0'
sS'Pts'
p5087
S'0'
sa(dp5088
S'Pens'
p5089
S'0'
sS'Sub'
p5090
S'0'
sS'Lost'
p5091
S'1'
sS'Drop'
p5092
S'0'
sS'Start'
p5093
S'1'
sS'Won'
p5094
S'0'
sS'GfM'
p5095
S'0'
sS'Draw'
p5096
S'0'
sS'Mat'
p5097
S'1'
sS'Conv'
p5098
S'0'
sS'Tries'
p5099
S'0'
sS'Pts'
p5100
S'0'
sa(dp5101
S'Pens'
p5102
S'0'
sS'Sub'
p5103
S'0'
sS'Lost'
p5104
S'1'
sS'Drop'
p5105
S'0'
sS'Start'
p5106
S'1'
sS'Won'
p5107
S'0'
sS'GfM'
p5108
S'0'
sS'Draw'
p5109
S'0'
sS'Mat'
p5110
S'1'
sS'Conv'
p5111
S'0'
sS'Tries'
p5112
S'0'
sS'Pts'
p5113
S'0'
sa(dp5114
S'Pens'
p5115
S'0'
sS'Sub'
p5116
S'0'
sS'Lost'
p5117
S'5'
sS'Drop'
p5118
S'0'
sS'Start'
p5119
S'9'
sS'Won'
p5120
S'2'
sS'GfM'
p5121
S'0'
sS'Draw'
p5122
S'2'
sS'Mat'
p5123
S'9'
sS'Conv'
p5124
S'5'
sS'Tries'
p5125
S'0'
sS'Pts'
p5126
S'10'
p5127
sa(dp5128
S'Pens'
p5129
S'0'
sS'Sub'
p5130
S'0'
sS'Lost'
p5131
S'1'
sS'Drop'
p5132
S'0'
sS'Start'
p5133
S'1'
sS'Won'
p5134
S'0'
sS'GfM'
p5135
S'0'
sS'Draw'
p5136
S'0'
sS'Mat'
p5137
S'1'
sS'Conv'
p5138
S'0'
sS'Tries'
p5139
S'0'
sS'Pts'
p5140
S'0'
sa(dp5141
S'Pens'
p5142
S'0'
sS'Sub'
p5143
S'0'
sS'Lost'
p5144
S'5'
sS'Drop'
p5145
S'0'
sS'Start'
p5146
S'7'
sS'Won'
p5147
S'1'
sS'GfM'
p5148
S'0'
sS'Draw'
p5149
S'1'
sS'Mat'
p5150
S'7'
sS'Conv'
p5151
S'0'
sS'Tries'
p5152
S'0'
sS'Pts'
p5153
S'0'
sa(dp5154
S'Pens'
p5155
S'0'
sS'Sub'
p5156
S'0'
sS'Lost'
p5157
S'2'
sS'Drop'
p5158
S'0'
sS'Start'
p5159
S'4'
sS'Won'
p5160
S'1'
sS'GfM'
p5161
S'0'
sS'Draw'
p5162
S'1'
sS'Mat'
p5163
S'4'
sS'Conv'
p5164
S'0'
sS'Tries'
p5165
S'0'
sS'Pts'
p5166
S'0'
sa(dp5167
S'Pens'
p5168
S'0'
sS'Sub'
p5169
S'0'
sS'Lost'
p5170
S'2'
sS'Drop'
p5171
S'0'
sS'Start'
p5172
S'6'
sS'Won'
p5173
S'1'
sS'GfM'
p5174
S'0'
sS'Draw'
p5175
S'3'
sS'Mat'
p5176
S'6'
sS'Conv'
p5177
S'0'
sS'Tries'
p5178
S'0'
sS'Pts'
p5179
S'0'
sa(dp5180
S'Pens'
p5181
S'0'
sS'Sub'
p5182
S'0'
sS'Lost'
p5183
S'1'
sS'Drop'
p5184
S'0'
sS'Start'
p5185
S'3'
sS'Won'
p5186
S'1'
sS'GfM'
p5187
S'0'
sS'Draw'
p5188
S'1'
sS'Mat'
p5189
S'3'
sS'Conv'
p5190
S'0'
sS'Tries'
p5191
S'0'
sS'Pts'
p5192
S'0'
sa(dp5193
S'Pens'
p5194
S'0'
sS'Sub'
p5195
S'0'
sS'Lost'
p5196
S'3'
sS'Drop'
p5197
S'0'
sS'Start'
p5198
S'5'
sS'Won'
p5199
S'1'
sS'GfM'
p5200
S'0'
sS'Draw'
p5201
S'1'
sS'Mat'
p5202
S'5'
sS'Conv'
p5203
S'0'
sS'Tries'
p5204
S'0'
sS'Pts'
p5205
S'0'
sa(dp5206
S'Pens'
p5207
S'0'
sS'Sub'
p5208
S'0'
sS'Lost'
p5209
S'1'
sS'Drop'
p5210
S'0'
sS'Start'
p5211
S'3'
sS'Won'
p5212
S'1'
sS'GfM'
p5213
S'0'
sS'Draw'
p5214
S'1'
sS'Mat'
p5215
S'3'
sS'Conv'
p5216
S'0'
sS'Tries'
p5217
S'2'
sS'Pts'
p5218
S'6'
sa(dp5219
S'Pens'
p5220
S'0'
sS'Sub'
p5221
S'0'
sS'Lost'
p5222
S'4'
sS'Drop'
p5223
S'0'
sS'Start'
p5224
S'6'
sS'Won'
p5225
S'1'
sS'GfM'
p5226
S'0'
sS'Draw'
p5227
S'1'
sS'Mat'
p5228
S'6'
sS'Conv'
p5229
S'0'
sS'Tries'
p5230
S'0'
sS'Pts'
p5231
S'0'
sa(dp5232
S'Pens'
p5233
S'0'
sS'Sub'
p5234
S'0'
sS'Lost'
p5235
S'2'
sS'Drop'
p5236
S'0'
sS'Start'
p5237
S'4'
sS'Won'
p5238
S'0'
sS'GfM'
p5239
S'0'
sS'Draw'
p5240
S'2'
sS'Mat'
p5241
S'4'
sS'Conv'
p5242
S'0'
sS'Tries'
p5243
S'1'
sS'Pts'
p5244
S'3'
sa(dp5245
S'Pens'
p5246
S'0'
sS'Sub'
p5247
S'0'
sS'Lost'
p5248
S'3'
sS'Drop'
p5249
S'0'
sS'Start'
p5250
S'5'
sS'Won'
p5251
S'0'
sS'GfM'
p5252
S'0'
sS'Draw'
p5253
S'2'
sS'Mat'
p5254
S'5'
sS'Conv'
p5255
S'0'
sS'Tries'
p5256
S'0'
sS'Pts'
p5257
S'0'
sa(dp5258
S'Pens'
p5259
S'0'
sS'Sub'
p5260
S'0'
sS'Lost'
p5261
S'1'
sS'Drop'
p5262
S'0'
sS'Start'
p5263
S'1'
sS'Won'
p5264
S'0'
sS'GfM'
p5265
S'0'
sS'Draw'
p5266
S'0'
sS'Mat'
p5267
S'1'
sS'Conv'
p5268
S'0'
sS'Tries'
p5269
S'0'
sS'Pts'
p5270
S'0'
sa(dp5271
S'Pens'
p5272
S'0'
sS'Sub'
p5273
S'0'
sS'Lost'
p5274
S'4'
sS'Drop'
p5275
S'0'
sS'Start'
p5276
S'4'
sS'Won'
p5277
S'0'
sS'GfM'
p5278
S'0'
sS'Draw'
p5279
S'0'
sS'Mat'
p5280
S'4'
sS'Conv'
p5281
S'0'
sS'Tries'
p5282
S'0'
sS'Pts'
p5283
S'0'
sa(dp5284
S'Pens'
p5285
S'0'
sS'Sub'
p5286
S'0'
sS'Lost'
p5287
S'1'
sS'Drop'
p5288
S'0'
sS'Start'
p5289
S'1'
sS'Won'
p5290
S'0'
sS'GfM'
p5291
S'0'
sS'Draw'
p5292
S'0'
sS'Mat'
p5293
S'1'
sS'Conv'
p5294
S'0'
sS'Tries'
p5295
S'0'
sS'Pts'
p5296
S'0'
sa(dp5297
S'Pens'
p5298
S'0'
sS'Sub'
p5299
S'0'
sS'Lost'
p5300
S'2'
sS'Drop'
p5301
S'0'
sS'Start'
p5302
S'2'
sS'Won'
p5303
S'0'
sS'GfM'
p5304
S'0'
sS'Draw'
p5305
S'0'
sS'Mat'
p5306
S'2'
sS'Conv'
p5307
S'0'
sS'Tries'
p5308
S'0'
sS'Pts'
p5309
S'0'
sa(dp5310
S'Pens'
p5311
S'0'
sS'Sub'
p5312
S'0'
sS'Lost'
p5313
S'4'
sS'Drop'
p5314
S'0'
sS'Start'
p5315
S'8'
sS'Won'
p5316
S'3'
sS'GfM'
p5317
S'0'
sS'Draw'
p5318
S'1'
sS'Mat'
p5319
S'8'
sS'Conv'
p5320
S'0'
sS'Tries'
p5321
S'0'
sS'Pts'
p5322
S'0'
sa(dp5323
S'Pens'
p5324
S'0'
sS'Sub'
p5325
S'0'
sS'Lost'
p5326
S'1'
sS'Drop'
p5327
S'0'
sS'Start'
p5328
S'1'
sS'Won'
p5329
S'0'
sS'GfM'
p5330
S'0'
sS'Draw'
p5331
S'0'
sS'Mat'
p5332
S'1'
sS'Conv'
p5333
S'0'
sS'Tries'
p5334
S'0'
sS'Pts'
p5335
S'0'
sa(dp5336
S'Pens'
p5337
S'0'
sS'Sub'
p5338
S'0'
sS'Lost'
p5339
S'6'
sS'Drop'
p5340
S'0'
sS'Start'
p5341
S'10'
p5342
sS'Won'
p5343
S'3'
sS'GfM'
p5344
S'0'
sS'Draw'
p5345
S'1'
sS'Mat'
p5346
S'10'
p5347
sS'Conv'
p5348
S'0'
sS'Tries'
p5349
S'1'
sS'Pts'
p5350
S'3'
sa(dp5351
S'Pens'
p5352
S'0'
sS'Sub'
p5353
S'0'
sS'Lost'
p5354
S'1'
sS'Drop'
p5355
S'0'
sS'Start'
p5356
S'2'
sS'Won'
p5357
S'1'
sS'GfM'
p5358
S'0'
sS'Draw'
p5359
S'0'
sS'Mat'
p5360
S'2'
sS'Conv'
p5361
S'0'
sS'Tries'
p5362
S'0'
sS'Pts'
p5363
S'0'
sa(dp5364
S'Pens'
p5365
S'0'
sS'Sub'
p5366
S'0'
sS'Lost'
p5367
S'1'
sS'Drop'
p5368
S'0'
sS'Start'
p5369
S'1'
sS'Won'
p5370
S'0'
sS'GfM'
p5371
S'0'
sS'Draw'
p5372
S'0'
sS'Mat'
p5373
S'1'
sS'Conv'
p5374
S'0'
sS'Tries'
p5375
S'0'
sS'Pts'
p5376
S'0'
sa(dp5377
S'Pens'
p5378
S'0'
sS'Sub'
p5379
S'0'
sS'Lost'
p5380
S'5'
sS'Drop'
p5381
S'0'
sS'Start'
p5382
S'8'
sS'Won'
p5383
S'3'
sS'GfM'
p5384
S'0'
sS'Draw'
p5385
S'0'
sS'Mat'
p5386
S'8'
sS'Conv'
p5387
S'0'
sS'Tries'
p5388
S'0'
sS'Pts'
p5389
S'0'
sa(dp5390
S'Pens'
p5391
S'0'
sS'Sub'
p5392
S'0'
sS'Lost'
p5393
S'1'
sS'Drop'
p5394
S'0'
sS'Start'
p5395
S'1'
sS'Won'
p5396
S'0'
sS'GfM'
p5397
S'0'
sS'Draw'
p5398
S'0'
sS'Mat'
p5399
S'1'
sS'Conv'
p5400
S'0'
sS'Tries'
p5401
S'0'
sS'Pts'
p5402
S'0'
sa(dp5403
S'Pens'
p5404
S'0'
sS'Sub'
p5405
S'0'
sS'Lost'
p5406
S'5'
sS'Drop'
p5407
S'0'
sS'Start'
p5408
S'15'
p5409
sS'Won'
p5410
S'8'
sS'GfM'
p5411
S'0'
sS'Draw'
p5412
S'2'
sS'Mat'
p5413
S'15'
p5414
sS'Conv'
p5415
S'0'
sS'Tries'
p5416
S'2'
sS'Pts'
p5417
S'6'
sa(dp5418
S'Pens'
p5419
S'0'
sS'Sub'
p5420
S'0'
sS'Lost'
p5421
S'1'
sS'Drop'
p5422
S'0'
sS'Start'
p5423
S'1'
sS'Won'
p5424
S'0'
sS'GfM'
p5425
S'0'
sS'Draw'
p5426
S'0'
sS'Mat'
p5427
S'1'
sS'Conv'
p5428
S'0'
sS'Tries'
p5429
S'0'
sS'Pts'
p5430
S'0'
sa(dp5431
S'Pens'
p5432
S'0'
sS'Sub'
p5433
S'0'
sS'Lost'
p5434
S'3'
sS'Drop'
p5435
S'0'
sS'Start'
p5436
S'5'
sS'Won'
p5437
S'1'
sS'GfM'
p5438
S'0'
sS'Draw'
p5439
S'1'
sS'Mat'
p5440
S'5'
sS'Conv'
p5441
S'0'
sS'Tries'
p5442
S'0'
sS'Pts'
p5443
S'0'
sa(dp5444
S'Pens'
p5445
S'0'
sS'Sub'
p5446
S'0'
sS'Lost'
p5447
S'1'
sS'Drop'
p5448
S'0'
sS'Start'
p5449
S'1'
sS'Won'
p5450
S'0'
sS'GfM'
p5451
S'0'
sS'Draw'
p5452
S'0'
sS'Mat'
p5453
S'1'
sS'Conv'
p5454
S'0'
sS'Tries'
p5455
S'0'
sS'Pts'
p5456
S'0'
sa(dp5457
S'Pens'
p5458
S'0'
sS'Sub'
p5459
S'0'
sS'Lost'
p5460
S'2'
sS'Drop'
p5461
S'0'
sS'Start'
p5462
S'2'
sS'Won'
p5463
S'0'
sS'GfM'
p5464
S'0'
sS'Draw'
p5465
S'0'
sS'Mat'
p5466
S'2'
sS'Conv'
p5467
S'0'
sS'Tries'
p5468
S'0'
sS'Pts'
p5469
S'0'
sa(dp5470
S'Pens'
p5471
S'0'
sS'Sub'
p5472
S'0'
sS'Lost'
p5473
S'2'
sS'Drop'
p5474
S'0'
sS'Start'
p5475
S'2'
sS'Won'
p5476
S'0'
sS'GfM'
p5477
S'0'
sS'Draw'
p5478
S'0'
sS'Mat'
p5479
S'2'
sS'Conv'
p5480
S'0'
sS'Tries'
p5481
S'1'
sS'Pts'
p5482
S'3'
sa(dp5483
S'Pens'
p5484
S'0'
sS'Sub'
p5485
S'0'
sS'Lost'
p5486
S'10'
p5487
sS'Drop'
p5488
S'0'
sS'Start'
p5489
S'16'
p5490
sS'Won'
p5491
S'4'
sS'GfM'
p5492
S'0'
sS'Draw'
p5493
S'2'
sS'Mat'
p5494
S'16'
p5495
sS'Conv'
p5496
S'2'
sS'Tries'
p5497
S'0'
sS'Pts'
p5498
S'4'
sa(dp5499
S'Pens'
p5500
S'0'
sS'Sub'
p5501
S'0'
sS'Lost'
p5502
S'1'
sS'Drop'
p5503
S'0'
sS'Start'
p5504
S'1'
sS'Won'
p5505
S'0'
sS'GfM'
p5506
S'0'
sS'Draw'
p5507
S'0'
sS'Mat'
p5508
S'1'
sS'Conv'
p5509
S'0'
sS'Tries'
p5510
S'0'
sS'Pts'
p5511
S'0'
sa(dp5512
S'Pens'
p5513
S'0'
sS'Sub'
p5514
S'0'
sS'Lost'
p5515
S'1'
sS'Drop'
p5516
S'0'
sS'Start'
p5517
S'1'
sS'Won'
p5518
S'0'
sS'GfM'
p5519
S'0'
sS'Draw'
p5520
S'0'
sS'Mat'
p5521
S'1'
sS'Conv'
p5522
S'0'
sS'Tries'
p5523
S'0'
sS'Pts'
p5524
S'0'
sa(dp5525
S'Pens'
p5526
S'0'
sS'Sub'
p5527
S'0'
sS'Lost'
p5528
S'2'
sS'Drop'
p5529
S'0'
sS'Start'
p5530
S'2'
sS'Won'
p5531
S'0'
sS'GfM'
p5532
S'0'
sS'Draw'
p5533
S'0'
sS'Mat'
p5534
S'2'
sS'Conv'
p5535
S'0'
sS'Tries'
p5536
S'0'
sS'Pts'
p5537
S'0'
sa(dp5538
S'Pens'
p5539
S'0'
sS'Sub'
p5540
S'0'
sS'Lost'
p5541
S'2'
sS'Drop'
p5542
S'0'
sS'Start'
p5543
S'2'
sS'Won'
p5544
S'0'
sS'GfM'
p5545
S'0'
sS'Draw'
p5546
S'0'
sS'Mat'
p5547
S'2'
sS'Conv'
p5548
S'0'
sS'Tries'
p5549
S'0'
sS'Pts'
p5550
S'0'
sa(dp5551
S'Pens'
p5552
S'0'
sS'Sub'
p5553
S'0'
sS'Lost'
p5554
S'4'
sS'Drop'
p5555
S'0'
sS'Start'
p5556
S'8'
sS'Won'
p5557
S'4'
sS'GfM'
p5558
S'0'
sS'Draw'
p5559
S'0'
sS'Mat'
p5560
S'8'
sS'Conv'
p5561
S'0'
sS'Tries'
p5562
S'9'
sS'Pts'
p5563
S'27'
p5564
sa(dp5565
S'Pens'
p5566
S'0'
sS'Sub'
p5567
S'0'
sS'Lost'
p5568
S'4'
sS'Drop'
p5569
S'0'
sS'Start'
p5570
S'5'
sS'Won'
p5571
S'0'
sS'GfM'
p5572
S'0'
sS'Draw'
p5573
S'1'
sS'Mat'
p5574
S'5'
sS'Conv'
p5575
S'0'
sS'Tries'
p5576
S'1'
sS'Pts'
p5577
S'3'
sa(dp5578
S'Pens'
p5579
S'0'
sS'Sub'
p5580
S'0'
sS'Lost'
p5581
S'6'
sS'Drop'
p5582
S'0'
sS'Start'
p5583
S'12'
p5584
sS'Won'
p5585
S'5'
sS'GfM'
p5586
S'0'
sS'Draw'
p5587
S'1'
sS'Mat'
p5588
S'12'
p5589
sS'Conv'
p5590
S'0'
sS'Tries'
p5591
S'0'
sS'Pts'
p5592
S'0'
sa(dp5593
S'Pens'
p5594
S'0'
sS'Sub'
p5595
S'0'
sS'Lost'
p5596
S'9'
sS'Drop'
p5597
S'0'
sS'Start'
p5598
S'16'
p5599
sS'Won'
p5600
S'7'
sS'GfM'
p5601
S'0'
sS'Draw'
p5602
S'0'
sS'Mat'
p5603
S'16'
p5604
sS'Conv'
p5605
S'0'
sS'Tries'
p5606
S'2'
sS'Pts'
p5607
S'6'
sa(dp5608
S'Pens'
p5609
S'0'
sS'Sub'
p5610
S'0'
sS'Lost'
p5611
S'6'
sS'Drop'
p5612
S'0'
sS'Start'
p5613
S'11'
p5614
sS'Won'
p5615
S'4'
sS'GfM'
p5616
S'0'
sS'Draw'
p5617
S'1'
sS'Mat'
p5618
S'11'
p5619
sS'Conv'
p5620
S'0'
sS'Tries'
p5621
S'4'
sS'Pts'
p5622
S'12'
p5623
sa(dp5624
S'Pens'
p5625
S'0'
sS'Sub'
p5626
S'0'
sS'Lost'
p5627
S'1'
sS'Drop'
p5628
S'0'
sS'Start'
p5629
S'1'
sS'Won'
p5630
S'0'
sS'GfM'
p5631
S'0'
sS'Draw'
p5632
S'0'
sS'Mat'
p5633
S'1'
sS'Conv'
p5634
S'0'
sS'Tries'
p5635
S'0'
sS'Pts'
p5636
S'0'
sa(dp5637
S'Pens'
p5638
S'0'
sS'Sub'
p5639
S'0'
sS'Lost'
p5640
S'1'
sS'Drop'
p5641
S'0'
sS'Start'
p5642
S'1'
sS'Won'
p5643
S'0'
sS'GfM'
p5644
S'0'
sS'Draw'
p5645
S'0'
sS'Mat'
p5646
S'1'
sS'Conv'
p5647
S'0'
sS'Tries'
p5648
S'0'
sS'Pts'
p5649
S'0'
sa(dp5650
S'Pens'
p5651
S'0'
sS'Sub'
p5652
S'0'
sS'Lost'
p5653
S'1'
sS'Drop'
p5654
S'0'
sS'Start'
p5655
S'1'
sS'Won'
p5656
S'0'
sS'GfM'
p5657
S'0'
sS'Draw'
p5658
S'0'
sS'Mat'
p5659
S'1'
sS'Conv'
p5660
S'0'
sS'Tries'
p5661
S'0'
sS'Pts'
p5662
S'0'
sa(dp5663
S'Pens'
p5664
S'0'
sS'Sub'
p5665
S'0'
sS'Lost'
p5666
S'7'
sS'Drop'
p5667
S'1'
sS'Start'
p5668
S'21'
p5669
sS'Won'
p5670
S'12'
p5671
sS'GfM'
p5672
S'0'
sS'Draw'
p5673
S'2'
sS'Mat'
p5674
S'21'
p5675
sS'Conv'
p5676
S'0'
sS'Tries'
p5677
S'10'
p5678
sS'Pts'
p5679
S'34'
p5680
sa(dp5681
S'Pens'
p5682
S'0'
sS'Sub'
p5683
S'0'
sS'Lost'
p5684
S'9'
sS'Drop'
p5685
S'0'
sS'Start'
p5686
S'22'
p5687
sS'Won'
p5688
S'11'
p5689
sS'GfM'
p5690
S'0'
sS'Draw'
p5691
S'2'
sS'Mat'
p5692
S'22'
p5693
sS'Conv'
p5694
S'0'
sS'Tries'
p5695
S'0'
sS'Pts'
p5696
S'0'
sa(dp5697
S'Pens'
p5698
S'0'
sS'Sub'
p5699
S'0'
sS'Lost'
p5700
S'3'
sS'Drop'
p5701
S'0'
sS'Start'
p5702
S'5'
sS'Won'
p5703
S'2'
sS'GfM'
p5704
S'0'
sS'Draw'
p5705
S'0'
sS'Mat'
p5706
S'5'
sS'Conv'
p5707
S'0'
sS'Tries'
p5708
S'2'
sS'Pts'
p5709
S'6'
sa(dp5710
S'Pens'
p5711
S'0'
sS'Sub'
p5712
S'0'
sS'Lost'
p5713
S'3'
sS'Drop'
p5714
S'0'
sS'Start'
p5715
S'6'
sS'Won'
p5716
S'2'
sS'GfM'
p5717
S'0'
sS'Draw'
p5718
S'1'
sS'Mat'
p5719
S'6'
sS'Conv'
p5720
S'0'
sS'Tries'
p5721
S'0'
sS'Pts'
p5722
S'0'
sa(dp5723
S'Pens'
p5724
S'0'
sS'Sub'
p5725
S'0'
sS'Lost'
p5726
S'0'
sS'Drop'
p5727
S'0'
sS'Start'
p5728
S'1'
sS'Won'
p5729
S'1'
sS'GfM'
p5730
S'0'
sS'Draw'
p5731
S'0'
sS'Mat'
p5732
S'1'
sS'Conv'
p5733
S'0'
sS'Tries'
p5734
S'1'
sS'Pts'
p5735
S'3'
sa(dp5736
S'Pens'
p5737
S'0'
sS'Sub'
p5738
S'0'
sS'Lost'
p5739
S'0'
sS'Drop'
p5740
S'0'
sS'Start'
p5741
S'1'
sS'Won'
p5742
S'0'
sS'GfM'
p5743
S'0'
sS'Draw'
p5744
S'1'
sS'Mat'
p5745
S'1'
sS'Conv'
p5746
S'0'
sS'Tries'
p5747
S'0'
sS'Pts'
p5748
S'0'
sa(dp5749
S'Pens'
p5750
S'0'
sS'Sub'
p5751
S'0'
sS'Lost'
p5752
S'0'
sS'Drop'
p5753
S'0'
sS'Start'
p5754
S'1'
sS'Won'
p5755
S'0'
sS'GfM'
p5756
S'0'
sS'Draw'
p5757
S'1'
sS'Mat'
p5758
S'1'
sS'Conv'
p5759
S'0'
sS'Tries'
p5760
S'1'
sS'Pts'
p5761
S'3'
sa(dp5762
S'Pens'
p5763
S'0'
sS'Sub'
p5764
S'0'
sS'Lost'
p5765
S'0'
sS'Drop'
p5766
S'0'
sS'Start'
p5767
S'1'
sS'Won'
p5768
S'1'
sS'GfM'
p5769
S'0'
sS'Draw'
p5770
S'0'
sS'Mat'
p5771
S'1'
sS'Conv'
p5772
S'0'
sS'Tries'
p5773
S'0'
sS'Pts'
p5774
S'0'
sa(dp5775
S'Pens'
p5776
S'0'
sS'Sub'
p5777
S'0'
sS'Lost'
p5778
S'1'
sS'Drop'
p5779
S'0'
sS'Start'
p5780
S'3'
sS'Won'
p5781
S'2'
sS'GfM'
p5782
S'0'
sS'Draw'
p5783
S'0'
sS'Mat'
p5784
S'3'
sS'Conv'
p5785
S'0'
sS'Tries'
p5786
S'0'
sS'Pts'
p5787
S'0'
sa(dp5788
S'Pens'
p5789
S'2'
sS'Sub'
p5790
S'0'
sS'Lost'
p5791
S'4'
sS'Drop'
p5792
S'0'
sS'Start'
p5793
S'7'
sS'Won'
p5794
S'3'
sS'GfM'
p5795
S'0'
sS'Draw'
p5796
S'0'
sS'Mat'
p5797
S'7'
sS'Conv'
p5798
S'8'
sS'Tries'
p5799
S'8'
sS'Pts'
p5800
S'46'
p5801
sa(dp5802
S'Pens'
p5803
S'0'
sS'Sub'
p5804
S'0'
sS'Lost'
p5805
S'0'
sS'Drop'
p5806
S'0'
sS'Start'
p5807
S'1'
sS'Won'
p5808
S'1'
sS'GfM'
p5809
S'0'
sS'Draw'
p5810
S'0'
sS'Mat'
p5811
S'1'
sS'Conv'
p5812
S'0'
sS'Tries'
p5813
S'0'
sS'Pts'
p5814
S'0'
sa(dp5815
S'Pens'
p5816
S'0'
sS'Sub'
p5817
S'0'
sS'Lost'
p5818
S'1'
sS'Drop'
p5819
S'0'
sS'Start'
p5820
S'2'
sS'Won'
p5821
S'1'
sS'GfM'
p5822
S'0'
sS'Draw'
p5823
S'0'
sS'Mat'
p5824
S'2'
sS'Conv'
p5825
S'0'
sS'Tries'
p5826
S'1'
sS'Pts'
p5827
S'3'
sa(dp5828
S'Pens'
p5829
S'0'
sS'Sub'
p5830
S'0'
sS'Lost'
p5831
S'5'
sS'Drop'
p5832
S'0'
sS'Start'
p5833
S'8'
sS'Won'
p5834
S'3'
sS'GfM'
p5835
S'0'
sS'Draw'
p5836
S'0'
sS'Mat'
p5837
S'8'
sS'Conv'
p5838
S'0'
sS'Tries'
p5839
S'3'
sS'Pts'
p5840
S'9'
sa(dp5841
S'Pens'
p5842
S'0'
sS'Sub'
p5843
S'0'
sS'Lost'
p5844
S'1'
sS'Drop'
p5845
S'0'
sS'Start'
p5846
S'2'
sS'Won'
p5847
S'1'
sS'GfM'
p5848
S'0'
sS'Draw'
p5849
S'0'
sS'Mat'
p5850
S'2'
sS'Conv'
p5851
S'0'
sS'Tries'
p5852
S'0'
sS'Pts'
p5853
S'0'
sa(dp5854
S'Pens'
p5855
S'0'
sS'Sub'
p5856
S'0'
sS'Lost'
p5857
S'1'
sS'Drop'
p5858
S'0'
sS'Start'
p5859
S'1'
sS'Won'
p5860
S'0'
sS'GfM'
p5861
S'0'
sS'Draw'
p5862
S'0'
sS'Mat'
p5863
S'1'
sS'Conv'
p5864
S'0'
sS'Tries'
p5865
S'0'
sS'Pts'
p5866
S'0'
sa(dp5867
S'Pens'
p5868
S'0'
sS'Sub'
p5869
S'0'
sS'Lost'
p5870
S'1'
sS'Drop'
p5871
S'0'
sS'Start'
p5872
S'1'
sS'Won'
p5873
S'0'
sS'GfM'
p5874
S'0'
sS'Draw'
p5875
S'0'
sS'Mat'
p5876
S'1'
sS'Conv'
p5877
S'0'
sS'Tries'
p5878
S'0'
sS'Pts'
p5879
S'0'
sa(dp5880
S'Pens'
p5881
S'1'
sS'Sub'
p5882
S'0'
sS'Lost'
p5883
S'1'
sS'Drop'
p5884
S'0'
sS'Start'
p5885
S'1'
sS'Won'
p5886
S'0'
sS'GfM'
p5887
S'0'
sS'Draw'
p5888
S'0'
sS'Mat'
p5889
S'1'
sS'Conv'
p5890
S'0'
sS'Tries'
p5891
S'0'
sS'Pts'
p5892
S'3'
sa(dp5893
S'Pens'
p5894
S'0'
sS'Sub'
p5895
S'0'
sS'Lost'
p5896
S'2'
sS'Drop'
p5897
S'0'
sS'Start'
p5898
S'2'
sS'Won'
p5899
S'0'
sS'GfM'
p5900
S'0'
sS'Draw'
p5901
S'0'
sS'Mat'
p5902
S'2'
sS'Conv'
p5903
S'0'
sS'Tries'
p5904
S'0'
sS'Pts'
p5905
S'0'
sa(dp5906
S'Pens'
p5907
S'0'
sS'Sub'
p5908
S'0'
sS'Lost'
p5909
S'1'
sS'Drop'
p5910
S'0'
sS'Start'
p5911
S'1'
sS'Won'
p5912
S'0'
sS'GfM'
p5913
S'0'
sS'Draw'
p5914
S'0'
sS'Mat'
p5915
S'1'
sS'Conv'
p5916
S'0'
sS'Tries'
p5917
S'0'
sS'Pts'
p5918
S'0'
sa(dp5919
S'Pens'
p5920
S'0'
sS'Sub'
p5921
S'0'
sS'Lost'
p5922
S'2'
sS'Drop'
p5923
S'0'
sS'Start'
p5924
S'3'
sS'Won'
p5925
S'1'
sS'GfM'
p5926
S'0'
sS'Draw'
p5927
S'0'
sS'Mat'
p5928
S'3'
sS'Conv'
p5929
S'3'
sS'Tries'
p5930
S'0'
sS'Pts'
p5931
S'6'
sa(dp5932
S'Pens'
p5933
S'0'
sS'Sub'
p5934
S'0'
sS'Lost'
p5935
S'1'
sS'Drop'
p5936
S'0'
sS'Start'
p5937
S'1'
sS'Won'
p5938
S'0'
sS'GfM'
p5939
S'0'
sS'Draw'
p5940
S'0'
sS'Mat'
p5941
S'1'
sS'Conv'
p5942
S'0'
sS'Tries'
p5943
S'0'
sS'Pts'
p5944
S'0'
sa(dp5945
S'Pens'
p5946
S'0'
sS'Sub'
p5947
S'0'
sS'Lost'
p5948
S'2'
sS'Drop'
p5949
S'0'
sS'Start'
p5950
S'4'
sS'Won'
p5951
S'2'
sS'GfM'
p5952
S'0'
sS'Draw'
p5953
S'0'
sS'Mat'
p5954
S'4'
sS'Conv'
p5955
S'0'
sS'Tries'
p5956
S'0'
sS'Pts'
p5957
S'0'
sa(dp5958
S'Pens'
p5959
S'0'
sS'Sub'
p5960
S'0'
sS'Lost'
p5961
S'0'
sS'Drop'
p5962
S'0'
sS'Start'
p5963
S'3'
sS'Won'
p5964
S'2'
sS'GfM'
p5965
S'0'
sS'Draw'
p5966
S'1'
sS'Mat'
p5967
S'3'
sS'Conv'
p5968
S'0'
sS'Tries'
p5969
S'0'
sS'Pts'
p5970
S'0'
sa(dp5971
S'Pens'
p5972
S'0'
sS'Sub'
p5973
S'0'
sS'Lost'
p5974
S'1'
sS'Drop'
p5975
S'0'
sS'Start'
p5976
S'3'
sS'Won'
p5977
S'2'
sS'GfM'
p5978
S'0'
sS'Draw'
p5979
S'0'
sS'Mat'
p5980
S'3'
sS'Conv'
p5981
S'0'
sS'Tries'
p5982
S'0'
sS'Pts'
p5983
S'0'
sa(dp5984
S'Pens'
p5985
S'0'
sS'Sub'
p5986
S'0'
sS'Lost'
p5987
S'2'
sS'Drop'
p5988
S'0'
sS'Start'
p5989
S'4'
sS'Won'
p5990
S'2'
sS'GfM'
p5991
S'0'
sS'Draw'
p5992
S'0'
sS'Mat'
p5993
S'4'
sS'Conv'
p5994
S'0'
sS'Tries'
p5995
S'2'
sS'Pts'
p5996
S'6'
sa(dp5997
S'Pens'
p5998
S'0'
sS'Sub'
p5999
S'0'
sS'Lost'
p6000
S'0'
sS'Drop'
p6001
S'0'
sS'Start'
p6002
S'2'
sS'Won'
p6003
S'2'
sS'GfM'
p6004
S'0'
sS'Draw'
p6005
S'0'
sS'Mat'
p6006
S'2'
sS'Conv'
p6007
S'0'
sS'Tries'
p6008
S'1'
sS'Pts'
p6009
S'3'
sa(dp6010
S'Pens'
p6011
S'0'
sS'Sub'
p6012
S'0'
sS'Lost'
p6013
S'1'
sS'Drop'
p6014
S'0'
sS'Start'
p6015
S'3'
sS'Won'
p6016
S'2'
sS'GfM'
p6017
S'0'
sS'Draw'
p6018
S'0'
sS'Mat'
p6019
S'3'
sS'Conv'
p6020
S'0'
sS'Tries'
p6021
S'0'
sS'Pts'
p6022
S'0'
sa(dp6023
S'Pens'
p6024
S'0'
sS'Sub'
p6025
S'0'
sS'Lost'
p6026
S'1'
sS'Drop'
p6027
S'0'
sS'Start'
p6028
S'3'
sS'Won'
p6029
S'2'
sS'GfM'
p6030
S'0'
sS'Draw'
p6031
S'0'
sS'Mat'
p6032
S'3'
sS'Conv'
p6033
S'4'
sS'Tries'
p6034
S'0'
sS'Pts'
p6035
S'8'
sa.