(lp1
VApril 15, 1858, Caulfield, VIC
p2
aVSeptember 26, 1853, Chorlton, Lancs
p3
aV(guess: regd Q4), Bristol
p4
aVAugust 14, 1858, Rusholme, Lancs
p5
aVDecember 5, 1859, Llandovery
p6
aVMay 17, 1858, The Curragh
p7
aVFebruary 28, 1857, Newport
p8
aVMarch 29, 1860, Tideham, Monmouth
p9
aVAugust 16, 1855, Cardiff
p10
aVNovember 8, 1857, Co Westmeath
p11
aVApril 9, 1858, Tonn, Llandovery
p12
aVJuly 30, 1860, Haverfordwest
p13
aVMarch 22, 1862, Ystradyfodwg
p14
aVDecember 7, 1859, Abergavenny
p15
aVJune 15, 1856, Llowes
p16
aVSeptember 16, 1862, Newport
p17
aVJune 26, 1862, at sea Cape of Good, -
p18
aVOctober 25, 1858, Portman Sq, Marylebon
p19
aVMay 17, 1857, Weymouth
p20
aVApril 24, 1857, Rhymney
p21
aVFebruary 26, 1863, Newport
p22
aVAugust 20, 1853, Llangadog
p23
aVJanuary 29, 1859, Swansea
p24
aVApril 28, 1862, Carmarthen
p25
aVApril 27, 1862, Caernarfon
p26
aVcirca 1860, Llwynypia
p27
aVMay 4, 1864, Llanelly
p28
aVApril 27, 1857, Cottesmore, Rutland
p29
aVcirca 1857, London
p30
aVDecember 28, 1861, Swansea
p31
aVJuly 9, 1857, Ashton-u-Lyne, Lancs
p32
aVAugust 2, 1859, Southampton
p33
aVcirca 1857, Risca
p34
aVDecember 31, 1860, Newport
p35
aVDecember 2, 1861, Prestwich, Lancashire
p36
aVSeptember 15, 1864, Swansea
p37
aVMarch 27, 1856, Swansea
p38
aVDecember 25, 1858, Llanelly
p39
aVcirca 1856, Sedgefield
p40
aV(guess: regd Q2), Manchester
p41
aVMay 8, 1863, Ruabon
p42
aVOctober 8, 1864, Pendleton, Lancs
p43
aVFebruary 11, 1855, Swansea
p44
aVFebruary 7, 1859, Wiveliscombe
p45
aVcirca 1860, Bombay
p46
aVJanuary 17, 1862, Llanelly
p47
aV(guess: regd Q4), Somerset
p48
aVOctober 10, 1864, Newport
p49
aVMarch 7, 1865, Clifton
p50
aVJanuary 23, 1862, Swansea
p51
aVSeptember 21, 1864, Neath
p52
aVAugust 6, 1865, Merthyr Tydfil
p53
aVAugust 7, 1863, Monknash
p54
aVJanuary 13, 1866, Cardiff
p55
aVdate unknown, ?
p56
aVMarch 22, 1866, Fishguard
p57
aVcirca 1862, Pembroke
p58
aVJuly 2, 1863, Barry
p59
aVDecember 4, 1866, Radyr
p60
aVSeptember 19, 1861, Llanelly
p61
aVMarch 23, 1866, Tynemouth
p62
aVFebruary 7, 1864, Rhymney
p63
aVNovember 24, 1866, Haverfordwest
p64
aVMay 18, 1867, Cardiff
p65
aVOctober 4, 1865, Cardiff
p66
aV(guess: regd Q2), Great Boughton
p67
aVcirca 1863, Morriston
p68
aVOctober 15, 1864, Towyn
p69
aVDecember 15, 1866, ?
p70
aVDecember 25, 1859, Llanelly
p71
aVcirca 1861, Hartlepool
p72
aVNovember 22, 1863, Swansea
p73
aVFebruary 1, 1864, Carmarthen
p74
aVMarch 22, 1861, Glasgow
p75
aVcirca 1863, Morriston
p76
aVApril 10, 1864, Monmouth
p77
aVNovember 8, 1867, Llanelly
p78
aVdate unknown, ?
p79
aVJanuary 21, 1863, King's Lynn
p80
aVFebruary 8, 1864, Newport
p81
aVNovember 3, 1870, Cardiff
p82
aVcirca 1865, Cardiff
p83
aVJune 20, 1857, Cwmduad
p84
aVOctober 12, 1864, Newport
p85
aVMay 27, 1860, Rusholme, Lancs
p86
aVMay 29, 1868, Hartpury
p87
aVcirca 1857, ?
p88
aVJanuary 15, 1863, Broughton Gifford
p89
aVOctober 10, 1864, Swansea
p90
aVNovember 4, 1866, Dowlais
p91
aVOctober 6, 1867, Cwmbach, Aberdare
p92
aVJuly 11, 1864, Henllan Amgoed
p93
aVMay 29, 1863, Llandyssul
p94
aVSeptember 15, 1864, Llanelly
p95
aVNovember 14, 1866, Llannon
p96
aVMarch 2, 1871, Swansea
p97
aVcirca 1869, Llansamlet
p98
aVJanuary 5, 1871, Ammanford
p99
aVSeptember 10, 1863, Neath
p100
aVAugust 22, 1865, Kidwelly
p101
aVNovember 2, 1866, Newcastle-upon-Tyne
p102
aVOctober 26, 1865, Cardiff
p103
aV(guess: regd Q4), Padstow, Cornwall
p104
aVSeptember 3, 1868, Chipping Norton
p105
aVMay 10, 1872, Bombay
p106
aVJune 5, 1864, Briton Ferry
p107
aVSeptember 6, 1870, Llanelly
p108
aVJune 21, 1870, Swansea
p109
aVJanuary 11, 1869, Essington, Staffs
p110
aVcirca 1868, Swansea
p111
aVcirca 1866, Swansea
p112
aVJune 19, 1870, Llanegwad
p113
aVAugust 29, 1869, Swansea
p114
aVMay 11, 1867, Swansea
p115
aVJune 29, 1870, Gobowen, Salop
p116
aVMarch 18, 1873, Mountain Ash
p117
aVJuly 26, 1869, Machen
p118
aVcirca 1866, Pontypool
p119
aVMarch 25, 1870, Chipping Sodbury
p120
aVJanuary 13, 1870, Llandovery
p121
aVAugust 31, 1863, Newport
p122
aVApril 18, 1870, Newport
p123
aVSeptember 2, 1868, Paddington
p124
aVAugust 12, 1869, Pontnewydd
p125
aVJanuary 3, 1872, Cardiff
p126
aVMay 6, 1872, Brecknock
p127
aVAugust 13, 1871, S Shields
p128
aVFebruary 20, 1867, Maesteg
p129
aVJune 14, 1871, Llanegwad
p130
aVNovember 3, 1871, Llanelly
p131
aVApril 21, 1872, Cardiff
p132
aVJune 5, 1873, Llanelly
p133
aVAugust 1870, Lambeth
p134
aVApril 3, 1870, Swansea
p135
aVcirca 1871, Llantwit Major
p136
aVJune 6, 1871, Llanelly
p137
aVMarch 28, 1869, Plymouth
p138
aVSeptember 14, 1872, Ibsley, Hants
p139
aVJuly 14, 1872, Llanelly
p140
aVJanuary 3, 1875, Morriston
p141
aVDecember 1, 1871, Pontypool
p142
aVOctober 3, 1873, Cumbernauld
p143
aVAugust 18, 1870, Roath
p144
aVJanuary 26, 1875, Cardiff
p145
aVcirca 1872, Maenclochog
p146
aVFebruary 23, 1871, Ammanford
p147
aVOctober 29, 1869, Llanelly
p148
aVJuly 15, 1874, Westbury-on-Severn
p149
aVFebruary 26, 1877, Newport
p150
aVcirca 1873, Derby
p151
aVJuly 9, 1876, Otterhampton, Somerse
p152
aVDecember 1, 1874, Tiverton
p153
aVMay 31, 1875, Taibach
p154
aVJuly 25, 1876, Llantrisant
p155
aVJuly 16, 1874, Glynneath
p156
aVMay 23, 1873, Blaenavon
p157
aVJuly 2, 1874, Aberbeeg
p158
aV(guess: regd Q2), Clydach
p159
aVJune 7, 1871, Keiss, Caithness
p160
aVJuly 24, 1876, Varteg Hill
p161
aV(guess: 1871 or 72), ?
p162
aVcirca 1875, Cardiff
p163
aVSeptember 23, 1871, Weare, Somerset
p164
aVJuly 15, 1876, Risca
p165
aVJanuary 1, 1878, Tonypandy
p166
aV1873, Swansea
p167
aVMarch 25, 1877, Swansea
p168
aVJanuary 30, 1878, Crickhowell
p169
aVDecember 25, 1875, ?
p170
aVFebruary 24, 1878, Newport
p171
aVFebruary 27, 1876, Swansea
p172
aVcirca 1871, ?
p173
aVcirca 1878, Swansea
p174
aVMay 2, 1873, Stepney
p175
aVMay 28, 1873, Pontypridd
p176
aV(guess: regd Q1), Aberavon
p177
aVJune 22, 1880, Llangennech
p178
aVAugust 30, 1875, Pontypridd
p179
aVNovember 27, 1879, Swansea
p180
aVNovember 17, 1876, Llandore
p181
aVAugust 8, 1878, Market Rasen
p182
aVcirca 1881, Aberaman
p183
aVDecember 2, 1877, Caio
p184
aVMay 10, 1877, Morriston
p185
aVMay 22, 1880, Aberdare
p186
aVJune 11, 1875, Mountain Ash
p187
aVMay 23, 1875, Llanelly
p188
aVcirca 1878, ?
p189
aV(guess: regd Q4), Swansea
p190
aVJune 9, 1877, Newport
p191
aVJuly 7, 1881, Morriston
p192
aVcirca 1878, Nottingham
p193
aVMay 26, 1875, Blaina
p194
aVMarch 15, 1879, Dunvant
p195
aVOctober 27, 1877, Tonna
p196
aVJune 5, 1878, Cardiff
p197
aVOctober 1, 1881, Pontypool
p198
aVMarch 21, 1878, Upper Cwmbran
p199
aVSeptember 10, 1875, Trecastle
p200
aVMay 2, 1877, Morriston
p201
aVApril 5, 1882, Pontneddfechan
p202
aVSeptember 30, 1882, Newport
p203
aVJanuary 14, 1879, Llanelly
p204
aVNovember 18, 1882, Scethrog
p205
aVJune 23, 1879, Cardiff
p206
aVDecember 1881, Pontycymmer
p207
aVMay 7, 1882, Cardiff
p208
aVDecember 31, 1882, Ammanford
p209
aVSeptember 14, 1882, Merthyr Tydfil
p210
aVOctober 10, 1882, Cardiff
p211
aVJune 20, 1884, Narberth
p212
aVApril 19, 1880, Newbridge
p213
aVOctober 14, 1883, Ferndale, Rhondda
p214
aVJanuary 3, 1882, Whitchurch
p215
aVOctober 1881, Cardiff
p216
aVDecember 3, 1884, Llanwenog
p217
aVMay 21, 1885, Pontypool
p218
aVApril 9, 1881, Llanybyther
p219
aVMarch 1878, Carmarthen
p220
aVNovember 23, 1882, West Dean, Glos
p221
aVJanuary 1879, Cardiff
p222
aVDecember 10, 1881, Pontypool
p223
aVSeptember 6, 1882, Newport
p224
aVApril 30, 1888, Skewen
p225
aVJanuary 31, 1880, Pontardawe
p226
aVMarch 2, 1886, Pontypool
p227
aVAugust 1884, Haverfordwest
p228
aVJanuary 28, 1889, Bath
p229
aVOctober 9, 1879, Swansea
p230
aV(guess: regd Q2), Bedwellty
p231
aVFebruary 22, 1885, Redwick, Monmouth
p232
aV(guess: regd Q4), Neath
p233
aVMay 30, 1882, Caldicot
p234
aVMarch 10, 1887, Bridgend
p235
aVJune 19, 1876, Cardiff
p236
aVMarch 20, 1883, Talywain
p237
aVMay 10, 1885, Swansea
p238
aVSeptember 20, 1880, Upper Cwmbran
p239
aVJanuary 9, 1884, Sketty
p240
aVJuly 8, 1886, St Fagans, Cardiff
p241
aVDecember 24, 1887, Penarth
p242
aVNovember 10, 1886, Newport
p243
aVNovember 1, 1888, Caerleon
p244
aVSeptember 22, 1886, Neath
p245
aVDecember 30, 1889, St Andrews, Nthampton
p246
aVMarch 23, 1883, Nantyglo
p247
aVJune 23, 1887, Cardiff
p248
aVcirca 1885, Skewen
p249
aVJune 22, 1890, Bridgend
p250
aVNovember 29, 1891, Neath
p251
aVApril 23, 1887, Newport
p252
aVJanuary 6, 1883, Shirehampton
p253
aVDecember 27, 1890, Aberavon
p254
aVMay 5, 1890, Dowlais
p255
aVDecember 29, 1888, Newport
p256
aVApril 1, 1885, Wiveliscombe
p257
aVJune 4, 1885, Swansea
p258
aVMay 18, 1885, Cardiff
p259
aVJanuary 4, 1891, Pontardawe
p260
aVMay 14, 1883, Woodford, Essex
p261
aVNovember 24, 1887, Newport
p262
aVcirca 1887, Dunvant
p263
aV(guess: regd Q3), Swansea
p264
aVFebruary 1886, Ross-on-Wye
p265
aVMarch 14, 1891, Newport
p266
aVApril 9, 1889, Cockett, Swansea
p267
aVMarch 23, 1887, Pontypridd
p268
aVOctober 23, 1892, Alejandra
p269
aVMay 9, 1891, Briton Ferry
p270
aVJuly 28, 1890, Pentyrch
p271
aVFebruary 3, 1882, Battersea
p272
aVApril 12, 1885, Tongwynlais
p273
aVSeptember 5, 1885, Aberaeron
p274
aVNovember 23, 1883, Pontypool
p275
aVMay 24, 1888, Pontardawe
p276
aVcirca 1888, Crickhowell
p277
aV(guess: regd Q2), Cwmavon
p278
aVJune 16, 1892, Neath
p279
aVMarch 1889, Pontypridd
p280
aVFebruary 9, 1892, Tonypandy
p281
aVNovember 27, 1888, Bedwellty
p282
aVApril 1882, Pontardawe
p283
aVMarch 14, 1886, Cwmdu, Maesteg
p284
aVMay 16, 1890, Llanelly
p285
aVApril 6, 1892, Carmarthen
p286
aVDecember 29, 1887, Newport
p287
aVMay 15, 1893, Maesteg
p288
aVAugust 27, 1894, Pantyffynnon
p289
aVFebruary 2, 1896, Gorseinon
p290
aVOctober 23, 1889, Neuadd
p291
aVOctober 4, 1893, Blaengwynfi, Pt Talbo
p292
aVcirca 1894, Abertillery
p293
aVJanuary 7, 1894, Sudbrook
p294
aVMarch 29, 1891, Llansamlet
p295
aVAugust 2, 1886, Maesteg
p296
aVAugust 9, 1896, Bridgend
p297
aVAugust 12, 1892, Newport
p298
aVJune 11, 1896, Nantymoel
p299
aVMarch 23, 1892, Newport
p300
aVMarch 14, 1894, Swansea
p301
aVJanuary 21, 1894, Felinfoel
p302
aVMarch 11, 1895, Llanelly
p303
aVJune 18, 1893, Cardiff
p304
aV1896, Newport
p305
aVApril 3, 1891, Pontypool
p306
aVSeptember 13, 1892, Cardiff
p307
aVJune 3, 1893, ?
p308
aVcirca 1891, Blaina
p309
aVApril 3, 1895, Llanelly
p310
aVOctober 13, 1890, Swansea
p311
aVJune 12, 1892, Cross Keys
p312
aVMay 17, 1896, Llanelly
p313
aVDecember 31, 1895, Newport
p314
aVMarch 21, 1896, Glynneath
p315
aVMay 6, 1896, Abersychan
p316
aVOctober 29, 1893, Cardiff
p317
aVApril 3, 1893, Swansea
p318
aVNovember 13, 1900, Port Talbot
p319
aVMay 5, 1889, Bedwellty
p320
aVDecember 27, 1894, Newport
p321
aVDecember 6, 1897, Swansea
p322
aVApril 3, 1897, Dafen
p323
aVJanuary 30, 1897, Machen, Risca
p324
aVApril 19, 1899, Llanelly
p325
aVDecember 31, 1893, Newport
p326
aVcirca 1899, ?
p327
aVJuly 7, 1897, Swansea
p328
aVdate unknown
p329
aVcirca 1898, Bridgend
p330
aVDecember 15, 1892, Newport
p331
aVMarch 20, 1892, Cardiff
p332
aVSeptember 2, 1900, Bridgend
p333
aVDecember 25, 1898, Llanelly
p334
aVJune 14, 1890, Hendy
p335
aVDecember 13, 1895, Pontnewydd
p336
aVJune 26, 1896, Swansea
p337
aVMarch 28, 1901, Hafodyrynys
p338
aVOctober 30, 1893, Llanbadarn Fawr
p339
aVJanuary 8, 1897, Llanelly
p340
aVJune 30, 1897, Cardiff
p341
aVcirca 1897, Treorchy
p342
aVSeptember 10, 1901, Birchgrove, Swansea
p343
aVcirca 1892, Pontardawe
p344
aVApril 24, 1897, Llwynhendy
p345
aVDecember 22, 1902, Hambrook, Bristol
p346
aVNovember 8, 1894, Senghenydo
p347
aVMarch 1, 1902, Loughor
p348
aVJuly 7, 1900, Llanharan
p349
aVApril 5, 1891, Mackay
p350
aVAugust 14, 1895, Merthyr Tydfil
p351
aVApril 23, 1895, Ystrad
p352
aVcirca 1897, ?
p353
aVAugust 12, 1894, Cardiff
p354
aVApril 8, 1888, Cardiff
p355
aVOctober 13, 1895, Maesteg
p356
aVNovember 11, 1896, Port Talbot
p357
aVcirca 1901, Abersychan
p358
aVDecember 10, 1901, Loughor
p359
aVAugust 4, 1901, Burry Port
p360
aVMay 6, 1899, Glyncorrwg
p361
aVJuly 31, 1898, Gurnos Cross
p362
aVMarch 7, 1896, Pontypridd
p363
aVApril 30, 1900, Pontyrhyl, Bridgend
p364
aVMarch 27, 1899, Neath
p365
aVDecember 5, 1898, Newport
p366
aVcirca 1897, Brynamman
p367
aVMay 29, 1901, Pontypridd
p368
aVApril 18, 1901, Machen
p369
aVMay 8, 1902, Neyland
p370
aVJune 16, 1899, Blaina
p371
aVJanuary 23, 1897, Newport
p372
aVFebruary 4, 1894, Cefneithin
p373
aVAugust 8, 1904, Llansamlet
p374
aVDecember 3, 1890, Neath
p375
aVJuly 16, 1899, Pembroke Dock
p376
aVMarch 15, 1899, Pontardawe
p377
aVAugust 17, 1901, Thornbury, Glos
p378
aVApril 21, 1897, Newport
p379
aVApril 20, 1898, Llangennech
p380
aVOctober 14, 1898, Cwmllynfell
p381
aVJune 18, 1896, Aberavon
p382
aVJuly 16, 1902, Aberavon
p383
aVJanuary 18, 1900, Llanelly
p384
aVOctober 11, 1900, Merthyr Tydfil
p385
aVNovember 18, 1892, Treforest
p386
aVMarch 27, 1902, Bridgend
p387
aVJune 18, 1906, Port Talbot
p388
aVJanuary 16, 1905, Wattsville
p389
aVAugust 5, 1899, Treorchy
p390
aVMarch 1, 1902, Langland, Gower
p391
aVMarch 14, 1899, Morriston
p392
aVMarch 22, 1901, Cardiff
p393
aVAugust 29, 1898, Pontypool
p394
aVApril 23, 1905, Llansamlet
p395
aVJuly 17, 1902, Abertillery
p396
aVOctober 16, 1904, Cardiff
p397
aVAugust 24, 1904, Newport
p398
aVSeptember 3, 1899, Llandybie
p399
aVJanuary 20, 1903, Pontardawe
p400
aVMay 22, 1901, Pyle
p401
aVAugust 31, 1898, Swansea
p402
aVcirca 1901, ?
p403
aVOctober 1900, Shanghai
p404
aVJune 7, 1902, Taff's Well
p405
aVMarch 12, 1905, Rudry
p406
aVcirca 1905, Aberbeeg
p407
aVSeptember 21, 1904, Blaina
p408
aVNovember 11, 1906, Maesteg
p409
aVAugust 22, 1904, Pontyclun
p410
aVJune 13, 1899, Merthyr Tydfil
p411
aVJune 22, 1903, Cross Keys
p412
aVApril 4, 1906, Toxteth
p413
aVJanuary 16, 1906, Llanelly
p414
aVDecember 29, 1905, Crumlin
p415
aVJanuary 10, 1906, Pontypridd
p416
aVAugust 6, 1907, Carmarthen
p417
aVJuly 28, 1904, Tonyrefail
p418
aVDecember 22, 1905, Bryncethin
p419
aVFebruary 22, 1903, Cardiff
p420
aVDecember 26, 1907, Garnant
p421
aVJanuary 4, 1901, Abercarn
p422
aVApril 29, 1904, Llandough
p423
aVFebruary 4, 1902, Maindy, Cardiff
p424
aVNovember 12, 1900, Waunarlwydd
p425
aVApril 12, 1904, Resolven
p426
aVMarch 2, 1907, Neath Abbey
p427
aVApril 3, 1903, Loughor
p428
aVFebruary 22, 1903, Swansea
p429
aVMay 1, 1902, Tranch, Pontypool
p430
aVJuly 12, 1906, Drefach
p431
aVJune 23, 1908, Aberkenfig
p432
aVJuly 11, 1905, Trebanog
p433
aVDecember 22, 1907, Ogmore Vale
p434
aVJanuary 5, 1906, Shanghai
p435
aVJuly 28, 1909, Newport
p436
aVFebruary 20, 1909, Toxteth
p437
aVNovember 1, 1905, Mountain Ash
p438
aVApril 30, 1907, Cardiff
p439
aVFebruary 14, 1909, Newport
p440
aVJanuary 26, 1910, Cardiff
p441
aVApril 15, 1905, Tonna
p442
aVAugust 6, 1910, Skewen
p443
aVMarch 4, 1906, Nantgaredig
p444
aVJanuary 23, 1909, Llanelly
p445
aVcirca 1909, Merthyr Tydfil
p446
aVJune 11, 1909, Barry
p447
aVMay 8, 1908, Griffithstown
p448
aVNovember 24, 1906, Morriston
p449
aVdate unknown, Swansea
p450
aVSeptember 2, 1910, Cardiff
p451
aVSeptember 8, 1907, Glynneath
p452
aVDecember 14, 1908, Garnant
p453
aVMay 4, 1910, Sketty
p454
aVFebruary 26, 1909, Ynysybwl
p455
aVDecember 29, 1907, Ammanford
p456
aVOctober 7, 1906, Treorchy
p457
aVOctober 1, 1909, Garnant
p458
aVJanuary 21, 1908, Abercarn
p459
aVFebruary 14, 1906, Cwmgors
p460
aVJuly 21, 1906, Felinfoel
p461
aVOctober 4, 1910, Cifynydd
p462
aVNovember 2, 1911, Aberavon
p463
aVOctober 2, 1908, Bridgend
p464
aVAugust 29, 1911, Blundellsands
p465
aVMarch 16, 1906, Cardiff
p466
aVNovember 20, 1912, Rhos-on-Sea
p467
aVMay 7, 1907, Brynmawr
p468
aVJanuary 16, 1902, Penclawdd
p469
aVJune 13, 1913, Carmarthen
p470
aVFebruary 17, 1910, Garw Valley
p471
aVJanuary 17, 1910, Treherbert
p472
aVNovember 20, 1911, Tidworth, Wilts
p473
aVSeptember 12, 1909, Pontypridd
p474
aVApril 7, 1909, Barry
p475
aVSeptember 12, 1911, Newport
p476
aVFebruary 9, 1911, Hendy
p477
aVMay 13, 1910, Neath
p478
aVJuly 8, 1914, Ipswich
p479
aVSeptember 5, 1911, Llanishen
p480
aVMarch 12, 1914, Porth
p481
aVNovember 27, 1907, Glynneath
p482
aVNovember 20, 1912, Llangadog
p483
aVJuly 25, 1910, Swansea
p484
aVDecember 11, 1909, Porth
p485
aVMay 23, 1906, Trelewis
p486
aVAugust 25, 1907, Abertillery
p487
aVMay 1, 1906, Llanelly
p488
aVOctober 13, 1912, Neath
p489
aVJanuary 6, 1907, Risca
p490
aVJune 28, 1914, Kenfig Hill
p491
aVSeptember 3, 1908, Aberfan
p492
aVMay 8, 1913, Fleur-de-Lys
p493
aVMay 27, 1907, Aberaman
p494
aVOctober 6, 1904, Aberavon
p495
aVDecember 10, 1907, Treboeth
p496
aVJanuary 9, 1917, Gowerton
p497
aVMarch 11, 1910, Llandeilo Fawr
p498
aVMarch 2, 1916, Caerphilly
p499
aVSeptember 10, 1907, Three Crosses, Gowert
p500
aVMay 13, 1913, Clifton
p501
aVFebruary 19, 1914, Neath
p502
aVJune 30, 1907, Pontypridd
p503
aVAugust 23, 1916, Penclawdd
p504
aVApril 9, 1915, Llanelly
p505
aVApril 24, 1911, Gwaun-cae-Gurwen
p506
aVMarch 27, 1909, Neath
p507
aVJuly 1, 1914, Newport
p508
aVMay 9, 1908, Pontypridd
p509
aVDecember 2, 1913, Newport
p510
aVJune 16, 1913, Aberkenfig
p511
aVNovember 11, 1911, Risca
p512
aVDecember 2, 1914, Risca
p513
aVDecember 5, 1914, Port Talbot
p514
aVFebruary 11, 1915, Pontyberem
p515
aVDecember 18, 1913, Pontardawe
p516
aVOctober 25, 1909, Port Talbot
p517
aVMay 13, 1912, Neath
p518
aVNovember 10, 1915, ?
p519
aVSeptember 7, 1913, Birmingham
p520
aVOctober 13, 1917, Redcar
p521
aVApril 17, 1918, Aberavon
p522
aVDecember 25, 1916, Llanelly
p523
aVJuly 13, 1913, Swansea
p524
aVOctober 7, 1918
p525
aVApril 29, 1912, Llanelly
p526
aVNovember 10, 1915, Mountain Ash
p527
aVSeptember 16, 1915, Trealaw
p528
aVJune 11, 1910, Cardiff
p529
aVAugust 16, 1911, Porthcawl
p530
aVAugust 15, 1914, Burry Port
p531
aVSeptember 1, 1924, Newport
p532
aVSeptember 15, 1921, Treorchy
p533
aVAugust 17, 1918, Treherbert
p534
aVApril 30, 1916, Morriston
p535
aVDecember 30, 1921, Blaenavon
p536
aVJune 21, 1920, Bridgend
p537
aVApril 21, 1926, Newbridge
p538
aVApril 16, 1922, Neath
p539
aVFebruary 22, 1923, Taff's Well
p540
aVApril 12, 1921, Llanelly
p541
aVNovember 4, 1914, Llanelly
p542
aVMay 10, 1922, Mynyddygarreg
p543
aVDecember 12, 1919, Kenfig Hill
p544
aVAugust 24, 1927, Cifynydd
p545
aVMay 12, 1914, Griffithstown
p546
aVNovember 19, 1919, Blaina
p547
aVMay 10, 1917, Risca
p548
aVFebruary 16, 1921, Rhymney
p549
aVFebruary 8, 1925, Penygroes
p550
aVJanuary 15, 1922, Port Talbot
p551
aVSeptember 13, 1921, Drefach
p552
aVFebruary 28, 1923, Pontypridd
p553
aVJune 28, 1913, Cifynydd
p554
aVNovember 21, 1921, Rhiwfawr
p555
aVOctober 25, 1925, Tumble
p556
aVMarch 14, 1915, Cardiff
p557
aVJuly 18, 1922, Usk
p558
aVNovember 3, 1917, Newport
p559
aVJune 30, 1925, Pontypool
p560
aVNovember 9, 1919, Ystrad
p561
aVJune 27, 1927, Pontypridd
p562
aVJune 15, 1929, Llangynwyd
p563
aVJune 20, 1924, Loughor
p564
aVApril 25, 1929, Machen
p565
aVJanuary 28, 1929, Cardiff
p566
aVAugust 16, 1930, Newport
p567
aVMay 2, 1925, Penygraig
p568
aVDecember 3, 1925, Neath
p569
aVApril 11, 1931, Gorseinon
p570
aVMay 17, 1926, Cardiff
p571
aVOctober 25, 1924, Ystrad
p572
aVApril 22, 1924, Glyncorrwg
p573
aVJune 21, 1928, Llanelly
p574
aVJune 4, 1921, Cwmavon
p575
aVMay 29, 1923, Chepstow
p576
aVApril 7, 1930, Trebanog
p577
aVJuly 14, 1928, Mountain Ash
p578
aVNovember 19, 1929, Gower
p579
aVNovember 20, 1920, Swansea
p580
aVFebruary 3, 1926, Cwmavon
p581
aVSeptember 9, 1921, Talywain
p582
aVAugust 24, 1928, Swansea
p583
aVJuly 29, 1924, Barry
p584
aVOctober 6, 1926, Abercarn
p585
aVSeptember 24, 1933, Llwynhendy
p586
aVNovember 27, 1931, Penygraig
p587
aVDecember 5, 1923, Pontarddulais
p588
aVAugust 14, 1928, Cardiff
p589
aVSeptember 23, 1926, Pontypridd
p590
aVFebruary 21, 1932, Pontypridd
p591
aVSeptember 5, 1924, Taibach
p592
aVDecember 19, 1928, Berkhamsted
p593
aVFebruary 22, 1932, Neath
p594
aVJuly 14, 1919, Skewen
p595
aVJuly 1, 1931, New Tredegar
p596
aVNovember 21, 1930, Cwmbran
p597
aVJune 23, 1931, Llanharan
p598
aVApril 21, 1929, Llandyfriog
p599
aVJuly 14, 1930, Cwmllynfell
p600
aVDecember 29, 1930, Bynea
p601
aVNovember 3, 1927, Felinfoel
p602
aVNovember 29, 1927, Cefn Fforest
p603
aVOctober 7, 1927, Bynea
p604
aVOctober 25, 1928, Porth, Rhondda
p605
aVMarch 20, 1932, Llanharan
p606
aVNovember 24, 1924, Cardiff
p607
aVNovember 16, 1932, Pontarddulais
p608
aVDecember 30, 1929, Bancyfelin
p609
aVJune 16, 1930, Goytre, Pontypool
p610
aVMarch 2, 1927, Pontypool
p611
aVFebruary 4, 1934, Newport
p612
aVDecember 4, 1930, Newport
p613
aVOctober 29, 1929, Loughor
p614
aVJune 16, 1927, Resolven
p615
aVSeptember 14, 1932, Neath
p616
aVJanuary 12, 1934, Battersea
p617
aVOctober 19, 1933, Taff's Well
p618
aVNovember 21, 1936, Ammanford
p619
aVJune 30, 1933, Morriston
p620
aVDecember 22, 1932, Carmarthen
p621
aVNovember 17, 1932, Ebbw Vale
p622
aVJanuary 16, 1931, Aberavon
p623
aVOctober 18, 1932, Neath
p624
aVAugust 13, 1926, Llandybie
p625
aVDecember 19, 1934, Porthcawl
p626
aVNovember 2, 1929, Cefneithin
p627
aVJuly 30, 1936, Oakdale
p628
aVJune 30, 1926, Mountain Ash
p629
aVJune 2, 1931, Maesteg
p630
aVJanuary 23, 1933, Whitchurch, Cardiff
p631
aVDecember 19, 1930, Neath
p632
aVDecember 17, 1932, Cwmavon
p633
aVAugust 7, 1938, Bangor
p634
aVNovember 21, 1936, Cowbridge
p635
aVJune 6, 1929, Cardiff
p636
aVMarch 13, 1935, Bristol
p637
aVNovember 29, 1931, Abbassia
p638
aVDecember 8, 1937, Pontypool
p639
aVMay 27, 1937, Penygraig
p640
aVDecember 31, 1933, Newport
p641
aVAugust 17, 1933, Cwmcarn
p642
aVMarch 22, 1933, Newbridge
p643
aVNovember 9, 1934, Newport
p644
aVJanuary 3, 1931, Port Talbot
p645
aVNovember 20, 1936, Blaenavon
p646
aVSeptember 8, 1935, Trelewis
p647
aVApril 7, 1936, Cambridge
p648
aVSeptember 14, 1937, Blaenavon
p649
aVMarch 26, 1935, Pontypool
p650
aVJuly 24, 1939, Gorseinon
p651
aVOctober 10, 1935, Cwmcarn
p652
aVNovember 23, 1932, Neath
p653
aVMarch 19, 1936, Scunthorpe
p654
aVAugust 5, 1935, Pontypridd
p655
aVJuly 15, 1939, Markham, Monmouth
p656
aVApril 24, 1934, Neath
p657
aVJanuary 29, 1934, Bridgend
p658
aVSeptember 11, 1934, Abergwyngregin
p659
aVDecember 21, 1937, Hereford
p660
aVOctober 14, 1937, E Glamorgan
p661
aVSeptember 10, 1939, Risca
p662
aVOctober 30, 1937, Bargoed
p663
aVApril 29, 1941, Pontrhydyfen
p664
aVJune 10, 1933, Swansea
p665
aVSeptember 10, 1937, Blackwood
p666
aVSeptember 1, 1933, Bargoed
p667
aVJanuary 14, 1942, Bynea
p668
aVAugust 7, 1941, Cross Hands
p669
aVAugust 29, 1941, Pontyberem
p670
aVFebruary 17, 1938, Neath
p671
aVJanuary 11, 1933, Cwmcarn
p672
aVFebruary 7, 1936, Brithdir
p673
aVJuly 7, 1941, Weston-super-Mare
p674
aVFebruary 20, 1941, Neath
p675
aVDecember 1, 1936, Ogmore Vale
p676
aVFebruary 13, 1939, Dafen
p677
aVMarch 1, 1934, Crumlin
p678
aVMarch 31, 1941, Porthcawl
p679
aVMay 14, 1938, Upper Cwmtwrch
p680
aVMay 18, 1940, Pontwalby
p681
aVMarch 5, 1942, Blaina
p682
aVOctober 17, 1938, Trefil
p683
aVNovember 6, 1941, Bridgend
p684
aVNovember 24, 1933, Garndiffaith
p685
aVMay 21, 1940, Borth
p686
aVJune 11, 1934, Porth
p687
aVApril 16, 1940, Beckenham
p688
aVMarch 28, 1942, Deri, Bargoed
p689
aVApril 7, 1939, Cefn Cribbwr
p690
aVMarch 13, 1942, Cardiff
p691
aVJanuary 8, 1942, Glynneath
p692
aVDecember 7, 1941, Beddau
p693
aVJune 5, 1941, Newport
p694
aVJune 29, 1940, Chapel of Ease
p695
aVJuly 16, 1945, Hendy
p696
aVDecember 14, 1933, Neath Abbey
p697
aVJune 16, 1941, Melbourne
p698
aVFebruary 2, 1940, Blaengarw
p699
aVOctober 7, 1942, Pontypool
p700
aVMarch 29, 1943, Pontycymmer
p701
aVAugust 28, 1938, Treowen
p702
aVFebruary 7, 1945, Llansaint
p703
aVJanuary 6, 1945, Cefneithin
p704
aVSeptember 12, 1942, Bancyfelin
p705
aVJanuary 2, 1942, Loughor
p706
aVJanuary 24, 1941, Port Talbot
p707
aVJune 2, 1940, Weston-super-Mare
p708
aVMarch 6, 1944, Cardiff
p709
aVAugust 28, 1942, Neath
p710
aVJuly 21, 1945, Watford
p711
aVJuly 12, 1947, Glanaman
p712
aVFebruary 24, 1943, Neath
p713
aVNovember 11, 1941, Rhigos
p714
aVMay 18, 1948, Newport
p715
aVNovember 4, 1946, Gilfach Goch
p716
aVJuly 3, 1941, Argoed
p717
aVFebruary 26, 1945, Oakdale
p718
aVJanuary 13, 1945, Neath
p719
aVFebruary 5, 1947, Newport
p720
aVJuly 16, 1938, Milsom Pt
p721
aVJune 14, 1942, Stoke-on-Trent
p722
aVSeptember 4, 1938, Blaengarw
p723
aVNovember 16, 1943, Port Talbot
p724
aVJanuary 15, 1944, Swansea
p725
aVSeptember 16, 1942, Blaengarw
p726
aVMarch 2, 1940, Vryburg
p727
aVFebruary 2, 1945, Ystrad
p728
aVDecember 9, 1946, Swansea
p729
aVMarch 2, 1949, Cardiff
p730
aVOctober 24, 1948, Felinfoel
p731
aVMay 1, 1942, Llanelly
p732
aVJanuary 6, 1948, Ashton, Lancs
p733
aVSeptember 3, 1944, Newport
p734
aVMarch 5, 1942, Pontypool
p735
aVJuly 8, 1946, Maesteg
p736
aVDecember 15, 1949, Glanamman
p737
aVMay 22, 1946, Llanelly
p738
aVSeptember 26, 1941, Crumlin
p739
aVSeptember 2, 1949, Llanelly
p740
aVDecember 11, 1948, E Williamston, Tenby
p741
aVOctober 28, 1950, Tylorstown
p742
aVFebruary 20, 1946, St Asaph
p743
aVNovember 11, 1950, Carmarthen
p744
aVMay 22, 1949, Llanelly
p745
aVApril 11, 1951, Rhigos
p746
aVMay 12, 1947, Swansea
p747
aVApril 2, 1948, Pontypridd
p748
aVApril 1, 1948, Nantyffyllon
p749
aVDecember 11, 1948, Port Talbot
p750
aVJanuary 31, 1946, Newport
p751
aVSeptember 9, 1947, Pyle
p752
aVJanuary 10, 1946, Blaenavon
p753
aVMarch 18, 1948, Cardiff
p754
aVOctober 6, 1951
p755
aVJune 30, 1951, Swansea
p756
aVNovember 14, 1943, Neath
p757
aVFebruary 21, 1944, Cardiff
p758
aVApril 2, 1950, Swansea
p759
aVMarch 12, 1948, Neath
p760
aVNovember 26, 1947, Chorley, Lancs
p761
aVFebruary 27, 1941, Newport
p762
aVJuly 23, 1951, Caerphilly
p763
aVSeptember 12, 1951, Kidwelly
p764
aVNovember 24, 1951, Moascar
p765
aVDecember 22, 1941, Monkton
p766
aVOctober 26, 1950, Newport
p767
aVNovember 25, 1950, Manmoel
p768
aVSeptember 23, 1951, Pontywaun
p769
aVNovember 2, 1952, Newport
p770
aVNovember 2, 1948, Porthcawl
p771
aVSeptember 29, 1955, Carmarthen
p772
aVOctober 29, 1951, Cardigan
p773
aVNovember 12, 1952, Tredegar
p774
aVSeptember 17, 1949, Tredegar
p775
aVOctober 5, 1955, Abercrave
p776
aVMarch 10, 1957, Cardiff
p777
aVApril 1, 1947, Blaencwm
p778
aVJanuary 28, 1948, Leeds
p779
aVJanuary 5, 1954, Clydach
p780
aVOctober 30, 1951, Cymmer
p781
aVMay 23, 1954, Cwmgwrach
p782
aVAugust 21, 1954, Kenfig Hill
p783
aVApril 2, 1954, Loughor
p784
aVMay 8, 1957, Newport
p785
aVNovember 13, 1954, Port Talbot
p786
aVJanuary 1, 1959, Broadhaven
p787
aVMarch 2, 1961, Ebbw Vale
p788
aVNovember 6, 1954, Bedlinog
p789
aVFebruary 25, 1959, Maesteg
p790
aVMarch 3, 1955, Llanelly
p791
aVMay 25, 1952, Tongwynlais
p792
aVSeptember 6, 1957, Maesteg
p793
aVNovember 11, 1960, Laugharne
p794
aVOctober 21, 1954, Swansea
p795
aVMay 15, 1957, Cardiff
p796
aVJuly 9, 1958, Maesteg
p797
aVMay 1, 1957, Gorseinon
p798
aVFebruary 17, 1958, Abertillery
p799
aVJune 23, 1957, Ebbw Vale
p800
aVJuly 12, 1960, Swansea
p801
aVJuly 18, 1956, Port Talbot
p802
aVDecember 16, 1960, Briton Ferry
p803
aVOctober 15, 1962, Cardiff
p804
aVFebruary 19, 1957, Crickhowell
p805
aVOctober 31, 1956, Cardiff
p806
aVJanuary 4, 1959, Ynysybwl
p807
aVFebruary 27, 1954, Blaenavon
p808
aVJanuary 20, 1963, Llanharan
p809
aVJuly 16, 1961, Trebanos
p810
aVDecember 18, 1958, Newport
p811
aVJanuary 15, 1961, Kenfig Hill
p812
aVMarch 1, 1963, Cardiff
p813
aVAugust 9, 1962, Ystrad Mynach
p814
aVMay 3, 1959, Swansea
p815
aVJune 6, 1959, Pyle
p816
aVDecember 10, 1960, Aberystwyth
p817
aVJune 9, 1954, Southerndown
p818
aVJanuary 9, 1952, Abercarn
p819
aVOctober 31, 1960, Cardiff
p820
aVMarch 25, 1956, Carmarthen
p821
aVJanuary 6, 1961, Swansea
p822
aVApril 18, 1956, Bedwas
p823
aVAugust 23, 1962, Neath
p824
aVJune 14, 1963, Neath
p825
aVNovember 24, 1962, Rheindalen
p826
aVJanuary 15, 1959, Pontlliw
p827
aVOctober 24, 1962, Trimsaran
p828
aVOctober 19, 1963, Seven Sisters
p829
aVSeptember 29, 1961, Cwmllynfell
p830
aVMarch 30, 1966, Pontycymmer
p831
aVNovember 10, 1965, Trebanos
p832
aVJune 4, 1955, Newport
p833
aVJuly 16, 1964, Morriston
p834
aVOctober 9, 1960, Carmarthen
p835
aVJanuary 21, 1962, Cardiff
p836
aVMarch 21, 1964, Capel Dewi
p837
aVJune 15, 1961, Hebron, Whitland
p838
aVMarch 2, 1962, Cardiff
p839
aVJuly 9, 1957, Cowbridge
p840
aVJune 22, 1965, Tredegar
p841
aVMarch 3, 1962, Cardiff
p842
aVJune 30, 1955, Ystradgynlais
p843
aVJuly 26, 1967, Aberdare
p844
aVJuly 9, 1967, Swansea
p845
aVJuly 28, 1965, St David's
p846
aVMarch 4, 1960, Builth Wells
p847
aVMay 29, 1963
p848
aVFebruary 8, 1967, Morriston
p849
aVJuly 1, 1956, Carmarthen
p850
aVMarch 10, 1963, Ebbw Vale
p851
aVFebruary 21, 1967, Bridgend
p852
aVJune 9, 1960, Bridgend
p853
aVOctober 13, 1965, Bridgend
p854
aVMarch 29, 1965, Llanelly
p855
aVAugust 23, 1964, Carmarthen
p856
aVJuly 17, 1960, Porth
p857
aVJuly 2, 1963, Caerphilly
p858
aVJune 13, 1965, Aberdare
p859
aVApril 17, 1964, Llandovery
p860
aVMarch 18, 1962, Tonypandy
p861
aVJanuary 29, 1958, Pencoed
p862
aVSeptember 29, 1966, Cardiff
p863
aVDecember 11, 1967, Kenfig Hill
p864
aVMay 7, 1965, Ebbw Vale
p865
aVJanuary 10, 1963, Bryncethin
p866
aVMay 8, 1956, Llanelly
p867
aVFebruary 13, 1959, Newport
p868
aVNovember 1, 1965, Wootton Bassett
p869
aVJuly 27, 1962, Bangor
p870
aVFebruary 27, 1969, Cardiff
p871
aVOctober 8, 1959, Seven Sisters
p872
aVApril 5, 1967, Newport
p873
aVMarch 6, 1965, Maesteg
p874
aVFebruary 8, 1964, Winchester, Hants
p875
aVJuly 9, 1960, Penffordd
p876
aVAugust 15, 1965, Cardiff
p877
aVOctober 8, 1961, Neath
p878
aVApril 28, 1968, Morriston
p879
aVAugust 31, 1968, Beddau
p880
aVApril 30, 1959, Tonypandy
p881
aVAugust 9, 1965, Bradford-on-Avon
p882
aVJanuary 24, 1966, Carmarthen
p883
aVMarch 4, 1966, Usk
p884
aVOctober 10, 1964, Ogmore-by-Sea
p885
aVJanuary 26, 1964, Cardigan
p886
aVFebruary 9, 1969, Bridgend
p887
aVDecember 13, 1964, Newport
p888
aVSeptember 30, 1964, Newport
p889
aVJanuary 23, 1971, Bridgend
p890
aVJuly 8, 1971, Church Village
p891
aVFebruary 1, 1971, Carmarthen
p892
aVAugust 29, 1968, Carmarthen
p893
aVSeptember 18, 1970, Newport
p894
aVAugust 18, 1966, Ynysybwl
p895
aVJune 13, 1971, Treherbert
p896
aVOctober 9, 1961, Cwmbran
p897
aVJuly 21, 1965, Cardiff
p898
aVJanuary 25, 1965, Romford, Essex
p899
aVSeptember 2, 1965, Swansea
p900
aVNovember 29, 1969, Morriston
p901
aVSeptember 15, 1964, Caerphilly
p902
aVJune 12, 1972, Bridgend
p903
aVJune 23, 1960, Cardigan
p904
aVOctober 20, 1963, Blaina
p905
aVJune 15, 1963, Cardiff
p906
aVMay 28, 1970, Pontypridd
p907
aVFebruary 1, 1968, Birmingham
p908
aVMay 27, 1968, Barry
p909
aVJune 5, 1964, Cwmasfan
p910
aVJune 11, 1972, Bridgend
p911
aVAugust 20, 1972, Llanelli
p912
aVDecember 17, 1963, Morrinsville
p913
aVJuly 3, 1970, Bangor
p914
aVDecember 23, 1967, Holywell
p915
aVJanuary 25, 1970, Pontypridd
p916
aVMay 4, 1967, Parramatta
p917
aVOctober 3, 1970, Neath
p918
aVNovember 14, 1970, Carmarthen
p919
aVFebruary 27, 1973, Blaenavon
p920
aVApril 5, 1970, Pontypridd
p921
aVOctober 19, 1973, W Glamorgan
p922
aVMarch 20, 1972, Pontypool
p923
aVSeptember 6, 1968, Cardiff
p924
aVJuly 25, 1974, Ogwr
p925
aVDecember 25, 1968, Ely, Cambs
p926
aVJanuary 26, 1969, Neath
p927
aVFebruary 27, 1969, Bridgend
p928
aVMay 21, 1966, Swansea
p929
aVMay 31, 1975, Ogwr
p930
aVOctober 26, 1973, Neath
p931
aVNovember 1, 1973, Carmarthen
p932
aVJanuary 25, 1974, Grantham
p933
aVJanuary 30, 1969, Caerleon
p934
aVJuly 9, 1975, Swansea
p935
aVFebruary 20, 1976, Neath
p936
aVOctober 5, 1972, Swansea
p937
aVJune 13, 1973, Swansea
p938
aVNovember 8, 1974, Carmarthen
p939
aVFebruary 12, 1972, Bridgend, M Glamorgan
p940
aVOctober 13, 1970, Bridgend
p941
aVJanuary 3, 1970, Caerphilly, E Glam
p942
aVJuly 24, 1975, Mufulira
p943
aVJune 19, 1969, Bedwellty
p944
aVSeptember 1, 1975, Pontypridd
p945
aVJanuary 6, 1974, Carmarthen
p946
aVDecember 27, 1972, Sutton Coldfield
p947
aVNovember 23, 1969, Turangi
p948
aVNovember 18, 1964, Pontypridd
p949
aVJanuary 22, 1976, Ogwr
p950
aVFebruary 23, 1977, Pontypridd
p951
aVJuly 23, 1976, Neath
p952
aVDecember 9, 1972, Haverfordwest
p953
aVJuly 20, 1972, Grantham
p954
aVSeptember 30, 1976, Pontypridd
p955
aVMarch 4, 1977, Cardiff
p956
aVMarch 27, 1975, Bridgend
p957
aVSeptember 24, 1974, Aberdare
p958
aVSeptember 21, 1971, Carmarthen
p959
aVMay 9, 1972, Swansea
p960
aVSeptember 16, 1975, Neath
p961
aVFebruary 22, 1969, Cardiff
p962
aVJune 10, 1975, Newport
p963
aVFebruary 16, 1973, Trimsaran
p964
aVNovember 10, 1976, Panteg
p965
aVDecember 8, 1977, Aberystwyth
p966
aVJanuary 12, 1974, Pontypridd
p967
aVSeptember 29, 1970, Bedwellty
p968
aVSeptember 20, 1975, Swansea
p969
aVJuly 8, 1968, Auckland
p970
aVJuly 31, 1975, Bedwas
p971
aVApril 2, 1973, Cardiff
p972
aVJanuary 20, 1969, Maidstone
p973
aVDecember 30, 1971, Rotorua
p974
aVSeptember 18, 1975, Scunthorpe
p975
aVSeptember 13, 1976, Sydney, NSW
p976
aVJune 6, 1973, Pontypool
p977
aVFebruary 26, 1977, Morriston
p978
aVNovember 2, 1975, Newport
p979
aVJuly 7, 1975, Papakura
p980
aVFebruary 23, 1980, Bridgend
p981
aVNovember 18, 1977, Carmarthen
p982
aVDecember 15, 1976, Panteg
p983
aVJanuary 3, 1977, Glanaman
p984
aVNovember 7, 1979, Builth Wells
p985
aVMay 7, 1979, Bridgend
p986
aVOctober 28, 1975, Neath
p987
aVApril 9, 1981, Swansea
p988
aVOctober 22, 1977, Leamington Spa
p989
aVFebruary 1, 1982, Bridgend
p990
aVApril 20, 1977, Neath
p991
aVJanuary 18, 1976, Cardiff
p992
aVApril 7, 1980, Cardiff
p993
aVNovember 24, 1979, Harrow
p994
aVAugust 31, 1981, Carmarthen
p995
aVJune 25, 1976, Oldham
p996
aVNovember 23, 1968, Hull
p997
aVSeptember 18, 1978, Neath
p998
aVSeptember 26, 1978, Pontypridd
p999
aVNovember 13, 1972, Salisbury, Rhodesia
p1000
aVNovember 7, 1980, Church Village
p1001
aVDecember 4, 1973, Cardiff
p1002
aVAugust 14, 1977, Pontypridd
p1003
aVJuly 1, 1980, Panteg
p1004
aVJune 21, 1979, Merthyr Tydfil
p1005
aVSeptember 2, 1972, Nantgaredig
p1006
aVNovember 17, 1980, Llantwit Fadre
p1007
aVAugust 27, 1977, Thames
p1008
aVJune 24, 1979, Aberystwyth
p1009
aVJune 12, 1977, Morriston
p1010
aVJanuary 21, 1980, Pontypridd
p1011
aVSeptember 2, 1978, Newport
p1012
aVDecember 19, 1978, Bridgend
p1013
aVDecember 27, 1982, Pembroke
p1014
aVOctober 17, 1979, Newport
p1015
aVSeptember 16, 1980, Plymouth
p1016
aVJanuary 3, 1982, Cardiff
p1017
aVJune 11, 1983, Ebbw Vale
p1018
aVMarch 8, 1981, Abercrave
p1019
aVApril 21, 1982, S.Glamorgan
p1020
aVNovember 15, 1974, Innisfail, Cairns
p1021
aVMay 13, 1982, Neath
p1022
aVAugust 29, 1982, Carmarthen
p1023
aVJanuary 7, 1980, Bridgend
p1024
aVOctober 14, 1976, Aberdare
p1025
aVFebruary 7, 1981, Swansea
p1026
aVJanuary 8, 1973, Swansea
p1027
aVFebruary 23, 1981, Laingsburg
p1028
aVFebruary 25, 1971, Derby
p1029
aVMarch 13, 1981, Newport
p1030
aVMarch 9, 1983, Camborne
p1031
aVApril 9, 1983, Cardiff
p1032
aVApril 9, 1982, Cardiff
p1033
aVDecember 9, 1980, Tonyrefail
p1034
aVMay 7, 1982, London
p1035
aVAugust 10, 1983, Swansea
p1036
aVApril 20, 1980, Pembroke Dock
p1037
aVApril 23, 1982, Abercynon
p1038
aVDecember 14, 1985, Cardiff
p1039
aVApril 4, 1984, Bridgend
p1040
aVJune 1, 1980, Bridgend
p1041
aVFebruary 2, 1977, Newport Pagnell
p1042
aVJanuary 12, 1980, Swansea
p1043
aVDecember 30, 1982, Cardiff
p1044
aVMarch 5, 1981, Carmarthen
p1045
aVOctober 4, 1984, Johannesburg
p1046
aVSeptember 19, 1985, Swansea
p1047
aVDecember 13, 1983, Neath
p1048
aVJune 27, 1985, Neath
p1049
aVJuly 31, 1982, Johannesburg
p1050
aVJuly 18, 1984, Swansea
p1051
aVAugust 9, 1986, Cardiff
p1052
aVJune 19, 1977, Newport
p1053
aVOctober 17, 1978, Neath
p1054
aVDecember 22, 1976, Plymouth
p1055
aVApril 17, 1987, Merthyr Tydfil
p1056
aVSeptember 23, 1984, Pontypridd
p1057
aVNovember 8, 1986, Newport
p1058
aVDecember 10, 1985, Swansea
p1059
aVAugust 7, 1985, Llantrisant
p1060
aVDecember 22, 1988, Swansea
p1061
aVAugust 23, 1981, Brecon
p1062
aVJune 6, 1986, Aberdare
p1063
aVOctober 16, 1989, Swansea
p1064
aVFebruary 13, 1981, St Asaph
p1065
aVJanuary 9, 1987, Llantrisant
p1066
aVApril 5, 1988, Solihull
p1067
aVNovember 15, 1988, Swansea
p1068
aVMay 3, 1986, Neath
p1069
aVApril 28, 1986, Neath
p1070
aVOctober 5, 1988, Cardiff
p1071
aVDecember 18, 1987, Salford
p1072
aVMay 21, 1983, Swansea
p1073
aVOctober 30, 1986, Rhondda
p1074
aVFebruary 23, 1992, Bridgend
p1075
aVDecember 10, 1985, Wrexham
p1076
aVJune 2, 1990, Glynneath
p1077
aVMarch 30, 1987, Cardiff
p1078
aVApril 13, 1992, King's Lynn
p1079
aVJanuary 9, 1987, Llangathen
p1080
aVMarch 12, 1988, Haverfordwest
p1081
aVDecember 9, 1988, Bridgend
p1082
aVNovember 12, 1990, Tofoa
p1083
aVAugust 1, 1989, Church Village
p1084
aVDecember 9, 1984, Panteg
p1085
aVOctober 10, 1990, Carmarthen
p1086
aVAugust 6, 1989, Neath
p1087
aVNovember 30, 1989, Cardiff
p1088
aVJanuary 3, 1987, Carmarthen
p1089
aVApril 5, 1990, Gloucester
p1090
aVAugust 7, 1987, Aldershot
p1091
aVSeptember 10, 1987, Treorchy
p1092
aVDecember 9, 1988, Bridgend
p1093
aVDecember 23, 1991, Aberystwyth
p1094
aVApril 16, 1993, Pentyrch
p1095
aVApril 9, 1991, Morriston
p1096
aVMarch 7, 1991, Burry Port
p1097
aVApril 15, 1990, Neath
p1098
aVMay 20, 1986, Exeter
p1099
aVOctober 27, 1984, Merthyr Tydfil
p1100
aVMarch 19, 1981, Bristol
p1101
aVMarch 22, 1995, Brecon
p1102
aVJuly 24, 1990, Wodonga, VIC
p1103
aVFebruary 22, 1987, Llandovery
p1104
aVOctober 2, 1991, Merthyr Tydfil
p1105
aVJuly 5, 1992, Neath
p1106
aVMay 17, 1993, Llandough
p1107
aVSeptember 26, 1985, Nelspruit
p1108
aVDecember 30, 1990, Bridgend
p1109
aVJuly 12, 1988, Bridgend
p1110
aVFebruary 11, 1993, Cardiff
p1111
aVNovember 30, 1992, Swansea
p1112
aVSeptember 24, 1994, Stockport
p1113
aVMay 5, 1993, Swansea
p1114
aVJune 21, 1991, Ascot
p1115
aVAugust 18, 1990, Carmarthen
p1116
aVApril 23, 1992, Swansea
p1117
aVApril 7, 1994, Swansea
p1118
aVApril 14, 1992, Haverfordwest
p1119
aVAugust 22, 1985, Pembroke
p1120
aVSeptember 11, 1995, Newport
p1121
aVApril 18, 1994, St Helens, Lancs
p1122
aVMarch 28, 1992, Swansea
p1123
aVMay 10, 1991, North Shore
p1124
aVJuly 25, 1989, Merthyr Tydfil
p1125
aVApril 27, 1992, York
p1126
a.