(lp1
VApril 15, 1858, Caulfield, VIC
p2
aVSeptember 26, 1853, Chorlton, Lancs
p3
aV(guess: regd Q4), Bristol
p4
aVAugust 14, 1858, Rusholme, Lancs
p5
aVDecember 5, 1859, Llandovery
p6
aVMay 17, 1858, The Curragh
p7
aVFebruary 28, 1857, Newport
p8
aVMarch 29, 1860, Tideham, Monmouth
p9
aVAugust 16, 1855, Cardiff
p10
aVNovember 8, 1857, Co Westmeath
p11
aVApril 9, 1858, Tonn, Llandovery
p12
aVJuly 30, 1860, Haverfordwest
p13
aVMarch 22, 1862, Ystradyfodwg
p14
aVDecember 7, 1859, Abergavenny
p15
aVJune 15, 1856, Llowes
p16
aVSeptember 16, 1862, Newport
p17
aVJune 26, 1862, at sea Cape of Good, -
p18
aVOctober 25, 1858, Portman Sq, Marylebon
p19
aVMay 17, 1857, Weymouth
p20
aVApril 24, 1857, Rhymney
p21
aVFebruary 26, 1863, Newport
p22
aVAugust 20, 1853, Llangadog
p23
aVJanuary 29, 1859, Swansea
p24
aVApril 28, 1862, Carmarthen
p25
aVApril 27, 1862, Caernarfon
p26
aVcirca 1860, Llwynypia
p27
aVMay 4, 1864, Llanelly
p28
aVApril 27, 1857, Cottesmore, Rutland
p29
aVcirca 1857, London
p30
aVDecember 28, 1861, Swansea
p31
aVJuly 9, 1857, Ashton-u-Lyne, Lancs
p32
aVAugust 2, 1859, Southampton
p33
aVcirca 1857, Risca
p34
aVDecember 31, 1860, Newport
p35
aVDecember 2, 1861, Prestwich, Lancashire
p36
aVSeptember 15, 1864, Swansea
p37
aVMarch 27, 1856, Swansea
p38
aVDecember 25, 1858, Llanelly
p39
aVcirca 1856, Sedgefield
p40
aV(guess: regd Q2), Manchester
p41
aVMay 8, 1863, Ruabon
p42
aVOctober 8, 1864, Pendleton, Lancs
p43
aVFebruary 11, 1855, Swansea
p44
aVFebruary 7, 1859, Wiveliscombe
p45
aVcirca 1860, Bombay
p46
aVJanuary 17, 1862, Llanelly
p47
aV(guess: regd Q4), Somerset
p48
aVOctober 10, 1864, Newport
p49
aVMarch 7, 1865, Clifton
p50
aVJanuary 23, 1862, Swansea
p51
aVSeptember 21, 1864, Neath
p52
aVAugust 6, 1865, Merthyr Tydfil
p53
aVAugust 7, 1863, Monknash
p54
aVJanuary 13, 1866, Cardiff
p55
aVdate unknown, ?
p56
aVMarch 22, 1866, Fishguard
p57
aVcirca 1862, Pembroke
p58
aVJuly 2, 1863, Barry
p59
aVDecember 4, 1866, Radyr
p60
aVSeptember 19, 1861, Llanelly
p61
aVMarch 23, 1866, Tynemouth
p62
aVFebruary 7, 1864, Rhymney
p63
aVNovember 24, 1866, Haverfordwest
p64
aVMay 18, 1867, Cardiff
p65
aVOctober 4, 1865, Cardiff
p66
aV(guess: regd Q2), Great Boughton
p67
aVcirca 1863, Morriston
p68
aVOctober 15, 1864, Towyn
p69
aVDecember 15, 1866, ?
p70
aVDecember 25, 1859, Llanelly
p71
aVcirca 1861, Hartlepool
p72
aVNovember 22, 1863, Swansea
p73
aVFebruary 1, 1864, Carmarthen
p74
aVMarch 22, 1861, Glasgow
p75
aVcirca 1863, Morriston
p76
aVApril 10, 1864, Monmouth
p77
aVNovember 8, 1867, Llanelly
p78
aVdate unknown, ?
p79
aVJanuary 21, 1863, King's Lynn
p80
aVFebruary 8, 1864, Newport
p81
aVNovember 3, 1870, Cardiff
p82
aVcirca 1865, Cardiff
p83
aVJune 20, 1857, Cwmduad
p84
aVOctober 12, 1864, Newport
p85
aVMay 27, 1860, Rusholme, Lancs
p86
aVMay 29, 1868, Hartpury
p87
aVcirca 1857, ?
p88
aVJanuary 15, 1863, Broughton Gifford
p89
aVOctober 10, 1864, Swansea
p90
aVNovember 4, 1866, Dowlais
p91
aVOctober 6, 1867, Cwmbach, Aberdare
p92
aVJuly 11, 1864, Henllan Amgoed
p93
aVMay 29, 1863, Llandyssul
p94
aVSeptember 15, 1864, Llanelly
p95
aVNovember 14, 1866, Llannon
p96
aVMarch 2, 1871, Swansea
p97
aVcirca 1869, Llansamlet
p98
aVJanuary 5, 1871, Ammanford
p99
aVSeptember 10, 1863, Neath
p100
aVAugust 22, 1865, Kidwelly
p101
aVNovember 2, 1866, Newcastle-upon-Tyne
p102
aVOctober 26, 1865, Cardiff
p103
aV(guess: regd Q4), Padstow, Cornwall
p104
aVSeptember 3, 1868, Chipping Norton
p105
aVMay 10, 1872, Bombay
p106
aVJune 5, 1864, Briton Ferry
p107
aVSeptember 6, 1870, Llanelly
p108
aVJune 21, 1870, Swansea
p109
aVJanuary 11, 1869, Essington, Staffs
p110
aVcirca 1868, Swansea
p111
aVcirca 1866, Swansea
p112
aVJune 19, 1870, Llanegwad
p113
aVAugust 29, 1869, Swansea
p114
aVMay 11, 1867, Swansea
p115
aVJune 29, 1870, Gobowen, Salop
p116
aVMarch 18, 1873, Mountain Ash
p117
aVJuly 26, 1869, Machen
p118
aVcirca 1866, Pontypool
p119
aVMarch 25, 1870, Chipping Sodbury
p120
aVJanuary 13, 1870, Llandovery
p121
aVAugust 31, 1863, Newport
p122
aVApril 18, 1870, Newport
p123
aVSeptember 2, 1868, Paddington
p124
aVAugust 12, 1869, Pontnewydd
p125
aVJanuary 3, 1872, Cardiff
p126
aVMay 6, 1872, Brecknock
p127
aVAugust 13, 1871, S Shields
p128
aVFebruary 20, 1867, Maesteg
p129
aVJune 14, 1871, Llanegwad
p130
aVNovember 3, 1871, Llanelly
p131
aVApril 21, 1872, Cardiff
p132
aVJune 5, 1873, Llanelly
p133
aVAugust 1870, Lambeth
p134
aVApril 3, 1870, Swansea
p135
aVcirca 1871, Llantwit Major
p136
aVJune 6, 1871, Llanelly
p137
aVMarch 28, 1869, Plymouth
p138
aVSeptember 14, 1872, Ibsley, Hants
p139
aVJuly 14, 1872, Llanelly
p140
aVJanuary 3, 1875, Morriston
p141
aVDecember 1, 1871, Pontypool
p142
aVOctober 3, 1873, Cumbernauld
p143
aVAugust 18, 1870, Roath
p144
aVJanuary 26, 1875, Cardiff
p145
aVcirca 1872, Maenclochog
p146
aVFebruary 23, 1871, Ammanford
p147
aVOctober 29, 1869, Llanelly
p148
aVJuly 15, 1874, Westbury-on-Severn
p149
aVFebruary 26, 1877, Newport
p150
aVcirca 1873, Derby
p151
aVJuly 9, 1876, Otterhampton, Somerse
p152
aVDecember 1, 1874, Tiverton
p153
aVMay 31, 1875, Taibach
p154
aVJuly 25, 1876, Llantrisant
p155
aVJuly 16, 1874, Glynneath
p156
aVMay 23, 1873, Blaenavon
p157
aVJuly 2, 1874, Aberbeeg
p158
aV(guess: regd Q2), Clydach
p159
aVJune 7, 1871, Keiss, Caithness
p160
aVJuly 24, 1876, Varteg Hill
p161
aV(guess: 1871 or 72), ?
p162
aVcirca 1875, Cardiff
p163
aVSeptember 23, 1871, Weare, Somerset
p164
aVJuly 15, 1876, Risca
p165
aVJanuary 1, 1878, Tonypandy
p166
aV1873, Swansea
p167
aVMarch 25, 1877, Swansea
p168
aVJanuary 30, 1878, Crickhowell
p169
aVDecember 25, 1875, ?
p170
aVFebruary 24, 1878, Newport
p171
aVFebruary 27, 1876, Swansea
p172
aVcirca 1871, ?
p173
aVcirca 1878, Swansea
p174
aVMay 2, 1873, Stepney
p175
aVMay 28, 1873, Pontypridd
p176
aV(guess: regd Q1), Aberavon
p177
aVJune 22, 1880, Llangennech
p178
aVAugust 30, 1875, Pontypridd
p179
aVNovember 27, 1879, Swansea
p180
aVNovember 17, 1876, Llandore
p181
aVAugust 8, 1878, Market Rasen
p182
aVcirca 1881, Aberaman
p183
aVDecember 2, 1877, Caio
p184
aVMay 10, 1877, Morriston
p185
aVMay 22, 1880, Aberdare
p186
aVJune 11, 1875, Mountain Ash
p187
aVMay 23, 1875, Llanelly
p188
aVcirca 1878, ?
p189
aV(guess: regd Q4), Swansea
p190
aVJune 9, 1877, Newport
p191
aVJuly 7, 1881, Morriston
p192
aVcirca 1878, Nottingham
p193
aVMay 26, 1875, Blaina
p194
aVMarch 15, 1879, Dunvant
p195
aVOctober 27, 1877, Tonna
p196
aVJune 5, 1878, Cardiff
p197
aVOctober 1, 1881, Pontypool
p198
aVMarch 21, 1878, Upper Cwmbran
p199
aVSeptember 10, 1875, Trecastle
p200
aVMay 2, 1877, Morriston
p201
aVApril 5, 1882, Pontneddfechan
p202
aVSeptember 30, 1882, Newport
p203
aVJanuary 14, 1879, Llanelly
p204
aVNovember 18, 1882, Scethrog
p205
aVJune 23, 1879, Cardiff
p206
aVDecember 1881, Pontycymmer
p207
aVMay 7, 1882, Cardiff
p208
aVDecember 31, 1882, Ammanford
p209
aVSeptember 14, 1882, Merthyr Tydfil
p210
aVOctober 10, 1882, Cardiff
p211
aVJune 20, 1884, Narberth
p212
aVApril 19, 1880, Newbridge
p213
aVOctober 14, 1883, Ferndale, Rhondda
p214
aVJanuary 3, 1882, Whitchurch
p215
aVOctober 1881, Cardiff
p216
aVDecember 3, 1884, Llanwenog
p217
aVMay 21, 1885, Pontypool
p218
aVApril 9, 1881, Llanybyther
p219
aVMarch 1878, Carmarthen
p220
aVNovember 23, 1882, West Dean, Glos
p221
aVJanuary 1879, Cardiff
p222
aVDecember 10, 1881, Pontypool
p223
aVSeptember 6, 1882, Newport
p224
aVApril 30, 1888, Skewen
p225
aVJanuary 31, 1880, Pontardawe
p226
aVMarch 2, 1886, Pontypool
p227
aVAugust 1884, Haverfordwest
p228
aVJanuary 28, 1889, Bath
p229
aVOctober 9, 1879, Swansea
p230
aV(guess: regd Q2), Bedwellty
p231
aVFebruary 22, 1885, Redwick, Monmouth
p232
aV(guess: regd Q4), Neath
p233
aVMay 30, 1882, Caldicot
p234
aVMarch 10, 1887, Bridgend
p235
aVJune 19, 1876, Cardiff
p236
aVMarch 20, 1883, Talywain
p237
aVMay 10, 1885, Swansea
p238
aVSeptember 20, 1880, Upper Cwmbran
p239
aVJanuary 9, 1884, Sketty
p240
aVJuly 8, 1886, St Fagans, Cardiff
p241
aVDecember 24, 1887, Penarth
p242
aVNovember 10, 1886, Newport
p243
aVNovember 1, 1888, Caerleon
p244
aVSeptember 22, 1886, Neath
p245
aVDecember 30, 1889, St Andrews, Nthampton
p246
aVMarch 23, 1883, Nantyglo
p247
aVJune 23, 1887, Cardiff
p248
aVcirca 1885, Skewen
p249
aVJune 22, 1890, Bridgend
p250
aVNovember 29, 1891, Neath
p251
aVApril 23, 1887, Newport
p252
aVJanuary 6, 1883, Shirehampton
p253
aVDecember 27, 1890, Aberavon
p254
aVMay 5, 1890, Dowlais
p255
aVDecember 29, 1888, Newport
p256
aVApril 1, 1885, Wiveliscombe
p257
aVJune 4, 1885, Swansea
p258
aVMay 18, 1885, Cardiff
p259
aVJanuary 4, 1891, Pontardawe
p260
aVMay 14, 1883, Woodford, Essex
p261
aVNovember 24, 1887, Newport
p262
aVcirca 1887, Dunvant
p263
aV(guess: regd Q3), Swansea
p264
aVFebruary 1886, Ross-on-Wye
p265
aVMarch 14, 1891, Newport
p266
aVApril 9, 1889, Cockett, Swansea
p267
aVMarch 23, 1887, Pontypridd
p268
aVOctober 23, 1892, Alejandra
p269
aVMay 9, 1891, Briton Ferry
p270
aVJuly 28, 1890, Pentyrch
p271
aVFebruary 3, 1882, Battersea
p272
aVApril 12, 1885, Tongwynlais
p273
aVSeptember 5, 1885, Aberaeron
p274
aVNovember 23, 1883, Pontypool
p275
aVMay 24, 1888, Pontardawe
p276
aVcirca 1888, Crickhowell
p277
aV(guess: regd Q2), Cwmavon
p278
aVJune 16, 1892, Neath
p279
aVMarch 1889, Pontypridd
p280
aVFebruary 9, 1892, Tonypandy
p281
aVNovember 27, 1888, Bedwellty
p282
aVApril 1882, Pontardawe
p283
aVMarch 14, 1886, Cwmdu, Maesteg
p284
aVMay 16, 1890, Llanelly
p285
aVApril 6, 1892, Carmarthen
p286
aVDecember 29, 1887, Newport
p287
aVMay 15, 1893, Maesteg
p288
aVAugust 27, 1894, Pantyffynnon
p289
aVFebruary 2, 1896, Gorseinon
p290
aVOctober 23, 1889, Neuadd
p291
aVOctober 4, 1893, Blaengwynfi, Pt Talbo
p292
aVcirca 1894, Abertillery
p293
aVJanuary 7, 1894, Sudbrook
p294
aVMarch 29, 1891, Llansamlet
p295
aVAugust 2, 1886, Maesteg
p296
aVAugust 9, 1896, Bridgend
p297
aVAugust 12, 1892, Newport
p298
aVJune 11, 1896, Nantymoel
p299
aVMarch 23, 1892, Newport
p300
aVMarch 14, 1894, Swansea
p301
aVJanuary 21, 1894, Felinfoel
p302
aVMarch 11, 1895, Llanelly
p303
aVJune 18, 1893, Cardiff
p304
aV1896, Newport
p305
aVApril 3, 1891, Pontypool
p306
aVSeptember 13, 1892, Cardiff
p307
aVJune 3, 1893, ?
p308
aVcirca 1891, Blaina
p309
aVApril 3, 1895, Llanelly
p310
aVOctober 13, 1890, Swansea
p311
aVJune 12, 1892, Cross Keys
p312
aVMay 17, 1896, Llanelly
p313
aVDecember 31, 1895, Newport
p314
aVMarch 21, 1896, Glynneath
p315
aVMay 6, 1896, Abersychan
p316
aVOctober 29, 1893, Cardiff
p317
aVApril 3, 1893, Swansea
p318
aVNovember 13, 1900, Port Talbot
p319
aVMay 5, 1889, Bedwellty
p320
aVDecember 27, 1894, Newport
p321
aVDecember 6, 1897, Swansea
p322
aVApril 3, 1897, Dafen
p323
aVJanuary 30, 1897, Machen, Risca
p324
aVApril 19, 1899, Llanelly
p325
aVDecember 31, 1893, Newport
p326
aVcirca 1899, ?
p327
aVJuly 7, 1897, Swansea
p328
aVdate unknown
p329
aVcirca 1898, Bridgend
p330
aVDecember 15, 1892, Newport
p331
aVMarch 20, 1892, Cardiff
p332
aVSeptember 2, 1900, Bridgend
p333
aVDecember 25, 1898, Llanelly
p334
aVJune 14, 1890, Hendy
p335
aVDecember 13, 1895, Pontnewydd
p336
aVJune 26, 1896, Swansea
p337
aVMarch 28, 1901, Hafodyrynys
p338
aVOctober 30, 1893, Llanbadarn Fawr
p339
aVJanuary 8, 1897, Llanelly
p340
aVJune 30, 1897, Cardiff
p341
aVcirca 1897, Treorchy
p342
aVSeptember 10, 1901, Birchgrove, Swansea
p343
aVcirca 1892, Pontardawe
p344
aVApril 24, 1897, Llwynhendy
p345
aVDecember 22, 1902, Hambrook, Bristol
p346
aVNovember 8, 1894, Senghenydo
p347
aVMarch 1, 1902, Loughor
p348
aVJuly 7, 1900, Llanharan
p349
aVApril 5, 1891, Mackay
p350
aVAugust 14, 1895, Merthyr Tydfil
p351
aVApril 23, 1895, Ystrad
p352
aVcirca 1897, ?
p353
aVAugust 12, 1894, Cardiff
p354
aVApril 8, 1888, Cardiff
p355
aVOctober 13, 1895, Maesteg
p356
aVNovember 11, 1896, Port Talbot
p357
aVcirca 1901, Abersychan
p358
aVDecember 10, 1901, Loughor
p359
aVAugust 4, 1901, Burry Port
p360
aVMay 6, 1899, Glyncorrwg
p361
aVJuly 31, 1898, Gurnos Cross
p362
aVMarch 7, 1896, Pontypridd
p363
aVApril 30, 1900, Pontyrhyl, Bridgend
p364
aVMarch 27, 1899, Neath
p365
aVDecember 5, 1898, Newport
p366
aVcirca 1897, Brynamman
p367
aVMay 29, 1901, Pontypridd
p368
aVApril 18, 1901, Machen
p369
aVMay 8, 1902, Neyland
p370
aVJune 16, 1899, Blaina
p371
aVJanuary 23, 1897, Newport
p372
aVFebruary 4, 1894, Cefneithin
p373
aVAugust 8, 1904, Llansamlet
p374
aVDecember 3, 1890, Neath
p375
aVJuly 16, 1899, Pembroke Dock
p376
aVMarch 15, 1899, Pontardawe
p377
aVAugust 17, 1901, Thornbury, Glos
p378
aVApril 21, 1897, Newport
p379
aVApril 20, 1898, Llangennech
p380
aVOctober 14, 1898, Cwmllynfell
p381
aVJune 18, 1896, Aberavon
p382
aVJuly 16, 1902, Aberavon
p383
aVJanuary 18, 1900, Llanelly
p384
aVOctober 11, 1900, Merthyr Tydfil
p385
aVNovember 18, 1892, Treforest
p386
aVMarch 27, 1902, Bridgend
p387
aVJune 18, 1906, Port Talbot
p388
aVJanuary 16, 1905, Wattsville
p389
aVAugust 5, 1899, Treorchy
p390
aVMarch 1, 1902, Langland, Gower
p391
aVMarch 14, 1899, Morriston
p392
aVMarch 22, 1901, Cardiff
p393
aVAugust 29, 1898, Pontypool
p394
aVApril 23, 1905, Llansamlet
p395
aVJuly 17, 1902, Abertillery
p396
aVOctober 16, 1904, Cardiff
p397
aVAugust 24, 1904, Newport
p398
aVSeptember 3, 1899, Llandybie
p399
aVJanuary 20, 1903, Pontardawe
p400
aVMay 22, 1901, Pyle
p401
aVAugust 31, 1898, Swansea
p402
aVcirca 1901, ?
p403
aVOctober 1900, Shanghai
p404
aVJune 7, 1902, Taff's Well
p405
aVMarch 12, 1905, Rudry
p406
aVcirca 1905, Aberbeeg
p407
aVSeptember 21, 1904, Blaina
p408
aVNovember 11, 1906, Maesteg
p409
aVAugust 22, 1904, Pontyclun
p410
aVJune 13, 1899, Merthyr Tydfil
p411
aVJune 22, 1903, Cross Keys
p412
aVApril 4, 1906, Toxteth
p413
aVJanuary 16, 1906, Llanelly
p414
aVDecember 29, 1905, Crumlin
p415
aVJanuary 10, 1906, Pontypridd
p416
aVAugust 6, 1907, Carmarthen
p417
aVJuly 28, 1904, Tonyrefail
p418
aVDecember 22, 1905, Bryncethin
p419
aVFebruary 22, 1903, Cardiff
p420
aVDecember 26, 1907, Garnant
p421
aVJanuary 4, 1901, Abercarn
p422
aVApril 29, 1904, Llandough
p423
aVFebruary 4, 1902, Maindy, Cardiff
p424
aVNovember 12, 1900, Waunarlwydd
p425
aVApril 12, 1904, Resolven
p426
aVMarch 2, 1907, Neath Abbey
p427
aVApril 3, 1903, Loughor
p428
aVFebruary 22, 1903, Swansea
p429
aVMay 1, 1902, Tranch, Pontypool
p430
aVJuly 12, 1906, Drefach
p431
aVJune 23, 1908, Aberkenfig
p432
aVJuly 11, 1905, Trebanog
p433
aVDecember 22, 1907, Ogmore Vale
p434
aVJanuary 5, 1906, Shanghai
p435
aVJuly 28, 1909, Newport
p436
aVFebruary 20, 1909, Toxteth
p437
aVNovember 1, 1905, Mountain Ash
p438
aVApril 30, 1907, Cardiff
p439
aVFebruary 14, 1909, Newport
p440
aVJanuary 26, 1910, Cardiff
p441
aVApril 15, 1905, Tonna
p442
aVAugust 6, 1910, Skewen
p443
aVMarch 4, 1906, Nantgaredig
p444
aVJanuary 23, 1909, Llanelly
p445
aVcirca 1909, Merthyr Tydfil
p446
aVJune 11, 1909, Barry
p447
aVMay 8, 1908, Griffithstown
p448
aVNovember 24, 1906, Morriston
p449
aVdate unknown, Swansea
p450
aVSeptember 2, 1910, Cardiff
p451
aVSeptember 8, 1907, Glynneath
p452
aVDecember 14, 1908, Garnant
p453
aVMay 4, 1910, Sketty
p454
aVFebruary 26, 1909, Ynysybwl
p455
aVDecember 29, 1907, Ammanford
p456
aVOctober 7, 1906, Treorchy
p457
aVOctober 1, 1909, Garnant
p458
aVJanuary 21, 1908, Abercarn
p459
aVFebruary 14, 1906, Cwmgors
p460
aVJuly 21, 1906, Felinfoel
p461
aVOctober 4, 1910, Cifynydd
p462
aVNovember 2, 1911, Aberavon
p463
aVOctober 2, 1908, Bridgend
p464
aVAugust 29, 1911, Blundellsands
p465
aVMarch 16, 1906, Cardiff
p466
aVNovember 20, 1912, Rhos-on-Sea
p467
aVMay 7, 1907, Brynmawr
p468
aVJanuary 16, 1902, Penclawdd
p469
aVJune 13, 1913, Carmarthen
p470
a.