(lp1
VEngland v Wales at Blackheath, Feb 19, 1881
p2
aVEngland v Wales at Blackheath, Feb 19, 1881
p3
aVEngland v Wales at Blackheath, Feb 19, 1881
p4
aVEngland v Wales at Blackheath, Feb 19, 1881
p5
aVEngland v Wales at Blackheath, Feb 19, 1881
p6
aVEngland v Wales at Blackheath, Feb 19, 1881
p7
aVEngland v Wales at Blackheath, Feb 19, 1881
p8
aVEngland v Wales at Blackheath, Feb 19, 1881
p9
aVEngland v Wales at Blackheath, Feb 19, 1881
p10
aVEngland v Wales at Blackheath, Feb 19, 1881
p11
aVEngland v Wales at Blackheath, Feb 19, 1881
p12
aVEngland v Wales at Blackheath, Feb 19, 1881
p13
aVEngland v Wales at Blackheath, Feb 19, 1881
p14
aVEngland v Wales at Blackheath, Feb 19, 1881
p15
aVEngland v Wales at Blackheath, Feb 19, 1881
p16
aVIreland v Wales at Lansdowne Road, Jan 28, 1882
p17
aVIreland v Wales at Lansdowne Road, Jan 28, 1882
p18
aVIreland v Wales at Lansdowne Road, Jan 28, 1882
p19
aVIreland v Wales at Lansdowne Road, Jan 28, 1882
p20
aVIreland v Wales at Lansdowne Road, Jan 28, 1882
p21
aVIreland v Wales at Lansdowne Road, Jan 28, 1882
p22
aVIreland v Wales at Lansdowne Road, Jan 28, 1882
p23
aVIreland v Wales at Lansdowne Road, Jan 28, 1882
p24
aVIreland v Wales at Lansdowne Road, Jan 28, 1882
p25
aVIreland v Wales at Lansdowne Road, Jan 28, 1882
p26
aVIreland v Wales at Lansdowne Road, Jan 28, 1882
p27
aVWales v England at Swansea, Dec 16, 1882
p28
aVWales v England at Swansea, Dec 16, 1882
p29
aVWales v England at Swansea, Dec 16, 1882
p30
aVWales v England at Swansea, Dec 16, 1882
p31
aVWales v England at Swansea, Dec 16, 1882
p32
aVScotland v Wales at Edinburgh, Jan 8, 1883
p33
aVScotland v Wales at Edinburgh, Jan 8, 1883
p34
aVScotland v Wales at Edinburgh, Jan 8, 1883
p35
aVEngland v Wales at Leeds, Jan 5, 1884
p36
aVEngland v Wales at Leeds, Jan 5, 1884
p37
aVEngland v Wales at Leeds, Jan 5, 1884
p38
aVEngland v Wales at Leeds, Jan 5, 1884
p39
aVEngland v Wales at Leeds, Jan 5, 1884
p40
aVEngland v Wales at Leeds, Jan 5, 1884
p41
aVEngland v Wales at Leeds, Jan 5, 1884
p42
aVWales v Ireland at Cardiff, Apr 12, 1884
p43
aVWales v Ireland at Cardiff, Apr 12, 1884
p44
aVWales v Ireland at Cardiff, Apr 12, 1884
p45
aVWales v Ireland at Cardiff, Apr 12, 1884
p46
aVWales v Ireland at Cardiff, Apr 12, 1884
p47
aVWales v Ireland at Cardiff, Apr 12, 1884
p48
aVWales v England at Swansea, Jan 3, 1885
p49
aVWales v England at Swansea, Jan 3, 1885
p50
aVWales v England at Swansea, Jan 3, 1885
p51
aVWales v England at Swansea, Jan 3, 1885
p52
aVWales v England at Swansea, Jan 3, 1885
p53
aVScotland v Wales at Glasgow, Jan 10, 1885
p54
aVScotland v Wales at Glasgow, Jan 10, 1885
p55
aVScotland v Wales at Glasgow, Jan 10, 1885
p56
aVScotland v Wales at Glasgow, Jan 10, 1885
p57
aVEngland v Wales at Blackheath, Jan 2, 1886
p58
aVEngland v Wales at Blackheath, Jan 2, 1886
p59
aVEngland v Wales at Blackheath, Jan 2, 1886
p60
aVEngland v Wales at Blackheath, Jan 2, 1886
p61
aVEngland v Wales at Blackheath, Jan 2, 1886
p62
aVWales v Scotland at Cardiff, Jan 9, 1886
p63
aVWales v England at Llanelli, Jan 8, 1887
p64
aVWales v England at Llanelli, Jan 8, 1887
p65
aVWales v England at Llanelli, Jan 8, 1887
p66
aVWales v England at Llanelli, Jan 8, 1887
p67
aVScotland v Wales at Edinburgh, Feb 26, 1887
p68
aVScotland v Wales at Edinburgh, Feb 26, 1887
p69
aVScotland v Wales at Edinburgh, Feb 26, 1887
p70
aVIreland v Wales at Birkenhead, Mar 12, 1887
p71
aVIreland v Wales at Birkenhead, Mar 12, 1887
p72
aVWales v Scotland at Newport, Feb 4, 1888
p73
aVWales v Scotland at Newport, Feb 4, 1888
p74
aVWales v Scotland at Newport, Feb 4, 1888
p75
aVWales v Scotland at Newport, Feb 4, 1888
p76
aVWales v Scotland at Newport, Feb 4, 1888
p77
aVWales v Scotland at Newport, Feb 4, 1888
p78
aVWales v Scotland at Newport, Feb 4, 1888
p79
aVIreland v Wales at Lansdowne Road, Mar 3, 1888
p80
aVIreland v Wales at Lansdowne Road, Mar 3, 1888
p81
aVWales v New Zealand Natives at Swansea, Dec 22, 1888
p82
aVWales v New Zealand Natives at Swansea, Dec 22, 1888
p83
aVWales v New Zealand Natives at Swansea, Dec 22, 1888
p84
aVWales v New Zealand Natives at Swansea, Dec 22, 1888
p85
aVWales v New Zealand Natives at Swansea, Dec 22, 1888
p86
aVWales v New Zealand Natives at Swansea, Dec 22, 1888
p87
aVWales v New Zealand Natives at Swansea, Dec 22, 1888
p88
aVWales v New Zealand Natives at Swansea, Dec 22, 1888
p89
aVScotland v Wales at Edinburgh, Feb 2, 1889
p90
aVScotland v Wales at Edinburgh, Feb 2, 1889
p91
aVScotland v Wales at Edinburgh, Feb 2, 1889
p92
aVScotland v Wales at Edinburgh, Feb 2, 1889
p93
aVWales v Ireland at Swansea, Mar 2, 1889
p94
aVWales v Ireland at Swansea, Mar 2, 1889
p95
aVWales v Ireland at Swansea, Mar 2, 1889
p96
aVWales v Scotland at Cardiff, Feb 1, 1890
p97
aVWales v Scotland at Cardiff, Feb 1, 1890
p98
aVWales v Scotland at Cardiff, Feb 1, 1890
p99
aVWales v Scotland at Cardiff, Feb 1, 1890
p100
aVWales v Scotland at Cardiff, Feb 1, 1890
p101
aVIreland v Wales at Lansdowne Road, Mar 1, 1890
p102
aVIreland v Wales at Lansdowne Road, Mar 1, 1890
p103
aVWales v England at Newport, Jan 3, 1891
p104
aVWales v England at Newport, Jan 3, 1891
p105
aVWales v England at Newport, Jan 3, 1891
p106
aVWales v England at Newport, Jan 3, 1891
p107
aVScotland v Wales at Edinburgh, Feb 7, 1891
p108
aVScotland v Wales at Edinburgh, Feb 7, 1891
p109
aVScotland v Wales at Edinburgh, Feb 7, 1891
p110
aVWales v Ireland at Llanelli, Mar 7, 1891
p111
aVWales v Ireland at Llanelli, Mar 7, 1891
p112
aVWales v Ireland at Llanelli, Mar 7, 1891
p113
aVWales v Ireland at Llanelli, Mar 7, 1891
p114
aVWales v Ireland at Llanelli, Mar 7, 1891
p115
aVEngland v Wales at Blackheath, Jan 2, 1892
p116
aVEngland v Wales at Blackheath, Jan 2, 1892
p117
aVEngland v Wales at Blackheath, Jan 2, 1892
p118
aVEngland v Wales at Blackheath, Jan 2, 1892
p119
aVEngland v Wales at Blackheath, Jan 2, 1892
p120
aVWales v Scotland at Swansea, Feb 6, 1892
p121
aVIreland v Wales at Lansdowne Road, Mar 5, 1892
p122
aVIreland v Wales at Lansdowne Road, Mar 5, 1892
p123
aVIreland v Wales at Lansdowne Road, Mar 5, 1892
p124
aVWales v England at Cardiff, Jan 7, 1893
p125
aVWales v Scotland at Newport, Feb 3, 1894
p126
aVWales v Scotland at Newport, Feb 3, 1894
p127
aVIreland v Wales at Belfast, Mar 10, 1894
p128
aVIreland v Wales at Belfast, Mar 10, 1894
p129
aVIreland v Wales at Belfast, Mar 10, 1894
p130
aVWales v England at Swansea, Jan 5, 1895
p131
aVWales v England at Swansea, Jan 5, 1895
p132
aVWales v England at Swansea, Jan 5, 1895
p133
aVWales v England at Swansea, Jan 5, 1895
p134
aVWales v England at Swansea, Jan 5, 1895
p135
aVScotland v Wales at Edinburgh, Jan 26, 1895
p136
aVScotland v Wales at Edinburgh, Jan 26, 1895
p137
aVScotland v Wales at Edinburgh, Jan 26, 1895
p138
aVWales v Ireland at Cardiff, Mar 16, 1895
p139
aVWales v Ireland at Cardiff, Mar 16, 1895
p140
aVEngland v Wales at Blackheath, Jan 4, 1896
p141
aVEngland v Wales at Blackheath, Jan 4, 1896
p142
aVEngland v Wales at Blackheath, Jan 4, 1896
p143
aVWales v Scotland at Cardiff, Jan 25, 1896
p144
aVWales v Scotland at Cardiff, Jan 25, 1896
p145
aVWales v Scotland at Cardiff, Jan 25, 1896
p146
aVWales v Scotland at Cardiff, Jan 25, 1896
p147
aVWales v Scotland at Cardiff, Jan 25, 1896
p148
aVWales v Scotland at Cardiff, Jan 25, 1896
p149
aVIreland v Wales at Lansdowne Road, Mar 14, 1896
p150
aVIreland v Wales at Lansdowne Road, Mar 14, 1896
p151
aVWales v England at Newport, Jan 9, 1897
p152
aVWales v England at Newport, Jan 9, 1897
p153
aVWales v England at Newport, Jan 9, 1897
p154
aVWales v England at Newport, Jan 9, 1897
p155
aVIreland v Wales at Limerick, Mar 19, 1898
p156
aVIreland v Wales at Limerick, Mar 19, 1898
p157
aVIreland v Wales at Limerick, Mar 19, 1898
p158
aVIreland v Wales at Limerick, Mar 19, 1898
p159
aVIreland v Wales at Limerick, Mar 19, 1898
p160
aVIreland v Wales at Limerick, Mar 19, 1898
p161
aVIreland v Wales at Limerick, Mar 19, 1898
p162
aVWales v England at Swansea, Jan 7, 1899
p163
aVWales v England at Swansea, Jan 7, 1899
p164
aVWales v England at Swansea, Jan 7, 1899
p165
aVWales v England at Swansea, Jan 7, 1899
p166
aVWales v England at Swansea, Jan 7, 1899
p167
aVWales v England at Swansea, Jan 7, 1899
p168
aVWales v England at Swansea, Jan 7, 1899
p169
aVEngland v Wales at Gloucester, Jan 6, 1900
p170
aVEngland v Wales at Gloucester, Jan 6, 1900
p171
aVEngland v Wales at Gloucester, Jan 6, 1900
p172
aVEngland v Wales at Gloucester, Jan 6, 1900
p173
aVEngland v Wales at Gloucester, Jan 6, 1900
p174
aVEngland v Wales at Gloucester, Jan 6, 1900
p175
aVWales v Scotland at Swansea, Jan 27, 1900
p176
aVWales v England at Cardiff, Jan 5, 1901
p177
aVWales v Ireland at Swansea, Mar 16, 1901
p178
aVWales v Ireland at Swansea, Mar 16, 1901
p179
aVWales v Ireland at Swansea, Mar 16, 1901
p180
aVWales v Ireland at Swansea, Mar 16, 1901
p181
aVEngland v Wales at Blackheath, Jan 11, 1902
p182
aVEngland v Wales at Blackheath, Jan 11, 1902
p183
aVEngland v Wales at Blackheath, Jan 11, 1902
p184
aVEngland v Wales at Blackheath, Jan 11, 1902
p185
aVEngland v Wales at Blackheath, Jan 11, 1902
p186
aVEngland v Wales at Blackheath, Jan 11, 1902
p187
aVEngland v Wales at Blackheath, Jan 11, 1902
p188
aVWales v Scotland at Cardiff, Feb 1, 1902
p189
aVWales v England at Swansea, Jan 10, 1903
p190
aVWales v England at Swansea, Jan 10, 1903
p191
aVScotland v Wales at Inverleith, Feb 7, 1903
p192
aVWales v Ireland at Cardiff, Mar 14, 1903
p193
aVEngland v Wales at Leicester, Jan 9, 1904
p194
aVEngland v Wales at Leicester, Jan 9, 1904
p195
aVWales v Scotland at Swansea, Feb 6, 1904
p196
aVWales v Scotland at Swansea, Feb 6, 1904
p197
aVWales v Scotland at Swansea, Feb 6, 1904
p198
aVWales v Scotland at Swansea, Feb 6, 1904
p199
aVWales v Scotland at Swansea, Feb 6, 1904
p200
aVIreland v Wales at Belfast, Mar 12, 1904
p201
aVIreland v Wales at Belfast, Mar 12, 1904
p202
aVIreland v Wales at Belfast, Mar 12, 1904
p203
aVWales v Ireland at Swansea, Mar 11, 1905
p204
aVWales v Ireland at Swansea, Mar 11, 1905
p205
aVAustralia v Great Britain at Sydney, Jul 2, 1904
p206
aVEngland v Wales at Richmond, Jan 13, 1906
p207
aVWales v Scotland at Cardiff, Feb 3, 1906
p208
aVIreland v Wales at Belfast, Mar 10, 1906
p209
aVIreland v Wales at Belfast, Mar 10, 1906
p210
aVIreland v Wales at Belfast, Mar 10, 1906
p211
aVWales v South Africa at Swansea, Dec 1, 1906
p212
aVWales v South Africa at Swansea, Dec 1, 1906
p213
aVWales v South Africa at Swansea, Dec 1, 1906
p214
aVWales v South Africa at Swansea, Dec 1, 1906
p215
aVWales v England at Swansea, Jan 12, 1907
p216
aVWales v England at Swansea, Jan 12, 1907
p217
aVWales v England at Swansea, Jan 12, 1907
p218
aVWales v England at Swansea, Jan 12, 1907
p219
aVWales v England at Swansea, Jan 12, 1907
p220
aVScotland v Wales at Inverleith, Feb 2, 1907
p221
aVWales v Ireland at Cardiff, Mar 9, 1907
p222
aVWales v Ireland at Cardiff, Mar 9, 1907
p223
aVAustralia v Great Britain at Brisbane, Jul 23, 1904
p224
aVWales v Scotland at Swansea, Feb 1, 1908
p225
aVWales v Australia at Cardiff, Dec 12, 1908
p226
aVNew Zealand v Anglo-Welsh at Dunedin, Jun 6, 1908
p227
aVWales v Australia at Cardiff, Dec 12, 1908
p228
aVWales v Australia at Cardiff, Dec 12, 1908
p229
aVWales v England at Cardiff, Jan 16, 1909
p230
aVWales v England at Cardiff, Jan 16, 1909
p231
aVScotland v Wales at Inverleith, Feb 6, 1909
p232
aVFrance v Wales at Colombes, Feb 23, 1909
p233
aVFrance v Wales at Colombes, Feb 23, 1909
p234
aVWales v France at Swansea, Jan 1, 1910
p235
aVWales v France at Swansea, Jan 1, 1910
p236
aVEngland v Wales at Twickenham, Jan 15, 1910
p237
aVEngland v Wales at Twickenham, Jan 15, 1910
p238
aVWales v Scotland at Cardiff, Feb 5, 1910
p239
aVNew Zealand v Anglo-Welsh at Wellington, Jun 27, 1908
p240
aVWales v Scotland at Cardiff, Feb 5, 1910
p241
aVIreland v Wales at Lansdowne Road, Mar 12, 1910
p242
aVWales v England at Swansea, Jan 21, 1911
p243
aVWales v England at Swansea, Jan 21, 1911
p244
aVWales v England at Swansea, Jan 21, 1911
p245
aVScotland v Wales at Inverleith, Feb 4, 1911
p246
aVWales v Ireland at Cardiff, Mar 11, 1911
p247
aVEngland v Wales at Twickenham, Jan 20, 1912
p248
aVEngland v Wales at Twickenham, Jan 20, 1912
p249
aVEngland v Wales at Twickenham, Jan 20, 1912
p250
aVEngland v Wales at Twickenham, Jan 20, 1912
p251
aVEngland v Wales at Twickenham, Jan 20, 1912
p252
aVEngland v Wales at Twickenham, Jan 20, 1912
p253
aVWales v Scotland at Swansea, Feb 3, 1912
p254
aVWales v Scotland at Swansea, Feb 3, 1912
p255
aVWales v Scotland at Swansea, Feb 3, 1912
p256
aVIreland v Wales at Belfast, Mar 9, 1912
p257
aVIreland v Wales at Belfast, Mar 9, 1912
p258
aVIreland v Wales at Belfast, Mar 9, 1912
p259
aVIreland v Wales at Belfast, Mar 9, 1912
p260
aVIreland v Wales at Belfast, Mar 9, 1912
p261
aVIreland v Wales at Belfast, Mar 9, 1912
p262
aVIreland v Wales at Belfast, Mar 9, 1912
p263
aVWales v France at Newport, Mar 25, 1912
p264
aVWales v South Africa at Cardiff, Dec 14, 1912
p265
aVWales v South Africa at Cardiff, Dec 14, 1912
p266
aVWales v South Africa at Cardiff, Dec 14, 1912
p267
aVWales v South Africa at Cardiff, Dec 14, 1912
p268
aVWales v South Africa at Cardiff, Dec 14, 1912
p269
aVWales v South Africa at Cardiff, Dec 14, 1912
p270
aVWales v South Africa at Cardiff, Dec 14, 1912
p271
aVWales v South Africa at Cardiff, Dec 14, 1912
p272
aVWales v South Africa at Cardiff, Dec 14, 1912
p273
aVScotland v Wales at Inverleith, Feb 1, 1913
p274
aVNew Zealand v Anglo-Welsh at Wellington, Jun 27, 1908
p275
aVScotland v Wales at Inverleith, Feb 1, 1913
p276
aVScotland v Wales at Inverleith, Feb 1, 1913
p277
aVScotland v Wales at Inverleith, Feb 1, 1913
p278
aVFrance v Wales at Parc des Princes, Feb 27, 1913
p279
aVFrance v Wales at Parc des Princes, Feb 27, 1913
p280
aVEngland v Wales at Twickenham, Jan 17, 1914
p281
aVEngland v Wales at Twickenham, Jan 17, 1914
p282
aVNew Zealand v Anglo-Welsh at Wellington, Jun 27, 1908
p283
aVEngland v Wales at Twickenham, Jan 17, 1914
p284
aVEngland v Wales at Twickenham, Jan 17, 1914
p285
aVWales v Scotland at Cardiff, Feb 7, 1914
p286
aVWales v Scotland at Cardiff, Feb 7, 1914
p287
aVWales v New Zealand Army at Swansea, Apr 21, 1919
p288
aVWales v New Zealand Army at Swansea, Apr 21, 1919
p289
aVWales v New Zealand Army at Swansea, Apr 21, 1919
p290
aVWales v New Zealand Army at Swansea, Apr 21, 1919
p291
aVWales v New Zealand Army at Swansea, Apr 21, 1919
p292
aVWales v New Zealand Army at Swansea, Apr 21, 1919
p293
aVWales v New Zealand Army at Swansea, Apr 21, 1919
p294
aVWales v New Zealand Army at Swansea, Apr 21, 1919
p295
aVWales v New Zealand Army at Swansea, Apr 21, 1919
p296
aVWales v New Zealand Army at Swansea, Apr 21, 1919
p297
aVWales v New Zealand Army at Swansea, Apr 21, 1919
p298
aVWales v New Zealand Army at Swansea, Apr 21, 1919
p299
aVWales v New Zealand Army at Swansea, Apr 21, 1919
p300
aVWales v England at Swansea, Jan 17, 1920
p301
aVWales v England at Swansea, Jan 17, 1920
p302
aVWales v England at Swansea, Jan 17, 1920
p303
aVWales v England at Swansea, Jan 17, 1920
p304
aVWales v England at Swansea, Jan 17, 1920
p305
aVWales v England at Swansea, Jan 17, 1920
p306
aVWales v England at Swansea, Jan 17, 1920
p307
aVWales v England at Swansea, Jan 17, 1920
p308
aVWales v England at Swansea, Jan 17, 1920
p309
aVScotland v Wales at Inverleith, Feb 7, 1920
p310
aVFrance v Wales at Colombes, Feb 17, 1920
p311
aVFrance v Wales at Colombes, Feb 17, 1920
p312
aVWales v Ireland at Cardiff, Mar 13, 1920
p313
aVEngland v Wales at Twickenham, Jan 15, 1921
p314
aVEngland v Wales at Twickenham, Jan 15, 1921
p315
aVEngland v Wales at Twickenham, Jan 15, 1921
p316
aVEngland v Wales at Twickenham, Jan 15, 1921
p317
aVEngland v Wales at Twickenham, Jan 15, 1921
p318
aVEngland v Wales at Twickenham, Jan 15, 1921
p319
aVEngland v Wales at Twickenham, Jan 15, 1921
p320
aVWales v Scotland at Swansea, Feb 5, 1921
p321
aVWales v Scotland at Swansea, Feb 5, 1921
p322
aVWales v Scotland at Swansea, Feb 5, 1921
p323
aVWales v Scotland at Swansea, Feb 5, 1921
p324
aVWales v France at Cardiff, Feb 26, 1921
p325
aVWales v France at Cardiff, Feb 26, 1921
p326
aVWales v France at Cardiff, Feb 26, 1921
p327
aVIreland v Wales at Belfast, Mar 12, 1921
p328
aVIreland v Wales at Belfast, Mar 12, 1921
p329
aVIreland v Wales at Belfast, Mar 12, 1921
p330
aVIreland v Wales at Belfast, Mar 12, 1921
p331
aVWales v England at Cardiff, Jan 21, 1922
p332
aVWales v England at Cardiff, Jan 21, 1922
p333
aVWales v England at Cardiff, Jan 21, 1922
p334
aVWales v England at Cardiff, Jan 21, 1922
p335
aVWales v England at Cardiff, Jan 21, 1922
p336
aVWales v England at Cardiff, Jan 21, 1922
p337
aVWales v England at Cardiff, Jan 21, 1922
p338
aVWales v England at Cardiff, Jan 21, 1922
p339
aVScotland v Wales at Inverleith, Feb 4, 1922
p340
aVEngland v Wales at Twickenham, Jan 20, 1923
p341
aVEngland v Wales at Twickenham, Jan 20, 1923
p342
aVEngland v Wales at Twickenham, Jan 20, 1923
p343
aVEngland v Wales at Twickenham, Jan 20, 1923
p344
aVEngland v Wales at Twickenham, Jan 20, 1923
p345
aVEngland v Wales at Twickenham, Jan 20, 1923
p346
aVWales v Scotland at Cardiff, Feb 3, 1923
p347
aVWales v France at Swansea, Feb 24, 1923
p348
aVWales v France at Swansea, Feb 24, 1923
p349
aVWales v France at Swansea, Feb 24, 1923
p350
aVIreland v Wales at Lansdowne Road, Mar 10, 1923
p351
aVIreland v Wales at Lansdowne Road, Mar 10, 1923
p352
aVIreland v Wales at Lansdowne Road, Mar 10, 1923
p353
aVIreland v Wales at Lansdowne Road, Mar 10, 1923
p354
aVIreland v Wales at Lansdowne Road, Mar 10, 1923
p355
aVIreland v Wales at Lansdowne Road, Mar 10, 1923
p356
aVWales v England at Swansea, Jan 19, 1924
p357
aVWales v England at Swansea, Jan 19, 1924
p358
aVWales v England at Swansea, Jan 19, 1924
p359
aVWales v England at Swansea, Jan 19, 1924
p360
aVWales v England at Swansea, Jan 19, 1924
p361
aVWales v England at Swansea, Jan 19, 1924
p362
aVWales v England at Swansea, Jan 19, 1924
p363
aVWales v England at Swansea, Jan 19, 1924
p364
aVWales v England at Swansea, Jan 19, 1924
p365
aVScotland v Wales at Inverleith, Feb 2, 1924
p366
aVScotland v Wales at Inverleith, Feb 2, 1924
p367
aVScotland v Wales at Inverleith, Feb 2, 1924
p368
aVScotland v Wales at Inverleith, Feb 2, 1924
p369
aVWales v Ireland at Cardiff, Mar 8, 1924
p370
aVWales v Ireland at Cardiff, Mar 8, 1924
p371
aVWales v Ireland at Cardiff, Mar 8, 1924
p372
aVWales v Ireland at Cardiff, Mar 8, 1924
p373
aVWales v Ireland at Cardiff, Mar 8, 1924
p374
aVWales v Ireland at Cardiff, Mar 8, 1924
p375
aVFrance v Wales at Colombes, Mar 27, 1924
p376
aVFrance v Wales at Colombes, Mar 27, 1924
p377
aVFrance v Wales at Colombes, Mar 27, 1924
p378
aVFrance v Wales at Colombes, Mar 27, 1924
p379
aVWales v New Zealand at Swansea, Nov 29, 1924
p380
aVWales v New Zealand at Swansea, Nov 29, 1924
p381
aVEngland v Wales at Twickenham, Jan 17, 1925
p382
aVEngland v Wales at Twickenham, Jan 17, 1925
p383
aVEngland v Wales at Twickenham, Jan 17, 1925
p384
aVEngland v Wales at Twickenham, Jan 17, 1925
p385
aVEngland v Wales at Twickenham, Jan 17, 1925
p386
aVEngland v Wales at Twickenham, Jan 17, 1925
p387
aVEngland v Wales at Twickenham, Jan 17, 1925
p388
aVWales v Scotland at Swansea, Feb 7, 1925
p389
aVWales v Scotland at Swansea, Feb 7, 1925
p390
aVWales v France at Cardiff, Feb 28, 1925
p391
aVWales v France at Cardiff, Feb 28, 1925
p392
aVIreland v Wales at Belfast, Mar 14, 1925
p393
aVIreland v Wales at Belfast, Mar 14, 1925
p394
aVIreland v Wales at Belfast, Mar 14, 1925
p395
aVIreland v Wales at Belfast, Mar 14, 1925
p396
aVIreland v Wales at Belfast, Mar 14, 1925
p397
aVWales v England at Cardiff, Jan 16, 1926
p398
aVWales v England at Cardiff, Jan 16, 1926
p399
aVWales v England at Cardiff, Jan 16, 1926
p400
aVWales v England at Cardiff, Jan 16, 1926
p401
aVWales v England at Cardiff, Jan 16, 1926
p402
aVWales v England at Cardiff, Jan 16, 1926
p403
aVWales v England at Cardiff, Jan 16, 1926
p404
aVWales v England at Cardiff, Jan 16, 1926
p405
aVScotland v Wales at Murrayfield, Feb 6, 1926
p406
aVScotland v Wales at Murrayfield, Feb 6, 1926
p407
aVScotland v Wales at Murrayfield, Feb 6, 1926
p408
aVWales v Ireland at Swansea, Mar 13, 1926
p409
aVWales v Ireland at Swansea, Mar 13, 1926
p410
aVWales v Ireland at Swansea, Mar 13, 1926
p411
aVEngland v Wales at Twickenham, Jan 15, 1927
p412
aVEngland v Wales at Twickenham, Jan 15, 1927
p413
aVEngland v Wales at Twickenham, Jan 15, 1927
p414
aVEngland v Wales at Twickenham, Jan 15, 1927
p415
aVWales v Scotland at Cardiff, Feb 5, 1927
p416
aVWales v Scotland at Cardiff, Feb 5, 1927
p417
aVWales v Scotland at Cardiff, Feb 5, 1927
p418
aVWales v Scotland at Cardiff, Feb 5, 1927
p419
aVWales v France at Swansea, Feb 26, 1927
p420
aVWales v France at Swansea, Feb 26, 1927
p421
aVWales v Australia at Cardiff, Nov 26, 1927
p422
aVWales v Australia at Cardiff, Nov 26, 1927
p423
aVWales v Australia at Cardiff, Nov 26, 1927
p424
aVWales v Australia at Cardiff, Nov 26, 1927
p425
aVWales v Australia at Cardiff, Nov 26, 1927
p426
aVWales v Australia at Cardiff, Nov 26, 1927
p427
aVWales v Australia at Cardiff, Nov 26, 1927
p428
aVWales v Australia at Cardiff, Nov 26, 1927
p429
aVWales v England at Swansea, Jan 21, 1928
p430
aVWales v England at Swansea, Jan 21, 1928
p431
aVFrance v Wales at Colombes, Apr 9, 1928
p432
aVEngland v Wales at Twickenham, Jan 19, 1929
p433
aVEngland v Wales at Twickenham, Jan 19, 1929
p434
aVEngland v Wales at Twickenham, Jan 19, 1929
p435
aVEngland v Wales at Twickenham, Jan 19, 1929
p436
aVEngland v Wales at Twickenham, Jan 19, 1929
p437
aVWales v Scotland at Swansea, Feb 2, 1929
p438
aVWales v Scotland at Swansea, Feb 2, 1929
p439
aVWales v Scotland at Swansea, Feb 2, 1929
p440
aVWales v Scotland at Swansea, Feb 2, 1929
p441
aVIreland v Wales at Belfast, Mar 9, 1929
p442
aVWales v England at Cardiff, Jan 18, 1930
p443
aVWales v England at Cardiff, Jan 18, 1930
p444
aVWales v England at Cardiff, Jan 18, 1930
p445
aVWales v England at Cardiff, Jan 18, 1930
p446
aVScotland v Wales at Murrayfield, Feb 1, 1930
p447
aVScotland v Wales at Murrayfield, Feb 1, 1930
p448
aVScotland v Wales at Murrayfield, Feb 1, 1930
p449
aVScotland v Wales at Murrayfield, Feb 1, 1930
p450
aVWales v Ireland at Swansea, Mar 8, 1930
p451
aVWales v Ireland at Swansea, Mar 8, 1930
p452
aVFrance v Wales at Colombes, Apr 21, 1930
p453
aVFrance v Wales at Colombes, Apr 21, 1930
p454
aVFrance v Wales at Colombes, Apr 21, 1930
p455
aVEngland v Wales at Twickenham, Jan 17, 1931
p456
aVWales v France at Swansea, Feb 28, 1931
p457
aVWales v France at Swansea, Feb 28, 1931
p458
aVWales v France at Swansea, Feb 28, 1931
p459
aVWales v South Africa at Swansea, Dec 5, 1931
p460
aVEngland v Wales at Twickenham, Jan 21, 1933
p461
aVEngland v Wales at Twickenham, Jan 21, 1933
p462
aVEngland v Wales at Twickenham, Jan 21, 1933
p463
aVEngland v Wales at Twickenham, Jan 21, 1933
p464
aVEngland v Wales at Twickenham, Jan 21, 1933
p465
aVEngland v Wales at Twickenham, Jan 21, 1933
p466
aVEngland v Wales at Twickenham, Jan 21, 1933
p467
aVWales v Scotland at Swansea, Feb 4, 1933
p468
aVWales v Scotland at Swansea, Feb 4, 1933
p469
aVWales v Scotland at Swansea, Feb 4, 1933
p470
a.