(lp1
VEngland v Wales at Blackheath, Feb 19, 1881
p2
aVEngland v Wales at Blackheath, Feb 19, 1881
p3
aVEngland v Wales at Blackheath, Feb 19, 1881
p4
aVEngland v Wales at Blackheath, Feb 19, 1881
p5
aVEngland v Wales at Blackheath, Feb 19, 1881
p6
aVEngland v Wales at Blackheath, Feb 19, 1881
p7
aVEngland v Wales at Blackheath, Feb 19, 1881
p8
aVEngland v Wales at Blackheath, Feb 19, 1881
p9
aVEngland v Wales at Blackheath, Feb 19, 1881
p10
aVEngland v Wales at Blackheath, Feb 19, 1881
p11
aVEngland v Wales at Blackheath, Feb 19, 1881
p12
aVEngland v Wales at Blackheath, Feb 19, 1881
p13
aVEngland v Wales at Blackheath, Feb 19, 1881
p14
aVEngland v Wales at Blackheath, Feb 19, 1881
p15
aVEngland v Wales at Blackheath, Feb 19, 1881
p16
aVIreland v Wales at Lansdowne Road, Jan 28, 1882
p17
aVIreland v Wales at Lansdowne Road, Jan 28, 1882
p18
aVIreland v Wales at Lansdowne Road, Jan 28, 1882
p19
aVIreland v Wales at Lansdowne Road, Jan 28, 1882
p20
aVIreland v Wales at Lansdowne Road, Jan 28, 1882
p21
aVIreland v Wales at Lansdowne Road, Jan 28, 1882
p22
aVIreland v Wales at Lansdowne Road, Jan 28, 1882
p23
aVIreland v Wales at Lansdowne Road, Jan 28, 1882
p24
aVIreland v Wales at Lansdowne Road, Jan 28, 1882
p25
aVIreland v Wales at Lansdowne Road, Jan 28, 1882
p26
aVIreland v Wales at Lansdowne Road, Jan 28, 1882
p27
aVWales v England at Swansea, Dec 16, 1882
p28
aVWales v England at Swansea, Dec 16, 1882
p29
aVWales v England at Swansea, Dec 16, 1882
p30
aVWales v England at Swansea, Dec 16, 1882
p31
aVWales v England at Swansea, Dec 16, 1882
p32
aVScotland v Wales at Edinburgh, Jan 8, 1883
p33
aVScotland v Wales at Edinburgh, Jan 8, 1883
p34
aVScotland v Wales at Edinburgh, Jan 8, 1883
p35
aVEngland v Wales at Leeds, Jan 5, 1884
p36
aVEngland v Wales at Leeds, Jan 5, 1884
p37
aVEngland v Wales at Leeds, Jan 5, 1884
p38
aVEngland v Wales at Leeds, Jan 5, 1884
p39
aVEngland v Wales at Leeds, Jan 5, 1884
p40
aVEngland v Wales at Leeds, Jan 5, 1884
p41
aVEngland v Wales at Leeds, Jan 5, 1884
p42
aVWales v Ireland at Cardiff, Apr 12, 1884
p43
aVWales v Ireland at Cardiff, Apr 12, 1884
p44
aVWales v Ireland at Cardiff, Apr 12, 1884
p45
aVWales v Ireland at Cardiff, Apr 12, 1884
p46
aVWales v Ireland at Cardiff, Apr 12, 1884
p47
aVWales v Ireland at Cardiff, Apr 12, 1884
p48
aVWales v England at Swansea, Jan 3, 1885
p49
aVWales v England at Swansea, Jan 3, 1885
p50
aVWales v England at Swansea, Jan 3, 1885
p51
aVWales v England at Swansea, Jan 3, 1885
p52
aVWales v England at Swansea, Jan 3, 1885
p53
aVScotland v Wales at Glasgow, Jan 10, 1885
p54
aVScotland v Wales at Glasgow, Jan 10, 1885
p55
aVScotland v Wales at Glasgow, Jan 10, 1885
p56
aVScotland v Wales at Glasgow, Jan 10, 1885
p57
aVEngland v Wales at Blackheath, Jan 2, 1886
p58
aVEngland v Wales at Blackheath, Jan 2, 1886
p59
aVEngland v Wales at Blackheath, Jan 2, 1886
p60
aVEngland v Wales at Blackheath, Jan 2, 1886
p61
aVEngland v Wales at Blackheath, Jan 2, 1886
p62
aVWales v Scotland at Cardiff, Jan 9, 1886
p63
aVWales v England at Llanelli, Jan 8, 1887
p64
aVWales v England at Llanelli, Jan 8, 1887
p65
aVWales v England at Llanelli, Jan 8, 1887
p66
aVWales v England at Llanelli, Jan 8, 1887
p67
aVScotland v Wales at Edinburgh, Feb 26, 1887
p68
aVScotland v Wales at Edinburgh, Feb 26, 1887
p69
aVScotland v Wales at Edinburgh, Feb 26, 1887
p70
aVIreland v Wales at Birkenhead, Mar 12, 1887
p71
aVIreland v Wales at Birkenhead, Mar 12, 1887
p72
aVWales v Scotland at Newport, Feb 4, 1888
p73
aVWales v Scotland at Newport, Feb 4, 1888
p74
aVWales v Scotland at Newport, Feb 4, 1888
p75
aVWales v Scotland at Newport, Feb 4, 1888
p76
aVWales v Scotland at Newport, Feb 4, 1888
p77
aVWales v Scotland at Newport, Feb 4, 1888
p78
aVWales v Scotland at Newport, Feb 4, 1888
p79
aVIreland v Wales at Lansdowne Road, Mar 3, 1888
p80
aVIreland v Wales at Lansdowne Road, Mar 3, 1888
p81
aVWales v New Zealand Natives at Swansea, Dec 22, 1888
p82
aVWales v New Zealand Natives at Swansea, Dec 22, 1888
p83
aVWales v New Zealand Natives at Swansea, Dec 22, 1888
p84
aVWales v New Zealand Natives at Swansea, Dec 22, 1888
p85
aVWales v New Zealand Natives at Swansea, Dec 22, 1888
p86
aVWales v New Zealand Natives at Swansea, Dec 22, 1888
p87
aVWales v New Zealand Natives at Swansea, Dec 22, 1888
p88
aVWales v New Zealand Natives at Swansea, Dec 22, 1888
p89
aVScotland v Wales at Edinburgh, Feb 2, 1889
p90
aVScotland v Wales at Edinburgh, Feb 2, 1889
p91
aVScotland v Wales at Edinburgh, Feb 2, 1889
p92
aVScotland v Wales at Edinburgh, Feb 2, 1889
p93
aVWales v Ireland at Swansea, Mar 2, 1889
p94
aVWales v Ireland at Swansea, Mar 2, 1889
p95
aVWales v Ireland at Swansea, Mar 2, 1889
p96
aVWales v Scotland at Cardiff, Feb 1, 1890
p97
aVWales v Scotland at Cardiff, Feb 1, 1890
p98
aVWales v Scotland at Cardiff, Feb 1, 1890
p99
aVWales v Scotland at Cardiff, Feb 1, 1890
p100
aVWales v Scotland at Cardiff, Feb 1, 1890
p101
aVIreland v Wales at Lansdowne Road, Mar 1, 1890
p102
aVIreland v Wales at Lansdowne Road, Mar 1, 1890
p103
aVWales v England at Newport, Jan 3, 1891
p104
aVWales v England at Newport, Jan 3, 1891
p105
aVWales v England at Newport, Jan 3, 1891
p106
aVWales v England at Newport, Jan 3, 1891
p107
aVScotland v Wales at Edinburgh, Feb 7, 1891
p108
aVScotland v Wales at Edinburgh, Feb 7, 1891
p109
aVScotland v Wales at Edinburgh, Feb 7, 1891
p110
aVWales v Ireland at Llanelli, Mar 7, 1891
p111
aVWales v Ireland at Llanelli, Mar 7, 1891
p112
aVWales v Ireland at Llanelli, Mar 7, 1891
p113
aVWales v Ireland at Llanelli, Mar 7, 1891
p114
aVWales v Ireland at Llanelli, Mar 7, 1891
p115
aVEngland v Wales at Blackheath, Jan 2, 1892
p116
aVEngland v Wales at Blackheath, Jan 2, 1892
p117
aVEngland v Wales at Blackheath, Jan 2, 1892
p118
aVEngland v Wales at Blackheath, Jan 2, 1892
p119
aVEngland v Wales at Blackheath, Jan 2, 1892
p120
aVWales v Scotland at Swansea, Feb 6, 1892
p121
aVIreland v Wales at Lansdowne Road, Mar 5, 1892
p122
aVIreland v Wales at Lansdowne Road, Mar 5, 1892
p123
aVIreland v Wales at Lansdowne Road, Mar 5, 1892
p124
aVWales v England at Cardiff, Jan 7, 1893
p125
aVWales v Scotland at Newport, Feb 3, 1894
p126
aVWales v Scotland at Newport, Feb 3, 1894
p127
aVIreland v Wales at Belfast, Mar 10, 1894
p128
aVIreland v Wales at Belfast, Mar 10, 1894
p129
aVIreland v Wales at Belfast, Mar 10, 1894
p130
aVWales v England at Swansea, Jan 5, 1895
p131
aVWales v England at Swansea, Jan 5, 1895
p132
aVWales v England at Swansea, Jan 5, 1895
p133
aVWales v England at Swansea, Jan 5, 1895
p134
aVWales v England at Swansea, Jan 5, 1895
p135
aVScotland v Wales at Edinburgh, Jan 26, 1895
p136
aVScotland v Wales at Edinburgh, Jan 26, 1895
p137
aVScotland v Wales at Edinburgh, Jan 26, 1895
p138
aVWales v Ireland at Cardiff, Mar 16, 1895
p139
aVWales v Ireland at Cardiff, Mar 16, 1895
p140
aVEngland v Wales at Blackheath, Jan 4, 1896
p141
aVEngland v Wales at Blackheath, Jan 4, 1896
p142
aVEngland v Wales at Blackheath, Jan 4, 1896
p143
aVWales v Scotland at Cardiff, Jan 25, 1896
p144
aVWales v Scotland at Cardiff, Jan 25, 1896
p145
aVWales v Scotland at Cardiff, Jan 25, 1896
p146
aVWales v Scotland at Cardiff, Jan 25, 1896
p147
aVWales v Scotland at Cardiff, Jan 25, 1896
p148
aVWales v Scotland at Cardiff, Jan 25, 1896
p149
aVIreland v Wales at Lansdowne Road, Mar 14, 1896
p150
aVIreland v Wales at Lansdowne Road, Mar 14, 1896
p151
aVWales v England at Newport, Jan 9, 1897
p152
aVWales v England at Newport, Jan 9, 1897
p153
aVWales v England at Newport, Jan 9, 1897
p154
aVWales v England at Newport, Jan 9, 1897
p155
aVIreland v Wales at Limerick, Mar 19, 1898
p156
aVIreland v Wales at Limerick, Mar 19, 1898
p157
aVIreland v Wales at Limerick, Mar 19, 1898
p158
aVIreland v Wales at Limerick, Mar 19, 1898
p159
aVIreland v Wales at Limerick, Mar 19, 1898
p160
aVIreland v Wales at Limerick, Mar 19, 1898
p161
aVIreland v Wales at Limerick, Mar 19, 1898
p162
aVWales v England at Swansea, Jan 7, 1899
p163
aVWales v England at Swansea, Jan 7, 1899
p164
aVWales v England at Swansea, Jan 7, 1899
p165
aVWales v England at Swansea, Jan 7, 1899
p166
aVWales v England at Swansea, Jan 7, 1899
p167
aVWales v England at Swansea, Jan 7, 1899
p168
aVWales v England at Swansea, Jan 7, 1899
p169
aVEngland v Wales at Gloucester, Jan 6, 1900
p170
aVEngland v Wales at Gloucester, Jan 6, 1900
p171
aVEngland v Wales at Gloucester, Jan 6, 1900
p172
aVEngland v Wales at Gloucester, Jan 6, 1900
p173
aVEngland v Wales at Gloucester, Jan 6, 1900
p174
aVEngland v Wales at Gloucester, Jan 6, 1900
p175
aVWales v Scotland at Swansea, Jan 27, 1900
p176
aVWales v England at Cardiff, Jan 5, 1901
p177
aVWales v Ireland at Swansea, Mar 16, 1901
p178
aVWales v Ireland at Swansea, Mar 16, 1901
p179
aVWales v Ireland at Swansea, Mar 16, 1901
p180
aVWales v Ireland at Swansea, Mar 16, 1901
p181
aVEngland v Wales at Blackheath, Jan 11, 1902
p182
aVEngland v Wales at Blackheath, Jan 11, 1902
p183
aVEngland v Wales at Blackheath, Jan 11, 1902
p184
aVEngland v Wales at Blackheath, Jan 11, 1902
p185
aVEngland v Wales at Blackheath, Jan 11, 1902
p186
aVEngland v Wales at Blackheath, Jan 11, 1902
p187
aVEngland v Wales at Blackheath, Jan 11, 1902
p188
aVWales v Scotland at Cardiff, Feb 1, 1902
p189
aVWales v England at Swansea, Jan 10, 1903
p190
aVWales v England at Swansea, Jan 10, 1903
p191
aVScotland v Wales at Inverleith, Feb 7, 1903
p192
aVWales v Ireland at Cardiff, Mar 14, 1903
p193
aVEngland v Wales at Leicester, Jan 9, 1904
p194
aVEngland v Wales at Leicester, Jan 9, 1904
p195
aVWales v Scotland at Swansea, Feb 6, 1904
p196
aVWales v Scotland at Swansea, Feb 6, 1904
p197
aVWales v Scotland at Swansea, Feb 6, 1904
p198
aVWales v Scotland at Swansea, Feb 6, 1904
p199
aVWales v Scotland at Swansea, Feb 6, 1904
p200
aVIreland v Wales at Belfast, Mar 12, 1904
p201
aVIreland v Wales at Belfast, Mar 12, 1904
p202
aVIreland v Wales at Belfast, Mar 12, 1904
p203
aVWales v Ireland at Swansea, Mar 11, 1905
p204
aVWales v Ireland at Swansea, Mar 11, 1905
p205
aVAustralia v Great Britain at Sydney, Jul 2, 1904
p206
aVEngland v Wales at Richmond, Jan 13, 1906
p207
aVWales v Scotland at Cardiff, Feb 3, 1906
p208
aVIreland v Wales at Belfast, Mar 10, 1906
p209
aVIreland v Wales at Belfast, Mar 10, 1906
p210
aVIreland v Wales at Belfast, Mar 10, 1906
p211
aVWales v South Africa at Swansea, Dec 1, 1906
p212
aVWales v South Africa at Swansea, Dec 1, 1906
p213
aVWales v South Africa at Swansea, Dec 1, 1906
p214
aVWales v South Africa at Swansea, Dec 1, 1906
p215
aVWales v England at Swansea, Jan 12, 1907
p216
aVWales v England at Swansea, Jan 12, 1907
p217
aVWales v England at Swansea, Jan 12, 1907
p218
aVWales v England at Swansea, Jan 12, 1907
p219
aVWales v England at Swansea, Jan 12, 1907
p220
aVScotland v Wales at Inverleith, Feb 2, 1907
p221
aVWales v Ireland at Cardiff, Mar 9, 1907
p222
aVWales v Ireland at Cardiff, Mar 9, 1907
p223
aVAustralia v Great Britain at Brisbane, Jul 23, 1904
p224
aVWales v Scotland at Swansea, Feb 1, 1908
p225
aVWales v Australia at Cardiff, Dec 12, 1908
p226
aVNew Zealand v Anglo-Welsh at Dunedin, Jun 6, 1908
p227
aVWales v Australia at Cardiff, Dec 12, 1908
p228
aVWales v Australia at Cardiff, Dec 12, 1908
p229
aVWales v England at Cardiff, Jan 16, 1909
p230
aVWales v England at Cardiff, Jan 16, 1909
p231
aVScotland v Wales at Inverleith, Feb 6, 1909
p232
aVFrance v Wales at Colombes, Feb 23, 1909
p233
aVFrance v Wales at Colombes, Feb 23, 1909
p234
aVWales v France at Swansea, Jan 1, 1910
p235
aVWales v France at Swansea, Jan 1, 1910
p236
aVEngland v Wales at Twickenham, Jan 15, 1910
p237
aVEngland v Wales at Twickenham, Jan 15, 1910
p238
aVWales v Scotland at Cardiff, Feb 5, 1910
p239
aVNew Zealand v Anglo-Welsh at Wellington, Jun 27, 1908
p240
aVWales v Scotland at Cardiff, Feb 5, 1910
p241
aVIreland v Wales at Lansdowne Road, Mar 12, 1910
p242
aVWales v England at Swansea, Jan 21, 1911
p243
aVWales v England at Swansea, Jan 21, 1911
p244
aVWales v England at Swansea, Jan 21, 1911
p245
aVScotland v Wales at Inverleith, Feb 4, 1911
p246
aVWales v Ireland at Cardiff, Mar 11, 1911
p247
aVEngland v Wales at Twickenham, Jan 20, 1912
p248
aVEngland v Wales at Twickenham, Jan 20, 1912
p249
aVEngland v Wales at Twickenham, Jan 20, 1912
p250
aVEngland v Wales at Twickenham, Jan 20, 1912
p251
aVEngland v Wales at Twickenham, Jan 20, 1912
p252
aVEngland v Wales at Twickenham, Jan 20, 1912
p253
aVWales v Scotland at Swansea, Feb 3, 1912
p254
aVWales v Scotland at Swansea, Feb 3, 1912
p255
aVWales v Scotland at Swansea, Feb 3, 1912
p256
aVIreland v Wales at Belfast, Mar 9, 1912
p257
aVIreland v Wales at Belfast, Mar 9, 1912
p258
aVIreland v Wales at Belfast, Mar 9, 1912
p259
aVIreland v Wales at Belfast, Mar 9, 1912
p260
aVIreland v Wales at Belfast, Mar 9, 1912
p261
aVIreland v Wales at Belfast, Mar 9, 1912
p262
aVIreland v Wales at Belfast, Mar 9, 1912
p263
aVWales v France at Newport, Mar 25, 1912
p264
aVWales v South Africa at Cardiff, Dec 14, 1912
p265
aVWales v South Africa at Cardiff, Dec 14, 1912
p266
aVWales v South Africa at Cardiff, Dec 14, 1912
p267
aVWales v South Africa at Cardiff, Dec 14, 1912
p268
aVWales v South Africa at Cardiff, Dec 14, 1912
p269
aVWales v South Africa at Cardiff, Dec 14, 1912
p270
aVWales v South Africa at Cardiff, Dec 14, 1912
p271
aVWales v South Africa at Cardiff, Dec 14, 1912
p272
aVWales v South Africa at Cardiff, Dec 14, 1912
p273
aVScotland v Wales at Inverleith, Feb 1, 1913
p274
aVNew Zealand v Anglo-Welsh at Wellington, Jun 27, 1908
p275
aVScotland v Wales at Inverleith, Feb 1, 1913
p276
aVScotland v Wales at Inverleith, Feb 1, 1913
p277
aVScotland v Wales at Inverleith, Feb 1, 1913
p278
aVFrance v Wales at Parc des Princes, Feb 27, 1913
p279
aVFrance v Wales at Parc des Princes, Feb 27, 1913
p280
aVEngland v Wales at Twickenham, Jan 17, 1914
p281
aVEngland v Wales at Twickenham, Jan 17, 1914
p282
aVNew Zealand v Anglo-Welsh at Wellington, Jun 27, 1908
p283
aVEngland v Wales at Twickenham, Jan 17, 1914
p284
aVEngland v Wales at Twickenham, Jan 17, 1914
p285
aVWales v Scotland at Cardiff, Feb 7, 1914
p286
aVWales v Scotland at Cardiff, Feb 7, 1914
p287
aVWales v New Zealand Services at Swansea, Apr 21, 1919
p288
aVWales v New Zealand Services at Swansea, Apr 21, 1919
p289
aVWales v New Zealand Services at Swansea, Apr 21, 1919
p290
aVWales v New Zealand Services at Swansea, Apr 21, 1919
p291
aVWales v New Zealand Services at Swansea, Apr 21, 1919
p292
aVWales v New Zealand Services at Swansea, Apr 21, 1919
p293
aVWales v New Zealand Services at Swansea, Apr 21, 1919
p294
aVWales v New Zealand Services at Swansea, Apr 21, 1919
p295
aVWales v New Zealand Services at Swansea, Apr 21, 1919
p296
aVWales v New Zealand Services at Swansea, Apr 21, 1919
p297
aVWales v New Zealand Services at Swansea, Apr 21, 1919
p298
aVWales v New Zealand Services at Swansea, Apr 21, 1919
p299
aVWales v New Zealand Services at Swansea, Apr 21, 1919
p300
aVWales v England at Swansea, Jan 17, 1920
p301
aVWales v England at Swansea, Jan 17, 1920
p302
aVWales v England at Swansea, Jan 17, 1920
p303
aVWales v England at Swansea, Jan 17, 1920
p304
aVWales v England at Swansea, Jan 17, 1920
p305
aVWales v England at Swansea, Jan 17, 1920
p306
aVWales v England at Swansea, Jan 17, 1920
p307
aVWales v England at Swansea, Jan 17, 1920
p308
aVWales v England at Swansea, Jan 17, 1920
p309
aVScotland v Wales at Inverleith, Feb 7, 1920
p310
aVFrance v Wales at Colombes, Feb 17, 1920
p311
aVFrance v Wales at Colombes, Feb 17, 1920
p312
aVWales v Ireland at Cardiff, Mar 13, 1920
p313
aVEngland v Wales at Twickenham, Jan 15, 1921
p314
aVEngland v Wales at Twickenham, Jan 15, 1921
p315
aVEngland v Wales at Twickenham, Jan 15, 1921
p316
aVEngland v Wales at Twickenham, Jan 15, 1921
p317
aVEngland v Wales at Twickenham, Jan 15, 1921
p318
aVEngland v Wales at Twickenham, Jan 15, 1921
p319
aVEngland v Wales at Twickenham, Jan 15, 1921
p320
aVWales v Scotland at Swansea, Feb 5, 1921
p321
aVWales v Scotland at Swansea, Feb 5, 1921
p322
aVWales v Scotland at Swansea, Feb 5, 1921
p323
aVWales v Scotland at Swansea, Feb 5, 1921
p324
aVWales v France at Cardiff, Feb 26, 1921
p325
aVWales v France at Cardiff, Feb 26, 1921
p326
aVWales v France at Cardiff, Feb 26, 1921
p327
aVIreland v Wales at Belfast, Mar 12, 1921
p328
aVIreland v Wales at Belfast, Mar 12, 1921
p329
aVIreland v Wales at Belfast, Mar 12, 1921
p330
aVIreland v Wales at Belfast, Mar 12, 1921
p331
aVWales v England at Cardiff, Jan 21, 1922
p332
aVWales v England at Cardiff, Jan 21, 1922
p333
aVWales v England at Cardiff, Jan 21, 1922
p334
aVWales v England at Cardiff, Jan 21, 1922
p335
aVWales v England at Cardiff, Jan 21, 1922
p336
aVWales v England at Cardiff, Jan 21, 1922
p337
aVWales v England at Cardiff, Jan 21, 1922
p338
aVWales v England at Cardiff, Jan 21, 1922
p339
aVScotland v Wales at Inverleith, Feb 4, 1922
p340
aVEngland v Wales at Twickenham, Jan 20, 1923
p341
aVEngland v Wales at Twickenham, Jan 20, 1923
p342
aVEngland v Wales at Twickenham, Jan 20, 1923
p343
aVEngland v Wales at Twickenham, Jan 20, 1923
p344
aVEngland v Wales at Twickenham, Jan 20, 1923
p345
aVEngland v Wales at Twickenham, Jan 20, 1923
p346
aVWales v Scotland at Cardiff, Feb 3, 1923
p347
aVWales v France at Swansea, Feb 24, 1923
p348
aVWales v France at Swansea, Feb 24, 1923
p349
aVWales v France at Swansea, Feb 24, 1923
p350
aVIreland v Wales at Lansdowne Road, Mar 10, 1923
p351
aVIreland v Wales at Lansdowne Road, Mar 10, 1923
p352
aVIreland v Wales at Lansdowne Road, Mar 10, 1923
p353
aVIreland v Wales at Lansdowne Road, Mar 10, 1923
p354
aVIreland v Wales at Lansdowne Road, Mar 10, 1923
p355
aVIreland v Wales at Lansdowne Road, Mar 10, 1923
p356
aVWales v England at Swansea, Jan 19, 1924
p357
aVWales v England at Swansea, Jan 19, 1924
p358
aVWales v England at Swansea, Jan 19, 1924
p359
aVWales v England at Swansea, Jan 19, 1924
p360
aVWales v England at Swansea, Jan 19, 1924
p361
aVWales v England at Swansea, Jan 19, 1924
p362
aVWales v England at Swansea, Jan 19, 1924
p363
aVWales v England at Swansea, Jan 19, 1924
p364
aVWales v England at Swansea, Jan 19, 1924
p365
aVScotland v Wales at Inverleith, Feb 2, 1924
p366
aVScotland v Wales at Inverleith, Feb 2, 1924
p367
aVScotland v Wales at Inverleith, Feb 2, 1924
p368
aVScotland v Wales at Inverleith, Feb 2, 1924
p369
aVWales v Ireland at Cardiff, Mar 8, 1924
p370
aVWales v Ireland at Cardiff, Mar 8, 1924
p371
aVWales v Ireland at Cardiff, Mar 8, 1924
p372
aVWales v Ireland at Cardiff, Mar 8, 1924
p373
aVWales v Ireland at Cardiff, Mar 8, 1924
p374
aVWales v Ireland at Cardiff, Mar 8, 1924
p375
aVFrance v Wales at Colombes, Mar 27, 1924
p376
aVFrance v Wales at Colombes, Mar 27, 1924
p377
aVFrance v Wales at Colombes, Mar 27, 1924
p378
aVFrance v Wales at Colombes, Mar 27, 1924
p379
aVWales v New Zealand at Swansea, Nov 29, 1924
p380
aVWales v New Zealand at Swansea, Nov 29, 1924
p381
aVEngland v Wales at Twickenham, Jan 17, 1925
p382
aVEngland v Wales at Twickenham, Jan 17, 1925
p383
aVEngland v Wales at Twickenham, Jan 17, 1925
p384
aVEngland v Wales at Twickenham, Jan 17, 1925
p385
aVEngland v Wales at Twickenham, Jan 17, 1925
p386
aVEngland v Wales at Twickenham, Jan 17, 1925
p387
aVEngland v Wales at Twickenham, Jan 17, 1925
p388
aVWales v Scotland at Swansea, Feb 7, 1925
p389
aVWales v Scotland at Swansea, Feb 7, 1925
p390
aVWales v France at Cardiff, Feb 28, 1925
p391
aVWales v France at Cardiff, Feb 28, 1925
p392
aVIreland v Wales at Belfast, Mar 14, 1925
p393
aVIreland v Wales at Belfast, Mar 14, 1925
p394
aVIreland v Wales at Belfast, Mar 14, 1925
p395
aVIreland v Wales at Belfast, Mar 14, 1925
p396
aVIreland v Wales at Belfast, Mar 14, 1925
p397
aVWales v England at Cardiff, Jan 16, 1926
p398
aVWales v England at Cardiff, Jan 16, 1926
p399
aVWales v England at Cardiff, Jan 16, 1926
p400
aVWales v England at Cardiff, Jan 16, 1926
p401
aVWales v England at Cardiff, Jan 16, 1926
p402
aVWales v England at Cardiff, Jan 16, 1926
p403
aVWales v England at Cardiff, Jan 16, 1926
p404
aVWales v England at Cardiff, Jan 16, 1926
p405
aVScotland v Wales at Murrayfield, Feb 6, 1926
p406
aVScotland v Wales at Murrayfield, Feb 6, 1926
p407
aVScotland v Wales at Murrayfield, Feb 6, 1926
p408
aVWales v Ireland at Swansea, Mar 13, 1926
p409
aVWales v Ireland at Swansea, Mar 13, 1926
p410
aVWales v Ireland at Swansea, Mar 13, 1926
p411
aVEngland v Wales at Twickenham, Jan 15, 1927
p412
aVEngland v Wales at Twickenham, Jan 15, 1927
p413
aVEngland v Wales at Twickenham, Jan 15, 1927
p414
aVEngland v Wales at Twickenham, Jan 15, 1927
p415
aVWales v Scotland at Cardiff, Feb 5, 1927
p416
aVWales v Scotland at Cardiff, Feb 5, 1927
p417
aVWales v Scotland at Cardiff, Feb 5, 1927
p418
aVWales v Scotland at Cardiff, Feb 5, 1927
p419
aVWales v France at Swansea, Feb 26, 1927
p420
aVWales v France at Swansea, Feb 26, 1927
p421
aVWales v Australia at Cardiff, Nov 26, 1927
p422
aVWales v Australia at Cardiff, Nov 26, 1927
p423
aVWales v Australia at Cardiff, Nov 26, 1927
p424
aVWales v Australia at Cardiff, Nov 26, 1927
p425
aVWales v Australia at Cardiff, Nov 26, 1927
p426
aVWales v Australia at Cardiff, Nov 26, 1927
p427
aVWales v Australia at Cardiff, Nov 26, 1927
p428
aVWales v Australia at Cardiff, Nov 26, 1927
p429
aVWales v England at Swansea, Jan 21, 1928
p430
aVWales v England at Swansea, Jan 21, 1928
p431
aVFrance v Wales at Colombes, Apr 9, 1928
p432
aVEngland v Wales at Twickenham, Jan 19, 1929
p433
aVEngland v Wales at Twickenham, Jan 19, 1929
p434
aVEngland v Wales at Twickenham, Jan 19, 1929
p435
aVEngland v Wales at Twickenham, Jan 19, 1929
p436
aVEngland v Wales at Twickenham, Jan 19, 1929
p437
aVWales v Scotland at Swansea, Feb 2, 1929
p438
aVWales v Scotland at Swansea, Feb 2, 1929
p439
aVWales v Scotland at Swansea, Feb 2, 1929
p440
aVWales v Scotland at Swansea, Feb 2, 1929
p441
aVIreland v Wales at Belfast, Mar 9, 1929
p442
aVWales v England at Cardiff, Jan 18, 1930
p443
aVWales v England at Cardiff, Jan 18, 1930
p444
aVWales v England at Cardiff, Jan 18, 1930
p445
aVWales v England at Cardiff, Jan 18, 1930
p446
aVScotland v Wales at Murrayfield, Feb 1, 1930
p447
aVScotland v Wales at Murrayfield, Feb 1, 1930
p448
aVScotland v Wales at Murrayfield, Feb 1, 1930
p449
aVScotland v Wales at Murrayfield, Feb 1, 1930
p450
aVWales v Ireland at Swansea, Mar 8, 1930
p451
aVWales v Ireland at Swansea, Mar 8, 1930
p452
aVFrance v Wales at Colombes, Apr 21, 1930
p453
aVFrance v Wales at Colombes, Apr 21, 1930
p454
aVFrance v Wales at Colombes, Apr 21, 1930
p455
aVEngland v Wales at Twickenham, Jan 17, 1931
p456
aVWales v France at Swansea, Feb 28, 1931
p457
aVWales v France at Swansea, Feb 28, 1931
p458
aVWales v France at Swansea, Feb 28, 1931
p459
aVWales v South Africa at Swansea, Dec 5, 1931
p460
aVEngland v Wales at Twickenham, Jan 21, 1933
p461
aVEngland v Wales at Twickenham, Jan 21, 1933
p462
aVEngland v Wales at Twickenham, Jan 21, 1933
p463
aVEngland v Wales at Twickenham, Jan 21, 1933
p464
aVEngland v Wales at Twickenham, Jan 21, 1933
p465
aVEngland v Wales at Twickenham, Jan 21, 1933
p466
aVEngland v Wales at Twickenham, Jan 21, 1933
p467
aVWales v Scotland at Swansea, Feb 4, 1933
p468
aVWales v Scotland at Swansea, Feb 4, 1933
p469
aVWales v Scotland at Swansea, Feb 4, 1933
p470
aVIreland v Wales at Belfast, Mar 11, 1933
p471
aVIreland v Wales at Belfast, Mar 11, 1933
p472
aVWales v England at Cardiff, Jan 20, 1934
p473
aVWales v England at Cardiff, Jan 20, 1934
p474
aVWales v England at Cardiff, Jan 20, 1934
p475
aVWales v England at Cardiff, Jan 20, 1934
p476
aVWales v England at Cardiff, Jan 20, 1934
p477
aVWales v England at Cardiff, Jan 20, 1934
p478
aVWales v England at Cardiff, Jan 20, 1934
p479
aVWales v England at Cardiff, Jan 20, 1934
p480
aVWales v England at Cardiff, Jan 20, 1934
p481
aVWales v England at Cardiff, Jan 20, 1934
p482
aVWales v England at Cardiff, Jan 20, 1934
p483
aVWales v England at Cardiff, Jan 20, 1934
p484
aVWales v England at Cardiff, Jan 20, 1934
p485
aVScotland v Wales at Murrayfield, Feb 3, 1934
p486
aVScotland v Wales at Murrayfield, Feb 3, 1934
p487
aVScotland v Wales at Murrayfield, Feb 3, 1934
p488
aVScotland v Wales at Murrayfield, Feb 3, 1934
p489
aVScotland v Wales at Murrayfield, Feb 3, 1934
p490
aVWales v Ireland at Swansea, Mar 10, 1934
p491
aVEngland v Wales at Twickenham, Jan 19, 1935
p492
aVWales v Scotland at Cardiff, Feb 2, 1935
p493
aVWales v Scotland at Cardiff, Feb 2, 1935
p494
aVIreland v Wales at Belfast, Mar 9, 1935
p495
aVWales v New Zealand at Cardiff, Dec 21, 1935
p496
aVWales v New Zealand at Cardiff, Dec 21, 1935
p497
aVWales v New Zealand at Cardiff, Dec 21, 1935
p498
aVWales v New Zealand at Cardiff, Dec 21, 1935
p499
aVWales v England at Swansea, Jan 18, 1936
p500
aVWales v England at Swansea, Jan 18, 1936
p501
aVWales v England at Swansea, Jan 18, 1936
p502
aVWales v England at Swansea, Jan 18, 1936
p503
aVWales v Ireland at Cardiff, Mar 14, 1936
p504
aVEngland v Wales at Twickenham, Jan 16, 1937
p505
aVEngland v Wales at Twickenham, Jan 16, 1937
p506
aVEngland v Wales at Twickenham, Jan 16, 1937
p507
aVWales v Scotland at Swansea, Feb 6, 1937
p508
aVWales v Scotland at Swansea, Feb 6, 1937
p509
aVWales v Scotland at Swansea, Feb 6, 1937
p510
aVIreland v Wales at Belfast, Apr 3, 1937
p511
aVIreland v Wales at Belfast, Apr 3, 1937
p512
aVIreland v Wales at Belfast, Apr 3, 1937
p513
aVWales v England at Cardiff, Jan 15, 1938
p514
aVWales v England at Cardiff, Jan 15, 1938
p515
aVWales v England at Cardiff, Jan 15, 1938
p516
aVWales v England at Cardiff, Jan 15, 1938
p517
aVEngland v Wales at Twickenham, Jan 21, 1939
p518
aVEngland v Wales at Twickenham, Jan 21, 1939
p519
aVEngland v Wales at Twickenham, Jan 21, 1939
p520
aVEngland v Wales at Twickenham, Jan 21, 1939
p521
aVEngland v Wales at Twickenham, Jan 21, 1939
p522
aVWales v Scotland at Cardiff, Feb 4, 1939
p523
aVWales v Scotland at Cardiff, Feb 4, 1939
p524
aVWales v Scotland at Cardiff, Feb 4, 1939
p525
aVSouth Africa v Great Britain at Johannesburg, Aug 6, 1938
p526
aVWales v Scotland at Cardiff, Feb 4, 1939
p527
aVWales v Scotland at Cardiff, Feb 4, 1939
p528
aVIreland v Wales at Belfast, Mar 11, 1939
p529
aVIreland v Wales at Belfast, Mar 11, 1939
p530
aVWales v England at Cardiff, Jan 18, 1947
p531
aVWales v England at Cardiff, Jan 18, 1947
p532
aVWales v England at Cardiff, Jan 18, 1947
p533
aVWales v England at Cardiff, Jan 18, 1947
p534
aVWales v England at Cardiff, Jan 18, 1947
p535
aVWales v England at Cardiff, Jan 18, 1947
p536
aVWales v England at Cardiff, Jan 18, 1947
p537
aVWales v England at Cardiff, Jan 18, 1947
p538
aVWales v England at Cardiff, Jan 18, 1947
p539
aVWales v England at Cardiff, Jan 18, 1947
p540
aVWales v England at Cardiff, Jan 18, 1947
p541
aVWales v England at Cardiff, Jan 18, 1947
p542
aVWales v England at Cardiff, Jan 18, 1947
p543
aVScotland v Wales at Murrayfield, Feb 1, 1947
p544
aVScotland v Wales at Murrayfield, Feb 1, 1947
p545
aVScotland v Wales at Murrayfield, Feb 1, 1947
p546
aVScotland v Wales at Murrayfield, Feb 1, 1947
p547
aVScotland v Wales at Murrayfield, Feb 1, 1947
p548
aVFrance v Wales at Colombes, Mar 22, 1947
p549
aVFrance v Wales at Colombes, Mar 22, 1947
p550
aVWales v Australia at Cardiff, Dec 20, 1947
p551
aVWales v Australia at Cardiff, Dec 20, 1947
p552
aVWales v Australia at Cardiff, Dec 20, 1947
p553
aVWales v Australia at Cardiff, Dec 20, 1947
p554
aVEngland v Wales at Twickenham, Jan 17, 1948
p555
aVEngland v Wales at Twickenham, Jan 17, 1948
p556
aVEngland v Wales at Twickenham, Jan 17, 1948
p557
aVWales v England at Cardiff, Jan 15, 1949
p558
aVWales v England at Cardiff, Jan 15, 1949
p559
aVWales v England at Cardiff, Jan 15, 1949
p560
aVWales v England at Cardiff, Jan 15, 1949
p561
aVScotland v Wales at Murrayfield, Feb 5, 1949
p562
aVFrance v Wales at Colombes, Mar 26, 1949
p563
aVFrance v Wales at Colombes, Mar 26, 1949
p564
aVFrance v Wales at Colombes, Mar 26, 1949
p565
aVFrance v Wales at Colombes, Mar 26, 1949
p566
aVEngland v Wales at Twickenham, Jan 21, 1950
p567
aVEngland v Wales at Twickenham, Jan 21, 1950
p568
aVEngland v Wales at Twickenham, Jan 21, 1950
p569
aVEngland v Wales at Twickenham, Jan 21, 1950
p570
aVEngland v Wales at Twickenham, Jan 21, 1950
p571
aVEngland v Wales at Twickenham, Jan 21, 1950
p572
aVIreland v Wales at Belfast, Mar 11, 1950
p573
aVWales v England at Swansea, Jan 20, 1951
p574
aVScotland v Wales at Murrayfield, Feb 3, 1951
p575
aVWales v Ireland at Cardiff, Mar 10, 1951
p576
aVWales v Ireland at Cardiff, Mar 10, 1951
p577
aVFrance v Wales at Colombes, Apr 7, 1951
p578
aVFrance v Wales at Colombes, Apr 7, 1951
p579
aVWales v South Africa at Cardiff, Dec 22, 1951
p580
aVEngland v Wales at Twickenham, Jan 19, 1952
p581
aVIreland v Wales at Lansdowne Road, Mar 8, 1952
p582
aVWales v France at Swansea, Mar 22, 1952
p583
aVWales v England at Cardiff, Jan 17, 1953
p584
aVWales v England at Cardiff, Jan 17, 1953
p585
aVWales v England at Cardiff, Jan 17, 1953
p586
aVWales v England at Cardiff, Jan 17, 1953
p587
aVWales v England at Cardiff, Jan 17, 1953
p588
aVWales v England at Cardiff, Jan 17, 1953
p589
aVScotland v Wales at Murrayfield, Feb 7, 1953
p590
aVScotland v Wales at Murrayfield, Feb 7, 1953
p591
aVWales v Ireland at Swansea, Mar 14, 1953
p592
aVWales v New Zealand at Cardiff, Dec 19, 1953
p593
aVEngland v Wales at Twickenham, Jan 16, 1954
p594
aVIreland v Wales at Lansdowne Road, Mar 13, 1954
p595
aVIreland v Wales at Lansdowne Road, Mar 13, 1954
p596
aVIreland v Wales at Lansdowne Road, Mar 13, 1954
p597
aVIreland v Wales at Lansdowne Road, Mar 13, 1954
p598
aVIreland v Wales at Lansdowne Road, Mar 13, 1954
p599
aVIreland v Wales at Lansdowne Road, Mar 13, 1954
p600
aVWales v France at Cardiff, Mar 27, 1954
p601
aVWales v Scotland at Swansea, Apr 10, 1954
p602
aVWales v England at Cardiff, Jan 22, 1955
p603
aVWales v England at Cardiff, Jan 22, 1955
p604
aVWales v England at Cardiff, Jan 22, 1955
p605
aVWales v Ireland at Cardiff, Mar 12, 1955
p606
aVFrance v Wales at Colombes, Mar 26, 1955
p607
aVEngland v Wales at Twickenham, Jan 21, 1956
p608
aVEngland v Wales at Twickenham, Jan 21, 1956
p609
aVEngland v Wales at Twickenham, Jan 21, 1956
p610
aVWales v Scotland at Cardiff, Feb 4, 1956
p611
aVWales v France at Cardiff, Mar 24, 1956
p612
aVWales v France at Cardiff, Mar 24, 1956
p613
aVWales v England at Cardiff, Jan 19, 1957
p614
aVWales v England at Cardiff, Jan 19, 1957
p615
aVWales v England at Cardiff, Jan 19, 1957
p616
aVScotland v Wales at Murrayfield, Feb 2, 1957
p617
aVScotland v Wales at Murrayfield, Feb 2, 1957
p618
aVWales v Ireland at Cardiff, Mar 9, 1957
p619
aVWales v Ireland at Cardiff, Mar 9, 1957
p620
aVWales v Ireland at Cardiff, Mar 9, 1957
p621
aVWales v Ireland at Cardiff, Mar 9, 1957
p622
aVWales v Australia at Cardiff, Jan 4, 1958
p623
aVWales v Australia at Cardiff, Jan 4, 1958
p624
aVWales v Australia at Cardiff, Jan 4, 1958
p625
aVWales v Australia at Cardiff, Jan 4, 1958
p626
aVWales v Australia at Cardiff, Jan 4, 1958
p627
aVEngland v Wales at Twickenham, Jan 18, 1958
p628
aVIreland v Wales at Lansdowne Road, Mar 15, 1958
p629
aVIreland v Wales at Lansdowne Road, Mar 15, 1958
p630
aVIreland v Wales at Lansdowne Road, Mar 15, 1958
p631
aVIreland v Wales at Lansdowne Road, Mar 15, 1958
p632
aVWales v England at Cardiff, Jan 17, 1959
p633
aVWales v England at Cardiff, Jan 17, 1959
p634
aVWales v England at Cardiff, Jan 17, 1959
p635
aVWales v England at Cardiff, Jan 17, 1959
p636
aVWales v England at Cardiff, Jan 17, 1959
p637
aVWales v England at Cardiff, Jan 17, 1959
p638
aVWales v England at Cardiff, Jan 17, 1959
p639
aVWales v Ireland at Cardiff, Mar 14, 1959
p640
aVFrance v Wales at Colombes, Apr 4, 1959
p641
aVFrance v Wales at Colombes, Apr 4, 1959
p642
aVFrance v Wales at Colombes, Apr 4, 1959
p643
aVEngland v Wales at Twickenham, Jan 16, 1960
p644
aVEngland v Wales at Twickenham, Jan 16, 1960
p645
aVEngland v Wales at Twickenham, Jan 16, 1960
p646
aVEngland v Wales at Twickenham, Jan 16, 1960
p647
aVEngland v Wales at Twickenham, Jan 16, 1960
p648
aVWales v Scotland at Cardiff, Feb 6, 1960
p649
aVWales v Scotland at Cardiff, Feb 6, 1960
p650
aVIreland v Wales at Lansdowne Road, Mar 12, 1960
p651
aVIreland v Wales at Lansdowne Road, Mar 12, 1960
p652
aVWales v France at Cardiff, Mar 26, 1960
p653
aVWales v South Africa at Cardiff, Dec 3, 1960
p654
aVWales v South Africa at Cardiff, Dec 3, 1960
p655
aVWales v South Africa at Cardiff, Dec 3, 1960
p656
aVWales v South Africa at Cardiff, Dec 3, 1960
p657
aVWales v South Africa at Cardiff, Dec 3, 1960
p658
aVWales v South Africa at Cardiff, Dec 3, 1960
p659
aVWales v England at Cardiff, Jan 21, 1961
p660
aVWales v England at Cardiff, Jan 21, 1961
p661
aVScotland v Wales at Murrayfield, Feb 11, 1961
p662
aVWales v Ireland at Cardiff, Mar 11, 1961
p663
aVWales v Ireland at Cardiff, Mar 11, 1961
p664
aVFrance v Wales at Colombes, Mar 25, 1961
p665
aVFrance v Wales at Colombes, Mar 25, 1961
p666
aVFrance v Wales at Colombes, Mar 25, 1961
p667
aVEngland v Wales at Twickenham, Jan 20, 1962
p668
aVEngland v Wales at Twickenham, Jan 20, 1962
p669
aVEngland v Wales at Twickenham, Jan 20, 1962
p670
aVEngland v Wales at Twickenham, Jan 20, 1962
p671
aVWales v Scotland at Cardiff, Feb 3, 1962
p672
aVWales v France at Cardiff, Mar 24, 1962
p673
aVIreland v Wales at Lansdowne Road, Nov 17, 1962
p674
aVIreland v Wales at Lansdowne Road, Nov 17, 1962
p675
aVIreland v Wales at Lansdowne Road, Nov 17, 1962
p676
aVIreland v Wales at Lansdowne Road, Nov 17, 1962
p677
aVWales v England at Cardiff, Jan 19, 1963
p678
aVWales v England at Cardiff, Jan 19, 1963
p679
aVWales v England at Cardiff, Jan 19, 1963
p680
aVWales v England at Cardiff, Jan 19, 1963
p681
aVWales v England at Cardiff, Jan 19, 1963
p682
aVWales v England at Cardiff, Jan 19, 1963
p683
aVScotland v Wales at Murrayfield, Feb 2, 1963
p684
aVScotland v Wales at Murrayfield, Feb 2, 1963
p685
aVScotland v Wales at Murrayfield, Feb 2, 1963
p686
aVFrance v Wales at Colombes, Mar 23, 1963
p687
aVWales v New Zealand at Cardiff, Dec 21, 1963
p688
aVWales v New Zealand at Cardiff, Dec 21, 1963
p689
aVEngland v Wales at Twickenham, Jan 18, 1964
p690
aVEngland v Wales at Twickenham, Jan 18, 1964
p691
aVEngland v Wales at Twickenham, Jan 18, 1964
p692
aVWales v Scotland at Cardiff, Feb 1, 1964
p693
aVWales v Scotland at Cardiff, Feb 1, 1964
p694
aVIreland v Wales at Lansdowne Road, Mar 7, 1964
p695
aVWales v England at Cardiff, Jan 16, 1965
p696
aVWales v England at Cardiff, Jan 16, 1965
p697
aVScotland v Wales at Murrayfield, Feb 6, 1965
p698
aVEngland v Wales at Twickenham, Jan 15, 1966
p699
aVEngland v Wales at Twickenham, Jan 15, 1966
p700
aVEngland v Wales at Twickenham, Jan 15, 1966
p701
aVWales v Australia at Cardiff, Dec 3, 1966
p702
aVWales v Australia at Cardiff, Dec 3, 1966
p703
aVWales v Australia at Cardiff, Dec 3, 1966
p704
aVNew Zealand v British and Irish Lions at Wellington, Aug 6, 1966
p705
aVScotland v Wales at Murrayfield, Feb 4, 1967
p706
aVScotland v Wales at Murrayfield, Feb 4, 1967
p707
aVScotland v Wales at Murrayfield, Feb 4, 1967
p708
aVScotland v Wales at Murrayfield, Feb 4, 1967
p709
aVScotland v Wales at Murrayfield, Feb 4, 1967
p710
aVScotland v Wales at Murrayfield, Feb 4, 1967
p711
aVFrance v Wales at Colombes, Apr 1, 1967
p712
aVFrance v Wales at Colombes, Apr 1, 1967
p713
aVFrance v Wales at Colombes, Apr 1, 1967
p714
aVWales v England at Cardiff, Apr 15, 1967
p715
aVWales v New Zealand at Cardiff, Nov 11, 1967
p716
aVWales v New Zealand at Cardiff, Nov 11, 1967
p717
aVWales v New Zealand at Cardiff, Nov 11, 1967
p718
aVWales v New Zealand at Cardiff, Nov 11, 1967
p719
aVWales v New Zealand at Cardiff, Nov 11, 1967
p720
aVWales v New Zealand at Cardiff, Nov 11, 1967
p721
aVEngland v Wales at Twickenham, Jan 20, 1968
p722
aVEngland v Wales at Twickenham, Jan 20, 1968
p723
aVEngland v Wales at Twickenham, Jan 20, 1968
p724
aVWales v Scotland at Cardiff, Feb 3, 1968
p725
aVWales v Scotland at Cardiff, Feb 3, 1968
p726
aVIreland v Wales at Lansdowne Road, Mar 9, 1968
p727
aVIreland v Wales at Lansdowne Road, Mar 9, 1968
p728
aVScotland v Wales at Murrayfield, Feb 1, 1969
p729
aVScotland v Wales at Murrayfield, Feb 1, 1969
p730
aVFrance v Wales at Colombes, Mar 22, 1969
p731
aVWales v South Africa at Cardiff, Jan 24, 1970
p732
aVWales v South Africa at Cardiff, Jan 24, 1970
p733
aVWales v South Africa at Cardiff, Jan 24, 1970
p734
aVWales v Scotland at Cardiff, Feb 7, 1970
p735
aVEngland v Wales at Twickenham, Feb 28, 1970
p736
aVIreland v Wales at Lansdowne Road, Mar 14, 1970
p737
aVWales v France at Cardiff, Apr 4, 1970
p738
aVWales v France at Cardiff, Apr 4, 1970
p739
aVWales v France at Cardiff, Apr 4, 1970
p740
aVWales v France at Cardiff, Apr 4, 1970
p741
aVWales v England at Cardiff, Jan 16, 1971
p742
aVWales v England at Cardiff, Jan 16, 1971
p743
aVEngland v Wales at Twickenham, Jan 15, 1972
p744
aVNew Zealand v British and Irish Lions at Wellington, Jul 31, 1971
p745
aVWales v New Zealand at Cardiff, Dec 2, 1972
p746
aVWales v Ireland at Cardiff, Mar 10, 1973
p747
aVFrance v Wales at Parc des Princes, Mar 24, 1973
p748
aVFrance v Wales at Parc des Princes, Mar 24, 1973
p749
aVWales v Australia at Cardiff, Nov 10, 1973
p750
aVWales v Australia at Cardiff, Nov 10, 1973
p751
aVWales v Australia at Cardiff, Nov 10, 1973
p752
aVWales v Scotland at Cardiff, Jan 19, 1974
p753
aVIreland v Wales at Lansdowne Road, Feb 2, 1974
p754
aVIreland v Wales at Lansdowne Road, Feb 2, 1974
p755
aVIreland v Wales at Lansdowne Road, Feb 2, 1974
p756
aVIreland v Wales at Lansdowne Road, Feb 2, 1974
p757
aVWales v France at Cardiff, Feb 16, 1974
p758
aVEngland v Wales at Twickenham, Mar 16, 1974
p759
aVFrance v Wales at Parc des Princes, Jan 18, 1975
p760
aVFrance v Wales at Parc des Princes, Jan 18, 1975
p761
aVFrance v Wales at Parc des Princes, Jan 18, 1975
p762
aVFrance v Wales at Parc des Princes, Jan 18, 1975
p763
aVFrance v Wales at Parc des Princes, Jan 18, 1975
p764
aVFrance v Wales at Parc des Princes, Jan 18, 1975
p765
aVWales v France at Cardiff, Mar 6, 1976
p766
aVWales v Ireland at Cardiff, Jan 15, 1977
p767
aVWales v Ireland at Cardiff, Jan 15, 1977
p768
aVWales v Ireland at Cardiff, Jan 15, 1977
p769
aVFrance v Wales at Parc des Princes, Feb 5, 1977
p770
aVWales v England at Cardiff, Mar 5, 1977
p771
aVAustralia v Wales at Brisbane, Jun 11, 1978
p772
aVNew Zealand v British and Irish Lions at Wellington, Jun 18, 1977
p773
aVAustralia v Wales at Brisbane, Jun 11, 1978
p774
aVAustralia v Wales at Sydney, Jun 17, 1978
p775
aVAustralia v Wales at Sydney, Jun 17, 1978
p776
aVAustralia v Wales at Sydney, Jun 17, 1978
p777
aVAustralia v Wales at Sydney, Jun 17, 1978
p778
aVWales v New Zealand at Cardiff, Nov 11, 1978
p779
aVNew Zealand v British and Irish Lions at Auckland, Aug 13, 1977
p780
aVFrance v Wales at Parc des Princes, Feb 17, 1979
p781
aVFrance v Wales at Parc des Princes, Feb 17, 1979
p782
aVWales v England at Cardiff, Mar 17, 1979
p783
aVWales v England at Cardiff, Mar 17, 1979
p784
aVWales v France at Cardiff, Jan 19, 1980
p785
aVWales v France at Cardiff, Jan 19, 1980
p786
aVWales v Scotland at Cardiff, Mar 1, 1980
p787
aVWales v New Zealand at Cardiff, Nov 1, 1980
p788
aVWales v New Zealand at Cardiff, Nov 1, 1980
p789
aVWales v England at Cardiff, Jan 17, 1981
p790
aVWales v England at Cardiff, Jan 17, 1981
p791
aVWales v England at Cardiff, Jan 17, 1981
p792
aVScotland v Wales at Murrayfield, Feb 7, 1981
p793
aVWales v Ireland at Cardiff, Feb 21, 1981
p794
aVWales v Ireland at Cardiff, Feb 21, 1981
p795
aVWales v Australia at Cardiff, Dec 5, 1981
p796
aVWales v Australia at Cardiff, Dec 5, 1981
p797
aVWales v Australia at Cardiff, Dec 5, 1981
p798
aVWales v France at Cardiff, Feb 6, 1982
p799
aVWales v Scotland at Cardiff, Mar 20, 1982
p800
aVWales v England at Cardiff, Feb 5, 1983
p801
aVWales v England at Cardiff, Feb 5, 1983
p802
aVWales v England at Cardiff, Feb 5, 1983
p803
aVWales v England at Cardiff, Feb 5, 1983
p804
aVWales v England at Cardiff, Feb 5, 1983
p805
aVScotland v Wales at Murrayfield, Feb 19, 1983
p806
aVScotland v Wales at Murrayfield, Feb 19, 1983
p807
aVScotland v Wales at Murrayfield, Feb 19, 1983
p808
aVFrance v Wales at Parc des Princes, Mar 19, 1983
p809
aVRomania v Wales at Bucharest, Nov 12, 1983
p810
aVRomania v Wales at Bucharest, Nov 12, 1983
p811
aVRomania v Wales at Bucharest, Nov 12, 1983
p812
aVRomania v Wales at Bucharest, Nov 12, 1983
p813
aVRomania v Wales at Bucharest, Nov 12, 1983
p814
aVRomania v Wales at Bucharest, Nov 12, 1983
p815
aVWales v Scotland at Cardiff, Jan 21, 1984
p816
aVWales v Scotland at Cardiff, Jan 21, 1984
p817
aVWales v Scotland at Cardiff, Jan 21, 1984
p818
aVIreland v Wales at Lansdowne Road, Feb 4, 1984
p819
aVWales v Australia at Cardiff, Nov 24, 1984
p820
aVWales v Australia at Cardiff, Nov 24, 1984
p821
aVWales v Australia at Cardiff, Nov 24, 1984
p822
aVWales v Australia at Cardiff, Nov 24, 1984
p823
aVScotland v Wales at Murrayfield, Mar 2, 1985
p824
aVFrance v Wales at Parc des Princes, Mar 30, 1985
p825
aVFrance v Wales at Parc des Princes, Mar 30, 1985
p826
aVFrance v Wales at Parc des Princes, Mar 30, 1985
p827
aVWales v England at Cardiff, Apr 20, 1985
p828
aVWales v England at Cardiff, Apr 20, 1985
p829
aVWales v England at Cardiff, Apr 20, 1985
p830
aVEngland v Wales at Twickenham, Jan 18, 1986
p831
aVEngland v Wales at Twickenham, Jan 18, 1986
p832
aVEngland v Wales at Twickenham, Jan 18, 1986
p833
aVIreland v Wales at Lansdowne Road, Feb 15, 1986
p834
aVTonga v Wales at Nuku A'lofa, Jun 12, 1986
p835
aVTonga v Wales at Nuku A'lofa, Jun 12, 1986
p836
aVFrance v Wales at Parc des Princes, Feb 7, 1987
p837
aVFrance v Wales at Parc des Princes, Feb 7, 1987
p838
aVWales v England at Cardiff, Mar 7, 1987
p839
aVScotland v Wales at Murrayfield, Mar 21, 1987
p840
aVScotland v Wales at Murrayfield, Mar 21, 1987
p841
aVWales v Ireland at Cardiff, Apr 4, 1987
p842
aVTonga v Wales at Palmerston North, May 29, 1987
p843
aVEngland v Wales at Brisbane, Jun 8, 1987
p844
aVAustralia v Wales at Rotorua, Jun 18, 1987
p845
aVWales v United States of America at Cardiff, Nov 7, 1987
p846
aVWales v United States of America at Cardiff, Nov 7, 1987
p847
aVWales v United States of America at Cardiff, Nov 7, 1987
p848
aVWales v United States of America at Cardiff, Nov 7, 1987
p849
aVEngland v Wales at Twickenham, Feb 6, 1988
p850
aVEngland v Wales at Twickenham, Feb 6, 1988
p851
aVNew Zealand v Wales at Christchurch, May 28, 1988
p852
aVNew Zealand v Wales at Christchurch, May 28, 1988
p853
aVNew Zealand v Wales at Christchurch, May 28, 1988
p854
aVNew Zealand v Wales at Auckland, Jun 11, 1988
p855
aVNew Zealand v Wales at Auckland, Jun 11, 1988
p856
aVNew Zealand v Wales at Auckland, Jun 11, 1988
p857
aVNew Zealand v Wales at Auckland, Jun 11, 1988
p858
aVNew Zealand v Wales at Auckland, Jun 11, 1988
p859
aVWales v Samoa at Cardiff, Nov 12, 1988
p860
aVWales v Samoa at Cardiff, Nov 12, 1988
p861
aVWales v Samoa at Cardiff, Nov 12, 1988
p862
aVWales v Samoa at Cardiff, Nov 12, 1988
p863
aVWales v Samoa at Cardiff, Nov 12, 1988
p864
aVWales v Romania at Cardiff, Dec 10, 1988
p865
aVScotland v Wales at Murrayfield, Jan 21, 1989
p866
aVWales v Ireland at Cardiff, Feb 4, 1989
p867
aVWales v Ireland at Cardiff, Feb 4, 1989
p868
aVFrance v Wales at Parc des Princes, Feb 18, 1989
p869
aVWales v England at Cardiff, Mar 18, 1989
p870
aVWales v New Zealand at Cardiff, Nov 4, 1989
p871
aVWales v New Zealand at Cardiff, Nov 4, 1989
p872
aVWales v France at Cardiff, Jan 20, 1990
p873
aVWales v Scotland at Cardiff, Mar 3, 1990
p874
aVWales v Scotland at Cardiff, Mar 3, 1990
p875
aVWales v Scotland at Cardiff, Mar 3, 1990
p876
aVIreland v Wales at Lansdowne Road, Mar 24, 1990
p877
aVIreland v Wales at Lansdowne Road, Mar 24, 1990
p878
aVNamibia v Wales at Windhoek, Jun 2, 1990
p879
aVNamibia v Wales at Windhoek, Jun 2, 1990
p880
aVNamibia v Wales at Windhoek, Jun 2, 1990
p881
aVNamibia v Wales at Windhoek, Jun 2, 1990
p882
aVNamibia v Wales at Windhoek, Jun 2, 1990
p883
aVNamibia v Wales at Windhoek, Jun 2, 1990
p884
aVNamibia v Wales at Windhoek, Jun 9, 1990
p885
aVNamibia v Wales at Windhoek, Jun 9, 1990
p886
aVWales v Barbarians at Cardiff, Oct 6, 1990
p887
aVWales v England at Cardiff, Jan 19, 1991
p888
aVWales v England at Cardiff, Jan 19, 1991
p889
aVWales v England at Cardiff, Jan 19, 1991
p890
aVWales v England at Cardiff, Jan 19, 1991
p891
aVWales v Ireland at Cardiff, Feb 16, 1991
p892
aVWales v Ireland at Cardiff, Feb 16, 1991
p893
aVAustralia v Wales at Brisbane, Jul 22, 1991
p894
aVWales v France at Cardiff, Sep 4, 1991
p895
aVWales v France at Cardiff, Sep 4, 1991
p896
aVWales v Samoa at Cardiff, Oct 6, 1991
p897
aVWales v Samoa at Cardiff, Oct 6, 1991
p898
aVIreland v Wales at Lansdowne Road, Jan 18, 1992
p899
aVIreland v Wales at Lansdowne Road, Jan 18, 1992
p900
aVIreland v Wales at Lansdowne Road, Jan 18, 1992
p901
aVWales v Scotland at Cardiff, Mar 21, 1992
p902
aVWales v Australia at Cardiff, Nov 21, 1992
p903
aVWales v England at Cardiff, Feb 6, 1993
p904
aVWales v England at Cardiff, Feb 6, 1993
p905
aVWales v Ireland at Cardiff, Mar 6, 1993
p906
aVFrance v Wales at Parc des Princes, Mar 20, 1993
p907
aVFrance v Wales at Parc des Princes, Mar 20, 1993
p908
aVZimbabwe v Wales at Bulawayo, May 22, 1993
p909
aVZimbabwe v Wales at Bulawayo, May 22, 1993
p910
aVZimbabwe v Wales at Bulawayo, May 22, 1993
p911
aVWales v Canada at Cardiff, Nov 10, 1993
p912
aVPortugal v Wales at Lisbon, May 18, 1994
p913
aVFiji v Wales at Suva, Jun 18, 1994
p914
aVTonga v Wales at Nuku A'lofa, Jun 22, 1994
p915
aVTonga v Wales at Nuku A'lofa, Jun 22, 1994
p916
aVTonga v Wales at Nuku A'lofa, Jun 22, 1994
p917
aVTonga v Wales at Nuku A'lofa, Jun 22, 1994
p918
aVWales v South Africa at Cardiff, Nov 26, 1994
p919
aVWales v South Africa at Cardiff, Nov 26, 1994
p920
aVFrance v Wales at Parc des Princes, Jan 21, 1995
p921
aVScotland v Wales at Murrayfield, Mar 4, 1995
p922
aVWales v Ireland at Cardiff, Mar 18, 1995
p923
aVJapan v Wales at Bloemfontein, May 27, 1995
p924
aVJapan v Wales at Bloemfontein, May 27, 1995
p925
aVJapan v Wales at Bloemfontein, May 27, 1995
p926
aVNew Zealand v Wales at Johannesburg, May 31, 1995
p927
aVNew Zealand v Wales at Johannesburg, May 31, 1995
p928
aVNew Zealand v Wales at Johannesburg, May 31, 1995
p929
aVSouth Africa v Wales at Johannesburg, Sep 2, 1995
p930
aVSouth Africa v Wales at Johannesburg, Sep 2, 1995
p931
aVSouth Africa v Wales at Johannesburg, Sep 2, 1995
p932
aVSouth Africa v Wales at Johannesburg, Sep 2, 1995
p933
aVWales v Fiji at Cardiff, Nov 11, 1995
p934
aVWales v Fiji at Cardiff, Nov 11, 1995
p935
aVWales v Italy at Cardiff, Jan 16, 1996
p936
aVWales v Italy at Cardiff, Jan 16, 1996
p937
aVWales v Italy at Cardiff, Jan 16, 1996
p938
aVWales v Italy at Cardiff, Jan 16, 1996
p939
aVWales v Italy at Cardiff, Jan 16, 1996
p940
aVEngland v Wales at Twickenham, Feb 3, 1996
p941
aVAustralia v Wales at Brisbane, Jun 9, 1996
p942
aVAustralia v Wales at Sydney, Jun 22, 1996
p943
aVWales v Barbarians at Cardiff, Aug 24, 1996
p944
aVWales v Barbarians at Cardiff, Aug 24, 1996
p945
aVWales v France at Cardiff, Sep 25, 1996
p946
aVWales v Australia at Cardiff, Dec 1, 1996
p947
aVWales v South Africa at Cardiff, Dec 15, 1996
p948
aVWales v South Africa at Cardiff, Dec 15, 1996
p949
aVWales v South Africa at Cardiff, Dec 15, 1996
p950
aVUnited States of America v Wales at Wilmington, Jul 5, 1997
p951
aVUnited States of America v Wales at Wilmington, Jul 5, 1997
p952
aVCanada v Wales at Markham, Jul 19, 1997
p953
aVCanada v Wales at Markham, Jul 19, 1997
p954
aVWales v Romania at Wrexham, Aug 30, 1997
p955
aVWales v Tonga at Swansea, Nov 16, 1997
p956
aVEngland v Wales at Twickenham, Feb 21, 1998
p957
aVZimbabwe v Wales at Harare, Jun 6, 1998
p958
aVZimbabwe v Wales at Harare, Jun 6, 1998
p959
aVZimbabwe v Wales at Harare, Jun 6, 1998
p960
aVZimbabwe v Wales at Harare, Jun 6, 1998
p961
aVZimbabwe v Wales at Harare, Jun 6, 1998
p962
aVZimbabwe v Wales at Harare, Jun 6, 1998
p963
aVSouth Africa v Wales at Pretoria, Jun 27, 1998
p964
aVSouth Africa v Wales at Pretoria, Jun 27, 1998
p965
aVSouth Africa v Wales at Pretoria, Jun 27, 1998
p966
aVSouth Africa v Wales at Pretoria, Jun 27, 1998
p967
aVSouth Africa v Wales at Pretoria, Jun 27, 1998
p968
aVSouth Africa v Wales at Pretoria, Jun 27, 1998
p969
aVNew Zealand v South Africa at Dunedin, Jul 9, 1994
p970
aVSouth Africa v Wales at Wembley, Nov 14, 1998
p971
aVScotland v Wales at Murrayfield, Feb 6, 1999
p972
aVFrance v Wales at Stade de France, Mar 6, 1999
p973
aVFrance v Wales at Stade de France, Mar 6, 1999
p974
aVItaly v Wales at Treviso, Mar 20, 1999
p975
aVWales v Argentina at Millennium Stadium, Oct 1, 1999
p976
aVWales v France at Millennium Stadium, Feb 5, 2000
p977
aVWales v France at Millennium Stadium, Feb 5, 2000
p978
aVWales v Scotland at Millennium Stadium, Mar 18, 2000
p979
aVWales v Scotland at Millennium Stadium, Mar 18, 2000
p980
aVIreland v Wales at Lansdowne Road, Apr 1, 2000
p981
aVWales v Samoa at Millennium Stadium, Nov 11, 2000
p982
aVWales v Samoa at Millennium Stadium, Nov 11, 2000
p983
aVWales v Samoa at Millennium Stadium, Nov 11, 2000
p984
aVWales v England at Millennium Stadium, Feb 3, 2001
p985
aVItaly v Wales at Rome, Apr 8, 2001
p986
aVJapan v Wales at Osaka, Jun 10, 2001
p987
aVJapan v Wales at Osaka, Jun 10, 2001
p988
aVJapan v Wales at Osaka, Jun 10, 2001
p989
aVJapan v Wales at Osaka, Jun 10, 2001
p990
aVJapan v Wales at Osaka, Jun 10, 2001
p991
aVJapan v Wales at Osaka, Jun 10, 2001
p992
aVJapan v Wales at Osaka, Jun 10, 2001
p993
aVJapan v Wales at Tokyo, Jun 17, 2001
p994
aVJapan v Wales at Tokyo, Jun 17, 2001
p995
aVWales v Argentina at Millennium Stadium, Nov 10, 2001
p996
aVWales v Argentina at Millennium Stadium, Nov 10, 2001
p997
aVWales v Australia at Millennium Stadium, Nov 25, 2001
p998
aVIreland v Wales at Lansdowne Road, Feb 3, 2002
p999
aVIreland v Wales at Lansdowne Road, Feb 3, 2002
p1000
aVSouth Africa v Wales at Bloemfontein, Jun 8, 2002
p1001
aVSouth Africa v Wales at Bloemfontein, Jun 8, 2002
p1002
aVSouth Africa v Wales at Bloemfontein, Jun 8, 2002
p1003
aVSouth Africa v Wales at Bloemfontein, Jun 8, 2002
p1004
aVSouth Africa v Wales at Bloemfontein, Jun 8, 2002
p1005
aVSouth Africa v Wales at Cape Town, Jun 15, 2002
p1006
aVWales v Romania at Wrexham, Nov 1, 2002
p1007
aVWales v Romania at Wrexham, Nov 1, 2002
p1008
aVWales v Fiji at Millennium Stadium, Nov 9, 2002
p1009
aVWales v Canada at Millennium Stadium, Nov 16, 2002
p1010
aVItaly v Wales at Rome, Feb 15, 2003
p1011
aVItaly v Wales at Rome, Feb 15, 2003
p1012
aVItaly v Wales at Rome, Feb 15, 2003
p1013
aVAustralia v Wales at Sydney, Jun 14, 2003
p1014
aVAustralia v Wales at Sydney, Jun 14, 2003
p1015
aVIreland v Wales at Lansdowne Road, Aug 16, 2003
p1016
aVIreland v Wales at Lansdowne Road, Aug 16, 2003
p1017
aVIreland v Wales at Lansdowne Road, Aug 16, 2003
p1018
aVWales v England at Millennium Stadium, Aug 23, 2003
p1019
aVWales v Romania at Wrexham, Aug 27, 2003
p1020
aVWales v Romania at Wrexham, Aug 27, 2003
p1021
aVWales v Romania at Wrexham, Aug 27, 2003
p1022
aVWales v Romania at Wrexham, Aug 27, 2003
p1023
aVWales v Romania at Wrexham, Aug 27, 2003
p1024
aVWales v Romania at Wrexham, Aug 27, 2003
p1025
aVWales v Romania at Wrexham, Aug 27, 2003
p1026
aVWales v Romania at Wrexham, Aug 27, 2003
p1027
aVWales v Scotland at Millennium Stadium, Aug 30, 2003
p1028
aVArgentina v Wales at Tucuman, Jun 12, 2004
p1029
aVWales v South Africa at Millennium Stadium, Nov 6, 2004
p1030
aVWales v South Africa at Millennium Stadium, Nov 6, 2004
p1031
aVWales v England at Millennium Stadium, Feb 5, 2005
p1032
aVItaly v Wales at Rome, Feb 12, 2005
p1033
aVUnited States of America v Wales at Hartford, Jun 4, 2005
p1034
aVUnited States of America v Wales at Hartford, Jun 4, 2005
p1035
aVUnited States of America v Wales at Hartford, Jun 4, 2005
p1036
aVUnited States of America v Wales at Hartford, Jun 4, 2005
p1037
aVUnited States of America v Wales at Hartford, Jun 4, 2005
p1038
aVCanada v Wales at Toronto, Jun 11, 2005
p1039
aVCanada v Wales at Toronto, Jun 11, 2005
p1040
aVWales v New Zealand at Millennium Stadium, Nov 5, 2005
p1041
aVWales v New Zealand at Millennium Stadium, Nov 5, 2005
p1042
aVEngland v Wales at Twickenham, Feb 4, 2006
p1043
aVWales v Scotland at Millennium Stadium, Feb 12, 2006
p1044
aVIreland v Wales at Lansdowne Road, Feb 26, 2006
p1045
aVArgentina v Wales at Puerto Madryn, Jun 11, 2006
p1046
aVArgentina v Wales at Puerto Madryn, Jun 11, 2006
p1047
aVArgentina v Wales at Puerto Madryn, Jun 11, 2006
p1048
aVArgentina v Wales at Puerto Madryn, Jun 11, 2006
p1049
aVArgentina v Wales at Buenos Aires, Jun 17, 2006
p1050
aVWales v Pacific Islanders at Millennium Stadium, Nov 11, 2006
p1051
aVWales v Ireland at Millennium Stadium, Feb 4, 2007
p1052
aVAustralia v Wales at Sydney, May 26, 2007
p1053
aVAustralia v Wales at Brisbane, Jun 2, 2007
p1054
aVEngland v Wales at Twickenham, Aug 4, 2007
p1055
aVEngland v Wales at Twickenham, Aug 4, 2007
p1056
aVWales v South Africa at Millennium Stadium, Nov 24, 2007
p1057
aVWales v Scotland at Millennium Stadium, Feb 9, 2008
p1058
aVSouth Africa v Wales at Bloemfontein, Jun 7, 2008
p1059
aVSouth Africa v Wales at Pretoria, Jun 14, 2008
p1060
aVWales v South Africa at Millennium Stadium, Nov 8, 2008
p1061
aVWales v South Africa at Millennium Stadium, Nov 8, 2008
p1062
aVWales v Canada at Millennium Stadium, Nov 14, 2008
p1063
aVWales v Canada at Millennium Stadium, Nov 14, 2008
p1064
aVWales v Canada at Millennium Stadium, Nov 14, 2008
p1065
aVScotland v Wales at Murrayfield, Feb 8, 2009
p1066
aVCanada v Wales at Toronto, May 30, 2009
p1067
aVCanada v Wales at Toronto, May 30, 2009
p1068
aVCanada v Wales at Toronto, May 30, 2009
p1069
aVCanada v Wales at Toronto, May 30, 2009
p1070
aVUnited States of America v Wales at Chicago, Jun 6, 2009
p1071
aVWales v Argentina at Millennium Stadium, Nov 21, 2009
p1072
aVEngland v Wales at Twickenham, Feb 6, 2010
p1073
aVIreland v Wales at Croke Park, Mar 13, 2010
p1074
aVWales v Italy at Millennium Stadium, Mar 20, 2010
p1075
aVWales v South Africa at Millennium Stadium, Jun 5, 2010
p1076
aVNew Zealand v Wales at Dunedin, Jun 19, 2010
p1077
aVNew Zealand v Wales at Hamilton, Jun 26, 2010
p1078
aVWales v South Africa at Millennium Stadium, Nov 13, 2010
p1079
aVScotland v Wales at Murrayfield, Feb 12, 2011
p1080
aVScotland v Wales at Murrayfield, Feb 12, 2011
p1081
aVWales v Barbarians at Millennium Stadium, Jun 4, 2011
p1082
aVWales v Barbarians at Millennium Stadium, Jun 4, 2011
p1083
aVWales v Barbarians at Millennium Stadium, Jun 4, 2011
p1084
aVWales v Barbarians at Millennium Stadium, Jun 4, 2011
p1085
aVWales v Barbarians at Millennium Stadium, Jun 4, 2011
p1086
aVWales v Argentina at Millennium Stadium, Aug 20, 2011
p1087
aVWales v Argentina at Millennium Stadium, Aug 20, 2011
p1088
aVNamibia v Wales at New Plymouth, Sep 26, 2011
p1089
aVWales v Australia at Millennium Stadium, Dec 3, 2011
p1090
aVWales v Scotland at Millennium Stadium, Feb 12, 2012
p1091
aVWales v Scotland at Millennium Stadium, Feb 12, 2012
p1092
aVWales v Italy at Millennium Stadium, Mar 10, 2012
p1093
aVWales v Barbarians at Millennium Stadium, Jun 2, 2012
p1094
aVWales v Barbarians at Millennium Stadium, Jun 2, 2012
p1095
aVWales v Barbarians at Millennium Stadium, Jun 2, 2012
p1096
aVWales v Barbarians at Millennium Stadium, Jun 2, 2012
p1097
aVAustralia v Wales at Brisbane, Jun 9, 2012
p1098
aVWales v Argentina at Millennium Stadium, Nov 10, 2012
p1099
aVWales v Ireland at Millennium Stadium, Feb 2, 2013
p1100
aVWales v Ireland at Millennium Stadium, Feb 2, 2013
p1101
aVJapan v Wales at Osaka, Jun 8, 2013
p1102
aVJapan v Wales at Osaka, Jun 8, 2013
p1103
aVJapan v Wales at Osaka, Jun 8, 2013
p1104
aVJapan v Wales at Osaka, Jun 8, 2013
p1105
aVJapan v Wales at Osaka, Jun 8, 2013
p1106
aVJapan v Wales at Osaka, Jun 8, 2013
p1107
aVJapan v Wales at Osaka, Jun 8, 2013
p1108
aVJapan v Wales at Tokyo, Jun 15, 2013
p1109
aVJapan v Wales at Tokyo, Jun 15, 2013
p1110
aVWales v Argentina at Millennium Stadium, Nov 16, 2013
p1111
aVWales v Argentina at Millennium Stadium, Nov 16, 2013
p1112
aVWales v Tonga at Millennium Stadium, Nov 22, 2013
p1113
aVWales v Tonga at Millennium Stadium, Nov 22, 2013
p1114
aVIreland v Wales at Lansdowne Road, Feb 8, 2014
p1115
aVSouth Africa v Wales at Durban, Jun 14, 2014
p1116
aVSouth Africa v Wales at Durban, Jun 14, 2014
p1117
aVWales v Fiji at Millennium Stadium, Nov 15, 2014
p1118
aVWales v Ireland at Millennium Stadium, Mar 14, 2015
p1119
a.