(lp1
S'Jim Bevan'
p2
aS'Godfrey Darbishire'
p3
aS'Barry Girling'
p4
aS'George Harding'
p5
aS'Edward Lewis'
p6
aS'Bathurst Mann'
p7
aS'Charlie Newman'
p8
aS'Edward Peake'
p9
aS'William Phillips'
p10
aS'Frank Purdon'
p11
aS'Aneurin Rees'
p12
aS'Richard Summers'
p13
aS'Edward Treharne'
p14
aS'Leonard Watkins'
p15
aS'Richard Williams'
p16
aS'Thomas Baker-Jones'
p17
aS'Ronald Bridie'
p18
aS'Tom Clapp'
p19
aS'Samuel Clark'
p20
aS'Bill Evans'
p21
aS'Bob Gould'
p22
aS'Charles Lewis'
p23
aS'George Morris'
p24
aS'William Norton'
p25
aS'Hugh Vincent'
p26
aS'Tom Williams'
p27
aS'Harry Bowen'
p28
aS'Alfred Cattell'
p29
aS'James Clare'
p30
aS'Dai Gwyn'
p31
aS'Thomas Judson'
p32
aS'John Griffin'
p33
aS'Arthur Jones'
p34
aS'Horace Lyne'
p35
aS'Charles Allen'
p36
aS'Frederick Andrews'
p37
aS'William Gwynn'
p38
aS'Frederick Margrave'
p39
aS'Joe Simpson'
p40
aS'John Smith'
p41
aS'Charles Taylor'
p42
aS'Tom Barlow'
p43
aS'Samuel Goldsworthy'
p44
aS'Frank Hancock'
p45
aS'John Hinton'
p46
aS'Buckley Roderick'
p47
aS'Buller Stadden'
p48
aS'Arthur Gould'
p49
aS'Martyn Jordan'
p50
aS'Evan Richards'
p51
aS'Ernest Rowland'
p52
aS'Lewis Thomas'
p53
aS'Edward Alexander'
p54
aS'Frank Hill'
p55
aS'D. Morgan'
p56
aS'Willie Thomas'
p57
aS'William Bowen'
p58
aS'Billy Douglas'
p59
aS'Dai Lewis'
p60
aS'Evan Roberts'
p61
aS'George Young'
p62
aS'Alfred Mathews'
p63
aS'Alec Bland'
p64
aS'Jem Evans'
p65
aS'Albert Hybart'
p66
aS'Thomas Lockwood'
p67
aS'George Bowen'
p68
aS'Hugh Hughes'
p69
aS'William Williams'
p70
aS'Johnny Lewis'
p71
aS'William Towers'
p72
aS'William Howell'
p73
aS'Price Jenkins-Price'
p74
aS'Dick Kedzlie'
p75
aS'John Meredith'
p76
aS'Dick Powell'
p77
aS'Ned Roberts'
p78
aS'T. Williams'
p79
aS'Charlie Arthur'
p80
aS'Charlie Thomas'
p81
aS'Norman Biggs'
p82
aS'Dickie Garrett'
p83
aS'Dan Griffiths'
p84
aS'Jim Hannan'
p85
aS'Charles Harding'
p86
aS'Syd Nicholls'
p87
aS'George Thomas'
p88
aS'Jim Webb'
p89
aS'Teddy Bishop'
p90
aS'David Evans'
p91
aS'Rosser Evans'
p92
aS'Rowley Thomas'
p93
aS'Abel Davies'
p94
aS'Giotto Griffiths'
p95
aS'Tom Morgan'
p96
aS'Billy Bancroft'
p97
aS'Evan James'
p98
aS'Percy Lloyd'
p99
aS'Walter Rice-Evans'
p100
aS'Stephen Thomas'
p101
aS'Thomas Graham'
p102
aS'Hugh Ingledew'
p103
aS'Percy Bennett'
p104
aS'Harry Packer'
p105
aS'Tom Pearson'
p106
aS'Edward Pegge'
p107
aS'David Daniel'
p108
aS'Billy McCutcheon'
p109
aS'Ralph Sweet-Escott'
p110
aS'Tom Deacon'
p111
aS'David James'
p112
aS'Boomer Nicholl'
p113
aS'David Samuel'
p114
aS'John Samuel'
p115
aS'Arthur Boucher'
p116
aS'Frank Mills'
p117
aS'Percy Phillips'
p118
aS'George Rowles'
p119
aS'Wallace Watts'
p120
aS'Conway Rees'
p121
aS'Harry Day'
p122
aS'Bert Gould'
p123
aS'Frederick Nicholls'
p124
aS'Fred Parfitt'
p125
aS'Dai Fitzgerald'
p126
aS'Willie Thomas'
p127
aS'Jack Elliot'
p128
aS'Fred Hutchinson'
p129
aS'David Nicholl'
p130
aS'Owen Badger'
p131
aS'Selwyn Biggs'
p132
aS'Ben Davies'
p133
aS'William Elsey'
p134
aS'Tom Jackson'
p135
aS'Ernie George'
p136
aS'Evan Lloyd'
p137
aS'Tom Pook'
p138
aS'Albert Jenkin'
p139
aS'Dai Morgan'
p140
aS'Cliff Bowen'
p141
aS'Bert Dauncey'
p142
aS'Sam Ramsay'
p143
aS'William Cope'
p144
aS'Barry Davies'
p145
aS'David Evans'
p146
aS'Jack Evans'
p147
aS'Bill Morris'
p148
aS'Gwyn Nicholls'
p149
aS'Llewellyn Lloyd'
p150
aS'Fred Miller'
p151
aS'Fred Cornish'
p152
aS'Dick Hellings'
p153
aS'Dan Jones'
p154
aS'Jack Rapps'
p155
aS'Billy Alexander'
p156
aS'Joe Booth'
p157
aS'George Boots'
p158
aS'Hopkin Davies'
p159
aS'Tom Dobson'
p160
aS'Viv Huzzey'
p161
aS'Pussy Jones'
p162
aS'Jere Blake'
p163
aS'Alfred Brice'
p164
aS'Jehoida Hodges'
p165
aS'Willie Llewellyn'
p166
aS'Will Parker'
p167
aS'Fred Scrine'
p168
aS'Reg Skrimshire'
p169
aS'George Davies'
p170
aS'Louis Phillips'
p171
aS'Dan Rees'
p172
aS'Robert Thomas'
p173
aS'Billy Trew'
p174
aS'Buller Williams'
p175
aS'George Dobson'
p176
aS'Bala Jones'
p177
aS'Rusty Gabe'
p178
aS'Bob Jones'
p179
aS'Dick Jones'
p180
aS'Dicky Owen'
p181
aS'Boxer Harding'
p182
aS'Dai Jones'
p183
aS'Strand Jones'
p184
aS'Will Joseph'
p185
aS'Teddy Morgan'
p186
aS'Will Osborne'
p187
aS'Danny Walters'
p188
aS'Harry Jones'
p189
aS'Fred Jowett'
p190
aS'Twyber Travers'
p191
aS'Willie Arnold'
p192
aS'Bert Winfield'
p193
aS'Jack Evans'
p194
aS'David Thomas'
p195
aS'David Davies'
p196
aS"Billy O'Neil"
p197
aS'Cliff Pritchard'
p198
aS'Beddoe Thomas-Maynard'
p199
aS'Harry Watkins'
p200
aS'Sid Bevan'
p201
aS'Howell Jones'
p202
aS'Charlie Pritchard'
p203
aS'Windham Jones'
p204
aS'Jack Williams'
p205
aS'Percy Bush'
p206
aS'Hop Maddock'
p207
aS'Reggie Gibbs'
p208
aS'Tom Evans'
p209
aS'Jack Powell'
p210
aS'Dai Westacott'
p211
aS'John Dyke'
p212
aS'Jack Jenkins'
p213
aS'Dick Thomas'
p214
aS'Johnny Williams'
p215
aS'John Alf Brown'
p216
aS'Bailey Davies'
p217
aS'Billy Dowell'
p218
aS'Jack Evans'
p219
aS'James Watts'
p220
aS'Jim Webb'
p221
aS'Dickie David'
p222
aS'Ponty Jones'
p223
aS'Tommy Vile'
p224
aS'George Hayward'
p225
aS'Phil Hopkins'
p226
aS'Jack Jones'
p227
aS'Ivor Morgan'
p228
aS'Phil Waller'
p229
aS'Jack Bancroft'
p230
aS'Jake Blackmore'
p231
aS'Mel Baker'
p232
aS'Thomas Lloyd'
p233
aS'Rees Thomas'
p234
aS'Ben Gronow'
p235
aS'Joe Pullman'
p236
aS'Harry Jarman'
p237
aS'Joe Pugsley'
p238
aS'Ernie Jenkins'
p239
aS'Willie Morgan'
p240
aS'Billy Spiller'
p241
aS'Louis Dyke'
p242
aS'Fred Birt'
p243
aS'Percy Coldrick'
p244
aS'Bill Perry'
p245
aS'Jim Birch'
p246
aS'William Evans'
p247
aS'Ewan Davies'
p248
aS'Howell Davies'
p249
aS'Clem Lewis'
p250
aS'Glyn Stephens'
p251
aS'Len Trump'
p252
aS'Harry Uzzell'
p253
aS'William Davies'
p254
aS'George Hirst'
p255
aS'Reggie Plummer'
p256
aS'Frank Hawkins'
p257
aS'Harry Hiam'
p258
aS'Billy Jenkins'
p259
aS'Brin Lewis'
p260
aS'Walter Martin'
p261
aS'Gus Merry'
p262
aS'Tom Williams'
p263
aS'Harold Thomas'
p264
aS'Frank Andrews'
p265
aS'Billy Geen'
p266
aS'Bert Hollingdale'
p267
aS'Percy Jones'
p268
aS'Johnnie Morgan'
p269
aS'Fred Perrett'
p270
aS'Horace Thomas'
p271
aS'Harry Wetter'
p272
aS'Bobbie Williams'
p273
aS'Alban Davies'
p274
aS'Tuan Jones'
p275
aS'Howell Lewis'
p276
aS'Bobby Lloyd'
p277
aS'Rees Richards'
p278
aS'Glyn Gething'
p279
aS'Mark Lewis'
p280
aS'William Evans'
p281
aS'Jack Jones'
p282
aS'Edgar Morgan'
p283
aS'David Watts'
p284
aS'William Watts'
p285
aS'Ivor Davies'
p286
aS'Jack Wetter'
p287
aS'Ianto Davies'
p288
aS'Ike Fowler'
p289
aS'Gwyn Francis'
p290
aS'Bill Havard'
p291
aS'Jim Jones'
p292
aS'Bill Morris'
p293
aS'Trevor Nicholas'
p294
aS'Tom Parker'
p295
aS'Aaron Rees'
p296
aS'Evan Rees'
p297
aS'Jerry Shea'
p298
aS'Melbourne Thomas'
p299
aS'Jack Whitfield'
p300
aS'Ben Beynon'
p301
aS'Brinley Evans'
p302
aS'Albert Jenkins'
p303
aS'Charles Jones'
p304
aS'Steve Morris'
p305
aS'George Oliver'
p306
aS'Wick Powell'
p307
aS'Joe Rees'
p308
aS'Jack Williams'
p309
aS'Brinley Williams'
p310
aS'Dick Huxtable'
p311
aS'Fred Reeves'
p312
aS'Edgar Morgan'
p313
aS'Len Attewell'
p314
aS'Dai Edwards'
p315
aS'Wilf Hodder'
p316
aS'Codger Johnson'
p317
aS'Douglas Marsden-Jones'
p318
aS'Johnny Ring'
p319
aS'Docker Winmill'
p320
aS'Paul Baker-Jones'
p321
aS'William Bowen'
p322
aS'Frankie Evans'
p323
aS'Tom Roberts'
p324
aS'Harry Davies'
p325
aS'Ossie Male'
p326
aS'Tudor Williams'
p327
aS'Ambrose Baker'
p328
aS'Archie Brown'
p329
aS'Daph Davies'
p330
aS'Jack Prosser'
p331
aS'Will Cummings'
p332
aS'Bobby Delahay'
p333
aS'Islwyn Evans'
p334
aS'Dai Hiddlestone'
p335
aS'Tom Jones'
p336
aS'Frank Palmer'
p337
aS'Cliff Richards'
p338
aS'John Stephens'
p339
aS'Fred Samuel'
p340
aS'Arthur Cornish'
p341
aS'Dai Davies'
p342
aS'Rowe Harding'
p343
aS'Gwilym Michael'
p344
aS'Gethin Thomas'
p345
aS'Joe Thompson'
p346
aS'Lew Jenkins'
p347
aS'Dai John'
p348
aS'Dan Pascoe'
p349
aS'Mapson Williams'
p350
aS'Tom Collins'
p351
aS'Stan Davies'
p352
aS'John Davies'
p353
aS'Jack Powell'
p354
aS'William Radford'
p355
aS'Tom Richards'
p356
aS'Hunt Davies'
p357
aS'Candy Evans'
p358
aS'Ivor Jones'
p359
aS'Glyn Morris'
p360
aS'Bill Ould'
p361
aS'Albert Owen'
p362
aS'Charlie Pugh'
p363
aS'Ivor Thomas'
p364
aS'Edward Watkins'
p365
aS'Harold Davies'
p366
aS'Jack Elwyn Evans'
p367
aS'Vince Griffiths'
p368
aS'Mel Rosser'
p369
aS'Tommy Evans'
p370
aS'Jack Gore'
p371
aS'George Hathway'
p372
aS'William Jones'
p373
aS'Dai Parker'
p374
aS'Bob Randall'
p375
aS'Ernie Finch'
p376
aS'Joe Jones'
p377
aS'Arnold Rickards'
p378
aS'Bert Stock'
p379
aS'Cliff Williams'
p380
aS'Eddie Williams'
p381
aS'Willie Hopkins'
p382
aS'Will James'
p383
aS'Idris Jones'
p384
aS'Bryn Phillips'
p385
aS'Idris Richards'
p386
aS'Cyril Thomas'
p387
aS'Evan Williams'
p388
aS'Ron Herrera'
p389
aS'Steve Lawrence'
p390
aS'Eddie Beynon'
p391
aS'Will Lewis'
p392
aS'Jim Brown'
p393
aS'Sydney Hinam'
p394
aS'Arthur John'
p395
aS'Nathan Rocyn-Jones'
p396
aS'Bernard Turnbull'
p397
aS'George Andrews'
p398
aS'David Evans'
p399
aS'Thomas Hopkins'
p400
aS'Dai Jenkins'
p401
aS'Howell John'
p402
aS'Dai Jones'
p403
aS'Bobby Jones'
p404
aS'Tom Lewis'
p405
aS'Bill Everson'
p406
aS'Wick Powell'
p407
aS'Emlyn Watkins'
p408
aS'Windsor Lewis'
p409
aS'Tommy Rees'
p410
aS'Charles Rowlands'
p411
aS'Harry Phillips'
p412
aS'John Roberts'
p413
aS'Watcyn Thomas'
p414
aS'Billy Williams'
p415
aS'Tom Arthur'
p416
aS'John Bartlett'
p417
aS'Ned Jenkins'
p418
aS'Gwyn Richards'
p419
aS'Jim Burns'
p420
aS'Guy Stewart-Morgan'
p421
aS'Lonza Bowdler'
p422
aS'Gus Broughton'
p423
aS'Tal Harris'
p424
aS'Tom Hollingdale'
p425
aS'David Jenkins'
p426
aS'Dan Jones'
p427
aS'Iorwerth Jones'
p428
aS'Roy Jones'
p429
aS'Cecil Pritchard'
p430
aS'Archie Skym'
p431
aS'Gwyn Davies'
p432
aS'Jack Bassett'
p433
aS'Harold Jones'
p434
aS'Dick Jones'
p435
aS'Jack Morley'
p436
aS'Bill Roberts'
p437
aS'Bob Barrell'
p438
aS'Harry Bowcott'
p439
aS'Harry Peacock'
p440
aS'Frank Williams'
p441
aS'Arthur Lemon'
p442
aS'Arthur Hickman'
p443
aS'Tom Jones-Davies'
p444
aS'David Roberts'
p445
aS'Ocker Thomas'
p446
aS'Ronnie Boon'
p447
aS'Bert Day'
p448
aS'Chick Jones'
p449
aS'Dai Thomas'
p450
aS'Norman Fender'
p451
aS'Howie Jones'
p452
aS'Claud Davey'
p453
aS'Edgar Jones'
p454
aS'Tommy Scourfield'
p455
aS'Tom Day'
p456
aS'David James'
p457
aS'Jim Lang'
p458
aS'Dicky Ralph'
p459
aS'Sgili Davies'
p460
aS'Bryn Evans'
p461
aS'Iorrie Isaacs'
p462
aS'Viv Jenkins'
p463
aS'Arthur Jones'
p464
aS'Raymond Jones'
p465
aS'Maurice Turnbull'
p466
aS'Wilf Wooller'
p467
aS'Gwyn Bayliss'
p468
aS'Bryn Evans'
p469
aS'Ron Morris'
p470
a.