(lp1
S'http://www.espnscrum.com/wales/rugby/player/537.html'
p2
aS'http://www.espnscrum.com/wales/rugby/player/538.html'
p3
aS'http://www.espnscrum.com/wales/rugby/player/539.html'
p4
aS'http://www.espnscrum.com/wales/rugby/player/540.html'
p5
aS'http://www.espnscrum.com/wales/rugby/player/542.html'
p6
aS'http://www.espnscrum.com/wales/rugby/player/544.html'
p7
aS'http://www.espnscrum.com/wales/rugby/player/545.html'
p8
aS'http://www.espnscrum.com/wales/rugby/player/546.html'
p9
aS'http://www.espnscrum.com/wales/rugby/player/547.html'
p10
aS'http://www.espnscrum.com/wales/rugby/player/548.html'
p11
aS'http://www.espnscrum.com/wales/rugby/player/549.html'
p12
aS'http://www.espnscrum.com/wales/rugby/player/553.html'
p13
aS'http://www.espnscrum.com/wales/rugby/player/554.html'
p14
aS'http://www.espnscrum.com/wales/rugby/player/557.html'
p15
aS'http://www.espnscrum.com/wales/rugby/player/558.html'
p16
aS'http://www.espnscrum.com/wales/rugby/player/577.html'
p17
aS'http://www.espnscrum.com/wales/rugby/player/568.html'
p18
aS'http://www.espnscrum.com/wales/rugby/player/569.html'
p19
aS'http://www.espnscrum.com/wales/rugby/player/570.html'
p20
aS'http://www.espnscrum.com/wales/rugby/player/572.html'
p21
aS'http://www.espnscrum.com/wales/rugby/player/574.html'
p22
aS'http://www.espnscrum.com/wales/rugby/player/579.html'
p23
aS'http://www.espnscrum.com/wales/rugby/player/582.html'
p24
aS'http://www.espnscrum.com/wales/rugby/player/583.html'
p25
aS'http://www.espnscrum.com/wales/rugby/player/585.html'
p26
aS'http://www.espnscrum.com/wales/rugby/player/586.html'
p27
aS'http://www.espnscrum.com/wales/rugby/player/613.html'
p28
aS'http://www.espnscrum.com/wales/rugby/player/614.html'
p29
aS'http://www.espnscrum.com/wales/rugby/player/615.html'
p30
aS'http://www.espnscrum.com/wales/rugby/player/617.html'
p31
aS'http://www.espnscrum.com/wales/rugby/player/620.html'
p32
aS'http://www.espnscrum.com/wales/rugby/player/627.html'
p33
aS'http://www.espnscrum.com/wales/rugby/player/630.html'
p34
aS'http://www.espnscrum.com/wales/rugby/player/632.html'
p35
aS'http://www.espnscrum.com/wales/rugby/player/647.html'
p36
aS'http://www.espnscrum.com/wales/rugby/player/648.html'
p37
aS'http://www.espnscrum.com/wales/rugby/player/651.html'
p38
aS'http://www.espnscrum.com/wales/rugby/player/652.html'
p39
aS'http://www.espnscrum.com/wales/rugby/player/654.html'
p40
aS'http://www.espnscrum.com/wales/rugby/player/655.html'
p41
aS'http://www.espnscrum.com/wales/rugby/player/657.html'
p42
aS'http://www.espnscrum.com/wales/rugby/player/682.html'
p43
aS'http://www.espnscrum.com/wales/rugby/player/686.html'
p44
aS'http://www.espnscrum.com/wales/rugby/player/689.html'
p45
aS'http://www.espnscrum.com/wales/rugby/player/690.html'
p46
aS'http://www.espnscrum.com/wales/rugby/player/696.html'
p47
aS'http://www.espnscrum.com/wales/rugby/player/697.html'
p48
aS'http://www.espnscrum.com/wales/rugby/player/699.html'
p49
aS'http://www.espnscrum.com/wales/rugby/player/701.html'
p50
aS'http://www.espnscrum.com/wales/rugby/player/704.html'
p51
aS'http://www.espnscrum.com/wales/rugby/player/705.html'
p52
aS'http://www.espnscrum.com/wales/rugby/player/708.html'
p53
aS'http://www.espnscrum.com/wales/rugby/player/709.html'
p54
aS'http://www.espnscrum.com/wales/rugby/player/711.html'
p55
aS'http://www.espnscrum.com/wales/rugby/player/714.html'
p56
aS'http://www.espnscrum.com/wales/rugby/player/716.html'
p57
aS'http://www.espnscrum.com/wales/rugby/player/733.html'
p58
aS'http://www.espnscrum.com/wales/rugby/player/735.html'
p59
aS'http://www.espnscrum.com/wales/rugby/player/740.html'
p60
aS'http://www.espnscrum.com/wales/rugby/player/741.html'
p61
aS'http://www.espnscrum.com/wales/rugby/player/744.html'
p62
aS'http://www.espnscrum.com/wales/rugby/player/750.html'
p63
aS'http://www.espnscrum.com/wales/rugby/player/770.html'
p64
aS'http://www.espnscrum.com/wales/rugby/player/773.html'
p65
aS'http://www.espnscrum.com/wales/rugby/player/775.html'
p66
aS'http://www.espnscrum.com/wales/rugby/player/778.html'
p67
aS'http://www.espnscrum.com/wales/rugby/player/799.html'
p68
aS'http://www.espnscrum.com/wales/rugby/player/801.html'
p69
aS'http://www.espnscrum.com/wales/rugby/player/207407.html'
p70
aS'http://www.espnscrum.com/wales/rugby/player/804.html'
p71
aS'http://www.espnscrum.com/wales/rugby/player/807.html'
p72
aS'http://www.espnscrum.com/wales/rugby/player/812.html'
p73
aS'http://www.espnscrum.com/wales/rugby/player/813.html'
p74
aS'http://www.espnscrum.com/wales/rugby/player/814.html'
p75
aS'http://www.espnscrum.com/wales/rugby/player/815.html'
p76
aS'http://www.espnscrum.com/wales/rugby/player/816.html'
p77
aS'http://www.espnscrum.com/wales/rugby/player/817.html'
p78
aS'http://www.espnscrum.com/wales/rugby/player/821.html'
p79
aS'http://www.espnscrum.com/wales/rugby/player/822.html'
p80
aS'http://www.espnscrum.com/wales/rugby/player/827.html'
p81
aS'http://www.espnscrum.com/wales/rugby/player/840.html'
p82
aS'http://www.espnscrum.com/wales/rugby/player/844.html'
p83
aS'http://www.espnscrum.com/wales/rugby/player/845.html'
p84
aS'http://www.espnscrum.com/wales/rugby/player/846.html'
p85
aS'http://www.espnscrum.com/wales/rugby/player/847.html'
p86
aS'http://www.espnscrum.com/wales/rugby/player/853.html'
p87
aS'http://www.espnscrum.com/wales/rugby/player/855.html'
p88
aS'http://www.espnscrum.com/wales/rugby/player/859.html'
p89
aS'http://www.espnscrum.com/wales/rugby/player/865.html'
p90
aS'http://www.espnscrum.com/wales/rugby/player/867.html'
p91
aS'http://www.espnscrum.com/wales/rugby/player/868.html'
p92
aS'http://www.espnscrum.com/wales/rugby/player/873.html'
p93
aS'http://www.espnscrum.com/wales/rugby/player/902.html'
p94
aS'http://www.espnscrum.com/wales/rugby/player/904.html'
p95
aS'http://www.espnscrum.com/wales/rugby/player/906.html'
p96
aS'http://www.espnscrum.com/wales/rugby/player/908.html'
p97
aS'http://www.espnscrum.com/wales/rugby/player/912.html'
p98
aS'http://www.espnscrum.com/wales/rugby/player/913.html'
p99
aS'http://www.espnscrum.com/wales/rugby/player/910.html'
p100
aS'http://www.espnscrum.com/wales/rugby/player/916.html'
p101
aS'http://www.espnscrum.com/wales/rugby/player/936.html'
p102
aS'http://www.espnscrum.com/wales/rugby/player/938.html'
p103
aS'http://www.espnscrum.com/wales/rugby/player/943.html'
p104
aS'http://www.espnscrum.com/wales/rugby/player/950.html'
p105
aS'http://www.espnscrum.com/wales/rugby/player/951.html'
p106
aS'http://www.espnscrum.com/wales/rugby/player/952.html'
p107
aS'http://www.espnscrum.com/wales/rugby/player/956.html'
p108
aS'http://www.espnscrum.com/wales/rugby/player/961.html'
p109
aS'http://www.espnscrum.com/wales/rugby/player/958.html'
p110
aS'http://www.espnscrum.com/wales/rugby/player/974.html'
p111
aS'http://www.espnscrum.com/wales/rugby/player/976.html'
p112
aS'http://www.espnscrum.com/wales/rugby/player/977.html'
p113
aS'http://www.espnscrum.com/wales/rugby/player/980.html'
p114
aS'http://www.espnscrum.com/wales/rugby/player/981.html'
p115
aS'http://www.espnscrum.com/wales/rugby/player/1021.html'
p116
aS'http://www.espnscrum.com/wales/rugby/player/1026.html'
p117
aS'http://www.espnscrum.com/wales/rugby/player/1028.html'
p118
aS'http://www.espnscrum.com/wales/rugby/player/1030.html'
p119
aS'http://www.espnscrum.com/wales/rugby/player/1032.html'
p120
aS'http://www.espnscrum.com/wales/rugby/player/1041.html'
p121
aS'http://www.espnscrum.com/wales/rugby/player/1053.html'
p122
aS'http://www.espnscrum.com/wales/rugby/player/1054.html'
p123
aS'http://www.espnscrum.com/wales/rugby/player/1056.html'
p124
aS'http://www.espnscrum.com/wales/rugby/player/1064.html'
p125
aS'http://www.espnscrum.com/wales/rugby/player/1104.html'
p126
aS'http://www.espnscrum.com/wales/rugby/player/1109.html'
p127
aS'http://www.espnscrum.com/wales/rugby/player/1116.html'
p128
aS'http://www.espnscrum.com/wales/rugby/player/1117.html'
p129
aS'http://www.espnscrum.com/wales/rugby/player/1118.html'
p130
aS'http://www.espnscrum.com/wales/rugby/player/1123.html'
p131
aS'http://www.espnscrum.com/wales/rugby/player/1125.html'
p132
aS'http://www.espnscrum.com/wales/rugby/player/1128.html'
p133
aS'http://www.espnscrum.com/wales/rugby/player/1129.html'
p134
aS'http://www.espnscrum.com/wales/rugby/player/1132.html'
p135
aS'http://www.espnscrum.com/wales/rugby/player/1140.html'
p136
aS'http://www.espnscrum.com/wales/rugby/player/1141.html'
p137
aS'http://www.espnscrum.com/wales/rugby/player/1142.html'
p138
aS'http://www.espnscrum.com/wales/rugby/player/1161.html'
p139
aS'http://www.espnscrum.com/wales/rugby/player/1162.html'
p140
aS'http://www.espnscrum.com/wales/rugby/player/1163.html'
p141
aS'http://www.espnscrum.com/wales/rugby/player/1164.html'
p142
aS'http://www.espnscrum.com/wales/rugby/player/1168.html'
p143
aS'http://www.espnscrum.com/wales/rugby/player/1174.html'
p144
aS'http://www.espnscrum.com/wales/rugby/player/1176.html'
p145
aS'http://www.espnscrum.com/wales/rugby/player/1177.html'
p146
aS'http://www.espnscrum.com/wales/rugby/player/1178.html'
p147
aS'http://www.espnscrum.com/wales/rugby/player/1180.html'
p148
aS'http://www.espnscrum.com/wales/rugby/player/1182.html'
p149
aS'http://www.espnscrum.com/wales/rugby/player/1196.html'
p150
aS'http://www.espnscrum.com/wales/rugby/player/1197.html'
p151
aS'http://www.espnscrum.com/wales/rugby/player/1245.html'
p152
aS'http://www.espnscrum.com/wales/rugby/player/1248.html'
p153
aS'http://www.espnscrum.com/wales/rugby/player/1250.html'
p154
aS'http://www.espnscrum.com/wales/rugby/player/1253.html'
p155
aS'http://www.espnscrum.com/wales/rugby/player/1297.html'
p156
aS'http://www.espnscrum.com/wales/rugby/player/1299.html'
p157
aS'http://www.espnscrum.com/wales/rugby/player/1300.html'
p158
aS'http://www.espnscrum.com/wales/rugby/player/1301.html'
p159
aS'http://www.espnscrum.com/wales/rugby/player/1302.html'
p160
aS'http://www.espnscrum.com/wales/rugby/player/1303.html'
p161
aS'http://www.espnscrum.com/wales/rugby/player/1304.html'
p162
aS'http://www.espnscrum.com/wales/rugby/player/1309.html'
p163
aS'http://www.espnscrum.com/wales/rugby/player/1310.html'
p164
aS'http://www.espnscrum.com/wales/rugby/player/1317.html'
p165
aS'http://www.espnscrum.com/wales/rugby/player/1318.html'
p166
aS'http://www.espnscrum.com/wales/rugby/player/1319.html'
p167
aS'http://www.espnscrum.com/wales/rugby/player/1320.html'
p168
aS'http://www.espnscrum.com/wales/rugby/player/1321.html'
p169
aS'http://www.espnscrum.com/wales/rugby/player/1401.html'
p170
aS'http://www.espnscrum.com/wales/rugby/player/1403.html'
p171
aS'http://www.espnscrum.com/wales/rugby/player/1404.html'
p172
aS'http://www.espnscrum.com/wales/rugby/player/1408.html'
p173
aS'http://www.espnscrum.com/wales/rugby/player/1409.html'
p174
aS'http://www.espnscrum.com/wales/rugby/player/1410.html'
p175
aS'http://www.espnscrum.com/wales/rugby/player/1412.html'
p176
aS'http://www.espnscrum.com/wales/rugby/player/1454.html'
p177
aS'http://www.espnscrum.com/wales/rugby/player/1485.html'
p178
aS'http://www.espnscrum.com/wales/rugby/player/1486.html'
p179
aS'http://www.espnscrum.com/wales/rugby/player/1487.html'
p180
aS'http://www.espnscrum.com/wales/rugby/player/1488.html'
p181
aS'http://www.espnscrum.com/wales/rugby/player/1491.html'
p182
aS'http://www.espnscrum.com/wales/rugby/player/1493.html'
p183
aS'http://www.espnscrum.com/wales/rugby/player/1494.html'
p184
aS'http://www.espnscrum.com/wales/rugby/player/1495.html'
p185
aS'http://www.espnscrum.com/wales/rugby/player/1496.html'
p186
aS'http://www.espnscrum.com/wales/rugby/player/1498.html'
p187
aS'http://www.espnscrum.com/wales/rugby/player/1501.html'
p188
aS'http://www.espnscrum.com/wales/rugby/player/1505.html'
p189
aS'http://www.espnscrum.com/wales/rugby/player/1525.html'
p190
aS'http://www.espnscrum.com/wales/rugby/player/1528.html'
p191
aS'http://www.espnscrum.com/wales/rugby/player/1529.html'
p192
aS'http://www.espnscrum.com/wales/rugby/player/1548.html'
p193
aS'http://www.espnscrum.com/wales/rugby/player/1616.html'
p194
aS'http://www.espnscrum.com/wales/rugby/player/1621.html'
p195
aS'http://www.espnscrum.com/wales/rugby/player/1624.html'
p196
aS'http://www.espnscrum.com/wales/rugby/player/1628.html'
p197
aS'http://www.espnscrum.com/wales/rugby/player/1629.html'
p198
aS'http://www.espnscrum.com/wales/rugby/player/1626.html'
p199
aS'http://www.espnscrum.com/wales/rugby/player/1631.html'
p200
aS'http://www.espnscrum.com/wales/rugby/player/1640.html'
p201
aS'http://www.espnscrum.com/wales/rugby/player/1642.html'
p202
aS'http://www.espnscrum.com/wales/rugby/player/1646.html'
p203
aS'http://www.espnscrum.com/wales/rugby/player/1706.html'
p204
aS'http://www.espnscrum.com/wales/rugby/player/1707.html'
p205
aS'http://www.espnscrum.com/wales/rugby/player/1650.html'
p206
aS'http://www.espnscrum.com/wales/rugby/player/1792.html'
p207
aS'http://www.espnscrum.com/wales/rugby/player/1796.html'
p208
aS'http://www.espnscrum.com/wales/rugby/player/1807.html'
p209
aS'http://www.espnscrum.com/wales/rugby/player/1808.html'
p210
aS'http://www.espnscrum.com/wales/rugby/player/1809.html'
p211
aS'http://www.espnscrum.com/wales/rugby/player/1844.html'
p212
aS'http://www.espnscrum.com/wales/rugby/player/1845.html'
p213
aS'http://www.espnscrum.com/wales/rugby/player/1847.html'
p214
aS'http://www.espnscrum.com/wales/rugby/player/1848.html'
p215
aS'http://www.espnscrum.com/wales/rugby/player/1866.html'
p216
aS'http://www.espnscrum.com/wales/rugby/player/1867.html'
p217
aS'http://www.espnscrum.com/wales/rugby/player/1868.html'
p218
aS'http://www.espnscrum.com/wales/rugby/player/1869.html'
p219
aS'http://www.espnscrum.com/wales/rugby/player/1871.html'
p220
aS'http://www.espnscrum.com/wales/rugby/player/1874.html'
p221
aS'http://www.espnscrum.com/wales/rugby/player/1884.html'
p222
aS'http://www.espnscrum.com/wales/rugby/player/1887.html'
p223
aS'http://www.espnscrum.com/wales/rugby/player/1670.html'
p224
aS'http://www.espnscrum.com/wales/rugby/player/1941.html'
p225
aS'http://www.espnscrum.com/wales/rugby/player/1991.html'
p226
aS'http://www.espnscrum.com/wales/rugby/player/1967.html'
p227
aS'http://www.espnscrum.com/wales/rugby/player/1993.html'
p228
aS'http://www.espnscrum.com/wales/rugby/player/1996.html'
p229
aS'http://www.espnscrum.com/wales/rugby/player/2011.html'
p230
aS'http://www.espnscrum.com/wales/rugby/player/2012.html'
p231
aS'http://www.espnscrum.com/wales/rugby/player/2025.html'
p232
aS'http://www.espnscrum.com/wales/rugby/player/2037.html'
p233
aS'http://www.espnscrum.com/wales/rugby/player/2038.html'
p234
aS'http://www.espnscrum.com/wales/rugby/player/2062.html'
p235
aS'http://www.espnscrum.com/wales/rugby/player/2065.html'
p236
aS'http://www.espnscrum.com/wales/rugby/player/2069.html'
p237
aS'http://www.espnscrum.com/wales/rugby/player/2072.html'
p238
aS'http://www.espnscrum.com/wales/rugby/player/2083.html'
p239
aS'http://www.espnscrum.com/wales/rugby/player/1980.html'
p240
aS'http://www.espnscrum.com/wales/rugby/player/2085.html'
p241
aS'http://www.espnscrum.com/wales/rugby/player/2107.html'
p242
aS'http://www.espnscrum.com/wales/rugby/player/2206.html'
p243
aS'http://www.espnscrum.com/wales/rugby/player/2208.html'
p244
aS'http://www.espnscrum.com/wales/rugby/player/2211.html'
p245
aS'http://www.espnscrum.com/wales/rugby/player/2217.html'
p246
aS'http://www.espnscrum.com/wales/rugby/player/2229.html'
p247
aS'http://www.espnscrum.com/wales/rugby/player/2252.html'
p248
aS'http://www.espnscrum.com/wales/rugby/player/2253.html'
p249
aS'http://www.espnscrum.com/wales/rugby/player/2261.html'
p250
aS'http://www.espnscrum.com/wales/rugby/player/2267.html'
p251
aS'http://www.espnscrum.com/wales/rugby/player/2268.html'
p252
aS'http://www.espnscrum.com/wales/rugby/player/2269.html'
p253
aS'http://www.espnscrum.com/wales/rugby/player/2272.html'
p254
aS'http://www.espnscrum.com/wales/rugby/player/2273.html'
p255
aS'http://www.espnscrum.com/wales/rugby/player/2274.html'
p256
aS'http://www.espnscrum.com/wales/rugby/player/2279.html'
p257
aS'http://www.espnscrum.com/wales/rugby/player/2280.html'
p258
aS'http://www.espnscrum.com/wales/rugby/player/2281.html'
p259
aS'http://www.espnscrum.com/wales/rugby/player/2282.html'
p260
aS'http://www.espnscrum.com/wales/rugby/player/2283.html'
p261
aS'http://www.espnscrum.com/wales/rugby/player/2284.html'
p262
aS'http://www.espnscrum.com/wales/rugby/player/2285.html'
p263
aS'http://www.espnscrum.com/wales/rugby/player/2293.html'
p264
aS'http://www.espnscrum.com/wales/rugby/player/2339.html'
p265
aS'http://www.espnscrum.com/wales/rugby/player/2340.html'
p266
aS'http://www.espnscrum.com/wales/rugby/player/2341.html'
p267
aS'http://www.espnscrum.com/wales/rugby/player/2342.html'
p268
aS'http://www.espnscrum.com/wales/rugby/player/2343.html'
p269
aS'http://www.espnscrum.com/wales/rugby/player/2344.html'
p270
aS'http://www.espnscrum.com/wales/rugby/player/2345.html'
p271
aS'http://www.espnscrum.com/wales/rugby/player/2346.html'
p272
aS'http://www.espnscrum.com/wales/rugby/player/2347.html'
p273
aS'http://www.espnscrum.com/wales/rugby/player/2369.html'
p274
aS'http://www.espnscrum.com/wales/rugby/player/1978.html'
p275
aS'http://www.espnscrum.com/wales/rugby/player/2370.html'
p276
aS'http://www.espnscrum.com/wales/rugby/player/2371.html'
p277
aS'http://www.espnscrum.com/wales/rugby/player/2373.html'
p278
aS'http://www.espnscrum.com/wales/rugby/player/2385.html'
p279
aS'http://www.espnscrum.com/wales/rugby/player/2386.html'
p280
aS'http://www.espnscrum.com/wales/rugby/player/2475.html'
p281
aS'http://www.espnscrum.com/wales/rugby/player/2476.html'
p282
aS'http://www.espnscrum.com/wales/rugby/player/1979.html'
p283
aS'http://www.espnscrum.com/wales/rugby/player/2480.html'
p284
aS'http://www.espnscrum.com/wales/rugby/player/2481.html'
p285
aS'http://www.espnscrum.com/wales/rugby/player/2483.html'
p286
aS'http://www.espnscrum.com/wales/rugby/player/2493.html'
p287
aS'http://www.espnscrum.com/wales/rugby/player/2531.html'
p288
aS'http://www.espnscrum.com/wales/rugby/player/2535.html'
p289
aS'http://www.espnscrum.com/wales/rugby/player/2536.html'
p290
aS'http://www.espnscrum.com/wales/rugby/player/2537.html'
p291
aS'http://www.espnscrum.com/wales/rugby/player/2538.html'
p292
aS'http://www.espnscrum.com/wales/rugby/player/2541.html'
p293
aS'http://www.espnscrum.com/wales/rugby/player/2542.html'
p294
aS'http://www.espnscrum.com/wales/rugby/player/2543.html'
p295
aS'http://www.espnscrum.com/wales/rugby/player/2544.html'
p296
aS'http://www.espnscrum.com/wales/rugby/player/2545.html'
p297
aS'http://www.espnscrum.com/wales/rugby/player/2546.html'
p298
aS'http://www.espnscrum.com/wales/rugby/player/2549.html'
p299
aS'http://www.espnscrum.com/wales/rugby/player/2551.html'
p300
aS'http://www.espnscrum.com/wales/rugby/player/2592.html'
p301
aS'http://www.espnscrum.com/wales/rugby/player/2595.html'
p302
aS'http://www.espnscrum.com/wales/rugby/player/2598.html'
p303
aS'http://www.espnscrum.com/wales/rugby/player/2599.html'
p304
aS'http://www.espnscrum.com/wales/rugby/player/2605.html'
p305
aS'http://www.espnscrum.com/wales/rugby/player/2606.html'
p306
aS'http://www.espnscrum.com/wales/rugby/player/2607.html'
p307
aS'http://www.espnscrum.com/wales/rugby/player/2608.html'
p308
aS'http://www.espnscrum.com/wales/rugby/player/2610.html'
p309
aS'http://www.espnscrum.com/wales/rugby/player/2625.html'
p310
aS'http://www.espnscrum.com/wales/rugby/player/2643.html'
p311
aS'http://www.espnscrum.com/wales/rugby/player/2644.html'
p312
aS'http://www.espnscrum.com/wales/rugby/player/2654.html'
p313
aS'http://www.espnscrum.com/wales/rugby/player/2725.html'
p314
aS'http://www.espnscrum.com/wales/rugby/player/2726.html'
p315
aS'http://www.espnscrum.com/wales/rugby/player/2729.html'
p316
aS'http://www.espnscrum.com/wales/rugby/player/2730.html'
p317
aS'http://www.espnscrum.com/wales/rugby/player/2731.html'
p318
aS'http://www.espnscrum.com/wales/rugby/player/2732.html'
p319
aS'http://www.espnscrum.com/wales/rugby/player/2734.html'
p320
aS'http://www.espnscrum.com/wales/rugby/player/2753.html'
p321
aS'http://www.espnscrum.com/wales/rugby/player/2748.html'
p322
aS'http://www.espnscrum.com/wales/rugby/player/2752.html'
p323
aS'http://www.espnscrum.com/wales/rugby/player/2754.html'
p324
aS'http://www.espnscrum.com/wales/rugby/player/2763.html'
p325
aS'http://www.espnscrum.com/wales/rugby/player/2765.html'
p326
aS'http://www.espnscrum.com/wales/rugby/player/2768.html'
p327
aS'http://www.espnscrum.com/wales/rugby/player/2769.html'
p328
aS'http://www.espnscrum.com/wales/rugby/player/2770.html'
p329
aS'http://www.espnscrum.com/wales/rugby/player/2771.html'
p330
aS'http://www.espnscrum.com/wales/rugby/player/2772.html'
p331
aS'http://www.espnscrum.com/wales/rugby/player/2856.html'
p332
aS'http://www.espnscrum.com/wales/rugby/player/2858.html'
p333
aS'http://www.espnscrum.com/wales/rugby/player/2859.html'
p334
aS'http://www.espnscrum.com/wales/rugby/player/2860.html'
p335
aS'http://www.espnscrum.com/wales/rugby/player/2861.html'
p336
aS'http://www.espnscrum.com/wales/rugby/player/2862.html'
p337
aS'http://www.espnscrum.com/wales/rugby/player/2863.html'
p338
aS'http://www.espnscrum.com/wales/rugby/player/2864.html'
p339
aS'http://www.espnscrum.com/wales/rugby/player/2868.html'
p340
aS'http://www.espnscrum.com/wales/rugby/player/2943.html'
p341
aS'http://www.espnscrum.com/wales/rugby/player/2944.html'
p342
aS'http://www.espnscrum.com/wales/rugby/player/2948.html'
p343
aS'http://www.espnscrum.com/wales/rugby/player/2954.html'
p344
aS'http://www.espnscrum.com/wales/rugby/player/2956.html'
p345
aS'http://www.espnscrum.com/wales/rugby/player/2957.html'
p346
aS'http://www.espnscrum.com/wales/rugby/player/2958.html'
p347
aS'http://www.espnscrum.com/wales/rugby/player/2972.html'
p348
aS'http://www.espnscrum.com/wales/rugby/player/2975.html'
p349
aS'http://www.espnscrum.com/wales/rugby/player/2977.html'
p350
aS'http://www.espnscrum.com/wales/rugby/player/2979.html'
p351
aS'http://www.espnscrum.com/wales/rugby/player/2980.html'
p352
aS'http://www.espnscrum.com/wales/rugby/player/2981.html'
p353
aS'http://www.espnscrum.com/wales/rugby/player/2982.html'
p354
aS'http://www.espnscrum.com/wales/rugby/player/2983.html'
p355
aS'http://www.espnscrum.com/wales/rugby/player/2984.html'
p356
aS'http://www.espnscrum.com/wales/rugby/player/3055.html'
p357
aS'http://www.espnscrum.com/wales/rugby/player/3056.html'
p358
aS'http://www.espnscrum.com/wales/rugby/player/3058.html'
p359
aS'http://www.espnscrum.com/wales/rugby/player/3059.html'
p360
aS'http://www.espnscrum.com/wales/rugby/player/3060.html'
p361
aS'http://www.espnscrum.com/wales/rugby/player/3061.html'
p362
aS'http://www.espnscrum.com/wales/rugby/player/3062.html'
p363
aS'http://www.espnscrum.com/wales/rugby/player/3064.html'
p364
aS'http://www.espnscrum.com/wales/rugby/player/3065.html'
p365
aS'http://www.espnscrum.com/wales/rugby/player/3076.html'
p366
aS'http://www.espnscrum.com/wales/rugby/player/3077.html'
p367
aS'http://www.espnscrum.com/wales/rugby/player/3079.html'
p368
aS'http://www.espnscrum.com/wales/rugby/player/3080.html'
p369
aS'http://www.espnscrum.com/wales/rugby/player/3089.html'
p370
aS'http://www.espnscrum.com/wales/rugby/player/3090.html'
p371
aS'http://www.espnscrum.com/wales/rugby/player/3091.html'
p372
aS'http://www.espnscrum.com/wales/rugby/player/3094.html'
p373
aS'http://www.espnscrum.com/wales/rugby/player/3095.html'
p374
aS'http://www.espnscrum.com/wales/rugby/player/3096.html'
p375
aS'http://www.espnscrum.com/wales/rugby/player/3100.html'
p376
aS'http://www.espnscrum.com/wales/rugby/player/3101.html'
p377
aS'http://www.espnscrum.com/wales/rugby/player/3102.html'
p378
aS'http://www.espnscrum.com/wales/rugby/player/3104.html'
p379
aS'http://www.espnscrum.com/wales/rugby/player/3189.html'
p380
aS'http://www.espnscrum.com/wales/rugby/player/3190.html'
p381
aS'http://www.espnscrum.com/wales/rugby/player/3203.html'
p382
aS'http://www.espnscrum.com/wales/rugby/player/3204.html'
p383
aS'http://www.espnscrum.com/wales/rugby/player/3205.html'
p384
aS'http://www.espnscrum.com/wales/rugby/player/3208.html'
p385
aS'http://www.espnscrum.com/wales/rugby/player/3209.html'
p386
aS'http://www.espnscrum.com/wales/rugby/player/3210.html'
p387
aS'http://www.espnscrum.com/wales/rugby/player/3211.html'
p388
aS'http://www.espnscrum.com/wales/rugby/player/3224.html'
p389
aS'http://www.espnscrum.com/wales/rugby/player/3226.html'
p390
aS'http://www.espnscrum.com/wales/rugby/player/3232.html'
p391
aS'http://www.espnscrum.com/wales/rugby/player/3234.html'
p392
aS'http://www.espnscrum.com/wales/rugby/player/3235.html'
p393
aS'http://www.espnscrum.com/wales/rugby/player/3239.html'
p394
aS'http://www.espnscrum.com/wales/rugby/player/3240.html'
p395
aS'http://www.espnscrum.com/wales/rugby/player/3241.html'
p396
aS'http://www.espnscrum.com/wales/rugby/player/3243.html'
p397
aS'http://www.espnscrum.com/wales/rugby/player/3290.html'
p398
aS'http://www.espnscrum.com/wales/rugby/player/3293.html'
p399
aS'http://www.espnscrum.com/wales/rugby/player/3296.html'
p400
aS'http://www.espnscrum.com/wales/rugby/player/3297.html'
p401
aS'http://www.espnscrum.com/wales/rugby/player/3298.html'
p402
aS'http://www.espnscrum.com/wales/rugby/player/3299.html'
p403
aS'http://www.espnscrum.com/wales/rugby/player/3300.html'
p404
aS'http://www.espnscrum.com/wales/rugby/player/3301.html'
p405
aS'http://www.espnscrum.com/wales/rugby/player/3312.html'
p406
aS'http://www.espnscrum.com/wales/rugby/player/3314.html'
p407
aS'http://www.espnscrum.com/wales/rugby/player/3316.html'
p408
aS'http://www.espnscrum.com/wales/rugby/player/3326.html'
p409
aS'http://www.espnscrum.com/wales/rugby/player/3327.html'
p410
aS'http://www.espnscrum.com/wales/rugby/player/3328.html'
p411
aS'http://www.espnscrum.com/wales/rugby/player/3396.html'
p412
aS'http://www.espnscrum.com/wales/rugby/player/3397.html'
p413
aS'http://www.espnscrum.com/wales/rugby/player/3400.html'
p414
aS'http://www.espnscrum.com/wales/rugby/player/3401.html'
p415
aS'http://www.espnscrum.com/wales/rugby/player/3404.html'
p416
aS'http://www.espnscrum.com/wales/rugby/player/3405.html'
p417
aS'http://www.espnscrum.com/wales/rugby/player/3406.html'
p418
aS'http://www.espnscrum.com/wales/rugby/player/3407.html'
p419
aS'http://www.espnscrum.com/wales/rugby/player/3414.html'
p420
aS'http://www.espnscrum.com/wales/rugby/player/3416.html'
p421
aS'http://www.espnscrum.com/wales/rugby/player/3492.html'
p422
aS'http://www.espnscrum.com/wales/rugby/player/3493.html'
p423
aS'http://www.espnscrum.com/wales/rugby/player/3494.html'
p424
aS'http://www.espnscrum.com/wales/rugby/player/3495.html'
p425
aS'http://www.espnscrum.com/wales/rugby/player/3496.html'
p426
aS'http://www.espnscrum.com/wales/rugby/player/3497.html'
p427
aS'http://www.espnscrum.com/wales/rugby/player/3498.html'
p428
aS'http://www.espnscrum.com/wales/rugby/player/3499.html'
p429
aS'http://www.espnscrum.com/wales/rugby/player/3515.html'
p430
aS'http://www.espnscrum.com/wales/rugby/player/3516.html'
p431
aS'http://www.espnscrum.com/wales/rugby/player/3543.html'
p432
aS'http://www.espnscrum.com/wales/rugby/player/3640.html'
p433
aS'http://www.espnscrum.com/wales/rugby/player/3643.html'
p434
aS'http://www.espnscrum.com/wales/rugby/player/3644.html'
p435
aS'http://www.espnscrum.com/wales/rugby/player/3646.html'
p436
aS'http://www.espnscrum.com/wales/rugby/player/3647.html'
p437
aS'http://www.espnscrum.com/wales/rugby/player/3655.html'
p438
aS'http://www.espnscrum.com/wales/rugby/player/3656.html'
p439
aS'http://www.espnscrum.com/wales/rugby/player/3658.html'
p440
aS'http://www.espnscrum.com/wales/rugby/player/3659.html'
p441
aS'http://www.espnscrum.com/wales/rugby/player/3666.html'
p442
aS'http://www.espnscrum.com/wales/rugby/player/3747.html'
p443
aS'http://www.espnscrum.com/wales/rugby/player/3750.html'
p444
aS'http://www.espnscrum.com/wales/rugby/player/3753.html'
p445
aS'http://www.espnscrum.com/wales/rugby/player/3755.html'
p446
aS'http://www.espnscrum.com/wales/rugby/player/3760.html'
p447
aS'http://www.espnscrum.com/wales/rugby/player/3761.html'
p448
aS'http://www.espnscrum.com/wales/rugby/player/3764.html'
p449
aS'http://www.espnscrum.com/wales/rugby/player/3765.html'
p450
aS'http://www.espnscrum.com/wales/rugby/player/3773.html'
p451
aS'http://www.espnscrum.com/wales/rugby/player/3774.html'
p452
aS'http://www.espnscrum.com/wales/rugby/player/3781.html'
p453
aS'http://www.espnscrum.com/wales/rugby/player/3782.html'
p454
aS'http://www.espnscrum.com/wales/rugby/player/3783.html'
p455
aS'http://www.espnscrum.com/wales/rugby/player/3838.html'
p456
aS'http://www.espnscrum.com/wales/rugby/player/3862.html'
p457
aS'http://www.espnscrum.com/wales/rugby/player/3863.html'
p458
aS'http://www.espnscrum.com/wales/rugby/player/3865.html'
p459
aS'http://www.espnscrum.com/wales/rugby/player/3908.html'
p460
aS'http://www.espnscrum.com/wales/rugby/player/4061.html'
p461
aS'http://www.espnscrum.com/wales/rugby/player/4062.html'
p462
aS'http://www.espnscrum.com/wales/rugby/player/4063.html'
p463
aS'http://www.espnscrum.com/wales/rugby/player/4064.html'
p464
aS'http://www.espnscrum.com/wales/rugby/player/4065.html'
p465
aS'http://www.espnscrum.com/wales/rugby/player/4067.html'
p466
aS'http://www.espnscrum.com/wales/rugby/player/4068.html'
p467
aS'http://www.espnscrum.com/wales/rugby/player/4069.html'
p468
aS'http://www.espnscrum.com/wales/rugby/player/4071.html'
p469
aS'http://www.espnscrum.com/wales/rugby/player/4076.html'
p470
a.