(lp1
VThree-quarters
p2
aVForward
p3
aVForward
p4
aVForward
p5
aVHalfback
p6
aVForward
p7
aVHalfback
p8
aVThree-quarters
p9
aVForward
p10
aVForward
p11
aVForward
p12
aVFullback
p13
aVForward
p14
aVHalfback
p15
aVForward
p16
aVForward
p17
aVHalfback
p18
aVForward
p19
aVFullback
p20
aVThree-quarters
p21
aVForward
p22
aVFullback
p23
aVForward
p24
aVThree-quarters
p25
aVForward
p26
aVForward
p27
aVFullback
p28
aVForward
p29
aVThree-quarters
p30
aVCentre
p31
aVForward
p32
aVForward
p33
aVForward
p34
aVForward
p35
aVThree-quarters
p36
aVForward
p37
aVHalfback
p38
aVForward
p39
aVForward
p40
aVForward
p41
aVThree-quarters
p42
aVFullback
p43
aVForward
p44
aVThree-quarters
p45
aVForward
p46
aVForward
p47
aVHalfback
p48
aVCentre
p49
aVThree-quarters
p50
aVForward
p51
aVForward
p52
aVForward
p53
aVForward
p54
aVForward
p55
aVForward
p56
aVForward
p57
aVForward
p58
aVThree-quarters
p59
aVForward
p60
aVForward
p61
aVForward
p62
aVHalfback
p63
aVForward
p64
aVHalfback
p65
aVForward
p66
aVForward
p67
aVThree-quarters
p68
aVFullback
p69
aVForward
p70
aVHalfback
p71
aVForward
p72
aVForward
p73
aVThree-quarters
p74
aVForward
p75
aVForward
p76
aVForward
p77
aVFullback
p78
aVForward
p79
aVCentre
p80
aVHalfback
p81
aVWing
p82
aVCentre
p83
aVForward
p84
aVForward
p85
aVForward
p86
aVForward
p87
aVWing
p88
aVFullback
p89
aVCentre
p90
aVForward
p91
aVHalfback
p92
aVForward
p93
aVWing
p94
aVHalfback
p95
aVCentre
p96
aVFullback
p97
aVHalfback
p98
aVWing
p99
aVForward
p100
aVForward
p101
aVForward
p102
aVHalfback
p103
aVForward
p104
aVForward
p105
aVWing
p106
aVForward
p107
aVForward
p108
aVWing
p109
aVHalfback
p110
aVForward
p111
aVHalfback
p112
aVForward
p113
aVForward
p114
aVForward
p115
aVForward
p116
aVForward
p117
aVFly-half
p118
aVHalfback
p119
aVForward
p120
aVCentre
p121
aVForward
p122
aVCentre
p123
aVWing
p124
aVScrum-half
p125
aVCentre
p126
aVWing
p127
aVScrum-half
p128
aVForward
p129
aVForward
p130
aVCentre
p131
aVFly-half
p132
aVHalfback
p133
aVForward
p134
aVForward
p135
aVForward
p136
aVWing
p137
aVForward
p138
aVForward
p139
aVFly-half
p140
aVWing
p141
aVWing
p142
aVForward
p143
aVForward
p144
aVForward
p145
aVForward
p146
aVForward
p147
aVForward
p148
aVCentre
p149
aVFly-half
p150
aVForward
p151
aVForward
p152
aVForward
p153
aVHalfback
p154
aVForward
p155
aVForward
p156
aVForward
p157
aVForward
p158
aVLock
p159
aVForward
p160
aVWing
p161
aVCentre
p162
aVForward
p163
aVForward
p164
aVForward
p165
aVWing
p166
aVForward
p167
aVForward
p168
aVCentre
p169
aVCentre
p170
aVScrum-half
p171
aVCentre
p172
aVForward
p173
aVCentre
p174
aVForward
p175
aVForward
p176
aVScrum-half
p177
aVCentre
p178
aVForward
p179
aVFly-half
p180
aVScrum-half
p181
aVForward
p182
aVForward
p183
aVFullback
p184
aVForward
p185
aVWing
p186
aVForward
p187
aVForward
p188
aVForward
p189
aVWing
p190
aVHooker
p191
aVWing
p192
aVFullback
p193
aVForward
p194
aVForward
p195
aVForward
p196
aVForward
p197
aVCentre
p198
aVForward
p199
aVForward
p200
aVForward
p201
aVForward
p202
aVForward
p203
aVHalfback
p204
aVForward
p205
aVFly-half
p206
aVWing
p207
aVWing
p208
aVFlanker
p209
aVForward
p210
aVForward
p211
aVFullback
p212
aVForward
p213
aVForward
p214
aVWing
p215
aVForward
p216
aVFullback
p217
aVForward
p218
aVCentre
p219
aVForward
p220
aVLock
p221
aVScrum-half
p222
aVWing
p223
aVScrum-half
p224
aVForward
p225
aVWing
p226
aVCentre
p227
aVFlanker
p228
aVForward
p229
aVFullback
p230
aVForward
p231
aVWing
p232
aVForward
p233
aVForward
p234
aVForward
p235
aVForward
p236
aVForward
p237
aVHooker
p238
aVFlanker
p239
aVHalfback
p240
aVCentre
p241
aVCentre
p242
aVCentre
p243
aVLock
p244
aVLock
p245
aVProp
p246
aVForward
p247
aVWing
p248
aVHooker
p249
aVFly-half
p250
aVProp
p251
aVProp
p252
aVHooker
p253
aVCentre
p254
aVWing
p255
aVWing
p256
aVFlanker
p257
aVProp
p258
aVFlanker
p259
aVWing
p260
aVFly-half
p261
aVHooker
p262
aVFlanker
p263
aVFullback
p264
aVBack-row
p265
aVWing
p266
aVNo. 8
p267
aVLock
p268
aVFlanker
p269
aVProp
p270
aVFly-half
p271
aVProp
p272
aVFullback
p273
aVProp
p274
aVHalfback
p275
aVWing
p276
aVScrum-half
p277
aVForward
p278
aVFullback
p279
aVWing
p280
aVCentre
p281
aVProp
p282
aVNo. 8
p283
aVLock
p284
aVCentre
p285
aVWing
p286
aVFly-half
p287
aVFullback
p288
aVScrum-half
p289
aVLock
p290
aVProp
p291
aVFlanker
p292
aVProp
p293
aVWing
p294
aVFlanker
p295
aVFlanker
p296
aVCentre
p297
aVCentre
p298
aVWing
p299
aVLock
p300
aVFly-half
p301
aVCentre
p302
aVCentre
p303
aVFlanker
p304
aVFlanker
p305
aVFlanker
p306
aVWing
p307
aVFullback
p308
aVProp
p309
aVWing
p310
aVFlanker
p311
aVScrum-half
p312
aVFlanker
p313
aVProp
p314
aVLock
p315
aVFlanker
p316
aVWing
p317
aVForward
p318
aVWing
p319
aVProp
p320
aVCentre
p321
aVFly-half
p322
aVWing
p323
aVLock
p324
aVCentre
p325
aVFullback
p326
aVScrum-half
p327
aVFlanker
p328
aVScrum-half
p329
aVCentre
p330
aVProp
p331
aVNo. 8
p332
aVScrum-half
p333
aVCentre
p334
aVFlanker
p335
aVProp
p336
aVWing
p337
aVWing
p338
aVFlanker
p339
aVFullback
p340
aVCentre
p341
aVProp
p342
aVWing
p343
aVFlanker
p344
aVLock
p345
aVNo. 8
p346
aVLock
p347
aVFly-half
p348
aVFlanker
p349
aVNo. 8
p350
aVCentre
p351
aVProp
p352
aVFlanker
p353
aVWing
p354
aVFlanker
p355
aVNo. 8
p356
aVCentre
p357
aVLock
p358
aVFlanker
p359
aVProp
p360
aVLock
p361
aVFly-half
p362
aVLock
p363
aVHooker
p364
aVScrum-half
p365
aVCentre
p366
aVCentre
p367
aVFly-half
p368
aVFullback
p369
aVCentre
p370
aVProp
p371
aVHooker
p372
aVFlanker
p373
aVProp
p374
aVLock
p375
aVWing
p376
aVCentre
p377
aVLock
p378
aVCentre
p379
aVHooker
p380
aVFly-half
p381
aVFly-half
p382
aVWing
p383
aVFlanker
p384
aVLock
p385
aVNo. 8
p386
aVWing
p387
aVCentre
p388
aVLock
p389
aVProp
p390
aVFlanker
p391
aVFlanker
p392
aVLock
p393
aVFlanker
p394
aVScrum-half
p395
aVFullback
p396
aVCentre
p397
aVWing
p398
aVFullback
p399
aVProp
p400
aVLock
p401
aVHooker
p402
aVProp
p403
aVFly-half
p404
aVProp
p405
aVFullback
p406
aVScrum-half
p407
aVFlanker
p408
aVFly-half
p409
aVFullback
p410
aVWing
p411
aVLock
p412
aVCentre
p413
aVNo. 8
p414
aVFlanker
p415
aVLock
p416
aVWing
p417
aVLock
p418
aVFly-half
p419
aVProp
p420
aVCentre
p421
aVHooker
p422
aVNo. 8
p423
aVScrum-half
p424
aVNo. 8
p425
aVProp
p426
aVWing
p427
aVNo. 8
p428
aVCentre
p429
aVHooker
p430
aVProp
p431
aVWing
p432
aVFullback
p433
aVLock
p434
aVFlanker
p435
aVWing
p436
aVFly-half
p437
aVProp
p438
aVCentre
p439
aVFlanker
p440
aVCentre
p441
aVNo. 8
p442
aVWing
p443
aVCentre
p444
aVScrum-half
p445
aVFlanker
p446
aVWing
p447
aVHooker
p448
aVCentre
p449
aVLock
p450
aVFlanker
p451
aVWing
p452
aVCentre
p453
aVProp
p454
aVFullback
p455
aVProp
p456
aVHooker
p457
aVNo. 8
p458
aVFly-half
p459
aVFlanker
p460
aVHooker
p461
aVFlanker
p462
aVFullback
p463
aVWing
p464
aVLock
p465
aVScrum-half
p466
aVCentre
p467
aVFullback
p468
aVScrum-half
p469
aVFly-half
p470
a.