(lp1
VThree-quarters
p2
aVForward
p3
aVForward
p4
aVForward
p5
aVHalfback
p6
aVForward
p7
aVHalfback
p8
aVThree-quarters
p9
aVForward
p10
aVForward
p11
aVForward
p12
aVFullback
p13
aVForward
p14
aVHalfback
p15
aVForward
p16
aVForward
p17
aVHalfback
p18
aVForward
p19
aVFullback
p20
aVThree-quarters
p21
aVForward
p22
aVFullback
p23
aVForward
p24
aVThree-quarters
p25
aVForward
p26
aVForward
p27
aVFullback
p28
aVForward
p29
aVThree-quarters
p30
aVCentre
p31
aVForward
p32
aVForward
p33
aVForward
p34
aVForward
p35
aVThree-quarters
p36
aVForward
p37
aVHalfback
p38
aVForward
p39
aVForward
p40
aVForward
p41
aVThree-quarters
p42
aVFullback
p43
aVForward
p44
aVThree-quarters
p45
aVForward
p46
aVForward
p47
aVHalfback
p48
aVCentre
p49
aVThree-quarters
p50
aVForward
p51
aVForward
p52
aVForward
p53
aVForward
p54
aVForward
p55
aVForward
p56
aVForward
p57
aVForward
p58
aVThree-quarters
p59
aVForward
p60
aVForward
p61
aVForward
p62
aVHalfback
p63
aVForward
p64
aVHalfback
p65
aVForward
p66
aVForward
p67
aVThree-quarters
p68
aVFullback
p69
aVForward
p70
aVHalfback
p71
aVForward
p72
aVForward
p73
aVThree-quarters
p74
aVForward
p75
aVForward
p76
aVForward
p77
aVFullback
p78
aVForward
p79
aVCentre
p80
aVHalfback
p81
aVWing
p82
aVCentre
p83
aVForward
p84
aVForward
p85
aVForward
p86
aVForward
p87
aVWing
p88
aVFullback
p89
aVCentre
p90
aVForward
p91
aVHalfback
p92
aVForward
p93
aVWing
p94
aVHalfback
p95
aVCentre
p96
aVFullback
p97
aVHalfback
p98
aVWing
p99
aVForward
p100
aVForward
p101
aVForward
p102
aVHalfback
p103
aVForward
p104
aVForward
p105
aVWing
p106
aVForward
p107
aVForward
p108
aVWing
p109
aVHalfback
p110
aVForward
p111
aVHalfback
p112
aVForward
p113
aVForward
p114
aVForward
p115
aVForward
p116
aVForward
p117
aVFly-half
p118
aVHalfback
p119
aVForward
p120
aVCentre
p121
aVForward
p122
aVCentre
p123
aVWing
p124
aVScrum-half
p125
aVCentre
p126
aVWing
p127
aVScrum-half
p128
aVForward
p129
aVForward
p130
aVCentre
p131
aVFly-half
p132
aVHalfback
p133
aVForward
p134
aVForward
p135
aVForward
p136
aVWing
p137
aVForward
p138
aVForward
p139
aVFly-half
p140
aVWing
p141
aVWing
p142
aVForward
p143
aVForward
p144
aVForward
p145
aVForward
p146
aVForward
p147
aVForward
p148
aVCentre
p149
aVFly-half
p150
aVForward
p151
aVForward
p152
aVForward
p153
aVHalfback
p154
aVForward
p155
aVForward
p156
aVForward
p157
aVForward
p158
aVLock
p159
aVForward
p160
aVWing
p161
aVCentre
p162
aVForward
p163
aVForward
p164
aVForward
p165
aVWing
p166
aVForward
p167
aVForward
p168
aVCentre
p169
aVCentre
p170
aVScrum-half
p171
aVCentre
p172
aVForward
p173
aVCentre
p174
aVForward
p175
aVForward
p176
aVScrum-half
p177
aVCentre
p178
aVForward
p179
aVFly-half
p180
aVScrum-half
p181
aVForward
p182
aVForward
p183
aVFullback
p184
aVForward
p185
aVWing
p186
aVForward
p187
aVForward
p188
aVForward
p189
aVWing
p190
aVHooker
p191
aVWing
p192
aVFullback
p193
aVForward
p194
aVForward
p195
aVForward
p196
aVForward
p197
aVCentre
p198
aVForward
p199
aVForward
p200
aVForward
p201
aVForward
p202
aVForward
p203
aVHalfback
p204
aVForward
p205
aVFly-half
p206
aVWing
p207
aVWing
p208
aVFlanker
p209
aVForward
p210
aVForward
p211
aVFullback
p212
aVForward
p213
aVForward
p214
aVWing
p215
aVForward
p216
aVFullback
p217
aVForward
p218
aVCentre
p219
aVForward
p220
aVLock
p221
aVScrum-half
p222
aVWing
p223
aVScrum-half
p224
aVForward
p225
aVWing
p226
aVCentre
p227
aVFlanker
p228
aVForward
p229
aVFullback
p230
aVForward
p231
aVWing
p232
aVForward
p233
aVForward
p234
aVForward
p235
aVForward
p236
aVForward
p237
aVHooker
p238
aVFlanker
p239
aVHalfback
p240
aVCentre
p241
aVCentre
p242
aVCentre
p243
aVLock
p244
aVLock
p245
aVProp
p246
aVForward
p247
aVWing
p248
aVHooker
p249
aVFly-half
p250
aVProp
p251
aVProp
p252
aVHooker
p253
aVCentre
p254
aVWing
p255
aVWing
p256
aVFlanker
p257
aVProp
p258
aVFlanker
p259
aVWing
p260
aVFly-half
p261
aVHooker
p262
aVFlanker
p263
aVFullback
p264
aVBack-row
p265
aVWing
p266
aVNo. 8
p267
aVLock
p268
aVFlanker
p269
aVProp
p270
aVFly-half
p271
aVProp
p272
aVFullback
p273
aVProp
p274
aVHalfback
p275
aVWing
p276
aVScrum-half
p277
aVForward
p278
aVFullback
p279
aVWing
p280
aVCentre
p281
aVProp
p282
aVNo. 8
p283
aVLock
p284
aVCentre
p285
aVWing
p286
aVFly-half
p287
aVFullback
p288
aVScrum-half
p289
aVLock
p290
aVProp
p291
aVFlanker
p292
aVProp
p293
aVWing
p294
aVFlanker
p295
aVFlanker
p296
aVCentre
p297
aVCentre
p298
aVWing
p299
aVLock
p300
aVFly-half
p301
aVCentre
p302
aVCentre
p303
aVFlanker
p304
aVFlanker
p305
aVFlanker
p306
aVWing
p307
aVFullback
p308
aVProp
p309
aVWing
p310
aVFlanker
p311
aVScrum-half
p312
aVFlanker
p313
aVProp
p314
aVLock
p315
aVFlanker
p316
aVWing
p317
aVForward
p318
aVWing
p319
aVProp
p320
aVCentre
p321
aVFly-half
p322
aVWing
p323
aVLock
p324
aVCentre
p325
aVFullback
p326
aVScrum-half
p327
aVFlanker
p328
aVScrum-half
p329
aVCentre
p330
aVProp
p331
aVNo. 8
p332
aVScrum-half
p333
aVCentre
p334
aVFlanker
p335
aVProp
p336
aVWing
p337
aVWing
p338
aVFlanker
p339
aVFullback
p340
aVCentre
p341
aVProp
p342
aVWing
p343
aVFlanker
p344
aVLock
p345
aVNo. 8
p346
aVLock
p347
aVFly-half
p348
aVFlanker
p349
aVNo. 8
p350
aVCentre
p351
aVProp
p352
aVFlanker
p353
aVWing
p354
aVFlanker
p355
aVNo. 8
p356
aVCentre
p357
aVLock
p358
aVFlanker
p359
aVProp
p360
aVLock
p361
aVFly-half
p362
aVLock
p363
aVHooker
p364
aVScrum-half
p365
aVCentre
p366
aVCentre
p367
aVFly-half
p368
aVFullback
p369
aVCentre
p370
aVProp
p371
aVHooker
p372
aVFlanker
p373
aVProp
p374
aVLock
p375
aVWing
p376
aVCentre
p377
aVLock
p378
aVCentre
p379
aVHooker
p380
aVFly-half
p381
aVFly-half
p382
aVWing
p383
aVFlanker
p384
aVLock
p385
aVNo. 8
p386
aVWing
p387
aVCentre
p388
aVLock
p389
aVProp
p390
aVFlanker
p391
aVFlanker
p392
aVLock
p393
aVFlanker
p394
aVScrum-half
p395
aVFullback
p396
aVCentre
p397
aVWing
p398
aVFullback
p399
aVProp
p400
aVLock
p401
aVHooker
p402
aVProp
p403
aVFly-half
p404
aVProp
p405
aVFullback
p406
aVScrum-half
p407
aVFlanker
p408
aVFly-half
p409
aVFullback
p410
aVWing
p411
aVLock
p412
aVCentre
p413
aVNo. 8
p414
aVFlanker
p415
aVLock
p416
aVWing
p417
aVLock
p418
aVFly-half
p419
aVProp
p420
aVCentre
p421
aVHooker
p422
aVNo. 8
p423
aVScrum-half
p424
aVNo. 8
p425
aVProp
p426
aVWing
p427
aVNo. 8
p428
aVCentre
p429
aVHooker
p430
aVProp
p431
aVWing
p432
aVFullback
p433
aVLock
p434
aVFlanker
p435
aVWing
p436
aVFly-half
p437
aVProp
p438
aVCentre
p439
aVFlanker
p440
aVCentre
p441
aVNo. 8
p442
aVWing
p443
aVCentre
p444
aVScrum-half
p445
aVFlanker
p446
aVWing
p447
aVHooker
p448
aVCentre
p449
aVLock
p450
aVFlanker
p451
aVWing
p452
aVCentre
p453
aVProp
p454
aVFullback
p455
aVProp
p456
aVHooker
p457
aVNo. 8
p458
aVFly-half
p459
aVFlanker
p460
aVHooker
p461
aVFlanker
p462
aVFullback
p463
aVWing
p464
aVLock
p465
aVScrum-half
p466
aVCentre
p467
aVFullback
p468
aVScrum-half
p469
aVFly-half
p470
aVLock
p471
aVFlanker
p472
aVWing
p473
aVProp
p474
aVScrum-half
p475
aVHooker
p476
aVFullback
p477
aVLock
p478
aVWing
p479
aVNo. 8
p480
aVFly-half
p481
aVFlanker
p482
aVFlanker
p483
aVCentre
p484
aVLock
p485
aVHooker
p486
aVFlanker
p487
aVScrum-half
p488
aVProp
p489
aVLock
p490
aVWing
p491
aVHooker
p492
aVProp
p493
aVProp
p494
aVFullback
p495
aVProp
p496
aVScrum-half
p497
aVHooker
p498
aVLock
p499
aVFlanker
p500
aVWing
p501
aVLock
p502
aVLock
p503
aVFly-half
p504
aVWing
p505
aVFlanker
p506
aVLock
p507
aVWing
p508
aVProp
p509
aVHooker
p510
aVProp
p511
aVFullback
p512
aVFlanker
p513
aVFlanker
p514
aVLock
p515
aVProp
p516
aVNo. 8
p517
aVFlanker
p518
aVCentre
p519
aVProp
p520
aVWing
p521
aVWing
p522
aVFullback
p523
aVProp
p524
aVCentre
p525
aVWing
p526
aVNo. 8
p527
aVLock
p528
aVProp
p529
aVWing
p530
aVProp
p531
aVHooker
p532
aVFly-half
p533
aVFlanker
p534
aVProp
p535
aVWing
p536
aVCentre
p537
aVLock
p538
aVLock
p539
aVCentre
p540
aVFlanker
p541
aVLock
p542
aVWing
p543
aVProp
p544
aVFly-half
p545
aVProp
p546
aVHooker
p547
aVLock
p548
aVFlanker
p549
aVWing
p550
aVProp
p551
aVScrum-half
p552
aVNo. 8
p553
aVHooker
p554
aVProp
p555
aVLock
p556
aVFullback
p557
aVFlanker
p558
aVProp
p559
aVLock
p560
aVLock
p561
aVWing
p562
aVWing
p563
aVFlanker
p564
aVCentre
p565
aVFlanker
p566
aVWing
p567
aVHooker
p568
aVLock
p569
aVFullback
p570
aVProp
p571
aVScrum-half
p572
aVFullback
p573
aVFlanker
p574
aVFlanker
p575
aVLock
p576
aVFly-half
p577
aVWing
p578
aVProp
p579
aVFlanker
p580
aVCentre
p581
aVScrum-half
p582
aVWing
p583
aVHooker
p584
aVFly-half
p585
aVFullback
p586
aVWing
p587
aVFlanker
p588
aVFlanker
p589
aVProp
p590
aVNo. 8
p591
aVScrum-half
p592
aVWing
p593
aVCentre
p594
aVFullback
p595
aVNo. 8
p596
aVHooker
p597
aVFlanker
p598
aVCentre
p599
aVLock
p600
aVFlanker
p601
aVWing
p602
aVFlanker
p603
aVFullback
p604
aVCentre
p605
aVFullback
p606
aVFlanker
p607
aVScrum-half
p608
aVWing
p609
aVCentre
p610
aVProp
p611
aVProp
p612
aVFlanker
p613
aVWing
p614
aVWing
p615
aVFlanker
p616
aVFlanker
p617
aVScrum-half
p618
aVCentre
p619
aVNo. 8
p620
aVProp
p621
aVCentre
p622
aVWing
p623
aVProp
p624
aVScrum-half
p625
aVLock
p626
aVCentre
p627
aVFlanker
p628
aVProp
p629
aVWing
p630
aVFullback
p631
aVWing
p632
aVFly-half
p633
aVWing
p634
aVCentre
p635
aVLock
p636
aVFlanker
p637
aVProp
p638
aVCentre
p639
aVLock
p640
aVFlanker
p641
aVCentre
p642
aVScrum-half
p643
aVFlanker
p644
aVProp
p645
aVScrum-half
p646
aVLock
p647
aVCentre
p648
aVWing
p649
aVFullback
p650
aVHooker
p651
aVCentre
p652
aVFly-half
p653
aVWing
p654
aVProp
p655
aVNo. 8
p656
aVScrum-half
p657
aVFly-half
p658
aVCentre
p659
aVProp
p660
aVWing
p661
aVCentre
p662
aVLock
p663
aVCentre
p664
aVCentre
p665
aVNo. 8
p666
aVHooker
p667
aVFullback
p668
aVCentre
p669
aVWing
p670
aVFly-half
p671
aVProp
p672
aVLock
p673
aVCentre
p674
aVFlanker
p675
aVFullback
p676
aVProp
p677
aVFlanker
p678
aVNo. 8
p679
aVScrum-half
p680
aVLock
p681
aVFly-half
p682
aVProp
p683
aVCentre
p684
aVFlanker
p685
aVWing
p686
aVProp
p687
aVFlanker
p688
aVCentre
p689
aVCentre
p690
aVNo. 8
p691
aVWing
p692
aVFlanker
p693
aVWing
p694
aVCentre
p695
aVFullback
p696
aVProp
p697
aVLock
p698
aVWing
p699
aVScrum-half
p700
aVProp
p701
aVFlanker
p702
aVWing
p703
aVFly-half
p704
aVLock
p705
aVScrum-half
p706
aVLock
p707
aVProp
p708
aVCentre
p709
aVHooker
p710
aVFlanker
p711
aVScrum-half
p712
aVNo. 8
p713
aVFlanker
p714
aVCentre
p715
aVCentre
p716
aVFlanker
p717
aVNo. 8
p718
aVWing
p719
aVFullback
p720
aVLock
p721
aVFlanker
p722
aVProp
p723
aVNo. 8
p724
aVFullback
p725
aVHooker
p726
aVLock
p727
aVWing
p728
aVNo. 8
p729
aVFullback
p730
aVFly-half
p731
aVLock
p732
aVProp
p733
aVHooker
p734
aVWing
p735
aVScrum-half
p736
aVCentre
p737
aVLock
p738
aVCentre
p739
aVWing
p740
aVWing
p741
aVWing
p742
aVLock
p743
aVCentre
p744
aVNo. 8
p745
aVProp
p746
aVProp
p747
aVFlanker
p748
aVWing
p749
aVLock
p750
aVHooker
p751
aVScrum-half
p752
aVFlanker
p753
aVCentre
p754
aVWing
p755
aVLock
p756
aVProp
p757
aVLock
p758
aVFullback
p759
aVFly-half
p760
aVFlanker
p761
aVProp
p762
aVCentre
p763
aVCentre
p764
aVProp
p765
aVProp
p766
aVCentre
p767
aVFlanker
p768
aVFlanker
p769
aVWing
p770
aVProp
p771
aVFly-half
p772
aVScrum-half
p773
aVFlanker
p774
aVLock
p775
aVCentre
p776
aVScrum-half
p777
aVProp
p778
aVFlanker
p779
aVWing
p780
aVLock
p781
aVCentre
p782
aVHooker
p783
aVFullback
p784
aVNo. 8
p785
aVWing
p786
aVCentre
p787
aVCentre
p788
aVNo. 8
p789
aVFlanker
p790
aVWing
p791
aVProp
p792
aVFullback
p793
aVFly-half
p794
aVScrum-half
p795
aVCentre
p796
aVFlanker
p797
aVLock
p798
aVLock
p799
aVLock
p800
aVFly-half
p801
aVHooker
p802
aVFlanker
p803
aVCentre
p804
aVFullback
p805
aVProp
p806
aVProp
p807
aVLock
p808
aV
aVCentre
p809
aVFlanker
p810
aVScrum-half
p811
aVWing, Centre
p812
aVLock
p813
aVWing
p814
aVFullback
p815
aVScrum-half
p816
aVProp
p817
aVHooker
p818
aVScrum-half
p819
aVFlanker
p820
aVWing
p821
aVProp
p822
aVFlanker
p823
aVProp
p824
aVFullback
p825
aVNo. 8
p826
aVFly-half
p827
aVLock
p828
aVCentre
p829
aVWing, Centre
p830
aVScrum-half
p831
aVLock
p832
aVFlanker
p833
aVLock
p834
aVWing
p835
aVWing
p836
aVHooker
p837
aVFlanker
p838
aVProp
p839
aVBack-row
p840
aVProp
p841
aVProp
p842
aVProp
p843
aVFlanker
p844
aVBack-row
p845
aVProp
p846
aVLock
p847
aVFullback
p848
aVLock
p849
aVHooker
p850
aVFlanker
p851
aVNo. 8
p852
aVCentre
p853
aVCentre
p854
aVScrum-half
p855
aVFlanker
p856
aVLock
p857
aVFullback
p858
aVWing
p859
aVProp
p860
aVHooker
p861
aVLock
p862
aVCentre, Wing
p863
aVWing
p864
aVProp
p865
aVProp
p866
aVFly-half
p867
aVFly-half
p868
aVWing
p869
aVLock
p870
aVFlanker
p871
aVLock
p872
aVCentre
p873
aVFlanker
p874
aVProp
p875
aVWing
p876
aVWing
p877
aVLock, No. 8
p878
aVScrum-half
p879
aVProp
p880
aVLock
p881
aVFlanker
p882
aVCentre
p883
aVFlanker
p884
aVFly-half
p885
aVFly-half
p886
aVFlanker
p887
aVFlanker
p888
aVCentre
p889
aVFly-half
p890
aVProp
p891
aVNo. 8
p892
aVProp
p893
aVHooker
p894
aVFly-half
p895
aVHooker
p896
aVFullback
p897
aVLock
p898
aVNo. 8
p899
aVFly-half
p900
aVCentre
p901
aVWing
p902
aVProp
p903
aVHooker
p904
aVWing
p905
aVHooker
p906
aVScrum-half
p907
aVWing
p908
aVFlanker
p909
aVCentre
p910
aVNo. 8
p911
aVFlanker
p912
aVHooker
p913
aVProp
p914
aVScrum-half
p915
aVWing
p916
aVLock, No. 8
p917
aVLock
p918
aVCentre
p919
aVFullback
p920
aVProp
p921
aVFlanker
p922
aVScrum-half
p923
aVUtility back
p924
aVLock
p925
aVFlanker
p926
aVHooker
p927
aVLock
p928
aVWing, Centre
p929
aVProp
p930
aVFullback
p931
aVLock
p932
aVProp
p933
aVLock
p934
aVCentre
p935
aVFlanker
p936
aVHooker, Prop
p937
aVFly-half
p938
aVCentre
p939
aVScrum-half
p940
aVLock
p941
aVCentre, Wing
p942
aVFlanker
p943
aVBack-row
p944
aVHooker
p945
aVBack-row
p946
aVFlanker
p947
aVLock
p948
aVBack-row
p949
aVFullback, Wing
p950
aVProp
p951
aVFlanker
p952
aVLock
p953
aVCentre, Fly-half
p954
aVFullback, Wing
p955
aVLock
p956
aVProp, Hooker
p957
aVWing
p958
aVFullback, Centre
p959
aVCentre
p960
aVFullback
p961
aVLock
p962
aVFullback
p963
aVLock
p964
aVFly-half
p965
aVBack-row
p966
aVScrum-half
p967
aVWing
p968
aVFullback, Fly-half
p969
aVProp
p970
aVWing, Centre
p971
aVProp, Hooker
p972
aVFlanker
p973
aVWing
p974
aVCentre
p975
aVScrum-half
p976
aVWing
p977
aVLock, Flanker
p978
aVFullback
p979
aVUtility back
p980
aVLock
p981
aVProp
p982
aVLock
p983
aVWing
p984
aVScrum-half
p985
aVFullback
p986
aVLock, Back-row
p987
aVBack-row
p988
aVFly-half
p989
aVHooker
p990
aVBack-row
p991
aVCentre
p992
aVWing, Centre
p993
aVScrum-half
p994
aVHalfback, Back-row
p995
aVWing
p996
aVProp
p997
aVFullback, Wing
p998
aVCentre
p999
aVBack-row
p1000
aVProp
p1001
aVFlanker
p1002
aVScrum-half
p1003
aVLock
p1004
aVHooker
p1005
aVProp
p1006
aVCentre
p1007
aVBack-row
p1008
aVLock
p1009
aVFly-half
p1010
aVCentre
p1011
aVHooker
p1012
aVBack-row
p1013
aVBack-row
p1014
aVBack-row
p1015
aVFly-half
p1016
aVHooker
p1017
aVProp
p1018
aVWing, Centre
p1019
aVLock
p1020
aVProp
p1021
aVScrum-half
p1022
aVBack-row
p1023
aVCentre
p1024
aVScrum-half
p1025
aVHooker
p1026
aVCentre
p1027
aVBack-row
p1028
aVBack-row
p1029
aVLock
p1030
aVProp
p1031
aVBack-row
p1032
aVHooker
p1033
aVProp
p1034
aVBack-row
p1035
aVWing, Centre
p1036
aVHooker
p1037
aVWing
p1038
aVFly-half
p1039
aVFullback
p1040
aVProp
p1041
aVLock
p1042
aVNo. 8
p1043
aVFullback
p1044
aVLock
p1045
aVLock
p1046
aVHooker
p1047
aVFly-half
p1048
aVProp
p1049
aVCentre
p1050
aVWing
p1051
aVProp
p1052
aVLock
p1053
aVLock
p1054
aVWing
p1055
aVFullback
p1056
aVCentre
p1057
aVScrum-half
p1058
aVCentre
p1059
aVFullback
p1060
aVBack-row
p1061
aVScrum-half
p1062
aVFly-half
p1063
aVProp
p1064
aVLock
p1065
aVCentre
p1066
aVFullback
p1067
aVProp
p1068
aVCentre
p1069
aVBack-row
p1070
aVFlanker
p1071
aVScrum-half
p1072
aVProp
p1073
aVWing
p1074
aVNo. 8
p1075
aVScrum-half
p1076
aVWing
p1077
aVWing
p1078
aVFly-half
p1079
aVBack-row
p1080
aVProp
p1081
aVBack-row
p1082
aVProp
p1083
aVHooker
p1084
aVCentre
p1085
aVBack-row
p1086
aVScrum-half
p1087
aVHooker
p1088
aVWing
p1089
aVBack-row
p1090
aVLock
p1091
aVScrum-half
p1092
aVProp
p1093
aVWing
p1094
aVFullback
p1095
aVCentre
p1096
aVCentre
p1097
aVProp
p1098
aVBack-row
p1099
aVLock
p1100
aVWing
p1101
aVFlanker
p1102
aVHooker
p1103
aVCentre
p1104
aVBack-row
p1105
aVFly-half
p1106
aVBack-row
p1107
aVFlanker
p1108
aVHooker
p1109
aVCentre
p1110
aVProp
p1111
aVWing
p1112
aVScrum-half
p1113
aVLock
p1114
aVScrum-half
p1115
aVFly-half
p1116
aVProp
p1117
aVProp
p1118
aVLock
p1119
aVCentre
p1120
aVBack-row
p1121
aVWing
p1122
aVFly-half, Fullback
p1123
aVHooker
p1124
aVProp
p1125
a.