(lp1
Vdate unknown
p2
aVdate unknown
p3
aVdate unknown
p4
aVdate unknown
p5
aVdate unknown
p6
aVdate unknown
p7
aVdate unknown
p8
aVdate unknown
p9
aVdate unknown
p10
aVdate unknown
p11
aVdate unknown
p12
aVdate unknown
p13
aVdate unknown
p14
aVdate unknown
p15
aVdate unknown
p16
aVdate unknown
p17
aVdate unknown
p18
aVdate unknown
p19
aVdate unknown
p20
aVdate unknown
p21
aVdate unknown
p22
aVdate unknown
p23
aVdate unknown
p24
aVdate unknown
p25
aVdate unknown
p26
aVdate unknown
p27
aVdate unknown
p28
aVdate unknown
p29
aVdate unknown
p30
aVdate unknown
p31
aVdate unknown
p32
aVdate unknown
p33
aVdate unknown
p34
aVdate unknown
p35
aVdate unknown
p36
aVdate unknown
p37
aVdate unknown
p38
aVdate unknown
p39
aVdate unknown
p40
aVdate unknown
p41
aVdate unknown
p42
aVdate unknown
p43
aVdate unknown
p44
aVdate unknown
p45
aVdate unknown
p46
aVdate unknown
p47
aVdate unknown
p48
aVdate unknown
p49
aVdate unknown
p50
aVdate unknown
p51
aVdate unknown
p52
aVdate unknown
p53
aVdate unknown
p54
aVdate unknown
p55
aVdate unknown
p56
aVdate unknown
p57
aVdate unknown
p58
aVdate unknown
p59
aVdate unknown
p60
aVdate unknown
p61
aVdate unknown
p62
aVdate unknown
p63
aVdate unknown
p64
aVdate unknown
p65
aVdate unknown
p66
aVdate unknown
p67
aVdate unknown
p68
aVdate unknown
p69
aVdate unknown
p70
aVdate unknown
p71
aVdate unknown
p72
aVdate unknown
p73
aVdate unknown
p74
aVdate unknown
p75
aVdate unknown
p76
aVdate unknown
p77
aVdate unknown
p78
aVdate unknown
p79
aVdate unknown
p80
aVdate unknown
p81
aVdate unknown
p82
aVdate unknown
p83
aVdate unknown
p84
aVdate unknown
p85
aVdate unknown
p86
aVdate unknown
p87
aVdate unknown
p88
aVdate unknown
p89
aVdate unknown
p90
aVdate unknown
p91
aVdate unknown
p92
aVdate unknown
p93
aVdate unknown
p94
aVdate unknown
p95
aVdate unknown
p96
aVdate unknown
p97
aVdate unknown
p98
aVdate unknown
p99
aVdate unknown
p100
aVdate unknown
p101
aVdate unknown
p102
aVdate unknown
p103
aVdate unknown
p104
aVdate unknown
p105
aVdate unknown
p106
aVdate unknown
p107
aVdate unknown
p108
aVdate unknown
p109
aVdate unknown
p110
aVdate unknown
p111
aVdate unknown
p112
aVdate unknown
p113
aVdate unknown
p114
aVdate unknown
p115
aVdate unknown
p116
aVdate unknown
p117
aVdate unknown
p118
aVdate unknown
p119
aVdate unknown
p120
aVdate unknown
p121
aVdate unknown
p122
aVdate unknown
p123
aVdate unknown
p124
aVdate unknown
p125
aVdate unknown
p126
aVdate unknown
p127
aVdate unknown
p128
aVdate unknown
p129
aVdate unknown
p130
aVdate unknown
p131
aVdate unknown
p132
aVdate unknown
p133
aVJune 13, 1939
p134
aVdate unknown
p135
aVdate unknown
p136
aVdate unknown
p137
aVdate unknown
p138
aVdate unknown
p139
aVdate unknown
p140
aVdate unknown
p141
aVdate unknown
p142
aVdate unknown
p143
aVdate unknown
p144
aVdate unknown
p145
aVdate unknown
p146
aVdate unknown
p147
aVdate unknown
p148
aVdate unknown
p149
aVdate unknown
p150
aVdate unknown
p151
aVdate unknown
p152
aVdate unknown
p153
aVdate unknown
p154
aVdate unknown
p155
aVdate unknown
p156
aVdate unknown
p157
aVdate unknown
p158
aVdate unknown
p159
aVdate unknown
p160
aVdate unknown
p161
aVcirca 1949
p162
aVdate unknown
p163
aVdate unknown
p164
aVdate unknown
p165
aVdate unknown
p166
aVdate unknown
p167
aVdate unknown
p168
aVdate unknown
p169
aVcirca 1950
p170
aVdate unknown
p171
aVdate unknown
p172
aVdate unknown
p173
aVdate unknown
p174
aVdate unknown
p175
aVdate unknown
p176
aVdate unknown
p177
aVdate unknown
p178
aVdate unknown
p179
aVdate unknown
p180
aVdate unknown
p181
aVdate unknown
p182
aVdate unknown
p183
aVdate unknown
p184
aVdate unknown
p185
aVdate unknown
p186
aVdate unknown
p187
aVdate unknown
p188
aVdate unknown
p189
aVdate unknown
p190
aVdate unknown
p191
aVdate unknown
p192
aVdate unknown
p193
aVdate unknown
p194
aVdate unknown
p195
aVdate unknown
p196
aVdate unknown
p197
aVdate unknown
p198
aVdate unknown
p199
aVdate unknown
p200
aVdate unknown
p201
aVdate unknown
p202
aVdate unknown
p203
aVdate unknown
p204
aVdate unknown
p205
aVdate unknown
p206
aVcirca 1959
p207
aVdate unknown
p208
aVJune 21, 1956
p209
aVdate unknown
p210
aVdate unknown
p211
aVdate unknown
p212
aVdate unknown
p213
aVJune 17, 1957, Nuku'alofa
p214
aVdate unknown
p215
aVcirca 1958
p216
aVdate unknown
p217
aVcirca 1953
p218
aVdate unknown
p219
aVdate unknown
p220
aVdate unknown
p221
aVdate unknown
p222
aVdate unknown
p223
aVdate unknown
p224
aVcirca 1956
p225
aVdate unknown
p226
aVdate unknown
p227
aVdate unknown
p228
aVdate unknown
p229
aVdate unknown
p230
aVdate unknown
p231
aVdate unknown
p232
aVcirca 1957
p233
aVdate unknown
p234
aVdate unknown
p235
aVdate unknown
p236
aVdate unknown
p237
aVdate unknown
p238
aVdate unknown
p239
aVdate unknown
p240
aVdate unknown
p241
aVdate unknown
p242
aVcirca 1959
p243
aVdate unknown
p244
aVdate unknown
p245
aVdate unknown
p246
aVdate unknown
p247
aVdate unknown
p248
aVdate unknown
p249
aVdate unknown
p250
aVJuly 24, 1962
p251
aVdate unknown
p252
aVdate unknown
p253
aVdate unknown
p254
aVdate unknown
p255
aVdate unknown
p256
aVdate unknown
p257
aVdate unknown
p258
aVdate unknown
p259
aVdate unknown
p260
aVcirca 1962
p261
aVdate unknown
p262
aVdate unknown
p263
aVAugust 22, 1965, Ha'apai
p264
aVdate unknown
p265
aVdate unknown
p266
aVcirca 1963
p267
aVdate unknown
p268
aVdate unknown
p269
aVdate unknown
p270
aVdate unknown
p271
aVdate unknown
p272
aVdate unknown
p273
aVdate unknown
p274
aVcirca 1959
p275
aVdate unknown
p276
aVJanuary 21, 1965
p277
aVdate unknown
p278
aVcirca 1962
p279
aVcirca 1963
p280
aVdate unknown
p281
aVcirca 1958
p282
aVdate unknown
p283
aVdate unknown
p284
aVcirca 1963
p285
aVJune 19, 1966
p286
aVcirca 1964
p287
aVcirca 1965
p288
aVcirca 1964
p289
aVcirca 1958
p290
aVcirca 1961
p291
aVJanuary 8, 1966
p292
aVcirca 1967
p293
aVdate unknown
p294
aVdate unknown
p295
aVdate unknown
p296
aVdate unknown
p297
aVdate unknown
p298
aVdate unknown
p299
aVdate unknown
p300
aVdate unknown
p301
aVcirca 1966
p302
aVdate unknown
p303
aVdate unknown
p304
aVdate unknown
p305
aVDecember 30, 1963
p306
aVdate unknown
p307
aVdate unknown
p308
aVdate unknown
p309
aVdate unknown
p310
aVdate unknown
p311
aVdate unknown
p312
aVdate unknown
p313
aVdate unknown
p314
aVdate unknown
p315
aVJanuary 6, 1969
p316
aVdate unknown
p317
aVdate unknown
p318
aVMay 5, 1968
p319
aVdate unknown
p320
aVdate unknown
p321
aVdate unknown
p322
aVSeptember 29, 1970
p323
aVdate unknown
p324
aVdate unknown
p325
aVJune 5, 1972
p326
aVdate unknown
p327
aVdate unknown
p328
aVdate unknown
p329
aVdate unknown
p330
aVSeptember 20, 1970
p331
aVdate unknown
p332
aVdate unknown
p333
aVdate unknown
p334
aVdate unknown
p335
aVdate unknown
p336
aVdate unknown
p337
aVdate unknown
p338
aVdate unknown
p339
aVdate unknown
p340
aVdate unknown
p341
aVdate unknown
p342
aVdate unknown
p343
aVSeptember 22, 1968
p344
aVdate unknown
p345
aVdate unknown
p346
aVJuly 29, 1972, Nuku'alofa
p347
aVdate unknown
p348
aVAugust 27, 1957
p349
aVdate unknown
p350
aVOctober 5, 1972
p351
aVdate unknown
p352
aVAugust 17, 1970
p353
aVdate unknown
p354
aVAugust 12, 1965
p355
aVJanuary 6, 1969, Nuku'alofa
p356
aVdate unknown
p357
aVdate unknown
p358
aVdate unknown
p359
aVJuly 22, 1972
p360
aVdate unknown
p361
aVApril 6, 1973, Maufanga
p362
aVdate unknown
p363
aVOctober 1, 1971
p364
aVdate unknown
p365
aVdate unknown
p366
aVAugust 16, 1970
p367
aVdate unknown
p368
aVdate unknown
p369
aVdate unknown
p370
aVcirca 1954
p371
aVdate unknown
p372
aVMarch 6, 1971, Kanokupolu
p373
aVAugust 14, 1970
p374
aVdate unknown
p375
aVdate unknown
p376
aVdate unknown
p377
aVdate unknown
p378
aVJuly 3, 1971, Auckland
p379
aVdate unknown
p380
aVdate unknown
p381
aVJanuary 21, 1970
p382
aVSeptember 10, 1972
p383
aVDecember 5, 1967
p384
aVApril 14, 1971
p385
aVdate unknown
p386
aVdate unknown
p387
aVNovember 11, 1971
p388
aVSeptember 21, 1968
p389
aVdate unknown
p390
aVAugust 24, 1974
p391
aVdate unknown
p392
aVJuly 22, 1967
p393
aVApril 5, 1976
p394
aVJuly 12, 1973, Tofoa
p395
aVSeptember 14, 1969
p396
aVdate unknown
p397
aVdate unknown
p398
aVMarch 11, 1976, Nuku'alofa
p399
aVDecember 9, 1973, Vava'u
p400
aVdate unknown
p401
aVdate unknown
p402
aVdate unknown
p403
aVdate unknown
p404
aVJanuary 10, 1969
p405
aVJuly 9, 1967
p406
aVJanuary 15, 1969, Ha'apai
p407
aVJuly 8, 1976, Nuku'alofa
p408
aVJuly 17, 1972
p409
aVMarch 2, 1975
p410
aVApril 2, 1973
p411
aVAugust 26, 1974, Ha'apai
p412
aVFebruary 3, 1970
p413
aVApril 30, 1976
p414
aVMarch 1, 1971
p415
aVJanuary 20, 1970
p416
aVdate unknown
p417
aVdate unknown
p418
aVFebruary 11, 1970
p419
aVdate unknown
p420
aVJune 6, 1973, Tofoa
p421
aVMay 15, 1975
p422
aVJuly 20, 1969, Nuku'alofa
p423
aVJune 21, 1970, Auckland
p424
aVJanuary 21, 1978
p425
aVJuly 31, 1975, Tofoa
p426
aVdate unknown
p427
aVNovember 28, 1976, Ha'apai
p428
aVApril 3, 1974
p429
aVdate unknown
p430
aVMay 5, 1973, Neiafu
p431
aVJune 9, 1978, Longolongo
p432
aVSeptember 2, 1972, Vaiola, Western Samoa
p433
aVJuly 2, 1972, Nuku'alofa
p434
aVDecember 23, 1969, Nautoka
p435
aVJune 18, 1974, Wellington
p436
aVApril 30, 1972, Kolofo'ou
p437
aVJuly 10, 1976
p438
aVFebruary 3, 1974
p439
aVAugust 27, 1974
p440
aVDecember 17, 1970, Auckland
p441
aVApril 27, 1977, Auckland
p442
aVdate unknown
p443
aVJanuary 26, 1975
p444
aVOctober 3, 1968, Neiafu
p445
aVJuly 1, 1978, Tofoa
p446
aVMay 16, 1974, Hihifo, Haapai
p447
aVSeptember 6, 1977
p448
aVMay 4, 1976
p449
aVFebruary 26, 1977
p450
aVJuly 14, 1972, Kiltifo Haapai
p451
aVMarch 2, 1979, Vauai'i
p452
aVdate unknown
p453
aVOctober 24, 1978, Neiafu
p454
aVMarch 11, 1977, Ha'ateiho
p455
aVdate unknown
p456
aVdate unknown
p457
aVAugust 27, 1980
p458
aVOctober 10, 1977
p459
aVDecember 25, 1976
p460
aVdate unknown
p461
aVFebruary 17, 1976
p462
aVAugust 29, 1981
p463
aVdate unknown
p464
aVdate unknown
p465
aVDecember 23, 1978
p466
aVOctober 30, 1977, Auckland
p467
aVAugust 11, 1976
p468
aVApril 24, 1976, Vava'u
p469
aVMay 26, 1977, Malapo
p470
aVOctober 12, 1974, Tokoroa
p471
aVMarch 6, 1976
p472
aVMay 21, 1970
p473
a.