(lp1
VTonga v Fiji at Nuku A'lofa, Aug 25, 1924
p2
aVTonga v Fiji at Nuku A'lofa, Aug 25, 1924
p3
aVTonga v Fiji at Nuku A'lofa, Aug 25, 1924
p4
aVTonga v Fiji at Nuku A'lofa, Aug 25, 1924
p5
aVTonga v Fiji at Nuku A'lofa, Aug 25, 1924
p6
aVTonga v Fiji at Nuku A'lofa, Aug 25, 1924
p7
aVTonga v Fiji at Nuku A'lofa, Aug 25, 1924
p8
aVTonga v Fiji at Nuku A'lofa, Aug 25, 1924
p9
aVTonga v Fiji at Nuku A'lofa, Aug 25, 1924
p10
aVTonga v Fiji at Nuku A'lofa, Aug 25, 1924
p11
aVTonga v Fiji at Nuku A'lofa, Aug 25, 1924
p12
aVTonga v Fiji at Nuku A'lofa, Aug 25, 1924
p13
aVTonga v Fiji at Nuku A'lofa, Aug 25, 1924
p14
aVTonga v Fiji at Nuku A'lofa, Aug 25, 1924
p15
aVTonga v Fiji at Nuku A'lofa, Aug 25, 1924
p16
aVTonga v Fiji at Nuku A'lofa, Aug 25, 1924
p17
aVTonga v Fiji at Nuku A'lofa, Aug 25, 1924
p18
aVTonga v Fiji at Nuku A'lofa, Aug 25, 1924
p19
aVTonga v Fiji at Nuku A'lofa, Aug 25, 1924
p20
aVTonga v Fiji at Nuku A'lofa, Aug 25, 1924
p21
aVTonga v Fiji at Nuku A'lofa, Aug 25, 1924
p22
aVTonga v Fiji at Nuku A'lofa, Aug 25, 1924
p23
aVTonga v Fiji at Nuku A'lofa, Sep 3, 1924
p24
aVFiji v Tonga at Suva, Aug 14, 1926
p25
aVFiji v Tonga at Suva, Aug 14, 1926
p26
aVFiji v Tonga at Suva, Aug 14, 1926
p27
aVFiji v Tonga at Suva, Aug 14, 1926
p28
aVFiji v Tonga at Suva, Aug 14, 1926
p29
aVFiji v Tonga at Suva, Aug 14, 1926
p30
aVFiji v Tonga at Suva, Aug 14, 1926
p31
aVFiji v Tonga at Suva, Aug 14, 1926
p32
aVFiji v Tonga at Suva, Aug 14, 1926
p33
aVFiji v Tonga at Suva, Aug 14, 1926
p34
aVFiji v Tonga at Suva, Aug 14, 1926
p35
aVTonga v Fiji at Nuku A'lofa, Aug 25, 1928
p36
aVTonga v Fiji at Nuku A'lofa, Aug 25, 1928
p37
aVTonga v Fiji at Nuku A'lofa, Aug 25, 1928
p38
aVTonga v Fiji at Nuku A'lofa, Aug 25, 1928
p39
aVTonga v Fiji at Nuku A'lofa, Aug 25, 1928
p40
aVTonga v Fiji at Nuku A'lofa, Aug 25, 1928
p41
aVTonga v Fiji at Nuku A'lofa, Aug 25, 1928
p42
aVTonga v Fiji at Nuku A'lofa, Aug 25, 1928
p43
aVTonga v Fiji at Nuku A'lofa, Aug 25, 1928
p44
aVTonga v Fiji at Nuku A'lofa, Aug 25, 1928
p45
aVTonga v Fiji at Nuku A'lofa, Aug 25, 1928
p46
aVTonga v Fiji at Nuku A'lofa, Aug 25, 1928
p47
aVTonga v Fiji at Nuku A'lofa, Aug 25, 1928
p48
aVTonga v Fiji at Nuku A'lofa, Aug 25, 1928
p49
aVTonga v Fiji at Nuku A'lofa, Aug 25, 1928
p50
aVTonga v Fiji at Nuku A'lofa, Aug 25, 1928
p51
aVTonga v Fiji at Nuku A'lofa, Sep 1, 1928
p52
aVTonga v Fiji at Nuku A'lofa, Sep 1, 1928
p53
aVTonga v Fiji at Nuku A'lofa, Sep 8, 1928
p54
aVFiji v Tonga at Suva, Aug 27, 1932
p55
aVFiji v Tonga at Suva, Aug 27, 1932
p56
aVFiji v Tonga at Suva, Aug 27, 1932
p57
aVFiji v Tonga at Suva, Aug 27, 1932
p58
aVFiji v Tonga at Suva, Aug 27, 1932
p59
aVFiji v Tonga at Suva, Aug 27, 1932
p60
aVFiji v Tonga at Suva, Aug 31, 1932
p61
aVFiji v Tonga at Suva, Aug 31, 1932
p62
aVFiji v Tonga at Suva, Aug 31, 1932
p63
aVFiji v Tonga at Suva, Aug 31, 1932
p64
aVTonga v Fiji at Nuku A'lofa, Aug 8, 1934
p65
aVTonga v Fiji at Nuku A'lofa, Aug 8, 1934
p66
aVTonga v Fiji at Nuku A'lofa, Aug 8, 1934
p67
aVTonga v Fiji at Nuku A'lofa, Aug 8, 1934
p68
aVTonga v Fiji at Nuku A'lofa, Aug 8, 1934
p69
aVTonga v Fiji at Nuku A'lofa, Aug 8, 1934
p70
aVTonga v Fiji at Nuku A'lofa, Aug 8, 1934
p71
aVTonga v Fiji at Nuku A'lofa, Aug 8, 1934
p72
aVTonga v Fiji at Nuku A'lofa, Aug 8, 1934
p73
aVTonga v Fiji at Nuku A'lofa, Aug 8, 1934
p74
aVTonga v Fiji at Nuku A'lofa, Aug 8, 1934
p75
aVTonga v Fiji at Nuku A'lofa, Aug 8, 1934
p76
aVTonga v Fiji at Nuku A'lofa, Aug 8, 1934
p77
aVTonga v Fiji at Nuku A'lofa, Aug 8, 1934
p78
aVFiji v Tonga at Suva, Jul 26, 1947
p79
aVFiji v Tonga at Suva, Jul 26, 1947
p80
aVFiji v Tonga at Suva, Jul 26, 1947
p81
aVFiji v Tonga at Suva, Jul 26, 1947
p82
aVFiji v Tonga at Suva, Jul 26, 1947
p83
aVFiji v Tonga at Suva, Jul 26, 1947
p84
aVFiji v Tonga at Suva, Jul 26, 1947
p85
aVFiji v Tonga at Suva, Jul 26, 1947
p86
aVFiji v Tonga at Suva, Jul 26, 1947
p87
aVFiji v Tonga at Suva, Jul 26, 1947
p88
aVFiji v Tonga at Suva, Jul 26, 1947
p89
aVFiji v Tonga at Suva, Jul 26, 1947
p90
aVFiji v Tonga at Suva, Jul 26, 1947
p91
aVFiji v Tonga at Suva, Jul 26, 1947
p92
aVFiji v Tonga at Suva, Jul 26, 1947
p93
aVFiji v Tonga at Suva, Jul 30, 1947
p94
aVFiji v Tonga at Suva, Jul 30, 1947
p95
aVTonga v Fiji at Nuku A'lofa, Aug 2, 1958
p96
aVTonga v Fiji at Nuku A'lofa, Aug 2, 1958
p97
aVTonga v Fiji at Nuku A'lofa, Aug 2, 1958
p98
aVTonga v Fiji at Nuku A'lofa, Aug 2, 1958
p99
aVTonga v Fiji at Nuku A'lofa, Aug 2, 1958
p100
aVTonga v Fiji at Nuku A'lofa, Aug 2, 1958
p101
aVTonga v Fiji at Nuku A'lofa, Aug 2, 1958
p102
aVTonga v Fiji at Nuku A'lofa, Aug 2, 1958
p103
aVTonga v Fiji at Nuku A'lofa, Aug 2, 1958
p104
aVTonga v Fiji at Nuku A'lofa, Aug 2, 1958
p105
aVTonga v Fiji at Nuku A'lofa, Aug 2, 1958
p106
aVTonga v Fiji at Nuku A'lofa, Aug 2, 1958
p107
aVTonga v Fiji at Nuku A'lofa, Aug 2, 1958
p108
aVTonga v Fiji at Nuku A'lofa, Aug 2, 1958
p109
aVTonga v Fiji at Nuku A'lofa, Aug 2, 1958
p110
aVTonga v Fiji at Nuku A'lofa, Aug 9, 1958
p111
aVFiji v Tonga at Suva, Sep 26, 1959
p112
aVFiji v Tonga at Suva, Sep 26, 1959
p113
aVFiji v Tonga at Suva, Sep 26, 1959
p114
aVFiji v Tonga at Suva, Sep 26, 1959
p115
aVFiji v Tonga at Suva, Sep 26, 1959
p116
aVFiji v Tonga at Suva, Sep 26, 1959
p117
aVTonga v New Zealand Maori at Nuku A'lofa, May 21, 1960
p118
aVTonga v New Zealand Maori at Nuku A'lofa, May 21, 1960
p119
aVFiji v Tonga at Lautoka, Aug 31, 1963
p120
aVFiji v Tonga at Lautoka, Aug 31, 1963
p121
aVFiji v Tonga at Lautoka, Aug 31, 1963
p122
aVFiji v Tonga at Suva, Sep 10, 1963
p123
aVFiji v Tonga at Suva, Sep 10, 1963
p124
aVFiji v Tonga at Suva, Sep 10, 1963
p125
aVFiji v Tonga at Suva, Sep 10, 1963
p126
aVTonga v Fiji at Nuku A'lofa, Jul 8, 1967
p127
aVTonga v Fiji at Nuku A'lofa, Jul 8, 1967
p128
aVTonga v Fiji at Nuku A'lofa, Jul 8, 1967
p129
aVTonga v Fiji at Nuku A'lofa, Jul 8, 1967
p130
aVTonga v Fiji at Nuku A'lofa, Jul 8, 1967
p131
aVTonga v Fiji at Nuku A'lofa, Jul 8, 1967
p132
aVTonga v Fiji at Nuku A'lofa, Jul 8, 1967
p133
aVTonga v Fiji at Nuku A'lofa, Jul 8, 1967
p134
aVTonga v Fiji at Nuku A'lofa, Jul 8, 1967
p135
aVTonga v Fiji at Nuku A'lofa, Jul 8, 1967
p136
aVTonga v Fiji at Nuku A'lofa, Jul 8, 1967
p137
aVTonga v Fiji at Nuku A'lofa, Jul 15, 1967
p138
aVTonga v Fiji at Nuku A'lofa, Jul 15, 1967
p139
aVTonga v Fiji at Nuku A'lofa, Jul 15, 1967
p140
aVTonga v Fiji at Nuku A'lofa, Jul 15, 1967
p141
aVTonga v Fiji at Nuku A'lofa, Jul 15, 1967
p142
aVTonga v Fiji at Nuku A'lofa, Jul 22, 1967
p143
aVTonga v Fiji at Nuku A'lofa, Jul 22, 1967
p144
aVTonga v Fiji at Nuku A'lofa, Jul 22, 1967
p145
aVTonga v Fiji at Nuku A'lofa, Jul 22, 1967
p146
aVFiji v Tonga at Suva, Aug 17, 1968
p147
aVFiji v Tonga at Suva, Aug 17, 1968
p148
aVFiji v Tonga at Suva, Aug 17, 1968
p149
aVFiji v Tonga at Suva, Sep 7, 1968
p150
aVFiji v Tonga at Suva, Sep 7, 1968
p151
aVNew Zealand Maori v Tonga at Christchurch, Aug 16, 1969
p152
aVNew Zealand Maori v Tonga at Christchurch, Aug 16, 1969
p153
aVNew Zealand Maori v Tonga at Christchurch, Aug 16, 1969
p154
aVNew Zealand Maori v Tonga at Christchurch, Aug 16, 1969
p155
aVNew Zealand Maori v Tonga at Christchurch, Aug 16, 1969
p156
aVNew Zealand Maori v Tonga at Auckland, Sep 6, 1969
p157
aVTonga v Fiji at Nuku A'lofa, Jul 15, 1972
p158
aVTonga v Fiji at Nuku A'lofa, Jul 15, 1972
p159
aVTonga v Fiji at Nuku A'lofa, Jul 15, 1972
p160
aVTonga v Fiji at Nuku A'lofa, Jul 15, 1972
p161
aVTonga v Fiji at Nuku A'lofa, Jul 15, 1972
p162
aVTonga v Fiji at Nuku A'lofa, Jul 22, 1972
p163
aVTonga v Fiji at Nuku A'lofa, Aug 5, 1972
p164
aVTonga v New Zealand Maori at Nuku A'lofa, May 22, 1973
p165
aVTonga v New Zealand Maori at Nuku A'lofa, May 22, 1973
p166
aVTonga v New Zealand Maori at Nuku A'lofa, May 22, 1973
p167
aVTonga v New Zealand Maori at Nuku A'lofa, May 22, 1973
p168
aVTonga v New Zealand Maori at Nuku A'lofa, May 22, 1973
p169
aVTonga v New Zealand Maori at Nuku A'lofa, May 22, 1973
p170
aVAustralia v Tonga at Sydney, Jun 23, 1973
p171
aVAustralia v Tonga at Sydney, Jun 23, 1973
p172
aVAustralia v Tonga at Sydney, Jun 23, 1973
p173
aVAustralia v Tonga at Sydney, Jun 23, 1973
p174
aVAustralia v Tonga at Sydney, Jun 23, 1973
p175
aVAustralia v Tonga at Brisbane, Jun 30, 1973
p176
aVScotland XV v Tonga at Murrayfield, Sep 28, 1974
p177
aVScotland XV v Tonga at Murrayfield, Sep 28, 1974
p178
aVScotland XV v Tonga at Murrayfield, Sep 28, 1974
p179
aVScotland XV v Tonga at Murrayfield, Sep 28, 1974
p180
aVScotland XV v Tonga at Murrayfield, Sep 28, 1974
p181
aVNew Zealand Maori v Tonga at New Plymouth, Jul 19, 1975
p182
aVNew Zealand Maori v Tonga at New Plymouth, Jul 19, 1975
p183
aVNew Zealand Maori v Tonga at New Plymouth, Jul 19, 1975
p184
aVNew Zealand Maori v Tonga at Auckland, Aug 2, 1975
p185
aVNew Zealand Maori v Tonga at Auckland, Aug 2, 1975
p186
aVNew Zealand Maori v Tonga at Auckland, Aug 2, 1975
p187
aVFiji v Tonga at Lautoka, Jul 9, 1977
p188
aVFiji v Tonga at Lautoka, Jul 9, 1977
p189
aVFiji v Tonga at Lautoka, Jul 9, 1977
p190
aVFiji v Tonga at Lautoka, Jul 9, 1977
p191
aVFiji v Tonga at Lautoka, Jul 9, 1977
p192
aVFiji v Tonga at Lautoka, Jul 9, 1977
p193
aVFiji v Tonga at Lautoka, Jul 9, 1977
p194
aVFiji v Tonga at Lautoka, Jul 9, 1977
p195
aVFiji v Tonga at Lautoka, Jul 9, 1977
p196
aVFiji v Tonga at Lautoka, Jul 9, 1977
p197
aVFiji v Tonga at Nadi, Jul 23, 1977
p198
aVFiji v Tonga at Suva, Jul 30, 1977
p199
aVFiji v Tonga at Suva, Jul 30, 1977
p200
aVTonga v New Zealand Maori at Nuku A'lofa, May 25, 1979
p201
aVTonga v New Zealand Maori at Nuku A'lofa, May 25, 1979
p202
aVTonga v New Zealand Maori at Nuku A'lofa, May 25, 1979
p203
aVTonga v New Zealand Maori at Nuku A'lofa, May 25, 1979
p204
aVTonga v New Zealand Maori at Nuku A'lofa, May 25, 1979
p205
aVTonga v England XV at Nuku A'lofa, Jun 1, 1979
p206
aVTonga v England XV at Nuku A'lofa, Jun 1, 1979
p207
aVTonga v England XV at Nuku A'lofa, Jun 1, 1979
p208
aVTonga v England XV at Nuku A'lofa, Jun 1, 1979
p209
aVSamoa v Tonga at Suva, Aug 30, 1979
p210
aVSamoa v Tonga at Suva, Aug 30, 1979
p211
aVSamoa v Tonga at Suva, Aug 30, 1979
p212
aVSamoa v Tonga at Suva, Aug 30, 1979
p213
aVSamoa v Tonga at Suva, Aug 30, 1979
p214
aVFiji v Tonga at Suva, Sep 8, 1979
p215
aVFiji v Tonga at Suva, Sep 8, 1979
p216
aVFiji v Tonga at Suva, Sep 8, 1979
p217
aVFiji v Tonga at Suva, Sep 8, 1979
p218
aVSamoa v Tonga at Apia, Jun 3, 1980
p219
aVSamoa v Tonga at Apia, Jun 3, 1980
p220
aVSamoa v Tonga at Apia, Jun 3, 1980
p221
aVSamoa v Tonga at Apia, Jun 3, 1980
p222
aVTonga v Fiji at Nuku A'lofa, Aug 8, 1981
p223
aVTonga v Fiji at Nuku A'lofa, Aug 8, 1981
p224
aVTonga v Fiji at Nuku A'lofa, Aug 8, 1981
p225
aVTonga v Fiji at Nuku A'lofa, Aug 8, 1981
p226
aVTonga v Fiji at Nuku A'lofa, Aug 8, 1981
p227
aVTonga v Fiji at Nuku A'lofa, Aug 8, 1981
p228
aVTonga v Fiji at Nuku A'lofa, Aug 8, 1981
p229
aVTonga v Fiji at Nuku A'lofa, Aug 15, 1981
p230
aVTonga v Fiji at Nuku A'lofa, Aug 15, 1981
p231
aVTonga v Fiji at Nuku A'lofa, Aug 15, 1981
p232
aVTonga v Samoa at Nuku A'lofa, Aug 25, 1982
p233
aVTonga v Samoa at Nuku A'lofa, Aug 25, 1982
p234
aVTonga v Samoa at Nuku A'lofa, Aug 25, 1982
p235
aVTonga v Samoa at Nuku A'lofa, Aug 25, 1982
p236
aVTonga v Samoa at Nuku A'lofa, Aug 25, 1982
p237
aVTonga v Samoa at Nuku A'lofa, Aug 25, 1982
p238
aVTonga v Samoa at Nuku A'lofa, Aug 25, 1982
p239
aVTonga v Samoa at Nuku A'lofa, Aug 25, 1982
p240
aVTonga v Samoa at Nuku A'lofa, Aug 25, 1982
p241
aVTonga v Samoa at Nuku A'lofa, Aug 25, 1982
p242
aVTonga v Samoa at Nuku A'lofa, Aug 25, 1982
p243
aVTonga v Samoa at Nuku A'lofa, Aug 25, 1982
p244
aVFiji v Tonga at Suva, Aug 28, 1982
p245
aVFiji v Tonga at Suva, Aug 28, 1982
p246
aVFiji v Tonga at Suva, Aug 28, 1982
p247
aVFiji v Tonga at Suva, Aug 28, 1982
p248
aVFiji v Tonga at Suva, Aug 28, 1982
p249
aVFiji v Tonga at Suva, Jun 18, 1983
p250
aVFiji v Tonga at Suva, Jun 18, 1983
p251
aVFiji v Tonga at Suva, Jun 18, 1983
p252
aVFiji v Tonga at Suva, Jun 18, 1983
p253
aVFiji v Tonga at Suva, Jun 18, 1983
p254
aVFiji v Tonga at Suva, Jun 18, 1983
p255
aVFiji v Tonga at Suva, Jun 18, 1983
p256
aVNew Zealand Maori v Tonga at Rotorua, Aug 6, 1983
p257
aVNew Zealand Maori v Tonga at Rotorua, Aug 6, 1983
p258
aVNew Zealand Maori v Tonga at Rotorua, Aug 6, 1983
p259
aVNew Zealand Maori v Tonga at Rotorua, Aug 6, 1983
p260
aVNew Zealand Maori v Tonga at Rotorua, Aug 6, 1983
p261
aVNew Zealand Maori v Tonga at Rotorua, Aug 6, 1983
p262
aVNew Zealand Maori v Tonga at Auckland, Aug 13, 1983
p263
aVFiji v Tonga at Suva, Jul 7, 1984
p264
aVFiji v Tonga at Suva, Jul 7, 1984
p265
aVFiji v Tonga at Suva, Jul 7, 1984
p266
aVFiji v Tonga at Suva, Jul 21, 1984
p267
aVFiji v Tonga at Suva, Jul 21, 1984
p268
aVFiji v Tonga at Suva, Jul 21, 1984
p269
aVFiji v Tonga at Apia, Jun 5, 1985
p270
aVFiji v Tonga at Apia, Jun 5, 1985
p271
aVFiji v Tonga at Apia, Jun 5, 1985
p272
aVFiji v Tonga at Apia, Jun 5, 1985
p273
aVFiji v Tonga at Apia, Jun 5, 1985
p274
aVFiji v Tonga at Apia, Jun 5, 1985
p275
aVTonga v Wales at Nuku A'lofa, Jun 12, 1986
p276
aVTonga v Wales at Nuku A'lofa, Jun 12, 1986
p277
aVTonga v Wales at Nuku A'lofa, Jun 12, 1986
p278
aVTonga v Wales at Nuku A'lofa, Jun 12, 1986
p279
aVTonga v Wales at Nuku A'lofa, Jun 12, 1986
p280
aVTonga v Fiji at Nuku A'lofa, Jun 28, 1986
p281
aVTonga v Fiji at Nuku A'lofa, Jun 28, 1986
p282
aVTonga v Fiji at Nuku A'lofa, Jun 28, 1986
p283
aVTonga v Fiji at Nuku A'lofa, Jul 20, 1986
p284
aVCanada v Tonga at Napier, May 24, 1987
p285
aVCanada v Tonga at Napier, May 24, 1987
p286
aVCanada v Tonga at Napier, May 24, 1987
p287
aVCanada v Tonga at Napier, May 24, 1987
p288
aVCanada v Tonga at Napier, May 24, 1987
p289
aVCanada v Tonga at Napier, May 24, 1987
p290
aVCanada v Tonga at Napier, May 24, 1987
p291
aVTonga v Wales at Palmerston North, May 29, 1987
p292
aVTonga v Wales at Palmerston North, May 29, 1987
p293
aVSamoa v Tonga at Suva, Aug 28, 1987
p294
aVSamoa v Tonga at Suva, Aug 28, 1987
p295
aVSamoa v Tonga at Suva, Aug 28, 1987
p296
aVSamoa v Tonga at Suva, Aug 28, 1987
p297
aVSamoa v Tonga at Suva, Aug 28, 1987
p298
aVSamoa v Tonga at Suva, Aug 28, 1987
p299
aVSamoa v Tonga at Suva, Aug 28, 1987
p300
aVSamoa v Tonga at Suva, Aug 28, 1987
p301
aVFiji v Tonga at Suva, Aug 29, 1987
p302
aVFiji v Tonga at Suva, Aug 29, 1987
p303
aVFiji v Tonga at Suva, Aug 29, 1987
p304
aVSamoa v Tonga at Apia, May 28, 1988
p305
aVSamoa v Tonga at Apia, May 28, 1988
p306
aVSamoa v Tonga at Apia, May 28, 1988
p307
aVSamoa v Tonga at Apia, May 28, 1988
p308
aVFiji v Tonga at Apia, May 31, 1988
p309
aVFiji v Tonga at Apia, May 31, 1988
p310
aVFiji v Tonga at Apia, May 31, 1988
p311
aVFiji v Tonga at Apia, May 31, 1988
p312
aVTonga v Fiji at Nuku A'lofa, Jul 2, 1988
p313
aVTonga v Fiji at Nuku A'lofa, Jul 2, 1988
p314
aVTonga v Fiji at Nuku A'lofa, Jul 2, 1988
p315
aVTonga v Fiji at Nuku A'lofa, Jul 2, 1988
p316
aVTonga v Fiji at Nuku A'lofa, Jul 2, 1988
p317
aVFiji v Tonga at Nadi, Oct 8, 1988
p318
aVFiji v Tonga at Nadi, Oct 8, 1988
p319
aVFiji v Tonga at Suva, Jul 15, 1989
p320
aVTonga v Fiji at Nuku A'lofa, Jul 22, 1989
p321
aVTonga v Fiji at Nuku A'lofa, Mar 24, 1990
p322
aVTonga v Fiji at Nuku A'lofa, Mar 24, 1990
p323
aVTonga v Fiji at Nuku A'lofa, Mar 24, 1990
p324
aVTonga v Fiji at Nuku A'lofa, Mar 24, 1990
p325
aVTonga v Fiji at Nuku A'lofa, Mar 24, 1990
p326
aVJapan v Tonga at Tokyo, Apr 8, 1990
p327
aVJapan v Tonga at Tokyo, Apr 8, 1990
p328
aVJapan v Tonga at Tokyo, Apr 8, 1990
p329
aVSamoa v Tonga at Tokyo, Apr 11, 1990
p330
aVSamoa v Tonga at Tokyo, Apr 11, 1990
p331
aVSamoa v Tonga at Tokyo, Apr 11, 1990
p332
aVKorea v Tonga at Tokyo, Apr 15, 1990
p333
aVSamoa v Tonga at Apia, Jun 17, 1990
p334
aVSamoa v Tonga at Apia, Jun 17, 1990
p335
aVSamoa v Tonga at Apia, Jun 17, 1990
p336
aVTonga v Samoa at Nuku A'lofa, May 28, 1991
p337
aVTonga v Samoa at Nuku A'lofa, May 28, 1991
p338
aVTonga v Samoa at Nuku A'lofa, May 28, 1991
p339
aVTonga v Samoa at Nuku A'lofa, May 28, 1991
p340
aVTonga v Samoa at Nuku A'lofa, May 28, 1991
p341
aVTonga v Samoa at Nuku A'lofa, May 28, 1991
p342
aVFiji v Tonga at Suva, Jun 8, 1991
p343
aVFiji v Tonga at Suva, Jun 8, 1991
p344
aVFiji v Tonga at Suva, Jun 11, 1991
p345
aVFiji v Tonga at Suva, Jun 11, 1991
p346
aVFiji v Tonga at Suva, Jun 11, 1991
p347
aVSamoa v Tonga at Apia, Jun 13, 1992
p348
aVSamoa v Tonga at Apia, Jun 13, 1992
p349
aVSamoa v Tonga at Apia, Jun 13, 1992
p350
aVSamoa v Tonga at Apia, Jun 13, 1992
p351
aVSamoa v Tonga at Apia, Jun 13, 1992
p352
aVSamoa v Tonga at Apia, Jun 13, 1992
p353
aVSamoa v Tonga at Apia, Jun 13, 1992
p354
aVSamoa v Tonga at Apia, Jun 13, 1992
p355
aVTonga v Fiji at Nuku A'lofa, Jul 25, 1992
p356
aVTonga v Fiji at Nuku A'lofa, Jul 25, 1992
p357
aVTonga v Fiji at Nuku A'lofa, Jul 25, 1992
p358
aVTonga v Fiji at Nuku A'lofa, Jul 25, 1992
p359
aVTonga v Samoa at Nuku A'lofa, May 29, 1993
p360
aVTonga v Samoa at Nuku A'lofa, May 29, 1993
p361
aVTonga v Samoa at Nuku A'lofa, May 29, 1993
p362
aVTonga v Samoa at Nuku A'lofa, May 29, 1993
p363
aVTonga v Samoa at Nuku A'lofa, May 29, 1993
p364
aVTonga v Samoa at Nuku A'lofa, May 29, 1993
p365
aVTonga v Samoa at Nuku A'lofa, May 29, 1993
p366
aVTonga v Scotland XV at Nuku A'lofa, Jun 5, 1993
p367
aVTonga v Scotland XV at Nuku A'lofa, Jun 5, 1993
p368
aVTonga v Scotland XV at Nuku A'lofa, Jun 5, 1993
p369
aVTonga v Scotland XV at Nuku A'lofa, Jun 5, 1993
p370
aVFiji v Tonga at Suva, Jun 12, 1993
p371
aVFiji v Tonga at Suva, Jun 12, 1993
p372
aVAustralia v Tonga at Brisbane, Jul 4, 1993
p373
aVAustralia v Tonga at Brisbane, Jul 4, 1993
p374
aVAustralia v Tonga at Brisbane, Jul 4, 1993
p375
aVAustralia v Tonga at Brisbane, Jul 4, 1993
p376
aVAustralia v Tonga at Brisbane, Jul 4, 1993
p377
aVTonga v Fiji at Nuku A'lofa, Jul 17, 1993
p378
aVTonga v Fiji at Nuku A'lofa, Jul 17, 1993
p379
aVSamoa v Tonga at Moamoa, Jun 4, 1994
p380
aVSamoa v Tonga at Moamoa, Jun 4, 1994
p381
aVSamoa v Tonga at Moamoa, Jun 4, 1994
p382
aVSamoa v Tonga at Moamoa, Jun 4, 1994
p383
aVTonga v Wales at Nuku A'lofa, Jun 22, 1994
p384
aVTonga v Fiji at Nuku A'lofa, Jul 9, 1994
p385
aVTonga v Fiji at Nuku A'lofa, Jul 9, 1994
p386
aVJapan v Tonga at Nagoya, Feb 11, 1995
p387
aVJapan v Tonga at Nagoya, Feb 11, 1995
p388
aVJapan v Tonga at Nagoya, Feb 11, 1995
p389
aVJapan v Tonga at Tokyo, Feb 19, 1995
p390
aVJapan v Tonga at Tokyo, Feb 19, 1995
p391
aVFrance v Tonga at Pretoria, May 26, 1995
p392
aVFrance v Tonga at Pretoria, May 26, 1995
p393
aVFrance v Tonga at Pretoria, May 26, 1995
p394
aVFrance v Tonga at Pretoria, May 26, 1995
p395
aVIvory Coast v Tonga at Rustenberg, Jun 3, 1995
p396
aVIvory Coast v Tonga at Rustenberg, Jun 3, 1995
p397
aVIvory Coast v Tonga at Rustenberg, Jun 3, 1995
p398
aVTonga v Samoa at Nuku A'lofa, Jul 8, 1995
p399
aVFiji v Tonga at Suva, Jul 15, 1995
p400
aVFiji v Tonga at Suva, Jul 15, 1995
p401
aVSamoa v Tonga at Apia, Jul 13, 1996
p402
aVSamoa v Tonga at Apia, Jul 13, 1996
p403
aVSamoa v Tonga at Apia, Jul 13, 1996
p404
aVSamoa v Tonga at Apia, Jul 13, 1996
p405
aVSamoa v Tonga at Apia, Jul 13, 1996
p406
aVSamoa v Tonga at Apia, Jul 13, 1996
p407
aVSamoa v Tonga at Apia, Jul 13, 1996
p408
aVTonga v Fiji at Nuku A'lofa, Jul 27, 1996
p409
aVTonga v Fiji at Nuku A'lofa, Jul 27, 1996
p410
aVTonga v Fiji at Nuku A'lofa, Jul 27, 1996
p411
aVTonga v New Zealand Maori at Nuku A'lofa, Nov 8, 1996
p412
aVTonga v New Zealand Maori at Nuku A'lofa, Nov 8, 1996
p413
aVTonga v New Zealand Maori at Nuku A'lofa, Nov 8, 1996
p414
aVZimbabwe v Tonga at Harare, May 17, 1997
p415
aVZimbabwe v Tonga at Harare, May 17, 1997
p416
aVZimbabwe v Tonga at Harare, May 17, 1997
p417
aVZimbabwe v Tonga at Harare, May 17, 1997
p418
aVZimbabwe v Tonga at Harare, May 17, 1997
p419
aVSouth Africa v Tonga at Cape Town, Jun 10, 1997
p420
aVFiji v Tonga at Suva, Jun 21, 1997
p421
aVSamoa v Tonga at Apia, Jun 28, 1997
p422
aVTonga v Cook Islands at Nuku A'lofa, Jul 5, 1997
p423
aVWales v Tonga at Swansea, Nov 16, 1997
p424
aVWales v Tonga at Swansea, Nov 16, 1997
p425
aVWales v Tonga at Swansea, Nov 16, 1997
p426
aVWales v Tonga at Swansea, Nov 16, 1997
p427
aVWales v Tonga at Swansea, Nov 16, 1997
p428
aVWales v Tonga at Swansea, Nov 16, 1997
p429
aVWales v Tonga at Swansea, Nov 16, 1997
p430
aVSamoa v Tonga at Sydney, Sep 18, 1998
p431
aVSamoa v Tonga at Sydney, Sep 18, 1998
p432
aVSamoa v Tonga at Sydney, Sep 18, 1998
p433
aVSamoa v Tonga at Sydney, Sep 18, 1998
p434
aVSamoa v Tonga at Sydney, Sep 18, 1998
p435
aVSamoa v Tonga at Sydney, Sep 18, 1998
p436
aVSamoa v Tonga at Sydney, Sep 18, 1998
p437
aVSamoa v Tonga at Sydney, Sep 18, 1998
p438
aVAustralia v Tonga at Canberra, Sep 22, 1998
p439
aVAustralia v Tonga at Canberra, Sep 22, 1998
p440
aVAustralia v Tonga at Canberra, Sep 22, 1998
p441
aVAustralia v Tonga at Canberra, Sep 22, 1998
p442
aVAustralia v Tonga at Canberra, Sep 22, 1998
p443
aVTonga v Georgia at Nuku A'lofa, Mar 6, 1999
p444
aVGeorgia v Tonga at Tbilisi, Mar 28, 1999
p445
aVGeorgia v Tonga at Tbilisi, Mar 28, 1999
p446
aVTonga v Korea at Nuku A'lofa, Apr 16, 1999
p447
aVTonga v Korea at Nuku A'lofa, Apr 16, 1999
p448
aVJapan v Tonga at Tokyo, May 8, 1999
p449
aVSamoa v Tonga at Apia, Jun 5, 1999
p450
aVSamoa v Tonga at Apia, Jun 5, 1999
p451
aVItaly v Tonga at Leicester, Oct 10, 1999
p452
aVCanada v Tonga at Vancouver, May 20, 2000
p453
aVCanada v Tonga at Vancouver, May 20, 2000
p454
aVCanada v Tonga at Vancouver, May 20, 2000
p455
aVCanada v Tonga at Vancouver, May 20, 2000
p456
aVCanada v Tonga at Vancouver, May 20, 2000
p457
aVCanada v Tonga at Vancouver, May 20, 2000
p458
aVCanada v Tonga at Vancouver, May 20, 2000
p459
aVCanada v Tonga at Vancouver, May 20, 2000
p460
aVCanada v Tonga at Vancouver, May 20, 2000
p461
aVJapan v Tonga at Tokyo, Jun 3, 2000
p462
aVNew Zealand v Tonga at North Shore City, Jun 16, 2000
p463
aVNew Zealand v Tonga at North Shore City, Jun 16, 2000
p464
aVNew Zealand v Tonga at North Shore City, Jun 16, 2000
p465
aVTonga v Fiji at Nuku A'lofa, May 25, 2001
p466
aVTonga v Fiji at Nuku A'lofa, May 25, 2001
p467
aVTonga v Fiji at Nuku A'lofa, May 25, 2001
p468
aVTonga v Fiji at Nuku A'lofa, May 25, 2001
p469
aVTonga v Fiji at Nuku A'lofa, May 25, 2001
p470
aVScotland v Tonga at Murrayfield, Nov 10, 2001
p471
aVScotland v Tonga at Murrayfield, Nov 10, 2001
p472
aVScotland v Tonga at Murrayfield, Nov 10, 2001
p473
a.