(lp1
S'O. Faupula'
p2
aS'Te. Fifita'
p3
aS'Afu Fifita'
p4
aS'Sione Finau'
p5
aS'Tevita Finau'
p6
aS'L. Fineanganofo'
p7
aS'S. Halahingalo'
p8
aS'S. Halaholo'
p9
aS'Taniela Haumono'
p10
aS'T. Havea'
p11
aS'Peni Katoa'
p12
aS'M. Liongitau'
p13
aS"E. Mo'ungaloa"
p14
aS'P. Palavi'
p15
aS'S. Pifalati'
p16
aS'Sione Selupe'
p17
aS'Peni Sikalu'
p18
aS'Sione Simiki'
p19
aS'Tevita Tofua'
p20
aS"Na'a Tovo"
p21
aS'Aisea Tupou'
p22
aS"S. Vaka'uta"
p23
aS'Sione Kuila'
p24
aS"Peni 'Ake"
p25
aS'J. Fakalolo'
p26
aS'J. Fukofuka'
p27
aS'Aminiasi Kefu'
p28
aS'Moahegi Latunipulu'
p29
aS'Amone Lino'
p30
aS'Sione Misa'
p31
aS'Tevita Sitanilei'
p32
aS'Viliami Taufatofua'
p33
aS'Simione Tufui'
p34
aS"Esei Tu'ipolotu"
p35
aS"S. Akau'ola"
p36
aS'Samiuela Fonua'
p37
aS'Tevita Fuataimi'
p38
aS"Fa'aitu Hafoka"
p39
aS'Isitolo Hafoka'
p40
aS'L. Kainga'
p41
aS'T. Langi'
p42
aS'Sione Leba'
p43
aS'F. Mailangi'
p44
aS'S. Mateaki'
p45
aS'Suli Moa'
p46
aS'Osaisai Pepa Koloamatangii'
p47
aS'Sione T. Puloka'
p48
aS'Pauli Taumoepeau'
p49
aS"L. Tu'uta"
p50
aS'Saia Vaea'
p51
aS'Sione Finisi Heleta'
p52
aS'Ilaikimi Omani'
p53
aS'Sefesi Ata'
p54
aS'Tevita Alatini'
p55
aS'Osaiasi Beba'
p56
aS'Tomasi Soaiti'
p57
aS"Siosi Tu'itavake"
p58
aS'Visa Vaka'
p59
aS'Viliami Vuni'
p60
aS'Sione Buloka'
p61
aS'Joasina Kaihau'
p62
aS'Sione Laiseni'
p63
aS'Sione Vikilani'
p64
aS'Siu Aisake'
p65
aS"Masiu Akau'ola"
p66
aS'Tonga Faleola'
p67
aS'Simione Fangupo'
p68
aS'Fine Fifita'
p69
aS'Lisala Fifita'
p70
aS'Siua Kaihau'
p71
aS'Timote Mafi'
p72
aS'Viliami Moeaki'
p73
aS"Sione Napa'a"
p74
aS'Tevita Piukala'
p75
aS'Henele Taliai'
p76
aS"Sione Tunufa'i"
p77
aS'Tevita Unga'
p78
aS'Tevita Apitani'
p79
aS'Samiuela Fotu'
p80
aS'Mesiu Ilolahia'
p81
aS'Tevita Kaufana'
p82
aS'Valita Likio'
p83
aS"Tongatoutei Ma'u"
p84
aS"Valeti Ma'u"
p85
aS"Sione Mo'ungalo"
p86
aS'Sini Pouanga'
p87
aS'Tevita Samiu'
p88
aS'Makoni Sifa'
p89
aS'Kuli Tonga'
p90
aS'Malakai Tonga'
p91
aS"Soane Tu'ipulotu"
p92
aS'Sione Valeli'
p93
aS'Inoke'
p94
aS'Malu'
p95
aS'Tuifio Taufa Aloua'
p96
aS'Kisione Fifita'
p97
aS"Samiu Hala'unga"
p98
aS"Mafile'o Kefu"
p99
aS'Sele Latukefu'
p100
aS'Samiuela Mafana'
p101
aS'Lutu Mailangi'
p102
aS'Tevita Moli'
p103
aS'Sione Nauvai'
p104
aS'Tevita Sika'
p105
aS'Sione Tavo'
p106
aS'Talaiasi Teu'
p107
aS'Paula Tevi'
p108
aS"Isikeli Vaka'uta"
p109
aS'Sione Vunipola'
p110
aS'Finau Otutoa'
p111
aS"Pauli Ma'afu"
p112
aS'Kalisi Moala'
p113
aS"Lausi'i Tu'itavake"
p114
aS'Samiuela Ula'
p115
aS"Viliami Vaka'uta"
p116
aS'Kakalosi Kioa'
p117
aS"Lausi'i Fililava"
p118
aS'Uatesoni Palavi'
p119
aS"Petelo Fa'apoi"
p120
aS"Panuve Faka'ua"
p121
aS'Siaosi Selupe'
p122
aS'Ngalumoetutula Kalaniuvalu'
p123
aS'Foua Moala'
p124
aS'Takai Sime'
p125
aS"Tamata'ane Tatafu"
p126
aS"Fetu'ulele"
p127
aS'Taniela Finau'
p128
aS'Talitaufa Helu'
p129
aS"Kimpu 'Inoke"
p130
aS"Kei 'Iongi"
p131
aS'Etuini Kelemeni'
p132
aS'Tali Latukefu'
p133
aS'Tevita Leger'
p134
aS'Tuilipe Mapa'
p135
aS'Viliami Pahulu'
p136
aS'Samiuela Tatafu'
p137
aS'Kalani Hafoka'
p138
aS'Viliami Hosea'
p139
aS'Sione Kava'
p140
aS'Sione Motuliki'
p141
aS'Freddie Muller'
p142
aS"Viliami 'Alipate"
p143
aS'Tali Kavapalu'
p144
aS'George Selupe'
p145
aS'Telanisi'
p146
aS'Supileo Fotu'
p147
aS"Fetu'ulele Mailangi"
p148
aS'Sione Sika'
p149
aS'Molou Filimoehala'
p150
aS'Taniela Tonga'
p151
aS'Sione Mafi Pahulu'
p152
aS"Sio Motu'apuaka"
p153
aS"'Uhila Tai"
p154
aS'Vainikolo Vanisi'
p155
aS"'Inoke Lupina"
p156
aS"Malakai 'Alatini"
p157
aS'Sami Latu'
p158
aS"Taufu'i Moala"
p159
aS"Kulini Motu'apuaka"
p160
aS'Ilavalu Taufa'
p161
aS'Polutele Tuihalamaka'
p162
aS'Fatai Kefu'
p163
aS'Eukaliti Hehepoto'
p164
aS'Tevita Bloomfield'
p165
aS"Ha'unga Fonua"
p166
aS'F. Hufanga'
p167
aS"Valita Ma'ake"
p168
aS'Siope Matapule'
p169
aS'Fakahau Valu'
p170
aS'Sione Foliaki'
p171
aS'Pasifiki Tonga'
p172
aS"Fa'aleo Tupi"
p173
aS"'Isikeli Vave"
p174
aS'Tuli Kaho'
p175
aS'Ualeni Pahulu'
p176
aS"Sitafooti 'Aho"
p177
aS'Saia Fifita'
p178
aS'Talilotu Ngaluafe'
p179
aS'Tevita Pulumufita'
p180
aS'Saimone Vaea'
p181
aS'Peni Kaihau'
p182
aS'Sosaia Makalo'
p183
aS"Hala Maka'ohi"
p184
aS'Vainga Fakatulolo'
p185
aS'Sateki Tupou'
p186
aS'Alele Vaihu'
p187
aS'Niuselau Tofa Fakauho'
p188
aS'Mana Hafoka'
p189
aS'Pangia Katoa'
p190
aS'Peni Kiole'
p191
aS'Pasuka Mapakaitolo,Snr'
p192
aS"Viliami Moala'eua"
p193
aS"Mosese Tu'ipulotu"
p194
aS"Viliami Tu'ipulotu"
p195
aS'Folafala Vuna'
p196
aS'Nunu Vahe'
p197
aS"Sitani Hala'ufia"
p198
aS'Sione Alatini'
p199
aS'Satisi Vunipola'
p200
aS'Molitoni Finau'
p201
aS'Rocky Fotu'
p202
aS"Siai Liava'a"
p203
aS"Peseti Ma'afu"
p204
aS"Tui'pulotu Viliame"
p205
aS'Ofa Hiko'
p206
aS"Alamoni Liava'a"
p207
aS'Prince Mailefihi'
p208
aS'Nofomuli Taumoefolau'
p209
aS"Tui'pulotu Maka"
p210
aS'M. Malu'
p211
aS'Malakai Pulumu'
p212
aS"Puniani Tu'ipulotu"
p213
aS"Mailefihi Tuku'aho"
p214
aS'Soane Hola'
p215
aS"Talanoa Kitekei'aho"
p216
aS'Kulikefu Lomu'
p217
aS"Soakai Motu'apuaka"
p218
aS'Semisi Faleafa'
p219
aS"Fou Ma'afu"
p220
aS'Fili Moala'
p221
aS'Sione Vai'
p222
aS'Sweet Leilani Fekau'
p223
aS'Poseisei Havili'
p224
aS'Viliami Lutua'
p225
aS'Sitini Mahe'
p226
aS'Paea Moala'
p227
aS'Soape Nuku'
p228
aS"Sisi Tu'ipulotu"
p229
aS'Pohahau Palu'
p230
aS'Siale Vai'
p231
aS'Sanilaita'
p232
aS'Amone Fungavaka'
p233
aS"Tu'ikolovatu Halafihi"
p234
aS'Liapo Halavatau'
p235
aS'T. Kapeli'
p236
aS'Tomasi Lovo'
p237
aS'Laupo Mafileo'
p238
aS'Feleti Moala'
p239
aS'Pule Moala'
p240
aS'Tevita Soane'
p241
aS'Poese Taukolo'
p242
aS'Hakatoa Tupou'
p243
aS'Kapelilei Vunipola'
p244
aS"Mesui Fanga'uta"
p245
aS'Vatuniloka Fifita'
p246
aS"Ha'unga Petelo"
p247
aS'Feleti Taniela'
p248
aS'Viliami Vunipola'
p249
aS'Pau Afeaki'
p250
aS'Talai Fifita'
p251
aS'Viliami Maka'
p252
aS"Kouliti Ma'u"
p253
aS'Laukau Ofa'
p254
aS"Heneli Pau'u"
p255
aS"'Otenili Pifeleti"
p256
aS"'Ofa Blake"
p257
aS'Tohi Leha'
p258
aS"Pau'u Lolohea"
p259
aS"Tu'ihalafatai Ma'afu"
p260
aS'Takai Makisi'
p261
aS"Mo'unga Taufateau"
p262
aS'Paula Taholo'
p263
aS'Sinali-Tui Latu'
p264
aS'Feao Lavemai'
p265
aS'Sekona Taufa'
p266
aS"Tali Ete'aki"
p267
aS'Paula Tupou'
p268
aS"Laifai'i Kauhalaniua"
p269
aS'Peni Fakava'
p270
aS'Manisela Hekeheke'
p271
aS'Fetaiaki Langi'
p272
aS'Pila Maka'
p273
aS'Lui Stanley'
p274
aS'Latu Vaeno'
p275
aS'Lausii Hopoate'
p276
aS'Emosi Koloto'
p277
aS'Funa Moala'
p278
aS'Samiu Mohi'
p279
aS"Mofuike Tu'ungafasi"
p280
aS"Vaivao Fa'aumu"
p281
aS'Maliu Filise'
p282
aS"Popolini Ta'univao"
p283
aS'Totilini Tuavao'
p284
aS"Soane 'Asi"
p285
aS'Quddus Fielea'
p286
aS'Kasi Fine'
p287
aS'Kini Fotu'
p288
aS"Taipaleti Tu'uta"
p289
aS'Sione Tahaafe'
p290
aS'Lemeki Vaipulu'
p291
aS'Asa Amone'
p292
aS'Manu Vunipola'
p293
aS"Siaosi 'Atiola"
p294
aS'Inoke Finau'
p295
aS'Maimoa Havili'
p296
aS"Teutau Loto'ahea"
p297
aS'Kite Tuivailala'
p298
aS'Lopeti Uhatafe'
p299
aS"Semi Ve'ehala"
p300
aS'Chris Manu'
p301
aS'Liueli Fusimalohi'
p302
aS'Tevita Hafoka'
p303
aS'Kolona Latu'
p304
aS"Fa'onelua Fakaua"
p305
aS'Kuli Faletau'
p306
aS'Fatai Ika'
p307
aS'Maliepo Toma'
p308
aS'Soane Finau'
p309
aS'Taitusi Halasika'
p310
aS'Sione Palenapa'
p311
aS"Hikifo'ou Vaingolo"
p312
aS"'Asisi Pou'uhila"
p313
aS'Takitoa Taumoepeau'
p314
aS'Koloni Tuivailala'
p315
aS"Fe'ao Vunipola"
p316
aS'Koliniata Feke'
p317
aS'Samiu Mafi'
p318
aS'Tinitale Makalea'
p319
aS'Liueli Susimalofi'
p320
aS'Moimoi Halatanu'
p321
aS'Feao Filikitonga'
p322
aS'Isi Tapueluelu'
p323
aS'Ikani Taufa'
p324
aS'Nafe Tufui'
p325
aS'Elisi Vunipola'
p326
aS'Tevita Lavaki'
p327
aS"Amanaki Vaha'akolo"
p328
aS'Fololisi Masila'
p329
aS'Peniola Ahofono'
p330
aS'Vaea Anitoni'
p331
aS'Feleti Faotusa'
p332
aS'Takau Lutua'
p333
aS'Uafe Niuila'
p334
aS'Sitiveni Pongi'
p335
aS'Tukua Tonga'
p336
aS'Fifita Faletau'
p337
aS"Leha'uli Fotu"
p338
aS'Okalani Kanatea'
p339
aS'Lopeti Samiu'
p340
aS'Sione Vaeno'
p341
aS"Tevita Va'enuku"
p342
aS'Soane Hiko'
p343
aS'Alatini Saulala'
p344
aS'Fatui Lagilagi'
p345
aS'Huihahau Nisa'
p346
aS'Semi Taupeaafe'
p347
aS"Pelimani Fisi'iahi"
p348
aS'Rudi Kapeli'
p349
aS'Dave Latailakepa'
p350
aS'Holani Pohiva'
p351
aS'Chris Schaumkel'
p352
aS"Isi Tu'ivai"
p353
aS'Mistana Vea'
p354
aS'Tasi Vikilani'
p355
aS'Isi Fatani'
p356
aS'Siaosi Latu'
p357
aS"Tevita Pau'u"
p358
aS'Tavake Tuineau'
p359
aS'Ipolito Fenukitau'
p360
aS'Samisoni Lolo'
p361
aS'Feleti Mahoni'
p362
aS'Valita Moa'
p363
aS'Edwin Talakai'
p364
aS'Pauliasi Vakamalolo'
p365
aS'Martin Manukia'
p366
aS'Feleti Fakaongo'
p367
aS'Manu Lavaka'
p368
aS'A. Tulikaki'
p369
aS'Afu Uasi'
p370
aS"Finau Ma'afu"
p371
aS'Semisi Tongia'
p372
aS'Falamani Mafi'
p373
aS'Alaska Taufa'
p374
aS'Taipe Vave'
p375
aS"Tu'ihakavalu Kolo"
p376
aS'Falanisi Manukia'
p377
aS'Kolau Fokofuka'
p378
aS'Sateki Tuipulotu'
p379
aS'Unaloto Fa'
p380
aS'Peneili Latu'
p381
aS'Valai Taumoepeau'
p382
aS'Sam Alatini'
p383
aS"Kati Tu'ipulotu"
p384
aS'Kilioni Tuipulotu'
p385
aS'Jonathan Tupou'
p386
aS'Pouvalu Latukefu'
p387
aS'David Manako'
p388
aS"Mana 'Otai"
p389
aS'Taholo Anitoni'
p390
aS"Va'a Toloke"
p391
aS"Saili Fe'ao"
p392
aS'Willie Lose'
p393
aS"Unuoi Va'enuku"
p394
aS'Inoke Afeaki'
p395
aS"Simana Mafile'o"
p396
aS'Taipe Isitolo'
p397
aS'Akuila Mafi'
p398
aS'Pita Alatini'
p399
aS'Pita Tanginoa'
p400
aS'Paula Tuitavake'
p401
aS'Tevita Asi'
p402
aS'Paula Kalanivalu'
p403
aS'Lani Katoa'
p404
aS'Hemani Lavaka'
p405
aS'Etu Manu'
p406
aS"Ngalu Taufo'ou"
p407
aS'Josh Taumalolo'
p408
aS'Maikolo Kaihea'
p409
aS'Fepikou Tatafu'
p410
aS'Gustavo Tonga'
p411
aS"Ma'ama Molitika"
p412
aS'Viliami Uhi'
p413
aS"Semisi Faka'osi'folau"
p414
aS'Damien Penesini'
p415
aS'Tau Siale'
p416
aS"Alipate Ta'ufo'ou"
p417
aS'Talanoa Tohi'
p418
aS'Latiume Maka'
p419
aS'Semi Tulikifanga'
p420
aS'Dave Tiueti'
p421
aS'Vikilani Afeaki'
p422
aS'Johnny Ngauamo'
p423
aS'David Briggs'
p424
aS'Saia Latu'
p425
aS"Vili Ma'asi"
p426
aS'Tom Matakiongo'
p427
aS'Sione Tuipulotu'
p428
aS'Simon Hafoka'
p429
aS'Sione Tai'
p430
aS'Salesi Finau'
p431
aS'Pierre Hola'
p432
aS'Benhur Kivalu'
p433
aS'Jonathan Koloi'
p434
aS"Tauna'holo Taufahema"
p435
aS'Brian Wooley'
p436
aS'Hese Fakatou'
p437
aS'Uiniati Moa'
p438
aS"Ma'afu Pale"
p439
aS'Matt te Pou'
p440
aS'David Edwards'
p441
aS'Sililo Martens'
p442
aS'Jeff Sitoa'
p443
aS'Sam Hala'
p444
aS'Puke Faletau'
p445
aS"'Aleki Lutui"
p446
aS'Tevita Taumoepeau'
p447
aS'Sengili Tuihalamaka'
p448
aS'Keni Fisilau'
p449
aS"Kisione Ahota'eiloa"
p450
aS"Ta'u Fainga'anuku"
p451
aS'Epi Taione'
p452
aS"Hotili 'Asi"
p453
aS"Chris Hala'ufia"
p454
aS'Aisea Havili Kaufusi'
p455
aS"Apai Kaitu'u"
p456
aS"Epafasi Ta'ufo'ou"
p457
aS'Lotu Filipine'
p458
aS'Fakataha Molitika'
p459
aS'Sioeli Nau'
p460
aS"Movete 'Oto'ota"
p461
aS'Solomone Matangi'
p462
aS'Soane Havea'
p463
aS'Henry Saafi'
p464
aS'Loni Manako'
p465
aS'Tevita Fifita'
p466
aS'Nisifolo Naufahu'
p467
aS'Manako Tonga'
p468
aS'Viliami Vaki'
p469
aS"Taufa'ao Filise"
p470
aS'Gus Leger'
p471
aS'John Pale'
p472
aS'Toni Alatini'
p473
aS'Lua Lokotui'
p474
aS'Salesi Moimoi'
p475
aS"Mo'unga Kafatolu"
p476
aS'Andrew Mailei'
p477
aS'Stanley Afeaki'
p478
aS'Nick Hau'
p479
aS'Sione Fonua'
p480
aS'Emosi Kauhenga'
p481
aS'Laukau Lile'
p482
aS'Kisi Pulu'
p483
aS'Kilioni Bakewa'
p484
aS"Tonga Lea'aetoa"
p485
aS'Milton Ngauamo'
p486
aS'David Palu'
p487
aS'John Payne'
p488
aS'Ephraim Taukafa'
p489
aS"Lisiate 'Ulufonua"
p490
aS'Willie Gibbons'
p491
aS'Taniela Tulia'
p492
aS'Feki Latusalu'
p493
aS"Tevita Tu'ifua"
p494
aS"Johnny Tu'amoheloa"
p495
aS'Suka Hufanga'
p496
aS'Kafalosi Tonga'
p497
aS"Sila Va'enuku"
p498
aS'Edward Langi'
p499
aS'Pila Fifita'
p500
aS"Fangatapu 'Apikotoa"
p501
aS"Lisiate Fa'aoso"
p502
aS'Ofa Misa'
p503
aS'Mosese Moala'
p504
aS'Seti Filo'
p505
aS'Sefa Vaka'
p506
aS'Sikuti Vunipola'
p507
aS'Seti Kiole'
p508
aS'Mosese Makasini'
p509
aS'Matini Tupou'
p510
aS'Siaosi Taufa'
p511
aS"Hudson Tonga'uiha"
p512
aS'Ueleni Fono'
p513
aS'Siope Kapeli'
p514
aS'Samuela Lisala'
p515
aS'Kana Fakava'
p516
aS'Sione Niu Tonga'
p517
aS'Sione Masima'
p518
aS'Rodney Mahe'
p519
aS"Fotu'aika Naitoko"
p520
aS'Sione Taukapo'
p521
aS"Soane Tonga'uiha"
p522
aS'Peni Fakalelu'
p523
aS'Alani Maka'
p524
aS'Talite Vaioleti'
p525
aS'Kele Hehea'
p526
aS'Nili Latu Langilangi'
p527
aS"Tatafu Na'aniumotu"
p528
aS'Tevita Vaikona'
p529
aS'Viliami Hakalo'
p530
aS'Kaiongo Tupou'
p531
aS'Isieli Fine'
p532
aS'Tevita Fonua'
p533
aS"Teu'imuli Kaufusi"
p534
aS'Vunga Lilo'
p535
aS'Sione Poteki'
p536
aS'Vaea Poteki'
p537
aS'Toma Toke'
p538
aS'Hale T-Pole'
p539
aS'Atonio Halangahu'
p540
aS'Sione Kalamafoni'
p541
aS'Hemani Paea'
p542
aS"Folauhola Tatua'a"
p543
aS'Makoni Finau'
p544
aS"Tevita 'Ahoafi"
p545
aS"Setaleki Lu'au"
p546
aS"Sateki Mata'u"
p547
aS'Naisa Sikalu'
p548
aS'Tevita Tanginoa'
p549
aS'Samiu Vahafolau'
p550
aS'Lisiate Tafa'
p551
aS'Patrick Tamoua'
p552
aS'Lopeti Lolohea'
p553
aS'Mesui Lemoto'
p554
aS'Finau Maka'
p555
aS'Enele Taufa'
p556
aS'Josh Afu'
p557
aS'Sione Lavaka'
p558
aS'Tupou Palu'
p559
aS'Semisi Telefoni'
p560
aS'Samiuela Ika'
p561
aS'Sione Timani'
p562
aS'Semosoni Pone'
p563
aS"'Alipate Fatafehi"
p564
aS'David Halaifonua Tonga'
p565
aS"Ilaisa Ma'asi"
p566
aS"Po'alo'i Taula"
p567
aS'Opeti Fonua'
p568
aS'Pasuka Mapakaitolo'
p569
aS'Mateo Malupo'
p570
aS'Mahe Fangupo'
p571
aS'Fou-Ki-Moana Katoa'
p572
aS'Siosaia Palei'
p573
aS'Kilifi Fangupo'
p574
aS'Paula Kata'
p575
aS'Etueni Siua'
p576
aS'Sione Vaiomounga'
p577
aS'Mani Vakaloa'
p578
aS'Kurt Morath'
p579
aS"Manu Ahota'e'iloa"
p580
aS"Akameta Fe'ao"
p581
aS'Saia Fekitoa'
p582
aS'Kelepi Halafihi'
p583
aS'Daniel Morath'
p584
aS'Alapini Olosoni'
p585
aS'Alaska Taufa'
p586
aS'Samisoni Fisilau'
p587
aS'Sione Fukofuka'
p588
aS'Steve Mafi'
p589
aS'Will Helu'
p590
aS'Haani Halaeua'
p591
aS'Viliami Pola'
p592
aS'Aloisio Mailangi'
p593
aS'Damian Fakafanua'
p594
aS'Taumei Hikila'
p595
aS'Rutikha Ilolahia'
p596
aS'Petuliki Mateo'
p597
aS'Kama Sakalia'
p598
aS'Paea Siulangapo'
p599
aS'Michael Toloke'
p600
aS'Sione Vaioleti'
p601
aS'Sioeli Faupula'
p602
aS'Kuea Kolokihakaufiji'
p603
aS'Viliame Iongi'
p604
aS'Pepa Koloamatangi'
p605
aS"Viliami Ma'afu"
p606
aS"Ofa Fainga'anuku"
p607
aS'Paula Kaho'
p608
aS'Eddie Paea'
p609
aS'Silivenusi Taumoepeau'
p610
aS'Sona Taumalolo'
p611
aS'Joe Tuineau'
p612
aS'Tevita Ula'
p613
aS'Sila Puafisi'
p614
aS'Maleko Latu'
p615
aS'Tomasi Palu'
p616
aS"Halani 'Aulika"
p617
aS'Taniela Moa'
p618
aS"Fetu'u Vainikolo"
p619
aS'Siale Piutau'
p620
aS'Mafileo Kefu'
p621
aS"Viliami Fainga'a"
p622
aS'Tevita Mailau'
p623
aS'Sione Piukala'
p624
aS'Elvis Taione'
p625
aS'Eddie Aholelei'
p626
aS'Taione Vea'
p627
aS'Viliami Fihaki'
p628
aS'Samisone Masima'
p629
aS'Fraser Anderson'
p630
aS'Siale Fahiua'
p631
aS'Dan Faleafa'
p632
aS'Rocky Havili'
p633
aS"Uili Kolo'ofai"
p634
aS'Latiume Fosita'
p635
aS'Suliasi Taufalele'
p636
aS"Mata'ali Paea"
p637
aS'Otulea Katoa'
p638
aS'Paul Ngauamo'
p639
aS'Tane Takulua'
p640
aS"Paea Fa'anunu"
p641
aS'Siua Halanukonuka'
p642
aS'Sione Lea'
p643
aS'Telusa Veainu'
p644
aS"Viliami Tahitu'a"
p645
aS'Sefo Sakalia'
p646
aS'Jack Ram'
p647
aS"Sefo Ma'ake"
p648
a.