(lp1
V
aV
aV
aVFlanker
p2
aV
aV
aV
aV
aVLock
p3
aV
aV
aV
aV
aV
aV
aVProp
p4
aV
aVNo. 8
p5
aVHooker
p6
aV
aV
aV
aV
aVProp
p7
aVLock
p8
aVWing
p9
aVWing
p10
aVProp
p11
aVFullback
p12
aVFly-half
p13
aVScrum-half
p14
aVNo. 8
p15
aVWing
p16
aVCentre
p17
aV
aVProp
p18
aVNo. 8
p19
aVNo. 8
p20
aVFly-half
p21
aVHooker
p22
aV
aVHooker
p23
aV
aV
aVCentre
p24
aVFlanker
p25
aV
aVProp
p26
aV
aVLock
p27
aVProp
p28
aVLock
p29
aVWing
p30
aVScrum-half
p31
aVCentre
p32
aVWing
p33
aVLock
p34
aVProp
p35
aVWing
p36
aVCentre
p37
aVWing
p38
aVFlanker
p39
aVFlanker
p40
aV
aV
aVWing
p41
aV
aV
aV
aV
aV
aVCentre
p42
aV
aV
aV
aV
aV
aVCentre
p43
aVCentre
p44
aVProp
p45
aVLock
p46
aVFlanker
p47
aVNo. 8
p48
aVFullback
p49
aVFly-half
p50
aVLock
p51
aVScrum-half
p52
aVHooker
p53
aVScrum-half
p54
aVWing
p55
aVLock
p56
aVProp
p57
aVFlanker
p58
aVFullback
p59
aV
aVFlanker
p60
aVCentre
p61
aVCentre
p62
aVLock
p63
aVFlanker
p64
aVFlanker
p65
aVProp
p66
aVWing
p67
aVFullback
p68
aVProp
p69
aVCentre
p70
aVWing
p71
aVFullback
p72
aVProp
p73
aVProp
p74
aVFlanker
p75
aVProp
p76
aVHooker
p77
aVScrum-half
p78
aVWing
p79
aVNo. 8
p80
aVCentre
p81
aVFly-half
p82
aVWing
p83
aVCentre
p84
aVLock
p85
aVNo. 8
p86
aVProp
p87
aVWing
p88
aVWing
p89
aVLock
p90
aVProp
p91
aVScrum-half
p92
aVFlanker
p93
aVWing
p94
aVWing
p95
aVFly-half
p96
aVFlanker
p97
aVScrum-half
p98
aVHooker
p99
aVFullback
p100
aVFullback
p101
aVProp
p102
aVFlanker
p103
aVLock
p104
aVScrum-half
p105
aVNo. 8
p106
aVCentre
p107
aVFlanker
p108
aVLock
p109
aVFlanker
p110
aVLock
p111
aVFullback
p112
aVHooker
p113
aVWing
p114
aVNo. 8
p115
aVProp
p116
aVFly-half
p117
aVWing
p118
aVHooker
p119
aVFly-half
p120
aVCentre
p121
aVWing
p122
aVProp
p123
aVFullback
p124
aVLock
p125
aVFullback
p126
aVHooker
p127
aVProp
p128
aVScrum-half
p129
aVLock
p130
aVFullback
p131
aVWing
p132
aVFlanker
p133
aVFly-half
p134
aVProp
p135
aVLock
p136
aVWing
p137
aVLock
p138
aVProp
p139
aVCentre
p140
aVProp
p141
aVWing
p142
aVHooker
p143
aVFlanker
p144
aVScrum-half
p145
aVCentre
p146
aVFly-half
p147
aVProp
p148
aVScrum-half
p149
aVFlanker
p150
aVWing
p151
aVLock
p152
aVHooker
p153
aVProp
p154
aVNo. 8
p155
aVCentre
p156
aVWing
p157
aVNo. 8
p158
aVProp
p159
aVCentre
p160
aVFlanker
p161
aVFly-half
p162
aVScrum-half
p163
aVCentre
p164
aVWing
p165
aVLock
p166
aVScrum-half
p167
aVCentre
p168
aVProp
p169
aVCentre
p170
aVLock
p171
aVWing
p172
aVWing
p173
aVFlanker
p174
aVFlanker
p175
aVHooker
p176
aVLock
p177
aVLock
p178
aVCentre
p179
aVCentre
p180
aVProp
p181
aVCentre
p182
aVWing
p183
aVHooker
p184
aVCentre
p185
aVCentre
p186
aVFlanker
p187
aVProp
p188
aVLock
p189
aVWing
p190
aVCentre
p191
aVProp
p192
aVFlanker
p193
aVFullback
p194
aVWing
p195
aVHooker
p196
aVFullback
p197
aVLock
p198
aVNo. 8
p199
aVFly-half
p200
aVWing
p201
aVScrum-half
p202
aVCentre
p203
aVLock
p204
aVFlanker
p205
aVProp
p206
aVFly-half
p207
aVWing
p208
aVNo. 8
p209
aVFullback
p210
aVWing
p211
aVCentre
p212
aVFlanker
p213
aVScrum-half
p214
aVLock
p215
aVProp
p216
aVWing
p217
aVProp
p218
aVNo. 8
p219
aVHooker
p220
aVFlanker
p221
aVFlanker
p222
aVWing
p223
aVProp
p224
aVFullback
p225
aVProp
p226
aVNo. 8
p227
aVCentre
p228
aVWing
p229
aVFullback
p230
aVNo. 8
p231
aVFly-half
p232
aVWing
p233
aVFlanker
p234
aVFlanker
p235
aVLock
p236
aVCentre
p237
aVProp
p238
aVWing
p239
aVFlanker
p240
aVProp
p241
aVCentre
p242
aVLock
p243
aVCentre
p244
aVNo. 8
p245
aVFlanker
p246
aVFlanker
p247
aVWing
p248
aVWing
p249
aVLock
p250
aVNo. 8
p251
aVFlanker
p252
aVNo. 8
p253
aVFly-half
p254
aVFly-half
p255
aVScrum-half
p256
aVNo. 8
p257
aVProp
p258
aVLock
p259
aVLock
p260
aVFly-half
p261
aVFly-half
p262
aVBack-row
p263
aVScrum-half
p264
aVFullback
p265
aVLock
p266
aVLock
p267
aVFly-half
p268
aVLock
p269
aVCentre
p270
aVNo. 8
p271
aVProp
p272
aVProp
p273
aVLock
p274
aVCentre
p275
aVCentre
p276
aVWing
p277
aVLock
p278
aVHooker
p279
aVWing
p280
aVWing
p281
aVNo. 8
p282
aVCentre
p283
aVFullback
p284
aVProp
p285
aVFullback
p286
aVScrum-half
p287
aVScrum-half
p288
aVFly-half
p289
aVProp
p290
aVCentre
p291
aVHooker
p292
aVScrum-half
p293
aVWing
p294
aVProp
p295
aVProp
p296
aVCentre
p297
aVFlanker
p298
aVWing
p299
aVProp
p300
aVFullback
p301
aVFly-half
p302
aVProp
p303
aVWing
p304
aVWing
p305
aVWing
p306
aVCentre
p307
aVProp
p308
aVFly-half
p309
aVWing, Centre
p310
aVLock
p311
aVHooker
p312
aVNo. 8
p313
aVNo. 8
p314
aVFly-half
p315
aVWing
p316
aVWing
p317
aVNo. 8
p318
aVLock
p319
aVProp
p320
aVWing
p321
aVWing
p322
aVFlanker
p323
aVFlanker
p324
aVFlanker
p325
aVProp
p326
aVProp
p327
aVCentre
p328
aVNo. 8
p329
aVLock, Flanker
p330
aVCentre
p331
aVScrum-half
p332
aVWing
p333
aVWing
p334
aVHooker
p335
aVLock
p336
aVWing
p337
aVFullback
p338
aVFly-half
p339
aVFly-half
p340
aVProp
p341
aVFullback
p342
aVProp
p343
aVCentre
p344
aVFlanker
p345
aVCentre
p346
aVFlanker
p347
aVNo. 8
p348
aVProp
p349
aVLock
p350
aVCentre
p351
aVNo. 8
p352
aVCentre
p353
aVNo. 8
p354
aVHooker
p355
aVLock
p356
aVCentre
p357
aVLock, Flanker
p358
aVCentre
p359
aVFullback
p360
aVFly-half
p361
aVCentre
p362
aVCentre
p363
aVCentre
p364
aVWing
p365
aVCentre
p366
aVFlanker
p367
aVProp
p368
aVCentre
p369
aVProp
p370
aVCentre
p371
aVHooker
p372
aVWing
p373
aVFullback
p374
aVBack-row
p375
aVCentre
p376
aVCentre
p377
aVProp
p378
aVHooker
p379
aVLock
p380
aVLock
p381
aVProp, Hooker
p382
aVScrum-half
p383
aVCentre
p384
aVFullback
p385
aVCentre
p386
aVProp
p387
aVFlanker
p388
aVHooker
p389
aVFlanker
p390
aVScrum-half
p391
aVHooker
p392
aVFly-half
p393
aVCentre
p394
aVWing, Fly-half
p395
aVNo. 8, Lock
p396
aVFlanker
p397
aVWing
p398
aVFly-half
p399
aVBack-row
p400
aVProp
p401
aVProp, Hooker
p402
aVFlanker
p403
aVFlanker
p404
aVScrum-half
p405
aVLock
p406
aVWing
p407
aVProp
p408
aVHooker
p409
aVProp
p410
aVWing
p411
aVCentre
p412
aVFlanker
p413
aVProp
p414
aVCentre
p415
aVProp
p416
aVNo. 8
p417
aVWing
p418
aVNo. 8
p419
aVCentre
p420
aVBack-row
p421
aVLock
p422
aVScrum-half
p423
aVFly-half
p424
aVWing
p425
aVFly-half
p426
aVFlanker
p427
aVCentre
p428
aVNo. 8
p429
aVNo. 8
p430
aVNo. 8
p431
aVBack-row
p432
aVProp
p433
aVCentre
p434
aVProp
p435
aVScrum-half
p436
a.