(lp1
V
aV
aV
aVFlanker
p2
aV
aV
aV
aV
aVLock
p3
aV
aV
aV
aV
aV
aV
aVProp
p4
aV
aVNo. 8
p5
aVHooker
p6
aV
aV
aV
aV
aVProp
p7
aVLock
p8
aVWing
p9
aVWing
p10
aVProp
p11
aVFullback
p12
aVFly-half
p13
aVScrum-half
p14
aVNo. 8
p15
aVWing
p16
aVCentre
p17
aV
aV
aVNo. 8
p18
aVNo. 8
p19
aVFly-half
p20
aV
aV
aVHooker
p21
aV
aV
aV
aV
aV
aV
aV
aV
aVProp
p22
aVLock
p23
aVWing
p24
aVScrum-half
p25
aVCentre
p26
aV
aVLock
p27
aVProp
p28
aVWing
p29
aVCentre
p30
aVWing
p31
aVFlanker
p32
aVFlanker
p33
aV
aV
aVWing
p34
aV
aV
aV
aV
aV
aVCentre
p35
aV
aV
aV
aV
aV
aVCentre
p36
aVCentre
p37
aVProp
p38
aV
aVFlanker
p39
aVNo. 8
p40
aVFullback
p41
aVFly-half
p42
aVLock
p43
aV
aVHooker
p44
aVScrum-half
p45
aVWing
p46
aVLock
p47
aVProp
p48
aV
aV
aV
aVFlanker
p49
aVCentre
p50
aVCentre
p51
aVLock
p52
aVFlanker
p53
aVFlanker
p54
aVProp
p55
aVWing
p56
aVFullback
p57
aVProp
p58
aVCentre
p59
aVWing
p60
aV
aVProp
p61
aVProp
p62
aVFlanker
p63
aVProp
p64
aVHooker
p65
aVScrum-half
p66
aVWing
p67
aVNo. 8
p68
aVCentre
p69
aVFly-half
p70
aVWing
p71
aVCentre
p72
aVLock
p73
aVNo. 8
p74
aVProp
p75
aVWing
p76
aVWing
p77
aV
aVProp
p78
aVScrum-half
p79
aVFlanker
p80
aVWing
p81
aVWing
p82
aVFly-half
p83
aVFlanker
p84
aVScrum-half
p85
aVHooker
p86
aV
aVFullback
p87
aVProp
p88
aVFlanker
p89
aVLock
p90
aVScrum-half
p91
aVNo. 8
p92
aVCentre
p93
aVFlanker
p94
aV
aVFlanker
p95
aVLock
p96
aVFullback
p97
aVHooker
p98
aVWing
p99
aVNo. 8
p100
aVProp
p101
aVFly-half
p102
aVWing
p103
aVHooker
p104
aVFly-half
p105
aVCentre
p106
aVWing
p107
aVProp
p108
aVFullback
p109
aVLock
p110
aVFullback
p111
aVHooker
p112
aVProp
p113
aVScrum-half
p114
aV
aVFullback
p115
aVWing
p116
aVFlanker
p117
aVFly-half
p118
aVProp
p119
aVLock
p120
aVWing
p121
aVLock
p122
aVProp
p123
aVCentre
p124
aVProp
p125
aVWing
p126
aVHooker
p127
aVFlanker
p128
aVScrum-half
p129
aVCentre
p130
aVFly-half
p131
aVProp
p132
aVScrum-half
p133
aVFlanker
p134
aVWing
p135
aVLock
p136
aVHooker
p137
aVProp
p138
aVNo. 8
p139
aVCentre
p140
aVWing
p141
aVNo. 8
p142
aVProp
p143
aVCentre
p144
aVFlanker
p145
aVFly-half
p146
aVScrum-half
p147
aVCentre
p148
aVWing
p149
aVLock
p150
aVScrum-half
p151
aV
aVProp
p152
aVCentre
p153
aV
aVWing
p154
aVWing
p155
aVFlanker
p156
aVFlanker
p157
aVHooker
p158
aVLock
p159
aVLock
p160
aVCentre
p161
aVCentre
p162
aVProp
p163
aVCentre
p164
aVWing
p165
aVHooker
p166
aVCentre
p167
aVCentre
p168
aVFlanker
p169
aVProp
p170
aVLock
p171
aVWing
p172
aVCentre
p173
aVProp
p174
aVFlanker
p175
aVFullback
p176
aVWing
p177
aVHooker
p178
aVFullback
p179
aVLock
p180
aV
aVFly-half
p181
aVWing
p182
aVScrum-half
p183
aVCentre
p184
aVLock
p185
aVFlanker
p186
aVProp
p187
aVFly-half
p188
aVWing
p189
aVNo. 8
p190
aVFullback
p191
aVWing
p192
aVCentre
p193
aVFlanker
p194
aVScrum-half
p195
aVLock
p196
aVProp
p197
aVWing
p198
aVProp
p199
aVNo. 8
p200
aVHooker
p201
aVFlanker
p202
aV
aV
aVProp
p203
aVFullback
p204
aVProp
p205
aVNo. 8
p206
aVCentre
p207
aVWing
p208
aVFullback
p209
aVNo. 8
p210
aVFly-half
p211
aVWing
p212
aVFlanker
p213
aVFlanker
p214
aV
aVCentre
p215
aVProp
p216
aVWing
p217
aVFlanker
p218
aVProp
p219
aVCentre
p220
aVLock
p221
aVCentre
p222
aVNo. 8
p223
aVFlanker
p224
aV
aVWing
p225
aVWing
p226
aVLock
p227
aVNo. 8
p228
aVFlanker
p229
aVNo. 8
p230
aVFly-half
p231
aVFly-half
p232
aVScrum-half
p233
aVNo. 8
p234
aVProp
p235
aVLock
p236
aVLock
p237
aVFly-half
p238
aVFly-half
p239
aVBack-row
p240
aVScrum-half
p241
aVFullback
p242
aVLock
p243
aV
aVFly-half
p244
aVLock
p245
aVCentre
p246
aVNo. 8
p247
aVProp
p248
aVProp
p249
aVLock
p250
aVCentre
p251
aVCentre
p252
aVWing
p253
aVLock
p254
aVHooker
p255
aVWing
p256
aVWing
p257
aVNo. 8
p258
aV
aVFullback
p259
aVProp
p260
aVFullback
p261
aVScrum-half
p262
aVScrum-half
p263
aVFly-half
p264
aVProp
p265
aVCentre
p266
aVHooker
p267
aVScrum-half
p268
aVWing
p269
aVProp
p270
aVProp
p271
aVCentre
p272
aVFlanker
p273
aVWing
p274
aVProp
p275
aVFullback
p276
aVFly-half
p277
aVProp
p278
aVWing
p279
aVWing
p280
aVWing
p281
aVCentre
p282
aVProp
p283
aVFly-half
p284
aVWing, Centre
p285
aVLock
p286
aVHooker
p287
aVNo. 8
p288
aVNo. 8
p289
aVFly-half
p290
aVWing
p291
aVWing
p292
aVNo. 8
p293
aVLock
p294
aVProp
p295
aVWing
p296
aVWing
p297
aVFlanker
p298
aVFlanker
p299
aVFlanker
p300
aVProp
p301
aVProp
p302
aVCentre
p303
aVNo. 8
p304
aVLock, Flanker
p305
aVCentre
p306
aVScrum-half
p307
aVWing
p308
aVWing
p309
aVHooker
p310
aVLock
p311
aVWing
p312
aVFullback
p313
aVFly-half
p314
aVFly-half
p315
aVProp
p316
aVFullback
p317
aVProp
p318
aVCentre
p319
aVFlanker
p320
aVCentre
p321
aVFlanker
p322
aVNo. 8
p323
aVProp
p324
aVLock
p325
aVCentre
p326
aVNo. 8
p327
aVCentre
p328
aVNo. 8
p329
aVHooker
p330
aVLock
p331
aVCentre
p332
aVFlanker, Lock
p333
aVCentre
p334
aVFullback
p335
aVFly-half
p336
aVCentre
p337
aVCentre
p338
aVCentre
p339
aVWing
p340
aVCentre
p341
aVFlanker
p342
aVProp
p343
aVCentre
p344
aVProp
p345
aVCentre
p346
aVHooker
p347
aVWing
p348
aVFullback
p349
aVBack-row
p350
aVCentre
p351
aVCentre
p352
aVProp
p353
aVHooker
p354
aVLock
p355
aVLock
p356
aVProp, Hooker
p357
aVScrum-half
p358
aVCentre
p359
aVFullback
p360
aVCentre
p361
aVProp
p362
aVFlanker
p363
aVHooker
p364
aVFlanker
p365
aVScrum-half
p366
aVHooker
p367
aVFly-half
p368
aVCentre
p369
aVWing, Fly-half
p370
aVNo. 8, Lock
p371
aVFlanker
p372
aVWing
p373
aVFly-half
p374
aVBack-row
p375
aVProp
p376
aVHooker, Prop
p377
aVFlanker
p378
aVFlanker
p379
aVScrum-half
p380
aVLock
p381
aVWing
p382
aVProp
p383
aVHooker
p384
aVProp
p385
aVWing
p386
aVCentre
p387
aVFlanker
p388
aVProp
p389
aVCentre
p390
aVProp
p391
aVNo. 8
p392
aVWing
p393
aVNo. 8
p394
aVCentre
p395
aVBack-row
p396
aVLock
p397
aVScrum-half
p398
aVFly-half
p399
aVWing
p400
aVFly-half
p401
aVFlanker
p402
aVCentre
p403
aVNo. 8
p404
aVNo. 8
p405
aVNo. 8
p406
aVBack-row
p407
aVProp
p408
aVCentre
p409
aVProp
p410
aVScrum-half
p411
aVLock, Flanker
p412
aVWing
p413
aVFullback
p414
aVCentre
p415
aVFlanker
p416
aVCentre
p417
aVWing
p418
aVLock, Flanker
p419
aVCentre
p420
aVProp
p421
aVWing
p422
aVProp
p423
aVLock
p424
aVScrum-half
p425
aVCentre
p426
aVHooker
p427
aVFullback
p428
aVFly-half
p429
aVWing
p430
aVHooker
p431
aVWing, Centre
p432
aVBack-row
p433
aVWing
p434
aVProp
p435
aVWing
p436
aVBack-row
p437
aVWing, Centre
p438
aVUtility back
p439
aVLock
p440
aVBack-row
p441
aVProp
p442
aVBack-row
p443
aVCentre
p444
aVScrum-half
p445
aVWing
p446
aVLock
p447
aVNo. 8
p448
aVScrum-half
p449
aVCentre
p450
aVNo. 8
p451
aVBack-row
p452
aVCentre, Wing
p453
aVProp
p454
aVOutside back
p455
aVCentre
p456
aVBack-row
p457
aVProp
p458
aVCentre
p459
aVProp
p460
aVProp
p461
aVProp
p462
aVLock
p463
aVLock
p464
aVNo. 8
p465
aVCentre
p466
aVWing, Centre
p467
aVFullback, Centre
p468
aVCentre
p469
aVLock
p470
aVProp
p471
aVLock
p472
aVWing
p473
aVHooker
p474
aVFly-half
p475
aVProp
p476
aVLock, Flanker
p477
aVHooker
p478
aVBack-row
p479
aVCentre
p480
aV
aVProp
p481
aVScrum-half
p482
aVFullback
p483
aVProp
p484
aVFlanker
p485
aVLock
p486
aVNo. 8
p487
aVCentre, Wing
p488
aV
aVFlanker
p489
aVFullback
p490
aVBack-row
p491
aVScrum-half
p492
aVBack-row
p493
aVWing
p494
aVWing
p495
aVProp
p496
aVLock
p497
aVLock
p498
aVFullback
p499
aVCentre
p500
aVWing
p501
aVHooker
p502
aVProp
p503
aVNo. 8
p504
aVBack-row
p505
aVWing
p506
aVFly-half, Centre
p507
aVWing
p508
aVWing
p509
aVScrum-half
p510
aVFlanker
p511
aVWing
p512
aVHooker, Flanker
p513
aVWing
p514
aVFly-half
p515
aVCentre
p516
aVLock
p517
aVWing
p518
aVLock
p519
aVScrum-half
p520
aVLock, Flanker
p521
aVWing
p522
aVScrum-half
p523
aVProp
p524
aVFlanker
p525
aVWing
p526
aVFlanker
p527
aVProp
p528
aVFlanker
p529
aVWing, Centre
p530
aVLock
p531
aVBack-row
p532
aVCentre
p533
aVHooker
p534
aVBack-row
p535
aVFullback
p536
aVFlanker
p537
aV
aVFlanker
p538
aVWing
p539
aVFlanker
p540
aVNo. 8
p541
aVProp
p542
aVNo. 8
p543
aVHalfback
p544
aVCentre
p545
aVProp
p546
aVLock
p547
aVFlanker
p548
aVProp
p549
aVProp
p550
aVScrum-half
p551
aVProp
p552
aVScrum-half
p553
aVWing
p554
aVWing, Centre
p555
aVCentre
p556
aVProp, Back-row
p557
aVProp
p558
aVCentre
p559
aVHooker
p560
aVProp
p561
aVProp
p562
aVBack-row
p563
aVLock
p564
aVCentre, Wing
p565
aVScrum-half
p566
aVFlanker, Lock
p567
aVCentre, Wing
p568
aVLock
p569
aVFly-half
p570
aVHooker
p571
aVCentre
p572
aVWing
p573
aVHooker
p574
aVScrum-half
p575
aVProp
p576
aVProp
p577
aVProp
p578
a.