(lp1
(dp2
S'Pens'
p3
S'0'
sS'Sub'
p4
S'0'
sS'Lost'
p5
S'1'
sS'Drop'
p6
S'0'
sS'Start'
p7
S'3'
sS'Won'
p8
S'1'
sS'GfM'
p9
S'0'
sS'Draw'
p10
S'1'
sS'Mat'
p11
S'3'
sS'Conv'
p12
S'0'
sS'Tries'
p13
S'0'
sS'Pts'
p14
S'0'
sa(dp15
S'Pens'
p16
S'0'
sS'Sub'
p17
S'0'
sS'Lost'
p18
S'1'
sS'Drop'
p19
S'0'
sS'Start'
p20
S'3'
sS'Won'
p21
S'1'
sS'GfM'
p22
S'0'
sS'Draw'
p23
S'1'
sS'Mat'
p24
S'3'
sS'Conv'
p25
S'0'
sS'Tries'
p26
S'0'
sS'Pts'
p27
S'0'
sa(dp28
S'Pens'
p29
S'0'
sS'Sub'
p30
S'0'
sS'Lost'
p31
S'1'
sS'Drop'
p32
S'0'
sS'Start'
p33
S'3'
sS'Won'
p34
S'1'
sS'GfM'
p35
S'0'
sS'Draw'
p36
S'1'
sS'Mat'
p37
S'3'
sS'Conv'
p38
S'0'
sS'Tries'
p39
S'0'
sS'Pts'
p40
S'0'
sa(dp41
S'Pens'
p42
S'2'
sS'Sub'
p43
S'0'
sS'Lost'
p44
S'2'
sS'Drop'
p45
S'0'
sS'Start'
p46
S'6'
sS'Won'
p47
S'3'
sS'GfM'
p48
S'0'
sS'Draw'
p49
S'1'
sS'Mat'
p50
S'6'
sS'Conv'
p51
S'2'
sS'Tries'
p52
S'1'
sS'Pts'
p53
S'13'
p54
sa(dp55
S'Pens'
p56
S'0'
sS'Sub'
p57
S'0'
sS'Lost'
p58
S'1'
sS'Drop'
p59
S'0'
sS'Start'
p60
S'3'
sS'Won'
p61
S'1'
sS'GfM'
p62
S'0'
sS'Draw'
p63
S'1'
sS'Mat'
p64
S'3'
sS'Conv'
p65
S'0'
sS'Tries'
p66
S'0'
sS'Pts'
p67
S'0'
sa(dp68
S'Pens'
p69
S'0'
sS'Sub'
p70
S'0'
sS'Lost'
p71
S'1'
sS'Drop'
p72
S'0'
sS'Start'
p73
S'3'
sS'Won'
p74
S'1'
sS'GfM'
p75
S'0'
sS'Draw'
p76
S'1'
sS'Mat'
p77
S'3'
sS'Conv'
p78
S'0'
sS'Tries'
p79
S'0'
sS'Pts'
p80
S'0'
sa(dp81
S'Pens'
p82
S'0'
sS'Sub'
p83
S'0'
sS'Lost'
p84
S'1'
sS'Drop'
p85
S'0'
sS'Start'
p86
S'3'
sS'Won'
p87
S'1'
sS'GfM'
p88
S'0'
sS'Draw'
p89
S'1'
sS'Mat'
p90
S'3'
sS'Conv'
p91
S'0'
sS'Tries'
p92
S'0'
sS'Pts'
p93
S'0'
sa(dp94
S'Pens'
p95
S'0'
sS'Sub'
p96
S'0'
sS'Lost'
p97
S'1'
sS'Drop'
p98
S'0'
sS'Start'
p99
S'3'
sS'Won'
p100
S'1'
sS'GfM'
p101
S'0'
sS'Draw'
p102
S'1'
sS'Mat'
p103
S'3'
sS'Conv'
p104
S'0'
sS'Tries'
p105
S'0'
sS'Pts'
p106
S'0'
sa(dp107
S'Pens'
p108
S'2'
sS'Sub'
p109
S'0'
sS'Lost'
p110
S'6'
sS'Drop'
p111
S'0'
sS'Start'
p112
S'12'
p113
sS'Won'
p114
S'5'
sS'GfM'
p115
S'0'
sS'Draw'
p116
S'1'
sS'Mat'
p117
S'12'
p118
sS'Conv'
p119
S'0'
sS'Tries'
p120
S'2'
sS'Pts'
p121
S'12'
p122
sa(dp123
S'Pens'
p124
S'0'
sS'Sub'
p125
S'0'
sS'Lost'
p126
S'1'
sS'Drop'
p127
S'0'
sS'Start'
p128
S'3'
sS'Won'
p129
S'1'
sS'GfM'
p130
S'0'
sS'Draw'
p131
S'1'
sS'Mat'
p132
S'3'
sS'Conv'
p133
S'0'
sS'Tries'
p134
S'0'
sS'Pts'
p135
S'0'
sa(dp136
S'Pens'
p137
S'1'
sS'Sub'
p138
S'0'
sS'Lost'
p139
S'1'
sS'Drop'
p140
S'0'
sS'Start'
p141
S'3'
sS'Won'
p142
S'1'
sS'GfM'
p143
S'0'
sS'Draw'
p144
S'1'
sS'Mat'
p145
S'3'
sS'Conv'
p146
S'0'
sS'Tries'
p147
S'0'
sS'Pts'
p148
S'3'
sa(dp149
S'Pens'
p150
S'0'
sS'Sub'
p151
S'0'
sS'Lost'
p152
S'1'
sS'Drop'
p153
S'0'
sS'Start'
p154
S'3'
sS'Won'
p155
S'1'
sS'GfM'
p156
S'0'
sS'Draw'
p157
S'1'
sS'Mat'
p158
S'3'
sS'Conv'
p159
S'0'
sS'Tries'
p160
S'0'
sS'Pts'
p161
S'0'
sa(dp162
S'Pens'
p163
S'0'
sS'Sub'
p164
S'0'
sS'Lost'
p165
S'1'
sS'Drop'
p166
S'0'
sS'Start'
p167
S'3'
sS'Won'
p168
S'1'
sS'GfM'
p169
S'0'
sS'Draw'
p170
S'1'
sS'Mat'
p171
S'3'
sS'Conv'
p172
S'0'
sS'Tries'
p173
S'0'
sS'Pts'
p174
S'0'
sa(dp175
S'Pens'
p176
S'0'
sS'Sub'
p177
S'0'
sS'Lost'
p178
S'1'
sS'Drop'
p179
S'0'
sS'Start'
p180
S'3'
sS'Won'
p181
S'1'
sS'GfM'
p182
S'0'
sS'Draw'
p183
S'1'
sS'Mat'
p184
S'3'
sS'Conv'
p185
S'0'
sS'Tries'
p186
S'0'
sS'Pts'
p187
S'0'
sa(dp188
S'Pens'
p189
S'0'
sS'Sub'
p190
S'0'
sS'Lost'
p191
S'0'
sS'Drop'
p192
S'0'
sS'Start'
p193
S'2'
sS'Won'
p194
S'1'
sS'GfM'
p195
S'0'
sS'Draw'
p196
S'1'
sS'Mat'
p197
S'2'
sS'Conv'
p198
S'0'
sS'Tries'
p199
S'0'
sS'Pts'
p200
S'0'
sa(dp201
S'Pens'
p202
S'0'
sS'Sub'
p203
S'0'
sS'Lost'
p204
S'2'
sS'Drop'
p205
S'0'
sS'Start'
p206
S'6'
sS'Won'
p207
S'3'
sS'GfM'
p208
S'0'
sS'Draw'
p209
S'1'
sS'Mat'
p210
S'6'
sS'Conv'
p211
S'0'
sS'Tries'
p212
S'1'
sS'Pts'
p213
S'3'
sa(dp214
S'Pens'
p215
S'0'
sS'Sub'
p216
S'0'
sS'Lost'
p217
S'1'
sS'Drop'
p218
S'0'
sS'Start'
p219
S'3'
sS'Won'
p220
S'1'
sS'GfM'
p221
S'0'
sS'Draw'
p222
S'1'
sS'Mat'
p223
S'3'
sS'Conv'
p224
S'0'
sS'Tries'
p225
S'0'
sS'Pts'
p226
S'0'
sa(dp227
S'Pens'
p228
S'0'
sS'Sub'
p229
S'0'
sS'Lost'
p230
S'2'
sS'Drop'
p231
S'0'
sS'Start'
p232
S'6'
sS'Won'
p233
S'3'
sS'GfM'
p234
S'0'
sS'Draw'
p235
S'1'
sS'Mat'
p236
S'6'
sS'Conv'
p237
S'0'
sS'Tries'
p238
S'1'
sS'Pts'
p239
S'3'
sa(dp240
S'Pens'
p241
S'0'
sS'Sub'
p242
S'0'
sS'Lost'
p243
S'2'
sS'Drop'
p244
S'0'
sS'Start'
p245
S'6'
sS'Won'
p246
S'3'
sS'GfM'
p247
S'0'
sS'Draw'
p248
S'1'
sS'Mat'
p249
S'6'
sS'Conv'
p250
S'0'
sS'Tries'
p251
S'0'
sS'Pts'
p252
S'0'
sa(dp253
S'Pens'
p254
S'0'
sS'Sub'
p255
S'0'
sS'Lost'
p256
S'1'
sS'Drop'
p257
S'0'
sS'Start'
p258
S'3'
sS'Won'
p259
S'1'
sS'GfM'
p260
S'0'
sS'Draw'
p261
S'1'
sS'Mat'
p262
S'3'
sS'Conv'
p263
S'0'
sS'Tries'
p264
S'0'
sS'Pts'
p265
S'0'
sa(dp266
S'Pens'
p267
S'0'
sS'Sub'
p268
S'0'
sS'Lost'
p269
S'1'
sS'Drop'
p270
S'0'
sS'Start'
p271
S'3'
sS'Won'
p272
S'1'
sS'GfM'
p273
S'0'
sS'Draw'
p274
S'1'
sS'Mat'
p275
S'3'
sS'Conv'
p276
S'0'
sS'Tries'
p277
S'0'
sS'Pts'
p278
S'0'
sa(dp279
S'Pens'
p280
S'0'
sS'Sub'
p281
S'0'
sS'Lost'
p282
S'1'
sS'Drop'
p283
S'0'
sS'Start'
p284
S'3'
sS'Won'
p285
S'1'
sS'GfM'
p286
S'0'
sS'Draw'
p287
S'1'
sS'Mat'
p288
S'3'
sS'Conv'
p289
S'0'
sS'Tries'
p290
S'0'
sS'Pts'
p291
S'0'
sa(dp292
S'Pens'
p293
S'0'
sS'Sub'
p294
S'0'
sS'Lost'
p295
S'1'
sS'Drop'
p296
S'0'
sS'Start'
p297
S'1'
sS'Won'
p298
S'0'
sS'GfM'
p299
S'0'
sS'Draw'
p300
S'0'
sS'Mat'
p301
S'1'
sS'Conv'
p302
S'0'
sS'Tries'
p303
S'0'
sS'Pts'
p304
S'0'
sa(dp305
S'Pens'
p306
S'0'
sS'Sub'
p307
S'0'
sS'Lost'
p308
S'1'
sS'Drop'
p309
S'0'
sS'Start'
p310
S'3'
sS'Won'
p311
S'2'
sS'GfM'
p312
S'0'
sS'Draw'
p313
S'0'
sS'Mat'
p314
S'3'
sS'Conv'
p315
S'0'
sS'Tries'
p316
S'0'
sS'Pts'
p317
S'0'
sa(dp318
S'Pens'
p319
S'0'
sS'Sub'
p320
S'0'
sS'Lost'
p321
S'1'
sS'Drop'
p322
S'0'
sS'Start'
p323
S'3'
sS'Won'
p324
S'2'
sS'GfM'
p325
S'0'
sS'Draw'
p326
S'0'
sS'Mat'
p327
S'3'
sS'Conv'
p328
S'0'
sS'Tries'
p329
S'0'
sS'Pts'
p330
S'0'
sa(dp331
S'Pens'
p332
S'0'
sS'Sub'
p333
S'0'
sS'Lost'
p334
S'1'
sS'Drop'
p335
S'0'
sS'Start'
p336
S'4'
sS'Won'
p337
S'3'
sS'GfM'
p338
S'0'
sS'Draw'
p339
S'0'
sS'Mat'
p340
S'4'
sS'Conv'
p341
S'0'
sS'Tries'
p342
S'0'
sS'Pts'
p343
S'0'
sa(dp344
S'Pens'
p345
S'0'
sS'Sub'
p346
S'0'
sS'Lost'
p347
S'2'
sS'Drop'
p348
S'0'
sS'Start'
p349
S'5'
sS'Won'
p350
S'3'
sS'GfM'
p351
S'0'
sS'Draw'
p352
S'0'
sS'Mat'
p353
S'5'
sS'Conv'
p354
S'0'
sS'Tries'
p355
S'1'
sS'Pts'
p356
S'3'
sa(dp357
S'Pens'
p358
S'0'
sS'Sub'
p359
S'0'
sS'Lost'
p360
S'1'
sS'Drop'
p361
S'0'
sS'Start'
p362
S'3'
sS'Won'
p363
S'2'
sS'GfM'
p364
S'0'
sS'Draw'
p365
S'0'
sS'Mat'
p366
S'3'
sS'Conv'
p367
S'0'
sS'Tries'
p368
S'0'
sS'Pts'
p369
S'0'
sa(dp370
S'Pens'
p371
S'0'
sS'Sub'
p372
S'0'
sS'Lost'
p373
S'1'
sS'Drop'
p374
S'0'
sS'Start'
p375
S'3'
sS'Won'
p376
S'2'
sS'GfM'
p377
S'0'
sS'Draw'
p378
S'0'
sS'Mat'
p379
S'3'
sS'Conv'
p380
S'0'
sS'Tries'
p381
S'0'
sS'Pts'
p382
S'0'
sa(dp383
S'Pens'
p384
S'0'
sS'Sub'
p385
S'0'
sS'Lost'
p386
S'1'
sS'Drop'
p387
S'0'
sS'Start'
p388
S'3'
sS'Won'
p389
S'2'
sS'GfM'
p390
S'0'
sS'Draw'
p391
S'0'
sS'Mat'
p392
S'3'
sS'Conv'
p393
S'0'
sS'Tries'
p394
S'1'
sS'Pts'
p395
S'3'
sa(dp396
S'Pens'
p397
S'0'
sS'Sub'
p398
S'0'
sS'Lost'
p399
S'3'
sS'Drop'
p400
S'0'
sS'Start'
p401
S'7'
sS'Won'
p402
S'4'
sS'GfM'
p403
S'0'
sS'Draw'
p404
S'0'
sS'Mat'
p405
S'7'
sS'Conv'
p406
S'0'
sS'Tries'
p407
S'0'
sS'Pts'
p408
S'0'
sa(dp409
S'Pens'
p410
S'0'
sS'Sub'
p411
S'0'
sS'Lost'
p412
S'1'
sS'Drop'
p413
S'0'
sS'Start'
p414
S'3'
sS'Won'
p415
S'2'
sS'GfM'
p416
S'0'
sS'Draw'
p417
S'0'
sS'Mat'
p418
S'3'
sS'Conv'
p419
S'0'
sS'Tries'
p420
S'0'
sS'Pts'
p421
S'0'
sa(dp422
S'Pens'
p423
S'0'
sS'Sub'
p424
S'0'
sS'Lost'
p425
S'7'
sS'Drop'
p426
S'0'
sS'Start'
p427
S'12'
p428
sS'Won'
p429
S'5'
sS'GfM'
p430
S'0'
sS'Draw'
p431
S'0'
sS'Mat'
p432
S'12'
p433
sS'Conv'
p434
S'0'
sS'Tries'
p435
S'2'
sS'Pts'
p436
S'6'
sa(dp437
S'Pens'
p438
S'0'
sS'Sub'
p439
S'0'
sS'Lost'
p440
S'2'
sS'Drop'
p441
S'0'
sS'Start'
p442
S'5'
sS'Won'
p443
S'3'
sS'GfM'
p444
S'0'
sS'Draw'
p445
S'0'
sS'Mat'
p446
S'5'
sS'Conv'
p447
S'0'
sS'Tries'
p448
S'0'
sS'Pts'
p449
S'0'
sa(dp450
S'Pens'
p451
S'0'
sS'Sub'
p452
S'0'
sS'Lost'
p453
S'1'
sS'Drop'
p454
S'0'
sS'Start'
p455
S'2'
sS'Won'
p456
S'1'
sS'GfM'
p457
S'0'
sS'Draw'
p458
S'0'
sS'Mat'
p459
S'2'
sS'Conv'
p460
S'0'
sS'Tries'
p461
S'0'
sS'Pts'
p462
S'0'
sa(dp463
S'Pens'
p464
S'0'
sS'Sub'
p465
S'0'
sS'Lost'
p466
S'1'
sS'Drop'
p467
S'0'
sS'Start'
p468
S'3'
sS'Won'
p469
S'2'
sS'GfM'
p470
S'0'
sS'Draw'
p471
S'0'
sS'Mat'
p472
S'3'
sS'Conv'
p473
S'0'
sS'Tries'
p474
S'0'
sS'Pts'
p475
S'0'
sa(dp476
S'Pens'
p477
S'0'
sS'Sub'
p478
S'0'
sS'Lost'
p479
S'4'
sS'Drop'
p480
S'0'
sS'Start'
p481
S'6'
sS'Won'
p482
S'2'
sS'GfM'
p483
S'0'
sS'Draw'
p484
S'0'
sS'Mat'
p485
S'6'
sS'Conv'
p486
S'0'
sS'Tries'
p487
S'2'
sS'Pts'
p488
S'6'
sa(dp489
S'Pens'
p490
S'0'
sS'Sub'
p491
S'0'
sS'Lost'
p492
S'4'
sS'Drop'
p493
S'0'
sS'Start'
p494
S'5'
sS'Won'
p495
S'1'
sS'GfM'
p496
S'0'
sS'Draw'
p497
S'0'
sS'Mat'
p498
S'5'
sS'Conv'
p499
S'0'
sS'Tries'
p500
S'0'
sS'Pts'
p501
S'0'
sa(dp502
S'Pens'
p503
S'3'
sS'Sub'
p504
S'0'
sS'Lost'
p505
S'6'
sS'Drop'
p506
S'0'
sS'Start'
p507
S'8'
sS'Won'
p508
S'2'
sS'GfM'
p509
S'0'
sS'Draw'
p510
S'0'
sS'Mat'
p511
S'8'
sS'Conv'
p512
S'1'
sS'Tries'
p513
S'0'
sS'Pts'
p514
S'11'
p515
sa(dp516
S'Pens'
p517
S'0'
sS'Sub'
p518
S'0'
sS'Lost'
p519
S'1'
sS'Drop'
p520
S'0'
sS'Start'
p521
S'3'
sS'Won'
p522
S'2'
sS'GfM'
p523
S'0'
sS'Draw'
p524
S'0'
sS'Mat'
p525
S'3'
sS'Conv'
p526
S'0'
sS'Tries'
p527
S'0'
sS'Pts'
p528
S'0'
sa(dp529
S'Pens'
p530
S'0'
sS'Sub'
p531
S'0'
sS'Lost'
p532
S'0'
sS'Drop'
p533
S'0'
sS'Start'
p534
S'1'
sS'Won'
p535
S'1'
sS'GfM'
p536
S'0'
sS'Draw'
p537
S'0'
sS'Mat'
p538
S'1'
sS'Conv'
p539
S'0'
sS'Tries'
p540
S'0'
sS'Pts'
p541
S'0'
sa(dp542
S'Pens'
p543
S'0'
sS'Sub'
p544
S'0'
sS'Lost'
p545
S'4'
sS'Drop'
p546
S'0'
sS'Start'
p547
S'5'
sS'Won'
p548
S'1'
sS'GfM'
p549
S'0'
sS'Draw'
p550
S'0'
sS'Mat'
p551
S'5'
sS'Conv'
p552
S'0'
sS'Tries'
p553
S'0'
sS'Pts'
p554
S'0'
sa(dp555
S'Pens'
p556
S'0'
sS'Sub'
p557
S'0'
sS'Lost'
p558
S'1'
sS'Drop'
p559
S'0'
sS'Start'
p560
S'2'
sS'Won'
p561
S'1'
sS'GfM'
p562
S'0'
sS'Draw'
p563
S'0'
sS'Mat'
p564
S'2'
sS'Conv'
p565
S'0'
sS'Tries'
p566
S'0'
sS'Pts'
p567
S'0'
sa(dp568
S'Pens'
p569
S'0'
sS'Sub'
p570
S'0'
sS'Lost'
p571
S'1'
sS'Drop'
p572
S'0'
sS'Start'
p573
S'2'
sS'Won'
p574
S'1'
sS'GfM'
p575
S'0'
sS'Draw'
p576
S'0'
sS'Mat'
p577
S'2'
sS'Conv'
p578
S'0'
sS'Tries'
p579
S'0'
sS'Pts'
p580
S'0'
sa(dp581
S'Pens'
p582
S'0'
sS'Sub'
p583
S'0'
sS'Lost'
p584
S'0'
sS'Drop'
p585
S'0'
sS'Start'
p586
S'2'
sS'Won'
p587
S'2'
sS'GfM'
p588
S'0'
sS'Draw'
p589
S'0'
sS'Mat'
p590
S'2'
sS'Conv'
p591
S'0'
sS'Tries'
p592
S'0'
sS'Pts'
p593
S'0'
sa(dp594
S'Pens'
p595
S'0'
sS'Sub'
p596
S'0'
sS'Lost'
p597
S'1'
sS'Drop'
p598
S'0'
sS'Start'
p599
S'3'
sS'Won'
p600
S'2'
sS'GfM'
p601
S'0'
sS'Draw'
p602
S'0'
sS'Mat'
p603
S'3'
sS'Conv'
p604
S'0'
sS'Tries'
p605
S'1'
sS'Pts'
p606
S'3'
sa(dp607
S'Pens'
p608
S'0'
sS'Sub'
p609
S'0'
sS'Lost'
p610
S'3'
sS'Drop'
p611
S'0'
sS'Start'
p612
S'5'
sS'Won'
p613
S'2'
sS'GfM'
p614
S'0'
sS'Draw'
p615
S'0'
sS'Mat'
p616
S'5'
sS'Conv'
p617
S'0'
sS'Tries'
p618
S'0'
sS'Pts'
p619
S'0'
sa(dp620
S'Pens'
p621
S'0'
sS'Sub'
p622
S'0'
sS'Lost'
p623
S'1'
sS'Drop'
p624
S'0'
sS'Start'
p625
S'3'
sS'Won'
p626
S'2'
sS'GfM'
p627
S'0'
sS'Draw'
p628
S'0'
sS'Mat'
p629
S'3'
sS'Conv'
p630
S'0'
sS'Tries'
p631
S'0'
sS'Pts'
p632
S'0'
sa(dp633
S'Pens'
p634
S'2'
sS'Sub'
p635
S'0'
sS'Lost'
p636
S'1'
sS'Drop'
p637
S'0'
sS'Start'
p638
S'2'
sS'Won'
p639
S'1'
sS'GfM'
p640
S'0'
sS'Draw'
p641
S'0'
sS'Mat'
p642
S'2'
sS'Conv'
p643
S'1'
sS'Tries'
p644
S'0'
sS'Pts'
p645
S'8'
sa(dp646
S'Pens'
p647
S'0'
sS'Sub'
p648
S'0'
sS'Lost'
p649
S'1'
sS'Drop'
p650
S'0'
sS'Start'
p651
S'3'
sS'Won'
p652
S'2'
sS'GfM'
p653
S'0'
sS'Draw'
p654
S'0'
sS'Mat'
p655
S'3'
sS'Conv'
p656
S'0'
sS'Tries'
p657
S'1'
sS'Pts'
p658
S'3'
sa(dp659
S'Pens'
p660
S'0'
sS'Sub'
p661
S'0'
sS'Lost'
p662
S'4'
sS'Drop'
p663
S'0'
sS'Start'
p664
S'5'
sS'Won'
p665
S'1'
sS'GfM'
p666
S'0'
sS'Draw'
p667
S'0'
sS'Mat'
p668
S'5'
sS'Conv'
p669
S'0'
sS'Tries'
p670
S'0'
sS'Pts'
p671
S'0'
sa(dp672
S'Pens'
p673
S'0'
sS'Sub'
p674
S'0'
sS'Lost'
p675
S'4'
sS'Drop'
p676
S'0'
sS'Start'
p677
S'5'
sS'Won'
p678
S'1'
sS'GfM'
p679
S'0'
sS'Draw'
p680
S'0'
sS'Mat'
p681
S'5'
sS'Conv'
p682
S'0'
sS'Tries'
p683
S'0'
sS'Pts'
p684
S'0'
sa(dp685
S'Pens'
p686
S'0'
sS'Sub'
p687
S'0'
sS'Lost'
p688
S'0'
sS'Drop'
p689
S'0'
sS'Start'
p690
S'1'
sS'Won'
p691
S'1'
sS'GfM'
p692
S'0'
sS'Draw'
p693
S'0'
sS'Mat'
p694
S'1'
sS'Conv'
p695
S'0'
sS'Tries'
p696
S'0'
sS'Pts'
p697
S'0'
sa(dp698
S'Pens'
p699
S'0'
sS'Sub'
p700
S'0'
sS'Lost'
p701
S'1'
sS'Drop'
p702
S'0'
sS'Start'
p703
S'1'
sS'Won'
p704
S'0'
sS'GfM'
p705
S'0'
sS'Draw'
p706
S'0'
sS'Mat'
p707
S'1'
sS'Conv'
p708
S'0'
sS'Tries'
p709
S'0'
sS'Pts'
p710
S'0'
sa(dp711
S'Pens'
p712
S'0'
sS'Sub'
p713
S'0'
sS'Lost'
p714
S'3'
sS'Drop'
p715
S'0'
sS'Start'
p716
S'3'
sS'Won'
p717
S'0'
sS'GfM'
p718
S'0'
sS'Draw'
p719
S'0'
sS'Mat'
p720
S'3'
sS'Conv'
p721
S'1'
sS'Tries'
p722
S'0'
sS'Pts'
p723
S'2'
sa(dp724
S'Pens'
p725
S'0'
sS'Sub'
p726
S'0'
sS'Lost'
p727
S'3'
sS'Drop'
p728
S'0'
sS'Start'
p729
S'3'
sS'Won'
p730
S'0'
sS'GfM'
p731
S'0'
sS'Draw'
p732
S'0'
sS'Mat'
p733
S'3'
sS'Conv'
p734
S'0'
sS'Tries'
p735
S'0'
sS'Pts'
p736
S'0'
sa(dp737
S'Pens'
p738
S'0'
sS'Sub'
p739
S'0'
sS'Lost'
p740
S'1'
sS'Drop'
p741
S'0'
sS'Start'
p742
S'1'
sS'Won'
p743
S'0'
sS'GfM'
p744
S'0'
sS'Draw'
p745
S'0'
sS'Mat'
p746
S'1'
sS'Conv'
p747
S'0'
sS'Tries'
p748
S'0'
sS'Pts'
p749
S'0'
sa(dp750
S'Pens'
p751
S'0'
sS'Sub'
p752
S'0'
sS'Lost'
p753
S'1'
sS'Drop'
p754
S'0'
sS'Start'
p755
S'1'
sS'Won'
p756
S'0'
sS'GfM'
p757
S'0'
sS'Draw'
p758
S'0'
sS'Mat'
p759
S'1'
sS'Conv'
p760
S'0'
sS'Tries'
p761
S'0'
sS'Pts'
p762
S'0'
sa(dp763
S'Pens'
p764
S'0'
sS'Sub'
p765
S'0'
sS'Lost'
p766
S'5'
sS'Drop'
p767
S'0'
sS'Start'
p768
S'6'
sS'Won'
p769
S'1'
sS'GfM'
p770
S'0'
sS'Draw'
p771
S'0'
sS'Mat'
p772
S'6'
sS'Conv'
p773
S'0'
sS'Tries'
p774
S'0'
sS'Pts'
p775
S'0'
sa(dp776
S'Pens'
p777
S'0'
sS'Sub'
p778
S'0'
sS'Lost'
p779
S'2'
sS'Drop'
p780
S'0'
sS'Start'
p781
S'2'
sS'Won'
p782
S'0'
sS'GfM'
p783
S'0'
sS'Draw'
p784
S'0'
sS'Mat'
p785
S'2'
sS'Conv'
p786
S'0'
sS'Tries'
p787
S'0'
sS'Pts'
p788
S'0'
sa(dp789
S'Pens'
p790
S'0'
sS'Sub'
p791
S'0'
sS'Lost'
p792
S'2'
sS'Drop'
p793
S'0'
sS'Start'
p794
S'2'
sS'Won'
p795
S'0'
sS'GfM'
p796
S'0'
sS'Draw'
p797
S'0'
sS'Mat'
p798
S'2'
sS'Conv'
p799
S'0'
sS'Tries'
p800
S'0'
sS'Pts'
p801
S'0'
sa(dp802
S'Pens'
p803
S'0'
sS'Sub'
p804
S'0'
sS'Lost'
p805
S'2'
sS'Drop'
p806
S'0'
sS'Start'
p807
S'2'
sS'Won'
p808
S'0'
sS'GfM'
p809
S'0'
sS'Draw'
p810
S'0'
sS'Mat'
p811
S'2'
sS'Conv'
p812
S'0'
sS'Tries'
p813
S'0'
sS'Pts'
p814
S'0'
sa(dp815
S'Pens'
p816
S'0'
sS'Sub'
p817
S'0'
sS'Lost'
p818
S'2'
sS'Drop'
p819
S'0'
sS'Start'
p820
S'2'
sS'Won'
p821
S'0'
sS'GfM'
p822
S'0'
sS'Draw'
p823
S'0'
sS'Mat'
p824
S'2'
sS'Conv'
p825
S'0'
sS'Tries'
p826
S'1'
sS'Pts'
p827
S'3'
sa(dp828
S'Pens'
p829
S'0'
sS'Sub'
p830
S'0'
sS'Lost'
p831
S'2'
sS'Drop'
p832
S'0'
sS'Start'
p833
S'3'
sS'Won'
p834
S'1'
sS'GfM'
p835
S'0'
sS'Draw'
p836
S'0'
sS'Mat'
p837
S'3'
sS'Conv'
p838
S'0'
sS'Tries'
p839
S'0'
sS'Pts'
p840
S'0'
sa(dp841
S'Pens'
p842
S'0'
sS'Sub'
p843
S'0'
sS'Lost'
p844
S'2'
sS'Drop'
p845
S'0'
sS'Start'
p846
S'3'
sS'Won'
p847
S'1'
sS'GfM'
p848
S'0'
sS'Draw'
p849
S'0'
sS'Mat'
p850
S'3'
sS'Conv'
p851
S'0'
sS'Tries'
p852
S'0'
sS'Pts'
p853
S'0'
sa(dp854
S'Pens'
p855
S'0'
sS'Sub'
p856
S'0'
sS'Lost'
p857
S'2'
sS'Drop'
p858
S'0'
sS'Start'
p859
S'3'
sS'Won'
p860
S'1'
sS'GfM'
p861
S'0'
sS'Draw'
p862
S'0'
sS'Mat'
p863
S'3'
sS'Conv'
p864
S'0'
sS'Tries'
p865
S'0'
sS'Pts'
p866
S'0'
sa(dp867
S'Pens'
p868
S'0'
sS'Sub'
p869
S'0'
sS'Lost'
p870
S'2'
sS'Drop'
p871
S'0'
sS'Start'
p872
S'3'
sS'Won'
p873
S'1'
sS'GfM'
p874
S'0'
sS'Draw'
p875
S'0'
sS'Mat'
p876
S'3'
sS'Conv'
p877
S'0'
sS'Tries'
p878
S'0'
sS'Pts'
p879
S'0'
sa(dp880
S'Pens'
p881
S'0'
sS'Sub'
p882
S'0'
sS'Lost'
p883
S'2'
sS'Drop'
p884
S'0'
sS'Start'
p885
S'3'
sS'Won'
p886
S'1'
sS'GfM'
p887
S'0'
sS'Draw'
p888
S'0'
sS'Mat'
p889
S'3'
sS'Conv'
p890
S'0'
sS'Tries'
p891
S'0'
sS'Pts'
p892
S'0'
sa(dp893
S'Pens'
p894
S'0'
sS'Sub'
p895
S'0'
sS'Lost'
p896
S'2'
sS'Drop'
p897
S'0'
sS'Start'
p898
S'3'
sS'Won'
p899
S'1'
sS'GfM'
p900
S'0'
sS'Draw'
p901
S'0'
sS'Mat'
p902
S'3'
sS'Conv'
p903
S'0'
sS'Tries'
p904
S'0'
sS'Pts'
p905
S'0'
sa(dp906
S'Pens'
p907
S'0'
sS'Sub'
p908
S'0'
sS'Lost'
p909
S'2'
sS'Drop'
p910
S'0'
sS'Start'
p911
S'3'
sS'Won'
p912
S'1'
sS'GfM'
p913
S'0'
sS'Draw'
p914
S'0'
sS'Mat'
p915
S'3'
sS'Conv'
p916
S'0'
sS'Tries'
p917
S'0'
sS'Pts'
p918
S'0'
sa(dp919
S'Pens'
p920
S'0'
sS'Sub'
p921
S'0'
sS'Lost'
p922
S'2'
sS'Drop'
p923
S'0'
sS'Start'
p924
S'3'
sS'Won'
p925
S'1'
sS'GfM'
p926
S'0'
sS'Draw'
p927
S'0'
sS'Mat'
p928
S'3'
sS'Conv'
p929
S'0'
sS'Tries'
p930
S'0'
sS'Pts'
p931
S'0'
sa(dp932
S'Pens'
p933
S'0'
sS'Sub'
p934
S'0'
sS'Lost'
p935
S'2'
sS'Drop'
p936
S'0'
sS'Start'
p937
S'3'
sS'Won'
p938
S'1'
sS'GfM'
p939
S'0'
sS'Draw'
p940
S'0'
sS'Mat'
p941
S'3'
sS'Conv'
p942
S'0'
sS'Tries'
p943
S'0'
sS'Pts'
p944
S'0'
sa(dp945
S'Pens'
p946
S'0'
sS'Sub'
p947
S'0'
sS'Lost'
p948
S'2'
sS'Drop'
p949
S'0'
sS'Start'
p950
S'3'
sS'Won'
p951
S'1'
sS'GfM'
p952
S'0'
sS'Draw'
p953
S'0'
sS'Mat'
p954
S'3'
sS'Conv'
p955
S'0'
sS'Tries'
p956
S'1'
sS'Pts'
p957
S'3'
sa(dp958
S'Pens'
p959
S'0'
sS'Sub'
p960
S'0'
sS'Lost'
p961
S'2'
sS'Drop'
p962
S'0'
sS'Start'
p963
S'3'
sS'Won'
p964
S'1'
sS'GfM'
p965
S'0'
sS'Draw'
p966
S'0'
sS'Mat'
p967
S'3'
sS'Conv'
p968
S'0'
sS'Tries'
p969
S'1'
sS'Pts'
p970
S'3'
sa(dp971
S'Pens'
p972
S'0'
sS'Sub'
p973
S'0'
sS'Lost'
p974
S'2'
sS'Drop'
p975
S'0'
sS'Start'
p976
S'3'
sS'Won'
p977
S'1'
sS'GfM'
p978
S'0'
sS'Draw'
p979
S'0'
sS'Mat'
p980
S'3'
sS'Conv'
p981
S'0'
sS'Tries'
p982
S'0'
sS'Pts'
p983
S'0'
sa(dp984
S'Pens'
p985
S'0'
sS'Sub'
p986
S'0'
sS'Lost'
p987
S'2'
sS'Drop'
p988
S'0'
sS'Start'
p989
S'3'
sS'Won'
p990
S'1'
sS'GfM'
p991
S'0'
sS'Draw'
p992
S'0'
sS'Mat'
p993
S'3'
sS'Conv'
p994
S'0'
sS'Tries'
p995
S'0'
sS'Pts'
p996
S'0'
sa(dp997
S'Pens'
p998
S'0'
sS'Sub'
p999
S'0'
sS'Lost'
p1000
S'2'
sS'Drop'
p1001
S'0'
sS'Start'
p1002
S'3'
sS'Won'
p1003
S'1'
sS'GfM'
p1004
S'0'
sS'Draw'
p1005
S'0'
sS'Mat'
p1006
S'3'
sS'Conv'
p1007
S'0'
sS'Tries'
p1008
S'0'
sS'Pts'
p1009
S'0'
sa(dp1010
S'Pens'
p1011
S'0'
sS'Sub'
p1012
S'0'
sS'Lost'
p1013
S'2'
sS'Drop'
p1014
S'0'
sS'Start'
p1015
S'2'
sS'Won'
p1016
S'0'
sS'GfM'
p1017
S'0'
sS'Draw'
p1018
S'0'
sS'Mat'
p1019
S'2'
sS'Conv'
p1020
S'0'
sS'Tries'
p1021
S'0'
sS'Pts'
p1022
S'0'
sa(dp1023
S'Pens'
p1024
S'0'
sS'Sub'
p1025
S'0'
sS'Lost'
p1026
S'1'
sS'Drop'
p1027
S'0'
sS'Start'
p1028
S'1'
sS'Won'
p1029
S'0'
sS'GfM'
p1030
S'0'
sS'Draw'
p1031
S'0'
sS'Mat'
p1032
S'1'
sS'Conv'
p1033
S'0'
sS'Tries'
p1034
S'0'
sS'Pts'
p1035
S'0'
sa(dp1036
S'Pens'
p1037
S'0'
sS'Sub'
p1038
S'0'
sS'Lost'
p1039
S'1'
sS'Drop'
p1040
S'0'
sS'Start'
p1041
S'1'
sS'Won'
p1042
S'0'
sS'GfM'
p1043
S'0'
sS'Draw'
p1044
S'0'
sS'Mat'
p1045
S'1'
sS'Conv'
p1046
S'0'
sS'Tries'
p1047
S'0'
sS'Pts'
p1048
S'0'
sa(dp1049
S'Pens'
p1050
S'0'
sS'Sub'
p1051
S'0'
sS'Lost'
p1052
S'1'
sS'Drop'
p1053
S'0'
sS'Start'
p1054
S'1'
sS'Won'
p1055
S'0'
sS'GfM'
p1056
S'0'
sS'Draw'
p1057
S'0'
sS'Mat'
p1058
S'1'
sS'Conv'
p1059
S'0'
sS'Tries'
p1060
S'0'
sS'Pts'
p1061
S'0'
sa(dp1062
S'Pens'
p1063
S'0'
sS'Sub'
p1064
S'0'
sS'Lost'
p1065
S'2'
sS'Drop'
p1066
S'0'
sS'Start'
p1067
S'2'
sS'Won'
p1068
S'0'
sS'GfM'
p1069
S'0'
sS'Draw'
p1070
S'0'
sS'Mat'
p1071
S'2'
sS'Conv'
p1072
S'0'
sS'Tries'
p1073
S'0'
sS'Pts'
p1074
S'0'
sa(dp1075
S'Pens'
p1076
S'1'
sS'Sub'
p1077
S'0'
sS'Lost'
p1078
S'2'
sS'Drop'
p1079
S'0'
sS'Start'
p1080
S'2'
sS'Won'
p1081
S'0'
sS'GfM'
p1082
S'0'
sS'Draw'
p1083
S'0'
sS'Mat'
p1084
S'2'
sS'Conv'
p1085
S'0'
sS'Tries'
p1086
S'0'
sS'Pts'
p1087
S'3'
sa(dp1088
S'Pens'
p1089
S'0'
sS'Sub'
p1090
S'0'
sS'Lost'
p1091
S'1'
sS'Drop'
p1092
S'0'
sS'Start'
p1093
S'1'
sS'Won'
p1094
S'0'
sS'GfM'
p1095
S'0'
sS'Draw'
p1096
S'0'
sS'Mat'
p1097
S'1'
sS'Conv'
p1098
S'0'
sS'Tries'
p1099
S'0'
sS'Pts'
p1100
S'0'
sa(dp1101
S'Pens'
p1102
S'0'
sS'Sub'
p1103
S'0'
sS'Lost'
p1104
S'1'
sS'Drop'
p1105
S'0'
sS'Start'
p1106
S'1'
sS'Won'
p1107
S'0'
sS'GfM'
p1108
S'0'
sS'Draw'
p1109
S'0'
sS'Mat'
p1110
S'1'
sS'Conv'
p1111
S'0'
sS'Tries'
p1112
S'0'
sS'Pts'
p1113
S'0'
sa(dp1114
S'Pens'
p1115
S'0'
sS'Sub'
p1116
S'0'
sS'Lost'
p1117
S'2'
sS'Drop'
p1118
S'0'
sS'Start'
p1119
S'2'
sS'Won'
p1120
S'0'
sS'GfM'
p1121
S'0'
sS'Draw'
p1122
S'0'
sS'Mat'
p1123
S'2'
sS'Conv'
p1124
S'0'
sS'Tries'
p1125
S'0'
sS'Pts'
p1126
S'0'
sa(dp1127
S'Pens'
p1128
S'0'
sS'Sub'
p1129
S'0'
sS'Lost'
p1130
S'1'
sS'Drop'
p1131
S'0'
sS'Start'
p1132
S'1'
sS'Won'
p1133
S'0'
sS'GfM'
p1134
S'0'
sS'Draw'
p1135
S'0'
sS'Mat'
p1136
S'1'
sS'Conv'
p1137
S'0'
sS'Tries'
p1138
S'0'
sS'Pts'
p1139
S'0'
sa(dp1140
S'Pens'
p1141
S'0'
sS'Sub'
p1142
S'0'
sS'Lost'
p1143
S'1'
sS'Drop'
p1144
S'0'
sS'Start'
p1145
S'1'
sS'Won'
p1146
S'0'
sS'GfM'
p1147
S'0'
sS'Draw'
p1148
S'0'
sS'Mat'
p1149
S'1'
sS'Conv'
p1150
S'0'
sS'Tries'
p1151
S'0'
sS'Pts'
p1152
S'0'
sa(dp1153
S'Pens'
p1154
S'0'
sS'Sub'
p1155
S'0'
sS'Lost'
p1156
S'2'
sS'Drop'
p1157
S'0'
sS'Start'
p1158
S'2'
sS'Won'
p1159
S'0'
sS'GfM'
p1160
S'0'
sS'Draw'
p1161
S'0'
sS'Mat'
p1162
S'2'
sS'Conv'
p1163
S'0'
sS'Tries'
p1164
S'0'
sS'Pts'
p1165
S'0'
sa(dp1166
S'Pens'
p1167
S'0'
sS'Sub'
p1168
S'0'
sS'Lost'
p1169
S'2'
sS'Drop'
p1170
S'0'
sS'Start'
p1171
S'2'
sS'Won'
p1172
S'0'
sS'GfM'
p1173
S'0'
sS'Draw'
p1174
S'0'
sS'Mat'
p1175
S'2'
sS'Conv'
p1176
S'0'
sS'Tries'
p1177
S'0'
sS'Pts'
p1178
S'0'
sa(dp1179
S'Pens'
p1180
S'0'
sS'Sub'
p1181
S'0'
sS'Lost'
p1182
S'2'
sS'Drop'
p1183
S'0'
sS'Start'
p1184
S'2'
sS'Won'
p1185
S'0'
sS'GfM'
p1186
S'0'
sS'Draw'
p1187
S'0'
sS'Mat'
p1188
S'2'
sS'Conv'
p1189
S'0'
sS'Tries'
p1190
S'1'
sS'Pts'
p1191
S'3'
sa(dp1192
S'Pens'
p1193
S'0'
sS'Sub'
p1194
S'0'
sS'Lost'
p1195
S'1'
sS'Drop'
p1196
S'1'
sS'Start'
p1197
S'1'
sS'Won'
p1198
S'0'
sS'GfM'
p1199
S'0'
sS'Draw'
p1200
S'0'
sS'Mat'
p1201
S'1'
sS'Conv'
p1202
S'0'
sS'Tries'
p1203
S'0'
sS'Pts'
p1204
S'4'
sa(dp1205
S'Pens'
p1206
S'0'
sS'Sub'
p1207
S'0'
sS'Lost'
p1208
S'1'
sS'Drop'
p1209
S'0'
sS'Start'
p1210
S'1'
sS'Won'
p1211
S'0'
sS'GfM'
p1212
S'0'
sS'Draw'
p1213
S'0'
sS'Mat'
p1214
S'1'
sS'Conv'
p1215
S'0'
sS'Tries'
p1216
S'1'
sS'Pts'
p1217
S'3'
sa(dp1218
S'Pens'
p1219
S'0'
sS'Sub'
p1220
S'0'
sS'Lost'
p1221
S'1'
sS'Drop'
p1222
S'0'
sS'Start'
p1223
S'1'
sS'Won'
p1224
S'0'
sS'GfM'
p1225
S'0'
sS'Draw'
p1226
S'0'
sS'Mat'
p1227
S'1'
sS'Conv'
p1228
S'0'
sS'Tries'
p1229
S'0'
sS'Pts'
p1230
S'0'
sa(dp1231
S'Pens'
p1232
S'0'
sS'Sub'
p1233
S'0'
sS'Lost'
p1234
S'2'
sS'Drop'
p1235
S'0'
sS'Start'
p1236
S'3'
sS'Won'
p1237
S'1'
sS'GfM'
p1238
S'0'
sS'Draw'
p1239
S'0'
sS'Mat'
p1240
S'3'
sS'Conv'
p1241
S'0'
sS'Tries'
p1242
S'0'
sS'Pts'
p1243
S'0'
sa(dp1244
S'Pens'
p1245
S'0'
sS'Sub'
p1246
S'0'
sS'Lost'
p1247
S'2'
sS'Drop'
p1248
S'0'
sS'Start'
p1249
S'3'
sS'Won'
p1250
S'1'
sS'GfM'
p1251
S'0'
sS'Draw'
p1252
S'0'
sS'Mat'
p1253
S'3'
sS'Conv'
p1254
S'0'
sS'Tries'
p1255
S'0'
sS'Pts'
p1256
S'0'
sa(dp1257
S'Pens'
p1258
S'0'
sS'Sub'
p1259
S'0'
sS'Lost'
p1260
S'2'
sS'Drop'
p1261
S'0'
sS'Start'
p1262
S'3'
sS'Won'
p1263
S'1'
sS'GfM'
p1264
S'0'
sS'Draw'
p1265
S'0'
sS'Mat'
p1266
S'3'
sS'Conv'
p1267
S'0'
sS'Tries'
p1268
S'0'
sS'Pts'
p1269
S'0'
sa(dp1270
S'Pens'
p1271
S'1'
sS'Sub'
p1272
S'0'
sS'Lost'
p1273
S'4'
sS'Drop'
p1274
S'0'
sS'Start'
p1275
S'7'
sS'Won'
p1276
S'3'
sS'GfM'
p1277
S'0'
sS'Draw'
p1278
S'0'
sS'Mat'
p1279
S'7'
sS'Conv'
p1280
S'2'
sS'Tries'
p1281
S'0'
sS'Pts'
p1282
S'7'
sa(dp1283
S'Pens'
p1284
S'0'
sS'Sub'
p1285
S'0'
sS'Lost'
p1286
S'5'
sS'Drop'
p1287
S'0'
sS'Start'
p1288
S'9'
sS'Won'
p1289
S'4'
sS'GfM'
p1290
S'0'
sS'Draw'
p1291
S'0'
sS'Mat'
p1292
S'9'
sS'Conv'
p1293
S'0'
sS'Tries'
p1294
S'0'
sS'Pts'
p1295
S'0'
sa(dp1296
S'Pens'
p1297
S'0'
sS'Sub'
p1298
S'0'
sS'Lost'
p1299
S'4'
sS'Drop'
p1300
S'0'
sS'Start'
p1301
S'7'
sS'Won'
p1302
S'3'
sS'GfM'
p1303
S'0'
sS'Draw'
p1304
S'0'
sS'Mat'
p1305
S'7'
sS'Conv'
p1306
S'0'
sS'Tries'
p1307
S'1'
sS'Pts'
p1308
S'3'
sa(dp1309
S'Pens'
p1310
S'0'
sS'Sub'
p1311
S'0'
sS'Lost'
p1312
S'4'
sS'Drop'
p1313
S'0'
sS'Start'
p1314
S'7'
sS'Won'
p1315
S'3'
sS'GfM'
p1316
S'0'
sS'Draw'
p1317
S'0'
sS'Mat'
p1318
S'7'
sS'Conv'
p1319
S'0'
sS'Tries'
p1320
S'0'
sS'Pts'
p1321
S'0'
sa(dp1322
S'Pens'
p1323
S'0'
sS'Sub'
p1324
S'0'
sS'Lost'
p1325
S'2'
sS'Drop'
p1326
S'0'
sS'Start'
p1327
S'3'
sS'Won'
p1328
S'1'
sS'GfM'
p1329
S'0'
sS'Draw'
p1330
S'0'
sS'Mat'
p1331
S'3'
sS'Conv'
p1332
S'0'
sS'Tries'
p1333
S'0'
sS'Pts'
p1334
S'0'
sa(dp1335
S'Pens'
p1336
S'0'
sS'Sub'
p1337
S'0'
sS'Lost'
p1338
S'2'
sS'Drop'
p1339
S'0'
sS'Start'
p1340
S'4'
sS'Won'
p1341
S'2'
sS'GfM'
p1342
S'0'
sS'Draw'
p1343
S'0'
sS'Mat'
p1344
S'4'
sS'Conv'
p1345
S'0'
sS'Tries'
p1346
S'1'
sS'Pts'
p1347
S'3'
sa(dp1348
S'Pens'
p1349
S'0'
sS'Sub'
p1350
S'0'
sS'Lost'
p1351
S'2'
sS'Drop'
p1352
S'0'
sS'Start'
p1353
S'3'
sS'Won'
p1354
S'1'
sS'GfM'
p1355
S'0'
sS'Draw'
p1356
S'0'
sS'Mat'
p1357
S'3'
sS'Conv'
p1358
S'0'
sS'Tries'
p1359
S'0'
sS'Pts'
p1360
S'0'
sa(dp1361
S'Pens'
p1362
S'0'
sS'Sub'
p1363
S'0'
sS'Lost'
p1364
S'7'
sS'Drop'
p1365
S'0'
sS'Start'
p1366
S'13'
p1367
sS'Won'
p1368
S'5'
sS'GfM'
p1369
S'0'
sS'Draw'
p1370
S'1'
sS'Mat'
p1371
S'13'
p1372
sS'Conv'
p1373
S'0'
sS'Tries'
p1374
S'1'
sS'Pts'
p1375
S'3'
sa(dp1376
S'Pens'
p1377
S'0'
sS'Sub'
p1378
S'0'
sS'Lost'
p1379
S'2'
sS'Drop'
p1380
S'0'
sS'Start'
p1381
S'3'
sS'Won'
p1382
S'1'
sS'GfM'
p1383
S'0'
sS'Draw'
p1384
S'0'
sS'Mat'
p1385
S'3'
sS'Conv'
p1386
S'0'
sS'Tries'
p1387
S'0'
sS'Pts'
p1388
S'0'
sa(dp1389
S'Pens'
p1390
S'0'
sS'Sub'
p1391
S'0'
sS'Lost'
p1392
S'2'
sS'Drop'
p1393
S'0'
sS'Start'
p1394
S'3'
sS'Won'
p1395
S'1'
sS'GfM'
p1396
S'0'
sS'Draw'
p1397
S'0'
sS'Mat'
p1398
S'3'
sS'Conv'
p1399
S'0'
sS'Tries'
p1400
S'0'
sS'Pts'
p1401
S'0'
sa(dp1402
S'Pens'
p1403
S'1'
sS'Sub'
p1404
S'0'
sS'Lost'
p1405
S'4'
sS'Drop'
p1406
S'0'
sS'Start'
p1407
S'6'
sS'Won'
p1408
S'2'
sS'GfM'
p1409
S'0'
sS'Draw'
p1410
S'0'
sS'Mat'
p1411
S'6'
sS'Conv'
p1412
S'1'
sS'Tries'
p1413
S'0'
sS'Pts'
p1414
S'5'
sa(dp1415
S'Pens'
p1416
S'0'
sS'Sub'
p1417
S'0'
sS'Lost'
p1418
S'3'
sS'Drop'
p1419
S'0'
sS'Start'
p1420
S'5'
sS'Won'
p1421
S'2'
sS'GfM'
p1422
S'0'
sS'Draw'
p1423
S'0'
sS'Mat'
p1424
S'5'
sS'Conv'
p1425
S'0'
sS'Tries'
p1426
S'0'
sS'Pts'
p1427
S'0'
sa(dp1428
S'Pens'
p1429
S'0'
sS'Sub'
p1430
S'0'
sS'Lost'
p1431
S'1'
sS'Drop'
p1432
S'0'
sS'Start'
p1433
S'2'
sS'Won'
p1434
S'1'
sS'GfM'
p1435
S'0'
sS'Draw'
p1436
S'0'
sS'Mat'
p1437
S'2'
sS'Conv'
p1438
S'0'
sS'Tries'
p1439
S'0'
sS'Pts'
p1440
S'0'
sa(dp1441
S'Pens'
p1442
S'0'
sS'Sub'
p1443
S'0'
sS'Lost'
p1444
S'1'
sS'Drop'
p1445
S'0'
sS'Start'
p1446
S'3'
sS'Won'
p1447
S'2'
sS'GfM'
p1448
S'0'
sS'Draw'
p1449
S'0'
sS'Mat'
p1450
S'3'
sS'Conv'
p1451
S'0'
sS'Tries'
p1452
S'0'
sS'Pts'
p1453
S'0'
sa(dp1454
S'Pens'
p1455
S'0'
sS'Sub'
p1456
S'0'
sS'Lost'
p1457
S'3'
sS'Drop'
p1458
S'0'
sS'Start'
p1459
S'6'
sS'Won'
p1460
S'2'
sS'GfM'
p1461
S'0'
sS'Draw'
p1462
S'1'
sS'Mat'
p1463
S'6'
sS'Conv'
p1464
S'0'
sS'Tries'
p1465
S'0'
sS'Pts'
p1466
S'0'
sa(dp1467
S'Pens'
p1468
S'0'
sS'Sub'
p1469
S'0'
sS'Lost'
p1470
S'2'
sS'Drop'
p1471
S'0'
sS'Start'
p1472
S'4'
sS'Won'
p1473
S'2'
sS'GfM'
p1474
S'0'
sS'Draw'
p1475
S'0'
sS'Mat'
p1476
S'4'
sS'Conv'
p1477
S'0'
sS'Tries'
p1478
S'0'
sS'Pts'
p1479
S'0'
sa(dp1480
S'Pens'
p1481
S'0'
sS'Sub'
p1482
S'0'
sS'Lost'
p1483
S'2'
sS'Drop'
p1484
S'0'
sS'Start'
p1485
S'4'
sS'Won'
p1486
S'2'
sS'GfM'
p1487
S'0'
sS'Draw'
p1488
S'0'
sS'Mat'
p1489
S'4'
sS'Conv'
p1490
S'0'
sS'Tries'
p1491
S'1'
sS'Pts'
p1492
S'3'
sa(dp1493
S'Pens'
p1494
S'0'
sS'Sub'
p1495
S'0'
sS'Lost'
p1496
S'0'
sS'Drop'
p1497
S'0'
sS'Start'
p1498
S'2'
sS'Won'
p1499
S'2'
sS'GfM'
p1500
S'0'
sS'Draw'
p1501
S'0'
sS'Mat'
p1502
S'2'
sS'Conv'
p1503
S'1'
sS'Tries'
p1504
S'0'
sS'Pts'
p1505
S'2'
sa(dp1506
S'Pens'
p1507
S'0'
sS'Sub'
p1508
S'1'
sS'Lost'
p1509
S'0'
sS'Drop'
p1510
S'0'
sS'Start'
p1511
S'1'
sS'Won'
p1512
S'2'
sS'GfM'
p1513
S'0'
sS'Draw'
p1514
S'0'
sS'Mat'
p1515
S'2'
sS'Conv'
p1516
S'0'
sS'Tries'
p1517
S'0'
sS'Pts'
p1518
S'0'
sa(dp1519
S'Pens'
p1520
S'0'
sS'Sub'
p1521
S'0'
sS'Lost'
p1522
S'0'
sS'Drop'
p1523
S'0'
sS'Start'
p1524
S'1'
sS'Won'
p1525
S'1'
sS'GfM'
p1526
S'0'
sS'Draw'
p1527
S'0'
sS'Mat'
p1528
S'1'
sS'Conv'
p1529
S'0'
sS'Tries'
p1530
S'2'
sS'Pts'
p1531
S'6'
sa(dp1532
S'Pens'
p1533
S'0'
sS'Sub'
p1534
S'0'
sS'Lost'
p1535
S'2'
sS'Drop'
p1536
S'0'
sS'Start'
p1537
S'3'
sS'Won'
p1538
S'1'
sS'GfM'
p1539
S'0'
sS'Draw'
p1540
S'0'
sS'Mat'
p1541
S'3'
sS'Conv'
p1542
S'0'
sS'Tries'
p1543
S'1'
sS'Pts'
p1544
S'3'
sa(dp1545
S'Pens'
p1546
S'0'
sS'Sub'
p1547
S'0'
sS'Lost'
p1548
S'1'
sS'Drop'
p1549
S'0'
sS'Start'
p1550
S'1'
sS'Won'
p1551
S'0'
sS'GfM'
p1552
S'0'
sS'Draw'
p1553
S'0'
sS'Mat'
p1554
S'1'
sS'Conv'
p1555
S'0'
sS'Tries'
p1556
S'0'
sS'Pts'
p1557
S'0'
sa(dp1558
S'Pens'
p1559
S'0'
sS'Sub'
p1560
S'0'
sS'Lost'
p1561
S'7'
sS'Drop'
p1562
S'0'
sS'Start'
p1563
S'11'
p1564
sS'Won'
p1565
S'3'
sS'GfM'
p1566
S'0'
sS'Draw'
p1567
S'1'
sS'Mat'
p1568
S'11'
p1569
sS'Conv'
p1570
S'0'
sS'Tries'
p1571
S'0'
sS'Pts'
p1572
S'0'
sa(dp1573
S'Pens'
p1574
S'0'
sS'Sub'
p1575
S'0'
sS'Lost'
p1576
S'5'
sS'Drop'
p1577
S'0'
sS'Start'
p1578
S'10'
p1579
sS'Won'
p1580
S'4'
sS'GfM'
p1581
S'0'
sS'Draw'
p1582
S'1'
sS'Mat'
p1583
S'10'
p1584
sS'Conv'
p1585
S'0'
sS'Tries'
p1586
S'2'
sS'Pts'
p1587
S'6'
sa(dp1588
S'Pens'
p1589
S'0'
sS'Sub'
p1590
S'0'
sS'Lost'
p1591
S'1'
sS'Drop'
p1592
S'0'
sS'Start'
p1593
S'1'
sS'Won'
p1594
S'0'
sS'GfM'
p1595
S'0'
sS'Draw'
p1596
S'0'
sS'Mat'
p1597
S'1'
sS'Conv'
p1598
S'0'
sS'Tries'
p1599
S'0'
sS'Pts'
p1600
S'0'
sa(dp1601
S'Pens'
p1602
S'0'
sS'Sub'
p1603
S'0'
sS'Lost'
p1604
S'3'
sS'Drop'
p1605
S'0'
sS'Start'
p1606
S'4'
sS'Won'
p1607
S'1'
sS'GfM'
p1608
S'0'
sS'Draw'
p1609
S'0'
sS'Mat'
p1610
S'4'
sS'Conv'
p1611
S'0'
sS'Tries'
p1612
S'1'
sS'Pts'
p1613
S'3'
sa(dp1614
S'Pens'
p1615
S'0'
sS'Sub'
p1616
S'0'
sS'Lost'
p1617
S'1'
sS'Drop'
p1618
S'0'
sS'Start'
p1619
S'1'
sS'Won'
p1620
S'0'
sS'GfM'
p1621
S'0'
sS'Draw'
p1622
S'0'
sS'Mat'
p1623
S'1'
sS'Conv'
p1624
S'0'
sS'Tries'
p1625
S'0'
sS'Pts'
p1626
S'0'
sa(dp1627
S'Pens'
p1628
S'0'
sS'Sub'
p1629
S'0'
sS'Lost'
p1630
S'1'
sS'Drop'
p1631
S'0'
sS'Start'
p1632
S'1'
sS'Won'
p1633
S'0'
sS'GfM'
p1634
S'0'
sS'Draw'
p1635
S'0'
sS'Mat'
p1636
S'1'
sS'Conv'
p1637
S'0'
sS'Tries'
p1638
S'0'
sS'Pts'
p1639
S'0'
sa(dp1640
S'Pens'
p1641
S'0'
sS'Sub'
p1642
S'0'
sS'Lost'
p1643
S'1'
sS'Drop'
p1644
S'0'
sS'Start'
p1645
S'1'
sS'Won'
p1646
S'0'
sS'GfM'
p1647
S'0'
sS'Draw'
p1648
S'0'
sS'Mat'
p1649
S'1'
sS'Conv'
p1650
S'0'
sS'Tries'
p1651
S'0'
sS'Pts'
p1652
S'0'
sa(dp1653
S'Pens'
p1654
S'0'
sS'Sub'
p1655
S'0'
sS'Lost'
p1656
S'1'
sS'Drop'
p1657
S'0'
sS'Start'
p1658
S'1'
sS'Won'
p1659
S'0'
sS'GfM'
p1660
S'0'
sS'Draw'
p1661
S'0'
sS'Mat'
p1662
S'1'
sS'Conv'
p1663
S'0'
sS'Tries'
p1664
S'0'
sS'Pts'
p1665
S'0'
sa(dp1666
S'Pens'
p1667
S'0'
sS'Sub'
p1668
S'0'
sS'Lost'
p1669
S'2'
sS'Drop'
p1670
S'0'
sS'Start'
p1671
S'2'
sS'Won'
p1672
S'0'
sS'GfM'
p1673
S'0'
sS'Draw'
p1674
S'0'
sS'Mat'
p1675
S'2'
sS'Conv'
p1676
S'0'
sS'Tries'
p1677
S'1'
sS'Pts'
p1678
S'3'
sa(dp1679
S'Pens'
p1680
S'0'
sS'Sub'
p1681
S'0'
sS'Lost'
p1682
S'7'
sS'Drop'
p1683
S'0'
sS'Start'
p1684
S'11'
p1685
sS'Won'
p1686
S'3'
sS'GfM'
p1687
S'0'
sS'Draw'
p1688
S'1'
sS'Mat'
p1689
S'11'
p1690
sS'Conv'
p1691
S'0'
sS'Tries'
p1692
S'3'
sS'Pts'
p1693
S'10'
p1694
sa(dp1695
S'Pens'
p1696
S'1'
sS'Sub'
p1697
S'0'
sS'Lost'
p1698
S'7'
sS'Drop'
p1699
S'0'
sS'Start'
p1700
S'12'
p1701
sS'Won'
p1702
S'4'
sS'GfM'
p1703
S'0'
sS'Draw'
p1704
S'1'
sS'Mat'
p1705
S'12'
p1706
sS'Conv'
p1707
S'0'
sS'Tries'
p1708
S'2'
sS'Pts'
p1709
S'10'
p1710
sa(dp1711
S'Pens'
p1712
S'0'
sS'Sub'
p1713
S'0'
sS'Lost'
p1714
S'2'
sS'Drop'
p1715
S'0'
sS'Start'
p1716
S'3'
sS'Won'
p1717
S'0'
sS'GfM'
p1718
S'0'
sS'Draw'
p1719
S'1'
sS'Mat'
p1720
S'3'
sS'Conv'
p1721
S'0'
sS'Tries'
p1722
S'0'
sS'Pts'
p1723
S'0'
sa(dp1724
S'Pens'
p1725
S'0'
sS'Sub'
p1726
S'0'
sS'Lost'
p1727
S'4'
sS'Drop'
p1728
S'0'
sS'Start'
p1729
S'6'
sS'Won'
p1730
S'1'
sS'GfM'
p1731
S'0'
sS'Draw'
p1732
S'1'
sS'Mat'
p1733
S'6'
sS'Conv'
p1734
S'0'
sS'Tries'
p1735
S'0'
sS'Pts'
p1736
S'0'
sa(dp1737
S'Pens'
p1738
S'0'
sS'Sub'
p1739
S'0'
sS'Lost'
p1740
S'2'
sS'Drop'
p1741
S'0'
sS'Start'
p1742
S'2'
sS'Won'
p1743
S'0'
sS'GfM'
p1744
S'0'
sS'Draw'
p1745
S'0'
sS'Mat'
p1746
S'2'
sS'Conv'
p1747
S'0'
sS'Tries'
p1748
S'0'
sS'Pts'
p1749
S'0'
sa(dp1750
S'Pens'
p1751
S'0'
sS'Sub'
p1752
S'0'
sS'Lost'
p1753
S'1'
sS'Drop'
p1754
S'0'
sS'Start'
p1755
S'2'
sS'Won'
p1756
S'0'
sS'GfM'
p1757
S'0'
sS'Draw'
p1758
S'1'
sS'Mat'
p1759
S'2'
sS'Conv'
p1760
S'0'
sS'Tries'
p1761
S'0'
sS'Pts'
p1762
S'0'
sa(dp1763
S'Pens'
p1764
S'4'
sS'Sub'
p1765
S'0'
sS'Lost'
p1766
S'4'
sS'Drop'
p1767
S'0'
sS'Start'
p1768
S'9'
sS'Won'
p1769
S'4'
sS'GfM'
p1770
S'0'
sS'Draw'
p1771
S'1'
sS'Mat'
p1772
S'9'
sS'Conv'
p1773
S'2'
sS'Tries'
p1774
S'0'
sS'Pts'
p1775
S'16'
p1776
sa(dp1777
S'Pens'
p1778
S'0'
sS'Sub'
p1779
S'0'
sS'Lost'
p1780
S'1'
sS'Drop'
p1781
S'0'
sS'Start'
p1782
S'1'
sS'Won'
p1783
S'0'
sS'GfM'
p1784
S'0'
sS'Draw'
p1785
S'0'
sS'Mat'
p1786
S'1'
sS'Conv'
p1787
S'0'
sS'Tries'
p1788
S'0'
sS'Pts'
p1789
S'0'
sa(dp1790
S'Pens'
p1791
S'0'
sS'Sub'
p1792
S'0'
sS'Lost'
p1793
S'3'
sS'Drop'
p1794
S'0'
sS'Start'
p1795
S'5'
sS'Won'
p1796
S'1'
sS'GfM'
p1797
S'0'
sS'Draw'
p1798
S'1'
sS'Mat'
p1799
S'5'
sS'Conv'
p1800
S'0'
sS'Tries'
p1801
S'2'
sS'Pts'
p1802
S'6'
sa(dp1803
S'Pens'
p1804
S'0'
sS'Sub'
p1805
S'0'
sS'Lost'
p1806
S'1'
sS'Drop'
p1807
S'0'
sS'Start'
p1808
S'2'
sS'Won'
p1809
S'0'
sS'GfM'
p1810
S'0'
sS'Draw'
p1811
S'1'
sS'Mat'
p1812
S'2'
sS'Conv'
p1813
S'0'
sS'Tries'
p1814
S'0'
sS'Pts'
p1815
S'0'
sa(dp1816
S'Pens'
p1817
S'0'
sS'Sub'
p1818
S'0'
sS'Lost'
p1819
S'0'
sS'Drop'
p1820
S'0'
sS'Start'
p1821
S'1'
sS'Won'
p1822
S'0'
sS'GfM'
p1823
S'0'
sS'Draw'
p1824
S'1'
sS'Mat'
p1825
S'1'
sS'Conv'
p1826
S'0'
sS'Tries'
p1827
S'0'
sS'Pts'
p1828
S'0'
sa(dp1829
S'Pens'
p1830
S'0'
sS'Sub'
p1831
S'0'
sS'Lost'
p1832
S'0'
sS'Drop'
p1833
S'0'
sS'Start'
p1834
S'1'
sS'Won'
p1835
S'0'
sS'GfM'
p1836
S'0'
sS'Draw'
p1837
S'1'
sS'Mat'
p1838
S'1'
sS'Conv'
p1839
S'0'
sS'Tries'
p1840
S'0'
sS'Pts'
p1841
S'0'
sa(dp1842
S'Pens'
p1843
S'0'
sS'Sub'
p1844
S'0'
sS'Lost'
p1845
S'4'
sS'Drop'
p1846
S'0'
sS'Start'
p1847
S'8'
sS'Won'
p1848
S'3'
sS'GfM'
p1849
S'0'
sS'Draw'
p1850
S'1'
sS'Mat'
p1851
S'8'
sS'Conv'
p1852
S'0'
sS'Tries'
p1853
S'1'
sS'Pts'
p1854
S'3'
sa(dp1855
S'Pens'
p1856
S'0'
sS'Sub'
p1857
S'0'
sS'Lost'
p1858
S'3'
sS'Drop'
p1859
S'0'
sS'Start'
p1860
S'5'
sS'Won'
p1861
S'2'
sS'GfM'
p1862
S'0'
sS'Draw'
p1863
S'0'
sS'Mat'
p1864
S'5'
sS'Conv'
p1865
S'0'
sS'Tries'
p1866
S'0'
sS'Pts'
p1867
S'0'
sa(dp1868
S'Pens'
p1869
S'0'
sS'Sub'
p1870
S'1'
sS'Lost'
p1871
S'8'
sS'Drop'
p1872
S'0'
sS'Start'
p1873
S'13'
p1874
sS'Won'
p1875
S'6'
sS'GfM'
p1876
S'0'
sS'Draw'
p1877
S'0'
sS'Mat'
p1878
S'14'
p1879
sS'Conv'
p1880
S'0'
sS'Tries'
p1881
S'3'
sS'Pts'
p1882
S'10'
p1883
sa(dp1884
S'Pens'
p1885
S'0'
sS'Sub'
p1886
S'1'
sS'Lost'
p1887
S'2'
sS'Drop'
p1888
S'0'
sS'Start'
p1889
S'2'
sS'Won'
p1890
S'1'
sS'GfM'
p1891
S'0'
sS'Draw'
p1892
S'0'
sS'Mat'
p1893
S'3'
sS'Conv'
p1894
S'0'
sS'Tries'
p1895
S'0'
sS'Pts'
p1896
S'0'
sa(dp1897
S'Pens'
p1898
S'0'
sS'Sub'
p1899
S'0'
sS'Lost'
p1900
S'1'
sS'Drop'
p1901
S'0'
sS'Start'
p1902
S'1'
sS'Won'
p1903
S'0'
sS'GfM'
p1904
S'0'
sS'Draw'
p1905
S'0'
sS'Mat'
p1906
S'1'
sS'Conv'
p1907
S'0'
sS'Tries'
p1908
S'0'
sS'Pts'
p1909
S'0'
sa(dp1910
S'Pens'
p1911
S'0'
sS'Sub'
p1912
S'0'
sS'Lost'
p1913
S'2'
sS'Drop'
p1914
S'0'
sS'Start'
p1915
S'5'
sS'Won'
p1916
S'3'
sS'GfM'
p1917
S'0'
sS'Draw'
p1918
S'0'
sS'Mat'
p1919
S'5'
sS'Conv'
p1920
S'0'
sS'Tries'
p1921
S'2'
sS'Pts'
p1922
S'6'
sa(dp1923
S'Pens'
p1924
S'0'
sS'Sub'
p1925
S'0'
sS'Lost'
p1926
S'2'
sS'Drop'
p1927
S'0'
sS'Start'
p1928
S'4'
sS'Won'
p1929
S'2'
sS'GfM'
p1930
S'0'
sS'Draw'
p1931
S'0'
sS'Mat'
p1932
S'4'
sS'Conv'
p1933
S'0'
sS'Tries'
p1934
S'1'
sS'Pts'
p1935
S'3'
sa(dp1936
S'Pens'
p1937
S'3'
sS'Sub'
p1938
S'0'
sS'Lost'
p1939
S'2'
sS'Drop'
p1940
S'0'
sS'Start'
p1941
S'5'
sS'Won'
p1942
S'3'
sS'GfM'
p1943
S'0'
sS'Draw'
p1944
S'0'
sS'Mat'
p1945
S'5'
sS'Conv'
p1946
S'7'
sS'Tries'
p1947
S'0'
sS'Pts'
p1948
S'23'
p1949
sa(dp1950
S'Pens'
p1951
S'0'
sS'Sub'
p1952
S'1'
sS'Lost'
p1953
S'4'
sS'Drop'
p1954
S'0'
sS'Start'
p1955
S'4'
sS'Won'
p1956
S'1'
sS'GfM'
p1957
S'0'
sS'Draw'
p1958
S'0'
sS'Mat'
p1959
S'5'
sS'Conv'
p1960
S'0'
sS'Tries'
p1961
S'0'
sS'Pts'
p1962
S'0'
sa(dp1963
S'Pens'
p1964
S'0'
sS'Sub'
p1965
S'1'
sS'Lost'
p1966
S'1'
sS'Drop'
p1967
S'0'
sS'Start'
p1968
S'0'
sS'Won'
p1969
S'0'
sS'GfM'
p1970
S'0'
sS'Draw'
p1971
S'0'
sS'Mat'
p1972
S'1'
sS'Conv'
p1973
S'0'
sS'Tries'
p1974
S'0'
sS'Pts'
p1975
S'0'
sa(dp1976
S'Pens'
p1977
S'5'
sS'Sub'
p1978
S'0'
sS'Lost'
p1979
S'9'
sS'Drop'
p1980
S'0'
sS'Start'
p1981
S'14'
p1982
sS'Won'
p1983
S'5'
sS'GfM'
p1984
S'0'
sS'Draw'
p1985
S'0'
sS'Mat'
p1986
S'14'
p1987
sS'Conv'
p1988
S'1'
sS'Tries'
p1989
S'3'
sS'Pts'
p1990
S'29'
p1991
sa(dp1992
S'Pens'
p1993
S'0'
sS'Sub'
p1994
S'0'
sS'Lost'
p1995
S'1'
sS'Drop'
p1996
S'0'
sS'Start'
p1997
S'3'
sS'Won'
p1998
S'2'
sS'GfM'
p1999
S'0'
sS'Draw'
p2000
S'0'
sS'Mat'
p2001
S'3'
sS'Conv'
p2002
S'0'
sS'Tries'
p2003
S'0'
sS'Pts'
p2004
S'0'
sa(dp2005
S'Pens'
p2006
S'0'
sS'Sub'
p2007
S'0'
sS'Lost'
p2008
S'1'
sS'Drop'
p2009
S'0'
sS'Start'
p2010
S'2'
sS'Won'
p2011
S'1'
sS'GfM'
p2012
S'0'
sS'Draw'
p2013
S'0'
sS'Mat'
p2014
S'2'
sS'Conv'
p2015
S'0'
sS'Tries'
p2016
S'0'
sS'Pts'
p2017
S'0'
sa(dp2018
S'Pens'
p2019
S'0'
sS'Sub'
p2020
S'0'
sS'Lost'
p2021
S'0'
sS'Drop'
p2022
S'0'
sS'Start'
p2023
S'2'
sS'Won'
p2024
S'2'
sS'GfM'
p2025
S'0'
sS'Draw'
p2026
S'0'
sS'Mat'
p2027
S'2'
sS'Conv'
p2028
S'0'
sS'Tries'
p2029
S'0'
sS'Pts'
p2030
S'0'
sa(dp2031
S'Pens'
p2032
S'0'
sS'Sub'
p2033
S'1'
sS'Lost'
p2034
S'1'
sS'Drop'
p2035
S'0'
sS'Start'
p2036
S'1'
sS'Won'
p2037
S'1'
sS'GfM'
p2038
S'0'
sS'Draw'
p2039
S'0'
sS'Mat'
p2040
S'2'
sS'Conv'
p2041
S'0'
sS'Tries'
p2042
S'0'
sS'Pts'
p2043
S'0'
sa(dp2044
S'Pens'
p2045
S'0'
sS'Sub'
p2046
S'0'
sS'Lost'
p2047
S'8'
sS'Drop'
p2048
S'0'
sS'Start'
p2049
S'12'
p2050
sS'Won'
p2051
S'4'
sS'GfM'
p2052
S'0'
sS'Draw'
p2053
S'0'
sS'Mat'
p2054
S'12'
p2055
sS'Conv'
p2056
S'0'
sS'Tries'
p2057
S'4'
sS'Pts'
p2058
S'14'
p2059
sa(dp2060
S'Pens'
p2061
S'0'
sS'Sub'
p2062
S'0'
sS'Lost'
p2063
S'7'
sS'Drop'
p2064
S'0'
sS'Start'
p2065
S'10'
p2066
sS'Won'
p2067
S'3'
sS'GfM'
p2068
S'0'
sS'Draw'
p2069
S'0'
sS'Mat'
p2070
S'10'
p2071
sS'Conv'
p2072
S'0'
sS'Tries'
p2073
S'3'
sS'Pts'
p2074
S'12'
p2075
sa(dp2076
S'Pens'
p2077
S'0'
sS'Sub'
p2078
S'0'
sS'Lost'
p2079
S'1'
sS'Drop'
p2080
S'0'
sS'Start'
p2081
S'1'
sS'Won'
p2082
S'0'
sS'GfM'
p2083
S'0'
sS'Draw'
p2084
S'0'
sS'Mat'
p2085
S'1'
sS'Conv'
p2086
S'0'
sS'Tries'
p2087
S'0'
sS'Pts'
p2088
S'0'
sa(dp2089
S'Pens'
p2090
S'0'
sS'Sub'
p2091
S'0'
sS'Lost'
p2092
S'1'
sS'Drop'
p2093
S'0'
sS'Start'
p2094
S'1'
sS'Won'
p2095
S'0'
sS'GfM'
p2096
S'0'
sS'Draw'
p2097
S'0'
sS'Mat'
p2098
S'1'
sS'Conv'
p2099
S'0'
sS'Tries'
p2100
S'0'
sS'Pts'
p2101
S'0'
sa(dp2102
S'Pens'
p2103
S'0'
sS'Sub'
p2104
S'0'
sS'Lost'
p2105
S'1'
sS'Drop'
p2106
S'0'
sS'Start'
p2107
S'1'
sS'Won'
p2108
S'0'
sS'GfM'
p2109
S'0'
sS'Draw'
p2110
S'0'
sS'Mat'
p2111
S'1'
sS'Conv'
p2112
S'1'
sS'Tries'
p2113
S'0'
sS'Pts'
p2114
S'2'
sa(dp2115
S'Pens'
p2116
S'0'
sS'Sub'
p2117
S'0'
sS'Lost'
p2118
S'11'
p2119
sS'Drop'
p2120
S'0'
sS'Start'
p2121
S'14'
p2122
sS'Won'
p2123
S'3'
sS'GfM'
p2124
S'0'
sS'Draw'
p2125
S'0'
sS'Mat'
p2126
S'14'
p2127
sS'Conv'
p2128
S'0'
sS'Tries'
p2129
S'1'
sS'Pts'
p2130
S'4'
sa(dp2131
S'Pens'
p2132
S'0'
sS'Sub'
p2133
S'1'
sS'Lost'
p2134
S'5'
sS'Drop'
p2135
S'0'
sS'Start'
p2136
S'5'
sS'Won'
p2137
S'1'
sS'GfM'
p2138
S'0'
sS'Draw'
p2139
S'0'
sS'Mat'
p2140
S'6'
sS'Conv'
p2141
S'0'
sS'Tries'
p2142
S'0'
sS'Pts'
p2143
S'0'
sa(dp2144
S'Pens'
p2145
S'0'
sS'Sub'
p2146
S'0'
sS'Lost'
p2147
S'3'
sS'Drop'
p2148
S'0'
sS'Start'
p2149
S'5'
sS'Won'
p2150
S'2'
sS'GfM'
p2151
S'0'
sS'Draw'
p2152
S'0'
sS'Mat'
p2153
S'5'
sS'Conv'
p2154
S'0'
sS'Tries'
p2155
S'1'
sS'Pts'
p2156
S'4'
sa(dp2157
S'Pens'
p2158
S'0'
sS'Sub'
p2159
S'0'
sS'Lost'
p2160
S'3'
sS'Drop'
p2161
S'0'
sS'Start'
p2162
S'5'
sS'Won'
p2163
S'2'
sS'GfM'
p2164
S'0'
sS'Draw'
p2165
S'0'
sS'Mat'
p2166
S'5'
sS'Conv'
p2167
S'0'
sS'Tries'
p2168
S'0'
sS'Pts'
p2169
S'0'
sa(dp2170
S'Pens'
p2171
S'0'
sS'Sub'
p2172
S'0'
sS'Lost'
p2173
S'4'
sS'Drop'
p2174
S'0'
sS'Start'
p2175
S'7'
sS'Won'
p2176
S'3'
sS'GfM'
p2177
S'0'
sS'Draw'
p2178
S'0'
sS'Mat'
p2179
S'7'
sS'Conv'
p2180
S'0'
sS'Tries'
p2181
S'1'
sS'Pts'
p2182
S'4'
sa(dp2183
S'Pens'
p2184
S'0'
sS'Sub'
p2185
S'0'
sS'Lost'
p2186
S'0'
sS'Drop'
p2187
S'0'
sS'Start'
p2188
S'1'
sS'Won'
p2189
S'1'
sS'GfM'
p2190
S'0'
sS'Draw'
p2191
S'0'
sS'Mat'
p2192
S'1'
sS'Conv'
p2193
S'0'
sS'Tries'
p2194
S'0'
sS'Pts'
p2195
S'0'
sa(dp2196
S'Pens'
p2197
S'9'
sS'Sub'
p2198
S'0'
sS'Lost'
p2199
S'11'
p2200
sS'Drop'
p2201
S'0'
sS'Start'
p2202
S'17'
p2203
sS'Won'
p2204
S'6'
sS'GfM'
p2205
S'0'
sS'Draw'
p2206
S'0'
sS'Mat'
p2207
S'17'
p2208
sS'Conv'
p2209
S'10'
p2210
sS'Tries'
p2211
S'0'
sS'Pts'
p2212
S'47'
p2213
sa(dp2214
S'Pens'
p2215
S'0'
sS'Sub'
p2216
S'0'
sS'Lost'
p2217
S'1'
sS'Drop'
p2218
S'0'
sS'Start'
p2219
S'2'
sS'Won'
p2220
S'1'
sS'GfM'
p2221
S'0'
sS'Draw'
p2222
S'0'
sS'Mat'
p2223
S'2'
sS'Conv'
p2224
S'0'
sS'Tries'
p2225
S'0'
sS'Pts'
p2226
S'0'
sa(dp2227
S'Pens'
p2228
S'0'
sS'Sub'
p2229
S'0'
sS'Lost'
p2230
S'18'
p2231
sS'Drop'
p2232
S'0'
sS'Start'
p2233
S'25'
p2234
sS'Won'
p2235
S'7'
sS'GfM'
p2236
S'0'
sS'Draw'
p2237
S'0'
sS'Mat'
p2238
S'25'
p2239
sS'Conv'
p2240
S'0'
sS'Tries'
p2241
S'6'
sS'Pts'
p2242
S'24'
p2243
sa(dp2244
S'Pens'
p2245
S'0'
sS'Sub'
p2246
S'0'
sS'Lost'
p2247
S'2'
sS'Drop'
p2248
S'0'
sS'Start'
p2249
S'3'
sS'Won'
p2250
S'1'
sS'GfM'
p2251
S'0'
sS'Draw'
p2252
S'0'
sS'Mat'
p2253
S'3'
sS'Conv'
p2254
S'0'
sS'Tries'
p2255
S'0'
sS'Pts'
p2256
S'0'
sa(dp2257
S'Pens'
p2258
S'0'
sS'Sub'
p2259
S'0'
sS'Lost'
p2260
S'1'
sS'Drop'
p2261
S'0'
sS'Start'
p2262
S'1'
sS'Won'
p2263
S'0'
sS'GfM'
p2264
S'0'
sS'Draw'
p2265
S'0'
sS'Mat'
p2266
S'1'
sS'Conv'
p2267
S'0'
sS'Tries'
p2268
S'0'
sS'Pts'
p2269
S'0'
sa(dp2270
S'Pens'
p2271
S'0'
sS'Sub'
p2272
S'0'
sS'Lost'
p2273
S'6'
sS'Drop'
p2274
S'0'
sS'Start'
p2275
S'8'
sS'Won'
p2276
S'2'
sS'GfM'
p2277
S'0'
sS'Draw'
p2278
S'0'
sS'Mat'
p2279
S'8'
sS'Conv'
p2280
S'0'
sS'Tries'
p2281
S'1'
sS'Pts'
p2282
S'4'
sa(dp2283
S'Pens'
p2284
S'0'
sS'Sub'
p2285
S'1'
sS'Lost'
p2286
S'3'
sS'Drop'
p2287
S'0'
sS'Start'
p2288
S'4'
sS'Won'
p2289
S'2'
sS'GfM'
p2290
S'0'
sS'Draw'
p2291
S'0'
sS'Mat'
p2292
S'5'
sS'Conv'
p2293
S'0'
sS'Tries'
p2294
S'4'
sS'Pts'
p2295
S'16'
p2296
sa(dp2297
S'Pens'
p2298
S'0'
sS'Sub'
p2299
S'1'
sS'Lost'
p2300
S'1'
sS'Drop'
p2301
S'0'
sS'Start'
p2302
S'0'
sS'Won'
p2303
S'0'
sS'GfM'
p2304
S'0'
sS'Draw'
p2305
S'0'
sS'Mat'
p2306
S'1'
sS'Conv'
p2307
S'0'
sS'Tries'
p2308
S'0'
sS'Pts'
p2309
S'0'
sa(dp2310
S'Pens'
p2311
S'0'
sS'Sub'
p2312
S'0'
sS'Lost'
p2313
S'2'
sS'Drop'
p2314
S'0'
sS'Start'
p2315
S'3'
sS'Won'
p2316
S'1'
sS'GfM'
p2317
S'0'
sS'Draw'
p2318
S'0'
sS'Mat'
p2319
S'3'
sS'Conv'
p2320
S'0'
sS'Tries'
p2321
S'0'
sS'Pts'
p2322
S'0'
sa(dp2323
S'Pens'
p2324
S'0'
sS'Sub'
p2325
S'0'
sS'Lost'
p2326
S'2'
sS'Drop'
p2327
S'0'
sS'Start'
p2328
S'3'
sS'Won'
p2329
S'1'
sS'GfM'
p2330
S'0'
sS'Draw'
p2331
S'0'
sS'Mat'
p2332
S'3'
sS'Conv'
p2333
S'0'
sS'Tries'
p2334
S'1'
sS'Pts'
p2335
S'4'
sa(dp2336
S'Pens'
p2337
S'0'
sS'Sub'
p2338
S'0'
sS'Lost'
p2339
S'3'
sS'Drop'
p2340
S'0'
sS'Start'
p2341
S'4'
sS'Won'
p2342
S'1'
sS'GfM'
p2343
S'0'
sS'Draw'
p2344
S'0'
sS'Mat'
p2345
S'4'
sS'Conv'
p2346
S'0'
sS'Tries'
p2347
S'3'
sS'Pts'
p2348
S'12'
p2349
sa(dp2350
S'Pens'
p2351
S'0'
sS'Sub'
p2352
S'0'
sS'Lost'
p2353
S'4'
sS'Drop'
p2354
S'0'
sS'Start'
p2355
S'5'
sS'Won'
p2356
S'1'
sS'GfM'
p2357
S'0'
sS'Draw'
p2358
S'0'
sS'Mat'
p2359
S'5'
sS'Conv'
p2360
S'0'
sS'Tries'
p2361
S'4'
sS'Pts'
p2362
S'16'
p2363
sa(dp2364
S'Pens'
p2365
S'0'
sS'Sub'
p2366
S'0'
sS'Lost'
p2367
S'2'
sS'Drop'
p2368
S'0'
sS'Start'
p2369
S'3'
sS'Won'
p2370
S'1'
sS'GfM'
p2371
S'0'
sS'Draw'
p2372
S'0'
sS'Mat'
p2373
S'3'
sS'Conv'
p2374
S'0'
sS'Tries'
p2375
S'0'
sS'Pts'
p2376
S'0'
sa(dp2377
S'Pens'
p2378
S'0'
sS'Sub'
p2379
S'0'
sS'Lost'
p2380
S'5'
sS'Drop'
p2381
S'0'
sS'Start'
p2382
S'6'
sS'Won'
p2383
S'1'
sS'GfM'
p2384
S'0'
sS'Draw'
p2385
S'0'
sS'Mat'
p2386
S'6'
sS'Conv'
p2387
S'0'
sS'Tries'
p2388
S'2'
sS'Pts'
p2389
S'8'
sa(dp2390
S'Pens'
p2391
S'0'
sS'Sub'
p2392
S'0'
sS'Lost'
p2393
S'4'
sS'Drop'
p2394
S'0'
sS'Start'
p2395
S'4'
sS'Won'
p2396
S'0'
sS'GfM'
p2397
S'0'
sS'Draw'
p2398
S'0'
sS'Mat'
p2399
S'4'
sS'Conv'
p2400
S'0'
sS'Tries'
p2401
S'0'
sS'Pts'
p2402
S'0'
sa(dp2403
S'Pens'
p2404
S'0'
sS'Sub'
p2405
S'0'
sS'Lost'
p2406
S'1'
sS'Drop'
p2407
S'0'
sS'Start'
p2408
S'1'
sS'Won'
p2409
S'0'
sS'GfM'
p2410
S'0'
sS'Draw'
p2411
S'0'
sS'Mat'
p2412
S'1'
sS'Conv'
p2413
S'0'
sS'Tries'
p2414
S'0'
sS'Pts'
p2415
S'0'
sa(dp2416
S'Pens'
p2417
S'0'
sS'Sub'
p2418
S'0'
sS'Lost'
p2419
S'5'
sS'Drop'
p2420
S'0'
sS'Start'
p2421
S'8'
sS'Won'
p2422
S'3'
sS'GfM'
p2423
S'0'
sS'Draw'
p2424
S'0'
sS'Mat'
p2425
S'8'
sS'Conv'
p2426
S'0'
sS'Tries'
p2427
S'0'
sS'Pts'
p2428
S'0'
sa(dp2429
S'Pens'
p2430
S'0'
sS'Sub'
p2431
S'0'
sS'Lost'
p2432
S'1'
sS'Drop'
p2433
S'0'
sS'Start'
p2434
S'1'
sS'Won'
p2435
S'0'
sS'GfM'
p2436
S'0'
sS'Draw'
p2437
S'0'
sS'Mat'
p2438
S'1'
sS'Conv'
p2439
S'0'
sS'Tries'
p2440
S'0'
sS'Pts'
p2441
S'0'
sa(dp2442
S'Pens'
p2443
S'0'
sS'Sub'
p2444
S'0'
sS'Lost'
p2445
S'1'
sS'Drop'
p2446
S'0'
sS'Start'
p2447
S'1'
sS'Won'
p2448
S'0'
sS'GfM'
p2449
S'0'
sS'Draw'
p2450
S'0'
sS'Mat'
p2451
S'1'
sS'Conv'
p2452
S'0'
sS'Tries'
p2453
S'0'
sS'Pts'
p2454
S'0'
sa(dp2455
S'Pens'
p2456
S'0'
sS'Sub'
p2457
S'0'
sS'Lost'
p2458
S'1'
sS'Drop'
p2459
S'0'
sS'Start'
p2460
S'1'
sS'Won'
p2461
S'0'
sS'GfM'
p2462
S'0'
sS'Draw'
p2463
S'0'
sS'Mat'
p2464
S'1'
sS'Conv'
p2465
S'0'
sS'Tries'
p2466
S'0'
sS'Pts'
p2467
S'0'
sa(dp2468
S'Pens'
p2469
S'0'
sS'Sub'
p2470
S'0'
sS'Lost'
p2471
S'3'
sS'Drop'
p2472
S'0'
sS'Start'
p2473
S'3'
sS'Won'
p2474
S'0'
sS'GfM'
p2475
S'0'
sS'Draw'
p2476
S'0'
sS'Mat'
p2477
S'3'
sS'Conv'
p2478
S'0'
sS'Tries'
p2479
S'0'
sS'Pts'
p2480
S'0'
sa(dp2481
S'Pens'
p2482
S'0'
sS'Sub'
p2483
S'0'
sS'Lost'
p2484
S'3'
sS'Drop'
p2485
S'0'
sS'Start'
p2486
S'4'
sS'Won'
p2487
S'1'
sS'GfM'
p2488
S'0'
sS'Draw'
p2489
S'0'
sS'Mat'
p2490
S'4'
sS'Conv'
p2491
S'0'
sS'Tries'
p2492
S'0'
sS'Pts'
p2493
S'0'
sa(dp2494
S'Pens'
p2495
S'0'
sS'Sub'
p2496
S'0'
sS'Lost'
p2497
S'7'
sS'Drop'
p2498
S'0'
sS'Start'
p2499
S'10'
p2500
sS'Won'
p2501
S'3'
sS'GfM'
p2502
S'0'
sS'Draw'
p2503
S'0'
sS'Mat'
p2504
S'10'
p2505
sS'Conv'
p2506
S'0'
sS'Tries'
p2507
S'0'
sS'Pts'
p2508
S'0'
sa(dp2509
S'Pens'
p2510
S'1'
sS'Sub'
p2511
S'0'
sS'Lost'
p2512
S'5'
sS'Drop'
p2513
S'0'
sS'Start'
p2514
S'7'
sS'Won'
p2515
S'2'
sS'GfM'
p2516
S'0'
sS'Draw'
p2517
S'0'
sS'Mat'
p2518
S'7'
sS'Conv'
p2519
S'1'
sS'Tries'
p2520
S'0'
sS'Pts'
p2521
S'5'
sa(dp2522
S'Pens'
p2523
S'0'
sS'Sub'
p2524
S'0'
sS'Lost'
p2525
S'2'
sS'Drop'
p2526
S'0'
sS'Start'
p2527
S'2'
sS'Won'
p2528
S'0'
sS'GfM'
p2529
S'0'
sS'Draw'
p2530
S'0'
sS'Mat'
p2531
S'2'
sS'Conv'
p2532
S'0'
sS'Tries'
p2533
S'0'
sS'Pts'
p2534
S'0'
sa(dp2535
S'Pens'
p2536
S'0'
sS'Sub'
p2537
S'0'
sS'Lost'
p2538
S'5'
sS'Drop'
p2539
S'0'
sS'Start'
p2540
S'9'
sS'Won'
p2541
S'4'
sS'GfM'
p2542
S'0'
sS'Draw'
p2543
S'0'
sS'Mat'
p2544
S'9'
sS'Conv'
p2545
S'0'
sS'Tries'
p2546
S'1'
sS'Pts'
p2547
S'4'
sa(dp2548
S'Pens'
p2549
S'0'
sS'Sub'
p2550
S'0'
sS'Lost'
p2551
S'3'
sS'Drop'
p2552
S'0'
sS'Start'
p2553
S'3'
sS'Won'
p2554
S'0'
sS'GfM'
p2555
S'0'
sS'Draw'
p2556
S'0'
sS'Mat'
p2557
S'3'
sS'Conv'
p2558
S'0'
sS'Tries'
p2559
S'1'
sS'Pts'
p2560
S'4'
sa(dp2561
S'Pens'
p2562
S'0'
sS'Sub'
p2563
S'0'
sS'Lost'
p2564
S'5'
sS'Drop'
p2565
S'0'
sS'Start'
p2566
S'6'
sS'Won'
p2567
S'1'
sS'GfM'
p2568
S'0'
sS'Draw'
p2569
S'0'
sS'Mat'
p2570
S'6'
sS'Conv'
p2571
S'1'
sS'Tries'
p2572
S'1'
sS'Pts'
p2573
S'6'
sa(dp2574
S'Pens'
p2575
S'0'
sS'Sub'
p2576
S'0'
sS'Lost'
p2577
S'5'
sS'Drop'
p2578
S'0'
sS'Start'
p2579
S'6'
sS'Won'
p2580
S'1'
sS'GfM'
p2581
S'0'
sS'Draw'
p2582
S'0'
sS'Mat'
p2583
S'6'
sS'Conv'
p2584
S'0'
sS'Tries'
p2585
S'0'
sS'Pts'
p2586
S'0'
sa(dp2587
S'Pens'
p2588
S'0'
sS'Sub'
p2589
S'1'
sS'Lost'
p2590
S'1'
sS'Drop'
p2591
S'0'
sS'Start'
p2592
S'0'
sS'Won'
p2593
S'0'
sS'GfM'
p2594
S'0'
sS'Draw'
p2595
S'0'
sS'Mat'
p2596
S'1'
sS'Conv'
p2597
S'0'
sS'Tries'
p2598
S'0'
sS'Pts'
p2599
S'0'
sa(dp2600
S'Pens'
p2601
S'0'
sS'Sub'
p2602
S'0'
sS'Lost'
p2603
S'4'
sS'Drop'
p2604
S'0'
sS'Start'
p2605
S'5'
sS'Won'
p2606
S'1'
sS'GfM'
p2607
S'0'
sS'Draw'
p2608
S'0'
sS'Mat'
p2609
S'5'
sS'Conv'
p2610
S'0'
sS'Tries'
p2611
S'0'
sS'Pts'
p2612
S'0'
sa(dp2613
S'Pens'
p2614
S'0'
sS'Sub'
p2615
S'0'
sS'Lost'
p2616
S'3'
sS'Drop'
p2617
S'0'
sS'Start'
p2618
S'3'
sS'Won'
p2619
S'0'
sS'GfM'
p2620
S'0'
sS'Draw'
p2621
S'0'
sS'Mat'
p2622
S'3'
sS'Conv'
p2623
S'0'
sS'Tries'
p2624
S'0'
sS'Pts'
p2625
S'0'
sa(dp2626
S'Pens'
p2627
S'0'
sS'Sub'
p2628
S'1'
sS'Lost'
p2629
S'4'
sS'Drop'
p2630
S'0'
sS'Start'
p2631
S'3'
sS'Won'
p2632
S'0'
sS'GfM'
p2633
S'0'
sS'Draw'
p2634
S'0'
sS'Mat'
p2635
S'4'
sS'Conv'
p2636
S'0'
sS'Tries'
p2637
S'0'
sS'Pts'
p2638
S'0'
sa(dp2639
S'Pens'
p2640
S'0'
sS'Sub'
p2641
S'0'
sS'Lost'
p2642
S'2'
sS'Drop'
p2643
S'0'
sS'Start'
p2644
S'5'
sS'Won'
p2645
S'3'
sS'Draw'
p2646
S'0'
sS'%'
S'60.00'
p2647
sS'Mat'
p2648
S'5'
sS'Conv'
p2649
S'0'
sS'Tries'
p2650
S'2'
sS'Pts'
p2651
S'8'
sa(dp2652
S'Pens'
p2653
S'1'
sS'Sub'
p2654
S'1'
sS'Lost'
p2655
S'3'
sS'Drop'
p2656
S'0'
sS'Start'
p2657
S'3'
sS'Won'
p2658
S'1'
sS'Draw'
p2659
S'0'
sS'%'
S'25.00'
p2660
sS'Mat'
p2661
S'4'
sS'Conv'
p2662
S'1'
sS'Tries'
p2663
S'2'
sS'Pts'
p2664
S'13'
p2665
sa(dp2666
S'Pens'
p2667
S'0'
sS'Sub'
p2668
S'0'
sS'Lost'
p2669
S'3'
sS'Drop'
p2670
S'0'
sS'Start'
p2671
S'4'
sS'Won'
p2672
S'1'
sS'Draw'
p2673
S'0'
sS'%'
S'25.00'
p2674
sS'Mat'
p2675
S'4'
sS'Conv'
p2676
S'0'
sS'Tries'
p2677
S'0'
sS'Pts'
p2678
S'0'
sa(dp2679
S'Pens'
p2680
S'0'
sS'Sub'
p2681
S'0'
sS'Lost'
p2682
S'6'
sS'Drop'
p2683
S'0'
sS'Start'
p2684
S'10'
p2685
sS'Won'
p2686
S'4'
sS'Draw'
p2687
S'0'
sS'%'
S'40.00'
p2688
sS'Mat'
p2689
S'10'
p2690
sS'Conv'
p2691
S'0'
sS'Tries'
p2692
S'1'
sS'Pts'
p2693
S'4'
sa(dp2694
S'Pens'
p2695
S'0'
sS'Sub'
p2696
S'0'
sS'Lost'
p2697
S'1'
sS'Drop'
p2698
S'0'
sS'Start'
p2699
S'1'
sS'Won'
p2700
S'0'
sS'Draw'
p2701
S'0'
sS'%'
S'0.00'
p2702
sS'Mat'
p2703
S'1'
sS'Conv'
p2704
S'0'
sS'Tries'
p2705
S'0'
sS'Pts'
p2706
S'0'
sa(dp2707
S'Pens'
p2708
S'0'
sS'Sub'
p2709
S'0'
sS'Lost'
p2710
S'1'
sS'Drop'
p2711
S'0'
sS'Start'
p2712
S'1'
sS'Won'
p2713
S'0'
sS'Draw'
p2714
S'0'
sS'%'
S'0.00'
p2715
sS'Mat'
p2716
S'1'
sS'Conv'
p2717
S'0'
sS'Tries'
p2718
S'0'
sS'Pts'
p2719
S'0'
sa(dp2720
S'Pens'
p2721
S'3'
sS'Sub'
p2722
S'1'
sS'Lost'
p2723
S'10'
p2724
sS'Drop'
p2725
S'0'
sS'Start'
p2726
S'13'
p2727
sS'Won'
p2728
S'4'
sS'Draw'
p2729
S'0'
sS'%'
S'28.57'
p2730
sS'Mat'
p2731
S'14'
p2732
sS'Conv'
p2733
S'5'
sS'Tries'
p2734
S'3'
sS'Pts'
p2735
S'31'
p2736
sa(dp2737
S'Pens'
p2738
S'0'
sS'Sub'
p2739
S'0'
sS'Lost'
p2740
S'2'
sS'Drop'
p2741
S'0'
sS'Start'
p2742
S'2'
sS'Won'
p2743
S'0'
sS'Draw'
p2744
S'0'
sS'%'
S'0.00'
p2745
sS'Mat'
p2746
S'2'
sS'Conv'
p2747
S'0'
sS'Tries'
p2748
S'0'
sS'Pts'
p2749
S'0'
sa(dp2750
S'Pens'
p2751
S'0'
sS'Sub'
p2752
S'0'
sS'Lost'
p2753
S'13'
p2754
sS'Drop'
p2755
S'0'
sS'Start'
p2756
S'18'
p2757
sS'Won'
p2758
S'4'
sS'Draw'
p2759
S'1'
sS'%'
S'25.00'
p2760
sS'Mat'
p2761
S'18'
p2762
sS'Conv'
p2763
S'0'
sS'Tries'
p2764
S'5'
sS'Pts'
p2765
S'20'
p2766
sa(dp2767
S'Pens'
p2768
S'0'
sS'Sub'
p2769
S'0'
sS'Lost'
p2770
S'1'
sS'Drop'
p2771
S'0'
sS'Start'
p2772
S'3'
sS'Won'
p2773
S'2'
sS'Draw'
p2774
S'0'
sS'%'
S'66.66'
p2775
sS'Mat'
p2776
S'3'
sS'Conv'
p2777
S'0'
sS'Tries'
p2778
S'1'
sS'Pts'
p2779
S'4'
sa(dp2780
S'Pens'
p2781
S'0'
sS'Sub'
p2782
S'0'
sS'Lost'
p2783
S'0'
sS'Drop'
p2784
S'0'
sS'Start'
p2785
S'1'
sS'Won'
p2786
S'1'
sS'Draw'
p2787
S'0'
sS'%'
S'100.00'
p2788
sS'Mat'
p2789
S'1'
sS'Conv'
p2790
S'0'
sS'Tries'
p2791
S'0'
sS'Pts'
p2792
S'0'
sa(dp2793
S'Pens'
p2794
S'0'
sS'Sub'
p2795
S'0'
sS'Lost'
p2796
S'2'
sS'Drop'
p2797
S'0'
sS'Start'
p2798
S'6'
sS'Won'
p2799
S'4'
sS'Draw'
p2800
S'0'
sS'%'
S'66.66'
p2801
sS'Mat'
p2802
S'6'
sS'Conv'
p2803
S'0'
sS'Tries'
p2804
S'0'
sS'Pts'
p2805
S'0'
sa(dp2806
S'Pens'
p2807
S'1'
sS'Sub'
p2808
S'0'
sS'Lost'
p2809
S'0'
sS'Drop'
p2810
S'0'
sS'Start'
p2811
S'2'
sS'Won'
p2812
S'2'
sS'Draw'
p2813
S'0'
sS'%'
S'100.00'
p2814
sS'Mat'
p2815
S'2'
sS'Conv'
p2816
S'2'
sS'Tries'
p2817
S'0'
sS'Pts'
p2818
S'7'
sa(dp2819
S'Pens'
p2820
S'0'
sS'Sub'
p2821
S'0'
sS'Lost'
p2822
S'1'
sS'Drop'
p2823
S'0'
sS'Start'
p2824
S'4'
sS'Won'
p2825
S'3'
sS'Draw'
p2826
S'0'
sS'%'
S'75.00'
p2827
sS'Mat'
p2828
S'4'
sS'Conv'
p2829
S'0'
sS'Tries'
p2830
S'0'
sS'Pts'
p2831
S'0'
sa(dp2832
S'Pens'
p2833
S'0'
sS'Sub'
p2834
S'0'
sS'Lost'
p2835
S'0'
sS'Drop'
p2836
S'0'
sS'Start'
p2837
S'1'
sS'Won'
p2838
S'1'
sS'Draw'
p2839
S'0'
sS'%'
S'100.00'
p2840
sS'Mat'
p2841
S'1'
sS'Conv'
p2842
S'0'
sS'Tries'
p2843
S'0'
sS'Pts'
p2844
S'0'
sa(dp2845
S'Pens'
p2846
S'0'
sS'Sub'
p2847
S'0'
sS'Lost'
p2848
S'3'
sS'Drop'
p2849
S'0'
sS'Start'
p2850
S'4'
sS'Won'
p2851
S'1'
sS'Draw'
p2852
S'0'
sS'%'
S'25.00'
p2853
sS'Mat'
p2854
S'4'
sS'Conv'
p2855
S'0'
sS'Tries'
p2856
S'0'
sS'Pts'
p2857
S'0'
sa(dp2858
S'Pens'
p2859
S'0'
sS'Sub'
p2860
S'0'
sS'Lost'
p2861
S'0'
sS'Drop'
p2862
S'0'
sS'Start'
p2863
S'1'
sS'Won'
p2864
S'1'
sS'Draw'
p2865
S'0'
sS'%'
S'100.00'
p2866
sS'Mat'
p2867
S'1'
sS'Conv'
p2868
S'0'
sS'Tries'
p2869
S'0'
sS'Pts'
p2870
S'0'
sa(dp2871
S'Pens'
p2872
S'0'
sS'Sub'
p2873
S'0'
sS'Lost'
p2874
S'1'
sS'Drop'
p2875
S'0'
sS'Start'
p2876
S'3'
sS'Won'
p2877
S'2'
sS'Draw'
p2878
S'0'
sS'%'
S'66.66'
p2879
sS'Mat'
p2880
S'3'
sS'Conv'
p2881
S'0'
sS'Tries'
p2882
S'0'
sS'Pts'
p2883
S'0'
sa(dp2884
S'Pens'
p2885
S'0'
sS'Sub'
p2886
S'0'
sS'Lost'
p2887
S'0'
sS'Drop'
p2888
S'0'
sS'Start'
p2889
S'1'
sS'Won'
p2890
S'1'
sS'Draw'
p2891
S'0'
sS'%'
S'100.00'
p2892
sS'Mat'
p2893
S'1'
sS'Conv'
p2894
S'0'
sS'Tries'
p2895
S'0'
sS'Pts'
p2896
S'0'
sa(dp2897
S'Pens'
p2898
S'0'
sS'Sub'
p2899
S'0'
sS'Lost'
p2900
S'5'
sS'Drop'
p2901
S'0'
sS'Start'
p2902
S'9'
sS'Won'
p2903
S'3'
sS'Draw'
p2904
S'1'
sS'%'
S'38.88'
p2905
sS'Mat'
p2906
S'9'
sS'Conv'
p2907
S'0'
sS'Tries'
p2908
S'3'
sS'Pts'
p2909
S'12'
p2910
sa(dp2911
S'Pens'
p2912
S'0'
sS'Sub'
p2913
S'0'
sS'Lost'
p2914
S'7'
sS'Drop'
p2915
S'0'
sS'Start'
p2916
S'12'
p2917
sS'Won'
p2918
S'5'
sS'Draw'
p2919
S'0'
sS'%'
S'41.66'
p2920
sS'Mat'
p2921
S'12'
p2922
sS'Conv'
p2923
S'0'
sS'Tries'
p2924
S'1'
sS'Pts'
p2925
S'4'
sa(dp2926
S'Pens'
p2927
S'0'
sS'Sub'
p2928
S'1'
sS'Lost'
p2929
S'0'
sS'Drop'
p2930
S'0'
sS'Start'
p2931
S'0'
sS'Won'
p2932
S'1'
sS'Draw'
p2933
S'0'
sS'%'
S'100.00'
p2934
sS'Mat'
p2935
S'1'
sS'Conv'
p2936
S'0'
sS'Tries'
p2937
S'1'
sS'Pts'
p2938
S'4'
sa(dp2939
S'Pens'
p2940
S'0'
sS'Sub'
p2941
S'0'
sS'Lost'
p2942
S'4'
sS'Drop'
p2943
S'0'
sS'Start'
p2944
S'5'
sS'Won'
p2945
S'1'
sS'Draw'
p2946
S'0'
sS'%'
S'20.00'
p2947
sS'Mat'
p2948
S'5'
sS'Conv'
p2949
S'0'
sS'Tries'
p2950
S'0'
sS'Pts'
p2951
S'0'
sa(dp2952
S'Pens'
p2953
S'0'
sS'Sub'
p2954
S'0'
sS'Lost'
p2955
S'2'
sS'Drop'
p2956
S'0'
sS'Start'
p2957
S'3'
sS'Won'
p2958
S'1'
sS'Draw'
p2959
S'0'
sS'%'
S'33.33'
p2960
sS'Mat'
p2961
S'3'
sS'Conv'
p2962
S'0'
sS'Tries'
p2963
S'0'
sS'Pts'
p2964
S'0'
sa(dp2965
S'Pens'
p2966
S'0'
sS'Sub'
p2967
S'0'
sS'Lost'
p2968
S'5'
sS'Drop'
p2969
S'0'
sS'Start'
p2970
S'7'
sS'Won'
p2971
S'1'
sS'Draw'
p2972
S'1'
sS'%'
S'21.42'
p2973
sS'Mat'
p2974
S'7'
sS'Conv'
p2975
S'0'
sS'Tries'
p2976
S'0'
sS'Pts'
p2977
S'0'
sa(dp2978
S'Pens'
p2979
S'0'
sS'Sub'
p2980
S'0'
sS'Lost'
p2981
S'2'
sS'Drop'
p2982
S'0'
sS'Start'
p2983
S'3'
sS'Won'
p2984
S'1'
sS'Draw'
p2985
S'0'
sS'%'
S'33.33'
p2986
sS'Mat'
p2987
S'3'
sS'Conv'
p2988
S'0'
sS'Tries'
p2989
S'0'
sS'Pts'
p2990
S'0'
sa(dp2991
S'Pens'
p2992
S'0'
sS'Sub'
p2993
S'0'
sS'Lost'
p2994
S'2'
sS'Drop'
p2995
S'0'
sS'Start'
p2996
S'3'
sS'Won'
p2997
S'1'
sS'Draw'
p2998
S'0'
sS'%'
S'33.33'
p2999
sS'Mat'
p3000
S'3'
sS'Conv'
p3001
S'0'
sS'Tries'
p3002
S'1'
sS'Pts'
p3003
S'4'
sa(dp3004
S'Pens'
p3005
S'2'
sS'Sub'
p3006
S'0'
sS'Lost'
p3007
S'3'
sS'Drop'
p3008
S'0'
sS'Start'
p3009
S'5'
sS'Won'
p3010
S'2'
sS'Draw'
p3011
S'0'
sS'%'
S'40.00'
p3012
sS'Mat'
p3013
S'5'
sS'Conv'
p3014
S'2'
sS'Tries'
p3015
S'1'
sS'Pts'
p3016
S'14'
p3017
sa(dp3018
S'Pens'
p3019
S'0'
sS'Sub'
p3020
S'1'
sS'Lost'
p3021
S'1'
sS'Drop'
p3022
S'0'
sS'Start'
p3023
S'0'
sS'Won'
p3024
S'0'
sS'Draw'
p3025
S'0'
sS'%'
S'0.00'
p3026
sS'Mat'
p3027
S'1'
sS'Conv'
p3028
S'0'
sS'Tries'
p3029
S'0'
sS'Pts'
p3030
S'0'
sa(dp3031
S'Pens'
p3032
S'0'
sS'Sub'
p3033
S'0'
sS'Lost'
p3034
S'0'
sS'Drop'
p3035
S'0'
sS'Start'
p3036
S'1'
sS'Won'
p3037
S'1'
sS'Draw'
p3038
S'0'
sS'%'
S'100.00'
p3039
sS'Mat'
p3040
S'1'
sS'Conv'
p3041
S'0'
sS'Tries'
p3042
S'0'
sS'Pts'
p3043
S'0'
sa(dp3044
S'Pens'
p3045
S'3'
sS'Sub'
p3046
S'0'
sS'Lost'
p3047
S'3'
sS'Drop'
p3048
S'0'
sS'Start'
p3049
S'4'
sS'Won'
p3050
S'1'
sS'Draw'
p3051
S'0'
sS'%'
S'25.00'
p3052
sS'Mat'
p3053
S'4'
sS'Conv'
p3054
S'0'
sS'Tries'
p3055
S'0'
sS'Pts'
p3056
S'9'
sa(dp3057
S'Pens'
p3058
S'0'
sS'Sub'
p3059
S'1'
sS'Lost'
p3060
S'0'
sS'Drop'
p3061
S'0'
sS'Start'
p3062
S'0'
sS'Won'
p3063
S'1'
sS'Draw'
p3064
S'0'
sS'%'
S'100.00'
p3065
sS'Mat'
p3066
S'1'
sS'Conv'
p3067
S'0'
sS'Tries'
p3068
S'0'
sS'Pts'
p3069
S'0'
sa(dp3070
S'Pens'
p3071
S'0'
sS'Sub'
p3072
S'0'
sS'Lost'
p3073
S'10'
p3074
sS'Drop'
p3075
S'0'
sS'Start'
p3076
S'13'
p3077
sS'Won'
p3078
S'3'
sS'Draw'
p3079
S'0'
sS'%'
S'23.07'
p3080
sS'Mat'
p3081
S'13'
p3082
sS'Conv'
p3083
S'0'
sS'Tries'
p3084
S'1'
sS'Pts'
p3085
S'4'
sa(dp3086
S'Pens'
p3087
S'1'
sS'Sub'
p3088
S'0'
sS'Lost'
p3089
S'3'
sS'Drop'
p3090
S'0'
sS'Start'
p3091
S'5'
sS'Won'
p3092
S'2'
sS'Draw'
p3093
S'0'
sS'%'
S'40.00'
p3094
sS'Mat'
p3095
S'5'
sS'Conv'
p3096
S'0'
sS'Tries'
p3097
S'0'
sS'Pts'
p3098
S'3'
sa(dp3099
S'Pens'
p3100
S'0'
sS'Sub'
p3101
S'0'
sS'Lost'
p3102
S'2'
sS'Drop'
p3103
S'0'
sS'Start'
p3104
S'2'
sS'Won'
p3105
S'0'
sS'Draw'
p3106
S'0'
sS'%'
S'0.00'
p3107
sS'Mat'
p3108
S'2'
sS'Conv'
p3109
S'0'
sS'Tries'
p3110
S'0'
sS'Pts'
p3111
S'0'
sa(dp3112
S'Pens'
p3113
S'0'
sS'Sub'
p3114
S'0'
sS'Lost'
p3115
S'1'
sS'Drop'
p3116
S'0'
sS'Start'
p3117
S'1'
sS'Won'
p3118
S'0'
sS'Draw'
p3119
S'0'
sS'%'
S'0.00'
p3120
sS'Mat'
p3121
S'1'
sS'Conv'
p3122
S'0'
sS'Tries'
p3123
S'0'
sS'Pts'
p3124
S'0'
sa(dp3125
S'Pens'
p3126
S'12'
p3127
sS'Sub'
p3128
S'0'
sS'Lost'
p3129
S'7'
sS'Drop'
p3130
S'0'
sS'Start'
p3131
S'9'
sS'Won'
p3132
S'2'
sS'Draw'
p3133
S'0'
sS'%'
S'22.22'
p3134
sS'Mat'
p3135
S'9'
sS'Conv'
p3136
S'2'
sS'Tries'
p3137
S'0'
sS'Pts'
p3138
S'40'
p3139
sa(dp3140
S'Pens'
p3141
S'0'
sS'Sub'
p3142
S'0'
sS'Lost'
p3143
S'1'
sS'Drop'
p3144
S'0'
sS'Start'
p3145
S'1'
sS'Won'
p3146
S'0'
sS'Draw'
p3147
S'0'
sS'%'
S'0.00'
p3148
sS'Mat'
p3149
S'1'
sS'Conv'
p3150
S'0'
sS'Tries'
p3151
S'0'
sS'Pts'
p3152
S'0'
sa(dp3153
S'Pens'
p3154
S'0'
sS'Sub'
p3155
S'0'
sS'Lost'
p3156
S'2'
sS'Drop'
p3157
S'0'
sS'Start'
p3158
S'4'
sS'Won'
p3159
S'2'
sS'Draw'
p3160
S'0'
sS'%'
S'50.00'
p3161
sS'Mat'
p3162
S'4'
sS'Conv'
p3163
S'0'
sS'Tries'
p3164
S'0'
sS'Pts'
p3165
S'0'
sa(dp3166
S'Pens'
p3167
S'0'
sS'Sub'
p3168
S'0'
sS'Lost'
p3169
S'5'
sS'Drop'
p3170
S'0'
sS'Start'
p3171
S'6'
sS'Won'
p3172
S'1'
sS'Draw'
p3173
S'0'
sS'%'
S'16.66'
p3174
sS'Mat'
p3175
S'6'
sS'Conv'
p3176
S'0'
sS'Tries'
p3177
S'0'
sS'Pts'
p3178
S'0'
sa(dp3179
S'Pens'
p3180
S'0'
sS'Sub'
p3181
S'0'
sS'Lost'
p3182
S'4'
sS'Drop'
p3183
S'0'
sS'Start'
p3184
S'7'
sS'Won'
p3185
S'3'
sS'Draw'
p3186
S'0'
sS'%'
S'42.85'
p3187
sS'Mat'
p3188
S'7'
sS'Conv'
p3189
S'0'
sS'Tries'
p3190
S'0'
sS'Pts'
p3191
S'0'
sa(dp3192
S'Pens'
p3193
S'0'
sS'Sub'
p3194
S'0'
sS'Lost'
p3195
S'2'
sS'Drop'
p3196
S'0'
sS'Start'
p3197
S'2'
sS'Won'
p3198
S'0'
sS'Draw'
p3199
S'0'
sS'%'
S'0.00'
p3200
sS'Mat'
p3201
S'2'
sS'Conv'
p3202
S'0'
sS'Tries'
p3203
S'0'
sS'Pts'
p3204
S'0'
sa(dp3205
S'Pens'
p3206
S'0'
sS'Sub'
p3207
S'0'
sS'Lost'
p3208
S'8'
sS'Drop'
p3209
S'0'
sS'Start'
p3210
S'9'
sS'Won'
p3211
S'1'
sS'Draw'
p3212
S'0'
sS'%'
S'11.11'
p3213
sS'Mat'
p3214
S'9'
sS'Conv'
p3215
S'0'
sS'Tries'
p3216
S'1'
sS'Pts'
p3217
S'4'
sa(dp3218
S'Pens'
p3219
S'0'
sS'Sub'
p3220
S'0'
sS'Lost'
p3221
S'5'
sS'Drop'
p3222
S'0'
sS'Start'
p3223
S'6'
sS'Won'
p3224
S'1'
sS'Draw'
p3225
S'0'
sS'%'
S'16.66'
p3226
sS'Mat'
p3227
S'6'
sS'Conv'
p3228
S'0'
sS'Tries'
p3229
S'0'
sS'Pts'
p3230
S'0'
sa(dp3231
S'Pens'
p3232
S'0'
sS'Sub'
p3233
S'0'
sS'Lost'
p3234
S'1'
sS'Drop'
p3235
S'0'
sS'Start'
p3236
S'1'
sS'Won'
p3237
S'0'
sS'Draw'
p3238
S'0'
sS'%'
S'0.00'
p3239
sS'Mat'
p3240
S'1'
sS'Conv'
p3241
S'0'
sS'Tries'
p3242
S'0'
sS'Pts'
p3243
S'0'
sa(dp3244
S'Pens'
p3245
S'0'
sS'Sub'
p3246
S'0'
sS'Lost'
p3247
S'1'
sS'Drop'
p3248
S'0'
sS'Start'
p3249
S'1'
sS'Won'
p3250
S'0'
sS'Draw'
p3251
S'0'
sS'%'
S'0.00'
p3252
sS'Mat'
p3253
S'1'
sS'Conv'
p3254
S'0'
sS'Tries'
p3255
S'0'
sS'Pts'
p3256
S'0'
sa(dp3257
S'Pens'
p3258
S'0'
sS'Sub'
p3259
S'0'
sS'Lost'
p3260
S'1'
sS'Drop'
p3261
S'0'
sS'Start'
p3262
S'1'
sS'Won'
p3263
S'0'
sS'Draw'
p3264
S'0'
sS'%'
S'0.00'
p3265
sS'Mat'
p3266
S'1'
sS'Conv'
p3267
S'0'
sS'Tries'
p3268
S'0'
sS'Pts'
p3269
S'0'
sa(dp3270
S'Pens'
p3271
S'0'
sS'Sub'
p3272
S'0'
sS'Lost'
p3273
S'1'
sS'Drop'
p3274
S'0'
sS'Start'
p3275
S'1'
sS'Won'
p3276
S'0'
sS'Draw'
p3277
S'0'
sS'%'
S'0.00'
p3278
sS'Mat'
p3279
S'1'
sS'Conv'
p3280
S'0'
sS'Tries'
p3281
S'0'
sS'Pts'
p3282
S'0'
sa(dp3283
S'Pens'
p3284
S'0'
sS'Sub'
p3285
S'0'
sS'Lost'
p3286
S'1'
sS'Drop'
p3287
S'0'
sS'Start'
p3288
S'1'
sS'Won'
p3289
S'0'
sS'Draw'
p3290
S'0'
sS'%'
S'0.00'
p3291
sS'Mat'
p3292
S'1'
sS'Conv'
p3293
S'0'
sS'Tries'
p3294
S'0'
sS'Pts'
p3295
S'0'
sa(dp3296
S'Pens'
p3297
S'0'
sS'Sub'
p3298
S'0'
sS'Lost'
p3299
S'1'
sS'Drop'
p3300
S'0'
sS'Start'
p3301
S'2'
sS'Won'
p3302
S'1'
sS'Draw'
p3303
S'0'
sS'%'
S'50.00'
p3304
sS'Mat'
p3305
S'2'
sS'Conv'
p3306
S'0'
sS'Tries'
p3307
S'0'
sS'Pts'
p3308
S'0'
sa(dp3309
S'Pens'
p3310
S'0'
sS'Sub'
p3311
S'0'
sS'Lost'
p3312
S'9'
sS'Drop'
p3313
S'0'
sS'Start'
p3314
S'11'
p3315
sS'Won'
p3316
S'2'
sS'Draw'
p3317
S'0'
sS'%'
S'18.18'
p3318
sS'Mat'
p3319
S'11'
p3320
sS'Conv'
p3321
S'0'
sS'Tries'
p3322
S'4'
sS'Pts'
p3323
S'16'
p3324
sa(dp3325
S'Pens'
p3326
S'0'
sS'Sub'
p3327
S'0'
sS'Lost'
p3328
S'2'
sS'Drop'
p3329
S'0'
sS'Start'
p3330
S'4'
sS'Won'
p3331
S'2'
sS'Draw'
p3332
S'0'
sS'%'
S'50.00'
p3333
sS'Mat'
p3334
S'4'
sS'Conv'
p3335
S'0'
sS'Tries'
p3336
S'0'
sS'Pts'
p3337
S'0'
sa(dp3338
S'Pens'
p3339
S'0'
sS'Sub'
p3340
S'0'
sS'Lost'
p3341
S'3'
sS'Drop'
p3342
S'0'
sS'Start'
p3343
S'5'
sS'Won'
p3344
S'2'
sS'Draw'
p3345
S'0'
sS'%'
S'40.00'
p3346
sS'Mat'
p3347
S'5'
sS'Conv'
p3348
S'0'
sS'Tries'
p3349
S'2'
sS'Pts'
p3350
S'8'
sa(dp3351
S'Pens'
p3352
S'0'
sS'Sub'
p3353
S'0'
sS'Lost'
p3354
S'4'
sS'Drop'
p3355
S'0'
sS'Start'
p3356
S'5'
sS'Won'
p3357
S'1'
sS'Draw'
p3358
S'0'
sS'%'
S'20.00'
p3359
sS'Mat'
p3360
S'5'
sS'Conv'
p3361
S'0'
sS'Tries'
p3362
S'0'
sS'Pts'
p3363
S'0'
sa(dp3364
S'Pens'
p3365
S'0'
sS'Sub'
p3366
S'0'
sS'Lost'
p3367
S'1'
sS'Drop'
p3368
S'0'
sS'Start'
p3369
S'2'
sS'Won'
p3370
S'1'
sS'Draw'
p3371
S'0'
sS'%'
S'50.00'
p3372
sS'Mat'
p3373
S'2'
sS'Conv'
p3374
S'0'
sS'Tries'
p3375
S'0'
sS'Pts'
p3376
S'0'
sa(dp3377
S'Pens'
p3378
S'0'
sS'Sub'
p3379
S'0'
sS'Lost'
p3380
S'10'
p3381
sS'Drop'
p3382
S'0'
sS'Start'
p3383
S'14'
p3384
sS'Won'
p3385
S'4'
sS'Draw'
p3386
S'0'
sS'%'
S'28.57'
p3387
sS'Mat'
p3388
S'14'
p3389
sS'Conv'
p3390
S'0'
sS'Tries'
p3391
S'1'
sS'Pts'
p3392
S'4'
sa(dp3393
S'Pens'
p3394
S'0'
sS'Sub'
p3395
S'0'
sS'Lost'
p3396
S'7'
sS'Drop'
p3397
S'0'
sS'Start'
p3398
S'8'
sS'Won'
p3399
S'0'
sS'Draw'
p3400
S'1'
sS'%'
S'6.25'
p3401
sS'Mat'
p3402
S'8'
sS'Conv'
p3403
S'0'
sS'Tries'
p3404
S'0'
sS'Pts'
p3405
S'0'
sa(dp3406
S'Pens'
p3407
S'0'
sS'Sub'
p3408
S'0'
sS'Lost'
p3409
S'2'
sS'Drop'
p3410
S'0'
sS'Start'
p3411
S'2'
sS'Won'
p3412
S'0'
sS'Draw'
p3413
S'0'
sS'%'
S'0.00'
p3414
sS'Mat'
p3415
S'2'
sS'Conv'
p3416
S'0'
sS'Tries'
p3417
S'0'
sS'Pts'
p3418
S'0'
sa(dp3419
S'Pens'
p3420
S'0'
sS'Sub'
p3421
S'0'
sS'Lost'
p3422
S'2'
sS'Drop'
p3423
S'0'
sS'Start'
p3424
S'2'
sS'Won'
p3425
S'0'
sS'Draw'
p3426
S'0'
sS'%'
S'0.00'
p3427
sS'Mat'
p3428
S'2'
sS'Conv'
p3429
S'0'
sS'Tries'
p3430
S'0'
sS'Pts'
p3431
S'0'
sa(dp3432
S'Pens'
p3433
S'0'
sS'Sub'
p3434
S'0'
sS'Lost'
p3435
S'2'
sS'Drop'
p3436
S'0'
sS'Start'
p3437
S'2'
sS'Won'
p3438
S'0'
sS'Draw'
p3439
S'0'
sS'%'
S'0.00'
p3440
sS'Mat'
p3441
S'2'
sS'Conv'
p3442
S'0'
sS'Tries'
p3443
S'1'
sS'Pts'
p3444
S'4'
sa(dp3445
S'Pens'
p3446
S'0'
sS'Sub'
p3447
S'1'
sS'Lost'
p3448
S'3'
sS'Drop'
p3449
S'0'
sS'Start'
p3450
S'3'
sS'Won'
p3451
S'1'
sS'Draw'
p3452
S'0'
sS'%'
S'25.00'
p3453
sS'Mat'
p3454
S'4'
sS'Conv'
p3455
S'0'
sS'Tries'
p3456
S'0'
sS'Pts'
p3457
S'0'
sa(dp3458
S'Pens'
p3459
S'0'
sS'Sub'
p3460
S'0'
sS'Lost'
p3461
S'3'
sS'Drop'
p3462
S'0'
sS'Start'
p3463
S'4'
sS'Won'
p3464
S'1'
sS'Draw'
p3465
S'0'
sS'%'
S'25.00'
p3466
sS'Mat'
p3467
S'4'
sS'Conv'
p3468
S'0'
sS'Tries'
p3469
S'1'
sS'Pts'
p3470
S'4'
sa(dp3471
S'Pens'
p3472
S'0'
sS'Sub'
p3473
S'0'
sS'Lost'
p3474
S'1'
sS'Drop'
p3475
S'0'
sS'Start'
p3476
S'1'
sS'Won'
p3477
S'0'
sS'Draw'
p3478
S'0'
sS'%'
S'0.00'
p3479
sS'Mat'
p3480
S'1'
sS'Conv'
p3481
S'0'
sS'Tries'
p3482
S'0'
sS'Pts'
p3483
S'0'
sa(dp3484
S'Pens'
p3485
S'0'
sS'Sub'
p3486
S'0'
sS'Lost'
p3487
S'23'
p3488
sS'Drop'
p3489
S'0'
sS'Start'
p3490
S'34'
p3491
sS'Won'
p3492
S'11'
p3493
sS'Draw'
p3494
S'0'
sS'%'
S'32.35'
p3495
sS'Mat'
p3496
S'34'
p3497
sS'Conv'
p3498
S'0'
sS'Tries'
p3499
S'4'
sS'Pts'
p3500
S'18'
p3501
sa(dp3502
S'Pens'
p3503
S'0'
sS'Sub'
p3504
S'0'
sS'Lost'
p3505
S'2'
sS'Drop'
p3506
S'0'
sS'Start'
p3507
S'4'
sS'Won'
p3508
S'2'
sS'Draw'
p3509
S'0'
sS'%'
S'50.00'
p3510
sS'Mat'
p3511
S'4'
sS'Conv'
p3512
S'0'
sS'Tries'
p3513
S'1'
sS'Pts'
p3514
S'4'
sa(dp3515
S'Pens'
p3516
S'0'
sS'Sub'
p3517
S'0'
sS'Lost'
p3518
S'0'
sS'Drop'
p3519
S'0'
sS'Start'
p3520
S'1'
sS'Won'
p3521
S'1'
sS'Draw'
p3522
S'0'
sS'%'
S'100.00'
p3523
sS'Mat'
p3524
S'1'
sS'Conv'
p3525
S'0'
sS'Tries'
p3526
S'0'
sS'Pts'
p3527
S'0'
sa(dp3528
S'Pens'
p3529
S'0'
sS'Sub'
p3530
S'0'
sS'Lost'
p3531
S'11'
p3532
sS'Drop'
p3533
S'0'
sS'Start'
p3534
S'13'
p3535
sS'Won'
p3536
S'2'
sS'Draw'
p3537
S'0'
sS'%'
S'15.38'
p3538
sS'Mat'
p3539
S'13'
p3540
sS'Conv'
p3541
S'0'
sS'Tries'
p3542
S'0'
sS'Pts'
p3543
S'0'
sa(dp3544
S'Pens'
p3545
S'0'
sS'Sub'
p3546
S'0'
sS'Lost'
p3547
S'3'
sS'Drop'
p3548
S'0'
sS'Start'
p3549
S'3'
sS'Won'
p3550
S'0'
sS'Draw'
p3551
S'0'
sS'%'
S'0.00'
p3552
sS'Mat'
p3553
S'3'
sS'Conv'
p3554
S'0'
sS'Tries'
p3555
S'0'
sS'Pts'
p3556
S'0'
sa(dp3557
S'Pens'
p3558
S'0'
sS'Sub'
p3559
S'1'
sS'Lost'
p3560
S'1'
sS'Drop'
p3561
S'0'
sS'Start'
p3562
S'0'
sS'Won'
p3563
S'0'
sS'Draw'
p3564
S'0'
sS'%'
S'0.00'
p3565
sS'Mat'
p3566
S'1'
sS'Conv'
p3567
S'0'
sS'Tries'
p3568
S'0'
sS'Pts'
p3569
S'0'
sa(dp3570
S'Pens'
p3571
S'0'
sS'Sub'
p3572
S'0'
sS'Lost'
p3573
S'1'
sS'Drop'
p3574
S'0'
sS'Start'
p3575
S'2'
sS'Won'
p3576
S'1'
sS'Draw'
p3577
S'0'
sS'%'
S'50.00'
p3578
sS'Mat'
p3579
S'2'
sS'Conv'
p3580
S'0'
sS'Tries'
p3581
S'0'
sS'Pts'
p3582
S'0'
sa(dp3583
S'Pens'
p3584
S'0'
sS'Sub'
p3585
S'0'
sS'Lost'
p3586
S'2'
sS'Drop'
p3587
S'0'
sS'Start'
p3588
S'4'
sS'Won'
p3589
S'2'
sS'Draw'
p3590
S'0'
sS'%'
S'50.00'
p3591
sS'Mat'
p3592
S'4'
sS'Conv'
p3593
S'0'
sS'Tries'
p3594
S'0'
sS'Pts'
p3595
S'0'
sa(dp3596
S'Pens'
p3597
S'0'
sS'Sub'
p3598
S'0'
sS'Lost'
p3599
S'4'
sS'Drop'
p3600
S'0'
sS'Start'
p3601
S'6'
sS'Won'
p3602
S'2'
sS'Draw'
p3603
S'0'
sS'%'
S'33.33'
p3604
sS'Mat'
p3605
S'6'
sS'Conv'
p3606
S'0'
sS'Tries'
p3607
S'1'
sS'Pts'
p3608
S'4'
sa(dp3609
S'Pens'
p3610
S'0'
sS'Sub'
p3611
S'0'
sS'Lost'
p3612
S'0'
sS'Drop'
p3613
S'0'
sS'Start'
p3614
S'1'
sS'Won'
p3615
S'1'
sS'Draw'
p3616
S'0'
sS'%'
S'100.00'
p3617
sS'Mat'
p3618
S'1'
sS'Conv'
p3619
S'0'
sS'Tries'
p3620
S'0'
sS'Pts'
p3621
S'0'
sa(dp3622
S'Pens'
p3623
S'0'
sS'Sub'
p3624
S'0'
sS'Lost'
p3625
S'0'
sS'Drop'
p3626
S'0'
sS'Start'
p3627
S'1'
sS'Won'
p3628
S'1'
sS'Draw'
p3629
S'0'
sS'%'
S'100.00'
p3630
sS'Mat'
p3631
S'1'
sS'Conv'
p3632
S'0'
sS'Tries'
p3633
S'0'
sS'Pts'
p3634
S'0'
sa(dp3635
S'Pens'
p3636
S'0'
sS'Sub'
p3637
S'1'
sS'Lost'
p3638
S'2'
sS'Drop'
p3639
S'0'
sS'Start'
p3640
S'3'
sS'Won'
p3641
S'2'
sS'Draw'
p3642
S'0'
sS'%'
S'50.00'
p3643
sS'Mat'
p3644
S'4'
sS'Conv'
p3645
S'0'
sS'Tries'
p3646
S'0'
sS'Pts'
p3647
S'0'
sa(dp3648
S'Pens'
p3649
S'0'
sS'Sub'
p3650
S'0'
sS'Lost'
p3651
S'1'
sS'Drop'
p3652
S'0'
sS'Start'
p3653
S'1'
sS'Won'
p3654
S'0'
sS'Draw'
p3655
S'0'
sS'%'
S'0.00'
p3656
sS'Mat'
p3657
S'1'
sS'Conv'
p3658
S'0'
sS'Tries'
p3659
S'0'
sS'Pts'
p3660
S'0'
sa(dp3661
S'Pens'
p3662
S'0'
sS'Sub'
p3663
S'0'
sS'Lost'
p3664
S'1'
sS'Drop'
p3665
S'0'
sS'Start'
p3666
S'1'
sS'Won'
p3667
S'0'
sS'Draw'
p3668
S'0'
sS'%'
S'0.00'
p3669
sS'Mat'
p3670
S'1'
sS'Conv'
p3671
S'0'
sS'Tries'
p3672
S'0'
sS'Pts'
p3673
S'0'
sa(dp3674
S'Pens'
p3675
S'0'
sS'Sub'
p3676
S'0'
sS'Lost'
p3677
S'1'
sS'Drop'
p3678
S'0'
sS'Start'
p3679
S'1'
sS'Won'
p3680
S'0'
sS'Draw'
p3681
S'0'
sS'%'
S'0.00'
p3682
sS'Mat'
p3683
S'1'
sS'Conv'
p3684
S'0'
sS'Tries'
p3685
S'0'
sS'Pts'
p3686
S'0'
sa(dp3687
S'Pens'
p3688
S'0'
sS'Sub'
p3689
S'0'
sS'Lost'
p3690
S'5'
sS'Drop'
p3691
S'0'
sS'Start'
p3692
S'6'
sS'Won'
p3693
S'1'
sS'Draw'
p3694
S'0'
sS'%'
S'16.66'
p3695
sS'Mat'
p3696
S'6'
sS'Conv'
p3697
S'0'
sS'Tries'
p3698
S'0'
sS'Pts'
p3699
S'0'
sa(dp3700
S'Pens'
p3701
S'0'
sS'Sub'
p3702
S'0'
sS'Lost'
p3703
S'4'
sS'Drop'
p3704
S'0'
sS'Start'
p3705
S'5'
sS'Won'
p3706
S'1'
sS'Draw'
p3707
S'0'
sS'%'
S'20.00'
p3708
sS'Mat'
p3709
S'5'
sS'Conv'
p3710
S'0'
sS'Tries'
p3711
S'0'
sS'Pts'
p3712
S'0'
sa(dp3713
S'Pens'
p3714
S'0'
sS'Sub'
p3715
S'0'
sS'Lost'
p3716
S'3'
sS'Drop'
p3717
S'0'
sS'Start'
p3718
S'4'
sS'Won'
p3719
S'1'
sS'Draw'
p3720
S'0'
sS'%'
S'25.00'
p3721
sS'Mat'
p3722
S'4'
sS'Conv'
p3723
S'0'
sS'Tries'
p3724
S'0'
sS'Pts'
p3725
S'0'
sa(dp3726
S'Pens'
p3727
S'0'
sS'Sub'
p3728
S'0'
sS'Lost'
p3729
S'3'
sS'Drop'
p3730
S'0'
sS'Start'
p3731
S'4'
sS'Won'
p3732
S'1'
sS'Draw'
p3733
S'0'
sS'%'
S'25.00'
p3734
sS'Mat'
p3735
S'4'
sS'Conv'
p3736
S'0'
sS'Tries'
p3737
S'0'
sS'Pts'
p3738
S'0'
sa(dp3739
S'Pens'
p3740
S'0'
sS'Sub'
p3741
S'0'
sS'Lost'
p3742
S'0'
sS'Drop'
p3743
S'0'
sS'Start'
p3744
S'1'
sS'Won'
p3745
S'1'
sS'Draw'
p3746
S'0'
sS'%'
S'100.00'
p3747
sS'Mat'
p3748
S'1'
sS'Conv'
p3749
S'0'
sS'Tries'
p3750
S'0'
sS'Pts'
p3751
S'0'
sa(dp3752
S'Pens'
p3753
S'0'
sS'Sub'
p3754
S'0'
sS'Lost'
p3755
S'1'
sS'Drop'
p3756
S'0'
sS'Start'
p3757
S'1'
sS'Won'
p3758
S'0'
sS'Draw'
p3759
S'0'
sS'%'
S'0.00'
p3760
sS'Mat'
p3761
S'1'
sS'Conv'
p3762
S'0'
sS'Tries'
p3763
S'0'
sS'Pts'
p3764
S'0'
sa(dp3765
S'Pens'
p3766
S'0'
sS'Sub'
p3767
S'0'
sS'Lost'
p3768
S'1'
sS'Drop'
p3769
S'0'
sS'Start'
p3770
S'1'
sS'Won'
p3771
S'0'
sS'Draw'
p3772
S'0'
sS'%'
S'0.00'
p3773
sS'Mat'
p3774
S'1'
sS'Conv'
p3775
S'0'
sS'Tries'
p3776
S'0'
sS'Pts'
p3777
S'0'
sa(dp3778
S'Pens'
p3779
S'0'
sS'Sub'
p3780
S'0'
sS'Lost'
p3781
S'11'
p3782
sS'Drop'
p3783
S'0'
sS'Start'
p3784
S'12'
p3785
sS'Won'
p3786
S'1'
sS'Draw'
p3787
S'0'
sS'%'
S'8.33'
p3788
sS'Mat'
p3789
S'12'
p3790
sS'Conv'
p3791
S'0'
sS'Tries'
p3792
S'2'
sS'Pts'
p3793
S'8'
sa(dp3794
S'Pens'
p3795
S'0'
sS'Sub'
p3796
S'0'
sS'Lost'
p3797
S'4'
sS'Drop'
p3798
S'0'
sS'Start'
p3799
S'4'
sS'Won'
p3800
S'0'
sS'Draw'
p3801
S'0'
sS'%'
S'0.00'
p3802
sS'Mat'
p3803
S'4'
sS'Conv'
p3804
S'0'
sS'Tries'
p3805
S'0'
sS'Pts'
p3806
S'0'
sa(dp3807
S'Pens'
p3808
S'0'
sS'Sub'
p3809
S'1'
sS'Lost'
p3810
S'7'
sS'Drop'
p3811
S'0'
sS'Start'
p3812
S'7'
sS'Won'
p3813
S'1'
sS'Draw'
p3814
S'0'
sS'%'
S'12.50'
p3815
sS'Mat'
p3816
S'8'
sS'Conv'
p3817
S'0'
sS'Tries'
p3818
S'1'
sS'Pts'
p3819
S'4'
sa(dp3820
S'Pens'
p3821
S'0'
sS'Sub'
p3822
S'0'
sS'Lost'
p3823
S'6'
sS'Drop'
p3824
S'0'
sS'Start'
p3825
S'8'
sS'Won'
p3826
S'2'
sS'Draw'
p3827
S'0'
sS'%'
S'25.00'
p3828
sS'Mat'
p3829
S'8'
sS'Conv'
p3830
S'0'
sS'Tries'
p3831
S'0'
sS'Pts'
p3832
S'0'
sa(dp3833
S'Pens'
p3834
S'0'
sS'Sub'
p3835
S'1'
sS'Lost'
p3836
S'1'
sS'Drop'
p3837
S'0'
sS'Start'
p3838
S'0'
sS'Won'
p3839
S'0'
sS'Draw'
p3840
S'0'
sS'%'
S'0.00'
p3841
sS'Mat'
p3842
S'1'
sS'Conv'
p3843
S'0'
sS'Tries'
p3844
S'0'
sS'Pts'
p3845
S'0'
sa(dp3846
S'Pens'
p3847
S'0'
sS'Sub'
p3848
S'1'
sS'Lost'
p3849
S'1'
sS'Drop'
p3850
S'0'
sS'Start'
p3851
S'0'
sS'Won'
p3852
S'0'
sS'Draw'
p3853
S'0'
sS'%'
S'0.00'
p3854
sS'Mat'
p3855
S'1'
sS'Conv'
p3856
S'0'
sS'Tries'
p3857
S'0'
sS'Pts'
p3858
S'0'
sa(dp3859
S'Pens'
p3860
S'4'
sS'Sub'
p3861
S'1'
sS'Lost'
p3862
S'5'
sS'Drop'
p3863
S'0'
sS'Start'
p3864
S'4'
sS'Won'
p3865
S'0'
sS'Draw'
p3866
S'0'
sS'%'
S'0.00'
p3867
sS'Mat'
p3868
S'5'
sS'Conv'
p3869
S'0'
sS'Tries'
p3870
S'0'
sS'Pts'
p3871
S'12'
p3872
sa(dp3873
S'Pens'
p3874
S'0'
sS'Sub'
p3875
S'5'
sS'Lost'
p3876
S'23'
p3877
sS'Drop'
p3878
S'0'
sS'Start'
p3879
S'31'
p3880
sS'Won'
p3881
S'12'
p3882
sS'Draw'
p3883
S'1'
sS'%'
S'34.72'
p3884
sS'Mat'
p3885
S'36'
p3886
sS'Conv'
p3887
S'0'
sS'Tries'
p3888
S'2'
sS'Pts'
p3889
S'9'
sa(dp3890
S'Pens'
p3891
S'0'
sS'Sub'
p3892
S'0'
sS'Lost'
p3893
S'6'
sS'Drop'
p3894
S'0'
sS'Start'
p3895
S'8'
sS'Won'
p3896
S'1'
sS'Draw'
p3897
S'1'
sS'%'
S'18.75'
p3898
sS'Mat'
p3899
S'8'
sS'Conv'
p3900
S'0'
sS'Tries'
p3901
S'1'
sS'Pts'
p3902
S'4'
sa(dp3903
S'Pens'
p3904
S'0'
sS'Sub'
p3905
S'0'
sS'Lost'
p3906
S'5'
sS'Drop'
p3907
S'0'
sS'Start'
p3908
S'5'
sS'Won'
p3909
S'0'
sS'Draw'
p3910
S'0'
sS'%'
S'0.00'
p3911
sS'Mat'
p3912
S'5'
sS'Conv'
p3913
S'0'
sS'Tries'
p3914
S'0'
sS'Pts'
p3915
S'0'
sa(dp3916
S'Pens'
p3917
S'2'
sS'Sub'
p3918
S'0'
sS'Lost'
p3919
S'1'
sS'Drop'
p3920
S'0'
sS'Start'
p3921
S'2'
sS'Won'
p3922
S'0'
sS'Draw'
p3923
S'1'
sS'%'
S'25.00'
p3924
sS'Mat'
p3925
S'2'
sS'Conv'
p3926
S'1'
sS'Tries'
p3927
S'0'
sS'Pts'
p3928
S'8'
sa(dp3929
S'Pens'
p3930
S'0'
sS'Sub'
p3931
S'0'
sS'Lost'
p3932
S'13'
p3933
sS'Drop'
p3934
S'0'
sS'Start'
p3935
S'18'
p3936
sS'Won'
p3937
S'4'
sS'Draw'
p3938
S'1'
sS'%'
S'25.00'
p3939
sS'Mat'
p3940
S'18'
p3941
sS'Conv'
p3942
S'0'
sS'Tries'
p3943
S'0'
sS'Pts'
p3944
S'0'
sa(dp3945
S'Pens'
p3946
S'3'
sS'Sub'
p3947
S'1'
sS'Lost'
p3948
S'9'
sS'Drop'
p3949
S'0'
sS'Start'
p3950
S'11'
p3951
sS'Won'
p3952
S'2'
sS'Draw'
p3953
S'1'
sS'%'
S'20.83'
p3954
sS'Mat'
p3955
S'12'
p3956
sS'Conv'
p3957
S'6'
sS'Tries'
p3958
S'0'
sS'Pts'
p3959
S'21'
p3960
sa(dp3961
S'Pens'
p3962
S'1'
sS'Sub'
p3963
S'0'
sS'Lost'
p3964
S'2'
sS'Drop'
p3965
S'0'
sS'Start'
p3966
S'2'
sS'Won'
p3967
S'0'
sS'Draw'
p3968
S'0'
sS'%'
S'0.00'
p3969
sS'Mat'
p3970
S'2'
sS'Conv'
p3971
S'1'
sS'Tries'
p3972
S'0'
sS'Pts'
p3973
S'5'
sa(dp3974
S'Pens'
p3975
S'0'
sS'Sub'
p3976
S'0'
sS'Lost'
p3977
S'6'
sS'Drop'
p3978
S'0'
sS'Start'
p3979
S'9'
sS'Won'
p3980
S'2'
sS'Draw'
p3981
S'1'
sS'%'
S'27.77'
p3982
sS'Mat'
p3983
S'9'
sS'Conv'
p3984
S'0'
sS'Tries'
p3985
S'0'
sS'Pts'
p3986
S'0'
sa(dp3987
S'Pens'
p3988
S'0'
sS'Sub'
p3989
S'2'
sS'Lost'
p3990
S'3'
sS'Drop'
p3991
S'0'
sS'Start'
p3992
S'2'
sS'Won'
p3993
S'1'
sS'Draw'
p3994
S'0'
sS'%'
S'25.00'
p3995
sS'Mat'
p3996
S'4'
sS'Conv'
p3997
S'0'
sS'Tries'
p3998
S'0'
sS'Pts'
p3999
S'0'
sa(dp4000
S'Pens'
p4001
S'0'
sS'Sub'
p4002
S'0'
sS'Lost'
p4003
S'4'
sS'Drop'
p4004
S'0'
sS'Start'
p4005
S'5'
sS'Won'
p4006
S'0'
sS'Draw'
p4007
S'1'
sS'%'
S'10.00'
p4008
sS'Mat'
p4009
S'5'
sS'Conv'
p4010
S'0'
sS'Tries'
p4011
S'0'
sS'Pts'
p4012
S'0'
sa(dp4013
S'Pens'
p4014
S'0'
sS'Sub'
p4015
S'0'
sS'Lost'
p4016
S'1'
sS'Drop'
p4017
S'0'
sS'Start'
p4018
S'1'
sS'Won'
p4019
S'0'
sS'Draw'
p4020
S'0'
sS'%'
S'0.00'
p4021
sS'Mat'
p4022
S'1'
sS'Conv'
p4023
S'0'
sS'Tries'
p4024
S'0'
sS'Pts'
p4025
S'0'
sa(dp4026
S'Pens'
p4027
S'0'
sS'Sub'
p4028
S'0'
sS'Lost'
p4029
S'1'
sS'Drop'
p4030
S'0'
sS'Start'
p4031
S'1'
sS'Won'
p4032
S'0'
sS'Draw'
p4033
S'0'
sS'%'
S'0.00'
p4034
sS'Mat'
p4035
S'1'
sS'Conv'
p4036
S'0'
sS'Tries'
p4037
S'1'
sS'Pts'
p4038
S'4'
sa(dp4039
S'Pens'
p4040
S'0'
sS'Sub'
p4041
S'0'
sS'Lost'
p4042
S'1'
sS'Drop'
p4043
S'0'
sS'Start'
p4044
S'1'
sS'Won'
p4045
S'0'
sS'Draw'
p4046
S'0'
sS'%'
S'0.00'
p4047
sS'Mat'
p4048
S'1'
sS'Conv'
p4049
S'0'
sS'Tries'
p4050
S'0'
sS'Pts'
p4051
S'0'
sa(dp4052
S'Pens'
p4053
S'0'
sS'Sub'
p4054
S'1'
sS'Lost'
p4055
S'12'
p4056
sS'Drop'
p4057
S'0'
sS'Start'
p4058
S'19'
p4059
sS'Won'
p4060
S'7'
sS'Draw'
p4061
S'1'
sS'%'
S'37.50'
p4062
sS'Mat'
p4063
S'20'
p4064
sS'Conv'
p4065
S'0'
sS'Tries'
p4066
S'2'
sS'Pts'
p4067
S'9'
sa(dp4068
S'Pens'
p4069
S'0'
sS'Sub'
p4070
S'0'
sS'Lost'
p4071
S'4'
sS'Drop'
p4072
S'0'
sS'Start'
p4073
S'6'
sS'Won'
p4074
S'1'
sS'Draw'
p4075
S'1'
sS'%'
S'25.00'
p4076
sS'Mat'
p4077
S'6'
sS'Conv'
p4078
S'0'
sS'Tries'
p4079
S'0'
sS'Pts'
p4080
S'0'
sa(dp4081
S'Pens'
p4082
S'0'
sS'Sub'
p4083
S'1'
sS'Lost'
p4084
S'6'
sS'Drop'
p4085
S'0'
sS'Start'
p4086
S'5'
sS'Won'
p4087
S'0'
sS'Draw'
p4088
S'0'
sS'%'
S'0.00'
p4089
sS'Mat'
p4090
S'6'
sS'Conv'
p4091
S'0'
sS'Tries'
p4092
S'1'
sS'Pts'
p4093
S'4'
sa(dp4094
S'Pens'
p4095
S'0'
sS'Sub'
p4096
S'0'
sS'Lost'
p4097
S'6'
sS'Drop'
p4098
S'0'
sS'Start'
p4099
S'8'
sS'Won'
p4100
S'2'
sS'Draw'
p4101
S'0'
sS'%'
S'25.00'
p4102
sS'Mat'
p4103
S'8'
sS'Conv'
p4104
S'0'
sS'Tries'
p4105
S'0'
sS'Pts'
p4106
S'0'
sa(dp4107
S'Pens'
p4108
S'0'
sS'Sub'
p4109
S'1'
sS'Lost'
p4110
S'1'
sS'Drop'
p4111
S'0'
sS'Start'
p4112
S'1'
sS'Won'
p4113
S'0'
sS'Draw'
p4114
S'1'
sS'%'
S'25.00'
p4115
sS'Mat'
p4116
S'2'
sS'Conv'
p4117
S'0'
sS'Tries'
p4118
S'1'
sS'Pts'
p4119
S'4'
sa(dp4120
S'Pens'
p4121
S'0'
sS'Sub'
p4122
S'0'
sS'Lost'
p4123
S'6'
sS'Drop'
p4124
S'0'
sS'Start'
p4125
S'8'
sS'Won'
p4126
S'2'
sS'Draw'
p4127
S'0'
sS'%'
S'25.00'
p4128
sS'Mat'
p4129
S'8'
sS'Conv'
p4130
S'0'
sS'Tries'
p4131
S'2'
sS'Pts'
p4132
S'10'
p4133
sa(dp4134
S'Pens'
p4135
S'0'
sS'Sub'
p4136
S'0'
sS'Lost'
p4137
S'1'
sS'Drop'
p4138
S'0'
sS'Start'
p4139
S'1'
sS'Won'
p4140
S'0'
sS'Draw'
p4141
S'0'
sS'%'
S'0.00'
p4142
sS'Mat'
p4143
S'1'
sS'Conv'
p4144
S'0'
sS'Tries'
p4145
S'0'
sS'Pts'
p4146
S'0'
sa(dp4147
S'Pens'
p4148
S'0'
sS'Sub'
p4149
S'0'
sS'Lost'
p4150
S'0'
sS'Drop'
p4151
S'0'
sS'Start'
p4152
S'1'
sS'Won'
p4153
S'0'
sS'Draw'
p4154
S'1'
sS'%'
S'50.00'
p4155
sS'Mat'
p4156
S'1'
sS'Conv'
p4157
S'0'
sS'Tries'
p4158
S'0'
sS'Pts'
p4159
S'0'
sa(dp4160
S'Pens'
p4161
S'0'
sS'Sub'
p4162
S'0'
sS'Lost'
p4163
S'0'
sS'Drop'
p4164
S'0'
sS'Start'
p4165
S'1'
sS'Won'
p4166
S'0'
sS'Draw'
p4167
S'1'
sS'%'
S'50.00'
p4168
sS'Mat'
p4169
S'1'
sS'Conv'
p4170
S'0'
sS'Tries'
p4171
S'0'
sS'Pts'
p4172
S'0'
sa(dp4173
S'Pens'
p4174
S'0'
sS'Sub'
p4175
S'0'
sS'Lost'
p4176
S'0'
sS'Drop'
p4177
S'0'
sS'Start'
p4178
S'1'
sS'Won'
p4179
S'0'
sS'Draw'
p4180
S'1'
sS'%'
S'50.00'
p4181
sS'Mat'
p4182
S'1'
sS'Conv'
p4183
S'0'
sS'Tries'
p4184
S'1'
sS'Pts'
p4185
S'4'
sa(dp4186
S'Pens'
p4187
S'0'
sS'Sub'
p4188
S'2'
sS'Lost'
p4189
S'20'
p4190
sS'Drop'
p4191
S'0'
sS'Start'
p4192
S'32'
p4193
sS'Won'
p4194
S'13'
p4195
sS'Draw'
p4196
S'1'
sS'%'
S'39.70'
p4197
sS'Mat'
p4198
S'34'
p4199
sS'Conv'
p4200
S'0'
sS'Tries'
p4201
S'3'
sS'Pts'
p4202
S'15'
p4203
sa(dp4204
S'Pens'
p4205
S'0'
sS'Sub'
p4206
S'1'
sS'Lost'
p4207
S'4'
sS'Drop'
p4208
S'0'
sS'Start'
p4209
S'5'
sS'Won'
p4210
S'1'
sS'Draw'
p4211
S'1'
sS'%'
S'25.00'
p4212
sS'Mat'
p4213
S'6'
sS'Conv'
p4214
S'0'
sS'Tries'
p4215
S'0'
sS'Pts'
p4216
S'0'
sa(dp4217
S'Pens'
p4218
S'0'
sS'Sub'
p4219
S'0'
sS'Lost'
p4220
S'4'
sS'Drop'
p4221
S'0'
sS'Start'
p4222
S'6'
sS'Won'
p4223
S'2'
sS'Draw'
p4224
S'0'
sS'%'
S'33.33'
p4225
sS'Mat'
p4226
S'6'
sS'Conv'
p4227
S'0'
sS'Tries'
p4228
S'0'
sS'Pts'
p4229
S'0'
sa(dp4230
S'Pens'
p4231
S'0'
sS'Sub'
p4232
S'0'
sS'Lost'
p4233
S'1'
sS'Drop'
p4234
S'0'
sS'Start'
p4235
S'1'
sS'Won'
p4236
S'0'
sS'Draw'
p4237
S'0'
sS'%'
S'0.00'
p4238
sS'Mat'
p4239
S'1'
sS'Conv'
p4240
S'0'
sS'Tries'
p4241
S'0'
sS'Pts'
p4242
S'0'
sa(dp4243
S'Pens'
p4244
S'0'
sS'Sub'
p4245
S'0'
sS'Lost'
p4246
S'1'
sS'Drop'
p4247
S'0'
sS'Start'
p4248
S'1'
sS'Won'
p4249
S'0'
sS'Draw'
p4250
S'0'
sS'%'
S'0.00'
p4251
sS'Mat'
p4252
S'1'
sS'Conv'
p4253
S'0'
sS'Tries'
p4254
S'0'
sS'Pts'
p4255
S'0'
sa(dp4256
S'Pens'
p4257
S'0'
sS'Sub'
p4258
S'0'
sS'Lost'
p4259
S'0'
sS'Drop'
p4260
S'0'
sS'Start'
p4261
S'1'
sS'Won'
p4262
S'1'
sS'Draw'
p4263
S'0'
sS'%'
S'100.00'
p4264
sS'Mat'
p4265
S'1'
sS'Conv'
p4266
S'0'
sS'Tries'
p4267
S'0'
sS'Pts'
p4268
S'0'
sa(dp4269
S'Pens'
p4270
S'0'
sS'Sub'
p4271
S'0'
sS'Lost'
p4272
S'2'
sS'Drop'
p4273
S'0'
sS'Start'
p4274
S'2'
sS'Won'
p4275
S'0'
sS'Draw'
p4276
S'0'
sS'%'
S'0.00'
p4277
sS'Mat'
p4278
S'2'
sS'Conv'
p4279
S'0'
sS'Tries'
p4280
S'0'
sS'Pts'
p4281
S'0'
sa(dp4282
S'Pens'
p4283
S'0'
sS'Sub'
p4284
S'3'
sS'Lost'
p4285
S'10'
p4286
sS'Drop'
p4287
S'0'
sS'Start'
p4288
S'10'
p4289
sS'Won'
p4290
S'3'
sS'Draw'
p4291
S'0'
sS'%'
S'23.07'
p4292
sS'Mat'
p4293
S'13'
p4294
sS'Conv'
p4295
S'0'
sS'Tries'
p4296
S'5'
sS'Pts'
p4297
S'25'
p4298
sa(dp4299
S'Pens'
p4300
S'0'
sS'Sub'
p4301
S'0'
sS'Lost'
p4302
S'1'
sS'Drop'
p4303
S'0'
sS'Start'
p4304
S'1'
sS'Won'
p4305
S'0'
sS'Draw'
p4306
S'0'
sS'%'
S'0.00'
p4307
sS'Mat'
p4308
S'1'
sS'Conv'
p4309
S'0'
sS'Tries'
p4310
S'0'
sS'Pts'
p4311
S'0'
sa(dp4312
S'Pens'
p4313
S'4'
sS'Sub'
p4314
S'1'
sS'Lost'
p4315
S'5'
sS'Drop'
p4316
S'0'
sS'Start'
p4317
S'7'
sS'Won'
p4318
S'3'
sS'Draw'
p4319
S'0'
sS'%'
S'37.50'
p4320
sS'Mat'
p4321
S'8'
sS'Conv'
p4322
S'0'
sS'Tries'
p4323
S'0'
sS'Pts'
p4324
S'12'
p4325
sa(dp4326
S'Pens'
p4327
S'2'
sS'Sub'
p4328
S'1'
sS'Lost'
p4329
S'26'
p4330
sS'Drop'
p4331
S'0'
sS'Start'
p4332
S'40'
p4333
sS'Won'
p4334
S'15'
p4335
sS'Draw'
p4336
S'0'
sS'%'
S'36.58'
p4337
sS'Mat'
p4338
S'41'
p4339
sS'Conv'
p4340
S'2'
sS'Tries'
p4341
S'8'
sS'Pts'
p4342
S'50'
p4343
sa(dp4344
S'Pens'
p4345
S'0'
sS'Sub'
p4346
S'1'
sS'Lost'
p4347
S'2'
sS'Drop'
p4348
S'0'
sS'Start'
p4349
S'2'
sS'Won'
p4350
S'1'
sS'Draw'
p4351
S'0'
sS'%'
S'33.33'
p4352
sS'Mat'
p4353
S'3'
sS'Conv'
p4354
S'0'
sS'Tries'
p4355
S'0'
sS'Pts'
p4356
S'0'
sa(dp4357
S'Pens'
p4358
S'0'
sS'Sub'
p4359
S'0'
sS'Lost'
p4360
S'1'
sS'Drop'
p4361
S'0'
sS'Start'
p4362
S'2'
sS'Won'
p4363
S'1'
sS'Draw'
p4364
S'0'
sS'%'
S'50.00'
p4365
sS'Mat'
p4366
S'2'
sS'Conv'
p4367
S'0'
sS'Tries'
p4368
S'0'
sS'Pts'
p4369
S'0'
sa(dp4370
S'Pens'
p4371
S'0'
sS'Sub'
p4372
S'4'
sS'Lost'
p4373
S'11'
p4374
sS'Drop'
p4375
S'0'
sS'Start'
p4376
S'7'
sS'Won'
p4377
S'0'
sS'Draw'
p4378
S'0'
sS'%'
S'0.00'
p4379
sS'Mat'
p4380
S'11'
p4381
sS'Conv'
p4382
S'0'
sS'Tries'
p4383
S'3'
sS'Pts'
p4384
S'14'
p4385
sa(dp4386
S'Pens'
p4387
S'0'
sS'Sub'
p4388
S'0'
sS'Lost'
p4389
S'1'
sS'Drop'
p4390
S'0'
sS'Start'
p4391
S'1'
sS'Won'
p4392
S'0'
sS'Draw'
p4393
S'0'
sS'%'
S'0.00'
p4394
sS'Mat'
p4395
S'1'
sS'Conv'
p4396
S'0'
sS'Tries'
p4397
S'0'
sS'Pts'
p4398
S'0'
sa(dp4399
S'Pens'
p4400
S'0'
sS'Sub'
p4401
S'2'
sS'Lost'
p4402
S'33'
p4403
sS'Drop'
p4404
S'0'
sS'Start'
p4405
S'45'
p4406
sS'Won'
p4407
S'14'
p4408
sS'Draw'
p4409
S'0'
sS'%'
S'29.78'
p4410
sS'Mat'
p4411
S'47'
p4412
sS'Conv'
p4413
S'0'
sS'Tries'
p4414
S'26'
p4415
sS'Pts'
p4416
S'130'
p4417
sa(dp4418
S'Pens'
p4419
S'0'
sS'Sub'
p4420
S'0'
sS'Lost'
p4421
S'1'
sS'Drop'
p4422
S'0'
sS'Start'
p4423
S'1'
sS'Won'
p4424
S'0'
sS'Draw'
p4425
S'0'
sS'%'
S'0.00'
p4426
sS'Mat'
p4427
S'1'
sS'Conv'
p4428
S'0'
sS'Tries'
p4429
S'0'
sS'Pts'
p4430
S'0'
sa(dp4431
S'Pens'
p4432
S'0'
sS'Sub'
p4433
S'1'
sS'Lost'
p4434
S'3'
sS'Drop'
p4435
S'0'
sS'Start'
p4436
S'8'
sS'Won'
p4437
S'6'
sS'Draw'
p4438
S'0'
sS'%'
S'66.66'
p4439
sS'Mat'
p4440
S'9'
sS'Conv'
p4441
S'0'
sS'Tries'
p4442
S'0'
sS'Pts'
p4443
S'0'
sa(dp4444
S'Pens'
p4445
S'0'
sS'Sub'
p4446
S'0'
sS'Lost'
p4447
S'1'
sS'Drop'
p4448
S'0'
sS'Start'
p4449
S'1'
sS'Won'
p4450
S'0'
sS'Draw'
p4451
S'0'
sS'%'
S'0.00'
p4452
sS'Mat'
p4453
S'1'
sS'Conv'
p4454
S'0'
sS'Tries'
p4455
S'0'
sS'Pts'
p4456
S'0'
sa(dp4457
S'Pens'
p4458
S'0'
sS'Sub'
p4459
S'0'
sS'Lost'
p4460
S'1'
sS'Drop'
p4461
S'0'
sS'Start'
p4462
S'1'
sS'Won'
p4463
S'0'
sS'Draw'
p4464
S'0'
sS'%'
S'0.00'
p4465
sS'Mat'
p4466
S'1'
sS'Conv'
p4467
S'0'
sS'Tries'
p4468
S'0'
sS'Pts'
p4469
S'0'
sa(dp4470
S'Pens'
p4471
S'0'
sS'Sub'
p4472
S'0'
sS'Lost'
p4473
S'2'
sS'Drop'
p4474
S'0'
sS'Start'
p4475
S'2'
sS'Won'
p4476
S'0'
sS'Draw'
p4477
S'0'
sS'%'
S'0.00'
p4478
sS'Mat'
p4479
S'2'
sS'Conv'
p4480
S'0'
sS'Tries'
p4481
S'0'
sS'Pts'
p4482
S'0'
sa(dp4483
S'Pens'
p4484
S'0'
sS'Sub'
p4485
S'0'
sS'Lost'
p4486
S'2'
sS'Drop'
p4487
S'0'
sS'Start'
p4488
S'2'
sS'Won'
p4489
S'0'
sS'Draw'
p4490
S'0'
sS'%'
S'0.00'
p4491
sS'Mat'
p4492
S'2'
sS'Conv'
p4493
S'0'
sS'Tries'
p4494
S'0'
sS'Pts'
p4495
S'0'
sa(dp4496
S'Pens'
p4497
S'0'
sS'Sub'
p4498
S'1'
sS'Lost'
p4499
S'3'
sS'Drop'
p4500
S'0'
sS'Start'
p4501
S'4'
sS'Won'
p4502
S'2'
sS'Draw'
p4503
S'0'
sS'%'
S'40.00'
p4504
sS'Mat'
p4505
S'5'
sS'Conv'
p4506
S'1'
sS'Tries'
p4507
S'0'
sS'Pts'
p4508
S'2'
sa(dp4509
S'Pens'
p4510
S'0'
sS'Sub'
p4511
S'0'
sS'Lost'
p4512
S'1'
sS'Drop'
p4513
S'0'
sS'Start'
p4514
S'1'
sS'Won'
p4515
S'0'
sS'Draw'
p4516
S'0'
sS'%'
S'0.00'
p4517
sS'Mat'
p4518
S'1'
sS'Conv'
p4519
S'0'
sS'Tries'
p4520
S'0'
sS'Pts'
p4521
S'0'
sa(dp4522
S'Pens'
p4523
S'0'
sS'Sub'
p4524
S'0'
sS'Lost'
p4525
S'1'
sS'Drop'
p4526
S'0'
sS'Start'
p4527
S'1'
sS'Won'
p4528
S'0'
sS'Draw'
p4529
S'0'
sS'%'
S'0.00'
p4530
sS'Mat'
p4531
S'1'
sS'Conv'
p4532
S'0'
sS'Tries'
p4533
S'0'
sS'Pts'
p4534
S'0'
sa(dp4535
S'Pens'
p4536
S'0'
sS'Sub'
p4537
S'0'
sS'Lost'
p4538
S'1'
sS'Drop'
p4539
S'0'
sS'Start'
p4540
S'1'
sS'Won'
p4541
S'0'
sS'Draw'
p4542
S'0'
sS'%'
S'0.00'
p4543
sS'Mat'
p4544
S'1'
sS'Conv'
p4545
S'0'
sS'Tries'
p4546
S'0'
sS'Pts'
p4547
S'0'
sa(dp4548
S'Pens'
p4549
S'0'
sS'Sub'
p4550
S'1'
sS'Lost'
p4551
S'11'
p4552
sS'Drop'
p4553
S'0'
sS'Start'
p4554
S'14'
p4555
sS'Won'
p4556
S'4'
sS'Draw'
p4557
S'0'
sS'%'
S'26.66'
p4558
sS'Mat'
p4559
S'15'
p4560
sS'Conv'
p4561
S'0'
sS'Tries'
p4562
S'5'
sS'Pts'
p4563
S'24'
p4564
sa(dp4565
S'Pens'
p4566
S'0'
sS'Sub'
p4567
S'0'
sS'Lost'
p4568
S'1'
sS'Drop'
p4569
S'0'
sS'Start'
p4570
S'1'
sS'Won'
p4571
S'0'
sS'Draw'
p4572
S'0'
sS'%'
S'0.00'
p4573
sS'Mat'
p4574
S'1'
sS'Conv'
p4575
S'0'
sS'Tries'
p4576
S'0'
sS'Pts'
p4577
S'0'
sa(dp4578
S'Pens'
p4579
S'0'
sS'Sub'
p4580
S'0'
sS'Lost'
p4581
S'2'
sS'Drop'
p4582
S'0'
sS'Start'
p4583
S'2'
sS'Won'
p4584
S'0'
sS'Draw'
p4585
S'0'
sS'%'
S'0.00'
p4586
sS'Mat'
p4587
S'2'
sS'Conv'
p4588
S'0'
sS'Tries'
p4589
S'0'
sS'Pts'
p4590
S'0'
sa(dp4591
S'Pens'
p4592
S'0'
sS'Sub'
p4593
S'0'
sS'Lost'
p4594
S'1'
sS'Drop'
p4595
S'0'
sS'Start'
p4596
S'1'
sS'Won'
p4597
S'0'
sS'Draw'
p4598
S'0'
sS'%'
S'0.00'
p4599
sS'Mat'
p4600
S'1'
sS'Conv'
p4601
S'0'
sS'Tries'
p4602
S'0'
sS'Pts'
p4603
S'0'
sa(dp4604
S'Pens'
p4605
S'2'
sS'Sub'
p4606
S'0'
sS'Lost'
p4607
S'2'
sS'Drop'
p4608
S'0'
sS'Start'
p4609
S'3'
sS'Won'
p4610
S'1'
sS'Draw'
p4611
S'0'
sS'%'
S'33.33'
p4612
sS'Mat'
p4613
S'3'
sS'Conv'
p4614
S'0'
sS'Tries'
p4615
S'0'
sS'Pts'
p4616
S'6'
sa(dp4617
S'Pens'
p4618
S'0'
sS'Sub'
p4619
S'0'
sS'Lost'
p4620
S'11'
p4621
sS'Drop'
p4622
S'0'
sS'Start'
p4623
S'15'
p4624
sS'Won'
p4625
S'4'
sS'Draw'
p4626
S'0'
sS'%'
S'26.66'
p4627
sS'Mat'
p4628
S'15'
p4629
sS'Conv'
p4630
S'0'
sS'Tries'
p4631
S'0'
sS'Pts'
p4632
S'0'
sa(dp4633
S'Pens'
p4634
S'0'
sS'Sub'
p4635
S'0'
sS'Lost'
p4636
S'1'
sS'Drop'
p4637
S'0'
sS'Start'
p4638
S'1'
sS'Won'
p4639
S'0'
sS'Draw'
p4640
S'0'
sS'%'
S'0.00'
p4641
sS'Mat'
p4642
S'1'
sS'Conv'
p4643
S'0'
sS'Tries'
p4644
S'1'
sS'Pts'
p4645
S'5'
sa(dp4646
S'Pens'
p4647
S'0'
sS'Sub'
p4648
S'0'
sS'Lost'
p4649
S'2'
sS'Drop'
p4650
S'0'
sS'Start'
p4651
S'4'
sS'Won'
p4652
S'2'
sS'Draw'
p4653
S'0'
sS'%'
S'50.00'
p4654
sS'Mat'
p4655
S'4'
sS'Conv'
p4656
S'0'
sS'Tries'
p4657
S'0'
sS'Pts'
p4658
S'0'
sa(dp4659
S'Pens'
p4660
S'0'
sS'Sub'
p4661
S'0'
sS'Lost'
p4662
S'2'
sS'Drop'
p4663
S'0'
sS'Start'
p4664
S'3'
sS'Won'
p4665
S'1'
sS'Draw'
p4666
S'0'
sS'%'
S'33.33'
p4667
sS'Mat'
p4668
S'3'
sS'Conv'
p4669
S'0'
sS'Tries'
p4670
S'0'
sS'Pts'
p4671
S'0'
sa(dp4672
S'Pens'
p4673
S'0'
sS'Sub'
p4674
S'0'
sS'Lost'
p4675
S'4'
sS'Drop'
p4676
S'0'
sS'Start'
p4677
S'4'
sS'Won'
p4678
S'0'
sS'Draw'
p4679
S'0'
sS'%'
S'0.00'
p4680
sS'Mat'
p4681
S'4'
sS'Conv'
p4682
S'0'
sS'Tries'
p4683
S'0'
sS'Pts'
p4684
S'0'
sa(dp4685
S'Pens'
p4686
S'2'
sS'Sub'
p4687
S'1'
sS'Lost'
p4688
S'3'
sS'Drop'
p4689
S'0'
sS'Start'
p4690
S'3'
sS'Won'
p4691
S'1'
sS'Draw'
p4692
S'0'
sS'%'
S'25.00'
p4693
sS'Mat'
p4694
S'4'
sS'Conv'
p4695
S'1'
sS'Tries'
p4696
S'0'
sS'Pts'
p4697
S'8'
sa(dp4698
S'Pens'
p4699
S'2'
sS'Sub'
p4700
S'2'
sS'Lost'
p4701
S'9'
sS'Drop'
p4702
S'0'
sS'Start'
p4703
S'13'
p4704
sS'Won'
p4705
S'6'
sS'Draw'
p4706
S'0'
sS'%'
S'40.00'
p4707
sS'Mat'
p4708
S'15'
p4709
sS'Conv'
p4710
S'1'
sS'Tries'
p4711
S'6'
sS'Pts'
p4712
S'38'
p4713
sa(dp4714
S'Pens'
p4715
S'1'
sS'Sub'
p4716
S'0'
sS'Lost'
p4717
S'1'
sS'Drop'
p4718
S'0'
sS'Start'
p4719
S'2'
sS'Won'
p4720
S'1'
sS'Draw'
p4721
S'0'
sS'%'
S'50.00'
p4722
sS'Mat'
p4723
S'2'
sS'Conv'
p4724
S'0'
sS'Tries'
p4725
S'0'
sS'Pts'
p4726
S'3'
sa(dp4727
S'Pens'
p4728
S'0'
sS'Sub'
p4729
S'0'
sS'Lost'
p4730
S'3'
sS'Drop'
p4731
S'0'
sS'Start'
p4732
S'4'
sS'Won'
p4733
S'1'
sS'Draw'
p4734
S'0'
sS'%'
S'25.00'
p4735
sS'Mat'
p4736
S'4'
sS'Conv'
p4737
S'0'
sS'Tries'
p4738
S'0'
sS'Pts'
p4739
S'0'
sa(dp4740
S'Pens'
p4741
S'0'
sS'Sub'
p4742
S'2'
sS'Lost'
p4743
S'13'
p4744
sS'Drop'
p4745
S'0'
sS'Start'
p4746
S'23'
p4747
sS'Won'
p4748
S'11'
p4749
sS'Draw'
p4750
S'1'
sS'%'
S'46.00'
p4751
sS'Mat'
p4752
S'25'
p4753
sS'Conv'
p4754
S'0'
sS'Tries'
p4755
S'5'
sS'Pts'
p4756
S'25'
p4757
sa(dp4758
S'Pens'
p4759
S'0'
sS'Sub'
p4760
S'0'
sS'Lost'
p4761
S'1'
sS'Drop'
p4762
S'0'
sS'Start'
p4763
S'3'
sS'Won'
p4764
S'2'
sS'Draw'
p4765
S'0'
sS'%'
S'66.66'
p4766
sS'Mat'
p4767
S'3'
sS'Conv'
p4768
S'0'
sS'Tries'
p4769
S'0'
sS'Pts'
p4770
S'0'
sa(dp4771
S'Pens'
p4772
S'0'
sS'Sub'
p4773
S'0'
sS'Lost'
p4774
S'0'
sS'Drop'
p4775
S'0'
sS'Start'
p4776
S'1'
sS'Won'
p4777
S'1'
sS'Draw'
p4778
S'0'
sS'%'
S'100.00'
p4779
sS'Mat'
p4780
S'1'
sS'Conv'
p4781
S'0'
sS'Tries'
p4782
S'0'
sS'Pts'
p4783
S'0'
sa(dp4784
S'Pens'
p4785
S'0'
sS'Sub'
p4786
S'0'
sS'Lost'
p4787
S'4'
sS'Drop'
p4788
S'0'
sS'Start'
p4789
S'6'
sS'Won'
p4790
S'2'
sS'Draw'
p4791
S'0'
sS'%'
S'33.33'
p4792
sS'Mat'
p4793
S'6'
sS'Conv'
p4794
S'0'
sS'Tries'
p4795
S'0'
sS'Pts'
p4796
S'0'
sa(dp4797
S'Pens'
p4798
S'0'
sS'Sub'
p4799
S'1'
sS'Lost'
p4800
S'13'
p4801
sS'Drop'
p4802
S'0'
sS'Start'
p4803
S'17'
p4804
sS'Won'
p4805
S'5'
sS'Draw'
p4806
S'0'
sS'%'
S'27.77'
p4807
sS'Mat'
p4808
S'18'
p4809
sS'Conv'
p4810
S'0'
sS'Tries'
p4811
S'3'
sS'Pts'
p4812
S'15'
p4813
sa(dp4814
S'Pens'
p4815
S'0'
sS'Sub'
p4816
S'0'
sS'Lost'
p4817
S'1'
sS'Drop'
p4818
S'0'
sS'Start'
p4819
S'1'
sS'Won'
p4820
S'0'
sS'Draw'
p4821
S'0'
sS'%'
S'0.00'
p4822
sS'Mat'
p4823
S'1'
sS'Conv'
p4824
S'0'
sS'Tries'
p4825
S'0'
sS'Pts'
p4826
S'0'
sa(dp4827
S'Pens'
p4828
S'0'
sS'Sub'
p4829
S'1'
sS'Lost'
p4830
S'8'
sS'Drop'
p4831
S'0'
sS'Start'
p4832
S'12'
p4833
sS'Won'
p4834
S'5'
sS'Draw'
p4835
S'0'
sS'%'
S'38.46'
p4836
sS'Mat'
p4837
S'13'
p4838
sS'Conv'
p4839
S'0'
sS'Tries'
p4840
S'3'
sS'Pts'
p4841
S'15'
p4842
sa(dp4843
S'Pens'
p4844
S'0'
sS'Sub'
p4845
S'0'
sS'Lost'
p4846
S'2'
sS'Drop'
p4847
S'0'
sS'Start'
p4848
S'2'
sS'Won'
p4849
S'0'
sS'Draw'
p4850
S'0'
sS'%'
S'0.00'
p4851
sS'Mat'
p4852
S'2'
sS'Conv'
p4853
S'0'
sS'Tries'
p4854
S'0'
sS'Pts'
p4855
S'0'
sa(dp4856
S'Pens'
p4857
S'0'
sS'Sub'
p4858
S'1'
sS'Lost'
p4859
S'5'
sS'Drop'
p4860
S'0'
sS'Start'
p4861
S'7'
sS'Won'
p4862
S'3'
sS'Draw'
p4863
S'0'
sS'%'
S'37.50'
p4864
sS'Mat'
p4865
S'8'
sS'Conv'
p4866
S'0'
sS'Tries'
p4867
S'0'
sS'Pts'
p4868
S'0'
sa(dp4869
S'Pens'
p4870
S'0'
sS'Sub'
p4871
S'0'
sS'Lost'
p4872
S'1'
sS'Drop'
p4873
S'0'
sS'Start'
p4874
S'1'
sS'Won'
p4875
S'0'
sS'Draw'
p4876
S'0'
sS'%'
S'0.00'
p4877
sS'Mat'
p4878
S'1'
sS'Conv'
p4879
S'0'
sS'Tries'
p4880
S'0'
sS'Pts'
p4881
S'0'
sa(dp4882
S'Pens'
p4883
S'0'
sS'Sub'
p4884
S'1'
sS'Lost'
p4885
S'4'
sS'Drop'
p4886
S'0'
sS'Start'
p4887
S'5'
sS'Won'
p4888
S'2'
sS'Draw'
p4889
S'0'
sS'%'
S'33.33'
p4890
sS'Mat'
p4891
S'6'
sS'Conv'
p4892
S'0'
sS'Tries'
p4893
S'1'
sS'Pts'
p4894
S'5'
sa(dp4895
S'Pens'
p4896
S'0'
sS'Sub'
p4897
S'3'
sS'Lost'
p4898
S'8'
sS'Drop'
p4899
S'0'
sS'Start'
p4900
S'11'
p4901
sS'Won'
p4902
S'6'
sS'Draw'
p4903
S'0'
sS'%'
S'42.85'
p4904
sS'Mat'
p4905
S'14'
p4906
sS'Conv'
p4907
S'0'
sS'Tries'
p4908
S'0'
sS'Pts'
p4909
S'0'
sa(dp4910
S'Pens'
p4911
S'0'
sS'Sub'
p4912
S'0'
sS'Lost'
p4913
S'3'
sS'Drop'
p4914
S'0'
sS'Start'
p4915
S'4'
sS'Won'
p4916
S'1'
sS'Draw'
p4917
S'0'
sS'%'
S'25.00'
p4918
sS'Mat'
p4919
S'4'
sS'Conv'
p4920
S'0'
sS'Tries'
p4921
S'1'
sS'Pts'
p4922
S'5'
sa(dp4923
S'Pens'
p4924
S'0'
sS'Sub'
p4925
S'0'
sS'Lost'
p4926
S'1'
sS'Drop'
p4927
S'0'
sS'Start'
p4928
S'1'
sS'Won'
p4929
S'0'
sS'Draw'
p4930
S'0'
sS'%'
S'0.00'
p4931
sS'Mat'
p4932
S'1'
sS'Conv'
p4933
S'0'
sS'Tries'
p4934
S'0'
sS'Pts'
p4935
S'0'
sa(dp4936
S'Pens'
p4937
S'0'
sS'Sub'
p4938
S'0'
sS'Lost'
p4939
S'2'
sS'Drop'
p4940
S'0'
sS'Start'
p4941
S'4'
sS'Won'
p4942
S'2'
sS'Draw'
p4943
S'0'
sS'%'
S'50.00'
p4944
sS'Mat'
p4945
S'4'
sS'Conv'
p4946
S'0'
sS'Tries'
p4947
S'1'
sS'Pts'
p4948
S'5'
sa(dp4949
S'Pens'
p4950
S'0'
sS'Sub'
p4951
S'1'
sS'Lost'
p4952
S'0'
sS'Drop'
p4953
S'0'
sS'Start'
p4954
S'0'
sS'Won'
p4955
S'1'
sS'Draw'
p4956
S'0'
sS'%'
S'100.00'
p4957
sS'Mat'
p4958
S'1'
sS'Conv'
p4959
S'0'
sS'Tries'
p4960
S'0'
sS'Pts'
p4961
S'0'
sa(dp4962
S'Pens'
p4963
S'0'
sS'Sub'
p4964
S'1'
sS'Lost'
p4965
S'0'
sS'Drop'
p4966
S'0'
sS'Start'
p4967
S'0'
sS'Won'
p4968
S'1'
sS'Draw'
p4969
S'0'
sS'%'
S'100.00'
p4970
sS'Mat'
p4971
S'1'
sS'Conv'
p4972
S'0'
sS'Tries'
p4973
S'0'
sS'Pts'
p4974
S'0'
sa(dp4975
S'Pens'
p4976
S'0'
sS'Sub'
p4977
S'2'
sS'Lost'
p4978
S'14'
p4979
sS'Drop'
p4980
S'0'
sS'Start'
p4981
S'20'
p4982
sS'Won'
p4983
S'8'
sS'Draw'
p4984
S'0'
sS'%'
S'36.36'
p4985
sS'Mat'
p4986
S'22'
p4987
sS'Conv'
p4988
S'0'
sS'Tries'
p4989
S'2'
sS'Pts'
p4990
S'10'
p4991
sa(dp4992
S'Pens'
p4993
S'0'
sS'Sub'
p4994
S'0'
sS'Lost'
p4995
S'3'
sS'Drop'
p4996
S'0'
sS'Start'
p4997
S'5'
sS'Won'
p4998
S'2'
sS'Draw'
p4999
S'0'
sS'%'
S'40.00'
p5000
sS'Mat'
p5001
S'5'
sS'Conv'
p5002
S'0'
sS'Tries'
p5003
S'1'
sS'Pts'
p5004
S'5'
sa(dp5005
S'Pens'
p5006
S'0'
sS'Sub'
p5007
S'0'
sS'Lost'
p5008
S'1'
sS'Drop'
p5009
S'0'
sS'Start'
p5010
S'1'
sS'Won'
p5011
S'0'
sS'Draw'
p5012
S'0'
sS'%'
S'0.00'
p5013
sS'Mat'
p5014
S'1'
sS'Conv'
p5015
S'2'
sS'Tries'
p5016
S'0'
sS'Pts'
p5017
S'4'
sa(dp5018
S'Pens'
p5019
S'0'
sS'Sub'
p5020
S'1'
sS'Lost'
p5021
S'2'
sS'Drop'
p5022
S'0'
sS'Start'
p5023
S'2'
sS'Won'
p5024
S'1'
sS'Draw'
p5025
S'0'
sS'%'
S'33.33'
p5026
sS'Mat'
p5027
S'3'
sS'Conv'
p5028
S'0'
sS'Tries'
p5029
S'1'
sS'Pts'
p5030
S'5'
sa(dp5031
S'Pens'
p5032
S'0'
sS'Sub'
p5033
S'1'
sS'Lost'
p5034
S'4'
sS'Drop'
p5035
S'0'
sS'Start'
p5036
S'6'
sS'Won'
p5037
S'3'
sS'Draw'
p5038
S'0'
sS'%'
S'42.85'
p5039
sS'Mat'
p5040
S'7'
sS'Conv'
p5041
S'0'
sS'Tries'
p5042
S'2'
sS'Pts'
p5043
S'10'
p5044
sa(dp5045
S'Pens'
p5046
S'0'
sS'Sub'
p5047
S'0'
sS'Lost'
p5048
S'4'
sS'Drop'
p5049
S'0'
sS'Start'
p5050
S'8'
sS'Won'
p5051
S'4'
sS'Draw'
p5052
S'0'
sS'%'
S'50.00'
p5053
sS'Mat'
p5054
S'8'
sS'Conv'
p5055
S'0'
sS'Tries'
p5056
S'0'
sS'Pts'
p5057
S'0'
sa(dp5058
S'Pens'
p5059
S'32'
p5060
sS'Sub'
p5061
S'1'
sS'Lost'
p5062
S'11'
p5063
sS'Drop'
p5064
S'1'
sS'Start'
p5065
S'19'
p5066
sS'Won'
p5067
S'9'
sS'Draw'
p5068
S'0'
sS'%'
S'45.00'
p5069
sS'Mat'
p5070
S'20'
p5071
sS'Conv'
p5072
S'33'
p5073
sS'Tries'
p5074
S'5'
sS'Pts'
p5075
S'190'
p5076
sa(dp5077
S'Pens'
p5078
S'0'
sS'Sub'
p5079
S'2'
sS'Lost'
p5080
S'5'
sS'Drop'
p5081
S'0'
sS'Start'
p5082
S'4'
sS'Won'
p5083
S'1'
sS'Draw'
p5084
S'0'
sS'%'
S'16.66'
p5085
sS'Mat'
p5086
S'6'
sS'Conv'
p5087
S'0'
sS'Tries'
p5088
S'1'
sS'Pts'
p5089
S'5'
sa(dp5090
S'Pens'
p5091
S'0'
sS'Sub'
p5092
S'0'
sS'Lost'
p5093
S'5'
sS'Drop'
p5094
S'0'
sS'Start'
p5095
S'9'
sS'Won'
p5096
S'4'
sS'Draw'
p5097
S'0'
sS'%'
S'44.44'
p5098
sS'Mat'
p5099
S'9'
sS'Conv'
p5100
S'0'
sS'Tries'
p5101
S'0'
sS'Pts'
p5102
S'0'
sa(dp5103
S'Pens'
p5104
S'0'
sS'Sub'
p5105
S'1'
sS'Lost'
p5106
S'3'
sS'Drop'
p5107
S'0'
sS'Start'
p5108
S'3'
sS'Won'
p5109
S'1'
sS'Draw'
p5110
S'0'
sS'%'
S'25.00'
p5111
sS'Mat'
p5112
S'4'
sS'Conv'
p5113
S'0'
sS'Tries'
p5114
S'0'
sS'Pts'
p5115
S'0'
sa(dp5116
S'Pens'
p5117
S'0'
sS'Sub'
p5118
S'1'
sS'Lost'
p5119
S'4'
sS'Drop'
p5120
S'0'
sS'Start'
p5121
S'5'
sS'Won'
p5122
S'2'
sS'Draw'
p5123
S'0'
sS'%'
S'33.33'
p5124
sS'Mat'
p5125
S'6'
sS'Conv'
p5126
S'0'
sS'Tries'
p5127
S'0'
sS'Pts'
p5128
S'0'
sa(dp5129
S'Pens'
p5130
S'0'
sS'Sub'
p5131
S'3'
sS'Lost'
p5132
S'10'
p5133
sS'Drop'
p5134
S'0'
sS'Start'
p5135
S'13'
p5136
sS'Won'
p5137
S'5'
sS'Draw'
p5138
S'1'
sS'%'
S'34.37'
p5139
sS'Mat'
p5140
S'16'
p5141
sS'Conv'
p5142
S'0'
sS'Tries'
p5143
S'1'
sS'Pts'
p5144
S'5'
sa(dp5145
S'Pens'
p5146
S'0'
sS'Sub'
p5147
S'2'
sS'Lost'
p5148
S'2'
sS'Drop'
p5149
S'0'
sS'Start'
p5150
S'2'
sS'Won'
p5151
S'2'
sS'Draw'
p5152
S'0'
sS'%'
S'50.00'
p5153
sS'Mat'
p5154
S'4'
sS'Conv'
p5155
S'0'
sS'Tries'
p5156
S'0'
sS'Pts'
p5157
S'0'
sa(dp5158
S'Pens'
p5159
S'0'
sS'Sub'
p5160
S'0'
sS'Lost'
p5161
S'0'
sS'Drop'
p5162
S'0'
sS'Start'
p5163
S'1'
sS'Won'
p5164
S'1'
sS'Draw'
p5165
S'0'
sS'%'
S'100.00'
p5166
sS'Mat'
p5167
S'1'
sS'Conv'
p5168
S'0'
sS'Tries'
p5169
S'0'
sS'Pts'
p5170
S'0'
sa(dp5171
S'Pens'
p5172
S'0'
sS'Sub'
p5173
S'0'
sS'Lost'
p5174
S'4'
sS'Drop'
p5175
S'0'
sS'Start'
p5176
S'8'
sS'Won'
p5177
S'4'
sS'Draw'
p5178
S'0'
sS'%'
S'50.00'
p5179
sS'Mat'
p5180
S'8'
sS'Conv'
p5181
S'0'
sS'Tries'
p5182
S'1'
sS'Pts'
p5183
S'5'
sa(dp5184
S'Pens'
p5185
S'0'
sS'Sub'
p5186
S'1'
sS'Lost'
p5187
S'0'
sS'Drop'
p5188
S'0'
sS'Start'
p5189
S'3'
sS'Won'
p5190
S'4'
sS'Draw'
p5191
S'0'
sS'%'
S'100.00'
p5192
sS'Mat'
p5193
S'4'
sS'Conv'
p5194
S'0'
sS'Tries'
p5195
S'3'
sS'Pts'
p5196
S'15'
p5197
sa(dp5198
S'Pens'
p5199
S'0'
sS'Sub'
p5200
S'0'
sS'Lost'
p5201
S'2'
sS'Drop'
p5202
S'0'
sS'Start'
p5203
S'5'
sS'Won'
p5204
S'3'
sS'Draw'
p5205
S'0'
sS'%'
S'60.00'
p5206
sS'Mat'
p5207
S'5'
sS'Conv'
p5208
S'0'
sS'Tries'
p5209
S'1'
sS'Pts'
p5210
S'5'
sa(dp5211
S'Pens'
p5212
S'0'
sS'Sub'
p5213
S'1'
sS'Lost'
p5214
S'2'
sS'Drop'
p5215
S'0'
sS'Start'
p5216
S'4'
sS'Won'
p5217
S'3'
sS'Draw'
p5218
S'0'
sS'%'
S'60.00'
p5219
sS'Mat'
p5220
S'5'
sS'Conv'
p5221
S'0'
sS'Tries'
p5222
S'1'
sS'Pts'
p5223
S'5'
sa(dp5224
S'Pens'
p5225
S'0'
sS'Sub'
p5226
S'4'
sS'Lost'
p5227
S'10'
p5228
sS'Drop'
p5229
S'0'
sS'Start'
p5230
S'15'
p5231
sS'Won'
p5232
S'9'
sS'Draw'
p5233
S'0'
sS'%'
S'47.36'
p5234
sS'Mat'
p5235
S'19'
p5236
sS'Conv'
p5237
S'0'
sS'Tries'
p5238
S'2'
sS'Pts'
p5239
S'10'
p5240
sa(dp5241
S'Pens'
p5242
S'0'
sS'Sub'
p5243
S'0'
sS'Lost'
p5244
S'2'
sS'Drop'
p5245
S'0'
sS'Start'
p5246
S'2'
sS'Won'
p5247
S'0'
sS'Draw'
p5248
S'0'
sS'%'
S'0.00'
p5249
sS'Mat'
p5250
S'2'
sS'Conv'
p5251
S'0'
sS'Tries'
p5252
S'0'
sS'Pts'
p5253
S'0'
sa(dp5254
S'Pens'
p5255
S'0'
sS'Sub'
p5256
S'0'
sS'Lost'
p5257
S'2'
sS'Drop'
p5258
S'0'
sS'Start'
p5259
S'3'
sS'Won'
p5260
S'1'
sS'Draw'
p5261
S'0'
sS'%'
S'33.33'
p5262
sS'Mat'
p5263
S'3'
sS'Conv'
p5264
S'0'
sS'Tries'
p5265
S'0'
sS'Pts'
p5266
S'0'
sa(dp5267
S'Pens'
p5268
S'0'
sS'Sub'
p5269
S'0'
sS'Lost'
p5270
S'2'
sS'Drop'
p5271
S'0'
sS'Start'
p5272
S'3'
sS'Won'
p5273
S'1'
sS'Draw'
p5274
S'0'
sS'%'
S'33.33'
p5275
sS'Mat'
p5276
S'3'
sS'Conv'
p5277
S'0'
sS'Tries'
p5278
S'0'
sS'Pts'
p5279
S'0'
sa(dp5280
S'Pens'
p5281
S'0'
sS'Sub'
p5282
S'4'
sS'Lost'
p5283
S'21'
p5284
sS'Drop'
p5285
S'0'
sS'Start'
p5286
S'23'
p5287
sS'Won'
p5288
S'6'
sS'Draw'
p5289
S'0'
sS'%'
S'22.22'
p5290
sS'Mat'
p5291
S'27'
p5292
sS'Conv'
p5293
S'0'
sS'Tries'
p5294
S'3'
sS'Pts'
p5295
S'15'
p5296
sa(dp5297
S'Pens'
p5298
S'0'
sS'Sub'
p5299
S'1'
sS'Lost'
p5300
S'5'
sS'Drop'
p5301
S'0'
sS'Start'
p5302
S'11'
p5303
sS'Won'
p5304
S'7'
sS'Draw'
p5305
S'0'
sS'%'
S'58.33'
p5306
sS'Mat'
p5307
S'12'
p5308
sS'Conv'
p5309
S'0'
sS'Tries'
p5310
S'3'
sS'Pts'
p5311
S'15'
p5312
sa(dp5313
S'Pens'
p5314
S'2'
sS'Sub'
p5315
S'1'
sS'Lost'
p5316
S'1'
sS'Drop'
p5317
S'0'
sS'Start'
p5318
S'2'
sS'Won'
p5319
S'2'
sS'Draw'
p5320
S'0'
sS'%'
S'66.66'
p5321
sS'Mat'
p5322
S'3'
sS'Conv'
p5323
S'2'
sS'Tries'
p5324
S'0'
sS'Pts'
p5325
S'10'
p5326
sa(dp5327
S'Pens'
p5328
S'0'
sS'Sub'
p5329
S'1'
sS'Lost'
p5330
S'0'
sS'Drop'
p5331
S'0'
sS'Start'
p5332
S'0'
sS'Won'
p5333
S'1'
sS'Draw'
p5334
S'0'
sS'%'
S'100.00'
p5335
sS'Mat'
p5336
S'1'
sS'Conv'
p5337
S'0'
sS'Tries'
p5338
S'0'
sS'Pts'
p5339
S'0'
sa(dp5340
S'Pens'
p5341
S'0'
sS'Sub'
p5342
S'2'
sS'Lost'
p5343
S'5'
sS'Drop'
p5344
S'0'
sS'Start'
p5345
S'16'
p5346
sS'Won'
p5347
S'13'
p5348
sS'Draw'
p5349
S'0'
sS'%'
S'72.22'
p5350
sS'Mat'
p5351
S'18'
p5352
sS'Conv'
p5353
S'0'
sS'Tries'
p5354
S'6'
sS'Pts'
p5355
S'30'
p5356
sa(dp5357
S'Pens'
p5358
S'0'
sS'Sub'
p5359
S'1'
sS'Lost'
p5360
S'4'
sS'Drop'
p5361
S'0'
sS'Start'
p5362
S'4'
sS'Won'
p5363
S'1'
sS'Draw'
p5364
S'0'
sS'%'
S'20.00'
p5365
sS'Mat'
p5366
S'5'
sS'Conv'
p5367
S'0'
sS'Tries'
p5368
S'0'
sS'Pts'
p5369
S'0'
sa(dp5370
S'Pens'
p5371
S'0'
sS'Sub'
p5372
S'1'
sS'Lost'
p5373
S'1'
sS'Drop'
p5374
S'0'
sS'Start'
p5375
S'0'
sS'Won'
p5376
S'0'
sS'Draw'
p5377
S'0'
sS'%'
S'0.00'
p5378
sS'Mat'
p5379
S'1'
sS'Conv'
p5380
S'0'
sS'Tries'
p5381
S'0'
sS'Pts'
p5382
S'0'
sa(dp5383
S'Pens'
p5384
S'0'
sS'Sub'
p5385
S'0'
sS'Lost'
p5386
S'1'
sS'Drop'
p5387
S'0'
sS'Start'
p5388
S'1'
sS'Won'
p5389
S'0'
sS'Draw'
p5390
S'0'
sS'%'
S'0.00'
p5391
sS'Mat'
p5392
S'1'
sS'Conv'
p5393
S'0'
sS'Tries'
p5394
S'0'
sS'Pts'
p5395
S'0'
sa(dp5396
S'Pens'
p5397
S'0'
sS'Sub'
p5398
S'0'
sS'Lost'
p5399
S'1'
sS'Drop'
p5400
S'0'
sS'Start'
p5401
S'1'
sS'Won'
p5402
S'0'
sS'Draw'
p5403
S'0'
sS'%'
S'0.00'
p5404
sS'Mat'
p5405
S'1'
sS'Conv'
p5406
S'0'
sS'Tries'
p5407
S'0'
sS'Pts'
p5408
S'0'
sa(dp5409
S'Pens'
p5410
S'0'
sS'Sub'
p5411
S'0'
sS'Lost'
p5412
S'5'
sS'Drop'
p5413
S'0'
sS'Start'
p5414
S'8'
sS'Won'
p5415
S'3'
sS'Draw'
p5416
S'0'
sS'%'
S'37.50'
p5417
sS'Mat'
p5418
S'8'
sS'Conv'
p5419
S'0'
sS'Tries'
p5420
S'0'
sS'Pts'
p5421
S'0'
sa(dp5422
S'Pens'
p5423
S'0'
sS'Sub'
p5424
S'2'
sS'Lost'
p5425
S'13'
p5426
sS'Drop'
p5427
S'0'
sS'Start'
p5428
S'13'
p5429
sS'Won'
p5430
S'2'
sS'Draw'
p5431
S'0'
sS'%'
S'13.33'
p5432
sS'Mat'
p5433
S'15'
p5434
sS'Conv'
p5435
S'0'
sS'Tries'
p5436
S'2'
sS'Pts'
p5437
S'10'
p5438
sa(dp5439
S'Pens'
p5440
S'0'
sS'Sub'
p5441
S'0'
sS'Lost'
p5442
S'4'
sS'Drop'
p5443
S'0'
sS'Start'
p5444
S'6'
sS'Won'
p5445
S'2'
sS'Draw'
p5446
S'0'
sS'%'
S'33.33'
p5447
sS'Mat'
p5448
S'6'
sS'Conv'
p5449
S'0'
sS'Tries'
p5450
S'1'
sS'Pts'
p5451
S'5'
sa(dp5452
S'Pens'
p5453
S'0'
sS'Sub'
p5454
S'2'
sS'Lost'
p5455
S'13'
p5456
sS'Drop'
p5457
S'0'
sS'Start'
p5458
S'21'
p5459
sS'Won'
p5460
S'10'
p5461
sS'Draw'
p5462
S'0'
sS'%'
S'43.47'
p5463
sS'Mat'
p5464
S'23'
p5465
sS'Conv'
p5466
S'0'
sS'Tries'
p5467
S'3'
sS'Pts'
p5468
S'15'
p5469
sa(dp5470
S'Pens'
p5471
S'12'
p5472
sS'Sub'
p5473
S'3'
sS'Lost'
p5474
S'13'
p5475
sS'Drop'
p5476
S'0'
sS'Start'
p5477
S'23'
p5478
sS'Won'
p5479
S'12'
p5480
sS'Draw'
p5481
S'1'
sS'%'
S'48.07'
p5482
sS'Mat'
p5483
S'26'
p5484
sS'Conv'
p5485
S'6'
sS'Tries'
p5486
S'14'
p5487
sS'Pts'
p5488
S'118'
p5489
sa(dp5490
S'Pens'
p5491
S'0'
sS'Sub'
p5492
S'3'
sS'Lost'
p5493
S'2'
sS'Drop'
p5494
S'0'
sS'Start'
p5495
S'4'
sS'Won'
p5496
S'4'
sS'Draw'
p5497
S'1'
sS'%'
S'64.28'
p5498
sS'Mat'
p5499
S'7'
sS'Conv'
p5500
S'0'
sS'Tries'
p5501
S'0'
sS'Pts'
p5502
S'0'
sa(dp5503
S'Pens'
p5504
S'0'
sS'Sub'
p5505
S'2'
sS'Lost'
p5506
S'12'
p5507
sS'Drop'
p5508
S'0'
sS'Start'
p5509
S'21'
p5510
sS'Won'
p5511
S'10'
p5512
sS'Draw'
p5513
S'1'
sS'%'
S'45.65'
p5514
sS'Mat'
p5515
S'23'
p5516
sS'Conv'
p5517
S'0'
sS'Tries'
p5518
S'10'
p5519
sS'Pts'
p5520
S'50'
p5521
sa(dp5522
S'Pens'
p5523
S'15'
p5524
sS'Sub'
p5525
S'1'
sS'Lost'
p5526
S'6'
sS'Drop'
p5527
S'0'
sS'Start'
p5528
S'12'
p5529
sS'Won'
p5530
S'7'
sS'Draw'
p5531
S'0'
sS'%'
S'53.84'
p5532
sS'Mat'
p5533
S'13'
p5534
sS'Conv'
p5535
S'32'
p5536
sS'Tries'
p5537
S'1'
sS'Pts'
p5538
S'114'
p5539
sa(dp5540
S'Pens'
p5541
S'0'
sS'Sub'
p5542
S'6'
sS'Lost'
p5543
S'14'
p5544
sS'Drop'
p5545
S'0'
sS'Start'
p5546
S'15'
p5547
sS'Won'
p5548
S'7'
sS'Draw'
p5549
S'0'
sS'%'
S'33.33'
p5550
sS'Mat'
p5551
S'21'
p5552
sS'Conv'
p5553
S'0'
sS'Tries'
p5554
S'1'
sS'Pts'
p5555
S'5'
sa(dp5556
S'Pens'
p5557
S'0'
sS'Sub'
p5558
S'0'
sS'Lost'
p5559
S'4'
sS'Drop'
p5560
S'0'
sS'Start'
p5561
S'7'
sS'Won'
p5562
S'3'
sS'Draw'
p5563
S'0'
sS'%'
S'42.85'
p5564
sS'Mat'
p5565
S'7'
sS'Conv'
p5566
S'0'
sS'Tries'
p5567
S'1'
sS'Pts'
p5568
S'5'
sa(dp5569
S'Pens'
p5570
S'0'
sS'Sub'
p5571
S'3'
sS'Lost'
p5572
S'9'
sS'Drop'
p5573
S'0'
sS'Start'
p5574
S'10'
p5575
sS'Won'
p5576
S'4'
sS'Draw'
p5577
S'0'
sS'%'
S'30.76'
p5578
sS'Mat'
p5579
S'13'
p5580
sS'Conv'
p5581
S'0'
sS'Tries'
p5582
S'5'
sS'Pts'
p5583
S'25'
p5584
sa(dp5585
S'Pens'
p5586
S'0'
sS'Sub'
p5587
S'0'
sS'Lost'
p5588
S'1'
sS'Drop'
p5589
S'0'
sS'Start'
p5590
S'6'
sS'Won'
p5591
S'5'
sS'Draw'
p5592
S'0'
sS'%'
S'83.33'
p5593
sS'Mat'
p5594
S'6'
sS'Conv'
p5595
S'0'
sS'Tries'
p5596
S'0'
sS'Pts'
p5597
S'0'
sa(dp5598
S'Pens'
p5599
S'0'
sS'Sub'
p5600
S'0'
sS'Lost'
p5601
S'1'
sS'Drop'
p5602
S'0'
sS'Start'
p5603
S'3'
sS'Won'
p5604
S'2'
sS'Draw'
p5605
S'0'
sS'%'
S'66.66'
p5606
sS'Mat'
p5607
S'3'
sS'Conv'
p5608
S'0'
sS'Tries'
p5609
S'0'
sS'Pts'
p5610
S'0'
sa(dp5611
S'Pens'
p5612
S'0'
sS'Sub'
p5613
S'0'
sS'Lost'
p5614
S'3'
sS'Drop'
p5615
S'0'
sS'Start'
p5616
S'6'
sS'Won'
p5617
S'3'
sS'Draw'
p5618
S'0'
sS'%'
S'50.00'
p5619
sS'Mat'
p5620
S'6'
sS'Conv'
p5621
S'0'
sS'Tries'
p5622
S'1'
sS'Pts'
p5623
S'5'
sa(dp5624
S'Pens'
p5625
S'0'
sS'Sub'
p5626
S'1'
sS'Lost'
p5627
S'1'
sS'Drop'
p5628
S'0'
sS'Start'
p5629
S'2'
sS'Won'
p5630
S'2'
sS'Draw'
p5631
S'0'
sS'%'
S'66.66'
p5632
sS'Mat'
p5633
S'3'
sS'Conv'
p5634
S'0'
sS'Tries'
p5635
S'0'
sS'Pts'
p5636
S'0'
sa(dp5637
S'Pens'
p5638
S'0'
sS'Sub'
p5639
S'13'
p5640
sS'Lost'
p5641
S'10'
p5642
sS'Drop'
p5643
S'0'
sS'Start'
p5644
S'7'
sS'Won'
p5645
S'9'
sS'Draw'
p5646
S'1'
sS'%'
S'47.50'
p5647
sS'Mat'
p5648
S'20'
p5649
sS'Conv'
p5650
S'0'
sS'Tries'
p5651
S'2'
sS'Pts'
p5652
S'10'
p5653
sa(dp5654
S'Pens'
p5655
S'0'
sS'Sub'
p5656
S'2'
sS'Lost'
p5657
S'3'
sS'Drop'
p5658
S'0'
sS'Start'
p5659
S'2'
sS'Won'
p5660
S'1'
sS'Draw'
p5661
S'0'
sS'%'
S'25.00'
p5662
sS'Mat'
p5663
S'4'
sS'Conv'
p5664
S'0'
sS'Tries'
p5665
S'0'
sS'Pts'
p5666
S'0'
sa(dp5667
S'Pens'
p5668
S'1'
sS'Sub'
p5669
S'1'
sS'Lost'
p5670
S'12'
p5671
sS'Drop'
p5672
S'0'
sS'Start'
p5673
S'20'
p5674
sS'Won'
p5675
S'8'
sS'Draw'
p5676
S'1'
sS'%'
S'40.47'
p5677
sS'Mat'
p5678
S'21'
p5679
sS'Conv'
p5680
S'0'
sS'Tries'
p5681
S'6'
sS'Pts'
p5682
S'33'
p5683
sa(dp5684
S'Pens'
p5685
S'0'
sS'Sub'
p5686
S'1'
sS'Lost'
p5687
S'3'
sS'Drop'
p5688
S'0'
sS'Start'
p5689
S'2'
sS'Won'
p5690
S'0'
sS'Draw'
p5691
S'0'
sS'%'
S'0.00'
p5692
sS'Mat'
p5693
S'3'
sS'Conv'
p5694
S'0'
sS'Tries'
p5695
S'0'
sS'Pts'
p5696
S'0'
sa(dp5697
S'Pens'
p5698
S'0'
sS'Sub'
p5699
S'1'
sS'Lost'
p5700
S'5'
sS'Drop'
p5701
S'0'
sS'Start'
p5702
S'5'
sS'Won'
p5703
S'1'
sS'Draw'
p5704
S'0'
sS'%'
S'16.66'
p5705
sS'Mat'
p5706
S'6'
sS'Conv'
p5707
S'0'
sS'Tries'
p5708
S'1'
sS'Pts'
p5709
S'5'
sa(dp5710
S'Pens'
p5711
S'0'
sS'Sub'
p5712
S'0'
sS'Lost'
p5713
S'1'
sS'Drop'
p5714
S'0'
sS'Start'
p5715
S'1'
sS'Won'
p5716
S'0'
sS'Draw'
p5717
S'0'
sS'%'
S'0.00'
p5718
sS'Mat'
p5719
S'1'
sS'Conv'
p5720
S'0'
sS'Tries'
p5721
S'0'
sS'Pts'
p5722
S'0'
sa(dp5723
S'Pens'
p5724
S'0'
sS'Sub'
p5725
S'2'
sS'Lost'
p5726
S'8'
sS'Drop'
p5727
S'0'
sS'Start'
p5728
S'10'
p5729
sS'Won'
p5730
S'4'
sS'Draw'
p5731
S'0'
sS'%'
S'33.33'
p5732
sS'Mat'
p5733
S'12'
p5734
sS'Conv'
p5735
S'0'
sS'Tries'
p5736
S'0'
sS'Pts'
p5737
S'0'
sa(dp5738
S'Pens'
p5739
S'0'
sS'Sub'
p5740
S'17'
p5741
sS'Lost'
p5742
S'25'
p5743
sS'Drop'
p5744
S'0'
sS'Start'
p5745
S'15'
p5746
sS'Won'
p5747
S'7'
sS'Draw'
p5748
S'0'
sS'%'
S'21.87'
p5749
sS'Mat'
p5750
S'32'
p5751
sS'Conv'
p5752
S'0'
sS'Tries'
p5753
S'3'
sS'Pts'
p5754
S'15'
p5755
sa(dp5756
S'Pens'
p5757
S'0'
sS'Sub'
p5758
S'0'
sS'Lost'
p5759
S'1'
sS'Drop'
p5760
S'0'
sS'Start'
p5761
S'1'
sS'Won'
p5762
S'0'
sS'Draw'
p5763
S'0'
sS'%'
S'0.00'
p5764
sS'Mat'
p5765
S'1'
sS'Conv'
p5766
S'0'
sS'Tries'
p5767
S'0'
sS'Pts'
p5768
S'0'
sa(dp5769
S'Pens'
p5770
S'0'
sS'Sub'
p5771
S'10'
p5772
sS'Lost'
p5773
S'19'
p5774
sS'Drop'
p5775
S'1'
sS'Start'
p5776
S'19'
p5777
sS'Won'
p5778
S'9'
sS'Draw'
p5779
S'1'
sS'%'
S'32.75'
p5780
sS'Mat'
p5781
S'29'
p5782
sS'Conv'
p5783
S'0'
sS'Tries'
p5784
S'2'
sS'Pts'
p5785
S'13'
p5786
sa(dp5787
S'Pens'
p5788
S'0'
sS'Sub'
p5789
S'1'
sS'Lost'
p5790
S'1'
sS'Drop'
p5791
S'0'
sS'Start'
p5792
S'0'
sS'Won'
p5793
S'0'
sS'Draw'
p5794
S'0'
sS'%'
S'0.00'
p5795
sS'Mat'
p5796
S'1'
sS'Conv'
p5797
S'0'
sS'Tries'
p5798
S'0'
sS'Pts'
p5799
S'0'
sa(dp5800
S'Pens'
p5801
S'0'
sS'Sub'
p5802
S'1'
sS'Lost'
p5803
S'2'
sS'Drop'
p5804
S'0'
sS'Start'
p5805
S'1'
sS'Won'
p5806
S'0'
sS'Draw'
p5807
S'0'
sS'%'
S'0.00'
p5808
sS'Mat'
p5809
S'2'
sS'Conv'
p5810
S'0'
sS'Tries'
p5811
S'1'
sS'Pts'
p5812
S'5'
sa(dp5813
S'Pens'
p5814
S'0'
sS'Sub'
p5815
S'1'
sS'Lost'
p5816
S'8'
sS'Drop'
p5817
S'0'
sS'Start'
p5818
S'12'
p5819
sS'Won'
p5820
S'4'
sS'Draw'
p5821
S'1'
sS'%'
S'34.61'
p5822
sS'Mat'
p5823
S'13'
p5824
sS'Conv'
p5825
S'0'
sS'Tries'
p5826
S'1'
sS'Pts'
p5827
S'5'
sa(dp5828
S'Pens'
p5829
S'40'
p5830
sS'Sub'
p5831
S'1'
sS'Lost'
p5832
S'27'
p5833
sS'Drop'
p5834
S'3'
sS'Start'
p5835
S'39'
p5836
sS'Won'
p5837
S'13'
p5838
sS'Draw'
p5839
S'0'
sS'%'
S'32.50'
p5840
sS'Mat'
p5841
S'40'
p5842
sS'Conv'
p5843
S'69'
p5844
sS'Tries'
p5845
S'11'
p5846
sS'Pts'
p5847
S'322'
p5848
sa(dp5849
S'Pens'
p5850
S'0'
sS'Sub'
p5851
S'4'
sS'Lost'
p5852
S'24'
p5853
sS'Drop'
p5854
S'0'
sS'Start'
p5855
S'35'
p5856
sS'Won'
p5857
S'14'
p5858
sS'Draw'
p5859
S'1'
sS'%'
S'37.17'
p5860
sS'Mat'
p5861
S'39'
p5862
sS'Conv'
p5863
S'0'
sS'Tries'
p5864
S'8'
sS'Pts'
p5865
S'40'
p5866
sa(dp5867
S'Pens'
p5868
S'0'
sS'Sub'
p5869
S'0'
sS'Lost'
p5870
S'9'
sS'Drop'
p5871
S'0'
sS'Start'
p5872
S'15'
p5873
sS'Won'
p5874
S'6'
sS'Draw'
p5875
S'0'
sS'%'
S'40.00'
p5876
sS'Mat'
p5877
S'15'
p5878
sS'Conv'
p5879
S'0'
sS'Tries'
p5880
S'6'
sS'Pts'
p5881
S'30'
p5882
sa(dp5883
S'Pens'
p5884
S'2'
sS'Sub'
p5885
S'1'
sS'Lost'
p5886
S'11'
p5887
sS'Drop'
p5888
S'0'
sS'Start'
p5889
S'16'
p5890
sS'Won'
p5891
S'5'
sS'Draw'
p5892
S'1'
sS'%'
S'32.35'
p5893
sS'Mat'
p5894
S'17'
p5895
sS'Conv'
p5896
S'5'
sS'Tries'
p5897
S'5'
sS'Pts'
p5898
S'41'
p5899
sa(dp5900
S'Pens'
p5901
S'1'
sS'Sub'
p5902
S'1'
sS'Lost'
p5903
S'5'
sS'Drop'
p5904
S'0'
sS'Start'
p5905
S'8'
sS'Won'
p5906
S'3'
sS'Draw'
p5907
S'1'
sS'%'
S'38.88'
p5908
sS'Mat'
p5909
S'9'
sS'Conv'
p5910
S'0'
sS'Tries'
p5911
S'0'
sS'Pts'
p5912
S'3'
sa(dp5913
S'Pens'
p5914
S'0'
sS'Sub'
p5915
S'2'
sS'Lost'
p5916
S'4'
sS'Drop'
p5917
S'0'
sS'Start'
p5918
S'3'
sS'Won'
p5919
S'1'
sS'Draw'
p5920
S'0'
sS'%'
S'20.00'
p5921
sS'Mat'
p5922
S'5'
sS'Conv'
p5923
S'0'
sS'Tries'
p5924
S'0'
sS'Pts'
p5925
S'0'
sa(dp5926
S'Pens'
p5927
S'0'
sS'Sub'
p5928
S'2'
sS'Lost'
p5929
S'3'
sS'Drop'
p5930
S'0'
sS'Start'
p5931
S'1'
sS'Won'
p5932
S'0'
sS'Draw'
p5933
S'0'
sS'%'
S'0.00'
p5934
sS'Mat'
p5935
S'3'
sS'Conv'
p5936
S'0'
sS'Tries'
p5937
S'0'
sS'Pts'
p5938
S'0'
sa(dp5939
S'Pens'
p5940
S'0'
sS'Sub'
p5941
S'3'
sS'Lost'
p5942
S'4'
sS'Drop'
p5943
S'0'
sS'Start'
p5944
S'4'
sS'Won'
p5945
S'3'
sS'Draw'
p5946
S'0'
sS'%'
S'42.85'
p5947
sS'Mat'
p5948
S'7'
sS'Conv'
p5949
S'0'
sS'Tries'
p5950
S'1'
sS'Pts'
p5951
S'5'
sa(dp5952
S'Pens'
p5953
S'0'
sS'Sub'
p5954
S'5'
sS'Lost'
p5955
S'9'
sS'Drop'
p5956
S'0'
sS'Start'
p5957
S'8'
sS'Won'
p5958
S'4'
sS'Draw'
p5959
S'0'
sS'%'
S'30.76'
p5960
sS'Mat'
p5961
S'13'
p5962
sS'Conv'
p5963
S'0'
sS'Tries'
p5964
S'1'
sS'Pts'
p5965
S'5'
sa(dp5966
S'Pens'
p5967
S'0'
sS'Sub'
p5968
S'3'
sS'Lost'
p5969
S'5'
sS'Drop'
p5970
S'0'
sS'Start'
p5971
S'7'
sS'Won'
p5972
S'4'
sS'Draw'
p5973
S'1'
sS'%'
S'45.00'
p5974
sS'Mat'
p5975
S'10'
p5976
sS'Conv'
p5977
S'0'
sS'Tries'
p5978
S'0'
sS'Pts'
p5979
S'0'
sa(dp5980
S'Pens'
p5981
S'0'
sS'Sub'
p5982
S'4'
sS'Lost'
p5983
S'22'
p5984
sS'Drop'
p5985
S'0'
sS'Start'
p5986
S'28'
p5987
sS'Won'
p5988
S'9'
sS'Draw'
p5989
S'1'
sS'%'
S'29.68'
p5990
sS'Mat'
p5991
S'32'
p5992
sS'Conv'
p5993
S'0'
sS'Tries'
p5994
S'3'
sS'Pts'
p5995
S'15'
p5996
sa(dp5997
S'Pens'
p5998
S'0'
sS'Sub'
p5999
S'1'
sS'Lost'
p6000
S'1'
sS'Drop'
p6001
S'0'
sS'Start'
p6002
S'0'
sS'Won'
p6003
S'0'
sS'Draw'
p6004
S'0'
sS'%'
S'0.00'
p6005
sS'Mat'
p6006
S'1'
sS'Conv'
p6007
S'0'
sS'Tries'
p6008
S'0'
sS'Pts'
p6009
S'0'
sa(dp6010
S'Pens'
p6011
S'0'
sS'Sub'
p6012
S'0'
sS'Lost'
p6013
S'5'
sS'Drop'
p6014
S'0'
sS'Start'
p6015
S'9'
sS'Won'
p6016
S'4'
sS'Draw'
p6017
S'0'
sS'%'
S'44.44'
p6018
sS'Mat'
p6019
S'9'
sS'Conv'
p6020
S'0'
sS'Tries'
p6021
S'4'
sS'Pts'
p6022
S'20'
p6023
sa(dp6024
S'Pens'
p6025
S'0'
sS'Sub'
p6026
S'0'
sS'Lost'
p6027
S'4'
sS'Drop'
p6028
S'0'
sS'Start'
p6029
S'9'
sS'Won'
p6030
S'4'
sS'Draw'
p6031
S'1'
sS'%'
S'50.00'
p6032
sS'Mat'
p6033
S'9'
sS'Conv'
p6034
S'0'
sS'Tries'
p6035
S'0'
sS'Pts'
p6036
S'0'
sa(dp6037
S'Pens'
p6038
S'0'
sS'Sub'
p6039
S'10'
p6040
sS'Lost'
p6041
S'32'
p6042
sS'Drop'
p6043
S'0'
sS'Start'
p6044
S'35'
p6045
sS'Won'
p6046
S'12'
p6047
sS'Draw'
p6048
S'1'
sS'%'
S'27.77'
p6049
sS'Mat'
p6050
S'45'
p6051
sS'Conv'
p6052
S'0'
sS'Tries'
p6053
S'5'
sS'Pts'
p6054
S'25'
p6055
sa(dp6056
S'Pens'
p6057
S'0'
sS'Sub'
p6058
S'5'
sS'Lost'
p6059
S'23'
p6060
sS'Drop'
p6061
S'0'
sS'Start'
p6062
S'30'
p6063
sS'Won'
p6064
S'12'
p6065
sS'Draw'
p6066
S'0'
sS'%'
S'34.28'
p6067
sS'Mat'
p6068
S'35'
p6069
sS'Conv'
p6070
S'1'
sS'Tries'
p6071
S'2'
sS'Pts'
p6072
S'12'
p6073
sa(dp6074
S'Pens'
p6075
S'5'
sS'Sub'
p6076
S'1'
sS'Lost'
p6077
S'4'
sS'Drop'
p6078
S'0'
sS'Start'
p6079
S'4'
sS'Won'
p6080
S'1'
sS'Draw'
p6081
S'0'
sS'%'
S'20.00'
p6082
sS'Mat'
p6083
S'5'
sS'Conv'
p6084
S'6'
sS'Tries'
p6085
S'1'
sS'Pts'
p6086
S'32'
p6087
sa(dp6088
S'Pens'
p6089
S'0'
sS'Sub'
p6090
S'2'
sS'Lost'
p6091
S'6'
sS'Drop'
p6092
S'0'
sS'Start'
p6093
S'4'
sS'Won'
p6094
S'0'
sS'Draw'
p6095
S'0'
sS'%'
S'0.00'
p6096
sS'Mat'
p6097
S'6'
sS'Conv'
p6098
S'0'
sS'Tries'
p6099
S'0'
sS'Pts'
p6100
S'0'
sa(dp6101
S'Pens'
p6102
S'0'
sS'Sub'
p6103
S'0'
sS'Lost'
p6104
S'3'
sS'Drop'
p6105
S'0'
sS'Start'
p6106
S'6'
sS'Won'
p6107
S'2'
sS'Draw'
p6108
S'1'
sS'%'
S'41.66'
p6109
sS'Mat'
p6110
S'6'
sS'Conv'
p6111
S'0'
sS'Tries'
p6112
S'2'
sS'Pts'
p6113
S'10'
p6114
sa(dp6115
S'Pens'
p6116
S'0'
sS'Sub'
p6117
S'2'
sS'Lost'
p6118
S'8'
sS'Drop'
p6119
S'0'
sS'Start'
p6120
S'10'
p6121
sS'Won'
p6122
S'3'
sS'Draw'
p6123
S'1'
sS'%'
S'29.16'
p6124
sS'Mat'
p6125
S'12'
p6126
sS'Conv'
p6127
S'0'
sS'Tries'
p6128
S'1'
sS'Pts'
p6129
S'5'
sa(dp6130
S'Pens'
p6131
S'0'
sS'Sub'
p6132
S'7'
sS'Lost'
p6133
S'17'
p6134
sS'Drop'
p6135
S'0'
sS'Start'
p6136
S'17'
p6137
sS'Won'
p6138
S'7'
sS'Draw'
p6139
S'0'
sS'%'
S'29.16'
p6140
sS'Mat'
p6141
S'24'
p6142
sS'Conv'
p6143
S'0'
sS'Tries'
p6144
S'3'
sS'Pts'
p6145
S'15'
p6146
sa(dp6147
S'Pens'
p6148
S'0'
sS'Sub'
p6149
S'0'
sS'Lost'
p6150
S'1'
sS'Drop'
p6151
S'0'
sS'Start'
p6152
S'1'
sS'Won'
p6153
S'0'
sS'Draw'
p6154
S'0'
sS'%'
S'0.00'
p6155
sS'Mat'
p6156
S'1'
sS'Conv'
p6157
S'0'
sS'Tries'
p6158
S'0'
sS'Pts'
p6159
S'0'
sa(dp6160
S'Pens'
p6161
S'0'
sS'Sub'
p6162
S'7'
sS'Lost'
p6163
S'17'
p6164
sS'Drop'
p6165
S'0'
sS'Start'
p6166
S'17'
p6167
sS'Won'
p6168
S'7'
sS'Draw'
p6169
S'0'
sS'%'
S'29.16'
p6170
sS'Mat'
p6171
S'24'
p6172
sS'Conv'
p6173
S'0'
sS'Tries'
p6174
S'5'
sS'Pts'
p6175
S'25'
p6176
sa(dp6177
S'Pens'
p6178
S'0'
sS'Sub'
p6179
S'2'
sS'Lost'
p6180
S'9'
sS'Drop'
p6181
S'0'
sS'Start'
p6182
S'12'
p6183
sS'Won'
p6184
S'5'
sS'Draw'
p6185
S'0'
sS'%'
S'35.71'
p6186
sS'Mat'
p6187
S'14'
p6188
sS'Conv'
p6189
S'0'
sS'Tries'
p6190
S'4'
sS'Pts'
p6191
S'20'
p6192
sa(dp6193
S'Pens'
p6194
S'0'
sS'Sub'
p6195
S'0'
sS'Lost'
p6196
S'1'
sS'Drop'
p6197
S'0'
sS'Start'
p6198
S'1'
sS'Won'
p6199
S'0'
sS'Draw'
p6200
S'0'
sS'%'
S'0.00'
p6201
sS'Mat'
p6202
S'1'
sS'Conv'
p6203
S'0'
sS'Tries'
p6204
S'0'
sS'Pts'
p6205
S'0'
sa(dp6206
S'Pens'
p6207
S'0'
sS'Sub'
p6208
S'1'
sS'Lost'
p6209
S'3'
sS'Drop'
p6210
S'0'
sS'Start'
p6211
S'5'
sS'Won'
p6212
S'3'
sS'Draw'
p6213
S'0'
sS'%'
S'50.00'
p6214
sS'Mat'
p6215
S'6'
sS'Conv'
p6216
S'0'
sS'Tries'
p6217
S'1'
sS'Pts'
p6218
S'5'
sa(dp6219
S'Pens'
p6220
S'0'
sS'Sub'
p6221
S'4'
sS'Lost'
p6222
S'4'
sS'Drop'
p6223
S'0'
sS'Start'
p6224
S'4'
sS'Won'
p6225
S'4'
sS'Draw'
p6226
S'0'
sS'%'
S'50.00'
p6227
sS'Mat'
p6228
S'8'
sS'Conv'
p6229
S'0'
sS'Tries'
p6230
S'4'
sS'Pts'
p6231
S'20'
p6232
sa(dp6233
S'Pens'
p6234
S'0'
sS'Sub'
p6235
S'5'
sS'Lost'
p6236
S'6'
sS'Drop'
p6237
S'0'
sS'Start'
p6238
S'2'
sS'Won'
p6239
S'1'
sS'Draw'
p6240
S'0'
sS'%'
S'14.28'
p6241
sS'Mat'
p6242
S'7'
sS'Conv'
p6243
S'0'
sS'Tries'
p6244
S'0'
sS'Pts'
p6245
S'0'
sa(dp6246
S'Pens'
p6247
S'0'
sS'Sub'
p6248
S'3'
sS'Lost'
p6249
S'6'
sS'Drop'
p6250
S'0'
sS'Start'
p6251
S'6'
sS'Won'
p6252
S'3'
sS'Draw'
p6253
S'0'
sS'%'
S'33.33'
p6254
sS'Mat'
p6255
S'9'
sS'Conv'
p6256
S'0'
sS'Tries'
p6257
S'2'
sS'Pts'
p6258
S'10'
p6259
sa(dp6260
S'Pens'
p6261
S'0'
sS'Sub'
p6262
S'3'
sS'Lost'
p6263
S'4'
sS'Drop'
p6264
S'0'
sS'Start'
p6265
S'1'
sS'Won'
p6266
S'0'
sS'Draw'
p6267
S'0'
sS'%'
S'0.00'
p6268
sS'Mat'
p6269
S'4'
sS'Conv'
p6270
S'0'
sS'Tries'
p6271
S'0'
sS'Pts'
p6272
S'0'
sa(dp6273
S'Pens'
p6274
S'0'
sS'Sub'
p6275
S'3'
sS'Lost'
p6276
S'5'
sS'Drop'
p6277
S'0'
sS'Start'
p6278
S'5'
sS'Won'
p6279
S'3'
sS'Draw'
p6280
S'0'
sS'%'
S'37.50'
p6281
sS'Mat'
p6282
S'8'
sS'Conv'
p6283
S'0'
sS'Tries'
p6284
S'5'
sS'Pts'
p6285
S'25'
p6286
sa(dp6287
S'Pens'
p6288
S'0'
sS'Sub'
p6289
S'8'
sS'Lost'
p6290
S'17'
p6291
sS'Drop'
p6292
S'0'
sS'Start'
p6293
S'20'
p6294
sS'Won'
p6295
S'11'
p6296
sS'Draw'
p6297
S'0'
sS'%'
S'39.28'
p6298
sS'Mat'
p6299
S'28'
p6300
sS'Conv'
p6301
S'0'
sS'Tries'
p6302
S'0'
sS'Pts'
p6303
S'0'
sa(dp6304
S'Pens'
p6305
S'0'
sS'Sub'
p6306
S'0'
sS'Lost'
p6307
S'1'
sS'Drop'
p6308
S'0'
sS'Start'
p6309
S'1'
sS'Won'
p6310
S'0'
sS'Draw'
p6311
S'0'
sS'%'
S'0.00'
p6312
sS'Mat'
p6313
S'1'
sS'Conv'
p6314
S'0'
sS'Tries'
p6315
S'0'
sS'Pts'
p6316
S'0'
sa(dp6317
S'Pens'
p6318
S'0'
sS'Sub'
p6319
S'2'
sS'Lost'
p6320
S'1'
sS'Drop'
p6321
S'0'
sS'Start'
p6322
S'0'
sS'Won'
p6323
S'1'
sS'Draw'
p6324
S'0'
sS'%'
S'50.00'
p6325
sS'Mat'
p6326
S'2'
sS'Conv'
p6327
S'0'
sS'Tries'
p6328
S'0'
sS'Pts'
p6329
S'0'
sa(dp6330
S'Pens'
p6331
S'0'
sS'Sub'
p6332
S'2'
sS'Lost'
p6333
S'2'
sS'Drop'
p6334
S'0'
sS'Start'
p6335
S'3'
sS'Won'
p6336
S'3'
sS'Draw'
p6337
S'0'
sS'%'
S'60.00'
p6338
sS'Mat'
p6339
S'5'
sS'Conv'
p6340
S'0'
sS'Tries'
p6341
S'3'
sS'Pts'
p6342
S'15'
p6343
sa(dp6344
S'Pens'
p6345
S'0'
sS'Sub'
p6346
S'4'
sS'Lost'
p6347
S'10'
p6348
sS'Drop'
p6349
S'0'
sS'Start'
p6350
S'12'
p6351
sS'Won'
p6352
S'6'
sS'Draw'
p6353
S'0'
sS'%'
S'37.50'
p6354
sS'Mat'
p6355
S'16'
p6356
sS'Conv'
p6357
S'0'
sS'Tries'
p6358
S'2'
sS'Pts'
p6359
S'10'
p6360
sa(dp6361
S'Pens'
p6362
S'0'
sS'Sub'
p6363
S'2'
sS'Lost'
p6364
S'3'
sS'Drop'
p6365
S'0'
sS'Start'
p6366
S'4'
sS'Won'
p6367
S'3'
sS'Draw'
p6368
S'0'
sS'%'
S'50.00'
p6369
sS'Mat'
p6370
S'6'
sS'Conv'
p6371
S'0'
sS'Tries'
p6372
S'0'
sS'Pts'
p6373
S'0'
sa(dp6374
S'Pens'
p6375
S'0'
sS'Sub'
p6376
S'7'
sS'Lost'
p6377
S'26'
p6378
sS'Drop'
p6379
S'0'
sS'Start'
p6380
S'29'
p6381
sS'Won'
p6382
S'10'
p6383
sS'Draw'
p6384
S'0'
sS'%'
S'27.77'
p6385
sS'Mat'
p6386
S'36'
p6387
sS'Conv'
p6388
S'0'
sS'Tries'
p6389
S'7'
sS'Pts'
p6390
S'35'
p6391
sa(dp6392
S'Pens'
p6393
S'0'
sS'Sub'
p6394
S'6'
sS'Lost'
p6395
S'19'
p6396
sS'Drop'
p6397
S'0'
sS'Start'
p6398
S'16'
p6399
sS'Won'
p6400
S'3'
sS'Draw'
p6401
S'0'
sS'%'
S'13.63'
p6402
sS'Mat'
p6403
S'22'
p6404
sS'Conv'
p6405
S'0'
sS'Tries'
p6406
S'1'
sS'Pts'
p6407
S'5'
sa(dp6408
S'Pens'
p6409
S'0'
sS'Sub'
p6410
S'1'
sS'Lost'
p6411
S'12'
p6412
sS'Drop'
p6413
S'0'
sS'Start'
p6414
S'14'
p6415
sS'Won'
p6416
S'3'
sS'Draw'
p6417
S'0'
sS'%'
S'20.00'
p6418
sS'Mat'
p6419
S'15'
p6420
sS'Conv'
p6421
S'0'
sS'Tries'
p6422
S'0'
sS'Pts'
p6423
S'0'
sa(dp6424
S'Pens'
p6425
S'0'
sS'Sub'
p6426
S'1'
sS'Lost'
p6427
S'8'
sS'Drop'
p6428
S'0'
sS'Start'
p6429
S'8'
sS'Won'
p6430
S'1'
sS'Draw'
p6431
S'0'
sS'%'
S'11.11'
p6432
sS'Mat'
p6433
S'9'
sS'Conv'
p6434
S'0'
sS'Tries'
p6435
S'0'
sS'Pts'
p6436
S'0'
sa(dp6437
S'Pens'
p6438
S'0'
sS'Sub'
p6439
S'5'
sS'Lost'
p6440
S'7'
sS'Drop'
p6441
S'0'
sS'Start'
p6442
S'3'
sS'Won'
p6443
S'1'
sS'Draw'
p6444
S'0'
sS'%'
S'12.50'
p6445
sS'Mat'
p6446
S'8'
sS'Conv'
p6447
S'0'
sS'Tries'
p6448
S'0'
sS'Pts'
p6449
S'0'
sa.