(lp1
V(guess: regd Q1), West Derby, Lancs
p2
aVdate unknown, ?
p3
aVdate unknown, ?
p4
aVMay 10, 1850, Dublin
p5
aVcirca 1847, ?
p6
aVAugust 19, 1852, Ballycastle, Co Antri
p7
aVJuly 16, 1852, ?
p8
aVDecember 6, 1852, Bangalore
p9
aVSeptember 3, 1855, ?
p10
aVJuly 31, 1853, ?
p11
aVJune 16, 1853, Dublin
p12
aVJune 6, 1852, Dublin
p13
aVOctober 9, 1852, ?
p14
aVDecember 20, 1853, Newtonards, Co.Down, Northern Ireland
p15
aVcirca 1849, ?
p16
aVMarch 14, 1854, Newton-Saville, Tyron, Northern Ireland
p17
aVMarch 13, 1855, Limerick
p18
aVcirca 1850, Omagh
p19
aVAugust 8, 1854, Alabama, United States
p20
aVSeptember 16, 1853, Dublin
p21
aVApril 27, 1855, Tynemouth
p22
aVNovember 1, 1853, Wexford
p23
aVdate unknown, ?
p24
aVdate unknown, ?
p25
aVDecember 5, 1851, Hollyfort, Co.Wexford
p26
aVdate unknown, ?
p27
aVJune 12, 1856, Connor, Co.Antrim
p28
aVcirca 1853, Co.Dublin
p29
aVdate unknown, ?
p30
aVdate unknown, ?
p31
aV(guess: regd Q3), Carnarvon
p32
aVDecember 15, 1851, ?
p33
aVJuly 1, 1850, ?
p34
aVNovember 3, 1853, Clones, Co.Monaghan
p35
aVcirca 1849, ?
p36
aVMay 3, 1857, Newry
p37
aVOctober 29, 1856, Dublin
p38
aVNovember 25, 1852, ?
p39
aVdate unknown, ?
p40
aVcirca 1855, Moira, Co.Down
p41
aVMay 12, 1854, Dublin
p42
aVOctober 11, 1855, Belfast
p43
aVSeptember 14, 1849, ?
p44
aVNovember 27, 1858, Bengal
p45
aVdate unknown, ?
p46
aVdate unknown, ?
p47
aVJuly 3, 1857, Belfast
p48
aVcirca 1858, Connor, Co.Antrim
p49
aVApril 30, 1852, Bradford
p50
aVcirca 1856, Co.Kildare
p51
aVOctober 20, 1856, Ballymoe, Galway
p52
aVFebruary 4, 1858, Cork
p53
aVMarch 7, 1856, Shandon, Cork
p54
aVdate unknown, ?
p55
aVcirca 1855, West Indie
p56
aVJuly 25, 1856, Belfast
p57
aVNovember 9, 1856, Dublin
p58
aVJune 30, 1859, ?
p59
aVOctober 1858, ?
p60
aVDecember 25, 1856, Dublin
p61
aVMarch 31, 1850, Portloman, Westmeath
p62
aVMarch 10, 1860, Glendararry, Mayo
p63
aVcirca 1860
p64
aVOctober 13, 1859, Dublin
p65
aVcirca 1858, ?
p66
aVOctober 20, 1860, Dublin
p67
aVcirca 1859, ?
p68
aVAugust 4, 1859, Kingstown
p69
aVJuly 2, 1856, Dublin
p70
aVFebruary 28, 1856, ?
p71
aVJuly 1, 1860, Kilkee, Co.Clare
p72
aVJanuary 14, 1860, ?
p73
aVOctober 15, 1858, Dungannon, Tyrone
p74
aVcirca 1861, ?
p75
aV56 or 57, ?
p76
aVcirca 1858, ?
p77
aVdate unknown, ?
p78
aVSeptember 23, 1862, Dublin
p79
aVJanuary 2, 1859, Greenwich
p80
aVAugust 17, 1860, Monkstown?
p81
aVSeptember 4, 1862, ?
p82
aVcirca 1862, Dublin
p83
aVJanuary 22, 1857, Tipperary
p84
aVSeptember 19, 1859, Spafield, Co.Tipperar
p85
aVcirca 1865, ?
p86
aVcirca 1862, Bansha, Tipperary
p87
aVcirca 1861, ?
p88
aVJune 1857, ?
p89
aVcirca 1861, ?
p90
aVMarch 16, 1858, Woolwich, Kent
p91
aVAugust 4, 1858, Co.Monaghan, Northern Ireland
p92
aVApril 26, 1863, ?
p93
aVdate unknown, ?
p94
aVJuly 1, 1858, Cork
p95
aVOctober 5, 1862, ?
p96
aVNovember 17, 1858, Co.Derry, Northern Ireland
p97
aVNovember 23, 1862, London
p98
aVcirca 1859, Glasnevin, Dublin
p99
aVMay 6, 1863, Kingstown
p100
aVOctober 27, 1860, Clontarf, Co.Dublin
p101
aVcirca 1864, Lisburn, Northern Ireland
p102
aV1861, nr Mullingar
p103
aVJanuary 10, 1860, Belfast
p104
aVcirca 1861, Skibbereen, Co.Cork
p105
aVcirca 1865, Hollywood, Co.Down
p106
aVJanuary 18, 1862, Tipperary
p107
aV59 or 60, Dublin
p108
aVApril 28, 1861, Ambala
p109
aVcirca 1854, ?
p110
aVcirca 1858, ?
p111
aVJuly 29, 1856, Dublin
p112
aVSeptember 1865, Limerick
p113
aVDecember 9, 1864, Belfast
p114
aVcirca 1860, ?
p115
aVdate unknown, ?
p116
aVdate unknown, ?
p117
aVApril 19, 1861
p118
aVdate unknown, ?
p119
aVJune 24, 1863, Kingstown
p120
aVdate unknown
p121
aV(guess: regd Q4), Newport
p122
aVSeptember 3, 1857, Glasnevin, Dublin
p123
aVcirca 1860, Dublin
p124
aVSeptember 11, 1864, Glendermot, Derry
p125
aVMay 27, 1861, Gorey, Co.Wexford
p126
aVJanuary 26, 1861
p127
aVAugust 26, 1860, Coleraine, Northern Ireland
p128
aVDecember 12, 1860, Geelong
p129
aVJanuary 1, 1866, Dublin
p130
aVJanuary 4, 1864, Waterford
p131
aVSeptember 4, 1865, India, Co.Meath
p132
aVdate unknown, ?
p133
aVOctober 31, 1861, Granitefield, Dublin
p134
aVdate unknown, ?
p135
aVNovember 25, 1864, Co Cavan
p136
aVOctober 14, 1865, Dublin
p137
aVApril 23, 1864, Worcester
p138
aVJuly 3, 1864, Mazagan, Bombay
p139
aVJanuary 23, 1864, Templemartin, Cork
p140
aVJanuary 1, 1864, Belfast
p141
aVOctober 5, 1865, ?
p142
aVdate unknown, Hollywood, Co.Down
p143
aVMay 29, 1866, Dublin
p144
aV(guess: regd Q3), Preson, Lancs
p145
aVApril 4, 1865, Lisburn.Co.Antrim
p146
aVcirca 1866, Limerick
p147
aVApril 23, 1864, ?
p148
aVFebruary 1, 1866, Belfast
p149
aVAugust 6, 1865, Waterford
p150
aVMarch 27, 1866, Dungannon
p151
aVOctober 12, 1864, Londonderry
p152
aVJanuary 25, 1867, Belfast
p153
aVMarch 4, 1868, ?
p154
aVFebruary 4, 1864, Glasnevin, Dublin
p155
aVdate unknown, ?
p156
aVApril 18, 1863, ?
p157
aVOctober 13, 1866, Bushmills
p158
aVJanuary 29, 1866, Coagh, Co.Tyrone
p159
aVdate unknown, ?
p160
aVdate unknown, ?
p161
aVApril 1, 1864, Dublin
p162
aVJuly 20, 1866, Nenagh, Tipperary
p163
aVOctober 26, 1865, Roscommon
p164
aVOctober 8, 1866, Carnasure, Co Down
p165
aVMay 15, 1867, Co Clare
p166
aVApril 22, 1866, Dublin
p167
aVOctober 5, 1870, Dublin
p168
aVOctober 26, 1867, Dublin
p169
aVAugust 12, 1869, Belfast
p170
aVcirca 1866, Letterkenny
p171
aVDecember 4, 1868, Dungannon
p172
aVApril 1, 1868, ?
p173
aVFebruary 27, 1867, Blarney, Cork
p174
aVMarch 11, 1868, Belfast
p175
aVJuly 23, 1868, Kinsale, Co.Cork
p176
aVJuly 9, 1866, ?
p177
aVSeptember 30, 1867, Lifford
p178
aVDecember 22, 1865, Mooltan, W Bengal
p179
aVcirca 1863, ?
p180
aVdate unknown, ?
p181
aVJanuary 20, 1867, Dublin
p182
aVOctober 13, 1862, Dublin
p183
aVMay 15, 1870, Ferozopore
p184
aVOctober 19, 1867, Dublin
p185
aVNovember 27, 1866, Dublin
p186
aVcirca 1865, Kingstown
p187
aVdate unknown, ?
p188
aVOctober 7, 1866, Londonderry
p189
aVcirca 1869, Dublin
p190
aVSeptember 26, 1871, Dunaghadee, Down
p191
aVSeptember 24, 1869, Dublin
p192
aVAugust 6, 1868, Dublin
p193
aVMarch 23, 1867, Limerick
p194
aVApril 11, 1867, Lavagh, Drumkeeran
p195
aVNovember 14, 1865, Woolwich, Kent
p196
aVMay 1, 1871, Agra, W Bengal
p197
aVdate unknown, ?
p198
aVAugust 16, 1868, ?
p199
aVcirca 1870, Armagh, Northern Ireland
p200
aVdate unknown, ?
p201
aVJanuary 15, 1867, Limerick
p202
aVDecember 12, 1870, Dublin
p203
aVDecember 12, 1867, Fintona, Co.Tyrone
p204
aVJanuary 4, 1868, Donnycarney, Dublin
p205
aVNovember 28, 1867, Dublin
p206
aVDecember 31, 1868, Rathdown, Dublin
p207
aVApril 12, 1872, ?
p208
aVdate unknown, ?
p209
aVAugust 13, 1872, Laputa, Co Donegal
p210
aVcirca 1871, Armagh, Northern Ireland
p211
aVOctober 29, 1867, Donnybrook, Co.Dublin
p212
aVFebruary 4, 1864, Donnybrook, Co.Dublin
p213
aVMay 25, 1873, Ramelton, Donegal
p214
aVJuly 12, 1872, Co.Limerick
p215
aVJanuary 21, 1870, Dublin
p216
aVcirca 1869, Kilkenny
p217
aVApril 19, 1873, Dublin
p218
aVMay 18, 1875, Belfast
p219
aVDecember 20, 1868, Navan, Co.Meath
p220
aVAugust 17, 1871, ?
p221
aVDecember 1871, Donnybrook, Co.Dublin
p222
aVFebruary 15, 1875, Rathmines, Co.Dublin
p223
aVNovember 20, 1872, Castlereagh, Co.Down
p224
aVMay 1, 1874, Dublin
p225
aVMarch 25, 1870, Dublin
p226
aVAugust 19, 1872, Londonderry
p227
aVJuly 11, 1869, Westport, Co.Mayo
p228
aVcirca 1871, ?
p229
aVApril 9, 1873, Belfast
p230
aVSeptember 26, 1871, Belfast
p231
aVApril 21, 1873, Limerick
p232
aVAugust 3, 1873, Batterfield, Co Kerry
p233
aVcirca 1872, ?
p234
aVJune 11, 1874, Ramelton, Donegal
p235
aVMarch 14, 1874, Gibraltar
p236
aVFebruary 5, 1870, Co Clare
p237
aVMarch 6, 1876, Londonderry, Northern Ireland
p238
aVMarch 19, 1876, Dundrum, Dublin
p239
aVFebruary 2, 1878, Belfast
p240
aVAugust 3, 1874, Belfast
p241
aVdate unknown, ?
p242
aVcirca 1871, ?
p243
aVJanuary 12, 1877, Co.Tipperary
p244
aVMarch 18, 1874, Borris, Co.Carlow
p245
aVSeptember 10, 1875, Rathmines, Co.Dublin
p246
aVSeptember 16, 1876
p247
aVMarch 18, 1879, Kildare
p248
aVDecember 9, 1875, Belfast
p249
aVJuly 23, 1874, Dublin
p250
aVcirca 1874, Cork
p251
aVdate unknown, ?
p252
aVJune 28, 1880, ?
p253
aVdate unknown, ?
p254
aVAugust 10, 1877, Ballyhackamore, Co.Do
p255
aVJune 6, 1874, Crosshaven, Co Cork
p256
aVFebruary 22, 1876, Belfast
p257
aVJanuary 17, 1880, ?
p258
aVJuly 15, 1877, Dublin
p259
aVDecember 18, 1874, Mullingar, Newry
p260
aVFebruary 23, 1877, Londonderry
p261
aVJanuary 28, 1877, Tralee
p262
aVOctober 14, 1880, Gibraltar
p263
aVMay 6, 1877, Dublin
p264
aVcirca 1875, ?
p265
aVMay 31, 1874, Keady, Armagh, Northern Ireland
p266
aVJuly 3, 1877, Co Derry, Northern Ireland
p267
aVMay 15, 1879, Cork
p268
aVJune 27, 1875, Dublin
p269
aVDecember 16, 1878, Dublin
p270
aVApril 17, 1878, Dublin
p271
aV(guess: regd Q4), Salford, Lancs
p272
aVcirca 1878, ?
p273
aVOctober 21, 1875, ?
p274
aVMarch 24, 1875, Belfast
p275
aVJuly 30, 1876, Newry, Co Down
p276
aVAugust 15, 1878, Dublin
p277
aVAugust 1, 1879, Lurgan
p278
aVApril 9, 1881, Balbriggan
p279
aVJanuary 7, 1877, Belfast
p280
aVNovember 8, 1881, ?
p281
aVMarch 17, 1882, Cape Town
p282
aVOctober 27, 1882, ?
p283
aVAugust 18, 1879, Banbridge, Co Down, Northern Ireland
p284
aVOctober 26, 1880, ?
p285
aVOctober 30, 1876, Roscrea
p286
aVJanuary 3, 1882, Belfast
p287
aVJuly 26, 1881, Clones, Co Monaghan
p288
aVJanuary 2, 1879, Dublin
p289
aVFebruary 25, 1882, Galway
p290
aVNovember 17, 1880, ?
p291
aVAugust 3, 1878, Dromakeenan, Roscrea
p292
aVNovember 18, 1881, Dundalk, Louth
p293
aVMarch 2, 1882, Milltown, Dublin
p294
aVJanuary 12, 1882
p295
aVAugust 2, 1880, Gortnor Abbey, Mayo
p296
aVApril 15, 1878, Cork
p297
aVOctober 30, 1878, Blackrock, Co.Dublin
p298
aVDecember 24, 1882, Dublin
p299
aVApril 7, 1881, Portsmouth
p300
aVApril 11, 1879, Rashee, Co Antrim
p301
aVOctober 5, 1882, Dungannon
p302
aVOctober 29, 1881, ?
p303
aVFebruary 16, 1880, Birkenhead
p304
aVNovember 28, 1881, Belfast
p305
aVFebruary 2, 1882, ?
p306
aVJanuary 20, 1881, Belfast
p307
aVNovember 3, 1886, Strandtown, Belfast, Northern Ireland
p308
aVcirca 1882, Cork
p309
aVDecember 11, 1880, Brentwood, Essex
p310
aVJuly 1, 1886, ?
p311
aVMay 29, 1884, Dunloe, Co Donegal
p312
aVcirca 1881, ?
p313
aVSeptember 1, 1888, Athboy, Co Meath
p314
aVOctober 27, 1882, ?
p315
aVDecember 8, 1883, ?
p316
aVMay 15, 1885, Rathcoole, Co.Dublin
p317
aVJune 28, 1886, ?
p318
aVOctober 30, 1887, Mountmellick
p319
aVJanuary 28, 1886, Dublin
p320
aVDecember 24, 1885, ?
p321
aVDecember 12, 1884, Dirraw, Co.Antrim, Northern Ireland
p322
aVFebruary 27, 1885, Dublin
p323
aVMay 4, 1887, Limerick
p324
aVcirca 1887, ?
p325
aVSeptember 13, 1884, Belfast
p326
aVJanuary 13, 1884, Neath
p327
aVOctober 18, 1888, Queen's Co.
p328
aVcirca 1888, ?
p329
aVcirca 1877, Cork City
p330
aVMay 21, 1884, Dalkey
p331
aVdate unknown, ?
p332
aVJune 22, 1890, Londonderry, Northern Ireland
p333
aVAugust 4, 1891, Tamnamore, Tyrone
p334
aVNovember 23, 1888, Dublin
p335
aVNovember 8, 1888, Roscrea, Tipperary
p336
aVAugust 30, 1883, ?
p337
aVJuly 6, 1889, Belfast
p338
aVJune 8, 1890, Downpatrick, Northern Ireland
p339
aVJune 22, 1884, ?
p340
aVAugust 16, 1886, Belfast
p341
aVSeptember 9, 1889, Carlow
p342
aVDecember 7, 1886, Dirraw, Co.Antrim
p343
aVOctober 23, 1888, Hollywood, Co.Down
p344
aVNovember 20, 1885, Belfast
p345
aVJune 29, 1889
p346
aVApril 3, 1885, ?
p347
aVAugust 25, 1890, Dublin
p348
aVMarch 31, 1891, Dirraw, Co.Antrim
p349
aVJuly 22, 1889, ?
p350
aVOctober 16, 1887, Strandtown, Northern Ireland
p351
aVAugust 26, 1888, ?
p352
aVAugust 1, 1889, Famad, Co.Donegal
p353
aVFebruary 12, 1891, British Antilles, West Indies
p354
aVOctober 23, 1889, Belfast
p355
aVMay 9, 1887, Dublin
p356
aVJune 15, 1884, Kilrush, Co Clare
p357
aVDecember 1888, Kilmacow, Co.Kilkenny
p358
aVdate unknown, ?
p359
aVDecember 25, 1890, ?
p360
aVJanuary 21, 1893, Limerick
p361
aV(guess: regd Q2), Rathmines
p362
aVJuly 29, 1890, Athy, Co Kildare
p363
aV(guess: regd Q4), Dublin North
p364
aVApril 2, 1886, ?
p365
aVdate unknown, ?
p366
aVOctober 11, 1887, Banbridge, Co Down, Northern Ireland
p367
aV(guess: regd Q2), Dublin
p368
aVApril 3, 1890, Fethard, Tipperary
p369
aVcirca 1888, Carrigaline, Cork
p370
aVApril 29, 1893, Clonakilty
p371
aVdate unknown, ?
p372
aVMarch 27, 1892, Co Tipperary
p373
aVMarch 24, 1885, Dublin
p374
aVFebruary 19, 1889, Belfast
p375
aVJuly 6, 1892, ?
p376
aVSeptember 6, 1891, Ballina, Co Mayo
p377
aVMay 5, 1894, Dublin
p378
aVNovember 16, 1891, Glenageary, Co Dublin
p379
aVAugust 21, 1889, ?
p380
aVApril 11, 1891, Blackrock, Co Cork
p381
aVJune 10, 1892, Belfast
p382
aVAugust 22, 1891, Claudy, Londonderry
p383
aVJune 14, 1891, Cork
p384
aVAugust 8, 1895, Kingstown
p385
aV(guess: regd Q4), Penarth
p386
aVcirca 1897, Limerick
p387
aVDecember 3, 1898, Glastry, Co Down
p388
aVNovember 17, 1891, Belfast
p389
aVAugust 18, 1897, ?
p390
aVDecember 7, 1894, Balghupar
p391
aVMarch 12, 1897, Enniskillen
p392
aVJuly 17, 1893, Wandsworth
p393
aVOctober 13, 1886, Hackney, London
p394
aVMarch 28, 1895, Limerick
p395
aVApril 25, 1892, Kirkshill, Ballymayo
p396
aVMay 19, 1899, Nenagh
p397
aVJune 14, 1898, Skahabeg, Cork
p398
aVFebruary 18, 1898, Londonderry, Northern Ireland
p399
aVAugust 21, 1895, Belfast
p400
aVApril 25, 1892, Glenbeigh, Co Kerry
p401
aVcirca 1901, ?
p402
aVOctober 16, 1897, Cork
p403
aVMarch 27, 1900
p404
aVApril 3, 1897, Dublin
p405
aVJanuary 12, 1900, ?
p406
aVJanuary 27, 1897, Holywood, Co Down
p407
aVDecember 22, 1901, Dromore, Co.Down, Northern Ireland
p408
aVOctober 19, 1899, Rhode, Co.Offaly
p409
aVMay 18, 1902, Howth
p410
aVJuly 19, 1901, Newcastle W, Limerick
p411
aVJune 10, 1897, Ceylon
p412
aVAugust 10, 1900, ?
p413
aVNovember 14, 1893, Belfast
p414
aVNovember 14, 1891, Dublin
p415
aVcirca 1899, ?
p416
aVdate unknown, ?
p417
aVOctober 2, 1898, Rathdown, Dublin
p418
aVDecember 12, 1890, Mosside, Co Antrim, Northern Ireland
p419
aVMarch 19, 1898, Dublin
p420
aVAugust 28, 1898, Mallow, Co Cork
p421
aVDecember 27, 1898, Belfast
p422
aVAugust 19, 1896, Dundrum
p423
aVdate unknown, ?
p424
aVdate unknown, ?
p425
aVNovember 28, 1900, Dromore, Co.Down, Northern Ireland
p426
aVFebruary 13, 1897, Boyle, Co.Roscommon
p427
aVSeptember 24, 1900, Boghill
p428
aVMay 2, 1899, ?
p429
aVFebruary 20, 1901, Belfast
p430
aVOctober 27, 1902, ?
p431
aVJanuary 2, 1896, Ballybray, Co Monaghn
p432
aVAugust 16, 1901, Belfast
p433
aVNovember 22, 1901, Belfast
p434
aVMay 10, 1902, ?
p435
aVdate unknown, ?
p436
aVFebruary 21, 1894, ?
p437
aVSeptember 28, 1901, Clondalkin, Dublin
p438
aVAugust 16, 1902, Belfast
p439
aVApril 9, 1900, Dublin
p440
aVFebruary 16, 1900, Killiney
p441
aVMay 8, 1896, ?
p442
aVOctober 1, 1896, Ballymoney, Northern Ireland
p443
aVSeptember 18, 1902, Dublin
p444
aVOctober 3, 1906, Belfast
p445
aVMarch 12, 1905, Belfast
p446
aVJanuary 5, 1899, Belfast
p447
aVSeptember 22, 1897, Cashel
p448
aVFebruary 11, 1902, Leek, Staffs
p449
aVApril 29, 1905, Dunmanway, Munster
p450
aVJanuary 29, 1903, Longford
p451
aVJune 29, 1900, Harrow-on-the-Hill
p452
aVJuly 26, 1904, Dublin
p453
aVcirca 1903, ?
p454
aVJanuary 9, 1903, Co Down, Northern Ireland
p455
a.