(lp1
VEngland v Ireland at The Oval, Feb 15, 1875
p2
aVEngland v Ireland at The Oval, Feb 15, 1875
p3
aVEngland v Ireland at The Oval, Feb 15, 1875
p4
aVEngland v Ireland at The Oval, Feb 15, 1875
p5
aVEngland v Ireland at The Oval, Feb 15, 1875
p6
aVEngland v Ireland at The Oval, Feb 15, 1875
p7
aVEngland v Ireland at The Oval, Feb 15, 1875
p8
aVEngland v Ireland at The Oval, Feb 15, 1875
p9
aVEngland v Ireland at The Oval, Feb 15, 1875
p10
aVEngland v Ireland at The Oval, Feb 15, 1875
p11
aVEngland v Ireland at The Oval, Feb 15, 1875
p12
aVEngland v Ireland at The Oval, Feb 15, 1875
p13
aVEngland v Ireland at The Oval, Feb 15, 1875
p14
aVEngland v Ireland at The Oval, Feb 15, 1875
p15
aVEngland v Ireland at The Oval, Feb 15, 1875
p16
aVEngland v Ireland at The Oval, Feb 15, 1875
p17
aVEngland v Ireland at The Oval, Feb 15, 1875
p18
aVEngland v Ireland at The Oval, Feb 15, 1875
p19
aVEngland v Ireland at The Oval, Feb 15, 1875
p20
aVEngland v Ireland at The Oval, Feb 15, 1875
p21
aVIreland v England at Dublin, Dec 13, 1875
p22
aVIreland v England at Dublin, Dec 13, 1875
p23
aVIreland v England at Dublin, Dec 13, 1875
p24
aVIreland v England at Dublin, Dec 13, 1875
p25
aVIreland v England at Dublin, Dec 13, 1875
p26
aVIreland v England at Dublin, Dec 13, 1875
p27
aVIreland v England at Dublin, Dec 13, 1875
p28
aVIreland v England at Dublin, Dec 13, 1875
p29
aVEngland v Ireland at The Oval, Feb 5, 1877
p30
aVEngland v Ireland at The Oval, Feb 5, 1877
p31
aVEngland v Ireland at The Oval, Feb 5, 1877
p32
aVEngland v Ireland at The Oval, Feb 5, 1877
p33
aVEngland v Ireland at The Oval, Feb 5, 1877
p34
aVEngland v Ireland at The Oval, Feb 5, 1877
p35
aVEngland v Ireland at The Oval, Feb 5, 1877
p36
aVEngland v Ireland at The Oval, Feb 5, 1877
p37
aVEngland v Ireland at The Oval, Feb 5, 1877
p38
aVEngland v Ireland at The Oval, Feb 5, 1877
p39
aVIreland v Scotland at Belfast, Feb 19, 1877
p40
aVIreland v Scotland at Belfast, Feb 19, 1877
p41
aVIreland v Scotland at Belfast, Feb 19, 1877
p42
aVIreland v Scotland at Belfast, Feb 19, 1877
p43
aVIreland v England at Lansdowne Road, Mar 11, 1878
p44
aVIreland v England at Lansdowne Road, Mar 11, 1878
p45
aVIreland v England at Lansdowne Road, Mar 11, 1878
p46
aVIreland v England at Lansdowne Road, Mar 11, 1878
p47
aVIreland v England at Lansdowne Road, Mar 11, 1878
p48
aVIreland v England at Lansdowne Road, Mar 11, 1878
p49
aVIreland v England at Lansdowne Road, Mar 11, 1878
p50
aVIreland v Scotland at Belfast, Feb 17, 1879
p51
aVIreland v Scotland at Belfast, Feb 17, 1879
p52
aVIreland v Scotland at Belfast, Feb 17, 1879
p53
aVIreland v Scotland at Belfast, Feb 17, 1879
p54
aVIreland v Scotland at Belfast, Feb 17, 1879
p55
aVIreland v Scotland at Belfast, Feb 17, 1879
p56
aVIreland v Scotland at Belfast, Feb 17, 1879
p57
aVIreland v Scotland at Belfast, Feb 17, 1879
p58
aVIreland v Scotland at Belfast, Feb 17, 1879
p59
aVEngland v Ireland at The Oval, Mar 24, 1879
p60
aVEngland v Ireland at The Oval, Mar 24, 1879
p61
aVEngland v Ireland at The Oval, Mar 24, 1879
p62
aVEngland v Ireland at The Oval, Mar 24, 1879
p63
aVEngland v Ireland at The Oval, Mar 24, 1879
p64
aVIreland v England at Lansdowne Road, Feb 2, 1880
p65
aVIreland v England at Lansdowne Road, Feb 2, 1880
p66
aVIreland v England at Lansdowne Road, Feb 2, 1880
p67
aVIreland v England at Lansdowne Road, Feb 2, 1880
p68
aVIreland v England at Lansdowne Road, Feb 2, 1880
p69
aVScotland v Ireland at Glasgow, Feb 14, 1880
p70
aVEngland v Ireland at Manchester, Feb 5, 1881
p71
aVEngland v Ireland at Manchester, Feb 5, 1881
p72
aVEngland v Ireland at Manchester, Feb 5, 1881
p73
aVEngland v Ireland at Manchester, Feb 5, 1881
p74
aVEngland v Ireland at Manchester, Feb 5, 1881
p75
aVEngland v Ireland at Manchester, Feb 5, 1881
p76
aVIreland v Scotland at Belfast, Feb 19, 1881
p77
aVIreland v Scotland at Belfast, Feb 19, 1881
p78
aVIreland v Wales at Lansdowne Road, Jan 28, 1882
p79
aVIreland v Wales at Lansdowne Road, Jan 28, 1882
p80
aVIreland v Wales at Lansdowne Road, Jan 28, 1882
p81
aVIreland v Wales at Lansdowne Road, Jan 28, 1882
p82
aVIreland v Wales at Lansdowne Road, Jan 28, 1882
p83
aVIreland v Wales at Lansdowne Road, Jan 28, 1882
p84
aVIreland v Wales at Lansdowne Road, Jan 28, 1882
p85
aVIreland v Wales at Lansdowne Road, Jan 28, 1882
p86
aVIreland v Wales at Lansdowne Road, Jan 28, 1882
p87
aVIreland v Wales at Lansdowne Road, Jan 28, 1882
p88
aVIreland v England at Lansdowne Road, Feb 6, 1882
p89
aVIreland v England at Lansdowne Road, Feb 6, 1882
p90
aVIreland v England at Lansdowne Road, Feb 6, 1882
p91
aVIreland v England at Lansdowne Road, Feb 6, 1882
p92
aVScotland v Ireland at Glasgow, Feb 18, 1882
p93
aVScotland v Ireland at Glasgow, Feb 18, 1882
p94
aVScotland v Ireland at Glasgow, Feb 18, 1882
p95
aVScotland v Ireland at Glasgow, Feb 18, 1882
p96
aVEngland v Ireland at Manchester, Feb 5, 1883
p97
aVEngland v Ireland at Manchester, Feb 5, 1883
p98
aVEngland v Ireland at Manchester, Feb 5, 1883
p99
aVEngland v Ireland at Manchester, Feb 5, 1883
p100
aVEngland v Ireland at Manchester, Feb 5, 1883
p101
aVIreland v Scotland at Belfast, Feb 17, 1883
p102
aVIreland v England at Lansdowne Road, Feb 4, 1884
p103
aVIreland v England at Lansdowne Road, Feb 4, 1884
p104
aVIreland v England at Lansdowne Road, Feb 4, 1884
p105
aVIreland v England at Lansdowne Road, Feb 4, 1884
p106
aVIreland v England at Lansdowne Road, Feb 4, 1884
p107
aVScotland v Ireland at Edinburgh, Feb 16, 1884
p108
aVScotland v Ireland at Edinburgh, Feb 16, 1884
p109
aVScotland v Ireland at Edinburgh, Feb 16, 1884
p110
aVScotland v Ireland at Edinburgh, Feb 16, 1884
p111
aVScotland v Ireland at Edinburgh, Feb 16, 1884
p112
aVScotland v Ireland at Edinburgh, Feb 16, 1884
p113
aVScotland v Ireland at Edinburgh, Feb 16, 1884
p114
aVWales v Ireland at Cardiff, Apr 12, 1884
p115
aVWales v Ireland at Cardiff, Apr 12, 1884
p116
aVWales v Ireland at Cardiff, Apr 12, 1884
p117
aVWales v Ireland at Cardiff, Apr 12, 1884
p118
aVWales v Ireland at Cardiff, Apr 12, 1884
p119
aVWales v Ireland at Cardiff, Apr 12, 1884
p120
aVWales v Ireland at Cardiff, Apr 12, 1884
p121
aVWales v Ireland at Cardiff, Apr 12, 1884
p122
aVWales v Ireland at Cardiff, Apr 12, 1884
p123
aVWales v Ireland at Cardiff, Apr 12, 1884
p124
aVEngland v Ireland at Manchester, Feb 7, 1885
p125
aVEngland v Ireland at Manchester, Feb 7, 1885
p126
aVEngland v Ireland at Manchester, Feb 7, 1885
p127
aVEngland v Ireland at Manchester, Feb 7, 1885
p128
aVEngland v Ireland at Manchester, Feb 7, 1885
p129
aVEngland v Ireland at Manchester, Feb 7, 1885
p130
aVEngland v Ireland at Manchester, Feb 7, 1885
p131
aVEngland v Ireland at Manchester, Feb 7, 1885
p132
aVIreland v Scotland at Belfast, Feb 21, 1885
p133
aVScotland v Ireland at Edinburgh, Mar 7, 1885
p134
aVScotland v Ireland at Edinburgh, Mar 7, 1885
p135
aVIreland v England at Lansdowne Road, Feb 6, 1886
p136
aVIreland v England at Lansdowne Road, Feb 6, 1886
p137
aVIreland v England at Lansdowne Road, Feb 6, 1886
p138
aVScotland v Ireland at Edinburgh, Feb 20, 1886
p139
aVScotland v Ireland at Edinburgh, Feb 20, 1886
p140
aVScotland v Ireland at Edinburgh, Feb 20, 1886
p141
aVScotland v Ireland at Edinburgh, Feb 20, 1886
p142
aVScotland v Ireland at Edinburgh, Feb 20, 1886
p143
aVScotland v Ireland at Edinburgh, Feb 20, 1886
p144
aVScotland v Ireland at Edinburgh, Feb 20, 1886
p145
aVIreland v England at Lansdowne Road, Feb 5, 1887
p146
aVIreland v England at Lansdowne Road, Feb 5, 1887
p147
aVIreland v England at Lansdowne Road, Feb 5, 1887
p148
aVIreland v England at Lansdowne Road, Feb 5, 1887
p149
aVIreland v England at Lansdowne Road, Feb 5, 1887
p150
aVIreland v England at Lansdowne Road, Feb 5, 1887
p151
aVIreland v England at Lansdowne Road, Feb 5, 1887
p152
aVIreland v England at Lansdowne Road, Feb 5, 1887
p153
aVIreland v England at Lansdowne Road, Feb 5, 1887
p154
aVIreland v Scotland at Belfast, Feb 19, 1887
p155
aVIreland v Wales at Birkenhead, Mar 12, 1887
p156
aVIreland v Wales at Birkenhead, Mar 12, 1887
p157
aVIreland v Wales at Birkenhead, Mar 12, 1887
p158
aVIreland v Wales at Lansdowne Road, Mar 3, 1888
p159
aVIreland v Wales at Lansdowne Road, Mar 3, 1888
p160
aVIreland v Wales at Lansdowne Road, Mar 3, 1888
p161
aVIreland v Wales at Lansdowne Road, Mar 3, 1888
p162
aVScotland v Ireland at Edinburgh, Mar 10, 1888
p163
aVScotland v Ireland at Edinburgh, Mar 10, 1888
p164
aVIreland v New Zealand Natives at Lansdowne Road, Dec 1, 1888
p165
aVIreland v New Zealand Natives at Lansdowne Road, Dec 1, 1888
p166
aVIreland v New Zealand Natives at Lansdowne Road, Dec 1, 1888
p167
aVIreland v New Zealand Natives at Lansdowne Road, Dec 1, 1888
p168
aVIreland v New Zealand Natives at Lansdowne Road, Dec 1, 1888
p169
aVIreland v New Zealand Natives at Lansdowne Road, Dec 1, 1888
p170
aVIreland v New Zealand Natives at Lansdowne Road, Dec 1, 1888
p171
aVIreland v New Zealand Natives at Lansdowne Road, Dec 1, 1888
p172
aVIreland v New Zealand Natives at Lansdowne Road, Dec 1, 1888
p173
aVIreland v Scotland at Belfast, Feb 16, 1889
p174
aVIreland v Scotland at Belfast, Feb 16, 1889
p175
aVIreland v Scotland at Belfast, Feb 16, 1889
p176
aVIreland v Scotland at Belfast, Feb 16, 1889
p177
aVIreland v Scotland at Belfast, Feb 16, 1889
p178
aVIreland v Scotland at Belfast, Feb 16, 1889
p179
aVWales v Ireland at Swansea, Mar 2, 1889
p180
aVWales v Ireland at Swansea, Mar 2, 1889
p181
aVWales v Ireland at Swansea, Mar 2, 1889
p182
aVWales v Ireland at Swansea, Mar 2, 1889
p183
aVScotland v Ireland at Edinburgh, Feb 22, 1890
p184
aVScotland v Ireland at Edinburgh, Feb 22, 1890
p185
aVScotland v Ireland at Edinburgh, Feb 22, 1890
p186
aVScotland v Ireland at Edinburgh, Feb 22, 1890
p187
aVScotland v Ireland at Edinburgh, Feb 22, 1890
p188
aVIreland v Wales at Lansdowne Road, Mar 1, 1890
p189
aVEngland v Ireland at Blackheath, Mar 15, 1890
p190
aVIreland v England at Lansdowne Road, Feb 7, 1891
p191
aVIreland v England at Lansdowne Road, Feb 7, 1891
p192
aVIreland v Scotland at Belfast, Feb 21, 1891
p193
aVIreland v Scotland at Belfast, Feb 21, 1891
p194
aVIreland v Scotland at Belfast, Feb 21, 1891
p195
aVIreland v Scotland at Belfast, Feb 21, 1891
p196
aVIreland v Scotland at Belfast, Feb 21, 1891
p197
aVWales v Ireland at Llanelli, Mar 7, 1891
p198
aVWales v Ireland at Llanelli, Mar 7, 1891
p199
aVEngland v Ireland at Manchester, Feb 6, 1892
p200
aVEngland v Ireland at Manchester, Feb 6, 1892
p201
aVEngland v Ireland at Manchester, Feb 6, 1892
p202
aVEngland v Ireland at Manchester, Feb 6, 1892
p203
aVEngland v Ireland at Manchester, Feb 6, 1892
p204
aVEngland v Ireland at Manchester, Feb 6, 1892
p205
aVScotland v Ireland at Edinburgh, Feb 20, 1892
p206
aVScotland v Ireland at Edinburgh, Feb 20, 1892
p207
aVIreland v England at Lansdowne Road, Feb 4, 1893
p208
aVIreland v England at Lansdowne Road, Feb 4, 1893
p209
aVIreland v England at Lansdowne Road, Feb 4, 1893
p210
aVIreland v England at Lansdowne Road, Feb 4, 1893
p211
aVIreland v Scotland at Belfast, Feb 18, 1893
p212
aVIreland v Scotland at Belfast, Feb 18, 1893
p213
aVIreland v Scotland at Belfast, Feb 18, 1893
p214
aVIreland v Scotland at Belfast, Feb 18, 1893
p215
aVWales v Ireland at Llanelli, Mar 11, 1893
p216
aVWales v Ireland at Llanelli, Mar 11, 1893
p217
aVEngland v Ireland at Blackheath, Feb 3, 1894
p218
aVEngland v Ireland at Blackheath, Feb 3, 1894
p219
aVEngland v Ireland at Blackheath, Feb 3, 1894
p220
aVIreland v Scotland at Lansdowne Road, Feb 24, 1894
p221
aVIreland v Scotland at Lansdowne Road, Feb 24, 1894
p222
aVIreland v England at Lansdowne Road, Feb 2, 1895
p223
aVIreland v England at Lansdowne Road, Feb 2, 1895
p224
aVIreland v England at Lansdowne Road, Feb 2, 1895
p225
aVIreland v England at Lansdowne Road, Feb 2, 1895
p226
aVIreland v England at Lansdowne Road, Feb 2, 1895
p227
aVIreland v England at Lansdowne Road, Feb 2, 1895
p228
aVScotland v Ireland at Edinburgh, Mar 2, 1895
p229
aVScotland v Ireland at Edinburgh, Mar 2, 1895
p230
aVScotland v Ireland at Edinburgh, Mar 2, 1895
p231
aVScotland v Ireland at Edinburgh, Mar 2, 1895
p232
aVScotland v Ireland at Edinburgh, Mar 2, 1895
p233
aVWales v Ireland at Cardiff, Mar 16, 1895
p234
aVWales v Ireland at Cardiff, Mar 16, 1895
p235
aVEngland v Ireland at Leeds, Feb 1, 1896
p236
aVEngland v Ireland at Leeds, Feb 1, 1896
p237
aVEngland v Ireland at Leeds, Feb 1, 1896
p238
aVEngland v Ireland at Leeds, Feb 1, 1896
p239
aVIreland v Scotland at Lansdowne Road, Feb 15, 1896
p240
aVIreland v England at Lansdowne Road, Feb 6, 1897
p241
aVIreland v England at Lansdowne Road, Feb 6, 1897
p242
aVIreland v England at Lansdowne Road, Feb 6, 1897
p243
aVScotland v Ireland at Edinburgh, Feb 20, 1897
p244
aVEngland v Ireland at Richmond, Feb 5, 1898
p245
aVEngland v Ireland at Richmond, Feb 5, 1898
p246
aVEngland v Ireland at Richmond, Feb 5, 1898
p247
aVIreland v Scotland at Belfast, Feb 19, 1898
p248
aVIreland v Wales at Limerick, Mar 19, 1898
p249
aVIreland v Wales at Limerick, Mar 19, 1898
p250
aVIreland v Wales at Limerick, Mar 19, 1898
p251
aVIreland v England at Lansdowne Road, Feb 4, 1899
p252
aVIreland v England at Lansdowne Road, Feb 4, 1899
p253
aVIreland v England at Lansdowne Road, Feb 4, 1899
p254
aVIreland v England at Lansdowne Road, Feb 4, 1899
p255
aVIreland v England at Lansdowne Road, Feb 4, 1899
p256
aVIreland v England at Lansdowne Road, Feb 4, 1899
p257
aVScotland v Ireland at Inverleith, Feb 18, 1899
p258
aVScotland v Ireland at Inverleith, Feb 18, 1899
p259
aVSouth Africa v Great Britain at Kimberley, Aug 29, 1896
p260
aVScotland v Ireland at Inverleith, Feb 18, 1899
p261
aVWales v Ireland at Cardiff, Mar 18, 1899
p262
aVEngland v Ireland at Richmond, Feb 3, 1900
p263
aVEngland v Ireland at Richmond, Feb 3, 1900
p264
aVEngland v Ireland at Richmond, Feb 3, 1900
p265
aVEngland v Ireland at Richmond, Feb 3, 1900
p266
aVEngland v Ireland at Richmond, Feb 3, 1900
p267
aVEngland v Ireland at Richmond, Feb 3, 1900
p268
aVSouth Africa v Great Britain at Port Elizabeth, Jul 30, 1896
p269
aVIreland v Scotland at Lansdowne Road, Feb 24, 1900
p270
aVIreland v Wales at Belfast, Mar 17, 1900
p271
aVIreland v England at Lansdowne Road, Feb 9, 1901
p272
aVIreland v England at Lansdowne Road, Feb 9, 1901
p273
aVIreland v England at Lansdowne Road, Feb 9, 1901
p274
aVScotland v Ireland at Inverleith, Feb 23, 1901
p275
aVWales v Ireland at Swansea, Mar 16, 1901
p276
aVEngland v Ireland at Leicester, Feb 8, 1902
p277
aVEngland v Ireland at Leicester, Feb 8, 1902
p278
aVEngland v Ireland at Leicester, Feb 8, 1902
p279
aVEngland v Ireland at Leicester, Feb 8, 1902
p280
aVIreland v Scotland at Belfast, Feb 22, 1902
p281
aVIreland v England at Lansdowne Road, Feb 14, 1903
p282
aVIreland v England at Lansdowne Road, Feb 14, 1903
p283
aVIreland v England at Lansdowne Road, Feb 14, 1903
p284
aVIreland v England at Lansdowne Road, Feb 14, 1903
p285
aVScotland v Ireland at Inverleith, Feb 28, 1903
p286
aVWales v Ireland at Cardiff, Mar 14, 1903
p287
aVWales v Ireland at Cardiff, Mar 14, 1903
p288
aVEngland v Ireland at Blackheath, Feb 13, 1904
p289
aVEngland v Ireland at Blackheath, Feb 13, 1904
p290
aVEngland v Ireland at Blackheath, Feb 13, 1904
p291
aVSouth Africa v Great Britain at Johannesburg, Aug 26, 1903
p292
aVIreland v Scotland at Lansdowne Road, Feb 27, 1904
p293
aVIreland v Scotland at Lansdowne Road, Feb 27, 1904
p294
aVIreland v Wales at Belfast, Mar 12, 1904
p295
aVIreland v Wales at Belfast, Mar 12, 1904
p296
aVIreland v Wales at Belfast, Mar 12, 1904
p297
aVIreland v Wales at Belfast, Mar 12, 1904
p298
aVIreland v Wales at Belfast, Mar 12, 1904
p299
aVIreland v England at Cork, Feb 11, 1905
p300
aVIreland v England at Cork, Feb 11, 1905
p301
aVIreland v New Zealand at Lansdowne Road, Nov 25, 1905
p302
aVEngland v Ireland at Leicester, Feb 10, 1906
p303
aVEngland v Ireland at Leicester, Feb 10, 1906
p304
aVEngland v Ireland at Leicester, Feb 10, 1906
p305
aVEngland v Ireland at Leicester, Feb 10, 1906
p306
aVIreland v South Africa at Belfast, Nov 24, 1906
p307
aVIreland v South Africa at Belfast, Nov 24, 1906
p308
aVIreland v England at Lansdowne Road, Feb 9, 1907
p309
aVIreland v England at Lansdowne Road, Feb 9, 1907
p310
aVIreland v England at Lansdowne Road, Feb 9, 1907
p311
aVIreland v England at Lansdowne Road, Feb 9, 1907
p312
aVIreland v England at Lansdowne Road, Feb 9, 1907
p313
aVWales v Ireland at Cardiff, Mar 9, 1907
p314
aVWales v Ireland at Cardiff, Mar 9, 1907
p315
aVEngland v Ireland at Richmond, Feb 8, 1908
p316
aVEngland v Ireland at Richmond, Feb 8, 1908
p317
aVEngland v Ireland at Richmond, Feb 8, 1908
p318
aVEngland v Ireland at Richmond, Feb 8, 1908
p319
aVEngland v Ireland at Richmond, Feb 8, 1908
p320
aVEngland v Ireland at Richmond, Feb 8, 1908
p321
aVEngland v Ireland at Richmond, Feb 8, 1908
p322
aVEngland v Ireland at Richmond, Feb 8, 1908
p323
aVIreland v England at Lansdowne Road, Feb 13, 1909
p324
aVIreland v England at Lansdowne Road, Feb 13, 1909
p325
aVIreland v England at Lansdowne Road, Feb 13, 1909
p326
aVIreland v England at Lansdowne Road, Feb 13, 1909
p327
aVScotland v Ireland at Inverleith, Feb 27, 1909
p328
aVScotland v Ireland at Inverleith, Feb 27, 1909
p329
aVScotland v Ireland at Inverleith, Feb 27, 1909
p330
aVWales v Ireland at Swansea, Mar 13, 1909
p331
aVIreland v France at Lansdowne Road, Mar 20, 1909
p332
aVEngland v Ireland at Twickenham, Feb 12, 1910
p333
aVEngland v Ireland at Twickenham, Feb 12, 1910
p334
aVEngland v Ireland at Twickenham, Feb 12, 1910
p335
aVEngland v Ireland at Twickenham, Feb 12, 1910
p336
aVEngland v Ireland at Twickenham, Feb 12, 1910
p337
aVEngland v Ireland at Twickenham, Feb 12, 1910
p338
aVIreland v Scotland at Belfast, Feb 26, 1910
p339
aVIreland v Wales at Lansdowne Road, Mar 12, 1910
p340
aVIreland v Wales at Lansdowne Road, Mar 12, 1910
p341
aVIreland v Wales at Lansdowne Road, Mar 12, 1910
p342
aVIreland v Wales at Lansdowne Road, Mar 12, 1910
p343
aVFrance v Ireland at Parc des Princes, Mar 28, 1910
p344
aVFrance v Ireland at Parc des Princes, Mar 28, 1910
p345
aVIreland v England at Lansdowne Road, Feb 11, 1911
p346
aVIreland v England at Lansdowne Road, Feb 11, 1911
p347
aVIreland v England at Lansdowne Road, Feb 11, 1911
p348
aVIreland v England at Lansdowne Road, Feb 11, 1911
p349
aVIreland v France at Cork, Mar 25, 1911
p350
aVFrance v Ireland at Parc des Princes, Jan 1, 1912
p351
aVFrance v Ireland at Parc des Princes, Jan 1, 1912
p352
aVFrance v Ireland at Parc des Princes, Jan 1, 1912
p353
aVFrance v Ireland at Parc des Princes, Jan 1, 1912
p354
aVFrance v Ireland at Parc des Princes, Jan 1, 1912
p355
aVEngland v Ireland at Twickenham, Feb 10, 1912
p356
aVEngland v Ireland at Twickenham, Feb 10, 1912
p357
aVIreland v Scotland at Lansdowne Road, Feb 24, 1912
p358
aVIreland v Scotland at Lansdowne Road, Feb 24, 1912
p359
aVIreland v South Africa at Lansdowne Road, Nov 30, 1912
p360
aVIreland v South Africa at Lansdowne Road, Nov 30, 1912
p361
aVIreland v South Africa at Lansdowne Road, Nov 30, 1912
p362
aVIreland v South Africa at Lansdowne Road, Nov 30, 1912
p363
aVIreland v South Africa at Lansdowne Road, Nov 30, 1912
p364
aVIreland v South Africa at Lansdowne Road, Nov 30, 1912
p365
aVIreland v South Africa at Lansdowne Road, Nov 30, 1912
p366
aVIreland v England at Lansdowne Road, Feb 8, 1913
p367
aVIreland v England at Lansdowne Road, Feb 8, 1913
p368
aVIreland v England at Lansdowne Road, Feb 8, 1913
p369
aVIreland v England at Lansdowne Road, Feb 8, 1913
p370
aVScotland v Ireland at Inverleith, Feb 22, 1913
p371
aVScotland v Ireland at Inverleith, Feb 22, 1913
p372
aVWales v Ireland at Swansea, Mar 8, 1913
p373
aVWales v Ireland at Swansea, Mar 8, 1913
p374
aVWales v Ireland at Swansea, Mar 8, 1913
p375
aVWales v Ireland at Swansea, Mar 8, 1913
p376
aVWales v Ireland at Swansea, Mar 8, 1913
p377
aVFrance v Ireland at Parc des Princes, Jan 1, 1914
p378
aVFrance v Ireland at Parc des Princes, Jan 1, 1914
p379
aVFrance v Ireland at Parc des Princes, Jan 1, 1914
p380
aVEngland v Ireland at Twickenham, Feb 14, 1914
p381
aVEngland v Ireland at Twickenham, Feb 14, 1914
p382
aVEngland v Ireland at Twickenham, Feb 14, 1914
p383
aVIreland v Scotland at Lansdowne Road, Feb 28, 1914
p384
aVIreland v Wales at Belfast, Mar 14, 1914
p385
aVIreland v England at Lansdowne Road, Feb 14, 1920
p386
aVIreland v England at Lansdowne Road, Feb 14, 1920
p387
aVIreland v England at Lansdowne Road, Feb 14, 1920
p388
aVIreland v England at Lansdowne Road, Feb 14, 1920
p389
aVIreland v England at Lansdowne Road, Feb 14, 1920
p390
aVIreland v England at Lansdowne Road, Feb 14, 1920
p391
aVIreland v England at Lansdowne Road, Feb 14, 1920
p392
aVIreland v England at Lansdowne Road, Feb 14, 1920
p393
aVIreland v England at Lansdowne Road, Feb 14, 1920
p394
aVIreland v England at Lansdowne Road, Feb 14, 1920
p395
aVIreland v England at Lansdowne Road, Feb 14, 1920
p396
aVScotland v Ireland at Inverleith, Feb 28, 1920
p397
aVScotland v Ireland at Inverleith, Feb 28, 1920
p398
aVScotland v Ireland at Inverleith, Feb 28, 1920
p399
aVScotland v Ireland at Inverleith, Feb 28, 1920
p400
aVScotland v Ireland at Inverleith, Feb 28, 1920
p401
aVScotland v Ireland at Inverleith, Feb 28, 1920
p402
aVWales v Ireland at Cardiff, Mar 13, 1920
p403
aVWales v Ireland at Cardiff, Mar 13, 1920
p404
aVWales v Ireland at Cardiff, Mar 13, 1920
p405
aVIreland v France at Lansdowne Road, Apr 3, 1920
p406
aVIreland v France at Lansdowne Road, Apr 3, 1920
p407
aVIreland v France at Lansdowne Road, Apr 3, 1920
p408
aVEngland v Ireland at Twickenham, Feb 12, 1921
p409
aVEngland v Ireland at Twickenham, Feb 12, 1921
p410
aVEngland v Ireland at Twickenham, Feb 12, 1921
p411
aVEngland v Ireland at Twickenham, Feb 12, 1921
p412
aVEngland v Ireland at Twickenham, Feb 12, 1921
p413
aVEngland v Ireland at Twickenham, Feb 12, 1921
p414
aVEngland v Ireland at Twickenham, Feb 12, 1921
p415
aVIreland v Wales at Belfast, Mar 12, 1921
p416
aVFrance v Ireland at Colombes, Apr 9, 1921
p417
aVFrance v Ireland at Colombes, Apr 9, 1921
p418
aVIreland v England at Lansdowne Road, Feb 11, 1922
p419
aVIreland v England at Lansdowne Road, Feb 11, 1922
p420
aVIreland v England at Lansdowne Road, Feb 11, 1922
p421
aVIreland v England at Lansdowne Road, Feb 11, 1922
p422
aVScotland v Ireland at Inverleith, Feb 25, 1922
p423
aVScotland v Ireland at Inverleith, Feb 25, 1922
p424
aVScotland v Ireland at Inverleith, Feb 25, 1922
p425
aVScotland v Ireland at Inverleith, Feb 25, 1922
p426
aVWales v Ireland at Swansea, Mar 11, 1922
p427
aVIreland v France at Lansdowne Road, Apr 8, 1922
p428
aVEngland v Ireland at Leicester, Feb 10, 1923
p429
aVEngland v Ireland at Leicester, Feb 10, 1923
p430
aVEngland v Ireland at Leicester, Feb 10, 1923
p431
aVEngland v Ireland at Leicester, Feb 10, 1923
p432
aVEngland v Ireland at Leicester, Feb 10, 1923
p433
aVEngland v Ireland at Leicester, Feb 10, 1923
p434
aVEngland v Ireland at Leicester, Feb 10, 1923
p435
aVEngland v Ireland at Leicester, Feb 10, 1923
p436
aVIreland v Scotland at Lansdowne Road, Feb 24, 1923
p437
aVIreland v Wales at Lansdowne Road, Mar 10, 1923
p438
aVFrance v Ireland at Colombes, Apr 14, 1923
p439
aVIreland v France at Lansdowne Road, Jan 26, 1924
p440
aVIreland v France at Lansdowne Road, Jan 26, 1924
p441
aVIreland v France at Lansdowne Road, Jan 26, 1924
p442
aVIreland v France at Lansdowne Road, Jan 26, 1924
p443
aVIreland v England at Belfast, Feb 9, 1924
p444
aVWales v Ireland at Cardiff, Mar 8, 1924
p445
aVWales v Ireland at Cardiff, Mar 8, 1924
p446
aVSouth Africa v Great Britain at Durban, Aug 16, 1924
p447
aVIreland v New Zealand at Lansdowne Road, Nov 1, 1924
p448
aVFrance v Ireland at Colombes, Jan 1, 1925
p449
aVEngland v Ireland at Twickenham, Feb 14, 1925
p450
aVEngland v Ireland at Twickenham, Feb 14, 1925
p451
aVIreland v Wales at Belfast, Mar 14, 1925
p452
aVIreland v Wales at Belfast, Mar 14, 1925
p453
aVIreland v Wales at Belfast, Mar 14, 1925
p454
aVIreland v Wales at Belfast, Mar 14, 1925
p455
a.