(lp1
S'William Allen'
p2
aS'George Andrews'
p3
aS'W.H. Ash'
p4
aS'Maurice Barlow'
p5
aS'Richard Bell'
p6
aS'Brab Casement'
p7
aS'Abram Combe'
p8
aS'Henry Cox'
p9
aS'Abraham Cronyn'
p10
aS'William Gaffikin'
p11
aS'Edgar Galbraith'
p12
aS'Richard Galbraith'
p13
aS'Francis Hewson'
p14
aS'Sandy McDonald'
p15
aS'Edward MacIlwaine'
p16
aS'Robert Maginniss'
p17
aS'John Myles'
p18
aS'George Stack'
p19
aS'Robert Walkington'
p20
aS'Henry Walsh'
p21
aS'David Arnott'
p22
aS'Tim Cuscaden'
p23
aS'William Finlay'
p24
aS'R. Greer'
p25
aS'Edward Hobson'
p26
aS'John Ireland'
p27
aS'Hamilton Moore'
p28
aS'Ashley Westby'
p29
aS'H. Brown'
p30
aS'Thomas Brown'
p31
aS'Henry Edwards'
p32
aS'Thomas Gordon'
p33
aS'William Hamilton'
p34
aS'Harry Jackson'
p35
aS'Hugh Kelly'
p36
aS'Frederick Kidd'
p37
aS'Augustus Whitestone'
p38
aS'William Wilson'
p39
aS'J. Currell'
p40
aS'James Heron'
p41
aS'Henry Murray'
p42
aS'Garvett Shaw'
p43
aS'Edward Croker'
p44
aS'George Fagan'
p45
aS'W. Griffiths'
p46
aS'Barney Hughes'
p47
aS'Robert Matier'
p48
aS'William Moore'
p49
aS'Frederick Schute'
p50
aS'Arthur Archer'
p51
aS'Jack Bagot'
p52
aS'William Cummins'
p53
aS'William Goulding'
p54
aS'Thomas Harrison'
p55
aS'William Neville'
p56
aS'Henry Purdon'
p57
aS'George Scriven'
p58
aS'John Taylor'
p59
aS'James Bristow'
p60
aS'John Cuppaidge'
p61
aS'Jack Keon'
p62
aS'William Pike'
p63
aS'Willington Willis'
p64
aS'Arthur Forrest'
p65
aS'William Heron'
p66
aS'Meredith Johnston'
p67
aS'Francis Kennedy'
p68
aS'Alfred Miller'
p69
aS'William Wallis'
p70
aS'David Browning'
p71
aS'John Burkitt'
p72
aS'Alfred MacMullen'
p73
aS'Jones Morell'
p74
aS'William Peirce'
p75
aS'Henry Spunner'
p76
aS'Jack Johnston'
p77
aS'Robert McLean'
p78
aS'Joseph Atkinson'
p79
aS'Gerrard Bent'
p80
aS'Arthur Downing'
p81
aS'William Fletcher'
p82
aS'Ernest Greene'
p83
aS'Frederick Heuston'
p84
aS'John Kennedy'
p85
aS'Ted McCarthy'
p86
aS'Thomas McCarthy'
p87
aS'Bob Thompson'
p88
aS'Thomas Johnson-Smyth'
p89
aS'Robert Nelson'
p90
aS'Oliver Stokes'
p91
aS'Edward Wolfe'
p92
aS'John Buchanan'
p93
aS'Robert Morrow'
p94
aS"Alexander O'Sullivan"
p95
aS'Joe Pedlow'
p96
aS'Stewart Bruce'
p97
aS'Henry King'
p98
aS'Frank Moore'
p99
aS'Rowland Scovell'
p100
aS'Peyton Warren'
p101
aS'Samuel Collier'
p102
aS'Henry Brabazon'
p103
aS'William Higgin'
p104
aS'Francis Levis'
p105
aS'Daniel Ross'
p106
aS'William Rutherford'
p107
aS'Alexander Gordon'
p108
aS'Thomas Hobbs'
p109
aS'Walter Kelly'
p110
aS'Lewis McIntosh'
p111
aS'Forbes Maguire'
p112
aS"John O'Sullivan"
p113
aS'George Wheeler'
p114
aS'William Collis'
p115
aS'Herbert Cook'
p116
aS'John Fitzgerald'
p117
aS'William Hallaran'
p118
aS'Alexander Hamilton'
p119
aS'Walter Johnstone'
p120
aS'Charles Jordan'
p121
aS'John McDaniel'
p122
aS'Frederick Moore'
p123
aS'Lambert Moyers'
p124
aS'Thomas Allen'
p125
aS'Robert Bradshaw'
p126
aS'Ernie Crawford'
p127
aS'Thomas Lyle'
p128
aS'Harry Neill'
p129
aS'John Ross'
p130
aS'Thomas Shanahan'
p131
aS'Robert Warren'
p132
aS'J.A. Thompson'
p133
aS'William Hogg'
p134
aS'D.V. Hunter'
p135
aS'Joseph Chambers'
p136
aS'Victor le Fanu'
p137
aS'Ralph Massy-Westropp'
p138
aS'Maxy Carpendale'
p139
aS'Robert Herrick'
p140
aS'James McMordie'
p141
aS'Francis Miller'
p142
aS'Joseph Ross'
p143
aS'Frank Stoker'
p144
aS'James Waites'
p145
aS'John Dick'
p146
aS'John Macauley'
p147
aS'James McLaughlin'
p148
aS'Robert Montgomery'
p149
aS'Daniel Rambaut'
p150
aS'Robert Stevenson'
p151
aS'Charles Tillie'
p152
aS'Dolway Walkington'
p153
aS'Edward Walshe'
p154
aS'Malcolm Moore'
p155
aS'W. Davison'
p156
aS"Patrick O'Connor"
p157
aS'Thomas Taggart'
p158
aS'William Ekin'
p159
aS'Robert Mayne'
p160
aS'James Moffatt'
p161
aS'Ernest Stoker'
p162
aS'William Morton'
p163
aS'Alfred Walpole'
p164
aS'Herbert Andrews'
p165
aS'Michael Bulger'
p166
aS'Taffy Edwards'
p167
aS'Edmund Forrest'
p168
aS'Joseph Jameson'
p169
aS'John Lytle'
p170
aS"John O'Conor"
p171
aS'James Stevenson'
p172
aS'David Woods'
p173
aS'Thomas Donovan'
p174
aS'Luke Holmes'
p175
aS'Llewellyn Nash'
p176
aS'Thomas Pedlow'
p177
aS'Charles Stack'
p178
aS'Robert Yeates'
p179
aS'John Cotton'
p180
aS'Robert Dunlop'
p181
aS'Alaster McDonnell'
p182
aS'Henry Richey'
p183
aS'William Davis'
p184
aS'Eddie Doran'
p185
aS'Harry Gifford'
p186
aS'Ralph Johnston'
p187
aS'J. Roche'
p188
aS'Hugh Galbraith'
p189
aS'Benjamin Tuke'
p190
aS'Sam Lee'
p191
aS'Charles Rooke'
p192
aS'Edwin Cameron'
p193
aS'George Collopy'
p194
aS'Edward Frazer'
p195
aS'Robert Stokes'
p196
aS'Herbert Wells'
p197
aS'Thomas Fogarty'
p198
aS'Robert Pedlow'
p199
aS'William Gardiner'
p200
aS'T.J. Johnston'
p201
aS'Thomas Peel'
p202
aS'Robert Smith'
p203
aS'Thomas Thornhill'
p204
aS'Arthur Wallis'
p205
aS'Coo Clinch'
p206
aS'Frederick Davies'
p207
aS'Michael Egan'
p208
aS'Sam Gardiner'
p209
aS'Robert Johnston'
p210
aS'Harry Lindsay'
p211
aS'Walter Brown'
p212
aS'Herbert Forrest'
p213
aS'Lucius Gwynn'
p214
aS"Bryan O'Brien"
p215
aS'Robert Hamilton'
p216
aS'William Sparrow'
p217
aS'Tom Crean'
p218
aS'James Lytle'
p219
aS'George Walmsley'
p220
aS'Andrew Bond'
p221
aS'Patrick Grant'
p222
aS'Alfred Brunker'
p223
aS'Hugh McCoull'
p224
aS'Louis Magee'
p225
aS'Joseph Magee'
p226
aS'Thomas Stevenson'
p227
aS'Glascott Symes'
p228
aS'John Fulton'
p229
aS'Edward MacIlwaine'
p230
aS'Alexander Montgomery'
p231
aS"Jack O'Connor"
p232
aS"Bill O'Sullivan"
p233
aS'Michael Delaney'
p234
aS'Arthur Gwynn'
p235
aS'Glyn Allen'
p236
aS'Lawrence Bulger'
p237
aS'Bill Byron'
p238
aS'James Sealy'
p239
aS'George McAllan'
p240
aS'John McIlwaine'
p241
aS'John Ryan'
p242
aS'Michael Ryan'
p243
aS"Pierce O'Brien-Butler"
p244
aS'John Davis'
p245
aS'James Franks'
p246
aS'Francis Purser'
p247
aS'Frederick Smithwick'
p248
aS'Ainsworth Barr'
p249
aS'Thomas Little'
p250
aS'Ned McCarthy'
p251
aS'Thomas Ahearne'
p252
aS'James Allison'
p253
aS'William Brown'
p254
aS'Ian Davidson'
p255
aS'George Harman'
p256
aS'Tom McGown'
p257
aS'Edward Campbell'
p258
aS'Gerry Doran'
p259
aS'Newry Meares'
p260
aS'Carl Reid'
p261
aS'Cecil Moriarty'
p262
aS'Ellie Allen'
p263
aS'John Coffey'
p264
aS'John Ferris'
p265
aS'Fred Gardiner'
p266
aS'Samuel Irwin'
p267
aS'Percy Nicholson'
p268
aS'Cecil Boyd'
p269
aS'Bertie Doran'
p270
aS'Thomas Harvey'
p271
aS'Albert Freear'
p272
aS'Patrick Healey'
p273
aS'Archibald Heron'
p274
aS'Harry Irvine'
p275
aS'Hugh Ferris'
p276
aS'Harry Corley'
p277
aS'Charles Fitzgerald'
p278
aS'George Hamlet'
p279
aS'Alfred Tedford'
p280
aS'John Pringle'
p281
aS'Henry Anderson'
p282
aS'George Harvey'
p283
aS'Robertson Smyth'
p284
aS'David Taylor'
p285
aS'James Wallace'
p286
aS'George Bradshaw'
p287
aS'James Parke'
p288
aS'Fred Kennedy'
p289
aS'Campbell Robb'
p290
aS'Thomas Robinson'
p291
aS'Joseph Wallace'
p292
aS'Ernest Caddell'
p293
aS'John Moffatt'
p294
aS'Reg Edwards'
p295
aS'Hercules Knox'
p296
aS'Maurice Landers'
p297
aS'Henry Millar'
p298
aS'Harry Thrift'
p299
aS'Basil MacLear'
p300
aS'Hugh Wilson'
p301
aS'Harold Sugars'
p302
aS'Francis Casement'
p303
aS'Geoffrey Henebrey'
p304
aS'William Purdon'
p305
aS'Michael White'
p306
aS'Bertie Gotto'
p307
aS'George McIldowie'
p308
aS'William Cogan'
p309
aS'Robert Forbes'
p310
aS'Thomas Greeves'
p311
aS'James Sweeney'
p312
aS'Charles Thompson'
p313
aS'Frederick Harvey'
p314
aS'Billy Hinton'
p315
aS'Charles Adams'
p316
aS'Herbert Aston'
p317
aS'Gerald Beckett'
p318
aS'Thomas Harpur'
p319
aS'Edward Morphy'
p320
aS'Frank Smartt'
p321
aS'Tom Smyth'
p322
aS'Bethel Solomons'
p323
aS'Ernest Deane'
p324
aS'Michael Garry'
p325
aS'Godfrey Pinion'
p326
aS'Oliver Piper'
p327
aS'John Blackham'
p328
aS'Thomas Halpin'
p329
aS'Richard Magrath'
p330
aS'Frederick McCormac'
p331
aS"Jack O'Connor"
p332
aS'Alexander Foster'
p333
aS'Dickie Lloyd'
p334
aS'Joseph Quinn'
p335
aS'Harry Read'
p336
aS'William Riordan'
p337
aS'Alfred Taylor'
p338
aS'Herbert Moore'
p339
aS'Robert Lyle'
p340
aS'Arthur McClinton'
p341
aS"Cyril O'Callaghan"
p342
aS'William Smyth'
p343
aS'William Beatty'
p344
aS'William Tyrrell'
p345
aS'Samuel Campbell'
p346
aS'Michael Heffernan'
p347
aS'Alexander Jackson'
p348
aS'James Smyth'
p349
aS'Richard Graham'
p350
aS'William Edwards'
p351
aS'Robert Hemphill'
p352
aS'George McConnell'
p353
aS'Charles MacIvor'
p354
aS"d'Arcy Patterson"
p355
aS'Myley Abraham'
p356
aS'George Killeen'
p357
aS'George Brown'
p358
aS'Robin Wright'
p359
aS'Robert Burgess'
p360
aS'John Clune'
p361
aS'George Holmes'
p362
aS'John Minch'
p363
aS'Geoffrey Schute'
p364
aS'Charles Stuart'
p365
aS'Richard Watson'
p366
aS'James Finlay'
p367
aS'Ernest Jeffares'
p368
aS'Patrick Stokes'
p369
aS'Gordon Young'
p370
aS'Frank Bennett'
p371
aS'J.W. McConnell'
p372
aS"Patrick O'Connell"
p373
aS'Stanhope Polden'
p374
aS'Albert Stewart'
p375
aS'Andrew Todd'
p376
aS'George Wood'
p377
aS'William Collopy'
p378
aS'John Dowse'
p379
aS'Jack Parr'
p380
aS'Vincent McNamara'
p381
aS'Frank Montgomery'
p382
aS'James Taylor'
p383
aS'Henry Jack'
p384
aS'Jasper Brett'
p385
aS'Charles Bryant'
p386
aS'Nick Butler'
p387
aS'Henry Coulter'
p388
aS'William Crawford'
p389
aS'Robert Crichton'
p390
aS'William Cullen'
p391
aS'James Dickson'
p392
aS'George Doherty'
p393
aS'Arthur Horan'
p394
aS'William Roche'
p395
aS'Thomas Wallace'
p396
aS'Andy Courtney'
p397
aS'William Duggan'
p398
aS'Basil McFarland'
p399
aS"James O'Neill"
p400
aS'Alfred Price'
p401
aS'Patrick Roddy'
p402
aS'Michael Bradley'
p403
aS'Bill Cunningham'
p404
aS'Norman Potterton'
p405
aS'Declan Browne'
p406
aS'John Smyth'
p407
aS'George Stephenson'
p408
aS'John Bermingham'
p409
aS'Henry Cormac'
p410
aS'Denis Cussen'
p411
aS'Charles Hallaran'
p412
aS'Thomas McClelland'
p413
aS'Thomas Mayne'
p414
aS'Noel Purcell'
p415
aS'John Thompson'
p416
aS'Cecil Davidson'
p417
aS'Thomas Wallis'
p418
aS'Samuel McVicker'
p419
aS'Reuben Owens'
p420
aS'Donal Sullivan'
p421
aS'Jim Wheeler'
p422
aS'Joseph Clarke'
p423
aS'John Egan'
p424
aS'Ivan Popham'
p425
aS'Henry Stephenson'
p426
aS'Joseph Gillespie'
p427
aS'Joe Stewart'
p428
aS'Dick Collopy'
p429
aS'Dunlop Cunningham'
p430
aS'James Gardiner'
p431
aS'Robert Gray'
p432
aS'William Hall'
p433
aS'Finlay Jackson'
p434
aS'Robert McClenahan'
p435
aS'Jack Mahony'
p436
aS'Peter Dunn'
p437
aS'Jamie Clinch'
p438
aS'Arthur Douglas'
p439
aS'Alfred Atkins'
p440
aS'William Collis'
p441
aS'John McDowell'
p442
aS'Jim McVicker'
p443
aS'Ian Stuart'
p444
aS'Frank Hewitt'
p445
aS'Tom Hewitt'
p446
aS'Norman Brand'
p447
aS'Alex Spain'
p448
aS'Mark Sugden'
p449
aS'George Beamish'
p450
aS'William Browne'
p451
aS'Standish Cagney'
p452
aS'Eugene Davy'
p453
aS'Robert Flood'
p454
aS'Terence Millin'
p455
aS'Jimmy Farrell'
p456
aS'Rex Hamilton'
p457
aS'Joseph Neill'
p458
aS'Allan Buchanan'
p459
aS'Charles Payne'
p460
aS'Jack Gage'
p461
aS'Charles Hanrahan'
p462
aS'Maurice Atkinson'
p463
aS'Jim Ganly'
p464
aS'Paul Murray'
p465
aS'Norman Ross'
p466
aS'Hugh McVicker'
p467
aS'Theodore Pike'
p468
aS'Joxer Arigho'
p469
aS'Thomas Bramwell'
p470
aS'Reginald Odbert'
p471
aS'Rowland Byers'
p472
aS'Jerry Mullane'
p473
aS'Mike Dunne'
p474
aS'Hugh Browne'
p475
aS'John Synge'
p476
aS'Morgan Crowe'
p477
aS'Mark Deering'
p478
aS'Claude Carroll'
p479
aS'Ted Hunt'
p480
aS'William McCormick'
p481
aS'Noel Murphy'
p482
aS"Henry O'Neill"
p483
aS'Frederick Williamson'
p484
aS'Ter Casey'
p485
aS'Major Egan'
p486
aS'Edward Lightfoot'
p487
aS'Jack Russell'
p488
aS'Jack Siggins'
p489
aS'Hal Withers'
p490
aS'Laurence McMahon'
p491
aS'Victor Pike'
p492
aS'John Entrican'
p493
aS'Dermot Morris'
p494
aS'William Ross'
p495
aS'Michael Sheehan'
p496
aS'Shaun Waide'
p497
aS'Ernest Ridgeway'
p498
aS'Robin Pratt'
p499
aS'Bobby Barnes'
p500
aS'Charles Beamish'
p501
aS'Paddy Coote'
p502
aS"Joseph O'Connor"
p503
aS'Mebs Bardon'
p504
aS'Bob Graves'
p505
aS'George Morgan'
p506
aS'James Reardon'
p507
aS'Sam Walker'
p508
aS'Ham Lambert'
p509
aS'David Lane'
p510
aS'John Reid'
p511
aS'Aidan Bailey'
p512
aS'Daniel Langan'
p513
aS'Noel McGrath'
p514
aS'John Megaw'
p515
aS'Philip Crowe'
p516
aS'Seamus Deering'
p517
aS'Patrick Lawlor'
p518
aS'Mike Sayers'
p519
aS'Victor Hewitt'
p520
aS'Jack Doyle'
p521
aS'Vesey Boyle'
p522
aS'Thomas Dunn'
p523
aS'George Malcolmson'
p524
aS'Clive Wallis'
p525
aS'Bob Alexander'
p526
aS'Fred Moran'
p527
aS'Thomas Corken'
p528
aS'George Cromey'
p529
aS'Blair Mayne'
p530
aS'Charles Reidy'
p531
aS'Ted Ryan'
p532
aS'Maurice Daly'
p533
aS'John Irwin'
p534
aS'Victor Lyttle'
p535
aS"David O'Loughlin"
p536
aS'Ronald Craig'
p537
aS'Hector Kennedy'
p538
aS'Donough Tierney'
p539
aS'Harry McKibbin'
p540
aS'Desmond Torrens'
p541
aS'Con Murphy'
p542
aS'James Ryan'
p543
aS'Charles Teehan'
p544
aS'Thomas Headon'
p545
aS'Robert Agar'
p546
aS'Colm Callan'
p547
aS'Ray Carroll'
p548
aS'John Daly'
p549
aS'John Harper'
p550
aS'Donal Hingerty'
p551
aS'Ernie Keeffe'
p552
aS'Jackie Kyle'
p553
aS'Bill McKay'
p554
aS'Barney Mullan'
p555
aS'Karl Mullen'
p556
aS'Matthew Neely'
p557
aS'Brendan Quinn'
p558
aS'Kevin Quinn'
p559
aS'Jack Monteith'
p560
aS"Bertie O'Hanlon"
p561
aS'Ernest Strathdee'
p562
aS'Dudley Higgins'
p563
aS'Mick Lane'
p564
aS'Jimmy Corcoran'
p565
aS'Albert McConnell'
p566
aS'Desmond McCourt'
p567
aS'William McKee'
p568
aS'Jimmy Nelson'
p569
aS"Kevin O'Flanagan"
p570
aS'Paddy Reid'
p571
aS'Richard Wilkinson'
p572
aS'Jim McCarthy'
p573
aS'Hugh de Lacy'
p574
aS'John Mattsson'
p575
aS"Des O'Brien"
p576
aS"Michael O'Flanagan"
p577
aS'Tom Clifford'
p578
aS'Thomas Cullen'
p579
aS'Tom Gavin'
p580
aS'George Norton'
p581
aS'Leslie Griffin'
p582
aS'Noel Henderson'
p583
aS'John Burgess'
p584
aS'Arthur Curtis'
p585
aS'Des McKibbin'
p586
aS'Louis Crowe'
p587
aS'George Phipps'
p588
aS'John Blayney'
p589
aS'Jack Molony'
p590
aS'Hex Uprichard'
p591
aS'Richard Chambers'
p592
aS'Cornelius Griffin'
p593
aS"John O'Meara"
p594
aS'John Smith'
p595
aS'William Millar'
p596
aS'James Brady'
p597
aS'Patrick Lawlor'
p598
aS'Angus McMorrow'
p599
aS'Antony Browne'
p600
aS'Gerry Murphy'
p601
aS'Robin Thompson'
p602
aS'John Notley'
p603
aS'Mick Dargan'
p604
aS"Archie O'Leary"
p605
aS'Niall Bailey'
p606
aS'Michael Hillary'
p607
aS'Patrick Kavanagh'
p608
aS"William O'Neill"
p609
aS'Robin Roe'
p610
aS'Fuzzy Anderson'
p611
aS'Ewart Bell'
p612
aS'Robin Gregg'
p613
aS'James Kavanagh'
p614
aS'Maurice Mortell'
p615
aS'Tom Reid'
p616
aS'Seamus Byrne'
p617
aS'Cecil Pedlow'
p618
aS'Gerard Reidy'
p619
aS'Joseph Gaston'
p620
aS'William Hewitt'
p621
aS"James Murphy-O'Connor"
p622
aS'Gordon Wood'
p623
aS'Robin Godfrey'
p624
aS'Seamus Kelly'
p625
aS'Patrick Berkery'
p626
aS'Herbert McCracken'
p627
aS'Marney Cunningham'
p628
aS"William O'Connell"
p629
aS"Patrick O'Donoghue"
p630
aS"Tony O'Reilly"
p631
aS'William Tector'
p632
aS'Mick Madden'
p633
aS'Richard Roche'
p634
aS'Sean McDermott'
p635
aS'David MacSweeney'
p636
aS'George Ross'
p637
aS'Cecil Fagan'
p638
aS'Adrian Kennedy'
p639
aS'Jimmy McKelvey'
p640
aS'Andy Mulligan'
p641
aS'Sean Quinlan'
p642
aS'James Ritchie'
p643
aS'Noel Feddis'
p644
aS'Brendan Guerin'
p645
aS'Charlie Lydon'
p646
aS'Leo Lynch'
p647
aS'Timothy McGrath'
p648
aS'Niall Brophy'
p649
aS"Hubert O'Connor"
p650
aS"Tony O'Sullivan"
p651
aS'James Brennan'
p652
aS'Ronnie Dawson'
p653
aS'James Donaldson'
p654
aS'Dave Hewitt'
p655
aS'Bill Mulcahy'
p656
aS'Noel Murphy'
p657
aS'James Stevenson'
p658
aS'Michael English'
p659
aS'Eric Brown'
p660
aS'Dion Glass'
p661
aS'Syd Millar'
p662
aS'Gerry Culliton'
p663
aS'John Dooley'
p664
aS'Kevin Flynn'
p665
aS'Walter Bornemann'
p666
aS'Tom Kiernan'
p667
aS'Barton McCallan'
p668
aS'Jerry Walsh'
p669
aS'Locky Butler'
p670
aS'Paddy Costello'
p671
aS'William Armstrong'
p672
aS'Ronald McCarten'
p673
aS'Jonathan Moffett'
p674
aS'Ian Dick'
p675
aS'Thomas Nesdale'
p676
aS'Dennis Scott'
p677
aS'Kenneth Houston'
p678
aS'Jimmy Dick'
p679
aS'Francis Gilpin'
p680
aS'Michael Hipwell'
p681
aS'Ray Hunter'
p682
aS"Laurence l'Estrange"
p683
aS'Willie-John McBride'
p684
aS'Ray McLoughlin'
p685
aS'John Quirke'
p686
aS'Noel Turley'
p687
aS'Gerald Hardy'
p688
aS'Noel Byrne'
p689
aS'James Kelly'
p690
aS'Patrick Dwyer'
p691
aS'Matthew Kiely'
p692
aS"Michael O'Callaghan"
p693
aS'Patrick Casey'
p694
aS'John Murray'
p695
aS'Eamonn McGuire'
p696
aS'Brian Marshall'
p697
aS'Alan Duggan'
p698
aS'John Fortune'
p699
aS'Mike Gibson'
p700
aS'Fergus Keogh'
p701
aS'Paddy Lane'
p702
aS'Mick Leahy'
p703
aS'Al Moroney'
p704
aS'Mick Doyle'
p705
aS'Ken Kennedy'
p706
aS'Ronnie Lamont'
p707
aS'Sean MacHale'
p708
aS'Roger Young'
p709
aS'Paddy McGrath'
p710
aS'Henry Wall'
p711
aS'Mick Molloy'
p712
aS'Barry Bresnihan'
p713
aS'Aidan Brady'
p714
aS'Oliver Waldron'
p715
aS'Ken Goodall'
p716
aS"Philo O'Callaghan"
p717
aS'Harry Rea'
p718
aS'Brendan Sherry'
p719
aS'Robert Scott'
p720
aS'Sam Hutton'
p721
aS'Terry Moore'
p722
aS'Billy McCombe'
p723
aS"Brian O'Brien"
p724
aS'Thomas Doyle'
p725
aS'Laurence Hunter'
p726
aS'John Moroney'
p727
aS'Jim Tydings'
p728
aS'James Davidson'
p729
aS'Barry McGann'
p730
aS'Colin Grimshaw'
p731
aS'William Brown'
p732
aS'Eric Campbell'
p733
aS'Fergus Slattery'
p734
aS'Edwin Grant'
p735
aS'Denis Hickie'
p736
aS'Sean Lynch'
p737
aS"Barry O'Driscoll"
p738
aS'Con Feighery'
p739
aS'Tom Grace'
p740
aS'Stewart McKinney'
p741
aS'Arthur McMaster'
p742
aS'John Moloney'
p743
aS'Kevin Mays'
p744
aS'James Buckley'
p745
aS'Dick Milliken'
p746
aS'Anthony Ensor'
p747
aS'Roger Clegg'
p748
aS'Seamus Dennison'
p749
aS'Michael Quinn'
p750
aS'Vinny Becker'
p751
aS'Moss Keane'
p752
aS'Patrick Agnew'
p753
aS'Shay Deering'
p754
aS'Patrick Lavery'
p755
aS'Alan Doherty'
p756
aS'James Crowe'
p757
aS'Pat Parfrey'
p758
aS'Willie Duggan'
p759
aS'Pa Whelan'
p760
aS'Michael Sherry'
p761
aS'Ollie Campbell'
p762
aS'John Cantrell'
p763
aS'Ian McIlrath'
p764
aS'Phelim McLoughlin'
p765
aS'John Robbie'
p766
aS'Brendan Foley'
p767
aS'Phil Orr'
p768
aS'Donal Canniffe'
p769
aS'Ronnie Hakin'
p770
aS'Lawrence Moloney'
p771
aS'Stephen Blake-Knox'
p772
aS'Joseph Brady'
p773
aS'Harold Steele'
p774
aS'Christopher McKibbin'
p775
aS'Jimmy Bowen'
p776
aS'Thomas Feighery'
p777
aS'Robbie McGrath'
p778
aS'Alistair McKibbin'
p779
aS'Frank Wilson'
p780
aS'Ned Byrne'
p781
aS'Charles Murtagh'
p782
aS'Raymond Finn'
p783
aS'Freddie McLennan'
p784
aS'Mick Fitzpatrick'
p785
aS'Paul McNaughton'
p786
aS"John O'Driscoll"
p787
aS'Donal Spring'
p788
aS'Tony Ward'
p789
aS'Terry Kennedy'
p790
aS'Colin Patterson'
p791
aS'Michael Gibson'
p792
aS'Ginger McLoughlin'
p793
aS'Dick Spring'
p794
aS'Colm Tucker'
p795
aS'Moss Finn'
p796
aS'Ron Elliott'
p797
aS'Ciaran Fitzgerald'
p798
aS"Rodney O'Donnell"
p799
aS'Frank Ennis'
p800
aS'James Glennon'
p801
aS"Kevin O'Brien"
p802
aS'Ian Burns'
p803
aS'David Irwin'
p804
aS'Hugo MacNeill'
p805
aS'Francis Quinn'
p806
aS'Kenneth Hooks'
p807
aS'Paul Dean'
p808
aS'Jerry Holland'
p809
aS'John Murphy'
p810
aS'John Hewitt'
p811
aS'Donal Lenihan'
p812
aS'Trevor Ringland'
p813
aS'Michael Kiernan'
p814
aS'Keith Crossan'
p815
aS'Ronan Kearney'
p816
aS'Rory Moroney'
p817
aS'William Duncan'
p818
aS'JJ McCoy'
p819
aS'Harry Harbison'
p820
aS'Tony Doyle'
p821
aS'Des Fitzgerald'
p822
aS'Derek McGrath'
p823
aS'Hugh Condon'
p824
aS'Willie Anderson'
p825
aS'Michael Bradley'
p826
aS'Philip Matthews'
p827
aS'Brendan Mullin'
p828
aS'William Sexton'
p829
aS'Nigel Carr'
p830
aS'Brian Spillane'
p831
aS'Brian McCall'
p832
aS'Robert Morrow'
p833
aS'Paul Kennedy'
p834
aS'Ralph Keyes'
p835
aS'Terry Kingston'
p836
aS'Paul Collins'
p837
aS'John McDonald'
p838
aS'Neil Francis'
p839
aS'Job Langbroek'
p840
aS'Phil Danaher'
p841
aS'John Fitzgerald'
p842
aS'Don Whittle'
p843
aS'Tom Clancy'
p844
aS'Denis McBride'
p845
aS'Michael Moylett'
p846
aS'Fergus Aherne'
p847
aS'Vince Cunningham'
p848
aS'John Sexton'
p849
aS'Steve Smith'
p850
aS'Noel Mannion'
p851
aS"Pat O'Hara"
p852
aS'Fergus Dunlea'
p853
aS'Paul Haycock'
p854
aS'Nick Popplewell'
p855
aS'Philip Rainey'
p856
aS'Brian Smith'
p857
aS'Gary Halpin'
p858
aS'Kenny Murphy'
p859
aS'Peter Russell'
p860
aS'Paddy Johns'
p861
aS'Philip Lawlor'
p862
aS'Alain Rolland'
p863
aS'Mick Galwey'
p864
aS'Simon Geoghegan'
p865
aS'Gordon Hamilton'
p866
aS'Brian Rigney'
p867
aS'Brian Robinson'
p868
aS'Rob Saunders'
p869
aS'Jack Clarke'
p870
aS'David Curtis'
p871
aS'Jim Staples'
p872
aS'Richard Wallace'
p873
aS'Nicky Barry'
p874
aS'Michael Fitzgibbon'
p875
aS'Paul Hogan'
p876
aS'Derek McAleese'
p877
aS'Ronald Carey'
p878
aS'Neville Furlong'
p879
aS'Kelvin Leahy'
p880
aS'Paul McCarthy'
p881
aS'Mark McCall'
p882
aS'Paddy Kenny'
p883
aS'John Murphy'
p884
aS'Richard Costello'
p885
aS'Niall Malone'
p886
aS'Colin Wilkinson'
p887
aS'Ciaran Clarke'
p888
aS'Peter Clohessy'
p889
aS'Brian Glennon'
p890
aS'Eric Elwood'
p891
aS"Conor O'Shea"
p892
aS"Ken O'Connell"
p893
aS'Maurice Field'
p894
aS'Jonathan Bell'
p895
aS'David Corkery'
p896
aS'Keith Wood'
p897
aS'Niall Woods'
p898
aS'Gabriel Fulcher'
p899
aS'Alan McGowan'
p900
aS'Paul Burke'
p901
aS'Anthony Foley'
p902
aS'Niall Hogan'
p903
aS'Ben Cronin'
p904
aS'Eddie Halvey'
p905
aS'Davy Tweed'
p906
aS"David O'Mahony"
p907
aS"Darragh O'Mahony"
p908
aS'Paul Wallace'
p909
aS'Jeremy Davidson'
p910
aS'Chris Saverimutto'
p911
aS'Allen Clarke'
p912
aS'Henry Hurley'
p913
aS'Sean McCahill'
p914
aS'Victor Costello'
p915
aS'Kurt McQuilkin'
p916
aS'David Humphreys'
p917
aS'Simon Mason'
p918
aS'Rob Henderson'
p919
aS'James Topping'
p920
aS'Dominic Crotty'
p921
aS'Stephen McIvor'
p922
aS'Eric Miller'
p923
aS'Paul Flavin'
p924
aS'Denis Hickie'
p925
aS'Ross Nesdale'
p926
aS"Brian O'Meara"
p927
aS'Kieron Dawson'
p928
aS'Conor McGuinness'
p929
aS'John McWeeney'
p930
aS'Kevin Nowlan'
p931
aS"Malcolm O'Kelly"
p932
aS'David Erskine'
p933
aS'Kevin Maggs'
p934
aS'Reggie Corrigan'
p935
aS"Dylan O'Grady"
p936
aS'Andy Ward'
p937
aS'Killian Keane'
p938
aS'Justin Bishop'
p939
aS'Justin Fitzpatrick'
p940
aS"Dion O'Cuinneagain"
p941
aS'Trevor Brennan'
p942
aS'Pat Duignan'
p943
aS'Girvan Dempsey'
p944
aS'Cieran Scally'
p945
aS'Matt Mostyn'
p946
aS'Mike Mullins'
p947
aS'Tom Tierney'
p948
aS"Gordon D'Arcy"
p949
aS'Angus McKeen'
p950
aS"Brian O'Driscoll"
p951
aS'Alan Quinlan'
p952
aS'Bob Casey'
p953
aS'Simon Easterby'
p954
aS'John Hayes'
p955
aS'Shane Horgan'
p956
aS"Ronan O'Gara"
p957
aS'Peter Stringer'
p958
aS'Peter McKenna'
p959
aS'David Wallace'
p960
aS'Guy Easterby'
p961
aS'Tyrone Howe'
p962
aS'Geordan Murphy'
p963
aS'Marcus Horan'
p964
aS'Frank Sheahan'
p965
aS'Gary Longwell'
p966
aS'Emmet Byrne'
p967
aS'Shane Byrne'
p968
aS"Mick O'Driscoll"
p969
aS'Jeremy Staunton'
p970
aS"Paul O'Connell"
p971
aS'Keith Gleeson'
p972
aS'John Kelly'
p973
aS'Leo Cullen'
p974
aS"Donncha O'Callaghan"
p975
aS'Mark McHugh'
p976
aS'Simon Best'
p977
aS'Anthony Horgan'
p978
aS'Aidan McCullen'
p979
aS'Paul Shields'
p980
aS'Gavin Duffy'
p981
aS"Johnny O'Connor"
p982
aS'Tommy Bowe'
p983
aS'Denis Leamy'
p984
aS'Matt McCullough'
p985
aS'Roger Wilson'
p986
aS'Kieran Campbell'
p987
aS'Trevor Hogan'
p988
aS'Bernard Jackman'
p989
aS'David Quinlan'
p990
aS'Kieran Lewis'
p991
aS'Neil Best'
p992
aS'Rory Best'
p993
aS'Andrew Trimble'
p994
aS'Jerry Flannery'
p995
aS'Eoin Reddan'
p996
aS'Isaac Boss'
p997
aS'Bryan Young'
p998
aS'Paddy Wallace'
p999
aS'Stephen Ferris'
p1000
aS'Luke Fitzgerald'
p1001
aS'Jamie Heaslip'
p1002
aS'Brian Carney'
p1003
aS'Tony Buckley'
p1004
aS'Barry Murphy'
p1005
aS"Tomas O'Leary"
p1006
aS'Shane Jennings'
p1007
aS'Rob Kearney'
p1008
aS'Keith Earls'
p1009
aS'Donnacha Ryan'
p1010
aS'Tom Court'
p1011
aS'Darren Cave'
p1012
aS'Ian Dowling'
p1013
aS'Ian Keatley'
p1014
aS'John Muldoon'
p1015
aS'Niall Ronan'
p1016
aS'Ian Whitten'
p1017
aS'Ryan Caldwell'
p1018
aS'Mike Ross'
p1019
aS'Denis Hurley'
p1020
aS'Cian Healy'
p1021
aS'Johnny Sexton'
p1022
aS'Sean Cronin'
p1023
aS"Sean O'Brien"
p1024
aS'Kevin McLaughlin'
p1025
aS'John Fogarty'
p1026
aS'Dan Tuohy'
p1027
aS'Chris Henry'
p1028
aS'Rhys Ruddock'
p1029
aS'Damien Varley'
p1030
aS'Devin Toner'
p1031
aS'Fergus McFadden'
p1032
aS'Mike McCarthy'
p1033
aS'Felix Jones'
p1034
aS'Conor Murray'
p1035
aS"Peter O'Mahony"
p1036
aS'Declan Fitzpatrick'
p1037
aS'Simon Zebo'
p1038
aS'Ronan Loughney'
p1039
aS'Richardt Strauss'
p1040
aS'Michael Bent'
p1041
aS'Iain Henderson'
p1042
aS'Dave Kilcoyne'
p1043
aS'Craig Gilroy'
p1044
aS'Paddy Jackson'
p1045
aS'Luke Marshall'
p1046
aS'Ian Madigan'
p1047
aS'Stephen Archer'
p1048
aS'Paul Marshall'
p1049
aS'Robbie Henshaw'
p1050
aS'Stuart Olding'
p1051
aS'Jamie Hagan'
p1052
aS"Tommy O'Donnell"
p1053
aS'Mike Sherry'
p1054
aS'James Downey'
p1055
aS'Jack McGrath'
p1056
aS'Dave Kearney'
p1057
aS'Marty Moore'
p1058
aS'Jordi Murphy'
p1059
aS'Robbie Diack'
p1060
aS'Rodney Ah You'
p1061
aS'Kieran Marmion'
p1062
aS'James Cronin'
p1063
aS'Rob Herring'
p1064
aS'Noel Reid'
p1065
aS'Jared Payne'
p1066
aS'Dave Foley'
p1067
aS'Dominic Ryan'
p1068
aS'Robin Copeland'
p1069
aS'Jack Conan'
p1070
aS'Nathan White'
p1071
aS'Tadhg Furlong'
p1072
aS'CJ Stander'
p1073
aS'Stuart McCloskey'
p1074
aS'Josh van der Flier'
p1075
aS'Ultan Dillane'
p1076
a.