(lp1
S'William Allen'
p2
aS'George Andrews'
p3
aS'W.H. Ash'
p4
aS'Maurice Barlow'
p5
aS'Richard Bell'
p6
aS'Brab Casement'
p7
aS'Abram Combe'
p8
aS'Henry Cox'
p9
aS'Abraham Cronyn'
p10
aS'William Gaffikin'
p11
aS'Edgar Galbraith'
p12
aS'Richard Galbraith'
p13
aS'Francis Hewson'
p14
aS'Sandy McDonald'
p15
aS'Edward MacIlwaine'
p16
aS'Robert Maginniss'
p17
aS'John Myles'
p18
aS'George Stack'
p19
aS'Robert Walkington'
p20
aS'Henry Walsh'
p21
aS'David Arnott'
p22
aS'Tim Cuscaden'
p23
aS'William Finlay'
p24
aS'R. Greer'
p25
aS'Edward Hobson'
p26
aS'John Ireland'
p27
aS'Hamilton Moore'
p28
aS'Ashley Westby'
p29
aS'H. Brown'
p30
aS'Thomas Brown'
p31
aS'Henry Edwards'
p32
aS'Thomas Gordon'
p33
aS'William Hamilton'
p34
aS'Harry Jackson'
p35
aS'Hugh Kelly'
p36
aS'Frederick Kidd'
p37
aS'Augustus Whitestone'
p38
aS'William Wilson'
p39
aS'J. Currell'
p40
aS'James Heron'
p41
aS'Henry Murray'
p42
aS'Garvett Shaw'
p43
aS'Edward Croker'
p44
aS'George Fagan'
p45
aS'W. Griffiths'
p46
aS'Barney Hughes'
p47
aS'Robert Matier'
p48
aS'William Moore'
p49
aS'Frederick Schute'
p50
aS'Arthur Archer'
p51
aS'Jack Bagot'
p52
aS'William Cummins'
p53
aS'William Goulding'
p54
aS'Thomas Harrison'
p55
aS'William Neville'
p56
aS'Henry Purdon'
p57
aS'George Scriven'
p58
aS'John Taylor'
p59
aS'James Bristow'
p60
aS'John Cuppaidge'
p61
aS'Jack Keon'
p62
aS'William Pike'
p63
aS'Willington Willis'
p64
aS'Arthur Forrest'
p65
aS'William Heron'
p66
aS'Meredith Johnston'
p67
aS'Francis Kennedy'
p68
aS'Alfred Miller'
p69
aS'William Wallis'
p70
aS'David Browning'
p71
aS'John Burkitt'
p72
aS'Alfred MacMullen'
p73
aS'Jones Morell'
p74
aS'William Peirce'
p75
aS'Henry Spunner'
p76
aS'Jack Johnston'
p77
aS'Robert McLean'
p78
aS'Joseph Atkinson'
p79
aS'Gerrard Bent'
p80
aS'Arthur Downing'
p81
aS'William Fletcher'
p82
aS'Ernest Greene'
p83
aS'Frederick Heuston'
p84
aS'John Kennedy'
p85
aS'Ted McCarthy'
p86
aS'Thomas McCarthy'
p87
aS'Bob Thompson'
p88
aS'Thomas Johnson-Smyth'
p89
aS'Robert Nelson'
p90
aS'Oliver Stokes'
p91
aS'Edward Wolfe'
p92
aS'John Buchanan'
p93
aS'Robert Morrow'
p94
aS"Alexander O'Sullivan"
p95
aS'Joe Pedlow'
p96
aS'Stewart Bruce'
p97
aS'Henry King'
p98
aS'Frank Moore'
p99
aS'Rowland Scovell'
p100
aS'Peyton Warren'
p101
aS'Samuel Collier'
p102
aS'Henry Brabazon'
p103
aS'William Higgin'
p104
aS'Francis Levis'
p105
aS'Daniel Ross'
p106
aS'William Rutherford'
p107
aS'Alexander Gordon'
p108
aS'Thomas Hobbs'
p109
aS'Walter Kelly'
p110
aS'Lewis McIntosh'
p111
aS'Forbes Maguire'
p112
aS"John O'Sullivan"
p113
aS'George Wheeler'
p114
aS'William Collis'
p115
aS'Herbert Cook'
p116
aS'John Fitzgerald'
p117
aS'William Hallaran'
p118
aS'Alexander Hamilton'
p119
aS'Walter Johnstone'
p120
aS'Charles Jordan'
p121
aS'John McDaniel'
p122
aS'Frederick Moore'
p123
aS'Lambert Moyers'
p124
aS'Thomas Allen'
p125
aS'Robert Bradshaw'
p126
aS'Ernie Crawford'
p127
aS'Thomas Lyle'
p128
aS'Harry Neill'
p129
aS'John Ross'
p130
aS'Thomas Shanahan'
p131
aS'Robert Warren'
p132
aS'J.A. Thompson'
p133
aS'William Hogg'
p134
aS'D.V. Hunter'
p135
aS'Joseph Chambers'
p136
aS'Victor le Fanu'
p137
aS'Ralph Massy-Westropp'
p138
aS'Maxy Carpendale'
p139
aS'Robert Herrick'
p140
aS'James McMordie'
p141
aS'Francis Miller'
p142
aS'Joseph Ross'
p143
aS'Frank Stoker'
p144
aS'James Waites'
p145
aS'John Dick'
p146
aS'John Macauley'
p147
aS'James McLaughlin'
p148
aS'Robert Montgomery'
p149
aS'Daniel Rambaut'
p150
aS'Robert Stevenson'
p151
aS'Charles Tillie'
p152
aS'Dolway Walkington'
p153
aS'Edward Walshe'
p154
aS'Malcolm Moore'
p155
aS'W. Davison'
p156
aS"Patrick O'Connor"
p157
aS'Thomas Taggart'
p158
aS'William Ekin'
p159
aS'Robert Mayne'
p160
aS'James Moffatt'
p161
aS'Ernest Stoker'
p162
aS'William Morton'
p163
aS'Alfred Walpole'
p164
aS'Herbert Andrews'
p165
aS'Michael Bulger'
p166
aS'Taffy Edwards'
p167
aS'Edmund Forrest'
p168
aS'Joseph Jameson'
p169
aS'John Lytle'
p170
aS"John O'Conor"
p171
aS'James Stevenson'
p172
aS'David Woods'
p173
aS'Thomas Donovan'
p174
aS'Luke Holmes'
p175
aS'Llewellyn Nash'
p176
aS'Thomas Pedlow'
p177
aS'Charles Stack'
p178
aS'Robert Yeates'
p179
aS'John Cotton'
p180
aS'Robert Dunlop'
p181
aS'Alaster McDonnell'
p182
aS'Henry Richey'
p183
aS'William Davis'
p184
aS'Eddie Doran'
p185
aS'Harry Gifford'
p186
aS'Ralph Johnston'
p187
aS'J. Roche'
p188
aS'Hugh Galbraith'
p189
aS'Benjamin Tuke'
p190
aS'Sam Lee'
p191
aS'Charles Rooke'
p192
aS'Edwin Cameron'
p193
aS'George Collopy'
p194
aS'Edward Frazer'
p195
aS'Robert Stokes'
p196
aS'Herbert Wells'
p197
aS'Thomas Fogarty'
p198
aS'Robert Pedlow'
p199
aS'William Gardiner'
p200
aS'T.J. Johnston'
p201
aS'Thomas Peel'
p202
aS'Robert Smith'
p203
aS'Thomas Thornhill'
p204
aS'Arthur Wallis'
p205
aS'Coo Clinch'
p206
aS'Frederick Davies'
p207
aS'Michael Egan'
p208
aS'Sam Gardiner'
p209
aS'Robert Johnston'
p210
aS'Harry Lindsay'
p211
aS'Walter Brown'
p212
aS'Herbert Forrest'
p213
aS'Lucius Gwynn'
p214
aS"Bryan O'Brien"
p215
aS'Robert Hamilton'
p216
aS'William Sparrow'
p217
aS'Tom Crean'
p218
aS'James Lytle'
p219
aS'George Walmsley'
p220
aS'Andrew Bond'
p221
aS'Patrick Grant'
p222
aS'Alfred Brunker'
p223
aS'Hugh McCoull'
p224
aS'Louis Magee'
p225
aS'Joseph Magee'
p226
aS'Thomas Stevenson'
p227
aS'Glascott Symes'
p228
aS'John Fulton'
p229
aS'Edward MacIlwaine'
p230
aS'Alexander Montgomery'
p231
aS"Jack O'Connor"
p232
aS"Bill O'Sullivan"
p233
aS'Michael Delaney'
p234
aS'Arthur Gwynn'
p235
aS'Glyn Allen'
p236
aS'Lawrence Bulger'
p237
aS'Bill Byron'
p238
aS'James Sealy'
p239
aS'George McAllan'
p240
aS'John McIlwaine'
p241
aS'John Ryan'
p242
aS'Michael Ryan'
p243
aS"Pierce O'Brien-Butler"
p244
aS'John Davis'
p245
aS'James Franks'
p246
aS'Francis Purser'
p247
aS'Frederick Smithwick'
p248
aS'Ainsworth Barr'
p249
aS'Thomas Little'
p250
aS'Ned McCarthy'
p251
aS'Thomas Ahearne'
p252
aS'James Allison'
p253
aS'William Brown'
p254
aS'Ian Davidson'
p255
aS'George Harman'
p256
aS'Tom McGown'
p257
aS'Edward Campbell'
p258
aS'Gerry Doran'
p259
aS'Newry Meares'
p260
aS'Carl Reid'
p261
aS'Cecil Moriarty'
p262
aS'Ellie Allen'
p263
aS'John Coffey'
p264
aS'John Ferris'
p265
aS'Fred Gardiner'
p266
aS'Samuel Irwin'
p267
aS'Percy Nicholson'
p268
aS'Cecil Boyd'
p269
aS'Bertie Doran'
p270
aS'Thomas Harvey'
p271
aS'Albert Freear'
p272
aS'Patrick Healey'
p273
aS'Archibald Heron'
p274
aS'Harry Irvine'
p275
aS'Hugh Ferris'
p276
aS'Harry Corley'
p277
aS'Charles Fitzgerald'
p278
aS'George Hamlet'
p279
aS'Alfred Tedford'
p280
aS'John Pringle'
p281
aS'Henry Anderson'
p282
aS'George Harvey'
p283
aS'Robertson Smyth'
p284
aS'David Taylor'
p285
aS'James Wallace'
p286
aS'George Bradshaw'
p287
aS'James Parke'
p288
aS'Fred Kennedy'
p289
aS'Campbell Robb'
p290
aS'Thomas Robinson'
p291
aS'Joseph Wallace'
p292
aS'Ernest Caddell'
p293
aS'John Moffatt'
p294
aS'Reg Edwards'
p295
aS'Hercules Knox'
p296
aS'Maurice Landers'
p297
aS'Henry Millar'
p298
aS'Harry Thrift'
p299
aS'Basil MacLear'
p300
aS'Hugh Wilson'
p301
aS'Harold Sugars'
p302
aS'Francis Casement'
p303
aS'Geoffrey Henebrey'
p304
aS'William Purdon'
p305
aS'Michael White'
p306
aS'Bertie Gotto'
p307
aS'George McIldowie'
p308
aS'William Cogan'
p309
aS'Robert Forbes'
p310
aS'Thomas Greeves'
p311
aS'James Sweeney'
p312
aS'Charles Thompson'
p313
aS'Frederick Harvey'
p314
aS'Billy Hinton'
p315
aS'Charles Adams'
p316
aS'Herbert Aston'
p317
aS'Gerald Beckett'
p318
aS'Thomas Harpur'
p319
aS'Edward Morphy'
p320
aS'Frank Smartt'
p321
aS'Tom Smyth'
p322
aS'Bethel Solomons'
p323
aS'Ernest Deane'
p324
aS'Michael Garry'
p325
aS'Godfrey Pinion'
p326
aS'Oliver Piper'
p327
aS'John Blackham'
p328
aS'Thomas Halpin'
p329
aS'Richard Magrath'
p330
aS'Frederick McCormac'
p331
aS"Jack O'Connor"
p332
aS'Alexander Foster'
p333
aS'Dickie Lloyd'
p334
aS'Joseph Quinn'
p335
aS'Harry Read'
p336
aS'William Riordan'
p337
aS'Alfred Taylor'
p338
aS'Herbert Moore'
p339
aS'Robert Lyle'
p340
aS'Arthur McClinton'
p341
aS"Cyril O'Callaghan"
p342
aS'William Smyth'
p343
aS'William Beatty'
p344
aS'William Tyrrell'
p345
aS'Samuel Campbell'
p346
aS'Michael Heffernan'
p347
aS'Alexander Jackson'
p348
aS'James Smyth'
p349
aS'Richard Graham'
p350
aS'William Edwards'
p351
aS'Robert Hemphill'
p352
aS'George McConnell'
p353
aS'Charles MacIvor'
p354
aS"d'Arcy Patterson"
p355
aS'Myley Abraham'
p356
aS'George Killeen'
p357
aS'George Brown'
p358
aS'Robin Wright'
p359
aS'Robert Burgess'
p360
aS'John Clune'
p361
aS'George Holmes'
p362
aS'John Minch'
p363
aS'Geoffrey Schute'
p364
aS'Charles Stuart'
p365
aS'Richard Watson'
p366
aS'James Finlay'
p367
aS'Ernest Jeffares'
p368
aS'Patrick Stokes'
p369
aS'Gordon Young'
p370
aS'Frank Bennett'
p371
aS'J.W. McConnell'
p372
aS"Patrick O'Connell"
p373
aS'Stanhope Polden'
p374
aS'Albert Stewart'
p375
aS'Andrew Todd'
p376
aS'George Wood'
p377
aS'William Collopy'
p378
aS'John Dowse'
p379
aS'Jack Parr'
p380
aS'Vincent McNamara'
p381
aS'Frank Montgomery'
p382
aS'James Taylor'
p383
aS'Henry Jack'
p384
aS'Jasper Brett'
p385
aS'Charles Bryant'
p386
aS'Nick Butler'
p387
aS'Henry Coulter'
p388
aS'William Crawford'
p389
aS'Robert Crichton'
p390
aS'William Cullen'
p391
aS'James Dickson'
p392
aS'George Doherty'
p393
aS'Arthur Horan'
p394
aS'William Roche'
p395
aS'Thomas Wallace'
p396
aS'Andy Courtney'
p397
aS'William Duggan'
p398
aS'Basil McFarland'
p399
aS"James O'Neill"
p400
aS'Alfred Price'
p401
aS'Patrick Roddy'
p402
aS'Michael Bradley'
p403
aS'Bill Cunningham'
p404
aS'Norman Potterton'
p405
aS'Declan Browne'
p406
aS'John Smyth'
p407
aS'George Stephenson'
p408
aS'John Bermingham'
p409
aS'Henry Cormac'
p410
aS'Denis Cussen'
p411
aS'Charles Hallaran'
p412
aS'Thomas McClelland'
p413
aS'Thomas Mayne'
p414
aS'Noel Purcell'
p415
aS'John Thompson'
p416
aS'Cecil Davidson'
p417
aS'Thomas Wallis'
p418
aS'Samuel McVicker'
p419
aS'Reuben Owens'
p420
aS'Donal Sullivan'
p421
aS'Jim Wheeler'
p422
aS'Joseph Clarke'
p423
aS'John Egan'
p424
aS'Ivan Popham'
p425
aS'Henry Stephenson'
p426
aS'Joseph Gillespie'
p427
aS'Joe Stewart'
p428
aS'Dick Collopy'
p429
aS'Dunlop Cunningham'
p430
aS'James Gardiner'
p431
aS'Robert Gray'
p432
aS'William Hall'
p433
aS'Finlay Jackson'
p434
aS'Robert McClenahan'
p435
aS'Jack Mahony'
p436
aS'Peter Dunn'
p437
aS'Jamie Clinch'
p438
aS'Arthur Douglas'
p439
aS'Alfred Atkins'
p440
aS'William Collis'
p441
aS'John McDowell'
p442
aS'Jim McVicker'
p443
aS'Ian Stuart'
p444
aS'Frank Hewitt'
p445
aS'Tom Hewitt'
p446
aS'Norman Brand'
p447
aS'Alex Spain'
p448
aS'Mark Sugden'
p449
aS'George Beamish'
p450
aS'William Browne'
p451
aS'Standish Cagney'
p452
aS'Eugene Davy'
p453
aS'Robert Flood'
p454
aS'Terence Millin'
p455
a.