(lp1
S'http://www.espnscrum.com/ireland/rugby/player/336.html'
p2
aS'http://www.espnscrum.com/ireland/rugby/player/337.html'
p3
aS'http://www.espnscrum.com/ireland/rugby/player/338.html'
p4
aS'http://www.espnscrum.com/ireland/rugby/player/339.html'
p5
aS'http://www.espnscrum.com/ireland/rugby/player/340.html'
p6
aS'http://www.espnscrum.com/ireland/rugby/player/341.html'
p7
aS'http://www.espnscrum.com/ireland/rugby/player/342.html'
p8
aS'http://www.espnscrum.com/ireland/rugby/player/343.html'
p9
aS'http://www.espnscrum.com/ireland/rugby/player/344.html'
p10
aS'http://www.espnscrum.com/ireland/rugby/player/346.html'
p11
aS'http://www.espnscrum.com/ireland/rugby/player/347.html'
p12
aS'http://www.espnscrum.com/ireland/rugby/player/348.html'
p13
aS'http://www.espnscrum.com/ireland/rugby/player/350.html'
p14
aS'http://www.espnscrum.com/ireland/rugby/player/352.html'
p15
aS'http://www.espnscrum.com/ireland/rugby/player/353.html'
p16
aS'http://www.espnscrum.com/ireland/rugby/player/354.html'
p17
aS'http://www.espnscrum.com/ireland/rugby/player/356.html'
p18
aS'http://www.espnscrum.com/ireland/rugby/player/360.html'
p19
aS'http://www.espnscrum.com/ireland/rugby/player/362.html'
p20
aS'http://www.espnscrum.com/ireland/rugby/player/363.html'
p21
aS'http://www.espnscrum.com/ireland/rugby/player/376.html'
p22
aS'http://www.espnscrum.com/ireland/rugby/player/381.html'
p23
aS'http://www.espnscrum.com/ireland/rugby/player/382.html'
p24
aS'http://www.espnscrum.com/ireland/rugby/player/384.html'
p25
aS'http://www.espnscrum.com/ireland/rugby/player/387.html'
p26
aS'http://www.espnscrum.com/ireland/rugby/player/388.html'
p27
aS'http://www.espnscrum.com/ireland/rugby/player/391.html'
p28
aS'http://www.espnscrum.com/ireland/rugby/player/394.html'
p29
aS'http://www.espnscrum.com/ireland/rugby/player/412.html'
p30
aS'http://www.espnscrum.com/ireland/rugby/player/413.html'
p31
aS'http://www.espnscrum.com/ireland/rugby/player/414.html'
p32
aS'http://www.espnscrum.com/ireland/rugby/player/416.html'
p33
aS'http://www.espnscrum.com/ireland/rugby/player/417.html'
p34
aS'http://www.espnscrum.com/ireland/rugby/player/420.html'
p35
aS'http://www.espnscrum.com/ireland/rugby/player/421.html'
p36
aS'http://www.espnscrum.com/ireland/rugby/player/422.html'
p37
aS'http://www.espnscrum.com/ireland/rugby/player/425.html'
p38
aS'http://www.espnscrum.com/ireland/rugby/player/426.html'
p39
aS'http://www.espnscrum.com/ireland/rugby/player/427.html'
p40
aS'http://www.espnscrum.com/ireland/rugby/player/428.html'
p41
aS'http://www.espnscrum.com/ireland/rugby/player/431.html'
p42
aS'http://www.espnscrum.com/ireland/rugby/player/434.html'
p43
aS'http://www.espnscrum.com/ireland/rugby/player/456.html'
p44
aS'http://www.espnscrum.com/ireland/rugby/player/459.html'
p45
aS'http://www.espnscrum.com/ireland/rugby/player/461.html'
p46
aS'http://www.espnscrum.com/ireland/rugby/player/462.html'
p47
aS'http://www.espnscrum.com/ireland/rugby/player/464.html'
p48
aS'http://www.espnscrum.com/ireland/rugby/player/465.html'
p49
aS'http://www.espnscrum.com/ireland/rugby/player/467.html'
p50
aS'http://www.espnscrum.com/ireland/rugby/player/470.html'
p51
aS'http://www.espnscrum.com/ireland/rugby/player/471.html'
p52
aS'http://www.espnscrum.com/ireland/rugby/player/474.html'
p53
aS'http://www.espnscrum.com/ireland/rugby/player/475.html'
p54
aS'http://www.espnscrum.com/ireland/rugby/player/476.html'
p55
aS'http://www.espnscrum.com/ireland/rugby/player/478.html'
p56
aS'http://www.espnscrum.com/ireland/rugby/player/479.html'
p57
aS'http://www.espnscrum.com/ireland/rugby/player/480.html'
p58
aS'http://www.espnscrum.com/ireland/rugby/player/483.html'
p59
aS'http://www.espnscrum.com/ireland/rugby/player/493.html'
p60
aS'http://www.espnscrum.com/ireland/rugby/player/494.html'
p61
aS'http://www.espnscrum.com/ireland/rugby/player/495.html'
p62
aS'http://www.espnscrum.com/ireland/rugby/player/497.html'
p63
aS'http://www.espnscrum.com/ireland/rugby/player/499.html'
p64
aS'http://www.espnscrum.com/ireland/rugby/player/501.html'
p65
aS'http://www.espnscrum.com/ireland/rugby/player/504.html'
p66
aS'http://www.espnscrum.com/ireland/rugby/player/506.html'
p67
aS'http://www.espnscrum.com/ireland/rugby/player/507.html'
p68
aS'http://www.espnscrum.com/ireland/rugby/player/510.html'
p69
aS'http://www.espnscrum.com/ireland/rugby/player/518.html'
p70
aS'http://www.espnscrum.com/ireland/rugby/player/524.html'
p71
aS'http://www.espnscrum.com/ireland/rugby/player/525.html'
p72
aS'http://www.espnscrum.com/ireland/rugby/player/528.html'
p73
aS'http://www.espnscrum.com/ireland/rugby/player/529.html'
p74
aS'http://www.espnscrum.com/ireland/rugby/player/530.html'
p75
aS'http://www.espnscrum.com/ireland/rugby/player/533.html'
p76
aS'http://www.espnscrum.com/ireland/rugby/player/541.html'
p77
aS'http://www.espnscrum.com/ireland/rugby/player/543.html'
p78
aS'http://www.espnscrum.com/ireland/rugby/player/566.html'
p79
aS'http://www.espnscrum.com/ireland/rugby/player/567.html'
p80
aS'http://www.espnscrum.com/ireland/rugby/player/571.html'
p81
aS'http://www.espnscrum.com/ireland/rugby/player/573.html'
p82
aS'http://www.espnscrum.com/ireland/rugby/player/575.html'
p83
aS'http://www.espnscrum.com/ireland/rugby/player/576.html'
p84
aS'http://www.espnscrum.com/ireland/rugby/player/578.html'
p85
aS'http://www.espnscrum.com/ireland/rugby/player/580.html'
p86
aS'http://www.espnscrum.com/ireland/rugby/player/581.html'
p87
aS'http://www.espnscrum.com/ireland/rugby/player/584.html'
p88
aS'http://www.espnscrum.com/ireland/rugby/player/591.html'
p89
aS'http://www.espnscrum.com/ireland/rugby/player/593.html'
p90
aS'http://www.espnscrum.com/ireland/rugby/player/595.html'
p91
aS'http://www.espnscrum.com/ireland/rugby/player/596.html'
p92
aS'http://www.espnscrum.com/ireland/rugby/player/599.html'
p93
aS'http://www.espnscrum.com/ireland/rugby/player/602.html'
p94
aS'http://www.espnscrum.com/ireland/rugby/player/603.html'
p95
aS'http://www.espnscrum.com/ireland/rugby/player/604.html'
p96
aS'http://www.espnscrum.com/ireland/rugby/player/635.html'
p97
aS'http://www.espnscrum.com/ireland/rugby/player/636.html'
p98
aS'http://www.espnscrum.com/ireland/rugby/player/637.html'
p99
aS'http://www.espnscrum.com/ireland/rugby/player/641.html'
p100
aS'http://www.espnscrum.com/ireland/rugby/player/642.html'
p101
aS'http://www.espnscrum.com/ireland/rugby/player/644.html'
p102
aS'http://www.espnscrum.com/ireland/rugby/player/662.html'
p103
aS'http://www.espnscrum.com/ireland/rugby/player/664.html'
p104
aS'http://www.espnscrum.com/ireland/rugby/player/666.html'
p105
aS'http://www.espnscrum.com/ireland/rugby/player/667.html'
p106
aS'http://www.espnscrum.com/ireland/rugby/player/668.html'
p107
aS'http://www.espnscrum.com/ireland/rugby/player/674.html'
p108
aS'http://www.espnscrum.com/ireland/rugby/player/675.html'
p109
aS'http://www.espnscrum.com/ireland/rugby/player/676.html'
p110
aS'http://www.espnscrum.com/ireland/rugby/player/677.html'
p111
aS'http://www.espnscrum.com/ireland/rugby/player/678.html'
p112
aS'http://www.espnscrum.com/ireland/rugby/player/679.html'
p113
aS'http://www.espnscrum.com/ireland/rugby/player/681.html'
p114
aS'http://www.espnscrum.com/ireland/rugby/player/683.html'
p115
aS'http://www.espnscrum.com/ireland/rugby/player/684.html'
p116
aS'http://www.espnscrum.com/ireland/rugby/player/685.html'
p117
aS'http://www.espnscrum.com/ireland/rugby/player/687.html'
p118
aS'http://www.espnscrum.com/ireland/rugby/player/688.html'
p119
aS'http://www.espnscrum.com/ireland/rugby/player/691.html'
p120
aS'http://www.espnscrum.com/ireland/rugby/player/692.html'
p121
aS'http://www.espnscrum.com/ireland/rugby/player/693.html'
p122
aS'http://www.espnscrum.com/ireland/rugby/player/694.html'
p123
aS'http://www.espnscrum.com/ireland/rugby/player/695.html'
p124
aS'http://www.espnscrum.com/ireland/rugby/player/717.html'
p125
aS'http://www.espnscrum.com/ireland/rugby/player/718.html'
p126
aS'http://www.espnscrum.com/ireland/rugby/player/719.html'
p127
aS'http://www.espnscrum.com/ireland/rugby/player/721.html'
p128
aS'http://www.espnscrum.com/ireland/rugby/player/722.html'
p129
aS'http://www.espnscrum.com/ireland/rugby/player/723.html'
p130
aS'http://www.espnscrum.com/ireland/rugby/player/724.html'
p131
aS'http://www.espnscrum.com/ireland/rugby/player/725.html'
p132
aS'http://www.espnscrum.com/ireland/rugby/player/728.html'
p133
aS'http://www.espnscrum.com/ireland/rugby/player/730.html'
p134
aS'http://www.espnscrum.com/ireland/rugby/player/731.html'
p135
aS'http://www.espnscrum.com/ireland/rugby/player/753.html'
p136
aS'http://www.espnscrum.com/ireland/rugby/player/754.html'
p137
aS'http://www.espnscrum.com/ireland/rugby/player/755.html'
p138
aS'http://www.espnscrum.com/ireland/rugby/player/758.html'
p139
aS'http://www.espnscrum.com/ireland/rugby/player/759.html'
p140
aS'http://www.espnscrum.com/ireland/rugby/player/761.html'
p141
aS'http://www.espnscrum.com/ireland/rugby/player/762.html'
p142
aS'http://www.espnscrum.com/ireland/rugby/player/763.html'
p143
aS'http://www.espnscrum.com/ireland/rugby/player/764.html'
p144
aS'http://www.espnscrum.com/ireland/rugby/player/765.html'
p145
aS'http://www.espnscrum.com/ireland/rugby/player/781.html'
p146
aS'http://www.espnscrum.com/ireland/rugby/player/783.html'
p147
aS'http://www.espnscrum.com/ireland/rugby/player/784.html'
p148
aS'http://www.espnscrum.com/ireland/rugby/player/785.html'
p149
aS'http://www.espnscrum.com/ireland/rugby/player/787.html'
p150
aS'http://www.espnscrum.com/ireland/rugby/player/789.html'
p151
aS'http://www.espnscrum.com/ireland/rugby/player/790.html'
p152
aS'http://www.espnscrum.com/ireland/rugby/player/791.html'
p153
aS'http://www.espnscrum.com/ireland/rugby/player/792.html'
p154
aS'http://www.espnscrum.com/ireland/rugby/player/795.html'
p155
aS'http://www.espnscrum.com/ireland/rugby/player/803.html'
p156
aS'http://www.espnscrum.com/ireland/rugby/player/805.html'
p157
aS'http://www.espnscrum.com/ireland/rugby/player/806.html'
p158
aS'http://www.espnscrum.com/ireland/rugby/player/823.html'
p159
aS'http://www.espnscrum.com/ireland/rugby/player/824.html'
p160
aS'http://www.espnscrum.com/ireland/rugby/player/825.html'
p161
aS'http://www.espnscrum.com/ireland/rugby/player/826.html'
p162
aS'http://www.espnscrum.com/ireland/rugby/player/829.html'
p163
aS'http://www.espnscrum.com/ireland/rugby/player/830.html'
p164
aS'http://www.espnscrum.com/ireland/rugby/player/831.html'
p165
aS'http://www.espnscrum.com/ireland/rugby/player/832.html'
p166
aS'http://www.espnscrum.com/ireland/rugby/player/833.html'
p167
aS'http://www.espnscrum.com/ireland/rugby/player/834.html'
p168
aS'http://www.espnscrum.com/ireland/rugby/player/835.html'
p169
aS'http://www.espnscrum.com/ireland/rugby/player/836.html'
p170
aS'http://www.espnscrum.com/ireland/rugby/player/837.html'
p171
aS'http://www.espnscrum.com/ireland/rugby/player/838.html'
p172
aS'http://www.espnscrum.com/ireland/rugby/player/839.html'
p173
aS'http://www.espnscrum.com/ireland/rugby/player/880.html'
p174
aS'http://www.espnscrum.com/ireland/rugby/player/882.html'
p175
aS'http://www.espnscrum.com/ireland/rugby/player/888.html'
p176
aS'http://www.espnscrum.com/ireland/rugby/player/890.html'
p177
aS'http://www.espnscrum.com/ireland/rugby/player/895.html'
p178
aS'http://www.espnscrum.com/ireland/rugby/player/899.html'
p179
aS'http://www.espnscrum.com/ireland/rugby/player/901.html'
p180
aS'http://www.espnscrum.com/ireland/rugby/player/903.html'
p181
aS'http://www.espnscrum.com/ireland/rugby/player/905.html'
p182
aS'http://www.espnscrum.com/ireland/rugby/player/907.html'
p183
aS'http://www.espnscrum.com/ireland/rugby/player/927.html'
p184
aS'http://www.espnscrum.com/ireland/rugby/player/928.html'
p185
aS'http://www.espnscrum.com/ireland/rugby/player/929.html'
p186
aS'http://www.espnscrum.com/ireland/rugby/player/930.html'
p187
aS'http://www.espnscrum.com/ireland/rugby/player/931.html'
p188
aS'http://www.espnscrum.com/ireland/rugby/player/935.html'
p189
aS'http://www.espnscrum.com/ireland/rugby/player/941.html'
p190
aS'http://www.espnscrum.com/ireland/rugby/player/959.html'
p191
aS'http://www.espnscrum.com/ireland/rugby/player/965.html'
p192
aS'http://www.espnscrum.com/ireland/rugby/player/966.html'
p193
aS'http://www.espnscrum.com/ireland/rugby/player/967.html'
p194
aS'http://www.espnscrum.com/ireland/rugby/player/968.html'
p195
aS'http://www.espnscrum.com/ireland/rugby/player/970.html'
p196
aS'http://www.espnscrum.com/ireland/rugby/player/971.html'
p197
aS'http://www.espnscrum.com/ireland/rugby/player/975.html'
p198
aS'http://www.espnscrum.com/ireland/rugby/player/978.html'
p199
aS'http://www.espnscrum.com/ireland/rugby/player/1035.html'
p200
aS'http://www.espnscrum.com/ireland/rugby/player/1038.html'
p201
aS'http://www.espnscrum.com/ireland/rugby/player/1040.html'
p202
aS'http://www.espnscrum.com/ireland/rugby/player/1043.html'
p203
aS'http://www.espnscrum.com/ireland/rugby/player/1045.html'
p204
aS'http://www.espnscrum.com/ireland/rugby/player/1046.html'
p205
aS'http://www.espnscrum.com/ireland/rugby/player/1047.html'
p206
aS'http://www.espnscrum.com/ireland/rugby/player/1048.html'
p207
aS'http://www.espnscrum.com/ireland/rugby/player/1067.html'
p208
aS'http://www.espnscrum.com/ireland/rugby/player/1068.html'
p209
aS'http://www.espnscrum.com/ireland/rugby/player/1073.html'
p210
aS'http://www.espnscrum.com/ireland/rugby/player/1074.html'
p211
aS'http://www.espnscrum.com/ireland/rugby/player/1079.html'
p212
aS'http://www.espnscrum.com/ireland/rugby/player/1083.html'
p213
aS'http://www.espnscrum.com/ireland/rugby/player/1084.html'
p214
aS'http://www.espnscrum.com/ireland/rugby/player/1085.html'
p215
aS'http://www.espnscrum.com/ireland/rugby/player/1094.html'
p216
aS'http://www.espnscrum.com/ireland/rugby/player/1095.html'
p217
aS'http://www.espnscrum.com/ireland/rugby/player/1103.html'
p218
aS'http://www.espnscrum.com/ireland/rugby/player/1106.html'
p219
aS'http://www.espnscrum.com/ireland/rugby/player/1110.html'
p220
aS'http://www.espnscrum.com/ireland/rugby/player/1114.html'
p221
aS'http://www.espnscrum.com/ireland/rugby/player/1115.html'
p222
aS'http://www.espnscrum.com/ireland/rugby/player/1146.html'
p223
aS'http://www.espnscrum.com/ireland/rugby/player/1148.html'
p224
aS'http://www.espnscrum.com/ireland/rugby/player/1149.html'
p225
aS'http://www.espnscrum.com/ireland/rugby/player/1150.html'
p226
aS'http://www.espnscrum.com/ireland/rugby/player/1151.html'
p227
aS'http://www.espnscrum.com/ireland/rugby/player/1152.html'
p228
aS'http://www.espnscrum.com/ireland/rugby/player/1153.html'
p229
aS'http://www.espnscrum.com/ireland/rugby/player/1154.html'
p230
aS'http://www.espnscrum.com/ireland/rugby/player/1155.html'
p231
aS'http://www.espnscrum.com/ireland/rugby/player/1156.html'
p232
aS'http://www.espnscrum.com/ireland/rugby/player/1157.html'
p233
aS'http://www.espnscrum.com/ireland/rugby/player/1159.html'
p234
aS'http://www.espnscrum.com/ireland/rugby/player/1160.html'
p235
aS'http://www.espnscrum.com/ireland/rugby/player/1186.html'
p236
aS'http://www.espnscrum.com/ireland/rugby/player/1187.html'
p237
aS'http://www.espnscrum.com/ireland/rugby/player/1188.html'
p238
aS'http://www.espnscrum.com/ireland/rugby/player/1189.html'
p239
aS'http://www.espnscrum.com/ireland/rugby/player/1191.html'
p240
aS'http://www.espnscrum.com/ireland/rugby/player/1257.html'
p241
aS'http://www.espnscrum.com/ireland/rugby/player/1260.html'
p242
aS'http://www.espnscrum.com/ireland/rugby/player/1261.html'
p243
aS'http://www.espnscrum.com/ireland/rugby/player/1264.html'
p244
aS'http://www.espnscrum.com/ireland/rugby/player/1271.html'
p245
aS'http://www.espnscrum.com/ireland/rugby/player/1272.html'
p246
aS'http://www.espnscrum.com/ireland/rugby/player/1276.html'
p247
aS'http://www.espnscrum.com/ireland/rugby/player/1286.html'
p248
aS'http://www.espnscrum.com/ireland/rugby/player/1298.html'
p249
aS'http://www.espnscrum.com/ireland/rugby/player/1305.html'
p250
aS'http://www.espnscrum.com/ireland/rugby/player/1306.html'
p251
aS'http://www.espnscrum.com/ireland/rugby/player/1322.html'
p252
aS'http://www.espnscrum.com/ireland/rugby/player/1323.html'
p253
aS'http://www.espnscrum.com/ireland/rugby/player/1325.html'
p254
aS'http://www.espnscrum.com/ireland/rugby/player/1327.html'
p255
aS'http://www.espnscrum.com/ireland/rugby/player/1328.html'
p256
aS'http://www.espnscrum.com/ireland/rugby/player/1329.html'
p257
aS'http://www.espnscrum.com/ireland/rugby/player/1331.html'
p258
aS'http://www.espnscrum.com/ireland/rugby/player/1332.html'
p259
aS'http://www.espnscrum.com/ireland/rugby/player/1235.html'
p260
aS'http://www.espnscrum.com/ireland/rugby/player/1335.html'
p261
aS'http://www.espnscrum.com/ireland/rugby/player/1344.html'
p262
aS'http://www.espnscrum.com/ireland/rugby/player/1419.html'
p263
aS'http://www.espnscrum.com/ireland/rugby/player/1420.html'
p264
aS'http://www.espnscrum.com/ireland/rugby/player/1421.html'
p265
aS'http://www.espnscrum.com/ireland/rugby/player/1422.html'
p266
aS'http://www.espnscrum.com/ireland/rugby/player/1423.html'
p267
aS'http://www.espnscrum.com/ireland/rugby/player/1425.html'
p268
aS'http://www.espnscrum.com/ireland/rugby/player/1201.html'
p269
aS'http://www.espnscrum.com/ireland/rugby/player/1428.html'
p270
aS'http://www.espnscrum.com/ireland/rugby/player/1434.html'
p271
aS'http://www.espnscrum.com/ireland/rugby/player/1465.html'
p272
aS'http://www.espnscrum.com/ireland/rugby/player/1468.html'
p273
aS'http://www.espnscrum.com/ireland/rugby/player/1469.html'
p274
aS'http://www.espnscrum.com/ireland/rugby/player/1476.html'
p275
aS'http://www.espnscrum.com/ireland/rugby/player/1484.html'
p276
aS'http://www.espnscrum.com/ireland/rugby/player/1508.html'
p277
aS'http://www.espnscrum.com/ireland/rugby/player/1509.html'
p278
aS'http://www.espnscrum.com/ireland/rugby/player/1510.html'
p279
aS'http://www.espnscrum.com/ireland/rugby/player/1512.html'
p280
aS'http://www.espnscrum.com/ireland/rugby/player/1516.html'
p281
aS'http://www.espnscrum.com/ireland/rugby/player/1537.html'
p282
aS'http://www.espnscrum.com/ireland/rugby/player/1538.html'
p283
aS'http://www.espnscrum.com/ireland/rugby/player/1541.html'
p284
aS'http://www.espnscrum.com/ireland/rugby/player/1542.html'
p285
aS'http://www.espnscrum.com/ireland/rugby/player/1544.html'
p286
aS'http://www.espnscrum.com/ireland/rugby/player/1545.html'
p287
aS'http://www.espnscrum.com/ireland/rugby/player/1547.html'
p288
aS'http://www.espnscrum.com/ireland/rugby/player/1632.html'
p289
aS'http://www.espnscrum.com/ireland/rugby/player/1633.html'
p290
aS'http://www.espnscrum.com/ireland/rugby/player/1634.html'
p291
aS'http://www.espnscrum.com/ireland/rugby/player/1597.html'
p292
aS'http://www.espnscrum.com/ireland/rugby/player/1635.html'
p293
aS'http://www.espnscrum.com/ireland/rugby/player/1637.html'
p294
aS'http://www.espnscrum.com/ireland/rugby/player/1641.html'
p295
aS'http://www.espnscrum.com/ireland/rugby/player/1643.html'
p296
aS'http://www.espnscrum.com/ireland/rugby/player/1644.html'
p297
aS'http://www.espnscrum.com/ireland/rugby/player/1645.html'
p298
aS'http://www.espnscrum.com/ireland/rugby/player/1647.html'
p299
aS'http://www.espnscrum.com/ireland/rugby/player/1699.html'
p300
aS'http://www.espnscrum.com/ireland/rugby/player/1702.html'
p301
aS'http://www.espnscrum.com/ireland/rugby/player/1755.html'
p302
aS'http://www.espnscrum.com/ireland/rugby/player/1798.html'
p303
aS'http://www.espnscrum.com/ireland/rugby/player/1799.html'
p304
aS'http://www.espnscrum.com/ireland/rugby/player/1803.html'
p305
aS'http://www.espnscrum.com/ireland/rugby/player/1805.html'
p306
aS'http://www.espnscrum.com/ireland/rugby/player/1836.html'
p307
aS'http://www.espnscrum.com/ireland/rugby/player/1841.html'
p308
aS'http://www.espnscrum.com/ireland/rugby/player/1875.html'
p309
aS'http://www.espnscrum.com/ireland/rugby/player/1876.html'
p310
aS'http://www.espnscrum.com/ireland/rugby/player/1877.html'
p311
aS'http://www.espnscrum.com/ireland/rugby/player/1880.html'
p312
aS'http://www.espnscrum.com/ireland/rugby/player/1881.html'
p313
aS'http://www.espnscrum.com/ireland/rugby/player/1885.html'
p314
aS'http://www.espnscrum.com/ireland/rugby/player/1886.html'
p315
aS'http://www.espnscrum.com/ireland/rugby/player/1943.html'
p316
aS'http://www.espnscrum.com/ireland/rugby/player/1944.html'
p317
aS'http://www.espnscrum.com/ireland/rugby/player/1945.html'
p318
aS'http://www.espnscrum.com/ireland/rugby/player/1946.html'
p319
aS'http://www.espnscrum.com/ireland/rugby/player/1947.html'
p320
aS'http://www.espnscrum.com/ireland/rugby/player/1948.html'
p321
aS'http://www.espnscrum.com/ireland/rugby/player/1949.html'
p322
aS'http://www.espnscrum.com/ireland/rugby/player/1950.html'
p323
aS'http://www.espnscrum.com/ireland/rugby/player/2027.html'
p324
aS'http://www.espnscrum.com/ireland/rugby/player/2028.html'
p325
aS'http://www.espnscrum.com/ireland/rugby/player/2031.html'
p326
aS'http://www.espnscrum.com/ireland/rugby/player/2032.html'
p327
aS'http://www.espnscrum.com/ireland/rugby/player/2039.html'
p328
aS'http://www.espnscrum.com/ireland/rugby/player/2040.html'
p329
aS'http://www.espnscrum.com/ireland/rugby/player/2044.html'
p330
aS'http://www.espnscrum.com/ireland/rugby/player/2047.html'
p331
aS'http://www.espnscrum.com/ireland/rugby/player/2058.html'
p332
aS'http://www.espnscrum.com/ireland/rugby/player/2087.html'
p333
aS'http://www.espnscrum.com/ireland/rugby/player/2089.html'
p334
aS'http://www.espnscrum.com/ireland/rugby/player/2090.html'
p335
aS'http://www.espnscrum.com/ireland/rugby/player/2091.html'
p336
aS'http://www.espnscrum.com/ireland/rugby/player/2092.html'
p337
aS'http://www.espnscrum.com/ireland/rugby/player/2093.html'
p338
aS'http://www.espnscrum.com/ireland/rugby/player/2097.html'
p339
aS'http://www.espnscrum.com/ireland/rugby/player/2108.html'
p340
aS'http://www.espnscrum.com/ireland/rugby/player/2109.html'
p341
aS'http://www.espnscrum.com/ireland/rugby/player/2110.html'
p342
aS'http://www.espnscrum.com/ireland/rugby/player/2111.html'
p343
aS'http://www.espnscrum.com/ireland/rugby/player/2114.html'
p344
aS'http://www.espnscrum.com/ireland/rugby/player/2117.html'
p345
aS'http://www.espnscrum.com/ireland/rugby/player/2221.html'
p346
aS'http://www.espnscrum.com/ireland/rugby/player/2222.html'
p347
aS'http://www.espnscrum.com/ireland/rugby/player/2223.html'
p348
aS'http://www.espnscrum.com/ireland/rugby/player/2224.html'
p349
aS'http://www.espnscrum.com/ireland/rugby/player/2237.html'
p350
aS'http://www.espnscrum.com/ireland/rugby/player/2244.html'
p351
aS'http://www.espnscrum.com/ireland/rugby/player/2245.html'
p352
aS'http://www.espnscrum.com/ireland/rugby/player/2248.html'
p353
aS'http://www.espnscrum.com/ireland/rugby/player/2249.html'
p354
aS'http://www.espnscrum.com/ireland/rugby/player/2250.html'
p355
aS'http://www.espnscrum.com/ireland/rugby/player/2275.html'
p356
aS'http://www.espnscrum.com/ireland/rugby/player/2276.html'
p357
aS'http://www.espnscrum.com/ireland/rugby/player/2277.html'
p358
aS'http://www.espnscrum.com/ireland/rugby/player/2278.html'
p359
aS'http://www.espnscrum.com/ireland/rugby/player/2332.html'
p360
aS'http://www.espnscrum.com/ireland/rugby/player/2333.html'
p361
aS'http://www.espnscrum.com/ireland/rugby/player/2334.html'
p362
aS'http://www.espnscrum.com/ireland/rugby/player/2335.html'
p363
aS'http://www.espnscrum.com/ireland/rugby/player/2336.html'
p364
aS'http://www.espnscrum.com/ireland/rugby/player/2337.html'
p365
aS'http://www.espnscrum.com/ireland/rugby/player/2338.html'
p366
aS'http://www.espnscrum.com/ireland/rugby/player/2375.html'
p367
aS'http://www.espnscrum.com/ireland/rugby/player/2376.html'
p368
aS'http://www.espnscrum.com/ireland/rugby/player/2378.html'
p369
aS'http://www.espnscrum.com/ireland/rugby/player/2379.html'
p370
aS'http://www.espnscrum.com/ireland/rugby/player/2380.html'
p371
aS'http://www.espnscrum.com/ireland/rugby/player/2382.html'
p372
aS'http://www.espnscrum.com/ireland/rugby/player/2391.html'
p373
aS'http://www.espnscrum.com/ireland/rugby/player/2392.html'
p374
aS'http://www.espnscrum.com/ireland/rugby/player/2393.html'
p375
aS'http://www.espnscrum.com/ireland/rugby/player/2394.html'
p376
aS'http://www.espnscrum.com/ireland/rugby/player/2395.html'
p377
aS'http://www.espnscrum.com/ireland/rugby/player/2463.html'
p378
aS'http://www.espnscrum.com/ireland/rugby/player/2464.html'
p379
aS'http://www.espnscrum.com/ireland/rugby/player/2470.html'
p380
aS'http://www.espnscrum.com/ireland/rugby/player/2495.html'
p381
aS'http://www.espnscrum.com/ireland/rugby/player/2496.html'
p382
aS'http://www.espnscrum.com/ireland/rugby/player/2497.html'
p383
aS'http://www.espnscrum.com/ireland/rugby/player/2498.html'
p384
aS'http://www.espnscrum.com/ireland/rugby/player/2502.html'
p385
aS'http://www.espnscrum.com/ireland/rugby/player/2626.html'
p386
aS'http://www.espnscrum.com/ireland/rugby/player/2627.html'
p387
aS'http://www.espnscrum.com/ireland/rugby/player/2628.html'
p388
aS'http://www.espnscrum.com/ireland/rugby/player/2629.html'
p389
aS'http://www.espnscrum.com/ireland/rugby/player/2630.html'
p390
aS'http://www.espnscrum.com/ireland/rugby/player/2631.html'
p391
aS'http://www.espnscrum.com/ireland/rugby/player/2632.html'
p392
aS'http://www.espnscrum.com/ireland/rugby/player/2633.html'
p393
aS'http://www.espnscrum.com/ireland/rugby/player/2635.html'
p394
aS'http://www.espnscrum.com/ireland/rugby/player/2637.html'
p395
aS'http://www.espnscrum.com/ireland/rugby/player/2639.html'
p396
aS'http://www.espnscrum.com/ireland/rugby/player/2646.html'
p397
aS'http://www.espnscrum.com/ireland/rugby/player/2647.html'
p398
aS'http://www.espnscrum.com/ireland/rugby/player/2648.html'
p399
aS'http://www.espnscrum.com/ireland/rugby/player/2649.html'
p400
aS'http://www.espnscrum.com/ireland/rugby/player/2650.html'
p401
aS'http://www.espnscrum.com/ireland/rugby/player/2651.html'
p402
aS'http://www.espnscrum.com/ireland/rugby/player/2652.html'
p403
aS'http://www.espnscrum.com/ireland/rugby/player/2653.html'
p404
aS'http://www.espnscrum.com/ireland/rugby/player/2655.html'
p405
aS'http://www.espnscrum.com/ireland/rugby/player/2660.html'
p406
aS'http://www.espnscrum.com/ireland/rugby/player/2665.html'
p407
aS'http://www.espnscrum.com/ireland/rugby/player/2666.html'
p408
aS'http://www.espnscrum.com/ireland/rugby/player/2756.html'
p409
aS'http://www.espnscrum.com/ireland/rugby/player/2757.html'
p410
aS'http://www.espnscrum.com/ireland/rugby/player/2758.html'
p411
aS'http://www.espnscrum.com/ireland/rugby/player/2759.html'
p412
aS'http://www.espnscrum.com/ireland/rugby/player/2760.html'
p413
aS'http://www.espnscrum.com/ireland/rugby/player/2761.html'
p414
aS'http://www.espnscrum.com/ireland/rugby/player/2762.html'
p415
aS'http://www.espnscrum.com/ireland/rugby/player/2773.html'
p416
aS'http://www.espnscrum.com/ireland/rugby/player/2781.html'
p417
aS'http://www.espnscrum.com/ireland/rugby/player/2784.html'
p418
aS'http://www.espnscrum.com/ireland/rugby/player/2873.html'
p419
aS'http://www.espnscrum.com/ireland/rugby/player/2874.html'
p420
aS'http://www.espnscrum.com/ireland/rugby/player/2877.html'
p421
aS'http://www.espnscrum.com/ireland/rugby/player/2878.html'
p422
aS'http://www.espnscrum.com/ireland/rugby/player/2879.html'
p423
aS'http://www.espnscrum.com/ireland/rugby/player/2880.html'
p424
aS'http://www.espnscrum.com/ireland/rugby/player/2882.html'
p425
aS'http://www.espnscrum.com/ireland/rugby/player/2884.html'
p426
aS'http://www.espnscrum.com/ireland/rugby/player/2885.html'
p427
aS'http://www.espnscrum.com/ireland/rugby/player/2895.html'
p428
aS'http://www.espnscrum.com/ireland/rugby/player/2959.html'
p429
aS'http://www.espnscrum.com/ireland/rugby/player/2960.html'
p430
aS'http://www.espnscrum.com/ireland/rugby/player/2961.html'
p431
aS'http://www.espnscrum.com/ireland/rugby/player/2962.html'
p432
aS'http://www.espnscrum.com/ireland/rugby/player/2963.html'
p433
aS'http://www.espnscrum.com/ireland/rugby/player/2964.html'
p434
aS'http://www.espnscrum.com/ireland/rugby/player/2965.html'
p435
aS'http://www.espnscrum.com/ireland/rugby/player/2966.html'
p436
aS'http://www.espnscrum.com/ireland/rugby/player/2970.html'
p437
aS'http://www.espnscrum.com/ireland/rugby/player/2978.html'
p438
aS'http://www.espnscrum.com/ireland/rugby/player/2992.html'
p439
aS'http://www.espnscrum.com/ireland/rugby/player/3067.html'
p440
aS'http://www.espnscrum.com/ireland/rugby/player/3069.html'
p441
aS'http://www.espnscrum.com/ireland/rugby/player/3072.html'
p442
aS'http://www.espnscrum.com/ireland/rugby/player/3073.html'
p443
aS'http://www.espnscrum.com/ireland/rugby/player/3083.html'
p444
aS'http://www.espnscrum.com/ireland/rugby/player/3092.html'
p445
aS'http://www.espnscrum.com/ireland/rugby/player/3093.html'
p446
aS'http://www.espnscrum.com/ireland/rugby/player/3146.html'
p447
aS'http://www.espnscrum.com/ireland/rugby/player/3187.html'
p448
aS'http://www.espnscrum.com/ireland/rugby/player/3197.html'
p449
aS'http://www.espnscrum.com/ireland/rugby/player/3227.html'
p450
aS'http://www.espnscrum.com/ireland/rugby/player/3228.html'
p451
aS'http://www.espnscrum.com/ireland/rugby/player/3236.html'
p452
aS'http://www.espnscrum.com/ireland/rugby/player/3237.html'
p453
aS'http://www.espnscrum.com/ireland/rugby/player/3238.html'
p454
aS'http://www.espnscrum.com/ireland/rugby/player/3242.html'
p455
a.