(lp1
VForward
p2
aVForward
p3
aVForward
p4
aVForward
p5
aVThree-quarters
p6
aVForward
p7
aVForward
p8
aVForward
p9
aVForward
p10
aVForward
p11
aVForward
p12
aVFullback
p13
aVForward
p14
aVForward
p15
aVForward
p16
aVForward
p17
aVHalfback
p18
aVForward
p19
aVFullback
p20
aVForward
p21
aVForward
p22
aVForward
p23
aVForward
p24
aVForward
p25
aVThree-quarters
p26
aVForward
p27
aVFullback
p28
aVForward
p29
aVThree-quarters
p30
aVForward
p31
aVForward
p32
aVHalfback
p33
aVForward
p34
aVForward
p35
aVForward
p36
aVThree-quarters
p37
aVHalfback
p38
aVForward
p39
aVForward
p40
aVHalfback
p41
aVForward
p42
aVFullback
p43
aVForward
p44
aVHalfback
p45
aVForward
p46
aVForward
p47
aVThree-quarters
p48
aVForward
p49
aVForward
p50
aVForward
p51
aVThree-quarters
p52
aVForward
p53
aVHalfback
p54
aVThree-quarters
p55
aVForward
p56
aVForward
p57
aVForward
p58
aVForward
p59
aVForward
p60
aVForward
p61
aVForward
p62
aVThree-quarters
p63
aVThree-quarters
p64
aVForward
p65
aVHalfback
p66
aVHalfback
p67
aVForward
p68
aVForward
p69
aVForward
p70
aVForward
p71
aVForward
p72
aVForward
p73
aVForward
p74
aVThree-quarters
p75
aVHalfback
p76
aVForward
p77
aVThree-quarters
p78
aVThree-quarters
p79
aVHalfback
p80
aVForward
p81
aVHalfback
p82
aVThree-quarters
p83
aVForward
p84
aVForward
p85
aVForward
p86
aVThree-quarters
p87
aVForward
p88
aVForward
p89
aVForward
p90
aVForward
p91
aVThree-quarters
p92
aVForward
p93
aVFullback
p94
aVForward
p95
aVThree-quarters
p96
aVForward
p97
aVForward
p98
aVForward
p99
aVThree-quarters
p100
aVHalfback
p101
aVHalfback
p102
aVForward
p103
aVHalfback
p104
aVForward
p105
aVThree-quarters
p106
aVForward
p107
aVForward
p108
aVForward
p109
aVForward
p110
aVThree-quarters
p111
aVForward
p112
aVFullback
p113
aVFullback
p114
aVForward
p115
aVForward
p116
aVForward
p117
aVHalfback
p118
aVForward
p119
aVForward
p120
aVWing
p121
aVWing
p122
aVForward
p123
aVForward
p124
aVForward
p125
aVForward
p126
aVHalfback
p127
aVForward
p128
aVForward
p129
aVThree-quarters
p130
aVForward
p131
aVHalfback
p132
aVForward
p133
aVForward
p134
aVHalfback
p135
aVForward
p136
aVForward
p137
aVForward
p138
aVThree-quarters
p139
aVHalfback
p140
aVForward
p141
aVForward
p142
aVHalfback
p143
aVForward
p144
aVForward
p145
aVForward
p146
aVForward
p147
aVHalfback
p148
aVThree-quarters
p149
aVThree-quarters
p150
aVForward
p151
aVThree-quarters
p152
aVFullback
p153
aVForward
p154
aVForward
p155
aVForward
p156
aVHalfback
p157
aVForward
p158
aVForward
p159
aVForward
p160
aVForward
p161
aVForward
p162
aVForward
p163
aVThree-quarters
p164
aVForward
p165
aVThree-quarters
p166
aVThree-quarters
p167
aVForward
p168
aVForward
p169
aVForward
p170
aVForward
p171
aVHalfback
p172
aVThree-quarters
p173
aVForward
p174
aVFullback
p175
aVForward
p176
aVThree-quarters
p177
aVForward
p178
aVThree-quarters
p179
aVForward
p180
aVThree-quarters
p181
aVHalfback
p182
aVForward
p183
aVForward
p184
aVForward
p185
aVFullback
p186
aVThree-quarters
p187
aVForward
p188
aVForward
p189
aVHalfback
p190
aVCentre
p191
aVForward
p192
aVHalfback
p193
aVForward
p194
aVForward
p195
aVForward
p196
aVThree-quarters
p197
aVForward
p198
aVHalfback
p199
aVWing
p200
aVForward
p201
aVFullback
p202
aVForward
p203
aVHalfback
p204
aVForward
p205
aVForward
p206
aVHalfback
p207
aVForward
p208
aVFullback
p209
aVWing
p210
aVForward
p211
aVHalfback
p212
aVForward
p213
aVCentre
p214
aVForward
p215
aVForward
p216
aVFullback
p217
aVForward
p218
aVForward
p219
aVForward
p220
aVForward
p221
aVFullback
p222
aVForward
p223
aVForward
p224
aVHalfback
p225
aVWing
p226
aVCentre
p227
aVFullback
p228
aVFullback
p229
aVForward
p230
aVCentre
p231
aVWing
p232
aVForward
p233
aVHalfback
p234
aVWing
p235
aVHalfback
p236
aVWing
p237
aVForward
p238
aVForward
p239
aVFullback
p240
aVForward
p241
aVForward
p242
aVForward
p243
aVFullback
p244
aVForward
p245
aVForward
p246
aVWing
p247
aVCentre
p248
aVHalfback
p249
aVForward
p250
aVForward
p251
aVForward
p252
aVCentre
p253
aVWing
p254
aVWing
p255
aVCentre
p256
aVForward
p257
aVWing
p258
aVWing
p259
aVForward
p260
aVCentre
p261
aVForward
p262
aVForward
p263
aVForward
p264
aVScrum-half
p265
aVForward
p266
aVForward
p267
aVForward
p268
aVFullback
p269
aVCentre
p270
aVForward
p271
aVWing
p272
aVForward
p273
aVForward
p274
aVForward
p275
aVScrum-half
p276
aVHalfback
p277
aVWing
p278
aVForward
p279
aVForward
p280
aVForward
p281
aVWing
p282
aVCentre
p283
aVForward
p284
aVCentre
p285
aVForward
p286
aVWing
p287
aVCentre
p288
aVHalfback
p289
aVWing
p290
aVFly-half
p291
aVForward
p292
aVScrum-half
p293
aVWing
p294
aVForward
p295
aVForward
p296
aVFullback
p297
aVForward
p298
aVWing
p299
aVCentre
p300
aVForward
p301
aVForward
p302
aVCentre
p303
aVFullback
p304
aVScrum-half
p305
aVForward
p306
aVCentre
p307
aVForward
p308
aVForward
p309
aVForward
p310
aVCentre
p311
aVForward
p312
aVWing
p313
aVFullback
p314
aVFullback
p315
aVForward
p316
aVHalfback
p317
aVCentre
p318
aVForward
p319
aVForward
p320
aVScrum-half
p321
aVForward
p322
aVForward
p323
aVWing
p324
aVForward
p325
aVFly-half
p326
aVForward
p327
aVHooker
p328
aVForward
p329
aVWing
p330
aVScrum-half
p331
aVScrum-half
p332
aVCentre
p333
aVFly-half
p334
aVWing
p335
aVScrum-half
p336
aVForward
p337
aVCentre
p338
aVForward
p339
aVCentre
p340
aVFly-half
p341
aVWing
p342
aVForward
p343
aVProp
p344
aVForward
p345
aVForward
p346
aVForward
p347
aVCentre
p348
aVForward
p349
aVFullback
p350
aVForward
p351
aVForward
p352
aVForward
p353
aVWing
p354
aVForward
p355
aVCentre
p356
aVForward
p357
aVProp
p358
aVFullback
p359
aVForward
p360
aVLock
p361
aVCentre
p362
aVCentre
p363
aVForward
p364
aVFullback
p365
aVWing
p366
aVForward
p367
aVForward
p368
aVFlanker
p369
aVFullback
p370
aVWing
p371
aVFullback
p372
aVForward
p373
aVScrum-half
p374
aVCentre
p375
aVFullback
p376
aVWing
p377
aVProp
p378
aVForward
p379
aVFlanker
p380
aVScrum-half
p381
aVFullback
p382
aVForward
p383
aVFly-half
p384
aVWing
p385
aVWing
p386
aVProp
p387
aVHooker
p388
aVFullback
p389
aVLock
p390
aVCentre
p391
aVWing
p392
aVLock
p393
aVScrum-half
p394
aVNo. 8
p395
aVCentre
p396
aVProp
p397
aVCentre
p398
aVWing
p399
aVScrum-half
p400
aVProp
p401
aVCentre
p402
aVProp
p403
aVFly-half
p404
aVNo. 8
p405
aVHooker
p406
aVFlanker
p407
aVCentre
p408
aVProp
p409
aVWing
p410
aVWing
p411
aVLock
p412
aVFlanker
p413
aVScrum-half
p414
aVNo. 8
p415
aVFlanker
p416
aVWing
p417
aVWing
p418
aVLock
p419
aVFlanker
p420
aVCentre
p421
aVFly-half
p422
aVScrum-half
p423
aVFlanker
p424
aVLock
p425
aVWing
p426
aVProp
p427
aVFullback
p428
aVProp
p429
aVLock
p430
aVCentre
p431
aVNo. 8
p432
aVFly-half
p433
aVCentre
p434
aVWing
p435
aVNo. 8
p436
aVLock
p437
aVFlanker
p438
aVWing
p439
aVWing
p440
aVHooker
p441
aVFly-half
p442
aVLock
p443
aVLock
p444
aVFly-half
p445
aVWing
p446
aVForward
p447
aVLock
p448
aVScrum-half
p449
aVNo. 8
p450
aVHooker
p451
aVLock
p452
aVFly-half
p453
aVNo. 8
p454
aVCentre
p455
a.