(lp1
VForward
p2
aVForward
p3
aVForward
p4
aVForward
p5
aVThree-quarters
p6
aVForward
p7
aVForward
p8
aVForward
p9
aVForward
p10
aVForward
p11
aVForward
p12
aVFullback
p13
aVForward
p14
aVForward
p15
aVForward
p16
aVForward
p17
aVHalfback
p18
aVForward
p19
aVFullback
p20
aVForward
p21
aVForward
p22
aVForward
p23
aVForward
p24
aVForward
p25
aVThree-quarters
p26
aVForward
p27
aVFullback
p28
aVForward
p29
aVThree-quarters
p30
aVForward
p31
aVForward
p32
aVHalfback
p33
aVForward
p34
aVForward
p35
aVForward
p36
aVThree-quarters
p37
aVHalfback
p38
aVForward
p39
aVForward
p40
aVHalfback
p41
aVForward
p42
aVFullback
p43
aVForward
p44
aVHalfback
p45
aVForward
p46
aVForward
p47
aVThree-quarters
p48
aVForward
p49
aVForward
p50
aVForward
p51
aVThree-quarters
p52
aVForward
p53
aVHalfback
p54
aVThree-quarters
p55
aVForward
p56
aVForward
p57
aVForward
p58
aVForward
p59
aVForward
p60
aVForward
p61
aVForward
p62
aVThree-quarters
p63
aVThree-quarters
p64
aVForward
p65
aVHalfback
p66
aVHalfback
p67
aVForward
p68
aVForward
p69
aVForward
p70
aVForward
p71
aVForward
p72
aVForward
p73
aVForward
p74
aVThree-quarters
p75
aVHalfback
p76
aVForward
p77
aVThree-quarters
p78
aVThree-quarters
p79
aVHalfback
p80
aVForward
p81
aVHalfback
p82
aVThree-quarters
p83
aVForward
p84
aVForward
p85
aVForward
p86
aVThree-quarters
p87
aVForward
p88
aVForward
p89
aVForward
p90
aVForward
p91
aVThree-quarters
p92
aVForward
p93
aVFullback
p94
aVForward
p95
aVThree-quarters
p96
aVForward
p97
aVForward
p98
aVForward
p99
aVThree-quarters
p100
aVHalfback
p101
aVHalfback
p102
aVForward
p103
aVHalfback
p104
aVForward
p105
aVThree-quarters
p106
aVForward
p107
aVForward
p108
aVForward
p109
aVForward
p110
aVThree-quarters
p111
aVForward
p112
aVFullback
p113
aVFullback
p114
aVForward
p115
aVForward
p116
aVForward
p117
aVHalfback
p118
aVForward
p119
aVForward
p120
aVWing
p121
aVWing
p122
aVForward
p123
aVForward
p124
aVForward
p125
aVForward
p126
aVHalfback
p127
aVForward
p128
aVForward
p129
aVThree-quarters
p130
aVForward
p131
aVHalfback
p132
aVForward
p133
aVForward
p134
aVHalfback
p135
aVForward
p136
aVForward
p137
aVForward
p138
aVThree-quarters
p139
aVHalfback
p140
aVForward
p141
aVForward
p142
aVHalfback
p143
aVForward
p144
aVForward
p145
aVForward
p146
aVForward
p147
aVHalfback
p148
aVThree-quarters
p149
aVThree-quarters
p150
aVForward
p151
aVThree-quarters
p152
aVFullback
p153
aVForward
p154
aVForward
p155
aVForward
p156
aVHalfback
p157
aVForward
p158
aVForward
p159
aVForward
p160
aVForward
p161
aVForward
p162
aVForward
p163
aVThree-quarters
p164
aVForward
p165
aVThree-quarters
p166
aVThree-quarters
p167
aVForward
p168
aVForward
p169
aVForward
p170
aVForward
p171
aVHalfback
p172
aVThree-quarters
p173
aVForward
p174
aVFullback
p175
aVForward
p176
aVThree-quarters
p177
aVForward
p178
aVThree-quarters
p179
aVForward
p180
aVThree-quarters
p181
aVHalfback
p182
aVForward
p183
aVForward
p184
aVForward
p185
aVFullback
p186
aVThree-quarters
p187
aVForward
p188
aVForward
p189
aVHalfback
p190
aVCentre
p191
aVForward
p192
aVHalfback
p193
aVForward
p194
aVForward
p195
aVForward
p196
aVThree-quarters
p197
aVForward
p198
aVHalfback
p199
aVWing
p200
aVForward
p201
aVFullback
p202
aVForward
p203
aVHalfback
p204
aVForward
p205
aVForward
p206
aVHalfback
p207
aVForward
p208
aVFullback
p209
aVWing
p210
aVForward
p211
aVHalfback
p212
aVForward
p213
aVCentre
p214
aVForward
p215
aVForward
p216
aVFullback
p217
aVForward
p218
aVForward
p219
aVForward
p220
aVForward
p221
aVFullback
p222
aVForward
p223
aVForward
p224
aVHalfback
p225
aVWing
p226
aVCentre
p227
aVFullback
p228
aVFullback
p229
aVForward
p230
aVCentre
p231
aVWing
p232
aVForward
p233
aVHalfback
p234
aVWing
p235
aVHalfback
p236
aVWing
p237
aVForward
p238
aVForward
p239
aVFullback
p240
aVForward
p241
aVForward
p242
aVForward
p243
aVFullback
p244
aVForward
p245
aVForward
p246
aVWing
p247
aVCentre
p248
aVHalfback
p249
aVForward
p250
aVForward
p251
aVForward
p252
aVCentre
p253
aVWing
p254
aVWing
p255
aVCentre
p256
aVForward
p257
aVWing
p258
aVWing
p259
aVForward
p260
aVCentre
p261
aVForward
p262
aVForward
p263
aVForward
p264
aVScrum-half
p265
aVForward
p266
aVForward
p267
aVForward
p268
aVFullback
p269
aVCentre
p270
aVForward
p271
aVWing
p272
aVForward
p273
aVForward
p274
aVForward
p275
aVScrum-half
p276
aVHalfback
p277
aVWing
p278
aVForward
p279
aVForward
p280
aVForward
p281
aVWing
p282
aVCentre
p283
aVForward
p284
aVCentre
p285
aVForward
p286
aVWing
p287
aVCentre
p288
aVHalfback
p289
aVWing
p290
aVFly-half
p291
aVForward
p292
aVScrum-half
p293
aVWing
p294
aVForward
p295
aVForward
p296
aVFullback
p297
aVForward
p298
aVWing
p299
aVCentre
p300
aVForward
p301
aVForward
p302
aVCentre
p303
aVFullback
p304
aVScrum-half
p305
aVForward
p306
aVCentre
p307
aVForward
p308
aVForward
p309
aVForward
p310
aVCentre
p311
aVForward
p312
aVWing
p313
aVFullback
p314
aVFullback
p315
aVForward
p316
aVHalfback
p317
aVCentre
p318
aVForward
p319
aVForward
p320
aVScrum-half
p321
aVForward
p322
aVForward
p323
aVWing
p324
aVForward
p325
aVFly-half
p326
aVForward
p327
aVHooker
p328
aVForward
p329
aVWing
p330
aVScrum-half
p331
aVScrum-half
p332
aVCentre
p333
aVFly-half
p334
aVWing
p335
aVScrum-half
p336
aVForward
p337
aVCentre
p338
aVForward
p339
aVCentre
p340
aVFly-half
p341
aVWing
p342
aVForward
p343
aVProp
p344
aVForward
p345
aVForward
p346
aVForward
p347
aVCentre
p348
aVForward
p349
aVFullback
p350
aVForward
p351
aVForward
p352
aVForward
p353
aVWing
p354
aVForward
p355
aVCentre
p356
aVForward
p357
aVProp
p358
aVFullback
p359
aVForward
p360
aVLock
p361
aVCentre
p362
aVCentre
p363
aVForward
p364
aVFullback
p365
aVWing
p366
aVForward
p367
aVForward
p368
aVFlanker
p369
aVFullback
p370
aVWing
p371
aVFullback
p372
aVForward
p373
aVScrum-half
p374
aVCentre
p375
aVFullback
p376
aVWing
p377
aVProp
p378
aVForward
p379
aVFlanker
p380
aVScrum-half
p381
aVFullback
p382
aVForward
p383
aVFly-half
p384
aVWing
p385
aVWing
p386
aVProp
p387
aVHooker
p388
aVFullback
p389
aVLock
p390
aVCentre
p391
aVWing
p392
aVLock
p393
aVScrum-half
p394
aVNo. 8
p395
aVCentre
p396
aVProp
p397
aVCentre
p398
aVWing
p399
aVScrum-half
p400
aVProp
p401
aVCentre
p402
aVProp
p403
aVFly-half
p404
aVNo. 8
p405
aVHooker
p406
aVFlanker
p407
aVCentre
p408
aVProp
p409
aVWing
p410
aVWing
p411
aVLock
p412
aVFlanker
p413
aVScrum-half
p414
aVNo. 8
p415
aVFlanker
p416
aVWing
p417
aVWing
p418
aVLock
p419
aVFlanker
p420
aVCentre
p421
aVFly-half
p422
aVScrum-half
p423
aVFlanker
p424
aVLock
p425
aVWing
p426
aVProp
p427
aVFullback
p428
aVProp
p429
aVLock
p430
aVCentre
p431
aVNo. 8
p432
aVFly-half
p433
aVCentre
p434
aVWing
p435
aVNo. 8
p436
aVLock
p437
aVFlanker
p438
aVWing
p439
aVWing
p440
aVHooker
p441
aVFly-half
p442
aVLock
p443
aVLock
p444
aVFly-half
p445
aVWing
p446
aVForward
p447
aVLock
p448
aVScrum-half
p449
aVNo. 8
p450
aVHooker
p451
aVLock
p452
aVFly-half
p453
aVNo. 8
p454
aVCentre
p455
aVLock
p456
aVWing
p457
aVFlanker
p458
aVProp
p459
aVHooker
p460
aVWing
p461
aVProp
p462
aVCentre
p463
aVWing
p464
aVScrum-half
p465
aVNo. 8
p466
aVLock
p467
aVProp
p468
aVWing
p469
aVHooker
p470
aVCentre
p471
aVWing
p472
aVFlanker
p473
aVLock
p474
aVHooker
p475
aVFlanker
p476
aVCentre
p477
aVLock
p478
aVLock
p479
aVCentre
p480
aVNo. 8
p481
aVFlanker
p482
aVProp
p483
aVFullback
p484
aVHooker
p485
aVFullback
p486
aVWing
p487
aVLock
p488
aVNo. 8
p489
aVNo. 8
p490
aVCentre
p491
aVHooker
p492
aVFullback
p493
aVFullback
p494
aVFlanker
p495
aVScrum-half
p496
aVWing
p497
aVCentre
p498
aVFullback
p499
aVCentre
p500
aVProp
p501
aVCentre
p502
aVWing
p503
aVFlanker
p504
aVHooker
p505
aVScrum-half
p506
aVCentre
p507
aVProp
p508
aVCentre
p509
aVWing
p510
aVFly-half
p511
aVCentre
p512
aVFullback
p513
aVProp
p514
aVNo. 8
p515
aVFullback
p516
aVLock
p517
aVFlanker
p518
aVFlanker
p519
aVFly-half
p520
aVWing
p521
aVWing
p522
aVProp
p523
aVFullback
p524
aVProp
p525
aVFlanker
p526
aVWing
p527
aVHooker
p528
aVFly-half
p529
aVLock
p530
aVProp
p531
aVProp
p532
aVWing
p533
aVNo. 8
p534
aVWing
p535
aVLock
p536
aVFullback
p537
aVProp
p538
aVLock
p539
aVCentre
p540
aVCentre
p541
aVFullback
p542
aVProp
p543
aVProp
p544
aVProp
p545
aVNo. 8
p546
aVLock
p547
aVScrum-half
p548
aVProp
p549
aVCentre
p550
aVFlanker
p551
aVLock
p552
aVFly-half
p553
aVFlanker
p554
aVWing
p555
aVHooker
p556
aVProp
p557
aVWing
p558
aVCentre
p559
aVCentre
p560
aVWing
p561
aVScrum-half
p562
aVFullback
p563
aVWing
p564
aVProp
p565
aVProp
p566
aVNo. 8
p567
aVCentre
p568
aVLock
p569
aVWing
p570
aVCentre
p571
aVLock
p572
aVFlanker
p573
aVScrum-half
p574
aVFullback
p575
aVNo. 8
p576
aVCentre
p577
aVProp
p578
aVScrum-half
p579
aVCentre
p580
aVFullback
p581
aVProp
p582
aVCentre
p583
aVScrum-half
p584
aVFlanker
p585
aVProp
p586
aVWing
p587
aVCentre
p588
aVCentre
p589
aVLock
p590
aVCentre
p591
aVCentre
p592
aVWing
p593
aVScrum-half
p594
aVProp
p595
aVWing
p596
aVLock
p597
aVLock
p598
aVFullback
p599
aVCentre
p600
aVFullback
p601
aVLock
p602
aVFullback
p603
aVFlanker
p604
aVLock
p605
aVWing
p606
aVWing
p607
aVFlanker
p608
aVProp
p609
aVHooker
p610
aVProp
p611
aVFlanker
p612
aVFullback
p613
aVFlanker
p614
aVWing
p615
aVLock
p616
aVWing
p617
aVWing
p618
aVFlanker
p619
aVWing
p620
aVFly-half
p621
aVNo. 8
p622
aVProp
p623
aVCentre
p624
aVFly-half
p625
aVFullback
p626
aVScrum-half
p627
aVFlanker
p628
aVLock
p629
aVProp
p630
aVWing
p631
aVFullback
p632
aVLock
p633
aVWing
p634
aVScrum-half
p635
aVFlanker
p636
aVNo. 8
p637
aVProp
p638
aVNo. 8
p639
aVFullback
p640
aVScrum-half
p641
aVWing
p642
aVFlanker
p643
aVFlanker
p644
aVLock
p645
aVFlanker
p646
aVLock
p647
aVNo. 8
p648
aVWing
p649
aVFlanker
p650
aVNo. 8
p651
aVProp
p652
aVHooker
p653
aVFlanker
p654
aVCentre
p655
aVLock
p656
aVFlanker
p657
aVLock
p658
aVFly-half
p659
aVFlanker
p660
aVWing, Centre
p661
aVProp
p662
aVLock
p663
aVCentre
p664
aVCentre
p665
aVWing
p666
aVFullback
p667
aVHooker
p668
aVCentre
p669
aVHooker
p670
aVLock
p671
aVFly-half
p672
aVWing
p673
aVScrum-half
p674
aVNo. 8
p675
aVFlanker
p676
aVFlanker
p677
aVWing
p678
aVHooker
p679
aVFullback
p680
aVNo. 8
p681
aVWing
p682
aVWing
p683
aVLock
p684
aVProp
p685
aVScrum-half
p686
aVFlanker
p687
aVFly-half
p688
aVWing
p689
aVScrum-half
p690
aVProp
p691
aVFlanker
p692
aVProp
p693
aVWing
p694
aVFly-half
p695
aVFlanker
p696
aVFullback
p697
aVWing
p698
aVWing
p699
aVCentre
p700
aVFullback
p701
aVHooker
p702
aVLock
p703
aVProp
p704
aVFlanker
p705
aVHooker
p706
aVFlanker
p707
aVProp
p708
aVScrum-half
p709
aVWing
p710
aVNo. 8
p711
aVLock
p712
aVCentre
p713
aVHooker
p714
aVLock, Prop
p715
aVNo. 8
p716
aVProp
p717
aVCentre
p718
aVScrum-half
p719
aVWing
p720
aVProp
p721
aVNo. 8
p722
aVFly-half
p723
aVCentre
p724
aVFlanker
p725
aVCentre
p726
aVWing
p727
aVWing
p728
aVFlanker
p729
aVFly-half
p730
aVScrum-half
p731
aVWing
p732
aVLock
p733
aVFlanker
p734
aVWing
p735
aVNo. 8
p736
aVProp
p737
aVFullback
p738
aVLock
p739
aVWing
p740
aVFlanker
p741
aVWing
p742
aVScrum-half
p743
aVLock
p744
aVFlanker
p745
aVCentre
p746
aVFullback
p747
aVProp
p748
aVWing
p749
aVFly-half
p750
aVWing
p751
aVLock
p752
aVProp
p753
aVFlanker
p754
aVCentre
p755
aV
aVCentre
p756
aVWing
p757
aVNo. 8
p758
aVHooker
p759
aVFlanker
p760
aVFly-half
p761
aVHooker
p762
aVCentre
p763
aVProp
p764
aVScrum-half
p765
aVLock
p766
aVProp
p767
aVScrum-half
p768
aVLock
p769
aVFullback
p770
aVWing
p771
aVCentre
p772
aVLock
p773
aVWing
p774
aVWing
p775
aVProp
p776
aVScrum-half
p777
aVCentre
p778
aVFullback
p779
aVProp
p780
aVLock
p781
aVCentre
p782
aVWing
p783
aVProp
p784
aVCentre
p785
aVFlanker
p786
aVLock
p787
aVFly-half
p788
aVWing
p789
aVScrum-half
p790
aVNo. 8
p791
aVProp
p792
aVFullback
p793
aVFlanker
p794
aVWing
p795
aVFullback
p796
aVHooker
p797
aVFullback
p798
aVFullback
p799
aVLock
p800
aVFullback
p801
aVFly-half
p802
aVCentre
p803
aVFullback
p804
aVWing
p805
aVWing
p806
aVFly-half
p807
aVLock
p808
aVFullback
p809
aVWing, Fullback
p810
aVLock
p811
aVWing
p812
aVCentre
p813
aVWing
p814
aVFlanker
p815
aVCentre
p816
aVFlanker
p817
aVProp
p818
aVHooker
p819
aVScrum-half
p820
aVProp
p821
aVFlanker
p822
aVCentre, Fly-half
p823
aVLock
p824
aVScrum-half
p825
aVFlanker
p826
aVCentre
p827
aVFlanker
p828
aVFlanker
p829
aVNo. 8
p830
aVLock
p831
aVFlanker
p832
aVProp
p833
aVFly-half
p834
aVHooker
p835
aVFlanker
p836
aVHooker
p837
aVLock
p838
aVProp
p839
aVCentre
p840
aVProp
p841
aVFlanker
p842
aVProp
p843
aVFlanker
p844
aVLock
p845
aVScrum-half
p846
aVCentre
p847
aVWing
p848
aVHooker
p849
aVNo. 8
p850
aVFlanker
p851
aVFullback
p852
aVWing
p853
aVProp
p854
aVFullback
p855
aVScrum-half
p856
aVProp
p857
aVFullback
p858
aVFly-half
p859
aVLock
p860
aVNo. 8
p861
aVScrum-half
p862
aVLock
p863
aVWing
p864
aVFlanker
p865
aVLock
p866
aVNo. 8
p867
aVScrum-half
p868
aVWing
p869
aVCentre
p870
aVFullback
p871
aVWing
p872
aVFly-half
p873
aVFlanker
p874
aVFlanker
p875
aVFly-half
p876
aVWing
p877
aVWing
p878
aVFlanker
p879
aVProp
p880
aVCentre
p881
aVFlanker
p882
aVHooker
p883
aVLock
p884
aVUtility back
p885
aVFullback
p886
aVFullback
p887
aVProp
p888
aVCentre
p889
aVFly-half
p890
aVFullback
p891
aVFlanker
p892
aVCentre
p893
aVCentre
p894
aVFlanker
p895
aVHooker
p896
aVWing
p897
aVLock
p898
aVFly-half
p899
aVFly-half
p900
aVBack-row
p901
aVScrum-half
p902
aVBack-row
p903
aVFlanker
p904
aVLock
p905
aVScrum-half
p906
aVWing
p907
aVProp
p908
aVLock
p909
aVScrum-half
p910
aVHooker
p911
aVProp
p912
aVCentre
p913
aVBack-row
p914
aVCentre
p915
aVFly-half
p916
aVFullback
p917
aVCentre
p918
aVWing
p919
aVFullback
p920
aVScrum-half
p921
aVBack-row
p922
aVProp
p923
aVWing
p924
aVHooker
p925
aVScrum-half
p926
aVFlanker
p927
aVScrum-half
p928
aVWing
p929
aVFullback
p930
aVLock
p931
aVLock, Flanker
p932
aVCentre
p933
aVProp
p934
aVFlanker
p935
aVFlanker
p936
aVCentre
p937
aVWing
p938
aVProp
p939
aVNo. 8
p940
aVFlanker
p941
aVWing, Centre
p942
aVFullback
p943
aVScrum-half
p944
aVWing, Fullback
p945
aVCentre
p946
aVScrum-half
p947
aVCentre
p948
aVProp
p949
aVCentre
p950
aVBack-row
p951
aVLock
p952
aVBack-row
p953
aVProp
p954
aVWing, Centre
p955
aVFly-half
p956
aVScrum-half
p957
aVWing, Fullback
p958
aVBack-row
p959
aVScrum-half
p960
aVWing
p961
aVFullback
p962
aVProp
p963
aVHooker
p964
aVLock
p965
aVProp
p966
aVHooker
p967
aVLock
p968
aVFly-half
p969
aVLock
p970
aVFlanker
p971
aVWing
p972
aVLock
p973
aVLock
p974
aVFullback, Fly-half
p975
aVProp
p976
aVWing
p977
aVFlanker
p978
aVHooker
p979
aVFullback
p980
aVBack-row
p981
aVWing
p982
aVBack-row
p983
aVLock, Flanker
p984
aVNo. 8
p985
aVScrum-half
p986
aVLock
p987
aVHooker
p988
aVCentre
p989
aVWing, Centre
p990
aVBack-row
p991
aVHooker
p992
aVWing
p993
aVHooker
p994
aVScrum-half
p995
aVScrum-half
p996
aVProp
p997
aVCentre
p998
aVFlanker
p999
aVFullback, Wing
p1000
aVNo. 8
p1001
aVOutside back
p1002
aVProp
p1003
aVWing, Centre
p1004
aVScrum-half
p1005
aVFlanker
p1006
aVWing, Fullback
p1007
aVUtility back
p1008
aVFlanker, Lock
p1009
aVProp
p1010
aVCentre
p1011
aVWing
p1012
aVFly-half
p1013
aVBack-row
p1014
aVBack-row
p1015
aVCentre
p1016
aVLock
p1017
aVProp
p1018
aVUtility back
p1019
aVProp
p1020
aVFly-half
p1021
aVHooker
p1022
aVBack-row
p1023
aVLock, Back-row
p1024
aVHooker
p1025
aVLock
p1026
aVBack-row
p1027
aVBack-row
p1028
aVHooker
p1029
aVLock
p1030
aVCentre, Wing
p1031
aVLock
p1032
aVFullback
p1033
aVScrum-half
p1034
aVBack-row
p1035
aVProp
p1036
aVWing, Fullback
p1037
aVProp
p1038
aVHooker
p1039
aVProp
p1040
aVLock
p1041
aVProp
p1042
aVWing
p1043
aVFly-half
p1044
aVCentre
p1045
aVFly-half
p1046
aVProp
p1047
aVScrum-half
p1048
aVCentre, Fullback
p1049
aVFly-half
p1050
aVProp
p1051
aVBack-row
p1052
aVHooker
p1053
aVCentre
p1054
aVProp
p1055
aVWing, Fullback
p1056
aVProp
p1057
aVFlanker
p1058
aVNo. 8
p1059
aVProp
p1060
aVScrum-half
p1061
aVProp
p1062
aVHooker
p1063
aVFly-half, Centre
p1064
aVFullback
p1065
aVLock
p1066
aVFlanker
p1067
aVBack-row
p1068
aVNo. 8
p1069
aVProp
p1070
aVProp
p1071
aVBack-row
p1072
aVCentre
p1073
aVFlanker
p1074
aVLock
p1075
a.