(lp1
(lp2
S'Enrico Allevi'
p3
aS'1929'
p4
aS'Lock'
p5
aS'date unknown'
p6
aS'2'
aS'1'
aS'0'
aS'0'
aa(lp7
S'Tommaso Altissimi'
p8
aS'1929'
p9
aS'Prop'
p10
aS'date unknown'
p11
aS'1'
aS'0'
aS'0'
aS'0'
aa(lp12
S'Aldo Balducci'
p13
aS'1929'
p14
aS'No. 8'
p15
aS'date unknown'
p16
aS'1'
aS'0'
aS'0'
aS'0'
aa(lp17
S'Vittorio Barzaghi'
p18
aS'1929'
p19
aS'Lock'
p20
aS'date unknown'
p21
aS'3'
aS'2'
aS'0'
aS'0'
aa(lp22
S'Ottavio Bottonelli'
p23
aS'1929'
p24
aS'Hooker'
p25
aS'Firenze'
p26
aS'6'
aS'2'
aS'0'
aS'3'
aa(lp27
S'Luigi Bricchi'
p28
aS'1929'
p29
aS'Prop'
p30
aS'VA'
p31
aS'3'
aS'2'
aS'0'
aS'0'
aa(lp32
S'Lucio Cesani'
p33
aS'1929'
p34
aS'Wing'
p35
aS'date unknown'
p36
aS'4'
aS'2'
aS'0'
aS'0'
aa(lp37
S'Domenico Dondana'
p38
aS'1929'
p39
aS'Fullback'
p40
aS'date unknown'
p41
aS'2'
aS'1'
aS'0'
aS'0'
aa(lp42
S'Giovanni Dora'
p43
aS'1929'
p44
aS'Centre'
p45
aS'date unknown'
p46
aS'1'
aS'0'
aS'0'
aS'0'
aa(lp47
S'Alberto Modonesi'
p48
aS'1929'
p49
aS'Scrum-half'
p50
aS'date unknown'
p51
aS'1'
aS'0'
aS'0'
aS'0'
aa(lp52
S'Piero Paselli'
p53
aS'1929'
p54
aS'Flanker'
p55
aS'circa 1907'
p56
aS'3'
aS'2'
aS'0'
aS'0'
aa(lp57
S'Carlo Raffo'
p58
aS'1929'
p59
aS'Prop'
p60
aS'date unknown'
p61
aS'6'
aS'4'
aS'0'
aS'0'
aa(lp62
S'Paolo Vinci II'
p63
aS'1929'
p64
aS'Centre'
p65
aS'United States'
p66
aS'3'
aS'2'
aS'1'
aS'3'
aa(lp67
S'Francesco Vinci III'
p68
aS'1929'
p69
aS'Centre'
p70
aS'United States'
p71
aS'15'
p72
aS'7'
aS'4'
aS'20'
p73
aa(lp74
S'Pietro Vinci IV'
p75
aS'1929'
p76
aS'Centre'
p77
aS'Briey'
p78
aS'13'
p79
aS'7'
aS'0'
aS'0'
aa(lp80
S'Amando Nisti'
p81
aS'1929'
p82
aS'Prop'
p83
aS'Roma'
p84
aS'2'
aS'1'
aS'0'
aS'0'
aa(lp85
S'Giovanni Paolin'
p86
aS'1929'
p87
aS''
aS'date unknown'
p88
aS'1'
aS'0'
aS'0'
aS'0'
aa(lp89
S'Eugenio Vinci I'
p90
aS'1929'
p91
aS''
aS'Dominican'
p92
aS'1'
aS'0'
aS'0'
aS'0'
aa(lp93
S'Giuseppe Bigi'
p94
aS'1930'
p95
aS'Scrum-half'
p96
aS'circa 1910'
p97
aS'2'
aS'2'
aS'0'
aS'0'
aa(lp98
S'Alberto di Bello'
p99
aS'1930'
p100
aS'Hooker'
p101
aS'circa 1905'
p102
aS'4'
aS'3'
aS'0'
aS'0'
aa(lp103
S'Angelo Morimondi'
p104
aS'1930'
p105
aS'Fullback'
p106
aS'Milano'
p107
aS'4'
aS'3'
aS'0'
aS'0'
aa(lp108
S'Ernesto Nathan'
p109
aS'1930'
p110
aS'Centre'
p111
aS'date unknown'
p112
aS'1'
aS'1'
aS'0'
aS'0'
aa(lp113
S'Giuseppe Sessa'
p114
aS'1930'
p115
aS'Lock'
p116
aS'1895'
p117
aS'1'
aS'1'
aS'0'
aS'0'
aa(lp118
S'Amerigo Centinari'
p119
aS'1930'
p120
aS''
aS'date unknown'
p121
aS'1'
aS'1'
aS'0'
aS'0'
aa(lp122
S'Leandro Tagliabue'
p123
aS'1930'
p124
aS'Prop'
p125
aS'circa 1909'
p126
aS'7'
aS'4'
aS'0'
aS'0'
aa(lp127
S'Ivan Aloisio'
p128
aS'1933'
p129
aS'No. 8'
p130
aS'Genova'
p131
aS'7'
aS'5'
aS'1'
aS'7'
aa(lp132
S'Aurelio Cazzini'
p133
aS'1933'
p134
aS'Wing'
p135
aS'MI'
p136
aS'15'
p137
aS'9'
aS'4'
aS'12'
p138
aa(lp139
S'Felice Colombo'
p140
aS'1933'
p141
aS'Lock'
p142
aS'Milano'
p143
aS'1'
aS'1'
aS'0'
aS'0'
aa(lp144
S'Alberto Crespi'
p145
aS'1933'
p146
aS'Lock'
p147
aS'circa 1906'
p148
aS'6'
aS'4'
aS'0'
aS'0'
aa(lp149
S'Giuseppe Gattoni'
p150
aS'1933'
p151
aS'Centre'
p152
aS'circa 1908'
p153
aS'2'
aS'2'
aS'0'
aS'0'
aa(lp154
S'Renzo Maffioli'
p155
aS'1933'
p156
aS'Centre'
p157
aS'Milano'
p158
aS'11'
p159
aS'7'
aS'2'
aS'10'
p160
aa(lp161
S'Umberto Moretti'
p162
aS'1933'
p163
aS'Scrum-half'
p164
aS'Milano'
p165
aS'7'
aS'5'
aS'0'
aS'0'
aa(lp166
S'Ferdinando Tozzi'
p167
aS'1933'
p168
aS''
aS'Napoli'
p169
aS'1'
aS'1'
aS'0'
aS'0'
aa(lp170
S'Fernando Trebbi'
p171
aS'1933'
p172
aS'Fullback'
p173
aS'Bologna'
p174
aS'2'
aS'2'
aS'0'
aS'0'
aa(lp175
S'Riccardo Aymonod'
p176
aS'1933'
p177
aS'Fly-half'
p178
aS'circa 1908'
p179
aS'4'
aS'2'
aS'2'
aS'6'
aa(lp180
S'Giogio Bortolini'
p181
aS'1933'
p182
aS'Prop'
p183
aS'BO'
p184
aS'2'
aS'1'
aS'0'
aS'0'
aa(lp185
S'Mario Campagna'
p186
aS'1933'
p187
aS'Scrum-half'
p188
aS'Milano'
p189
aS'8'
aS'3'
aS'1'
aS'3'
aa(lp190
S'Arrigo Marescalchi'
p191
aS'1933'
p192
aS'No. 8'
p193
aS'date unknown'
p194
aS'3'
aS'1'
aS'1'
aS'3'
aa(lp195
S'Eraldo Sgorbati'
p196
aS'1933'
p197
aS'Flanker'
p198
aS'Novi Piemonte'
p199
aS'12'
p200
aS'5'
aS'0'
aS'0'
aa(lp201
S'Ariosto Agosti'
p202
aS'1933'
p203
aS''
aS'PV'
p204
aS'1'
aS'1'
aS'0'
aS'0'
aa(lp205
S'Luigi Brighetti'
p206
aS'1934'
p207
aS'Flanker'
p208
aS'circa 1910'
p209
aS'1'
aS'0'
aS'0'
aS'0'
aa(lp210
S'Gastone de Angelis'
p211
aS'1934'
p212
aS'Lock'
p213
aS'Lecce'
p214
aS'5'
aS'2'
aS'0'
aS'0'
aa(lp215
S'Angelo Albonico'
p216
aS'1934'
p217
aS'Lock'
p218
aS'Turin'
p219
aS'10'
p220
aS'4'
aS'0'
aS'0'
aa(lp221
S'Giuseppe Piana'
p222
aS'1934'
p223
aS'Fly-half'
p224
aS'circa 1912'
p225
aS'6'
aS'3'
aS'0'
aS'0'
aa(lp226
S'Giancarlo Zani'
p227
aS'1934'
p228
aS'Hooker'
p229
aS'Milano'
p230
aS'1'
aS'1'
aS'0'
aS'0'
aa(lp231
S'Orlando Maestri'
p232
aS'1935'
p233
aS'Prop'
p234
aS'date unknown'
p235
aS'3'
aS'1'
aS'0'
aS'0'
aa(lp236
S'Giuseppe Visentin'
p237
aS'1935'
p238
aS'Flanker'
p239
aS'Padova'
p240
aS'9'
aS'4'
aS'4'
aS'18'
p241
aa(lp242
S'Carlo Carloni'
p243
aS'1935'
p244
aS'Flanker'
p245
aS'date unknown'
p246
aS'1'
aS'0'
aS'0'
aS'0'
aa(lp247
S'Riccardo Centinari'
p248
aS'1935'
p249
aS'Fullback'
p250
aS'PV'
p251
aS'6'
aS'2'
aS'0'
aS'0'
aa(lp252
S'Renato de Marchis'
p253
aS'1935'
p254
aS'Scrum-half'
p255
aS'date unknown'
p256
aS'1'
aS'0'
aS'0'
aS'0'
aa(lp257
S'Filippo Caccia Dominioni'
p258
aS'1935'
p259
aS'Fly-half'
p260
aS'date unknown'
p261
aS'2'
aS'0'
aS'0'
aS'0'
aa(lp262
S'Giulio Rizzoli'
p263
aS'1935'
p264
aS'Centre'
p265
aS'date unknown'
p266
aS'3'
aS'1'
aS'0'
aS'4'
aa(lp267
S'Vincenzo Bertolotto'
p268
aS'1936'
p269
aS'Lock'
p270
aS'Turin'
p271
aS'6'
aS'2'
aS'0'
aS'0'
aa(lp272
S'Sandro Bonfante'
p273
aS'1936'
p274
aS'Hooker'
p275
aS'date unknown'
p276
aS'2'
aS'1'
aS'0'
aS'0'
aa(lp277
S'Tommaso Fattori'
p278
aS'1936'
p279
aS'Prop'
p280
aS'Foligno'
p281
aS'10'
p282
aS'4'
aS'0'
aS'0'
aa(lp283
S'Arturo re Garbagnati'
p284
aS'1936'
p285
aS'No. 8'
p286
aS'Milano'
p287
aS'12'
p288
aS'6'
aS'1'
aS'3'
aa(lp289
S'Guglielmo Zoffoli'
p290
aS'1936'
p291
aS'Fullback'
p292
aS'date unknown'
p293
aS'7'
aS'3'
aS'0'
aS'0'
aa(lp294
S'Angelo Becca'
p295
aS'1937'
p296
aS'Centre'
p297
aS'date unknown'
p298
aS'4'
aS'2'
aS'0'
aS'0'
aa(lp299
S"Carlo d'Alessio"
p300
aS'1937'
p301
aS'Wing'
p302
aS'date unknown'
p303
aS'5'
aS'1'
aS'2'
aS'6'
aa(lp304
S'Renato Paciucci'
p305
aS'1937'
p306
aS'Hooker'
p307
aS'date unknown'
p308
aS'3'
aS'1'
aS'0'
aS'0'
aa(lp309
S'Torriglio Carraro'
p310
aS'1937'
p311
aS''
aS'PC'
p312
aS'1'
aS'0'
aS'0'
aS'0'
aa(lp313
S'Sandro Vigliano'
p314
aS'1937'
p315
aS'Flanker'
p316
aS'Torino'
p317
aS'6'
aS'4'
aS'2'
aS'30'
p318
aa(lp319
S'Renato Bevilacqua'
p320
aS'1937'
p321
aS'Lock'
p322
aS'Trieste'
p323
aS'9'
aS'5'
aS'0'
aS'0'
aa(lp324
S'Renzo Cova'
p325
aS'1937'
p326
aS'Wing'
p327
aS'date unknown'
p328
aS'7'
aS'4'
aS'5'
aS'15'
p329
aa(lp330
S'Ugo Stenta'
p331
aS'1937'
p332
aS'Lock'
p333
aS'date unknown'
p334
aS'9'
aS'5'
aS'1'
aS'3'
aa(lp335
S'Giuseppe Testoni'
p336
aS'1937'
p337
aS'Hooker'
p338
aS'date unknown'
p339
aS'3'
aS'2'
aS'0'
aS'0'
aa(lp340
S'Cesare Ghezzi'
p341
aS'1938'
p342
aS'Scrum-half'
p343
aS'Milano'
p344
aS'5'
aS'2'
aS'0'
aS'0'
aa(lp345
S'Genesio Bonati'
p346
aS'1939'
p347
aS'Hooker'
p348
aS'PR'
p349
aS'2'
aS'1'
aS'0'
aS'0'
aa(lp350
S'Lorenzo Clerici'
p351
aS'1939'
p352
aS'Fly-half'
p353
aS'Milano'
p354
aS'1'
aS'0'
aS'0'
aS'0'
aa(lp355
S'Orazio Bracaglia'
p356
aS'1939'
p357
aS'Prop'
p358
aS'date unknown'
p359
aS'1'
aS'1'
aS'0'
aS'0'
aa(lp360
S'Mario Dotti IV'
p361
aS'1939'
p362
aS'Wing'
p363
aS'date unknown'
p364
aS'3'
aS'2'
aS'0'
aS'0'
aa(lp365
S'Adolfo Francese'
p366
aS'1939'
p367
aS'Flanker'
p368
aS'NO'
p369
aS'2'
aS'1'
aS'0'
aS'0'
aa(lp370
S'Mario Gorni'
p371
aS'1939'
p372
aS'Hooker'
p373
aS'Mantova'
p374
aS'3'
aS'2'
aS'0'
aS'0'
aa(lp375
S'Ausonio Alacevich'
p376
aS'1939'
p377
aS''
aS'Zara'
p378
aS'1'
aS'1'
aS'0'
aS'0'
aa(lp379
S'Valerio Vagnetti'
p380
aS'1939'
p381
aS'Fly-half'
p382
aS'Roma'
p383
aS'2'
aS'1'
aS'0'
aS'0'
aa(lp384
S'Mario Battaglini'
p385
aS'1940'
p386
aS'Flanker'
p387
aS'Rovigo'
p388
aS'5'
aS'3'
aS'1'
aS'18'
p389
aa(lp390
S'Luigi Bossi'
p391
aS'1940'
p392
aS'Fullback'
p393
aS'Lonate Pozzolo'
p394
aS'2'
aS'1'
aS'0'
aS'0'
aa(lp395
S'Arturo Costa'
p396
aS'1940'
p397
aS'Wing'
p398
aS'Tripoli'
p399
aS'3'
aS'2'
aS'1'
aS'3'
aa(lp400
S'Buby Farinelli'
p401
aS'1940'
p402
aS'Centre'
p403
aS'Milano'
p404
aS'5'
aS'2'
aS'0'
aS'0'
aa(lp405
S'Gianni Figari'
p406
aS'1940'
p407
aS'Prop'
p408
aS'date unknown'
p409
aS'3'
aS'2'
aS'1'
aS'3'
aa(lp410
S'Eros Cicognani'
p411
aS'1940'
p412
aS'No. 8'
p413
aS'date unknown'
p414
aS'1'
aS'1'
aS'0'
aS'0'
aa(lp415
S'Ettore Parmiggiani'
p416
aS'1942'
p417
aS'Fly-half'
p418
aS'date unknown'
p419
aS'2'
aS'2'
aS'0'
aS'4'
aa(lp420
S'Guido Romano'
p421
aS'1942'
p422
aS'Prop'
p423
aS'date unknown'
p424
aS'1'
aS'1'
aS'1'
aS'3'
aa(lp425
S'Piero Romano'
p426
aS'1942'
p427
aS'Prop'
p428
aS'date unknown'
p429
aS'1'
aS'1'
aS'0'
aS'0'
aa(lp430
S'Enrico Zanetti'
p431
aS'1942'
p432
aS'Flanker'
p433
aS'Venezia'
p434
aS'1'
aS'1'
aS'0'
aS'0'
aa(lp435
S'Giuseppe Sessi'
p436
aS'1942'
p437
aS''
aS'RE'
p438
aS'1'
aS'1'
aS'0'
aS'0'
aa(lp439
S'Aldo Battagion'
p440
aS'1948'
p441
aS'Scrum-half'
p442
aS'Bergamo'
p443
aS'2'
aS'1'
aS'0'
aS'2'
aa(lp444
S'Francesco Battaglini'
p445
aS'1948'
p446
aS'Flanker'
p447
aS'Rovigo'
p448
aS'1'
aS'0'
aS'0'
aS'0'
aa(lp449
S'Vittorio Borsetto'
p450
aS'1948'
p451
aS'Prop'
p452
aS''
aS'2'
aS'1'
aS'0'
aS'0'
aa(lp453
S'Carlo de Vecchi'
p454
aS'1948'
p455
aS'No. 8'
p456
aS'Milano'
p457
aS'1'
aS'0'
aS'0'
aS'0'
aa(lp458
S'Umberto Faccioli'
p459
aS'1948'
p460
aS'Fly-half'
p461
aS'date unknown'
p462
aS'1'
aS'0'
aS'0'
aS'0'
aa(lp463
S'Enrico Fava'
p464
aS'1948'
p465
aS'Centre'
p466
aS'circa 1917'
p467
aS'2'
aS'1'
aS'0'
aS'5'
aa(lp468
S'Renzo Maini'
p469
aS'1948'
p470
aS'Flanker'
p471
aS'PR'
p472
aS'2'
aS'1'
aS'0'
aS'0'
aa(lp473
S'Italo Mattacchini'
p474
aS'1948'
p475
aS'Hooker'
p476
aS'TE'
p477
aS'9'
aS'4'
aS'0'
aS'0'
aa(lp478
S'Giuseppe Molinari'
p479
aS'1948'
p480
aS'Prop'
p481
aS'date unknown'
p482
aS'1'
aS'0'
aS'0'
aS'0'
aa(lp483
S'Paolo Rosi'
p484
aS'1948'
p485
aS'Centre'
p486
aS'Roma'
p487
aS'12'
p488
aS'6'
aS'7'
aS'21'
p489
aa(lp490
S'Enrico Rossini'
p491
aS'1948'
p492
aS'Wing'
p493
aS'Roma'
p494
aS'6'
aS'3'
aS'2'
aS'6'
aa(lp495
S'Pietro Stievano'
p496
aS'1948'
p497
aS'Wing'
p498
aS'Piove di Sacco'
p499
aS'8'
aS'4'
aS'2'
aS'6'
aa(lp500
S'Temistocle Tedeschi'
p501
aS'1948'
p502
aS'Fullback'
p503
aS'date unknown'
p504
aS'1'
aS'0'
aS'0'
aS'0'
aa(lp505
S'Vittorio Vicariotto'
p506
aS'1948'
p507
aS'Lock'
p508
aS'Vicenza'
p509
aS'1'
aS'0'
aS'0'
aS'0'
aa(lp510
S'Sergio Barilari'
p511
aS'1948'
p512
aS'Lock'
p513
aS'Roma'
p514
aS'3'
aS'3'
aS'0'
aS'0'
aa(lp515
S'Luciano Bove'
p516
aS'1948'
p517
aS'Lock'
p518
aS'date unknown'
p519
aS'3'
aS'1'
aS'0'
aS'0'
aa(lp520
S'Giovanni Favretto'
p521
aS'1948'
p522
aS'Prop'
p523
aS'date unknown'
p524
aS'2'
aS'1'
aS'0'
aS'0'
aa(lp525
S'Piero Gabrielli'
p526
aS'1948'
p527
aS'Flanker'
p528
aS'Roma'
p529
aS'5'
aS'2'
aS'1'
aS'3'
aa(lp530
S'Primo Masci'
p531
aS'1948'
p532
aS'Flanker'
p533
aS'Parma'
p534
aS'9'
aS'4'
aS'2'
aS'6'
aa(lp535
S'Fulvio Pitorri'
p536
aS'1948'
p537
aS'Wing'
p538
aS'date unknown'
p539
aS'2'
aS'1'
aS'1'
aS'3'
aa(lp540
S'Silvano Tartaglini'
p541
aS'1948'
p542
aS'Fullback'
p543
aS'Roma'
p544
aS'8'
aS'4'
aS'0'
aS'0'
aa(lp545
S'Mario Pisaneschi'
p546
aS'1948'
p547
aS'Scrum-half'
p548
aS'Parma'
p549
aS'12'
p550
aS'7'
aS'1'
aS'6'
aa(lp551
S'Giovanni Bonino'
p552
aS'1949'
p553
aS'Flanker'
p554
aS'date unknown'
p555
aS'1'
aS'0'
aS'0'
aS'0'
aa(lp556
S'Giogio Dagnini'
p557
aS'1949'
p558
aS'Scrum-half'
p559
aS'date unknown'
p560
aS'1'
aS'0'
aS'0'
aS'0'
aa(lp561
S'Sergio Lanfranchi'
p562
aS'1949'
p563
aS'Back-row'
p564
aS'Parma'
p565
aS'21'
p566
aS'7'
aS'4'
aS'36'
p567
aa(lp568
S'Piero Marini'
p569
aS'1949'
p570
aS'Fly-half'
p571
aS'Roma'
p572
aS'7'
aS'4'
aS'1'
aS'9'
aa(lp573
S'Umberto Silvestri'
p574
aS'1949'
p575
aS'Lock'
p576
aS'Roma'
p577
aS'2'
aS'0'
aS'0'
aS'0'
aa(lp578
S'Mario Turcato'
p579
aS'1949'
p580
aS'Prop'
p581
aS'RO'
p582
aS'2'
aS'1'
aS'0'
aS'0'
aa(lp583
S'Angelo Arrigoni'
p584
aS'1949'
p585
aS'Wing'
p586
aS'CR'
p587
aS'1'
aS'0'
aS'0'
aS'0'
aa(lp588
S'Giulio Cherubini'
p589
aS'1949'
p590
aS'Flanker'
p591
aS'Roma'
p592
aS'2'
aS'1'
aS'1'
aS'3'
aa(lp593
S'Gianni del Bono'
p594
aS'1951'
p595
aS'Wing'
p596
aS'Parma'
p597
aS'1'
aS'1'
aS'0'
aS'0'
aa(lp598
S'Paolo Favaretto'
p599
aS'1951'
p600
aS'Hooker'
p601
aS'Padova'
p602
aS'1'
aS'1'
aS'0'
aS'0'
aa(lp603
S'Romildo Gabanella'
p604
aS'1951'
p605
aS'Prop'
p606
aS'Rovigo'
p607
aS'2'
aS'2'
aS'0'
aS'0'
aa(lp608
S'Rodolfo Giuliani'
p609
aS'1951'
p610
aS'No. 8'
p611
aS'Roma'
p612
aS'1'
aS'1'
aS'0'
aS'0'
aa(lp613
S'Fausto Perrone'
p614
aS'1951'
p615
aS'Scrum-half'
p616
aS"L'Aquila"
p617
aS'1'
aS'1'
aS'0'
aS'0'
aa(lp618
S'Leonardo Riccioni'
p619
aS'1951'
p620
aS'Lock'
p621
aS'Roma'
p622
aS'7'
aS'4'
aS'0'
aS'0'
aa(lp623
S'Paolo Dari'
p624
aS'1951'
p625
aS'Lock'
p626
aS'RO'
p627
aS'8'
aS'6'
aS'3'
aS'19'
p628
aa(lp629
S'Gianni Aiolfi'
p630
aS'1952'
p631
aS'No. 8'
p632
aS'Parma'
p633
aS'6'
aS'3'
aS'1'
aS'3'
aa(lp634
S'Aldo Cecchetto-Milani'
p635
aS'1952'
p636
aS'Scrum-half'
p637
aS'Rovigo'
p638
aS'3'
aS'2'
aS'0'
aS'8'
aa(lp639
S'Lamberto de Santis'
p640
aS'1952'
p641
aS'Hooker'
p642
aS'Roma'
p643
aS'1'
aS'1'
aS'0'
aS'0'
aa(lp644
S'Giorgio Fornari'
p645
aS'1952'
p646
aS'Prop'
p647
aS'Parma'
p648
aS'16'
p649
aS'10'
p650
aS'1'
aS'3'
aa(lp651
S'Enzo Gerosa'
p652
aS'1952'
p653
aS'Wing'
p654
aS'Milano'
p655
aS'7'
aS'5'
aS'5'
aS'15'
p656
aa(lp657
S'Francis Martinenghi'
p658
aS'1952'
p659
aS'Centre'
p660
aS'Milano'
p661
aS'2'
aS'2'
aS'0'
aS'0'
aa(lp662
S'Riccardo Santopadre'
p663
aS'1952'
p664
aS'Fly-half'
p665
aS'Macerata'
p666
aS'5'
aS'3'
aS'0'
aS'0'
aa(lp667
S'Luciano Turcato'
p668
aS'1952'
p669
aS'Prop'
p670
aS'MN'
p671
aS'5'
aS'4'
aS'0'
aS'2'
aa(lp672
S'Carlo Zucchi'
p673
aS'1952'
p674
aS'Centre'
p675
aS'Milano'
p676
aS'2'
aS'1'
aS'0'
aS'0'
aa(lp677
S'Giorgio Grasselli'
p678
aS'1952'
p679
aS'Prop'
p680
aS'Roma'
p681
aS'1'
aS'1'
aS'0'
aS'0'
aa(lp682
S'Gennaro Mancini'
p683
aS'1952'
p684
aS'Hooker'
p685
aS'Parma'
p686
aS'12'
p687
aS'7'
aS'1'
aS'3'
aa(lp688
S'Emilio Andina'
p689
aS'1952'
p690
aS'Centre'
p691
aS'Pesaro'
p692
aS'2'
aS'0'
aS'0'
aS'0'
aa(lp693
S'Mario Percudani'
p694
aS'1952'
p695
aS'No. 8'
p696
aS'Parma'
p697
aS'9'
aS'5'
aS'3'
aS'9'
aa(lp698
S'Giancarlo Malosti'
p699
aS'1953'
p700
aS'Flanker'
p701
aS'Rovigo'
p702
aS'7'
aS'2'
aS'1'
aS'3'
aa(lp703
S'Nando Barbini'
p704
aS'1953'
p705
aS'Fullback'
p706
aS'Milano'
p707
aS'13'
p708
aS'10'
p709
aS'2'
aS'19'
p710
aa(lp711
S'Romano Bettarello'
p712
aS'1953'
p713
aS'Centre'
p714
aS'RO'
p715
aS'2'
aS'2'
aS'0'
aS'0'
aa(lp716
S'Gianfranco Zanchi'
p717
aS'1953'
p718
aS'No. 8'
p719
aS'1929'
p720
aS'5'
aS'5'
aS'0'
aS'0'
aa(lp721
S'Italo Scodavolpe'
p722
aS'1954'
p723
aS'Lock'
p724
aS'Pescara'
p725
aS'1'
aS'1'
aS'0'
aS'0'
aa(lp726
S'Remo Zanatta'
p727
aS'1954'
p728
aS'Centre'
p729
aS'Treviso'
p730
aS'2'
aS'1'
aS'0'
aS'0'
aa(lp731
S'Sergio Silvestri'
p732
aS'1954'
p733
aS'Wing'
p734
aS'Roma'
p735
aS'1'
aS'0'
aS'0'
aS'0'
aa(lp736
S'Andrea Taveggia'
p737
aS'1954'
p738
aS'Prop'
p739
aS'Milano'
p740
aS'16'
p741
aS'8'
aS'1'
aS'11'
p742
aa(lp743
S'Alberto Comin'
p744
aS'1955'
p745
aS'Centre'
p746
aS'Padova'
p747
aS'8'
aS'4'
aS'0'
aS'9'
aa(lp748
S'Antonio Danieli'
p749
aS'1955'
p750
aS'Prop'
p751
aS'1933'
p752
aS'5'
aS'3'
aS'0'
aS'0'
aa(lp753
S'Ciano Luise I'
p754
aS'1955'
p755
aS'Wing'
p756
aS'Padova'
p757
aS'10'
p758
aS'6'
aS'1'
aS'3'
aa(lp759
S'Aldo Mioni'
p760
aS'1955'
p761
aS'Fly-half'
p762
aS'AQ'
p763
aS'4'
aS'1'
aS'0'
aS'0'
aa(lp764
S'Gianni Riccardi'
p765
aS'1955'
p766
aS'Lock'
p767
aS'BS'
p768
aS'7'
aS'4'
aS'0'
aS'0'
aa(lp769
S'Matteo Silini'
p770
aS'1955'
p771
aS'Lock'
p772
aS'PR'
p773
aS'8'
aS'5'
aS'0'
aS'0'
aa(lp774
S'Ivano Ponchia'
p775
aS'1955'
p776
aS'Wing'
p777
aS'Padova'
p778
aS'7'
aS'3'
aS'0'
aS'0'
aa(lp779
S'Maurizio Carli'
p780
aS'1955'
p781
aS'Fly-half'
p782
aS'Parma'
p783
aS'2'
aS'2'
aS'0'
aS'0'
aa(lp784
S'Franco Perrini'
p785
aS'1955'
p786
aS'Fullback'
p787
aS'Roma'
p788
aS'11'
p789
aS'4'
aS'0'
aS'22'
p790
aa(lp791
S'Gastone Cecchetto'
p792
aS'1955'
p793
aS'Centre'
p794
aS'Rovigo'
p795
aS'1'
aS'0'
aS'0'
aS'0'
aa(lp796
S'Franco Frelich'
p797
aS'1955'
p798
aS'Prop'
p799
aS'Treviso'
p800
aS'5'
aS'3'
aS'0'
aS'0'
aa(lp801
S'Carlo Cantoni'
p802
aS'1956'
p803
aS'Wing'
p804
aS'Milano'
p805
aS'4'
aS'3'
aS'2'
aS'6'
aa(lp806
S'Lollo Levorato'
p807
aS'1956'
p808
aS'Prop'
p809
aS'VE'
p810
aS'15'
p811
aS'5'
aS'1'
aS'3'
aa(lp812
S'Paolo Pescetto'
p813
aS'1956'
p814
aS'Wing'
p815
aS'Genova'
p816
aS'3'
aS'2'
aS'3'
aS'9'
aa(lp817
S'Giovanni Raisi'
p818
aS'1956'
p819
aS'Lock'
p820
aS'RO'
p821
aS'7'
aS'4'
aS'0'
aS'0'
aa(lp822
S'Ferdinando Sartorato'
p823
aS'1956'
p824
aS'Scrum-half'
p825
aS'TV'
p826
aS'3'
aS'1'
aS'0'
aS'0'
aa(lp827
S'Lamberto Simonelli'
p828
aS'1956'
p829
aS'Centre'
p830
aS'Roma'
p831
aS'6'
aS'3'
aS'1'
aS'3'
aa(lp832
S'Arturo Zucchello'
p833
aS'1956'
p834
aS'Fly-half'
p835
aS'Treviso'
p836
aS'2'
aS'1'
aS'0'
aS'0'
aa(lp837
S'Giuseppe Bottacin'
p838
aS'1956'
p839
aS'Scrum-half'
p840
aS'Padova'
p841
aS'1'
aS'1'
aS'0'
aS'0'
aa(lp842
S'Guglielmo Geremia'
p843
aS'1956'
p844
aS'Prop'
p845
aS'Padova'
p846
aS'1'
aS'1'
aS'0'
aS'0'
aa(lp847
S'Guglielmo Colussi'
p848
aS'1957'
p849
aS'Fullback'
p850
aS'Roma'
p851
aS'7'
aS'3'
aS'0'
aS'0'
aa(lp852
S'Natale Molari'
p853
aS'1957'
p854
aS'Wing'
p855
aS'date unknown'
p856
aS'2'
aS'1'
aS'0'
aS'0'
aa(lp857
S'Enrico Saibene'
p858
aS'1957'
p859
aS'Fly-half'
p860
aS'Milano'
p861
aS'2'
aS'1'
aS'0'
aS'0'
aa(lp862
S'Sergio Brusin'
p863
aS'1957'
p864
aS'Scrum-half'
p865
aS'UD'
p866
aS'1'
aS'1'
aS'0'
aS'0'
aa(lp867
S'Giancarlo Busson'
p868
aS'1957'
p869
aS'Fullback'
p870
aS'Trieste'
p871
aS'10'
p872
aS'5'
aS'0'
aS'7'
aa(lp873
S'Giancarlo Navarrini'
p874
aS'1957'
p875
aS'Hooker'
p876
aS'La Spezia'
p877
aS'2'
aS'2'
aS'1'
aS'3'
aa(lp878
S'Riccardo Saetti'
p879
aS'1957'
p880
aS'Lock'
p881
aS'Venezia'
p882
aS'9'
aS'4'
aS'0'
aS'0'
aa(lp883
S'Luciano Valtorta'
p884
aS'1957'
p885
aS'Flanker'
p886
aS'Brescia'
p887
aS'2'
aS'1'
aS'0'
aS'0'
aa(lp888
S'Ottorino Bettarello'
p889
aS'1958'
p890
aS'Scrum-half'
p891
aS'Rovigo'
p892
aS'3'
aS'1'
aS'0'
aS'0'
aa(lp893
S'Enzo Bellinazzo'
p894
aS'1958'
p895
aS'Wing'
p896
aS'RO'
p897
aS'14'
p898
aS'6'
aS'1'
aS'3'
aa(lp899
S'Gastone Biadene'
p900
aS'1958'
p901
aS'Centre'
p902
aS'date unknown'
p903
aS'2'
aS'1'
aS'0'
aS'0'
aa(lp904
S'Massimo Braga'
p905
aS'1958'
p906
aS'Scrum-half'
p907
aS'Brescia'
p908
aS'1'
aS'1'
aS'0'
aS'0'
aa(lp909
S'Antonio di Zitti'
p910
aS'1958'
p911
aS'Flanker'
p912
aS'AQ'
p913
aS'22'
p914
aS'12'
p915
aS'0'
aS'25'
p916
aa(lp917
S'Paolo Quintavalla'
p918
aS'1958'
p919
aS'Lock'
p920
aS'Parma'
p921
aS'1'
aS'1'
aS'0'
aS'0'
aa(lp922
S'Pietro Sguario'
p923
aS'1958'
p924
aS'Wing'
p925
aS'Abbazia Fiume'
p926
aS'6'
aS'3'
aS'1'
aS'3'
aa(lp927
S'Lucio Avigo'
p928
aS'1959'
p929
aS'Hooker'
p930
aS'Brescia'
p931
aS'11'
p932
aS'4'
aS'0'
aS'0'
aa(lp933
S'Roberto Luise III'
p934
aS'1959'
p935
aS'Centre'
p936
aS'Padova'
p937
aS'15'
p938
aS'5'
aS'1'
aS'3'
aa(lp939
S'Roberto Martini'
p940
aS'1959'
p941
aS'Fly-half'
p942
aS'AR'
p943
aS'10'
p944
aS'5'
aS'0'
aS'31'
p945
aa(lp946
S'Zefferino Rossi'
p947
aS'1959'
p948
aS'No. 8'
p949
aS'TV'
p950
aS'6'
aS'2'
aS'0'
aS'0'
aa(lp951
S'Alfio Angioli'
p952
aS'1960'
p953
aS'Prop'
p954
aS'Palermo'
p955
aS'8'
aS'3'
aS'1'
aS'3'
aa(lp956
S'Gian Maria del Bono'
p957
aS'1960'
p958
aS'Wing'
p959
aS'Brescia'
p960
aS'10'
p961
aS'4'
aS'1'
aS'3'
aa(lp962
S'Elio Fusco'
p963
aS'1960'
p964
aS'Scrum-half'
p965
aS'Napoli'
p966
aS'11'
p967
aS'3'
aS'2'
aS'6'
aa(lp968
S'Basilio Rovelli'
p969
aS'1960'
p970
aS'Hooker'
p971
aS'BG'
p972
aS'4'
aS'2'
aS'0'
aS'0'
aa(lp973
S'Franco Zani'
p974
aS'1960'
p975
aS'Lock'
p976
aS'BS'
p977
aS'11'
p978
aS'3'
aS'0'
aS'0'
aa(lp979
S'Angelo Autore'
p980
aS'1961'
p981
aS'Fullback'
p982
aS'AQ'
p983
aS'12'
p984
aS'8'
aS'1'
aS'13'
p985
aa(lp986
S'Erasmo Augeri'
p987
aS'1962'
p988
aS'Fly-half'
p989
aS'Napoli'
p990
aS'4'
aS'1'
aS'1'
aS'3'
aa(lp991
S'Giorgio Troncon'
p992
aS'1962'
p993
aS'Centre'
p994
aS'Padova'
p995
aS'12'
p996
aS'5'
aS'1'
aS'3'
aa(lp997
S'Vittorio Ambron'
p998
aS'1962'
p999
aS'Wing'
p1000
aS'Benevento'
p1001
aS'24'
p1002
aS'13'
p1003
aS'10'
p1004
aS'42'
p1005
aa(lp1006
S'Giorgio Ricciarelli'
p1007
aS'1962'
p1008
aS'Lock'
p1009
aS'Milano'
p1010
aS'1'
aS'1'
aS'0'
aS'0'
aa(lp1011
S'Marco Bollesan'
p1012
aS'1963'
p1013
aS'No. 8'
p1014
aS'VE'
p1015
aS'47'
p1016
aS'19'
p1017
aS'7'
aS'24'
p1018
aa(lp1019
S'Giancarlo Degli Antoni'
p1020
aS'1963'
p1021
aS'Flanker'
p1022
aS'date unknown'
p1023
aS'6'
aS'1'
aS'1'
aS'3'
aa(lp1024
S'Franco Piccinini'
p1025
aS'1963'
p1026
aS'Lock'
p1027
aS'Milano'
p1028
aS'3'
aS'1'
aS'0'
aS'0'
aa(lp1029
S'Giuseppe Martini'
p1030
aS'1965'
p1031
aS'Centre'
p1032
aS'AR'
p1033
aS'3'
aS'1'
aS'0'
aS'0'
aa(lp1034
S'Ivo Mazzucchelli'
p1035
aS'1965'
p1036
aS'Lock'
p1037
aS'Roma'
p1038
aS'20'
p1039
aS'10'
p1040
aS'2'
aS'8'
aa(lp1041
S'Gianni Romagnoli'
p1042
aS'1965'
p1043
aS'Prop'
p1044
aS'Roma'
p1045
aS'4'
aS'2'
aS'0'
aS'0'
aa(lp1046
S'Carlo Salmaso'
p1047
aS'1965'
p1048
aS'Wing'
p1049
aS'date unknown'
p1050
aS'2'
aS'0'
aS'1'
aS'3'
aa(lp1051
S'Domenico Armellin'
p1052
aS'1965'
p1053
aS'Prop'
p1054
aS'Treviso'
p1055
aS'9'
aS'7'
aS'1'
aS'3'
aa(lp1056
S'Umberto Conforto'
p1057
aS'1965'
p1058
aS'Scrum-half'
p1059
aS'Novara'
p1060
aS'17'
p1061
aS'10'
p1062
aS'2'
aS'6'
aa(lp1063
S'Ettore Giugovaz'
p1064
aS'1965'
p1065
aS'Fullback'
p1066
aS'Venezia'
p1067
aS'2'
aS'1'
aS'0'
aS'0'
aa(lp1068
S'Franco Mazzantini'
p1069
aS'1965'
p1070
aS'Prop'
p1071
aS'LI'
p1072
aS'3'
aS'1'
aS'0'
aS'0'
aa(lp1073
S'Romano Sciacol'
p1074
aS'1965'
p1075
aS'Centre'
p1076
aS'Livorno'
p1077
aS'1'
aS'1'
aS'0'
aS'0'
aa(lp1078
S'Francesco Soro II'
p1079
aS'1965'
p1080
aS'Fly-half'
p1081
aS'Milano'
p1082
aS'4'
aS'2'
aS'0'
aS'0'
aa(lp1083
S'Eugenio Speziali'
p1084
aS'1965'
p1085
aS'Lock'
p1086
aS'Roma'
p1087
aS'1'
aS'1'
aS'0'
aS'2'
aa(lp1088
S"Andrea d'Alberton"
p1089
aS'1966'
p1090
aS'Centre'
p1091
aS'date unknown'
p1092
aS'5'
aS'1'
aS'0'
aS'0'
aa(lp1093
S"Oreste Vene'"
p1094
aS'1966'
p1095
aS'Hooker'
p1096
aS'Parma'
p1097
aS'1'
aS'0'
aS'0'
aS'0'
aa(lp1098
S'Gastone Giani'
p1099
aS'1966'
p1100
aS'Centre'
p1101
aS'Bologna'
p1102
aS'5'
aS'2'
aS'0'
aS'0'
aa(lp1103
S'Luciano Modonesi'
p1104
aS'1966'
p1105
aS'Fullback'
p1106
aS'Brescia'
p1107
aS'17'
p1108
aS'10'
p1109
aS'2'
aS'6'
aa(lp1110
S'Loreto Cucchiarelli'
p1111
aS'1966'
p1112
aS'Flanker'
p1113
aS'RI'
p1114
aS'2'
aS'1'
aS'0'
aS'0'
aa(lp1115
S'Carlo Prosperini'
p1116
aS'1966'
p1117
aS'Prop'
p1118
aS"L'Aquila"
p1119
aS'4'
aS'2'
aS'1'
aS'3'
aa(lp1120
S'Franco Gargiulo'
p1121
aS'1967'
p1122
aS'Lock'
p1123
aS'Roma'
p1124
aS'4'
aS'2'
aS'0'
aS'0'
aa(lp1125
S'Adriano Agujari'
p1126
aS'1967'
p1127
aS'Wing'
p1128
aS'date unknown'
p1129
aS'1'
aS'1'
aS'0'
aS'0'
aa(lp1130
S'Luciano Bosciano'
p1131
aS'1967'
p1132
aS'Scrum-half'
p1133
aS'Napoli'
p1134
aS'1'
aS'1'
aS'0'
aS'0'
aa(lp1135
S'Franco Cioni'
p1136
aS'1967'
p1137
aS'Flanker'
p1138
aS'Roma'
p1139
aS'10'
p1140
aS'8'
aS'3'
aS'9'
aa(lp1141
S'Mauro Gatto'
p1142
aS'1967'
p1143
aS'Centre'
p1144
aS'Roma'
p1145
aS'2'
aS'1'
aS'0'
aS'0'
aa(lp1146
S'Giampiero Ricci'
p1147
aS'1967'
p1148
aS'Fly-half'
p1149
aS"L'Aquila"
p1150
aS'5'
aS'4'
aS'0'
aS'3'
aa(lp1151
S'Uriele Silvestri'
p1152
aS'1967'
p1153
aS'Hooker'
p1154
aS'Roma'
p1155
aS'4'
aS'3'
aS'0'
aS'0'
aa(lp1156
S'Dalmazio Bertoli'
p1157
aS'1967'
p1158
aS'Lock'
p1159
aS'date unknown'
p1160
aS'1'
aS'0'
aS'0'
aS'0'
aa(lp1161
S'Maurizio Bocconcelli'
p1162
aS'1967'
p1163
aS'Prop'
p1164
aS'Roma'
p1165
aS'1'
aS'0'
aS'0'
aS'0'
aa(lp1166
S'Mauro Mattei'
p1167
aS'1967'
p1168
aS'Wing'
p1169
aS'Firenze'
p1170
aS'1'
aS'0'
aS'0'
aS'0'
aa(lp1171
S'Roberto Cinelli'
p1172
aS'1968'
p1173
aS'Flanker'
p1174
aS'FR'
p1175
aS'2'
aS'2'
aS'0'
aS'0'
aa(lp1176
S'Massimo Gini'
p1177
aS'1968'
p1178
aS'Prop'
p1179
aS'Roma'
p1180
aS'17'
p1181
aS'10'
p1182
aS'1'
aS'3'
aa(lp1183
S'Giuseppe Giorgio'
p1184
aS'1968'
p1185
aS'No. 8'
p1186
aS'date unknown'
p1187
aS'2'
aS'2'
aS'0'
aS'0'
aa(lp1188
S'Marco Pulli'
p1189
aS'1968'
p1190
aS'Centre'
p1191
aS'Parma'
p1192
aS'3'
aS'2'
aS'0'
aS'0'
aa(lp1193
S'Ettore Abbiati'
p1194
aS'1968'
p1195
aS'Prop'
p1196
aS'CR'
p1197
aS'11'
p1198
aS'4'
aS'2'
aS'7'
aa(lp1199
S'Claudio Della Valle'
p1200
aS'1968'
p1201
aS'Centre'
p1202
aS'TV'
p1203
aS'6'
aS'4'
aS'0'
aS'3'
aa(lp1204
S'Fernando Pignotti'
p1205
aS'1968'
p1206
aS'Centre'
p1207
aS'date unknown'
p1208
aS'5'
aS'5'
aS'3'
aS'9'
aa(lp1209
S'Erminio Sgorbati'
p1210
aS'1968'
p1211
aS'Flanker'
p1212
aS'date unknown'
p1213
aS'2'
aS'2'
aS'0'
aS'0'
aa(lp1214
S'Adolfo Gerardo'
p1215
aS'1968'
p1216
aS'Hooker'
p1217
aS'AV'
p1218
aS'6'
aS'4'
aS'0'
aS'0'
aa(lp1219
S'Andrea Miele'
p1220
aS'1968'
p1221
aS'Prop'
p1222
aS'AV'
p1223
aS'5'
aS'2'
aS'0'
aS'0'
aa(lp1224
S'Franco Valier'
p1225
aS'1968'
p1226
aS'Flanker'
p1227
aS'VE'
p1228
aS'7'
aS'2'
aS'0'
aS'0'
aa(lp1229
S'Maurizio Finocchi'
p1230
aS'1968'
p1231
aS'Centre'
p1232
aS'Roma'
p1233
aS'8'
aS'4'
aS'1'
aS'3'
aa(lp1234
S'Walter Rista'
p1235
aS'1968'
p1236
aS'Wing'
p1237
aS'CN'
p1238
aS'5'
aS'4'
aS'3'
aS'9'
aa(lp1239
S'Lucio Boccaletto'
p1240
aS'1969'
p1241
aS'Flanker'
p1242
aS'TV'
p1243
aS'13'
p1244
aS'5'
aS'1'
aS'3'
aa(lp1245
S"Raffaele D'Orazio"
p1246
aS'1969'
p1247
aS'Hooker'
p1248
aS'Napoli'
p1249
aS'1'
aS'1'
aS'0'
aS'0'
aa(lp1250
S'Pierluigi Pacifici'
p1251
aS'1969'
p1252
aS'Wing'
p1253
aS"L'Aquila"
p1254
aS'9'
aS'5'
aS'2'
aS'19'
p1255
aa(lp1256
S'Luigi Bettella'
p1257
aS'1969'
p1258
aS'Lock'
p1259
aS'Padova'
p1260
aS'3'
aS'2'
aS'0'
aS'0'
aa(lp1261
S'Italo Vittorini'
p1262
aS'1969'
p1263
aS''
aS"L'Aquila"
p1264
aS'1'
aS'1'
aS'0'
aS'0'
aa(lp1265
S'Alessandro Brunelli'
p1266
aS'1969'
p1267
aS'Hooker'
p1268
aS'Bologna'
p1269
aS'3'
aS'2'
aS'0'
aS'0'
aa(lp1270
S'Elio Michelon'
p1271
aS'1969'
p1272
aS'Wing'
p1273
aS'Padova'
p1274
aS'7'
aS'4'
aS'5'
aS'34'
p1275
aa(lp1276
S'Giancarlo Delli Ficorilli'
p1277
aS'1969'
p1278
aS'Hooker'
p1279
aS'AN'
p1280
aS'1'
aS'0'
aS'0'
aS'0'
aa(lp1281
S'Rocco Caligiuri'
p1282
aS'1969'
p1283
aS'Fullback'
p1284
aS'RC'
p1285
aS'26'
p1286
aS'10'
p1287
aS'2'
aS'31'
p1288
aa(lp1289
S'Gianmatteo Cecchin'
p1290
aS'1970'
p1291
aS'Fly-half'
p1292
aS'VI'
p1293
aS'5'
aS'1'
aS'0'
aS'3'
aa(lp1294
S'Lelio Lazzarini'
p1295
aS'1970'
p1296
aS'Fullback'
p1297
aS'Padova'
p1298
aS'24'
p1299
aS'6'
aS'0'
aS'70'
p1300
aa(lp1301
S'Guido Porzio'
p1302
aS'1970'
p1303
aS'Lock'
p1304
aS'date unknown'
p1305
aS'3'
aS'3'
aS'0'
aS'0'
aa(lp1306
S'Corrado Possamai'
p1307
aS'1970'
p1308
aS'Prop'
p1309
aS'Treviso'
p1310
aS'3'
aS'3'
aS'0'
aS'0'
aa(lp1311
S'Luigi Bernabo'
p1312
aS'1970'
p1313
aS'Lock'
p1314
aS'La Spezia'
p1315
aS'5'
aS'2'
aS'0'
aS'0'
aa(lp1316
S'Angelo Sagramora'
p1317
aS'1970'
p1318
aS'Scrum-half'
p1319
aS'Venezia'
p1320
aS'3'
aS'2'
aS'0'
aS'0'
aa(lp1321
S'Aldo Caluzzi'
p1322
aS'1970'
p1323
aS'Wing'
p1324
aS'Genova'
p1325
aS'11'
p1326
aS'3'
aS'0'
aS'6'
aa(lp1327
S'Pietro Monfeli'
p1328
aS'1970'
p1329
aS'Hooker'
p1330
aS'VT'
p1331
aS'13'
p1332
aS'3'
aS'0'
aS'0'
aa(lp1333
S'Isidoro Quaglio'
p1334
aS'1970'
p1335
aS'Lock'
p1336
aS'Rovigo'
p1337
aS'15'
p1338
aS'4'
aS'0'
aS'0'
aa(lp1339
S'Angelo Visentin'
p1340
aS'1970'
p1341
aS'Scrum-half'
p1342
aS'Rovigo'
p1343
aS'23'
p1344
aS'8'
aS'3'
aS'18'
p1345
aa(lp1346
S'Umberto Cossara'
p1347
aS'1971'
p1348
aS'Flanker'
p1349
aS'Trieste'
p1350
aS'24'
p1351
aS'7'
aS'1'
aS'4'
aa(lp1352
S'Francesco di Maura'
p1353
aS'1971'
p1354
aS'Lock'
p1355
aS'Catania'
p1356
aS'1'
aS'0'
aS'0'
aS'0'
aa(lp1357
S'Francesco Dotto'
p1358
aS'1971'
p1359
aS'Wing'
p1360
aS'Treviso'
p1361
aS'5'
aS'1'
aS'3'
aS'11'
p1362
aa(lp1363
S'Loris Salsi'
p1364
aS'1971'
p1365
aS'Flanker'
p1366
aS'RE'
p1367
aS'28'
p1368
aS'10'
p1369
aS'1'
aS'4'
aa(lp1370
S'Giuseppe Puglisi'
p1371
aS'1971'
p1372
aS'No. 8'
p1373
aS'Catania'
p1374
aS'3'
aS'1'
aS'1'
aS'3'
aa(lp1375
S'Romano Baraldi'
p1376
aS'1971'
p1377
aS'Wing'
p1378
aS'MN'
p1379
aS'1'
aS'0'
aS'0'
aS'0'
aa(lp1380
S'Savino Colombini'
p1381
aS'1971'
p1382
aS'Prop'
p1383
aS'TR'
p1384
aS'1'
aS'0'
aS'0'
aS'0'
aa(lp1385
S'Ettore Piras'
p1386
aS'1971'
p1387
aS''
aS'Venezia'
p1388
aS'1'
aS'0'
aS'0'
aS'0'
aa(lp1389
S'Faustino Crepaz'
p1390
aS'1972'
p1391
aS'Wing'
p1392
aS'TN'
p1393
aS'1'
aS'0'
aS'0'
aS'0'
aa(lp1394
S'Agostino Puppo'
p1395
aS'1972'
p1396
aS'Centre'
p1397
aS'Genova'
p1398
aS'20'
p1399
aS'4'
aS'1'
aS'4'
aa(lp1400
S'Giancarlo Cecotti'
p1401
aS'1972'
p1402
aS'No. 8'
p1403
aS'UD'
p1404
aS'2'
aS'1'
aS'0'
aS'0'
aa(lp1405
S'Mario Galletto'
p1406
aS'1972'
p1407
aS'Fly-half'
p1408
aS'Trieste'
p1409
aS'3'
aS'2'
aS'0'
aS'0'
aa(lp1410
S'Paolo Paoletti'
p1411
aS'1972'
p1412
aS'Hooker'
p1413
aS'RM'
p1414
aS'20'
p1415
aS'7'
aS'0'
aS'0'
aa(lp1416
S'Giovanni di Cola'
p1417
aS'1972'
p1418
aS'Centre'
p1419
aS'Acciano.AQ'
p1420
aS'3'
aS'0'
aS'0'
aS'0'
aa(lp1421
S'Ambrogio Bona'
p1422
aS'1972'
p1423
aS'Prop'
p1424
aS'MI'
p1425
aS'50'
p1426
aS'23'
p1427
aS'1'
aS'4'
aa(lp1428
S'Franco Paganelli'
p1429
aS'1972'
p1430
aS''
aS'Roma'
p1431
aS'1'
aS'0'
aS'0'
aS'0'
aa(lp1432
S'Salvatore Bonetti'
p1433
aS'1972'
p1434
aS'No. 8'
p1435
aS'BS'
p1436
aS'34'
p1437
aS'12'
p1438
aS'3'
aS'12'
p1439
aa(lp1440
S'Elio de Anna'
p1441
aS'1972'
p1442
aS'Wing'
p1443
aS'PN'
p1444
aS'27'
p1445
aS'12'
p1446
aS'8'
aS'32'
p1447
aa(lp1448
S'Adriano Fedrigo'
p1449
aS'1972'
p1450
aS'Lock'
p1451
aS'VE'
p1452
aS'41'
p1453
aS'17'
p1454
aS'2'
aS'8'
aa(lp1455
S'Nello Francescato'
p1456
aS'1972'
p1457
aS'Centre'
p1458
aS'CA'
p1459
aS'42'
p1460
aS'15'
p1461
aS'6'
aS'24'
p1462
aa(lp1463
S'Fabio Gargiullo'
p1464
aS'1972'
p1465
aS'Centre'
p1466
aS'Roma'
p1467
aS'1'
aS'1'
aS'0'
aS'0'
aa(lp1468
S'Manrico Marchetto'
p1469
aS'1972'
p1470
aS'Wing'
p1471
aS'Treviso'
p1472
aS'43'
p1473
aS'19'
p1474
aS'21'
p1475
aS'84'
p1476
aa(lp1477
S'Francesco Vialetto'
p1478
aS'1972'
p1479
aS'Fullback'
p1480
aS''
aS'1'
aS'1'
aS'0'
aS'9'
aa(lp1481
S'Giorgio Lari'
p1482
aS'1972'
p1483
aS'Fly-half'
p1484
aS'Roma'
p1485
aS'8'
aS'4'
aS'0'
aS'24'
p1486
aa(lp1487
S'Edano Cottafava'
p1488
aS'1973'
p1489
aS'Wing'
p1490
aS'Novi di Modena'
p1491
aS'1'
aS'0'
aS'0'
aS'0'
aa(lp1492
S'Paolo Fedrigo'
p1493
aS'1973'
p1494
aS'Prop'
p1495
aS'VE'
p1496
aS'1'
aS'0'
aS'0'
aS'0'
aa(lp1497
S'Mario Piovan'
p1498
aS'1973'
p1499
aS'Lock'
p1500
aS'Padova'
p1501
aS'10'
p1502
aS'1'
aS'0'
aS'0'
aa(lp1503
S'Crescenzo Vitelli'
p1504
aS'1973'
p1505
aS'Hooker'
p1506
aS'NA'
p1507
aS'5'
aS'2'
aS'0'
aS'0'
aa(lp1508
S'Anacleto Altigieri'
p1509
aS'1973'
p1510
aS'Prop'
p1511
aS'VT'
p1512
aS'27'
p1513
aS'12'
p1514
aS'0'
aS'0'
aa(lp1515
S'Gerardo Cinti'
p1516
aS'1973'
p1517
aS'Wing'
p1518
aS'Roma'
p1519
aS'3'
aS'0'
aS'0'
aS'0'
aa(lp1520
S'Gilberto Luchini'
p1521
aS'1973'
p1522
aS'Centre'
p1523
aS'Roma'
p1524
aS'2'
aS'0'
aS'0'
aS'0'
aa(lp1525
S'Andrea Selvaggio'
p1526
aS'1973'
p1527
aS'Wing'
p1528
aS'Genova'
p1529
aS'6'
aS'1'
aS'0'
aS'0'
aa(lp1530
S'Antonio Spagnoli'
p1531
aS'1973'
p1532
aS''
aS'RM'
p1533
aS'1'
aS'0'
aS'0'
aS'0'
aa(lp1534
S'Antonio Rocca'
p1535
aS'1973'
p1536
aS'No. 8'
p1537
aS'Padova'
p1538
aS'4'
aS'0'
aS'0'
aS'0'
aa(lp1539
S'Arturo Bergamasco'
p1540
aS'1973'
p1541
aS'Flanker'
p1542
aS''
aS'4'
aS'1'
aS'0'
aS'0'
aa(lp1543
S'Renzo Ganzerla'
p1544
aS'1973'
p1545
aS'Wing'
p1546
aS'VE'
p1547
aS'2'
aS'0'
aS'0'
aS'0'
aa(lp1548
S'Luigi Mattarolo'
p1549
aS'1973'
p1550
aS'Fullback'
p1551
aS'Padova'
p1552
aS'7'
aS'1'
aS'1'
aS'31'
p1553
aa(lp1554
S'Fabio Molinari'
p1555
aS'1973'
p1556
aS'Centre'
p1557
aS'Piacenza'
p1558
aS'1'
aS'0'
aS'0'
aS'0'
aa(lp1559
S'Marco Pitorri'
p1560
aS'1973'
p1561
aS''
aS'Roma'
p1562
aS'1'
aS'0'
aS'0'
aS'0'
aa(lp1563
S'Carlo Loranzi'
p1564
aS'1973'
p1565
aS'Flanker'
p1566
aS'Piacenza'
p1567
aS'5'
aS'1'
aS'0'
aS'0'
aa(lp1568
S'Paolo Gargiullo'
p1569
aS'1973'
p1570
aS'Scrum-half'
p1571
aS'Roma'
p1572
aS'4'
aS'0'
aS'0'
aS'0'
aa(lp1573
S'Franco Baraldi'
p1574
aS'1973'
p1575
aS'Flanker'
p1576
aS'MN'
p1577
aS'15'
p1578
aS'6'
aS'0'
aS'0'
aa(lp1579
S'Giancarlo Checchinato'
p1580
aS'1973'
p1581
aS'Lock'
p1582
aS'RO'
p1583
aS'5'
aS'3'
aS'0'
aS'0'
aa(lp1584
S'Ennio Ponzi'
p1585
aS'1973'
p1586
aS'Fly-half'
p1587
aS"L'Aquila"
p1588
aS'20'
p1589
aS'10'
p1590
aS'0'
aS'133'
p1591
aa(lp1592
S'Nino Rossi'
p1593
aS'1973'
p1594
aS'Wing'
p1595
aS'RO'
p1596
aS'16'
p1597
aS'10'
p1598
aS'3'
aS'12'
p1599
aa(lp1600
S'Raffaello Salvan'
p1601
aS'1973'
p1602
aS'Centre'
p1603
aS'RO'
p1604
aS'2'
aS'2'
aS'1'
aS'7'
aa(lp1605
S'Pietro Vezzani'
p1606
aS'1973'
p1607
aS'Centre'
p1608
aS''
aS'10'
p1609
aS'6'
aS'3'
aS'12'
p1610
aa(lp1611
S'Bernadino di Cola'
p1612
aS'1973'
p1613
aS'Centre'
p1614
aS'Acciano.AQ'
p1615
aS'1'
aS'0'
aS'0'
aS'0'
aa(lp1616
S'Antonio Tassin'
p1617
aS'1973'
p1618
aS'Flanker'
p1619
aS'RO'
p1620
aS'1'
aS'0'
aS'0'
aS'0'
aa(lp1621
S'Mauro Zingarelli'
p1622
aS'1973'
p1623
aS'Hooker'
p1624
aS'TE'
p1625
aS'1'
aS'0'
aS'0'
aS'0'
aa(lp1626
S'Giancarlo Cucchiella'
p1627
aS'1973'
p1628
aS'Prop'
p1629
aS"L'Aquila"
p1630
aS'22'
p1631
aS'9'
aS'1'
aS'4'
aa(lp1632
S'Pasquale Presutti'
p1633
aS'1974'
p1634
aS'Prop'
p1635
aS'AQ'
p1636
aS'8'
aS'2'
aS'0'
aS'0'
aa(lp1637
S'Edoardo Scalzotto'
p1638
aS'1974'
p1639
aS'Centre'
p1640
aS'Padova'
p1641
aS'3'
aS'0'
aS'1'
aS'4'
aa(lp1642
S'Evelino Aio'
p1643
aS'1974'
p1644
aS'Scrum-half'
p1645
aS"L'Aquila"
p1646
aS'1'
aS'1'
aS'1'
aS'4'
aa(lp1647
S'Fiorenzo Blessano'
p1648
aS'1975'
p1649
aS'Centre'
p1650
aS'TV'
p1651
aS'21'
p1652
aS'10'
p1653
aS'4'
aS'16'
p1654
aa(lp1655
S'Fulvio di Carlo'
p1656
aS'1975'
p1657
aS'Prop'
p1658
aS'AQ'
p1659
aS'13'
p1660
aS'7'
aS'1'
aS'4'
aa(lp1661
S'Paolo Ferracin'
p1662
aS'1975'
p1663
aS'Hooker'
p1664
aS'RO'
p1665
aS'10'
p1666
aS'5'
aS'0'
aS'0'
aa(lp1667
S'Pierluigi Camiscioni'
p1668
aS'1975'
p1669
aS'Lock'
p1670
aS'San Benedetto Tronto'
p1671
aS'7'
aS'3'
aS'0'
aS'0'
aa(lp1672
S'Antonio Falancia'
p1673
aS'1975'
p1674
aS'Scrum-half'
p1675
aS"L'Aquila"
p1676
aS'2'
aS'1'
aS'0'
aS'0'
aa(lp1677
S'Gianni Franceschini'
p1678
aS'1975'
p1679
aS'Scrum-half'
p1680
aS'Venezia'
p1681
aS'11'
p1682
aS'4'
aS'1'
aS'4'
aa(lp1683
S'Fabrizio Gaetaniello'
p1684
aS'1975'
p1685
aS'Fullback'
p1686
aS'Livorno'
p1687
aS'39'
p1688
aS'19'
p1689
aS'5'
aS'23'
p1690
aa(lp1691
S'Eusebio Passarotto'
p1692
aS'1975'
p1693
aS''
aS'date unknown'
p1694
aS'1'
aS'1'
aS'0'
aS'0'
aa(lp1695
S'Giorgio Morelli'
p1696
aS'1976'
p1697
aS'Hooker'
p1698
aS"L'Aquila"
p1699
aS'26'
p1700
aS'12'
p1701
aS'3'
aS'12'
p1702
aa(lp1703
S'Paolo Mariani'
p1704
aS'1976'
p1705
aS'Flanker'
p1706
aS''
aS'22'
p1707
aS'10'
p1708
aS'4'
aS'16'
p1709
aa(lp1710
S'Narcisio Zanella'
p1711
aS'1976'
p1712
aS'Flanker'
p1713
aS'Rovigo'
p1714
aS'8'
aS'5'
aS'0'
aS'0'
aa(lp1715
S'Ercole Manni'
p1716
aS'1976'
p1717
aS'Scrum-half'
p1718
aS'Roma'
p1719
aS'5'
aS'3'
aS'2'
aS'8'
aa(lp1720
S'Rino Francescato'
p1721
aS'1976'
p1722
aS'Centre'
p1723
aS'Treviso'
p1724
aS'38'
p1725
aS'19'
p1726
aS'3'
aS'12'
p1727
aa(lp1728
S'Claudio Appiani'
p1729
aS'1976'
p1730
aS'Lock'
p1731
aS'BS'
p1732
aS'5'
aS'1'
aS'0'
aS'0'
aa(lp1733
S'Serafino Ghizzoni'
p1734
aS'1977'
p1735
aS'Wing'
p1736
aS"L'Aquila"
p1737
aS'60'
p1738
aS'27'
p1739
aS'17'
p1740
aS'77'
p1741
aa(lp1742
S'Massimo Mascioletti'
p1743
aS'1977'
p1744
aS'Wing'
p1745
aS"L'Aquila"
p1746
aS'54'
p1747
aS'27'
p1748
aS'17'
p1749
aS'68'
p1750
aa(lp1751
S'Sabatino Pace'
p1752
aS'1977'
p1753
aS'Flanker'
p1754
aS"L'Aquila"
p1755
aS'3'
aS'2'
aS'0'
aS'0'
aa(lp1756
S'Andrea Rinaldo'
p1757
aS'1977'
p1758
aS'Lock'
p1759
aS'Venezia'
p1760
aS'4'
aS'2'
aS'0'
aS'0'
aa(lp1761
S'Alessandro Zanella'
p1762
aS'1977'
p1763
aS'Fullback'
p1764
aS'Rovigo'
p1765
aS'1'
aS'0'
aS'0'
aS'0'
aa(lp1766
S'Carlo Casagrande'
p1767
aS'1977'
p1768
aS''
aS'Treviso'
p1769
aS'1'
aS'0'
aS'0'
aS'0'
aa(lp1770
S'Giuseppe Artuso'
p1771
aS'1977'
p1772
aS'Flanker'
p1773
aS'Reggio Calabria'
p1774
aS'31'
p1775
aS'12'
p1776
aS'1'
aS'4'
aa(lp1777
S'Crescenzo Bentivoglio'
p1778
aS'1977'
p1779
aS'Fullback'
p1780
aS'Reggio Calabria'
p1781
aS'1'
aS'0'
aS'0'
aS'0'
aa(lp1782
S'Luciano Borsetto'
p1783
aS'1977'
p1784
aS'Prop'
p1785
aS'Rovigo'
p1786
aS'1'
aS'0'
aS'0'
aS'0'
aa(lp1787
S'Oscar Collodo'
p1788
aS'1977'
p1789
aS'Fly-half'
p1790
aS'Switzerlan'
p1791
aS'15'
p1792
aS'4'
aS'2'
aS'47'
p1793
aa(lp1794
S'Andrea Lijoi'
p1795
aS'1977'
p1796
aS'Lock'
p1797
aS'Roma'
p1798
aS'5'
aS'2'
aS'0'
aS'0'
aa(lp1799
S'Paolo Pavesi'
p1800
aS'1977'
p1801
aS'Hooker'
p1802
aS'PR'
p1803
aS'3'
aS'1'
aS'0'
aS'0'
aa(lp1804
S'Lucio Pelliccione'
p1805
aS'1977'
p1806
aS'Centre'
p1807
aS"L'Aquila"
p1808
aS'1'
aS'0'
aS'0'
aS'0'
aa(lp1809
S'Bruno Francescato'
p1810
aS'1977'
p1811
aS'Centre'
p1812
aS'CA'
p1813
aS'7'
aS'2'
aS'0'
aS'0'
aa(lp1814
S'Nick Screnci'
p1815
aS'1977'
p1816
aS'Prop'
p1817
aS'United States'
p1818
aS'9'
aS'3'
aS'1'
aS'4'
aa(lp1819
S'Loredano Zuin'
p1820
aS'1977'
p1821
aS'Fly-half'
p1822
aS'Rovigo'
p1823
aS'7'
aS'4'
aS'0'
aS'38'
p1824
aa(lp1825
S'Claudio Robazza'
p1826
aS'1978'
p1827
aS'Hooker'
p1828
aS'Treviso'
p1829
aS'33'
p1830
aS'15'
p1831
aS'1'
aS'4'
aa(lp1832
S'Giafranco Barbini'
p1833
aS'1978'
p1834
aS''
aS'Venezia'
p1835
aS'1'
aS'0'
aS'0'
aS'0'
aa(lp1836
S'Bruno Ancillotti'
p1837
aS'1978'
p1838
aS'Scrum-half'
p1839
aS'Roma'
p1840
aS'4'
aS'2'
aS'0'
aS'0'
aa(lp1841
S'Stefano Bettarello'
p1842
aS'1979'
p1843
aS'Fly-half'
p1844
aS'Rovigo'
p1845
aS'55'
p1846
aS'26'
p1847
aS'7'
aS'483'
p1848
aa(lp1849
S'Luciano Catotti'
p1850
aS'1979'
p1851
aS'No. 8'
p1852
aS'Catania'
p1853
aS'2'
aS'1'
aS'0'
aS'0'
aa(lp1854
S'Donato Daldoss'
p1855
aS'1979'
p1856
aS'Lock'
p1857
aS'BS'
p1858
aS'5'
aS'3'
aS'0'
aS'0'
aa(lp1859
S'Giorgio Fanton'
p1860
aS'1979'
p1861
aS''
aS'Treviso'
p1862
aS'1'
aS'1'
aS'0'
aS'0'
aa(lp1863
S'Luca Bonaiti'
p1864
aS'1979'
p1865
aS'Wing'
p1866
aS'Padova'
p1867
aS'2'
aS'1'
aS'0'
aS'0'
aa(lp1868
S'Giancarlo Pivetta'
p1869
aS'1979'
p1870
aS'Prop, Hooker'
p1871
aS'VE'
p1872
aS'53'
p1873
aS'30'
p1874
aS'5'
aS'20'
p1875
aa(lp1876
S'Concetto Angelozzi'
p1877
aS'1979'
p1878
aS'Scrum-half'
p1879
aS'Catania'
p1880
aS'3'
aS'1'
aS'0'
aS'0'
aa(lp1881
S'Franco Bargelli'
p1882
aS'1979'
p1883
aS'Flanker'
p1884
aS'RM'
p1885
aS'14'
p1886
aS'6'
aS'2'
aS'8'
aa(lp1887
S'Louis Basei'
p1888
aS'1979'
p1889
aS'Lock'
p1890
aS'Nerac'
p1891
aS'15'
p1892
aS'5'
aS'1'
aS'4'
aa(lp1893
S'Gianluca Limone'
p1894
aS'1979'
p1895
aS'Centre'
p1896
aS'Roma'
p1897
aS'10'
p1898
aS'5'
aS'2'
aS'8'
aa(lp1899
S'Fulvio Lorigiola'
p1900
aS'1979'
p1901
aS'Scrum-half'
p1902
aS'Padova'
p1903
aS'34'
p1904
aS'14'
p1905
aS'2'
aS'8'
aa(lp1906
S'Andrea Angrisani'
p1907
aS'1979'
p1908
aS'No. 8'
p1909
aS'Roma'
p1910
aS'7'
aS'4'
aS'1'
aS'4'
aa(lp1911
S'Fabio Trentin'
p1912
aS'1979'
p1913
aS'Fly-half'
p1914
aS'Padova'
p1915
aS'5'
aS'2'
aS'0'
aS'17'
p1916
aa(lp1917
S'Massimo Trippitelli'
p1918
aS'1979'
p1919
aS'Lock'
p1920
aS"L'Aquila"
p1921
aS'9'
aS'6'
aS'0'
aS'0'
aa(lp1922
S'Claudio Torresan'
p1923
aS'1980'
p1924
aS'Fullback'
p1925
aS'VE'
p1926
aS'21'
p1927
aS'9'
aS'0'
aS'21'
p1928
aa(lp1929
S'Stefano Annibal'
p1930
aS'1980'
p1931
aS'Lock'
p1932
aS'Treviso'
p1933
aS'23'
p1934
aS'13'
p1935
aS'0'
aS'0'
aa(lp1936
S'Fabrizio Sintich'
p1937
aS'1980'
p1938
aS'Flanker'
p1939
aS'Nairobi'
p1940
aS'6'
aS'2'
aS'0'
aS'0'
aa(lp1941
S'Claudio Tinari'
p1942
aS'1980'
p1943
aS'No. 8'
p1944
aS'Roma'
p1945
aS'19'
p1946
aS'10'
p1947
aS'1'
aS'4'
aa(lp1948
S'Renato de Bernardo'
p1949
aS'1980'
p1950
aS'Prop'
p1951
aS'BL'
p1952
aS'24'
p1953
aS'10'
p1954
aS'2'
aS'8'
aa(lp1955
S'Mario Pavin'
p1956
aS'1980'
p1957
aS'Flanker'
p1958
aS'Treviso'
p1959
aS'8'
aS'2'
aS'0'
aS'0'
aa(lp1960
S'Fabio Gaetaniello'
p1961
aS'1980'
p1962
aS'Centre'
p1963
aS'Livorno'
p1964
aS'30'
p1965
aS'15'
p1966
aS'5'
aS'20'
p1967
aa(lp1968
S'Alberto Osti'
p1969
aS'1981'
p1970
aS'Wing'
p1971
aS'Rovigo'
p1972
aS'14'
p1973
aS'5'
aS'1'
aS'4'
aa(lp1974
S'Gianni Zanon'
p1975
aS'1981'
p1976
aS'Flanker'
p1977
aS'Treviso'
p1978
aS'45'
p1979
aS'22'
p1980
aS'9'
aS'36'
p1981
aa(lp1982
S'Mauro Gardin'
p1983
aS'1981'
p1984
aS'Lock'
p1985
aS'Padova'
p1986
aS'25'
p1987
aS'12'
p1988
aS'1'
aS'4'
aa(lp1989
S'Claudio Jannone'
p1990
aS'1981'
p1991
aS'Flanker'
p1992
aS'Treviso'
p1993
aS'3'
aS'1'
aS'0'
aS'0'
aa(lp1994
S'Guido Rossi'
p1995
aS'1981'
p1996
aS'Prop'
p1997
aS'Treviso'
p1998
aS'45'
p1999
aS'17'
p2000
aS'0'
aS'0'
aa(lp2001
S'Alessandro Ghini'
p2002
aS'1981'
p2003
aS'Scrum-half'
p2004
aS'Parma'
p2005
aS'26'
p2006
aS'12'
p2007
aS'0'
aS'0'
aa(lp2008
S'Andrea Azzali'
p2009
aS'1981'
p2010
aS'Wing'
p2011
aS'Parma'
p2012
aS'16'
p2013
aS'9'
aS'5'
aS'20'
p2014
aa(lp2015
S'Marzio Innocenti'
p2016
aS'1981'
p2017
aS'Flanker'
p2018
aS'Livorno'
p2019
aS'42'
p2020
aS'19'
p2021
aS'2'
aS'8'
aa(lp2022
S'Giancarlo Morelli'
p2023
aS'1981'
p2024
aS'Centre'
p2025
aS"L'Aquila"
p2026
aS'6'
aS'4'
aS'0'
aS'0'
aa(lp2027
S'Claudio Colusso'
p2028
aS'1982'
p2029
aS'Centre'
p2030
aS'Treviso'
p2031
aS'1'
aS'0'
aS'0'
aS'0'
aa(lp2032
S'Mario Nicolosi'
p2033
aS'1982'
p2034
aS'Lock'
p2035
aS'CT'
p2036
aS'1'
aS'1'
aS'0'
aS'0'
aa(lp2037
S'Alessandro Fusco'
p2038
aS'1982'
p2039
aS'Scrum-half'
p2040
aS'Napoli'
p2041
aS'5'
aS'4'
aS'0'
aS'0'
aa(lp2042
S'Stefano Romagnoli'
p2043
aS'1982'
p2044
aS'Prop'
p2045
aS'Bologna'
p2046
aS'15'
p2047
aS'11'
p2048
aS'0'
aS'0'
aa(lp2049
S'Antonio Colella'
p2050
aS'1983'
p2051
aS'Lock'
p2052
aS'Roma'
p2053
aS'41'
p2054
aS'19'
p2055
aS'2'
aS'8'
aa(lp2056
S'Luigi de Joanni'
p2057
aS'1983'
p2058
aS'Centre'
p2059
aS'Benevento'
p2060
aS'21'
p2061
aS'9'
aS'0'
aS'0'
aa(lp2062
S'Edgardo Venturi'
p2063
aS'1983'
p2064
aS'Wing'
p2065
aS'BO'
p2066
aS'28'
p2067
aS'15'
p2068
aS'11'
p2069
aS'46'
p2070
aa(lp2071
S'Luca Pelliccione'
p2072
aS'1983'
p2073
aS'Flanker'
p2074
aS'Orthez'
p2075
aS'3'
aS'2'
aS'0'
aS'0'
aa(lp2076
S'Mario Fumei'
p2077
aS'1984'
p2078
aS'No. 8'
p2079
aS'VE'
p2080
aS'1'
aS'0'
aS'0'
aS'0'
aa(lp2081
S'Giovanni Petralia'
p2082
aS'1984'
p2083
aS'Lock'
p2084
aS'Catania'
p2085
aS'1'
aS'0'
aS'0'
aS'0'
aa(lp2086
S'Mariano Crescenzo'
p2087
aS'1984'
p2088
aS''
aS'AQ'
p2089
aS'1'
aS'1'
aS'0'
aS'0'
aa(lp2090
S'Mauro Quaglio'
p2091
aS'1984'
p2092
aS'Prop'
p2093
aS'Rovigo'
p2094
aS'3'
aS'1'
aS'0'
aS'0'
aa(lp2095
S'Raffaele Dolfato'
p2096
aS'1985'
p2097
aS'Flanker'
p2098
aS'Treviso'
p2099
aS'9'
aS'3'
aS'0'
aS'0'
aa(lp2100
S'Roberto Corvo'
p2101
aS'1985'
p2102
aS'No. 8'
p2103
aS'Roma'
p2104
aS'3'
aS'2'
aS'0'
aS'0'
aa(lp2105
S'Franco Berni'
p2106
aS'1985'
p2107
aS'Lock'
p2108
aS'Alessandria'
p2109
aS'10'
p2110
aS'3'
aS'0'
aS'0'
aa(lp2111
S'Stefano Barba'
p2112
aS'1985'
p2113
aS'Centre'
p2114
aS'Roma'
p2115
aS'35'
p2116
aS'17'
p2117
aS'7'
aS'30'
p2118
aa(lp2119
S'Antonio Galeazzo'
p2120
aS'1985'
p2121
aS'Hooker'
p2122
aS'Padova'
p2123
aS'5'
aS'2'
aS'0'
aS'0'
aa(lp2124
S'Filipo Vittadello'
p2125
aS'1985'
p2126
aS'Fullback'
p2127
aS'Padova'
p2128
aS'2'
aS'2'
aS'1'
aS'4'
aa(lp2129
S'Francesco Salvadego'
p2130
aS'1985'
p2131
aS'Flanker'
p2132
aS'Padova'
p2133
aS'1'
aS'1'
aS'0'
aS'0'
aa(lp2134
S'Daniele Tebaldi'
p2135
aS'1985'
p2136
aS'Fullback'
p2137
aS'Parma'
p2138
aS'15'
p2139
aS'5'
aS'1'
aS'7'
aa(lp2140
S'Stefano Boccazzi'
p2141
aS'1985'
p2142
aS'Scrum-half'
p2143
aS'MN'
p2144
aS'2'
aS'1'
aS'0'
aS'0'
aa(lp2145
S'Sergio Appiani'
p2146
aS'1985'
p2147
aS'Flanker'
p2148
aS'BS'
p2149
aS'4'
aS'2'
aS'1'
aS'4'
aa(lp2150
S'Luigi Troiani'
p2151
aS'1985'
p2152
aS'Fullback'
p2153
aS'NA'
p2154
aS'47'
p2155
aS'23'
p2156
aS'2'
aS'294'
p2157
aa(lp2158
S'Sergio Zorzi'
p2159
aS'1985'
p2160
aS'Centre'
p2161
aS'Treviso'
p2162
aS'7'
aS'3'
aS'0'
aS'0'
aa(lp2163
S'Alvise Russo'
p2164
aS'1986'
p2165
aS'No. 8'
p2166
aS'Treviso'
p2167
aS'1'
aS'0'
aS'0'
aS'0'
aa(lp2168
S'Marcello Cuttitta'
p2169
aS'1987'
p2170
aS'Wing'
p2171
aS'Latina'
p2172
aS'54'
p2173
aS'25'
p2174
aS'25'
p2175
aS'110'
p2176
aa(lp2177
S'Piergianni Farina'
p2178
aS'1987'
p2179
aS'Flanker'
p2180
aS'V'
aS'3'
aS'1'
aS'0'
aS'0'
aa(lp2181
S'Tito Lupini'
p2182
aS'1987'
p2183
aS'Prop'
p2184
aS'Johannesburg'
p2185
aS'11'
p2186
aS'2'
aS'0'
aS'0'
aa(lp2187
S'Rodolfo Ambrosio'
p2188
aS'1987'
p2189
aS'Centre'
p2190
aS'Cordoba'
p2191
aS'12'
p2192
aS'3'
aS'1'
aS'13'
p2193
aa(lp2194
S'Francesco Pietrosanti'
p2195
aS'1987'
p2196
aS'Scrum-half'
p2197
aS"L'Aquila"
p2198
aS'25'
p2199
aS'12'
p2200
aS'5'
aS'20'
p2201
aa(lp2202
S'Pietro Reale'
p2203
aS'1987'
p2204
aS'Flanker'
p2205
aS'Rovigo'
p2206
aS'7'
aS'2'
aS'1'
aS'4'
aa(lp2207
S'Luigi Salvati'
p2208
aS'1987'
p2209
aS'Wing'
p2210
aS'Roma'
p2211
aS'3'
aS'0'
aS'0'
aS'0'
aa(lp2212
S'Carlo de Biase'
p2213
aS'1987'
p2214
aS'Wing'
p2215
aS'Roma'
p2216
aS'3'
aS'1'
aS'1'
aS'4'
aa(lp2217
S'Massimo Bonomi'
p2218
aS'1988'
p2219
aS'Centre'
p2220
aS'Brescia'
p2221
aS'34'
p2222
aS'16'
p2223
aS'6'
aS'93'
p2224
aa(lp2225
S'Corrado Covi'
p2226
aS'1988'
p2227
aS'No. 8'
p2228
aS'Belluno'
p2229
aS'19'
p2230
aS'4'
aS'1'
aS'4'
aa(lp2231
S'Roberto Favaro'
p2232
aS'1988'
p2233
aS'Lock'
p2234
aS'Venezia'
p2235
aS'42'
p2236
aS'18'
p2237
aS'1'
aS'5'
aa(lp2238
S'Moreno Trevisiol'
p2239
aS'1988'
p2240
aS'Hooker'
p2241
aS'Treviso'
p2242
aS'8'
aS'0'
aS'0'
aS'0'
aa(lp2243
S'Carlo Pratichetti'
p2244
aS'1988'
p2245
aS'Hooker'
p2246
aS'Roma'
p2247
aS'2'
aS'1'
aS'0'
aS'0'
aa(lp2248
S'Roberto Saetti'
p2249
aS'1988'
p2250
aS'Flanker'
p2251
aS'Padova'
p2252
aS'19'
p2253
aS'9'
aS'1'
aS'4'
aa(lp2254
S'Massimo Brunello'
p2255
aS'1988'
p2256
aS'Wing'
p2257
aS'RO'
p2258
aS'8'
aS'5'
aS'3'
aS'15'
p2259
aa(lp2260
S'Giulio Morelli'
p2261
aS'1988'
p2262
aS'Centre'
p2263
aS"L'Aquila"
p2264
aS'3'
aS'0'
aS'0'
aS'0'
aa(lp2265
S'Vittorio Pesce'
p2266
aS'1988'
p2267
aS'No. 8'
p2268
aS'Treviso'
p2269
aS'2'
aS'0'
aS'0'
aS'0'
aa(lp2270
S'Luigi Capitani'
p2271
aS'1989'
p2272
aS'Fly-half'
p2273
aS'Parma'
p2274
aS'6'
aS'2'
aS'1'
aS'13'
p2275
aa(lp2276
S'Giovanni Grespan'
p2277
aS'1989'
p2278
aS'Prop'
p2279
aS'Treviso'
p2280
aS'20'
p2281
aS'12'
p2282
aS'1'
aS'5'
aa(lp2283
S'Enrico Ceselin'
p2284
aS'1989'
p2285
aS'Wing'
p2286
aS'Treviso'
p2287
aS'2'
aS'0'
aS'1'
aS'4'
aa(lp2288
S'Guido Porcellato'
p2289
aS'1989'
p2290
aS'Flanker'
p2291
aS'Treviso'
p2292
aS'1'
aS'0'
aS'0'
aS'0'
aa(lp2293
S'Alessandro Caranci'
p2294
aS'1989'
p2295
aS''
aS'Roma'
p2296
aS'1'
aS'0'
aS'0'
aS'0'
aa(lp2297
S'Massimo Bimbati'
p2298
aS'1989'
p2299
aS'Wing'
p2300
aS'Rovigo'
p2301
aS'1'
aS'1'
aS'0'
aS'0'
aa(lp2302
S'Mose de Stefani'
p2303
aS'1989'
p2304
aS'Hooker'
p2305
aS'Rovigo'
p2306
aS'1'
aS'1'
aS'0'
aS'0'
aa(lp2307
S'Pierpaolo Pedroni'
p2308
aS'1989'
p2309
aS'Lock, No. 8'
p2310
aS'Cremona'
p2311
aS'25'
p2312
aS'11'
p2313
aS'2'
aS'10'
p2314
aa(lp2315
S'Massimo Giovanelli'
p2316
aS'1989'
p2317
aS'Flanker'
p2318
aS'Parma'
p2319
aS'60'
p2320
aS'27'
p2321
aS'4'
aS'19'
p2322
aa(lp2323
S'Massimo Cuttitta'
p2324
aS'1990'
p2325
aS'Prop'
p2326
aS'Latina'
p2327
aS'69'
p2328
aS'32'
p2329
aS'6'
aS'29'
p2330
aa(lp2331
S'Franco Properzi-Curti'
p2332
aS'1990'
p2333
aS'Prop'
p2334
aS'Derha Dun'
p2335
aS'54'
p2336
aS'21'
p2337
aS'3'
aS'15'
p2338
aa(lp2339
S'Mauro Tommasi'
p2340
aS'1990'
p2341
aS'Centre'
p2342
aS'Brindisi'
p2343
aS'7'
aS'5'
aS'2'
aS'10'
p2344
aa(lp2345
S'Umberto Casellato'
p2346
aS'1990'
p2347
aS'Scrum-half'
p2348
aS'Treviso'
p2349
aS'10'
p2350
aS'8'
aS'1'
aS'5'
aa(lp2351
S'Carlo Checchinato'
p2352
aS'1990'
p2353
aS'Lock'
p2354
aS'RO'
p2355
aS'83'
p2356
aS'31'
p2357
aS'21'
p2358
aS'105'
p2359
aa(lp2360
S'Giambattista Croci'
p2361
aS'1990'
p2362
aS'Lock'
p2363
aS'Ascoli'
p2364
aS'24'
p2365
aS'14'
p2366
aS'3'
aS'13'
p2367
aa(lp2368
S'Massimo Goti'
p2369
aS'1990'
p2370
aS'Hooker'
p2371
aS'Livorno'
p2372
aS'1'
aS'1'
aS'0'
aS'0'
aa(lp2373
S'Stefano Bordon'
p2374
aS'1990'
p2375
aS'Centre'
p2376
aS'Rovigo'
p2377
aS'29'
p2378
aS'13'
p2379
aS'1'
aS'5'
aa(lp2380
S'Ivan Francescato'
p2381
aS'1990'
p2382
aS'Centre'
p2383
aS'Treviso'
p2384
aS'38'
p2385
aS'16'
p2386
aS'16'
p2387
aS'77'
p2388
aa(lp2389
S'Antonio Piazza'
p2390
aS'1990'
p2391
aS'Prop'
p2392
aS'VE'
p2393
aS'1'
aS'1'
aS'0'
aS'0'
aa(lp2394
S'Gustavo Milano'
p2395
aS'1982'
p2396
aS'Lock'
p2397
aS'Rosario'
p2398
aS'33'
p2399
aS'16'
p2400
aS'6'
aS'24'
p2401
aa(lp2402
S'Diego Dominguez'
p2403
aS'1989'
p2404
aS'Fly-half'
p2405
aS'Cordoba'
p2406
aS'76'
p2407
aS'29'
p2408
aS'9'
aS'1010'
p2409
aa(lp2410
S'Paolo Vaccari'
p2411
aS'1991'
p2412
aS'Centre'
p2413
aS'Calvisano'
p2414
aS'64'
p2415
aS'27'
p2416
aS'22'
p2417
aS'107'
p2418
aa(lp2419
S'Alessandro Bottacchiari'
p2420
aS'1991'
p2421
aS'Flanker'
p2422
aS'PG'
p2423
aS'6'
aS'4'
aS'2'
aS'9'
aa(lp2424
S'Walter Cristofoletto'
p2425
aS'1992'
p2426
aS'Lock'
p2427
aS'Treviso'
p2428
aS'31'
p2429
aS'11'
p2430
aS'1'
aS'5'
aa(lp2431
S'Daniele Sesenna'
p2432
aS'1992'
p2433
aS'Lock'
p2434
aS'Piacenza'
p2435
aS'5'
aS'4'
aS'0'
aS'0'
aa(lp2436
S'Tito Ciccio'
p2437
aS'1992'
p2438
aS'No. 8'
p2439
aS'Messina'
p2440
aS'5'
aS'3'
aS'0'
aS'0'
aa(lp2441
S'Julian Gardner'
p2442
aS'1987'
p2443
aS'Flanker'
p2444
aS'QLD'
p2445
aS'24'
p2446
aS'12'
p2447
aS'4'
aS'20'
p2448
aa(lp2449
S'Mark Giacheri'
p2450
aS'1992'
p2451
aS'Flanker'
p2452
aS'NSW'
p2453
aS'48'
p2454
aS'15'
p2455
aS'0'
aS'0'
aa(lp2456
S'Ramiro Cassina'
p2457
aS'1992'
p2458
aS'Lock'
p2459
aS'Villa Elisa'
p2460
aS'2'
aS'1'
aS'0'
aS'0'
aa(lp2461
S'Carlo Orlandi'
p2462
aS'1992'
p2463
aS'Hooker'
p2464
aS'Piacenza'
p2465
aS'42'
p2466
aS'18'
p2467
aS'4'
aS'20'
p2468
aa(lp2469
S'Stefano Rigo'
p2470
aS'1992'
p2471
aS'Flanker'
p2472
aS'Treviso'
p2473
aS'4'
aS'2'
aS'3'
aS'15'
p2474
aa(lp2475
S'Piero Dotto'
p2476
aS'1993'
p2477
aS'Fullback'
p2478
aS'Treviso'
p2479
aS'4'
aS'4'
aS'3'
aS'15'
p2480
aa(lp2481
S'Fabio Coppo'
p2482
aS'1993'
p2483
aS'No. 8'
p2484
aS'Padova'
p2485
aS'5'
aS'4'
aS'1'
aS'5'
aa(lp2486
S'Mauro dal Sie'
p2487
aS'1993'
p2488
aS'Prop'
p2489
aS'VE'
p2490
aS'7'
aS'2'
aS'0'
aS'0'
aa(lp2491
S'Hector de Marco'
p2492
aS'1993'
p2493
aS'Fly-half, Scrum-half'
p2494
aS'Cordoba'
p2495
aS'1'
aS'1'
aS'0'
aS'0'
aa(lp2496
S'Gabriel Filizzola'
p2497
aS'1993'
p2498
aS'Centre'
p2499
aS'Mendoza'
p2500
aS'12'
p2501
aS'9'
aS'5'
aS'72'
p2502
aa(lp2503
S'Alessandro Moscardi'
p2504
aS'1993'
p2505
aS'Hooker'
p2506
aS'Rovigo'
p2507
aS'44'
p2508
aS'10'
p2509
aS'6'
aS'30'
p2510
aa(lp2511
S'Leonardo Perziano'
p2512
aS'1993'
p2513
aS'Wing'
p2514
aS'Treviso'
p2515
aS'1'
aS'1'
aS'1'
aS'5'
aa(lp2516
S"Giuliano Faltiba'"
p2517
aS'1993'
p2518
aS'Scrum-half'
p2519
aS'VE'
p2520
aS'1'
aS'1'
aS'0'
aS'0'
aa(lp2521
S'Andrea Sgorlon'
p2522
aS'1993'
p2523
aS'Flanker'
p2524
aS'VE'
p2525
aS'37'
p2526
aS'17'
p2527
aS'2'
aS'10'
p2528
aa(lp2529
S'Massimiliano Capuzzoni'
p2530
aS'1993'
p2531
aS'Flanker'
p2532
aS'Milano'
p2533
aS'2'
aS'2'
aS'0'
aS'0'
aa(lp2534
S'Massimo Ravazzolo'
p2535
aS'1993'
p2536
aS'Fullback, Wing'
p2537
aS'Calvisano'
p2538
aS'23'
p2539
aS'10'
p2540
aS'3'
aS'15'
p2541
aa(lp2542
S"Vittorio d'Anna"
p2543
aS'1993'
p2544
aS'Wing'
p2545
aS'Benevento'
p2546
aS'1'
aS'1'
aS'0'
aS'0'
aa(lp2547
S'Orazio Arancio'
p2548
aS'1993'
p2549
aS'Flanker'
p2550
aS'Catania'
p2551
aS'34'
p2552
aS'12'
p2553
aS'2'
aS'10'
p2554
aa(lp2555
S'Danilo Beretta'
p2556
aS'1993'
p2557
aS'Flanker'
p2558
aS'Bergamo'
p2559
aS'1'
aS'1'
aS'0'
aS'0'
aa(lp2560
S'Roberto Crotti'
p2561
aS'1993'
p2562
aS'Wing'
p2563
aS'Milano'
p2564
aS'2'
aS'1'
aS'0'
aS'0'
aa(lp2565
S'Nicola Aldrovandi'
p2566
aS'1994'
p2567
aS'Centre'
p2568
aS'Bologna'
p2569
aS'3'
aS'3'
aS'5'
aS'25'
p2570
aa(lp2571
S'Claudio de Rossi'
p2572
aS'1994'
p2573
aS'Flanker'
p2574
aS'Treviso'
p2575
aS'3'
aS'3'
aS'0'
aS'0'
aa(lp2576
S'Alessandro Troncon'
p2577
aS'1994'
p2578
aS'Scrum-half'
p2579
aS'Treviso'
p2580
aS'101'
p2581
aS'33'
p2582
aS'19'
p2583
aS'95'
p2584
aa(lp2585
S'Javier Pertile'
p2586
aS'1994'
p2587
aS'Fullback'
p2588
aS'General San Martin'
p2589
aS'15'
p2590
aS'3'
aS'1'
aS'5'
aa(lp2591
S'Andrea Castellani'
p2592
aS'1994'
p2593
aS'Prop'
p2594
aS"L'Aquila"
p2595
aS'20'
p2596
aS'9'
aS'1'
aS'5'
aa(lp2597
S'Mario Gerosa'
p2598
aS'1987'
p2599
aS'Wing'
p2600
aS'Rosario'
p2601
aS'9'
aS'5'
aS'8'
aS'36'
p2602
aa(lp2603
S'Diego Scaglia'
p2604
aS'1994'
p2605
aS'Lock'
p2606
aS'Cordoba'
p2607
aS'6'
aS'1'
aS'1'
aS'5'
aa(lp2608
S'Massimo Alfonsetti'
p2609
aS'1994'
p2610
aS'Hooker'
p2611
aS"L'Aquila"
p2612
aS'1'
aS'0'
aS'0'
aS'0'
aa(lp2613
S'Marco Platania'
p2614
aS'1994'
p2615
aS'Centre'
p2616
aS'Cremona'
p2617
aS'4'
aS'2'
aS'2'
aS'10'
p2618
aa(lp2619
S'Francesco Mazzariol'
p2620
aS'1995'
p2621
aS'Fly-half'
p2622
aS'Treviso'
p2623
aS'33'
p2624
aS'12'
p2625
aS'2'
aS'78'
p2626
aa(lp2627
S'Fabio Roselli'
p2628
aS'1995'
p2629
aS'Wing'
p2630
aS'Roma'
p2631
aS'16'
p2632
aS'5'
aS'5'
aS'25'
p2633
aa(lp2634
S'Carlo Caione'
p2635
aS'1995'
p2636
aS'Back-row'
p2637
aS"L'Aquila"
p2638
aS'25'
p2639
aS'10'
p2640
aS'3'
aS'15'
p2641
aa(lp2642
S'Matteo Piovene'
p2643
aS'1995'
p2644
aS'Centre'
p2645
aS'Padova'
p2646
aS'1'
aS'0'
aS'0'
aS'0'
aa(lp2647
S'Nicola Mazzucato'
p2648
aS'1995'
p2649
aS'Wing'
p2650
aS'Padova'
p2651
aS'39'
p2652
aS'12'
p2653
aS'5'
aS'25'
p2654
aa(lp2655
S'Federico Williams'
p2656
aS'1995'
p2657
aS'Fullback'
p2658
aS'San Miguel de Tucuma'
p2659
aS'1'
aS'0'
aS'0'
aS'0'
aa(lp2660
S'Tommaso Visentin'
p2661
aS'1996'
p2662
aS'Centre'
p2663
aS'Treviso'
p2664
aS'1'
aS'0'
aS'0'
aS'0'
aa(lp2665
S'Giampiero de Carli'
p2666
aS'1996'
p2667
aS'Prop'
p2668
aS'Roma'
p2669
aS'32'
p2670
aS'10'
p2671
aS'5'
aS'25'
p2672
aa(lp2673
S'Simone Babbo'
p2674
aS'1996'
p2675
aS'Wing'
p2676
aS'VE'
p2677
aS'1'
aS'1'
aS'2'
aS'10'
p2678
aa(lp2679
S'Andrea Gritti'
p2680
aS'1996'
p2681
aS'Lock'
p2682
aS'Treviso'
p2683
aS'15'
p2684
aS'3'
aS'0'
aS'0'
aa(lp2685
S'Gianluca Guidi'
p2686
aS'1996'
p2687
aS'Scrum-half'
p2688
aS'Livorno'
p2689
aS'5'
aS'3'
aS'0'
aS'0'
aa(lp2690
S'Piergiorgi Menapace'
p2691
aS'1996'
p2692
aS'Prop'
p2693
aS'Padova'
p2694
aS'1'
aS'1'
aS'0'
aS'0'
aa(lp2695
S'Riccardo Piovan'
p2696
aS'1996'
p2697
aS'No. 8'
p2698
aS'Padova'
p2699
aS'4'
aS'3'
aS'0'
aS'0'
aa(lp2700
S'Leandro Manteri'
p2701
aS'1996'
p2702
aS'Wing'
p2703
aS'Livorno'
p2704
aS'4'
aS'0'
aS'0'
aS'0'
aa(lp2705
S'Roberto Rampazzo'
p2706
aS'1996'
p2707
aS'Back-row'
p2708
aS'Padova'
p2709
aS'2'
aS'0'
aS'0'
aS'0'
aa(lp2710
S'Andrea Barattin'
p2711
aS'1996'
p2712
aS'Lock'
p2713
aS'Treviso'
p2714
aS'2'
aS'0'
aS'0'
aS'0'
aa(lp2715
S'Cristian Stoica'
p2716
aS'1997'
p2717
aS'Centre'
p2718
aS'Bucuresti'
p2719
aS'71'
p2720
aS'21'
p2721
aS'11'
p2722
aS'55'
p2723
aa(lp2724
S'Luca Martin'
p2725
aS'1997'
p2726
aS'Centre'
p2727
aS'Padova'
p2728
aS'38'
p2729
aS'9'
aS'9'
aS'45'
p2730
aa(lp2731
S'Manuel Dallan'
p2732
aS'1997'
p2733
aS'Centre'
p2734
aS'TV'
p2735
aS'18'
p2736
aS'8'
aS'4'
aS'20'
p2737
aa(lp2738
S'Andrea Moretti'
p2739
aS'1997'
p2740
aS'Hooker'
p2741
aS'Mantova'
p2742
aS'13'
p2743
aS'6'
aS'0'
aS'0'
aa(lp2744
S'Corrado Pilat'
p2745
aS'1997'
p2746
aS'Fly-half, Fullback'
p2747
aS'Belluno'
p2748
aS'7'
aS'2'
aS'2'
aS'13'
p2749
aa(lp2750
S'Stefano Saviozzi'
p2751
aS'1998'
p2752
aS'Hooker'
p2753
aS'Pisa'
p2754
aS'14'
p2755
aS'4'
aS'2'
aS'10'
p2756
aa(lp2757
S'Giuseppe Lanzi'
p2758
aS'1998'
p2759
aS'Lock'
p2760
aS'Viterbo'
p2761
aS'8'
aS'4'
aS'0'
aS'0'
aa(lp2762
S'Mauro Bergamasco'
p2763
aS'1998'
p2764
aS'Flanker'
p2765
aS'Padova'
p2766
aS'102'
p2767
aS'30'
p2768
aS'15'
p2769
aS'75'
p2770
aa(lp2771
S'Matt Pini'
p2772
aS'1994'
p2773
aS'Fullback'
p2774
aS'Canberra'
p2775
aS'20'
p2776
aS'10'
p2777
aS'4'
aS'20'
p2778
aa(lp2779
S'Simone Stocco'
p2780
aS'1998'
p2781
aS'Lock'
p2782
aS'VE'
p2783
aS'4'
aS'1'
aS'1'
aS'5'
aa(lp2784
S'Michele Birtig'
p2785
aS'1998'
p2786
aS'Flanker'
p2787
aS'Udine'
p2788
aS'2'
aS'1'
aS'0'
aS'0'
aa(lp2789
S'Giampiero Mazzi'
p2790
aS'1998'
p2791
aS'Scrum-half'
p2792
aS'RM'
p2793
aS'5'
aS'3'
aS'1'
aS'5'
aa(lp2794
S'Nanni Raineri'
p2795
aS'1998'
p2796
aS'Centre, Fly-half'
p2797
aS'RM'
p2798
aS'22'
p2799
aS'6'
aS'2'
aS'13'
p2800
aa(lp2801
S'Marco Baroni'
p2802
aS'1999'
p2803
aS'Wing'
p2804
aS'Padova'
p2805
aS'6'
aS'0'
aS'1'
aS'5'
aa(lp2806
S'Denis Dallan'
p2807
aS'1999'
p2808
aS'Wing'
p2809
aS'TV'
p2810
aS'42'
p2811
aS'11'
p2812
aS'7'
aS'35'
p2813
aa(lp2814
S'Giacomo Preo'
p2815
aS'1999'
p2816
aS'Centre, Fly-half'
p2817
aS'VE'
p2818
aS'7'
aS'1'
aS'0'
aS'2'
aa(lp2819
S'Wim Visser'
p2820
aS'1999'
p2821
aS'Lock'
p2822
aS'Durban'
p2823
aS'22'
p2824
aS'5'
aS'1'
aS'5'
aa(lp2825
S'Gianluca Faliva'
p2826
aS'1999'
p2827
aS'Prop'
p2828
aS'PD'
p2829
aS'4'
aS'0'
aS'0'
aS'0'
aa(lp2830
S'Laurent Travini'
p2831
aS'1999'
p2832
aS'Lock'
p2833
aS'Gap'
p2834
aS'5'
aS'2'
aS'0'
aS'0'
aa(lp2835
S'Sandro Ceppolino'
p2836
aS'1999'
p2837
aS'Centre'
p2838
aS'Villa Ballester'
p2839
aS'5'
aS'2'
aS'1'
aS'5'
aa(lp2840
S'Andrea de Rossi'
p2841
aS'1999'
p2842
aS'No. 8'
p2843
aS'Genova'
p2844
aS'34'
p2845
aS'11'
p2846
aS'2'
aS'10'
p2847
aa(lp2848
S'Andrea Scanavacca'
p2849
aS'1999'
p2850
aS'Fly-half'
p2851
aS'Rovigo'
p2852
aS'11'
p2853
aS'6'
aS'2'
aS'49'
p2854
aa(lp2855
S'Luciano Cornella'
p2856
aS'1999'
p2857
aS'No. 8'
p2858
aS'1977'
p2859
aS'1'
aS'1'
aS'0'
aS'0'
aa(lp2860
S'Andrea Masi'
p2861
aS'1999'
p2862
aS'Centre'
p2863
aS"L'Aquila"
p2864
aS'91'
p2865
aS'23'
p2866
aS'13'
p2867
aS'65'
p2868
aa(lp2869
S'Federico Pucciariello'
p2870
aS'1999'
p2871
aS'Prop'
p2872
aS'Rosario'
p2873
aS'8'
aS'1'
aS'1'
aS'5'
aa(lp2874
S'Nicolas Zisti'
p2875
aS'1999'
p2876
aS'Centre'
p2877
aS'NSW'
p2878
aS'4'
aS'0'
aS'0'
aS'0'
aa(lp2879
S'Alejandro Moreno'
p2880
aS'1998'
p2881
aS'Prop'
p2882
aS'Buenos Aires'
p2883
aS'8'
aS'4'
aS'0'
aS'0'
aa(lp2884
S'Tino Paoletti'
p2885
aS'2000'
p2886
aS'Prop'
p2887
aS'Firenze'
p2888
aS'15'
p2889
aS'5'
aS'0'
aS'0'
aa(lp2890
S'Matteo Mazzantini'
p2891
aS'2000'
p2892
aS'Scrum-half, Fly-half'
p2893
aS'Livorno'
p2894
aS'9'
aS'2'
aS'0'
aS'0'
aa(lp2895
S'Aaron Persico'
p2896
aS'2000'
p2897
aS'Flanker'
p2898
aS'Lower Hutt'
p2899
aS'56'
p2900
aS'15'
p2901
aS'2'
aS'10'
p2902
aa(lp2903
S'Marco Rivaro'
p2904
aS'2000'
p2905
aS'Centre'
p2906
aS'Genova'
p2907
aS'4'
aS'1'
aS'0'
aS'0'
aa(lp2908
S'Juan Francesio'
p2909
aS'2000'
p2910
aS'Wing'
p2911
aS'Rosario'
p2912
aS'4'
aS'1'
aS'0'
aS'0'
aa(lp2913
S'Salvatore Perugini'
p2914
aS'2000'
p2915
aS'Prop'
p2916
aS'Benevento'
p2917
aS'83'
p2918
aS'20'
p2919
aS'0'
aS'0'
aa(lp2920
S'Andrea Lo Cicero Vaina'
p2921
aS'2000'
p2922
aS'Prop'
p2923
aS'Catania'
p2924
aS'103'
p2925
aS'32'
p2926
aS'8'
aS'40'
p2927
aa(lp2928
S'Ramiro Pez'
p2929
aS'2000'
p2930
aS'Fly-half'
p2931
aS'Cordoba'
p2932
aS'40'
p2933
aS'12'
p2934
aS'4'
aS'260'
p2935
aa(lp2936
S'Juan Manuel Queirolo'
p2937
aS'2000'
p2938
aS'Scrum-half'
p2939
aS'Rosario'
p2940
aS'9'
aS'3'
aS'0'
aS'0'
aa(lp2941
S'David dal Maso'
p2942
aS'2000'
p2943
aS'Back-row'
p2944
aS'VR'
p2945
aS'14'
p2946
aS'3'
aS'0'
aS'0'
aa(lp2947
S'Luca Mastrodomenico'
p2948
aS'2000'
p2949
aS'Lock'
p2950
aS'Segni'
p2951
aS'5'
aS'1'
aS'0'
aS'0'
aa(lp2952
S'Lisandro Villagra'
p2953
aS'2000'
p2954
aS'Scrum-half'
p2955
aS'Cordoba'
p2956
aS'2'
aS'0'
aS'0'
aS'0'
aa(lp2957
S'Maurizio Zaffiri'
p2958
aS'2000'
p2959
aS'Flanker'
p2960
aS"L'Aquila"
p2961
aS'14'
p2962
aS'6'
aS'0'
aS'0'
aa(lp2963
S'Filippo Frati'
p2964
aS'2000'
p2965
aS'Scrum-half'
p2966
aS'PR'
p2967
aS'4'
aS'0'
aS'0'
aS'0'
aa(lp2968
S'Andrea Muraro'
p2969
aS'2000'
p2970
aS'Prop'
p2971
aS'PD'
p2972
aS'13'
p2973
aS'4'
aS'0'
aS'0'
aa(lp2974
S'Fabio Ongaro'
p2975
aS'2000'
p2976
aS'Hooker'
p2977
aS'Venezia'
p2978
aS'81'
p2979
aS'25'
p2980
aS'5'
aS'25'
p2981
aa(lp2982
S'Massimiliano Perziano'
p2983
aS'2000'
p2984
aS'Wing'
p2985
aS'TV'
p2986
aS'10'
p2987
aS'3'
aS'3'
aS'15'
p2988
aa(lp2989
S'Ezio Galon'
p2990
aS'2001'
p2991
aS'Utility back'
p2992
aS'Treviso'
p2993
aS'19'
p2994
aS'6'
aS'1'
aS'5'
aa(lp2995
S'Walter Pozzebon'
p2996
aS'2001'
p2997
aS'Centre'
p2998
aS'Treviso'
p2999
aS'22'
p3000
aS'8'
aS'4'
aS'20'
p3001
aa(lp3002
S'Giovanni Antoni'
p3003
aS'2001'
p3004
aS'Fullback'
p3005
aS'Mombasa'
p3006
aS'2'
aS'1'
aS'0'
aS'0'
aa(lp3007
S'Marco Bortolami'
p3008
aS'2001'
p3009
aS'Lock'
p3010
aS'Padova'
p3011
aS'111'
p3012
aS'29'
p3013
aS'7'
aS'35'
p3014
aa(lp3015
S'Roberto Pedrazzi'
p3016
aS'2001'
p3017
aS'Wing, Centre'
p3018
aS'Modena'
p3019
aS'8'
aS'1'
aS'0'
aS'0'
aa(lp3020
S'Salvatore Garozzo'
p3021
aS'2001'
p3022
aS'Lock, Back-row'
p3023
aS'Catania'
p3024
aS'3'
aS'1'
aS'0'
aS'0'
aa(lp3025
S'Andrea Benatti'
p3026
aS'2001'
p3027
aS'Back-row'
p3028
aS'Viadana'
p3029
aS'5'
aS'1'
aS'1'
aS'5'
aa(lp3030
S'Samuele Pace'
p3031
aS'2001'
p3032
aS'Centre'
p3033
aS'PC'
p3034
aS'3'
aS'1'
aS'0'
aS'0'
aa(lp3035
S'Cristian Zanoletti'
p3036
aS'2001'
p3037
aS'Centre'
p3038
aS'Brescia'
p3039
aS'7'
aS'1'
aS'0'
aS'0'
aa(lp3040
S'Santiago Dellape'
p3041
aS'2002'
p3042
aS'Lock'
p3043
aS'La Plata'
p3044
aS'64'
p3045
aS'18'
p3046
aS'3'
aS'15'
p3047
aa(lp3048
S'Matthew Phillips'
p3049
aS'2002'
p3050
aS'No. 8'
p3051
aS'Kaitaia'
p3052
aS'14'
p3053
aS'1'
aS'3'
aS'15'
p3054
aa(lp3055
S'Mirco Bergamasco'
p3056
aS'2002'
p3057
aS'Utility back'
p3058
aS'Padova'
p3059
aS'89'
p3060
aS'22'
p3061
aS'17'
p3062
aS'256'
p3063
aa(lp3064
S'Gert Peens'
p3065
aS'2002'
p3066
aS'Fullback'
p3067
aS'Germiston'
p3068
aS'23'
p3069
aS'5'
aS'0'
aS'105'
p3070
aa(lp3071
S'Carlos Nieto'
p3072
aS'2002'
p3073
aS'Prop'
p3074
aS'La Plata'
p3075
aS'34'
p3076
aS'9'
aS'0'
aS'0'
aa(lp3077
S'Ramiro Martinez-Frugoni'
p3078
aS'2002'
p3079
aS'Prop'
p3080
aS'Buenos Aires'
p3081
aS'10'
p3082
aS'3'
aS'0'
aS'0'
aa(lp3083
S'Sergio Parisse'
p3084
aS'2002'
p3085
aS'No. 8'
p3086
aS'La Plata'
p3087
aS'112'
p3088
aS'31'
p3089
aS'13'
p3090
aS'68'
p3091
aa(lp3092
S'Matteo Barbini'
p3093
aS'2002'
p3094
aS'Centre'
p3095
aS'Venezia'
p3096
aS'15'
p3097
aS'3'
aS'1'
aS'5'
aa(lp3098
S'Martin Castrogiovanni'
p3099
aS'2002'
p3100
aS'Prop'
p3101
aS'Parana'
p3102
aS'110'
p3103
aS'29'
p3104
aS'12'
p3105
aS'60'
p3106
aa(lp3107
S'Enrico Pavanello'
p3108
aS'2002'
p3109
aS'Lock'
p3110
aS'TV'
p3111
aS'8'
aS'4'
aS'0'
aS'0'
aa(lp3112
S'Scott Palmer'
p3113
aS'2002'
p3114
aS'Back-row'
p3115
aS'Palmerston North'
p3116
aS'12'
p3117
aS'1'
aS'2'
aS'10'
p3118
aa(lp3119
S'Cristian Bezzi'
p3120
aS'2003'
p3121
aS'Lock'
p3122
aS'Reggio Emilia'
p3123
aS'11'
p3124
aS'2'
aS'0'
aS'0'
aa(lp3125
S'Carlo Festuccia'
p3126
aS'2003'
p3127
aS'Hooker'
p3128
aS"L'Aquila"
p3129
aS'54'
p3130
aS'19'
p3131
aS'3'
aS'15'
p3132
aa(lp3133
S'Gonzalo Canale'
p3134
aS'2003'
p3135
aS'Centre'
p3136
aS'Cordoba'
p3137
aS'86'
p3138
aS'27'
p3139
aS'7'
aS'35'
p3140
aa(lp3141
S'Diego Sacca'
p3142
aS'2003'
p3143
aS'Centre'
p3144
aS'Livorno'
p3145
aS'1'
aS'0'
aS'0'
aS'0'
aa(lp3146
S'Rima Wakarua-Noema'
p3147
aS'2003'
p3148
aS'Fullback'
p3149
aS'North Shore'
p3150
aS'11'
p3151
aS'6'
aS'0'
aS'99'
p3152
aa(lp3153
S'Paul Griffen'
p3154
aS'2004'
p3155
aS'Scrum-half'
p3156
aS'Dunedin'
p3157
aS'42'
p3158
aS'13'
p3159
aS'1'
aS'13'
p3160
aa(lp3161
S'Roland de Marigny'
p3162
aS'2004'
p3163
aS'Utility back'
p3164
aS'Durban'
p3165
aS'19'
p3166
aS'7'
aS'1'
aS'47'
p3167
aa(lp3168
S'Silvio Orlando'
p3169
aS'2004'
p3170
aS'Flanker'
p3171
aS'Venezia'
p3172
aS'14'
p3173
aS'6'
aS'0'
aS'0'
aa(lp3174
S'Roberto Mandelli'
p3175
aS'2004'
p3176
aS'Back-row, Lock'
p3177
aS'Brescia'
p3178
aS'9'
aS'3'
aS'0'
aS'0'
aa(lp3179
S'Simon Picone'
p3180
aS'2004'
p3181
aS'Scrum-half'
p3182
aS'Roma'
p3183
aS'23'
p3184
aS'7'
aS'1'
aS'5'
aa(lp3185
S'Carlo Antonio del Fava'
p3186
aS'2004'
p3187
aS'Back-row'
p3188
aS'Umtala'
p3189
aS'54'
p3190
aS'13'
p3191
aS'1'
aS'5'
aa(lp3192
S'Salvatore Costanzo'
p3193
aS'2004'
p3194
aS'Prop'
p3195
aS'Catania'
p3196
aS'4'
aS'2'
aS'0'
aS'0'
aa(lp3197
S'Kaine Robertson'
p3198
aS'2004'
p3199
aS'Wing'
p3200
aS'Auckland'
p3201
aS'47'
p3202
aS'15'
p3203
aS'14'
p3204
aS'70'
p3205
aa(lp3206
S'Danilo Carpente'
p3207
aS'2004'
p3208
aS'Fullback'
p3209
aS"L'Aquila"
p3210
aS'2'
aS'1'
aS'0'
aS'0'
aa(lp3211
S'Giorgio Intoppa'
p3212
aS'2004'
p3213
aS'Hooker'
p3214
aS'Milano'
p3215
aS'7'
aS'2'
aS'0'
aS'0'
aa(lp3216
S'Mario Savi'
p3217
aS'2004'
p3218
aS'Prop'
p3219
aS'MN'
p3220
aS'3'
aS'1'
aS'0'
aS'0'
aa(lp3221
S'Ludovico Nitoglia'
p3222
aS'2004'
p3223
aS'Wing'
p3224
aS'Roma'
p3225
aS'17'
p3226
aS'4'
aS'0'
aS'0'
aa(lp3227
S'Luciano Orquera'
p3228
aS'2004'
p3229
aS'Fly-half'
p3230
aS'Cordoba'
p3231
aS'48'
p3232
aS'10'
p3233
aS'3'
aS'154'
p3234
aa(lp3235
S'Pietro Travagli'
p3236
aS'2004'
p3237
aS'Scrum-half'
p3238
aS'Treviso'
p3239
aS'9'
aS'2'
aS'1'
aS'5'
aa(lp3240
S'Matteo Pratichetti'
p3241
aS'2004'
p3242
aS'Centre'
p3243
aS'Roma'
p3244
aS'24'
p3245
aS'6'
aS'5'
aS'25'
p3246
aa(lp3247
S'Valerio Bernabo'
p3248
aS'2004'
p3249
aS'Lock'
p3250
aS'Roma'
p3251
aS'23'
p3252
aS'9'
aS'0'
aS'0'
aa(lp3253
S'Antonio Mannato'
p3254
aS'2004'
p3255
aS'Back-row'
p3256
aS'Varese'
p3257
aS'3'
aS'2'
aS'1'
aS'5'
aa(lp3258
S'Josh Sole'
p3259
aS'2005'
p3260
aS'Flanker'
p3261
aS'Hamilton'
p3262
aS'47'
p3263
aS'11'
p3264
aS'3'
aS'15'
p3265
aa(lp3266
S'Antonio Pavanello'
p3267
aS'2005'
p3268
aS'Lock'
p3269
aS'PL'
p3270
aS'23'
p3271
aS'6'
aS'0'
aS'0'
aa(lp3272
S'Pablo Canavosio'
p3273
aS'2005'
p3274
aS'Scrum-half'
p3275
aS'Cordoba'
p3276
aS'38'
p3277
aS'10'
p3278
aS'6'
aS'30'
p3279
aa(lp3280
S'Michele Rizzo'
p3281
aS'2005'
p3282
aS'Prop'
p3283
aS'VE'
p3284
aS'16'
p3285
aS'4'
aS'0'
aS'0'
aa(lp3286
S'Matias Aguero'
p3287
aS'2005'
p3288
aS'Prop'
p3289
aS'San Nicolas'
p3290
aS'33'
p3291
aS'8'
aS'1'
aS'5'
aa(lp3292
S'Alessandro Zanni'
p3293
aS'2005'
p3294
aS'Flanker'
p3295
aS'Udine'
p3296
aS'87'
p3297
aS'25'
p3298
aS'3'
aS'15'
p3299
aa(lp3300
S'David Bortolussi'
p3301
aS'2006'
p3302
aS'Fullback'
p3303
aS'Auch'
p3304
aS'16'
p3305
aS'8'
aS'1'
aS'147'
p3306
aa(lp3307
S'Benjamin de Jager'
p3308
aS'2006'
p3309
aS'Wing'
p3310
aS'Cape Town'
p3311
aS'1'
aS'1'
aS'1'
aS'5'
aa(lp3312
S'Robert Barbieri'
p3313
aS'2006'
p3314
aS'Back-row'
p3315
aS'Toronto'
p3316
aS'39'
p3317
aS'10'
p3318
aS'3'
aS'15'
p3319
aa(lp3320
S'Leonardo Ghiraldini'
p3321
aS'2006'
p3322
aS'Hooker'
p3323
aS'Padova'
p3324
aS'75'
p3325
aS'16'
p3326
aS'4'
aS'20'
p3327
aa(lp3328
S'Andrea Marcato'
p3329
aS'2006'
p3330
aS'Fly-half'
p3331
aS'Padova'
p3332
aS'16'
p3333
aS'4'
aS'0'
aS'81'
p3334
aa(lp3335
S'Michele Sepe'
p3336
aS'2006'
p3337
aS'Wing'
p3338
aS'Roma'
p3339
aS'3'
aS'1'
aS'1'
aS'5'
aa(lp3340
S'Fabio Staibano'
p3341
aS'2006'
p3342
aS'Prop'
p3343
aS'Eboli'
p3344
aS'11'
p3345
aS'3'
aS'0'
aS'0'
aa(lp3346
S'Marko Stanojevic'
p3347
aS'2006'
p3348
aS'Wing'
p3349
aS'Birmingham'
p3350
aS'7'
aS'4'
aS'9'
aS'45'
p3351
aa(lp3352
S'Warren Spragg'
p3353
aS'2006'
p3354
aS'Fullback, Wing'
p3355
aS'Manchester'
p3356
aS'1'
aS'1'
aS'0'
aS'0'
aa(lp3357
S'Kris Burton'
p3358
aS'2007'
p3359
aS'Fly-half'
p3360
aS'QLD'
p3361
aS'21'
p3362
aS'7'
aS'1'
aS'87'
p3363
aa(lp3364
S'Enrico Patrizio'
p3365
aS'2007'
p3366
aS'Centre'
p3367
aS'Camposampiero'
p3368
aS'4'
aS'2'
aS'0'
aS'0'
aa(lp3369
S'Alessio Galante'
p3370
aS'2007'
p3371
aS'Utility back'
p3372
aS'Varese'
p3373
aS'2'
aS'1'
aS'0'
aS'0'
aa(lp3374
S'Manoa Vosawai'
p3375
aS'2007'
p3376
aS'Flanker'
p3377
aS'Suva'
p3378
aS'17'
p3379
aS'5'
aS'1'
aS'5'
aa(lp3380
S'Lorenzo Cittadini'
p3381
aS'2008'
p3382
aS'Prop'
p3383
aS'Bergamo'
p3384
aS'38'
p3385
aS'9'
aS'2'
aS'10'
p3386
aa(lp3387
S'Tommaso Reato'
p3388
aS'2008'
p3389
aS'Lock'
p3390
aS'Rovigo'
p3391
aS'9'
aS'1'
aS'0'
aS'0'
aa(lp3392
S'Alberto Sgarbi'
p3393
aS'2008'
p3394
aS'Centre'
p3395
aS'TV'
p3396
aS'29'
p3397
aS'7'
aS'2'
aS'10'
p3398
aa(lp3399
S'Paolo Buso'
p3400
aS'2008'
p3401
aS'Fly-half'
p3402
aS'Treviso'
p3403
aS'1'
aS'0'
aS'0'
aS'0'
aa(lp3404
S'Jaco Erasmus'
p3405
aS'2008'
p3406
aS'Flanker'
p3407
aS'Humansdorf'
p3408
aS'3'
aS'1'
aS'0'
aS'0'
aa(lp3409
S'Gonzalo Garcia'
p3410
aS'2008'
p3411
aS'Centre'
p3412
aS'Mendoza'
p3413
aS'35'
p3414
aS'6'
aS'1'
aS'8'
aa(lp3415
S'Luke McLean'
p3416
aS'2008'
p3417
aS'Fullback'
p3418
aS'Townsville'
p3419
aS'68'
p3420
aS'14'
p3421
aS'7'
aS'74'
p3422
aa(lp3423
S'Ignacio Fernandez-Rouyet'
p3424
aS'2008'
p3425
aS'Prop'
p3426
aS'Buenos Aires'
p3427
aS'7'
aS'2'
aS'0'
aS'0'
aa(lp3428
S'Riccardo Pavan'
p3429
aS'2008'
p3430
aS'Wing, Centre'
p3431
aS'TV'
p3432
aS'1'
aS'0'
aS'0'
aS'0'
aa(lp3433
S'Giulio Toniolatti'
p3434
aS'2008'
p3435
aS'Wing'
p3436
aS'Roma'
p3437
aS'15'
p3438
aS'6'
aS'2'
aS'10'
p3439
aa(lp3440
S'Jean-Francois Montauriol'
p3441
aS'2009'
p3442
aS'Lock, Flanker'
p3443
aS'Muret'
p3444
aS'2'
aS'0'
aS'0'
aS'0'
aa(lp3445
S'Andrea Bacchetti'
p3446
aS'2009'
p3447
aS'Wing'
p3448
aS'Rovigo'
p3449
aS'2'
aS'0'
aS'0'
aS'0'
aa(lp3450
S'Guilio Rubini'
p3451
aS'2009'
p3452
aS'Utility back'
p3453
aS'RM'
p3454
aS'4'
aS'0'
aS'0'
aS'0'
aa(lp3455
S'Franco Sbaraglini'
p3456
aS'2009'
p3457
aS'Hooker'
p3458
aS'Mar del Plata'
p3459
aS'5'
aS'0'
aS'0'
aS'0'
aa(lp3460
S'Roberto Quartaroli'
p3461
aS'2009'
p3462
aS'Centre'
p3463
aS"L'Aquila"
p3464
aS'5'
aS'1'
aS'0'
aS'0'
aa(lp3465
S'Quintin Geldenhuys'
p3466
aS'2009'
p3467
aS'Lock'
p3468
aS'Krugersdorp'
p3469
aS'54'
p3470
aS'13'
p3471
aS'0'
aS'0'
aa(lp3472
S'Craig Gower'
p3473
aS'2009'
p3474
aS'Halfback'
p3475
aS'NSW'
p3476
aS'14'
p3477
aS'2'
aS'0'
aS'17'
p3478
aa(lp3479
S'Paul Derbyshire'
p3480
aS'2009'
p3481
aS'Flanker'
p3482
aS'LI'
p3483
aS'24'
p3484
aS'7'
aS'0'
aS'0'
aa(lp3485
S'Tito Tebaldi'
p3486
aS'2009'
p3487
aS'Scrum-half'
p3488
aS'Parma'
p3489
aS'20'
p3490
aS'4'
aS'0'
aS'3'
aa(lp3491
S'Simone Favaro'
p3492
aS'2009'
p3493
aS'Flanker'
p3494
aS'Treviso'
p3495
aS'24'
p3496
aS'9'
aS'1'
aS'5'
aa(lp3497
S'Riccardo Bocchino'
p3498
aS'2010'
p3499
aS'Scrum-half'
p3500
aS'Viterbo'
p3501
aS'14'
p3502
aS'5'
aS'0'
aS'29'
p3503
aa(lp3504
S'Tommaso Benvenuti'
p3505
aS'2010'
p3506
aS'Centre'
p3507
aS'Vittorio Veneto'
p3508
aS'30'
p3509
aS'11'
p3510
aS'4'
aS'20'
p3511
aa(lp3512
S'Edoardo Gori'
p3513
aS'2010'
p3514
aS'Scrum-half'
p3515
aS'Prato'
p3516
aS'42'
p3517
aS'13'
p3518
aS'4'
aS'20'
p3519
aa(lp3520
S'Fabio Semenzato'
p3521
aS'2011'
p3522
aS'Scrum-half'
p3523
aS'Treviso'
p3524
aS'12'
p3525
aS'2'
aS'1'
aS'5'
aa(lp3526
S"Tommaso d'Apice"
p3527
aS'2011'
p3528
aS'Hooker'
p3529
aS'Benevento'
p3530
aS'10'
p3531
aS'5'
aS'1'
aS'5'
aa(lp3532
S'Cornelius van Zyl'
p3533
aS'2011'
p3534
aS'Lock'
p3535
aS'Nelspruit'
p3536
aS'8'
aS'3'
aS'0'
aS'0'
aa(lp3537
S'Joshua Furno'
p3538
aS'2011'
p3539
aS'Lock'
p3540
aS'VIC'
p3541
aS'29'
p3542
aS'8'
aS'2'
aS'10'
p3543
aa(lp3544
S'Giovanbattista Venditti'
p3545
aS'2012'
p3546
aS'Wing'
p3547
aS'Avezzano'
p3548
aS'27'
p3549
aS'7'
aS'5'
aS'25'
p3550
aa(lp3551
S'Tobie Botes'
p3552
aS'2012'
p3553
aS'Scrum-half'
p3554
aS'Worcester'
p3555
aS'22'
p3556
aS'5'
aS'0'
aS'8'
aa(lp3557
S'Luca Morisi'
p3558
aS'2012'
p3559
aS'Centre'
p3560
aS'Milano'
p3561
aS'14'
p3562
aS'4'
aS'2'
aS'10'
p3563
aa(lp3564
S'Alberto de Marchi'
p3565
aS'2012'
p3566
aS'Prop'
p3567
aS'Jesolo'
p3568
aS'28'
p3569
aS'6'
aS'0'
aS'0'
aa(lp3570
S'Davide Giazzon'
p3571
aS'2012'
p3572
aS'Hooker'
p3573
aS'VE'
p3574
aS'20'
p3575
aS'5'
aS'0'
aS'0'
aa(lp3576
S'Lorenzo Romano'
p3577
aS'2012'
p3578
aS'Prop'
p3579
aS'Bagni-a-Ripoli'
p3580
aS'2'
aS'1'
aS'0'
aS'0'
aa(lp3581
S'Alberto Benettin'
p3582
aS'2012'
p3583
aS'Fly-half, Centre'
p3584
aS'Padova'
p3585
aS'1'
aS'1'
aS'0'
aS'0'
aa(lp3586
S'Andrea Pratichetti'
p3587
aS'2012'
p3588
aS'Centre'
p3589
aS'Roma'
p3590
aS'1'
aS'1'
aS'0'
aS'0'
aa(lp3591
S'Marco Fuser'
p3592
aS'2012'
p3593
aS'Lock'
p3594
aS'Villorba'
p3595
aS'4'
aS'2'
aS'0'
aS'0'
aa(lp3596
S'Tommaso Iannone'
p3597
aS'2012'
p3598
aS'Utility back'
p3599
aS'Treviso'
p3600
aS'10'
p3601
aS'2'
aS'1'
aS'5'
aa(lp3602
S'Francesco Minto'
p3603
aS'2012'
p3604
aS'Flanker'
p3605
aS'Mirano'
p3606
aS'16'
p3607
aS'3'
aS'0'
aS'0'
aa(lp3608
S'Alberto di Bernardo'
p3609
aS'2013'
p3610
aS'Fly-half'
p3611
aS'Rosario'
p3612
aS'4'
aS'0'
aS'0'
aS'31'
p3613
aa(lp3614
S'Andrea Manici'
p3615
aS'2013'
p3616
aS'Hooker'
p3617
aS'Parma'
p3618
aS'11'
p3619
aS'2'
aS'0'
aS'0'
aa(lp3620
S'Leandro Cedaro'
p3621
aS'2013'
p3622
aS'Lock'
p3623
aS'Resistencia'
p3624
aS'1'
aS'0'
aS'0'
aS'0'
aa(lp3625
S'Leonardo Sarto'
p3626
aS'2013'
p3627
aS'Wing'
p3628
aS'VR'
p3629
aS'16'
p3630
aS'1'
aS'4'
aS'20'
p3631
aa(lp3632
S'Alberto Chillon'
p3633
aS'2013'
p3634
aS'Scrum-half'
p3635
aS'Venezia'
p3636
aS'1'
aS'0'
aS'0'
aS'0'
aa(lp3637
S'Tommaso Allan'
p3638
aS'2013'
p3639
aS'Fly-half'
p3640
aS'Vicenza'
p3641
aS'14'
p3642
aS'2'
aS'2'
aS'43'
p3643
aa(lp3644
S'Michele Campagnaro'
p3645
aS'2013'
p3646
aS'Centre'
p3647
aS'Mirano'
p3648
aS'13'
p3649
aS'2'
aS'3'
aS'15'
p3650
aa(lp3651
S'Angelo Esposito'
p3652
aS'2014'
p3653
aS'Wing'
p3654
aS'Napoli'
p3655
aS'5'
aS'0'
aS'0'
aS'0'
aa(lp3656
S'George Fabio Biagi'
p3657
aS'2014'
p3658
aS'Lock'
p3659
aS'Irvine'
p3660
aS'8'
aS'1'
aS'0'
aS'0'
aa(lp3661
S'Guglielmo Palazzani'
p3662
aS'2014'
p3663
aS'Scrum-half'
p3664
aS'Gardone val Trompia'
p3665
aS'8'
aS'0'
aS'0'
aS'0'
aa(lp3666
S'Andrea de Marchi'
p3667
aS'2014'
p3668
aS'Prop'
p3669
aS'TV'
p3670
aS'2'
aS'0'
aS'0'
aS'0'
aa(lp3671
S'Dario Chistolini'
p3672
aS'2014'
p3673
aS'Prop'
p3674
aS'Kempton Park'
p3675
aS'10'
p3676
aS'2'
aS'0'
aS'0'
aa(lp3677
S'Kelly Haimona'
p3678
aS'2014'
p3679
aS'Fly-half'
p3680
aS'Rotorua'
p3681
aS'7'
aS'2'
aS'0'
aS'46'
p3682
aa(lp3683
S'Samuela Vunisa'
p3684
aS'2014'
p3685
aS'No. 8'
p3686
aS'Suva'
p3687
aS'5'
aS'1'
aS'0'
aS'0'
aa(lp3688
S'Marco Barbini'
p3689
aS'2015'
p3690
aS'Back-row'
p3691
aS'Padova'
p3692
aS'2'
aS'0'
aS'0'
aS'0'
aa(lp3693
S'Giulio Bisegni'
p3694
aS'2015'
p3695
aS'Centre'
p3696
aS'Frascati'
p3697
aS'2'
aS'1'
aS'0'
aS'0'
aa(lp3698
S'Enrico Bacchin'
p3699
aS'2015'
p3700
aS'Centre'
p3701
aS'San Dona'
p3702
aS'3'
aS'1'
aS'0'
aS'0'
aa(lp3703
S'Michele Visentin'
p3704
aS'2015'
p3705
aS'Wing'
p3706
aS'Paese'
p3707
aS'1'
aS'1'
aS'0'
aS'0'
aa.