(lp1
VScotland v England at Edinburgh, Mar 27, 1871
p2
aVScotland v England at Edinburgh, Mar 27, 1871
p3
aVScotland v England at Edinburgh, Mar 27, 1871
p4
aVScotland v England at Edinburgh, Mar 27, 1871
p5
aVScotland v England at Edinburgh, Mar 27, 1871
p6
aVScotland v England at Edinburgh, Mar 27, 1871
p7
aVScotland v England at Edinburgh, Mar 27, 1871
p8
aVScotland v England at Edinburgh, Mar 27, 1871
p9
aVScotland v England at Edinburgh, Mar 27, 1871
p10
aVScotland v England at Edinburgh, Mar 27, 1871
p11
aVScotland v England at Edinburgh, Mar 27, 1871
p12
aVScotland v England at Edinburgh, Mar 27, 1871
p13
aVScotland v England at Edinburgh, Mar 27, 1871
p14
aVScotland v England at Edinburgh, Mar 27, 1871
p15
aVScotland v England at Edinburgh, Mar 27, 1871
p16
aVScotland v England at Edinburgh, Mar 27, 1871
p17
aVScotland v England at Edinburgh, Mar 27, 1871
p18
aVScotland v England at Edinburgh, Mar 27, 1871
p19
aVScotland v England at Edinburgh, Mar 27, 1871
p20
aVScotland v England at Edinburgh, Mar 27, 1871
p21
aVEngland v Scotland at The Oval, Feb 5, 1872
p22
aVEngland v Scotland at The Oval, Feb 5, 1872
p23
aVEngland v Scotland at The Oval, Feb 5, 1872
p24
aVEngland v Scotland at The Oval, Feb 5, 1872
p25
aVEngland v Scotland at The Oval, Feb 5, 1872
p26
aVEngland v Scotland at The Oval, Feb 5, 1872
p27
aVEngland v Scotland at The Oval, Feb 5, 1872
p28
aVEngland v Scotland at The Oval, Feb 5, 1872
p29
aVEngland v Scotland at The Oval, Feb 5, 1872
p30
aVEngland v Scotland at The Oval, Feb 5, 1872
p31
aVEngland v Scotland at The Oval, Feb 5, 1872
p32
aVEngland v Scotland at The Oval, Feb 5, 1872
p33
aVEngland v Scotland at The Oval, Feb 5, 1872
p34
aVEngland v Scotland at The Oval, Feb 5, 1872
p35
aVScotland v England at Glasgow, Mar 3, 1873
p36
aVScotland v England at Glasgow, Mar 3, 1873
p37
aVScotland v England at Glasgow, Mar 3, 1873
p38
aVScotland v England at Glasgow, Mar 3, 1873
p39
aVScotland v England at Glasgow, Mar 3, 1873
p40
aVScotland v England at Glasgow, Mar 3, 1873
p41
aVScotland v England at Glasgow, Mar 3, 1873
p42
aVScotland v England at Glasgow, Mar 3, 1873
p43
aVScotland v England at Glasgow, Mar 3, 1873
p44
aVScotland v England at Glasgow, Mar 3, 1873
p45
aVEngland v Scotland at The Oval, Feb 23, 1874
p46
aVEngland v Scotland at The Oval, Feb 23, 1874
p47
aVEngland v Scotland at The Oval, Feb 23, 1874
p48
aVEngland v Scotland at The Oval, Feb 23, 1874
p49
aVEngland v Scotland at The Oval, Feb 23, 1874
p50
aVEngland v Scotland at The Oval, Feb 23, 1874
p51
aVEngland v Scotland at The Oval, Feb 23, 1874
p52
aVEngland v Scotland at The Oval, Feb 23, 1874
p53
aVEngland v Scotland at The Oval, Feb 23, 1874
p54
aVEngland v Scotland at The Oval, Feb 23, 1874
p55
aVEngland v Scotland at The Oval, Feb 23, 1874
p56
aVEngland v Scotland at The Oval, Feb 23, 1874
p57
aVEngland v Ireland at The Oval, Feb 15, 1875
p58
aVEngland v Ireland at The Oval, Feb 15, 1875
p59
aVEngland v Ireland at The Oval, Feb 15, 1875
p60
aVEngland v Ireland at The Oval, Feb 15, 1875
p61
aVEngland v Ireland at The Oval, Feb 15, 1875
p62
aVEngland v Ireland at The Oval, Feb 15, 1875
p63
aVEngland v Ireland at The Oval, Feb 15, 1875
p64
aVEngland v Ireland at The Oval, Feb 15, 1875
p65
aVEngland v Ireland at The Oval, Feb 15, 1875
p66
aVScotland v England at Edinburgh, Mar 8, 1875
p67
aVScotland v England at Edinburgh, Mar 8, 1875
p68
aVScotland v England at Edinburgh, Mar 8, 1875
p69
aVIreland v England at Dublin, Dec 13, 1875
p70
aVIreland v England at Dublin, Dec 13, 1875
p71
aVIreland v England at Dublin, Dec 13, 1875
p72
aVIreland v England at Dublin, Dec 13, 1875
p73
aVIreland v England at Dublin, Dec 13, 1875
p74
aVIreland v England at Dublin, Dec 13, 1875
p75
aVIreland v England at Dublin, Dec 13, 1875
p76
aVIreland v England at Dublin, Dec 13, 1875
p77
aVIreland v England at Dublin, Dec 13, 1875
p78
aVIreland v England at Dublin, Dec 13, 1875
p79
aVIreland v England at Dublin, Dec 13, 1875
p80
aVEngland v Scotland at The Oval, Mar 6, 1876
p81
aVEngland v Scotland at The Oval, Mar 6, 1876
p82
aVEngland v Scotland at The Oval, Mar 6, 1876
p83
aVEngland v Scotland at The Oval, Mar 6, 1876
p84
aVEngland v Scotland at The Oval, Mar 6, 1876
p85
aVEngland v Scotland at The Oval, Mar 6, 1876
p86
aVEngland v Scotland at The Oval, Mar 6, 1876
p87
aVEngland v Ireland at The Oval, Feb 5, 1877
p88
aVEngland v Ireland at The Oval, Feb 5, 1877
p89
aVEngland v Ireland at The Oval, Feb 5, 1877
p90
aVEngland v Ireland at The Oval, Feb 5, 1877
p91
aVEngland v Ireland at The Oval, Feb 5, 1877
p92
aVScotland v England at Edinburgh, Mar 5, 1877
p93
aVScotland v England at Edinburgh, Mar 5, 1877
p94
aVScotland v England at Edinburgh, Mar 5, 1877
p95
aVEngland v Scotland at The Oval, Mar 4, 1878
p96
aVEngland v Scotland at The Oval, Mar 4, 1878
p97
aVEngland v Scotland at The Oval, Mar 4, 1878
p98
aVEngland v Scotland at The Oval, Mar 4, 1878
p99
aVEngland v Scotland at The Oval, Mar 4, 1878
p100
aVEngland v Scotland at The Oval, Mar 4, 1878
p101
aVEngland v Scotland at The Oval, Mar 4, 1878
p102
aVIreland v England at Lansdowne Road, Mar 11, 1878
p103
aVIreland v England at Lansdowne Road, Mar 11, 1878
p104
aVIreland v England at Lansdowne Road, Mar 11, 1878
p105
aVIreland v England at Lansdowne Road, Mar 11, 1878
p106
aVIreland v England at Lansdowne Road, Mar 11, 1878
p107
aVIreland v England at Lansdowne Road, Mar 11, 1878
p108
aVIreland v England at Lansdowne Road, Mar 11, 1878
p109
aVIreland v England at Lansdowne Road, Mar 11, 1878
p110
aVScotland v England at Edinburgh, Mar 10, 1879
p111
aVScotland v England at Edinburgh, Mar 10, 1879
p112
aVScotland v England at Edinburgh, Mar 10, 1879
p113
aVScotland v England at Edinburgh, Mar 10, 1879
p114
aVScotland v England at Edinburgh, Mar 10, 1879
p115
aVScotland v England at Edinburgh, Mar 10, 1879
p116
aVScotland v England at Edinburgh, Mar 10, 1879
p117
aVEngland v Ireland at The Oval, Mar 24, 1879
p118
aVEngland v Ireland at The Oval, Mar 24, 1879
p119
aVEngland v Ireland at The Oval, Mar 24, 1879
p120
aVIreland v England at Lansdowne Road, Feb 2, 1880
p121
aVIreland v England at Lansdowne Road, Feb 2, 1880
p122
aVIreland v England at Lansdowne Road, Feb 2, 1880
p123
aVIreland v England at Lansdowne Road, Feb 2, 1880
p124
aVIreland v England at Lansdowne Road, Feb 2, 1880
p125
aVIreland v England at Lansdowne Road, Feb 2, 1880
p126
aVIreland v England at Lansdowne Road, Feb 2, 1880
p127
aVIreland v England at Lansdowne Road, Feb 2, 1880
p128
aVEngland v Scotland at Manchester, Feb 28, 1880
p129
aVEngland v Scotland at Manchester, Feb 28, 1880
p130
aVEngland v Scotland at Manchester, Feb 28, 1880
p131
aVEngland v Scotland at Manchester, Feb 28, 1880
p132
aVEngland v Ireland at Manchester, Feb 5, 1881
p133
aVEngland v Ireland at Manchester, Feb 5, 1881
p134
aVEngland v Ireland at Manchester, Feb 5, 1881
p135
aVEngland v Ireland at Manchester, Feb 5, 1881
p136
aVEngland v Ireland at Manchester, Feb 5, 1881
p137
aVEngland v Wales at Blackheath, Feb 19, 1881
p138
aVEngland v Wales at Blackheath, Feb 19, 1881
p139
aVScotland v England at Edinburgh, Mar 19, 1881
p140
aVIreland v England at Lansdowne Road, Feb 6, 1882
p141
aVIreland v England at Lansdowne Road, Feb 6, 1882
p142
aVIreland v England at Lansdowne Road, Feb 6, 1882
p143
aVIreland v England at Lansdowne Road, Feb 6, 1882
p144
aVIreland v England at Lansdowne Road, Feb 6, 1882
p145
aVIreland v England at Lansdowne Road, Feb 6, 1882
p146
aVEngland v Scotland at Manchester, Mar 4, 1882
p147
aVEngland v Scotland at Manchester, Mar 4, 1882
p148
aVEngland v Scotland at Manchester, Mar 4, 1882
p149
aVWales v England at Swansea, Dec 16, 1882
p150
aVWales v England at Swansea, Dec 16, 1882
p151
aVWales v England at Swansea, Dec 16, 1882
p152
aVWales v England at Swansea, Dec 16, 1882
p153
aVWales v England at Swansea, Dec 16, 1882
p154
aVWales v England at Swansea, Dec 16, 1882
p155
aVWales v England at Swansea, Dec 16, 1882
p156
aVWales v England at Swansea, Dec 16, 1882
p157
aVEngland v Ireland at Manchester, Feb 5, 1883
p158
aVEngland v Ireland at Manchester, Feb 5, 1883
p159
aVScotland v England at Edinburgh, Mar 3, 1883
p160
aVEngland v Wales at Leeds, Jan 5, 1884
p161
aVEngland v Wales at Leeds, Jan 5, 1884
p162
aVEngland v Wales at Leeds, Jan 5, 1884
p163
aVIreland v England at Lansdowne Road, Feb 4, 1884
p164
aVIreland v England at Lansdowne Road, Feb 4, 1884
p165
aVIreland v England at Lansdowne Road, Feb 4, 1884
p166
aVIreland v England at Lansdowne Road, Feb 4, 1884
p167
aVIreland v England at Lansdowne Road, Feb 4, 1884
p168
aVIreland v England at Lansdowne Road, Feb 4, 1884
p169
aVWales v England at Swansea, Jan 3, 1885
p170
aVWales v England at Swansea, Jan 3, 1885
p171
aVWales v England at Swansea, Jan 3, 1885
p172
aVWales v England at Swansea, Jan 3, 1885
p173
aVWales v England at Swansea, Jan 3, 1885
p174
aVWales v England at Swansea, Jan 3, 1885
p175
aVEngland v Ireland at Manchester, Feb 7, 1885
p176
aVEngland v Wales at Blackheath, Jan 2, 1886
p177
aVEngland v Wales at Blackheath, Jan 2, 1886
p178
aVEngland v Wales at Blackheath, Jan 2, 1886
p179
aVEngland v Wales at Blackheath, Jan 2, 1886
p180
aVEngland v Wales at Blackheath, Jan 2, 1886
p181
aVEngland v Wales at Blackheath, Jan 2, 1886
p182
aVEngland v Wales at Blackheath, Jan 2, 1886
p183
aVEngland v Wales at Blackheath, Jan 2, 1886
p184
aVIreland v England at Lansdowne Road, Feb 6, 1886
p185
aVScotland v England at Edinburgh, Mar 13, 1886
p186
aVWales v England at Llanelli, Jan 8, 1887
p187
aVWales v England at Llanelli, Jan 8, 1887
p188
aVWales v England at Llanelli, Jan 8, 1887
p189
aVWales v England at Llanelli, Jan 8, 1887
p190
aVWales v England at Llanelli, Jan 8, 1887
p191
aVWales v England at Llanelli, Jan 8, 1887
p192
aVWales v England at Llanelli, Jan 8, 1887
p193
aVWales v England at Llanelli, Jan 8, 1887
p194
aVIreland v England at Lansdowne Road, Feb 5, 1887
p195
aVIreland v England at Lansdowne Road, Feb 5, 1887
p196
aVIreland v England at Lansdowne Road, Feb 5, 1887
p197
aVEngland v New Zealand Natives at Blackheath, Feb 16, 1889
p198
aVEngland v New Zealand Natives at Blackheath, Feb 16, 1889
p199
aVEngland v New Zealand Natives at Blackheath, Feb 16, 1889
p200
aVEngland v New Zealand Natives at Blackheath, Feb 16, 1889
p201
aVEngland v New Zealand Natives at Blackheath, Feb 16, 1889
p202
aVEngland v New Zealand Natives at Blackheath, Feb 16, 1889
p203
aVEngland v New Zealand Natives at Blackheath, Feb 16, 1889
p204
aVEngland v New Zealand Natives at Blackheath, Feb 16, 1889
p205
aVEngland v New Zealand Natives at Blackheath, Feb 16, 1889
p206
aVEngland v New Zealand Natives at Blackheath, Feb 16, 1889
p207
aVEngland v New Zealand Natives at Blackheath, Feb 16, 1889
p208
aVEngland v New Zealand Natives at Blackheath, Feb 16, 1889
p209
aVEngland v Wales at Dewsbury, Feb 15, 1890
p210
aVEngland v Wales at Dewsbury, Feb 15, 1890
p211
aVEngland v Wales at Dewsbury, Feb 15, 1890
p212
aVEngland v Wales at Dewsbury, Feb 15, 1890
p213
aVEngland v Wales at Dewsbury, Feb 15, 1890
p214
aVEngland v Wales at Dewsbury, Feb 15, 1890
p215
aVEngland v Wales at Dewsbury, Feb 15, 1890
p216
aVEngland v Wales at Dewsbury, Feb 15, 1890
p217
aVScotland v England at Edinburgh, Mar 1, 1890
p218
aVScotland v England at Edinburgh, Mar 1, 1890
p219
aVScotland v England at Edinburgh, Mar 1, 1890
p220
aVScotland v England at Edinburgh, Mar 1, 1890
p221
aVEngland v Ireland at Blackheath, Mar 15, 1890
p222
aVWales v England at Newport, Jan 3, 1891
p223
aVWales v England at Newport, Jan 3, 1891
p224
aVWales v England at Newport, Jan 3, 1891
p225
aVWales v England at Newport, Jan 3, 1891
p226
aVWales v England at Newport, Jan 3, 1891
p227
aVWales v England at Newport, Jan 3, 1891
p228
aVWales v England at Newport, Jan 3, 1891
p229
aVWales v England at Newport, Jan 3, 1891
p230
aVWales v England at Newport, Jan 3, 1891
p231
aVIreland v England at Lansdowne Road, Feb 7, 1891
p232
aVEngland v Scotland at Richmond, Mar 7, 1891
p233
aVEngland v Wales at Blackheath, Jan 2, 1892
p234
aVEngland v Wales at Blackheath, Jan 2, 1892
p235
aVEngland v Wales at Blackheath, Jan 2, 1892
p236
aVEngland v Wales at Blackheath, Jan 2, 1892
p237
aVEngland v Wales at Blackheath, Jan 2, 1892
p238
aVEngland v Wales at Blackheath, Jan 2, 1892
p239
aVEngland v Wales at Blackheath, Jan 2, 1892
p240
aVEngland v Wales at Blackheath, Jan 2, 1892
p241
aVEngland v Ireland at Manchester, Feb 6, 1892
p242
aVEngland v Ireland at Manchester, Feb 6, 1892
p243
aVScotland v Wales at Edinburgh, Feb 2, 1889
p244
aVEngland v Ireland at Manchester, Feb 6, 1892
p245
aVScotland v England at Edinburgh, Mar 5, 1892
p246
aVScotland v England at Edinburgh, Mar 5, 1892
p247
aVScotland v England at Edinburgh, Mar 5, 1892
p248
aVWales v England at Cardiff, Jan 7, 1893
p249
aVWales v England at Cardiff, Jan 7, 1893
p250
aVWales v England at Cardiff, Jan 7, 1893
p251
aVWales v England at Cardiff, Jan 7, 1893
p252
aVWales v England at Cardiff, Jan 7, 1893
p253
aVSouth Africa v Great Britain at Kimberley, Aug 29, 1891
p254
aVWales v England at Cardiff, Jan 7, 1893
p255
aVIreland v England at Lansdowne Road, Feb 4, 1893
p256
aVIreland v England at Lansdowne Road, Feb 4, 1893
p257
aVEngland v Scotland at Leeds, Mar 4, 1893
p258
aVEngland v Scotland at Leeds, Mar 4, 1893
p259
aVEngland v Scotland at Leeds, Mar 4, 1893
p260
aVEngland v Scotland at Leeds, Mar 4, 1893
p261
aVEngland v Wales at Birkenhead, Jan 6, 1894
p262
aVEngland v Wales at Birkenhead, Jan 6, 1894
p263
aVEngland v Wales at Birkenhead, Jan 6, 1894
p264
aVEngland v Wales at Birkenhead, Jan 6, 1894
p265
aVEngland v Wales at Birkenhead, Jan 6, 1894
p266
aVEngland v Wales at Birkenhead, Jan 6, 1894
p267
aVEngland v Wales at Birkenhead, Jan 6, 1894
p268
aVEngland v Ireland at Blackheath, Feb 3, 1894
p269
aVScotland v England at Edinburgh, Mar 17, 1894
p270
aVScotland v England at Edinburgh, Mar 17, 1894
p271
aVScotland v England at Edinburgh, Mar 17, 1894
p272
aVWales v England at Swansea, Jan 5, 1895
p273
aVWales v England at Swansea, Jan 5, 1895
p274
aVWales v England at Swansea, Jan 5, 1895
p275
aVWales v England at Swansea, Jan 5, 1895
p276
aVWales v England at Swansea, Jan 5, 1895
p277
aVWales v England at Swansea, Jan 5, 1895
p278
aVWales v England at Swansea, Jan 5, 1895
p279
aVWales v England at Swansea, Jan 5, 1895
p280
aVWales v England at Swansea, Jan 5, 1895
p281
aVWales v England at Swansea, Jan 5, 1895
p282
aVEngland v Scotland at Richmond, Mar 9, 1895
p283
aVEngland v Wales at Blackheath, Jan 4, 1896
p284
aVEngland v Wales at Blackheath, Jan 4, 1896
p285
aVEngland v Wales at Blackheath, Jan 4, 1896
p286
aVEngland v Wales at Blackheath, Jan 4, 1896
p287
aVEngland v Wales at Blackheath, Jan 4, 1896
p288
aVEngland v Wales at Blackheath, Jan 4, 1896
p289
aVEngland v Wales at Blackheath, Jan 4, 1896
p290
aVScotland v England at Glasgow, Mar 14, 1896
p291
aVScotland v England at Glasgow, Mar 14, 1896
p292
aVScotland v England at Glasgow, Mar 14, 1896
p293
aVScotland v England at Glasgow, Mar 14, 1896
p294
aVWales v England at Newport, Jan 9, 1897
p295
aVWales v England at Newport, Jan 9, 1897
p296
aVWales v England at Newport, Jan 9, 1897
p297
aVWales v England at Newport, Jan 9, 1897
p298
aVWales v England at Newport, Jan 9, 1897
p299
aVWales v England at Newport, Jan 9, 1897
p300
aVWales v England at Newport, Jan 9, 1897
p301
aVWales v England at Newport, Jan 9, 1897
p302
aVWales v England at Newport, Jan 9, 1897
p303
aVIreland v England at Lansdowne Road, Feb 6, 1897
p304
aVIreland v England at Lansdowne Road, Feb 6, 1897
p305
aVIreland v England at Lansdowne Road, Feb 6, 1897
p306
aVIreland v England at Lansdowne Road, Feb 6, 1897
p307
aVEngland v Scotland at Manchester, Mar 13, 1897
p308
aVEngland v Scotland at Manchester, Mar 13, 1897
p309
aVSouth Africa v Great Britain at Port Elizabeth, Jul 30, 1896
p310
aVEngland v Ireland at Richmond, Feb 5, 1898
p311
aVEngland v Ireland at Richmond, Feb 5, 1898
p312
aVEngland v Ireland at Richmond, Feb 5, 1898
p313
aVEngland v Ireland at Richmond, Feb 5, 1898
p314
aVEngland v Ireland at Richmond, Feb 5, 1898
p315
aVEngland v Ireland at Richmond, Feb 5, 1898
p316
aVScotland v England at Edinburgh, Mar 12, 1898
p317
aVScotland v England at Edinburgh, Mar 12, 1898
p318
aVSouth Africa v Great Britain at Port Elizabeth, Jul 30, 1891
p319
aVScotland v England at Edinburgh, Mar 12, 1898
p320
aVScotland v England at Edinburgh, Mar 12, 1898
p321
aVScotland v England at Edinburgh, Mar 12, 1898
p322
aVScotland v England at Edinburgh, Mar 12, 1898
p323
aVEngland v Wales at Blackheath, Apr 2, 1898
p324
aVWales v England at Swansea, Jan 7, 1899
p325
aVWales v England at Swansea, Jan 7, 1899
p326
aVWales v England at Swansea, Jan 7, 1899
p327
aVWales v England at Swansea, Jan 7, 1899
p328
aVWales v England at Swansea, Jan 7, 1899
p329
aVWales v England at Swansea, Jan 7, 1899
p330
aVSouth Africa v Great Britain at Port Elizabeth, Jul 30, 1896
p331
aVIreland v England at Lansdowne Road, Feb 4, 1899
p332
aVIreland v England at Lansdowne Road, Feb 4, 1899
p333
aVIreland v England at Lansdowne Road, Feb 4, 1899
p334
aVEngland v Scotland at Blackheath, Mar 11, 1899
p335
aVEngland v Scotland at Blackheath, Mar 11, 1899
p336
aVEngland v Scotland at Blackheath, Mar 11, 1899
p337
aVEngland v Scotland at Blackheath, Mar 11, 1899
p338
aVEngland v Wales at Gloucester, Jan 6, 1900
p339
aVEngland v Wales at Gloucester, Jan 6, 1900
p340
aVEngland v Wales at Gloucester, Jan 6, 1900
p341
aVEngland v Wales at Gloucester, Jan 6, 1900
p342
aVEngland v Wales at Gloucester, Jan 6, 1900
p343
aVEngland v Wales at Gloucester, Jan 6, 1900
p344
aVEngland v Wales at Gloucester, Jan 6, 1900
p345
aVEngland v Wales at Gloucester, Jan 6, 1900
p346
aVAustralia v Great Britain at Sydney, Jun 24, 1899
p347
aVEngland v Wales at Gloucester, Jan 6, 1900
p348
aVAustralia v Great Britain at Sydney, Aug 5, 1899
p349
aVEngland v Wales at Gloucester, Jan 6, 1900
p350
aVEngland v Wales at Gloucester, Jan 6, 1900
p351
aVEngland v Ireland at Richmond, Feb 3, 1900
p352
aVEngland v Ireland at Richmond, Feb 3, 1900
p353
aVSouth Africa v Great Britain at Port Elizabeth, Jul 30, 1896
p354
aVScotland v England at Inverleith, Mar 10, 1900
p355
aVWales v England at Cardiff, Jan 5, 1901
p356
aVWales v England at Cardiff, Jan 5, 1901
p357
aVWales v England at Cardiff, Jan 5, 1901
p358
aVWales v England at Cardiff, Jan 5, 1901
p359
aVWales v England at Cardiff, Jan 5, 1901
p360
aVWales v England at Cardiff, Jan 5, 1901
p361
aVWales v England at Cardiff, Jan 5, 1901
p362
aVWales v England at Cardiff, Jan 5, 1901
p363
aVWales v England at Cardiff, Jan 5, 1901
p364
aVWales v England at Cardiff, Jan 5, 1901
p365
aVIreland v England at Lansdowne Road, Feb 9, 1901
p366
aVIreland v England at Lansdowne Road, Feb 9, 1901
p367
aVEngland v Scotland at Blackheath, Mar 9, 1901
p368
aVEngland v Scotland at Blackheath, Mar 9, 1901
p369
aVEngland v Scotland at Blackheath, Mar 9, 1901
p370
aVEngland v Scotland at Blackheath, Mar 9, 1901
p371
aVEngland v Scotland at Blackheath, Mar 9, 1901
p372
aVEngland v Scotland at Blackheath, Mar 9, 1901
p373
aVEngland v Wales at Blackheath, Jan 11, 1902
p374
aVEngland v Wales at Blackheath, Jan 11, 1902
p375
aVEngland v Wales at Blackheath, Jan 11, 1902
p376
aVEngland v Wales at Blackheath, Jan 11, 1902
p377
aVEngland v Wales at Blackheath, Jan 11, 1902
p378
aVEngland v Wales at Blackheath, Jan 11, 1902
p379
aVEngland v Wales at Blackheath, Jan 11, 1902
p380
aVEngland v Wales at Blackheath, Jan 11, 1902
p381
aVEngland v Ireland at Leicester, Feb 8, 1902
p382
aVScotland v England at Inverleith, Mar 15, 1902
p383
aVWales v England at Swansea, Jan 10, 1903
p384
aVWales v England at Swansea, Jan 10, 1903
p385
aVWales v England at Swansea, Jan 10, 1903
p386
aVWales v England at Swansea, Jan 10, 1903
p387
aVWales v England at Swansea, Jan 10, 1903
p388
aVWales v England at Swansea, Jan 10, 1903
p389
aVIreland v England at Lansdowne Road, Feb 14, 1903
p390
aVIreland v England at Lansdowne Road, Feb 14, 1903
p391
aVEngland v Scotland at Richmond, Mar 21, 1903
p392
aVEngland v Scotland at Richmond, Mar 21, 1903
p393
aVEngland v Wales at Leicester, Jan 9, 1904
p394
aVSouth Africa v Great Britain at Johannesburg, Aug 26, 1903
p395
aVEngland v Wales at Leicester, Jan 9, 1904
p396
aVEngland v Wales at Leicester, Jan 9, 1904
p397
aVEngland v Wales at Leicester, Jan 9, 1904
p398
aVEngland v Wales at Leicester, Jan 9, 1904
p399
aVSouth Africa v Great Britain at Johannesburg, Aug 26, 1903
p400
aVSouth Africa v Great Britain at Johannesburg, Aug 26, 1903
p401
aVWales v England at Cardiff, Jan 14, 1905
p402
aVWales v England at Cardiff, Jan 14, 1905
p403
aVWales v England at Cardiff, Jan 14, 1905
p404
aVWales v England at Cardiff, Jan 14, 1905
p405
aVIreland v England at Cork, Feb 11, 1905
p406
aVIreland v England at Cork, Feb 11, 1905
p407
aVIreland v England at Cork, Feb 11, 1905
p408
aVAustralia v Great Britain at Sydney, Jul 2, 1904
p409
aVIreland v England at Cork, Feb 11, 1905
p410
aVEngland v Scotland at Richmond, Mar 18, 1905
p411
aVEngland v Scotland at Richmond, Mar 18, 1905
p412
aVEngland v Scotland at Richmond, Mar 18, 1905
p413
aVEngland v New Zealand at Crystal Palace, Dec 2, 1905
p414
aVEngland v New Zealand at Crystal Palace, Dec 2, 1905
p415
aVEngland v New Zealand at Crystal Palace, Dec 2, 1905
p416
aVEngland v New Zealand at Crystal Palace, Dec 2, 1905
p417
aVEngland v New Zealand at Crystal Palace, Dec 2, 1905
p418
aVEngland v New Zealand at Crystal Palace, Dec 2, 1905
p419
aVEngland v New Zealand at Crystal Palace, Dec 2, 1905
p420
aVEngland v New Zealand at Crystal Palace, Dec 2, 1905
p421
aVEngland v Wales at Richmond, Jan 13, 1906
p422
aVEngland v Wales at Richmond, Jan 13, 1906
p423
aVEngland v Wales at Richmond, Jan 13, 1906
p424
aVEngland v Wales at Richmond, Jan 13, 1906
p425
aVEngland v Wales at Richmond, Jan 13, 1906
p426
aVEngland v Wales at Richmond, Jan 13, 1906
p427
aVEngland v Wales at Richmond, Jan 13, 1906
p428
aVEngland v Ireland at Leicester, Feb 10, 1906
p429
aVEngland v Ireland at Leicester, Feb 10, 1906
p430
aVEngland v Ireland at Leicester, Feb 10, 1906
p431
aVScotland v England at Inverleith, Mar 17, 1906
p432
aVScotland v England at Inverleith, Mar 17, 1906
p433
aVScotland v England at Inverleith, Mar 17, 1906
p434
aVScotland v England at Inverleith, Mar 17, 1906
p435
aVFrance v England at Parc des Princes, Mar 22, 1906
p436
aVEngland v South Africa at Crystal Palace, Dec 8, 1906
p437
aVEngland v South Africa at Crystal Palace, Dec 8, 1906
p438
aVEngland v France at Richmond, Jan 5, 1907
p439
aVEngland v France at Richmond, Jan 5, 1907
p440
aVEngland v France at Richmond, Jan 5, 1907
p441
aVEngland v France at Richmond, Jan 5, 1907
p442
aVEngland v France at Richmond, Jan 5, 1907
p443
aVEngland v France at Richmond, Jan 5, 1907
p444
aVEngland v France at Richmond, Jan 5, 1907
p445
aVWales v England at Swansea, Jan 12, 1907
p446
aVIreland v England at Lansdowne Road, Feb 9, 1907
p447
aVIreland v England at Lansdowne Road, Feb 9, 1907
p448
aVIreland v England at Lansdowne Road, Feb 9, 1907
p449
aVEngland v Scotland at Blackheath, Mar 16, 1907
p450
aVEngland v Scotland at Blackheath, Mar 16, 1907
p451
aVEngland v Scotland at Blackheath, Mar 16, 1907
p452
aVFrance v England at Colombes, Jan 1, 1908
p453
aVFrance v England at Colombes, Jan 1, 1908
p454
aVFrance v England at Colombes, Jan 1, 1908
p455
aVFrance v England at Colombes, Jan 1, 1908
p456
aVFrance v England at Colombes, Jan 1, 1908
p457
aVFrance v England at Colombes, Jan 1, 1908
p458
aVFrance v England at Colombes, Jan 1, 1908
p459
aVEngland v Wales at Bristol, Jan 18, 1908
p460
aVEngland v Wales at Bristol, Jan 18, 1908
p461
aVEngland v Ireland at Richmond, Feb 8, 1908
p462
aVScotland v England at Inverleith, Mar 21, 1908
p463
aVScotland v England at Inverleith, Mar 21, 1908
p464
aVScotland v England at Inverleith, Mar 21, 1908
p465
aVScotland v England at Inverleith, Mar 21, 1908
p466
aVScotland v England at Inverleith, Mar 21, 1908
p467
aVEngland v Australia at Blackheath, Jan 9, 1909
p468
aVEngland v Australia at Blackheath, Jan 9, 1909
p469
aVEngland v Australia at Blackheath, Jan 9, 1909
p470
aVEngland v Australia at Blackheath, Jan 9, 1909
p471
aVNew Zealand v Anglo-Welsh at Dunedin, Jun 6, 1908
p472
aVEngland v Australia at Blackheath, Jan 9, 1909
p473
aVEngland v Australia at Blackheath, Jan 9, 1909
p474
aVEngland v Australia at Blackheath, Jan 9, 1909
p475
aVEngland v Australia at Blackheath, Jan 9, 1909
p476
aVEngland v Australia at Blackheath, Jan 9, 1909
p477
aVNew Zealand v Anglo-Welsh at Dunedin, Jun 6, 1908
p478
aVWales v England at Cardiff, Jan 16, 1909
p479
aVWales v England at Cardiff, Jan 16, 1909
p480
aVWales v England at Cardiff, Jan 16, 1909
p481
aVEngland v France at Leicester, Jan 30, 1909
p482
aVEngland v France at Leicester, Jan 30, 1909
p483
aVEngland v France at Leicester, Jan 30, 1909
p484
aVIreland v England at Lansdowne Road, Feb 13, 1909
p485
aVIreland v England at Lansdowne Road, Feb 13, 1909
p486
aVIreland v England at Lansdowne Road, Feb 13, 1909
p487
aVIreland v England at Lansdowne Road, Feb 13, 1909
p488
aVEngland v Scotland at Richmond, Mar 20, 1909
p489
aVEngland v Wales at Twickenham, Jan 15, 1910
p490
aVEngland v Wales at Twickenham, Jan 15, 1910
p491
aVNew Zealand v Anglo-Welsh at Auckland, Jul 25, 1908
p492
aVEngland v Wales at Twickenham, Jan 15, 1910
p493
aVEngland v Wales at Twickenham, Jan 15, 1910
p494
aVEngland v Wales at Twickenham, Jan 15, 1910
p495
aVEngland v Wales at Twickenham, Jan 15, 1910
p496
aVEngland v Wales at Twickenham, Jan 15, 1910
p497
aVEngland v Ireland at Twickenham, Feb 12, 1910
p498
aVFrance v England at Parc des Princes, Mar 3, 1910
p499
aVFrance v England at Parc des Princes, Mar 3, 1910
p500
aVFrance v England at Parc des Princes, Mar 3, 1910
p501
aVFrance v England at Parc des Princes, Mar 3, 1910
p502
aVNew Zealand v Anglo-Welsh at Dunedin, Jun 6, 1908
p503
aVFrance v England at Parc des Princes, Mar 3, 1910
p504
aVFrance v England at Parc des Princes, Mar 3, 1910
p505
aVFrance v England at Parc des Princes, Mar 3, 1910
p506
aVNew Zealand v Anglo-Welsh at Wellington, Jun 27, 1908
p507
aVScotland v England at Inverleith, Mar 19, 1910
p508
aVScotland v England at Inverleith, Mar 19, 1910
p509
aVWales v England at Swansea, Jan 21, 1911
p510
aVWales v England at Swansea, Jan 21, 1911
p511
aVWales v England at Swansea, Jan 21, 1911
p512
aVWales v England at Swansea, Jan 21, 1911
p513
aVWales v England at Swansea, Jan 21, 1911
p514
aVSouth Africa v Great Britain at Johannesburg, Aug 6, 1910
p515
aVEngland v Scotland at Twickenham, Mar 18, 1911
p516
aVEngland v Wales at Twickenham, Jan 20, 1912
p517
aVEngland v Wales at Twickenham, Jan 20, 1912
p518
aVEngland v Wales at Twickenham, Jan 20, 1912
p519
aVEngland v Wales at Twickenham, Jan 20, 1912
p520
aVEngland v Wales at Twickenham, Jan 20, 1912
p521
aVEngland v Wales at Twickenham, Jan 20, 1912
p522
aVFrance v England at Parc des Princes, Apr 8, 1912
p523
aVFrance v England at Parc des Princes, Apr 8, 1912
p524
aVSouth Africa v Great Britain at Johannesburg, Aug 6, 1910
p525
aVEngland v South Africa at Twickenham, Jan 4, 1913
p526
aVEngland v South Africa at Twickenham, Jan 4, 1913
p527
aVEngland v South Africa at Twickenham, Jan 4, 1913
p528
aVEngland v South Africa at Twickenham, Jan 4, 1913
p529
aVEngland v South Africa at Twickenham, Jan 4, 1913
p530
aVWales v England at Cardiff, Jan 18, 1913
p531
aVWales v England at Cardiff, Jan 18, 1913
p532
aVIreland v England at Lansdowne Road, Feb 8, 1913
p533
aVIreland v England at Lansdowne Road, Feb 8, 1913
p534
aVEngland v Scotland at Twickenham, Mar 15, 1913
p535
aVEngland v Wales at Twickenham, Jan 17, 1914
p536
aVEngland v Wales at Twickenham, Jan 17, 1914
p537
aVEngland v Wales at Twickenham, Jan 17, 1914
p538
aVEngland v Wales at Twickenham, Jan 17, 1914
p539
aVEngland v Wales at Twickenham, Jan 17, 1914
p540
aVEngland v Wales at Twickenham, Jan 17, 1914
p541
aVEngland v Ireland at Twickenham, Feb 14, 1914
p542
aVFrance v England at Colombes, Apr 13, 1914
p543
aVFrance v England at Colombes, Apr 13, 1914
p544
aVFrance v England at Colombes, Apr 13, 1914
p545
aVWales v England at Swansea, Jan 17, 1920
p546
aVWales v England at Swansea, Jan 17, 1920
p547
aVWales v England at Swansea, Jan 17, 1920
p548
aVWales v England at Swansea, Jan 17, 1920
p549
aVWales v England at Swansea, Jan 17, 1920
p550
aVWales v England at Swansea, Jan 17, 1920
p551
aVWales v England at Swansea, Jan 17, 1920
p552
aVWales v England at Swansea, Jan 17, 1920
p553
aVWales v England at Swansea, Jan 17, 1920
p554
aVWales v England at Swansea, Jan 17, 1920
p555
aVWales v England at Swansea, Jan 17, 1920
p556
aVEngland v France at Twickenham, Jan 31, 1920
p557
aVEngland v France at Twickenham, Jan 31, 1920
p558
aVEngland v France at Twickenham, Jan 31, 1920
p559
aVEngland v France at Twickenham, Jan 31, 1920
p560
aVEngland v France at Twickenham, Jan 31, 1920
p561
aVIreland v England at Lansdowne Road, Feb 14, 1920
p562
aVIreland v England at Lansdowne Road, Feb 14, 1920
p563
aVIreland v England at Lansdowne Road, Feb 14, 1920
p564
aVEngland v Scotland at Twickenham, Mar 20, 1920
p565
aVEngland v Scotland at Twickenham, Mar 20, 1920
p566
aVEngland v Wales at Twickenham, Jan 15, 1921
p567
aVEngland v Wales at Twickenham, Jan 15, 1921
p568
aVScotland v England at Inverleith, Mar 19, 1921
p569
aVScotland v England at Inverleith, Mar 19, 1921
p570
aVFrance v England at Colombes, Mar 28, 1921
p571
aVWales v England at Cardiff, Jan 21, 1922
p572
aVWales v England at Cardiff, Jan 21, 1922
p573
aVIreland v England at Lansdowne Road, Feb 11, 1922
p574
aVIreland v England at Lansdowne Road, Feb 11, 1922
p575
aVIreland v England at Lansdowne Road, Feb 11, 1922
p576
aVIreland v England at Lansdowne Road, Feb 11, 1922
p577
aVIreland v England at Lansdowne Road, Feb 11, 1922
p578
aVEngland v Scotland at Twickenham, Mar 18, 1922
p579
aVEngland v Scotland at Twickenham, Mar 18, 1922
p580
aVEngland v Scotland at Twickenham, Mar 18, 1922
p581
aVEngland v Wales at Twickenham, Jan 20, 1923
p582
aVEngland v Wales at Twickenham, Jan 20, 1923
p583
aVEngland v Ireland at Leicester, Feb 10, 1923
p584
aVScotland v England at Inverleith, Mar 17, 1923
p585
aVScotland v England at Inverleith, Mar 17, 1923
p586
aVWales v England at Swansea, Jan 19, 1924
p587
aVWales v England at Swansea, Jan 19, 1924
p588
aVWales v England at Swansea, Jan 19, 1924
p589
aVWales v England at Swansea, Jan 19, 1924
p590
aVWales v England at Swansea, Jan 19, 1924
p591
aVIreland v England at Belfast, Feb 9, 1924
p592
aVIreland v England at Belfast, Feb 9, 1924
p593
aVEngland v New Zealand at Twickenham, Jan 3, 1925
p594
aVEngland v New Zealand at Twickenham, Jan 3, 1925
p595
aVEngland v New Zealand at Twickenham, Jan 3, 1925
p596
aVEngland v New Zealand at Twickenham, Jan 3, 1925
p597
aVEngland v Wales at Twickenham, Jan 17, 1925
p598
aVEngland v Wales at Twickenham, Jan 17, 1925
p599
aVEngland v Wales at Twickenham, Jan 17, 1925
p600
aVEngland v Ireland at Twickenham, Feb 14, 1925
p601
aVEngland v Ireland at Twickenham, Feb 14, 1925
p602
aVScotland v England at Murrayfield, Mar 21, 1925
p603
aVFrance v England at Colombes, Apr 13, 1925
p604
aVWales v England at Cardiff, Jan 16, 1926
p605
aVWales v England at Cardiff, Jan 16, 1926
p606
aVWales v England at Cardiff, Jan 16, 1926
p607
aVWales v England at Cardiff, Jan 16, 1926
p608
aVWales v England at Cardiff, Jan 16, 1926
p609
aVWales v England at Cardiff, Jan 16, 1926
p610
aVIreland v England at Lansdowne Road, Feb 13, 1926
p611
aVIreland v England at Lansdowne Road, Feb 13, 1926
p612
aVIreland v England at Lansdowne Road, Feb 13, 1926
p613
aVEngland v France at Twickenham, Feb 27, 1926
p614
aVEngland v Wales at Twickenham, Jan 15, 1927
p615
aVEngland v Wales at Twickenham, Jan 15, 1927
p616
aVEngland v Wales at Twickenham, Jan 15, 1927
p617
aVEngland v Wales at Twickenham, Jan 15, 1927
p618
aVEngland v Wales at Twickenham, Jan 15, 1927
p619
aVEngland v Ireland at Twickenham, Feb 12, 1927
p620
aVEngland v Ireland at Twickenham, Feb 12, 1927
p621
aVEngland v Ireland at Twickenham, Feb 12, 1927
p622
aVScotland v England at Murrayfield, Mar 19, 1927
p623
aVFrance v England at Colombes, Apr 2, 1927
p624
aVFrance v England at Colombes, Apr 2, 1927
p625
aVFrance v England at Colombes, Apr 2, 1927
p626
aVFrance v England at Colombes, Apr 2, 1927
p627
aVEngland v Australia at Twickenham, Jan 7, 1928
p628
aVEngland v Australia at Twickenham, Jan 7, 1928
p629
aVEngland v Australia at Twickenham, Jan 7, 1928
p630
aVEngland v Australia at Twickenham, Jan 7, 1928
p631
aVEngland v Australia at Twickenham, Jan 7, 1928
p632
aVIreland v England at Lansdowne Road, Feb 11, 1928
p633
aVIreland v England at Lansdowne Road, Feb 11, 1928
p634
aVIreland v England at Lansdowne Road, Feb 11, 1928
p635
aVEngland v Scotland at Twickenham, Mar 17, 1928
p636
aVEngland v Wales at Twickenham, Jan 19, 1929
p637
aVEngland v Wales at Twickenham, Jan 19, 1929
p638
aVEngland v Wales at Twickenham, Jan 19, 1929
p639
aVEngland v Wales at Twickenham, Jan 19, 1929
p640
aVSouth Africa v Great Britain at Durban, Aug 16, 1924
p641
aVEngland v Wales at Twickenham, Jan 19, 1929
p642
aVEngland v Wales at Twickenham, Jan 19, 1929
p643
aVScotland v England at Murrayfield, Mar 16, 1929
p644
aVScotland v England at Murrayfield, Mar 16, 1929
p645
aVScotland v England at Murrayfield, Mar 16, 1929
p646
aVScotland v England at Murrayfield, Mar 16, 1929
p647
aVScotland v England at Murrayfield, Mar 16, 1929
p648
aVFrance v England at Colombes, Apr 1, 1929
p649
aVFrance v England at Colombes, Apr 1, 1929
p650
aVFrance v England at Colombes, Apr 1, 1929
p651
aVFrance v England at Colombes, Apr 1, 1929
p652
aVFrance v England at Colombes, Apr 1, 1929
p653
aVWales v England at Cardiff, Jan 18, 1930
p654
aVWales v England at Cardiff, Jan 18, 1930
p655
aVWales v England at Cardiff, Jan 18, 1930
p656
aVWales v England at Cardiff, Jan 18, 1930
p657
aVWales v England at Cardiff, Jan 18, 1930
p658
aVWales v England at Cardiff, Jan 18, 1930
p659
aVWales v England at Cardiff, Jan 18, 1930
p660
aVWales v England at Cardiff, Jan 18, 1930
p661
aVWales v England at Cardiff, Jan 18, 1930
p662
aVIreland v England at Lansdowne Road, Feb 8, 1930
p663
aVEngland v Scotland at Twickenham, Mar 15, 1930
p664
aVEngland v Scotland at Twickenham, Mar 15, 1930
p665
aVEngland v Scotland at Twickenham, Mar 15, 1930
p666
aVEngland v Wales at Twickenham, Jan 17, 1931
p667
aVEngland v Wales at Twickenham, Jan 17, 1931
p668
aVEngland v Wales at Twickenham, Jan 17, 1931
p669
aVEngland v Wales at Twickenham, Jan 17, 1931
p670
aVEngland v Wales at Twickenham, Jan 17, 1931
p671
aVEngland v Wales at Twickenham, Jan 17, 1931
p672
aVEngland v Wales at Twickenham, Jan 17, 1931
p673
aVEngland v Wales at Twickenham, Jan 17, 1931
p674
aVEngland v Ireland at Twickenham, Feb 14, 1931
p675
aVEngland v Ireland at Twickenham, Feb 14, 1931
p676
aVEngland v Ireland at Twickenham, Feb 14, 1931
p677
aVEngland v Ireland at Twickenham, Feb 14, 1931
p678
aVEngland v Ireland at Twickenham, Feb 14, 1931
p679
aVEngland v Ireland at Twickenham, Feb 14, 1931
p680
aVScotland v England at Murrayfield, Mar 21, 1931
p681
aVScotland v England at Murrayfield, Mar 21, 1931
p682
aVScotland v England at Murrayfield, Mar 21, 1931
p683
aVEngland v South Africa at Twickenham, Jan 2, 1932
p684
aVEngland v South Africa at Twickenham, Jan 2, 1932
p685
aVEngland v South Africa at Twickenham, Jan 2, 1932
p686
aVEngland v South Africa at Twickenham, Jan 2, 1932
p687
aVNew Zealand v Great Britain at Dunedin, Jun 21, 1930
p688
aVEngland v South Africa at Twickenham, Jan 2, 1932
p689
aVEngland v South Africa at Twickenham, Jan 2, 1932
p690
aVEngland v South Africa at Twickenham, Jan 2, 1932
p691
aVEngland v South Africa at Twickenham, Jan 2, 1932
p692
aVWales v England at Swansea, Jan 16, 1932
p693
aVIreland v England at Lansdowne Road, Feb 13, 1932
p694
aVIreland v England at Lansdowne Road, Feb 13, 1932
p695
aVIreland v England at Lansdowne Road, Feb 13, 1932
p696
aVIreland v England at Lansdowne Road, Feb 13, 1932
p697
aVEngland v Scotland at Twickenham, Mar 19, 1932
p698
aVEngland v Wales at Twickenham, Jan 21, 1933
p699
aVEngland v Wales at Twickenham, Jan 21, 1933
p700
aVEngland v Wales at Twickenham, Jan 21, 1933
p701
aVEngland v Ireland at Twickenham, Feb 11, 1933
p702
aVEngland v Ireland at Twickenham, Feb 11, 1933
p703
aVEngland v Ireland at Twickenham, Feb 11, 1933
p704
aVWales v England at Cardiff, Jan 20, 1934
p705
aVWales v England at Cardiff, Jan 20, 1934
p706
aVWales v England at Cardiff, Jan 20, 1934
p707
aVWales v England at Cardiff, Jan 20, 1934
p708
aVWales v England at Cardiff, Jan 20, 1934
p709
aVWales v England at Cardiff, Jan 20, 1934
p710
aVWales v England at Cardiff, Jan 20, 1934
p711
aVEngland v Scotland at Twickenham, Mar 17, 1934
p712
aVEngland v Wales at Twickenham, Jan 19, 1935
p713
aVEngland v Wales at Twickenham, Jan 19, 1935
p714
aVEngland v Wales at Twickenham, Jan 19, 1935
p715
aVEngland v Wales at Twickenham, Jan 19, 1935
p716
aVEngland v Wales at Twickenham, Jan 19, 1935
p717
aVEngland v Wales at Twickenham, Jan 19, 1935
p718
aVEngland v Wales at Twickenham, Jan 19, 1935
p719
aVEngland v Wales at Twickenham, Jan 19, 1935
p720
aVEngland v Wales at Twickenham, Jan 19, 1935
p721
aVEngland v Ireland at Twickenham, Feb 9, 1935
p722
aVScotland v England at Murrayfield, Mar 16, 1935
p723
aVEngland v New Zealand at Twickenham, Jan 4, 1936
p724
aVEngland v New Zealand at Twickenham, Jan 4, 1936
p725
aVEngland v New Zealand at Twickenham, Jan 4, 1936
p726
aVIreland v England at Lansdowne Road, Feb 8, 1936
p727
aVEngland v Scotland at Twickenham, Mar 21, 1936
p728
aVEngland v Wales at Twickenham, Jan 16, 1937
p729
aVEngland v Wales at Twickenham, Jan 16, 1937
p730
aVEngland v Wales at Twickenham, Jan 16, 1937
p731
aVEngland v Wales at Twickenham, Jan 16, 1937
p732
aVEngland v Wales at Twickenham, Jan 16, 1937
p733
aVEngland v Wales at Twickenham, Jan 16, 1937
p734
aVEngland v Wales at Twickenham, Jan 16, 1937
p735
aVScotland v England at Murrayfield, Mar 20, 1937
p736
aVScotland v England at Murrayfield, Mar 20, 1937
p737
aVScotland v England at Murrayfield, Mar 20, 1937
p738
aVWales v England at Cardiff, Jan 15, 1938
p739
aVWales v England at Cardiff, Jan 15, 1938
p740
aVIreland v England at Lansdowne Road, Feb 12, 1938
p741
aVIreland v England at Lansdowne Road, Feb 12, 1938
p742
aVEngland v Scotland at Twickenham, Mar 19, 1938
p743
aVEngland v Wales at Twickenham, Jan 21, 1939
p744
aVEngland v Wales at Twickenham, Jan 21, 1939
p745
aVEngland v Wales at Twickenham, Jan 21, 1939
p746
aVEngland v Wales at Twickenham, Jan 21, 1939
p747
aVEngland v Wales at Twickenham, Jan 21, 1939
p748
aVEngland v Wales at Twickenham, Jan 21, 1939
p749
aVEngland v Wales at Twickenham, Jan 21, 1939
p750
aVEngland v Wales at Twickenham, Jan 21, 1939
p751
aVScotland v England at Murrayfield, Mar 18, 1939
p752
aVScotland v England at Murrayfield, Mar 18, 1939
p753
aVWales v England at Cardiff, Jan 18, 1947
p754
aVWales v England at Cardiff, Jan 18, 1947
p755
aVWales v England at Cardiff, Jan 18, 1947
p756
aVWales v England at Cardiff, Jan 18, 1947
p757
aVWales v England at Cardiff, Jan 18, 1947
p758
aVWales v England at Cardiff, Jan 18, 1947
p759
aVWales v England at Cardiff, Jan 18, 1947
p760
aVWales v England at Cardiff, Jan 18, 1947
p761
aVWales v England at Cardiff, Jan 18, 1947
p762
aVWales v England at Cardiff, Jan 18, 1947
p763
aVWales v England at Cardiff, Jan 18, 1947
p764
aVWales v England at Cardiff, Jan 18, 1947
p765
aVWales v England at Cardiff, Jan 18, 1947
p766
aVWales v England at Cardiff, Jan 18, 1947
p767
aVIreland v England at Lansdowne Road, Feb 8, 1947
p768
aVEngland v Scotland at Twickenham, Mar 15, 1947
p769
aVEngland v Scotland at Twickenham, Mar 15, 1947
p770
aVEngland v Scotland at Twickenham, Mar 15, 1947
p771
aVEngland v Scotland at Twickenham, Mar 15, 1947
p772
aVEngland v France at Twickenham, Apr 19, 1947
p773
aVEngland v France at Twickenham, Apr 19, 1947
p774
aVEngland v France at Twickenham, Apr 19, 1947
p775
aVEngland v Australia at Twickenham, Jan 3, 1948
p776
aVEngland v Australia at Twickenham, Jan 3, 1948
p777
aVEngland v Australia at Twickenham, Jan 3, 1948
p778
aVEngland v Australia at Twickenham, Jan 3, 1948
p779
aVEngland v Wales at Twickenham, Jan 17, 1948
p780
aVEngland v Ireland at Twickenham, Feb 14, 1948
p781
aVEngland v Ireland at Twickenham, Feb 14, 1948
p782
aVScotland v England at Murrayfield, Mar 20, 1948
p783
aVScotland v England at Murrayfield, Mar 20, 1948
p784
aVFrance v England at Colombes, Mar 29, 1948
p785
aVFrance v England at Colombes, Mar 29, 1948
p786
aVFrance v England at Colombes, Mar 29, 1948
p787
aVWales v England at Cardiff, Jan 15, 1949
p788
aVWales v England at Cardiff, Jan 15, 1949
p789
aVWales v England at Cardiff, Jan 15, 1949
p790
aVWales v England at Cardiff, Jan 15, 1949
p791
aVWales v England at Cardiff, Jan 15, 1949
p792
aVWales v England at Cardiff, Jan 15, 1949
p793
aVWales v England at Cardiff, Jan 15, 1949
p794
aVWales v England at Cardiff, Jan 15, 1949
p795
aVWales v England at Cardiff, Jan 15, 1949
p796
aVIreland v England at Lansdowne Road, Feb 12, 1949
p797
aVIreland v England at Lansdowne Road, Feb 12, 1949
p798
aVEngland v France at Twickenham, Feb 26, 1949
p799
aVEngland v France at Twickenham, Feb 26, 1949
p800
aVEngland v Wales at Twickenham, Jan 21, 1950
p801
aVEngland v Wales at Twickenham, Jan 21, 1950
p802
aVEngland v Wales at Twickenham, Jan 21, 1950
p803
aVEngland v Wales at Twickenham, Jan 21, 1950
p804
aVEngland v Wales at Twickenham, Jan 21, 1950
p805
aVEngland v Wales at Twickenham, Jan 21, 1950
p806
aVEngland v Wales at Twickenham, Jan 21, 1950
p807
aVEngland v Wales at Twickenham, Jan 21, 1950
p808
aVEngland v Ireland at Twickenham, Feb 11, 1950
p809
aVFrance v England at Colombes, Feb 25, 1950
p810
aVScotland v England at Murrayfield, Mar 18, 1950
p811
aVWales v England at Swansea, Jan 20, 1951
p812
aVWales v England at Swansea, Jan 20, 1951
p813
aVWales v England at Swansea, Jan 20, 1951
p814
aVWales v England at Swansea, Jan 20, 1951
p815
aVWales v England at Swansea, Jan 20, 1951
p816
aVWales v England at Swansea, Jan 20, 1951
p817
aVWales v England at Swansea, Jan 20, 1951
p818
aVWales v England at Swansea, Jan 20, 1951
p819
aVWales v England at Swansea, Jan 20, 1951
p820
aVWales v England at Swansea, Jan 20, 1951
p821
aVIreland v England at Lansdowne Road, Feb 10, 1951
p822
aVIreland v England at Lansdowne Road, Feb 10, 1951
p823
aVIreland v England at Lansdowne Road, Feb 10, 1951
p824
aVEngland v Scotland at Twickenham, Mar 17, 1951
p825
aVEngland v Scotland at Twickenham, Mar 17, 1951
p826
aVEngland v South Africa at Twickenham, Jan 5, 1952
p827
aVEngland v South Africa at Twickenham, Jan 5, 1952
p828
aVEngland v South Africa at Twickenham, Jan 5, 1952
p829
aVEngland v South Africa at Twickenham, Jan 5, 1952
p830
aVEngland v Wales at Twickenham, Jan 19, 1952
p831
aVScotland v England at Murrayfield, Mar 15, 1952
p832
aVEngland v Ireland at Twickenham, Mar 29, 1952
p833
aVWales v England at Cardiff, Jan 17, 1953
p834
aVWales v England at Cardiff, Jan 17, 1953
p835
aVEngland v France at Twickenham, Feb 28, 1953
p836
aVEngland v France at Twickenham, Feb 28, 1953
p837
aVEngland v Scotland at Twickenham, Mar 21, 1953
p838
aVEngland v Wales at Twickenham, Jan 16, 1954
p839
aVEngland v Wales at Twickenham, Jan 16, 1954
p840
aVEngland v Wales at Twickenham, Jan 16, 1954
p841
aVEngland v Wales at Twickenham, Jan 16, 1954
p842
aVEngland v Wales at Twickenham, Jan 16, 1954
p843
aVEngland v Wales at Twickenham, Jan 16, 1954
p844
aVScotland v England at Murrayfield, Mar 20, 1954
p845
aVScotland v England at Murrayfield, Mar 20, 1954
p846
aVScotland v England at Murrayfield, Mar 20, 1954
p847
aVScotland v England at Murrayfield, Mar 20, 1954
p848
aVFrance v England at Colombes, Apr 10, 1954
p849
aVWales v England at Cardiff, Jan 22, 1955
p850
aVWales v England at Cardiff, Jan 22, 1955
p851
aVWales v England at Cardiff, Jan 22, 1955
p852
aVWales v England at Cardiff, Jan 22, 1955
p853
aVWales v England at Cardiff, Jan 22, 1955
p854
aVWales v England at Cardiff, Jan 22, 1955
p855
aVEngland v France at Twickenham, Feb 26, 1955
p856
aVEngland v France at Twickenham, Feb 26, 1955
p857
aVEngland v France at Twickenham, Feb 26, 1955
p858
aVEngland v Scotland at Twickenham, Mar 19, 1955
p859
aVEngland v Wales at Twickenham, Jan 21, 1956
p860
aVEngland v Wales at Twickenham, Jan 21, 1956
p861
aVEngland v Wales at Twickenham, Jan 21, 1956
p862
aVEngland v Wales at Twickenham, Jan 21, 1956
p863
aVEngland v Wales at Twickenham, Jan 21, 1956
p864
aVSouth Africa v British and Irish Lions at Johannesburg, Aug 6, 1955
p865
aVEngland v Wales at Twickenham, Jan 21, 1956
p866
aVEngland v Wales at Twickenham, Jan 21, 1956
p867
aVEngland v Wales at Twickenham, Jan 21, 1956
p868
aVEngland v Wales at Twickenham, Jan 21, 1956
p869
aVWales v England at Cardiff, Jan 19, 1957
p870
aVIreland v England at Lansdowne Road, Feb 9, 1957
p871
aVEngland v Wales at Twickenham, Jan 18, 1958
p872
aVEngland v Wales at Twickenham, Jan 18, 1958
p873
aVEngland v Australia at Twickenham, Feb 1, 1958
p874
aVEngland v Australia at Twickenham, Feb 1, 1958
p875
aVEngland v Ireland at Twickenham, Feb 8, 1958
p876
aVFrance v England at Colombes, Mar 1, 1958
p877
aVFrance v England at Colombes, Mar 1, 1958
p878
aVWales v England at Cardiff, Jan 17, 1959
p879
aVWales v England at Cardiff, Jan 17, 1959
p880
aVWales v England at Cardiff, Jan 17, 1959
p881
aVWales v England at Cardiff, Jan 17, 1959
p882
aVWales v England at Cardiff, Jan 17, 1959
p883
aVWales v England at Cardiff, Jan 17, 1959
p884
aVIreland v England at Lansdowne Road, Feb 14, 1959
p885
aVEngland v France at Twickenham, Feb 28, 1959
p886
aVEngland v Wales at Twickenham, Jan 16, 1960
p887
aVEngland v Wales at Twickenham, Jan 16, 1960
p888
aVEngland v Wales at Twickenham, Jan 16, 1960
p889
aVEngland v Wales at Twickenham, Jan 16, 1960
p890
aVEngland v Wales at Twickenham, Jan 16, 1960
p891
aVEngland v Wales at Twickenham, Jan 16, 1960
p892
aVEngland v Wales at Twickenham, Jan 16, 1960
p893
aVNew Zealand v British and Irish Lions at Wellington, Aug 15, 1959
p894
aVEngland v South Africa at Twickenham, Jan 7, 1961
p895
aVWales v England at Cardiff, Jan 21, 1961
p896
aVWales v England at Cardiff, Jan 21, 1961
p897
aVIreland v England at Lansdowne Road, Feb 11, 1961
p898
aVIreland v England at Lansdowne Road, Feb 11, 1961
p899
aVIreland v England at Lansdowne Road, Feb 11, 1961
p900
aVEngland v France at Twickenham, Feb 25, 1961
p901
aVEngland v Wales at Twickenham, Jan 20, 1962
p902
aVEngland v Wales at Twickenham, Jan 20, 1962
p903
aVEngland v Wales at Twickenham, Jan 20, 1962
p904
aVScotland v England at Murrayfield, Mar 17, 1962
p905
aVScotland v England at Murrayfield, Mar 17, 1962
p906
aVScotland v England at Murrayfield, Mar 17, 1962
p907
aVScotland v England at Murrayfield, Mar 17, 1962
p908
aVWales v England at Cardiff, Jan 19, 1963
p909
aVWales v England at Cardiff, Jan 19, 1963
p910
aVWales v England at Cardiff, Jan 19, 1963
p911
aVWales v England at Cardiff, Jan 19, 1963
p912
aVWales v England at Cardiff, Jan 19, 1963
p913
aVWales v England at Cardiff, Jan 19, 1963
p914
aVWales v England at Cardiff, Jan 19, 1963
p915
aVEngland v France at Twickenham, Feb 23, 1963
p916
aVEngland v France at Twickenham, Feb 23, 1963
p917
aVNew Zealand v England at Auckland, May 25, 1963
p918
aVNew Zealand v England at Auckland, May 25, 1963
p919
aVNew Zealand v England at Auckland, May 25, 1963
p920
aVEngland v New Zealand at Twickenham, Jan 4, 1964
p921
aVEngland v Wales at Twickenham, Jan 18, 1964
p922
aVEngland v Wales at Twickenham, Jan 18, 1964
p923
aVEngland v Ireland at Twickenham, Feb 8, 1964
p924
aVEngland v Ireland at Twickenham, Feb 8, 1964
p925
aVFrance v England at Colombes, Feb 22, 1964
p926
aVFrance v England at Colombes, Feb 22, 1964
p927
aVWales v England at Cardiff, Jan 16, 1965
p928
aVWales v England at Cardiff, Jan 16, 1965
p929
aVWales v England at Cardiff, Jan 16, 1965
p930
aVWales v England at Cardiff, Jan 16, 1965
p931
aVWales v England at Cardiff, Jan 16, 1965
p932
aVWales v England at Cardiff, Jan 16, 1965
p933
aVWales v England at Cardiff, Jan 16, 1965
p934
aVIreland v England at Lansdowne Road, Feb 13, 1965
p935
aVEngland v France at Twickenham, Feb 27, 1965
p936
aVEngland v Wales at Twickenham, Jan 15, 1966
p937
aVEngland v Wales at Twickenham, Jan 15, 1966
p938
aVEngland v Wales at Twickenham, Jan 15, 1966
p939
aVEngland v Wales at Twickenham, Jan 15, 1966
p940
aVEngland v Wales at Twickenham, Jan 15, 1966
p941
aVEngland v Wales at Twickenham, Jan 15, 1966
p942
aVEngland v Ireland at Twickenham, Feb 12, 1966
p943
aVEngland v Ireland at Twickenham, Feb 12, 1966
p944
aVEngland v Ireland at Twickenham, Feb 12, 1966
p945
aVEngland v Ireland at Twickenham, Feb 12, 1966
p946
aVFrance v England at Colombes, Feb 26, 1966
p947
aVScotland v England at Murrayfield, Mar 19, 1966
p948
aVScotland v England at Murrayfield, Mar 19, 1966
p949
aVEngland v Australia at Twickenham, Jan 7, 1967
p950
aVEngland v Australia at Twickenham, Jan 7, 1967
p951
aVEngland v Australia at Twickenham, Jan 7, 1967
p952
aVEngland v Australia at Twickenham, Jan 7, 1967
p953
aVIreland v England at Lansdowne Road, Feb 11, 1967
p954
aVIreland v England at Lansdowne Road, Feb 11, 1967
p955
aVIreland v England at Lansdowne Road, Feb 11, 1967
p956
aVIreland v England at Lansdowne Road, Feb 11, 1967
p957
aVIreland v England at Lansdowne Road, Feb 11, 1967
p958
aVIreland v England at Lansdowne Road, Feb 11, 1967
p959
aVEngland v Scotland at Twickenham, Mar 18, 1967
p960
aVEngland v New Zealand at Twickenham, Nov 4, 1967
p961
aVEngland v New Zealand at Twickenham, Nov 4, 1967
p962
aVEngland v Wales at Twickenham, Jan 20, 1968
p963
aVEngland v Wales at Twickenham, Jan 20, 1968
p964
aVEngland v Wales at Twickenham, Jan 20, 1968
p965
aVEngland v Wales at Twickenham, Jan 20, 1968
p966
aVEngland v Wales at Twickenham, Jan 20, 1968
p967
aVEngland v Wales at Twickenham, Jan 20, 1968
p968
aVEngland v Wales at Twickenham, Jan 20, 1968
p969
aVEngland v Wales at Twickenham, Jan 20, 1968
p970
aVFrance v England at Colombes, Feb 24, 1968
p971
aVIreland v England at Lansdowne Road, Feb 8, 1969
p972
aVIreland v England at Lansdowne Road, Feb 8, 1969
p973
aVIreland v England at Lansdowne Road, Feb 8, 1969
p974
aVIreland v England at Lansdowne Road, Feb 8, 1969
p975
aVIreland v England at Lansdowne Road, Feb 8, 1969
p976
aVEngland v Scotland at Twickenham, Mar 15, 1969
p977
aVWales v England at Cardiff, Apr 12, 1969
p978
aVEngland v South Africa at Twickenham, Dec 20, 1969
p979
aVEngland v South Africa at Twickenham, Dec 20, 1969
p980
aVEngland v South Africa at Twickenham, Dec 20, 1969
p981
aVEngland v South Africa at Twickenham, Dec 20, 1969
p982
aVEngland v South Africa at Twickenham, Dec 20, 1969
p983
aVEngland v South Africa at Twickenham, Dec 20, 1969
p984
aVEngland v Wales at Twickenham, Feb 28, 1970
p985
aVScotland v England at Murrayfield, Mar 21, 1970
p986
aVScotland v England at Murrayfield, Mar 21, 1970
p987
aVFrance v England at Colombes, Apr 18, 1970
p988
aVFrance v England at Colombes, Apr 18, 1970
p989
aVFrance v England at Colombes, Apr 18, 1970
p990
aVWales v England at Cardiff, Jan 16, 1971
p991
aVWales v England at Cardiff, Jan 16, 1971
p992
aVWales v England at Cardiff, Jan 16, 1971
p993
aVWales v England at Cardiff, Jan 16, 1971
p994
aVWales v England at Cardiff, Jan 16, 1971
p995
aVWales v England at Cardiff, Jan 16, 1971
p996
aVWales v England at Cardiff, Jan 16, 1971
p997
aVEngland v Scotland at Twickenham, Mar 20, 1971
p998
aVEngland v Scotland at Twickenham, Mar 20, 1971
p999
aVScotland v England at Murrayfield, Mar 27, 1971
p1000
aVEngland v Presidents XV at Twickenham, Apr 17, 1971
p1001
aVEngland v Presidents XV at Twickenham, Apr 17, 1971
p1002
aVEngland v Wales at Twickenham, Jan 15, 1972
p1003
aVEngland v Wales at Twickenham, Jan 15, 1972
p1004
aVEngland v Wales at Twickenham, Jan 15, 1972
p1005
aVEngland v Wales at Twickenham, Jan 15, 1972
p1006
aVEngland v Wales at Twickenham, Jan 15, 1972
p1007
aVEngland v Wales at Twickenham, Jan 15, 1972
p1008
aVFrance v England at Colombes, Feb 26, 1972
p1009
aVFrance v England at Colombes, Feb 26, 1972
p1010
aVFrance v England at Colombes, Feb 26, 1972
p1011
aVScotland v England at Murrayfield, Mar 18, 1972
p1012
aVSouth Africa v England at Johannesburg, Jun 3, 1972
p1013
aVSouth Africa v England at Johannesburg, Jun 3, 1972
p1014
aVSouth Africa v England at Johannesburg, Jun 3, 1972
p1015
aVSouth Africa v England at Johannesburg, Jun 3, 1972
p1016
aVEngland v New Zealand at Twickenham, Jan 6, 1973
p1017
aVEngland v New Zealand at Twickenham, Jan 6, 1973
p1018
aVIreland v England at Lansdowne Road, Feb 10, 1973
p1019
aVIreland v England at Lansdowne Road, Feb 10, 1973
p1020
aVEngland v France at Twickenham, Feb 24, 1973
p1021
aVEngland v France at Twickenham, Feb 24, 1973
p1022
aVEngland v Australia at Twickenham, Nov 17, 1973
p1023
aVFrance v England at Parc des Princes, Mar 2, 1974
p1024
aVEngland v Wales at Twickenham, Mar 16, 1974
p1025
aVIreland v England at Lansdowne Road, Jan 18, 1975
p1026
aVEngland v France at Twickenham, Feb 1, 1975
p1027
aVEngland v Scotland at Twickenham, Mar 15, 1975
p1028
aVAustralia v England at Sydney, May 24, 1975
p1029
aVAustralia v England at Sydney, May 24, 1975
p1030
aVAustralia v England at Sydney, May 24, 1975
p1031
aVAustralia v England at Sydney, May 24, 1975
p1032
aVAustralia v England at Sydney, May 24, 1975
p1033
aVAustralia v England at Sydney, May 24, 1975
p1034
aVAustralia v England at Brisbane, May 31, 1975
p1035
aVAustralia v England at Brisbane, May 31, 1975
p1036
aVEngland v Australia at Twickenham, Jan 3, 1976
p1037
aVEngland v Australia at Twickenham, Jan 3, 1976
p1038
aVEngland v Australia at Twickenham, Jan 3, 1976
p1039
aVEngland v Wales at Twickenham, Jan 17, 1976
p1040
aVScotland v England at Murrayfield, Feb 21, 1976
p1041
aVEngland v Ireland at Twickenham, Mar 6, 1976
p1042
aVEngland v Ireland at Twickenham, Mar 6, 1976
p1043
aVFrance v England at Parc des Princes, Mar 20, 1976
p1044
aVEngland v Scotland at Twickenham, Jan 15, 1977
p1045
aVEngland v Scotland at Twickenham, Jan 15, 1977
p1046
aVEngland v Scotland at Twickenham, Jan 15, 1977
p1047
aVEngland v Scotland at Twickenham, Jan 15, 1977
p1048
aVFrance v England at Parc des Princes, Jan 21, 1978
p1049
aVEngland v Wales at Twickenham, Feb 4, 1978
p1050
aVEngland v Wales at Twickenham, Feb 4, 1978
p1051
aV
aVScotland v England at Murrayfield, Mar 4, 1978
p1052
aVScotland v England at Murrayfield, Mar 4, 1978
p1053
aVEngland v New Zealand at Twickenham, Nov 25, 1978
p1054
aVEngland v Scotland at Twickenham, Feb 3, 1979
p1055
aVEngland v France at Twickenham, Mar 3, 1979
p1056
aVEngland v France at Twickenham, Mar 3, 1979
p1057
aVEngland v New Zealand at Twickenham, Nov 24, 1979
p1058
aVEngland v New Zealand at Twickenham, Nov 24, 1979
p1059
aVEngland v New Zealand at Twickenham, Nov 24, 1979
p1060
aVEngland v Ireland at Twickenham, Jan 19, 1980
p1061
aVEngland v Ireland at Twickenham, Jan 19, 1980
p1062
aVWales v England at Cardiff, Jan 17, 1981
p1063
aVWales v England at Cardiff, Jan 17, 1981
p1064
aVEngland v Scotland at Twickenham, Feb 21, 1981
p1065
aVEngland v Scotland at Twickenham, Feb 21, 1981
p1066
aVEngland v Scotland at Twickenham, Feb 21, 1981
p1067
aVIreland v England at Lansdowne Road, Mar 7, 1981
p1068
aVIreland v England at Lansdowne Road, Mar 7, 1981
p1069
aVArgentina v England at Buenos Aires, May 30, 1981
p1070
aVArgentina v England at Buenos Aires, May 30, 1981
p1071
aVArgentina v England at Buenos Aires, May 30, 1981
p1072
aVEngland v Australia at Twickenham, Jan 2, 1982
p1073
aVEngland v Australia at Twickenham, Jan 2, 1982
p1074
aVEngland v Ireland at Twickenham, Feb 6, 1982
p1075
aVFrance v England at Parc des Princes, Feb 20, 1982
p1076
aVWales v England at Cardiff, Feb 5, 1983
p1077
aVIreland v England at Lansdowne Road, Mar 19, 1983
p1078
aVIreland v England at Lansdowne Road, Mar 19, 1983
p1079
aVEngland v New Zealand at Twickenham, Nov 19, 1983
p1080
aVEngland v New Zealand at Twickenham, Nov 19, 1983
p1081
aVScotland v England at Murrayfield, Feb 4, 1984
p1082
aVEngland v Ireland at Twickenham, Feb 18, 1984
p1083
aVEngland v Ireland at Twickenham, Feb 18, 1984
p1084
aVEngland v Ireland at Twickenham, Feb 18, 1984
p1085
aVEngland v Wales at Twickenham, Mar 17, 1984
p1086
aVEngland v Wales at Twickenham, Mar 17, 1984
p1087
aVSouth Africa v England at Port Elizabeth, Jun 2, 1984
p1088
aVSouth Africa v England at Port Elizabeth, Jun 2, 1984
p1089
aVSouth Africa v England at Port Elizabeth, Jun 2, 1984
p1090
aVSouth Africa v England at Port Elizabeth, Jun 2, 1984
p1091
aVSouth Africa v England at Port Elizabeth, Jun 2, 1984
p1092
aVSouth Africa v England at Johannesburg, Jun 9, 1984
p1093
aVSouth Africa v England at Johannesburg, Jun 9, 1984
p1094
aVEngland v Australia at Twickenham, Nov 3, 1984
p1095
aVEngland v Australia at Twickenham, Nov 3, 1984
p1096
aVEngland v Australia at Twickenham, Nov 3, 1984
p1097
aVEngland v Australia at Twickenham, Nov 3, 1984
p1098
aVEngland v Australia at Twickenham, Nov 3, 1984
p1099
aVEngland v Romania at Twickenham, Jan 5, 1985
p1100
aVEngland v Romania at Twickenham, Jan 5, 1985
p1101
aVEngland v Romania at Twickenham, Jan 5, 1985
p1102
aVEngland v Romania at Twickenham, Jan 5, 1985
p1103
aVEngland v Romania at Twickenham, Jan 5, 1985
p1104
aVEngland v Romania at Twickenham, Jan 5, 1985
p1105
aVEngland v France at Twickenham, Feb 2, 1985
p1106
aVEngland v France at Twickenham, Feb 2, 1985
p1107
aVNew Zealand v England at Christchurch, Jun 1, 1985
p1108
aVNew Zealand v England at Christchurch, Jun 1, 1985
p1109
aVRomania v New Zealand at Bucharest, Oct 24, 1981
p1110
aVEngland v Wales at Twickenham, Jan 18, 1986
p1111
aVEngland v Wales at Twickenham, Jan 18, 1986
p1112
aVEngland v Ireland at Twickenham, Mar 1, 1986
p1113
aVEngland v Ireland at Twickenham, Mar 1, 1986
p1114
aVIreland v England at Lansdowne Road, Feb 7, 1987
p1115
aVIreland v England at Lansdowne Road, Feb 7, 1987
p1116
aVEngland v Scotland at Twickenham, Apr 4, 1987
p1117
aVEngland v Scotland at Twickenham, Apr 4, 1987
p1118
aVAustralia v England at Sydney, May 23, 1987
p1119
aVFrance v England at Parc des Princes, Jan 16, 1988
p1120
aVFrance v England at Parc des Princes, Jan 16, 1988
p1121
aVFrance v England at Parc des Princes, Jan 16, 1988
p1122
aVScotland v England at Murrayfield, Mar 5, 1988
p1123
aVIreland v England at Lansdowne Road, Apr 23, 1988
p1124
aVIreland v England at Lansdowne Road, Apr 23, 1988
p1125
aVAustralia v England at Sydney, Jun 12, 1988
p1126
aVAustralia v England at Sydney, Jun 12, 1988
p1127
aVEngland v Australia at Twickenham, Nov 5, 1988
p1128
aVEngland v Australia at Twickenham, Nov 5, 1988
p1129
aVEngland v Australia at Twickenham, Nov 5, 1988
p1130
aVEngland v Australia at Twickenham, Nov 5, 1988
p1131
aVRomania v England at Bucharest, May 13, 1989
p1132
aVRomania v England at Bucharest, May 13, 1989
p1133
aVRomania v England at Bucharest, May 13, 1989
p1134
aVEngland v Fiji at Twickenham, Nov 4, 1989
p1135
aVEngland v Fiji at Twickenham, Nov 4, 1989
p1136
aVArgentina v England at Buenos Aires, Jul 28, 1990
p1137
aVArgentina v England at Buenos Aires, Jul 28, 1990
p1138
aVArgentina v England at Buenos Aires, Jul 28, 1990
p1139
aVArgentina v England at Buenos Aires, Jul 28, 1990
p1140
aVEngland v Argentina at Twickenham, Nov 3, 1990
p1141
aVFiji v England at Suva, Jul 20, 1991
p1142
aVScotland v England at Murrayfield, Jan 18, 1992
p1143
aVEngland v Canada at Wembley, Oct 17, 1992
p1144
aVEngland v Canada at Wembley, Oct 17, 1992
p1145
aVEngland v Canada at Wembley, Oct 17, 1992
p1146
aVEngland v South Africa at Twickenham, Nov 14, 1992
p1147
aVEngland v South Africa at Twickenham, Nov 14, 1992
p1148
aVEngland v France at Twickenham, Jan 16, 1993
p1149
aVEngland v New Zealand at Twickenham, Nov 27, 1993
p1150
aVEngland v New Zealand at Twickenham, Nov 27, 1993
p1151
aVScotland v England at Murrayfield, Feb 5, 1994
p1152
aVEngland v Ireland at Twickenham, Feb 19, 1994
p1153
aVEngland v Wales at Twickenham, Mar 19, 1994
p1154
aVSouth Africa v England at Pretoria, Jun 4, 1994
p1155
aVEngland v Scotland at Twickenham, Mar 18, 1995
p1156
aVEngland v Samoa at Durban, Jun 4, 1995
p1157
aVEngland v Samoa at Durban, Jun 4, 1995
p1158
aVEngland v Samoa at Durban, Jun 4, 1995
p1159
aVEngland v South Africa at Twickenham, Nov 18, 1995
p1160
aVEngland v South Africa at Twickenham, Nov 18, 1995
p1161
aVEngland v Samoa at Twickenham, Dec 16, 1995
p1162
aVEngland v Samoa at Twickenham, Dec 16, 1995
p1163
aVFrance v England at Parc des Princes, Jan 20, 1996
p1164
aVScotland v England at Murrayfield, Mar 2, 1996
p1165
aVEngland v Italy at Twickenham, Nov 23, 1996
p1166
aVEngland v Italy at Twickenham, Nov 23, 1996
p1167
aVEngland v Italy at Twickenham, Nov 23, 1996
p1168
aVEngland v Italy at Twickenham, Nov 23, 1996
p1169
aVEngland v Italy at Twickenham, Nov 23, 1996
p1170
aVEngland v Italy at Twickenham, Nov 23, 1996
p1171
aVEngland v Italy at Twickenham, Nov 23, 1996
p1172
aVEngland v Argentina at Twickenham, Dec 14, 1996
p1173
aVEngland v Scotland at Twickenham, Feb 1, 1997
p1174
aVIreland v England at Lansdowne Road, Feb 15, 1997
p1175
aVWales v England at Cardiff, Mar 15, 1997
p1176
aVArgentina v England at Buenos Aires, May 31, 1997
p1177
aVArgentina v England at Buenos Aires, May 31, 1997
p1178
aVArgentina v England at Buenos Aires, May 31, 1997
p1179
aVArgentina v England at Buenos Aires, May 31, 1997
p1180
aVArgentina v England at Buenos Aires, May 31, 1997
p1181
aVArgentina v England at Buenos Aires, May 31, 1997
p1182
aVArgentina v England at Buenos Aires, May 31, 1997
p1183
aVArgentina v England at Buenos Aires, Jun 7, 1997
p1184
aVArgentina v England at Buenos Aires, Jun 7, 1997
p1185
aVArgentina v England at Buenos Aires, Jun 7, 1997
p1186
aVEngland v Australia at Twickenham, Nov 15, 1997
p1187
aVEngland v Australia at Twickenham, Nov 15, 1997
p1188
aVEngland v Australia at Twickenham, Nov 15, 1997
p1189
aVEngland v Australia at Twickenham, Nov 15, 1997
p1190
aVEngland v Australia at Twickenham, Nov 15, 1997
p1191
aVFrance v England at Stade de France, Feb 7, 1998
p1192
aVEngland v Wales at Twickenham, Feb 21, 1998
p1193
aVEngland v Ireland at Twickenham, Apr 4, 1998
p1194
aVAustralia v England at Brisbane, Jun 6, 1998
p1195
aVAustralia v England at Brisbane, Jun 6, 1998
p1196
aVAustralia v England at Brisbane, Jun 6, 1998
p1197
aVAustralia v England at Brisbane, Jun 6, 1998
p1198
aVAustralia v England at Brisbane, Jun 6, 1998
p1199
aVAustralia v England at Brisbane, Jun 6, 1998
p1200
aVAustralia v England at Brisbane, Jun 6, 1998
p1201
aVNew Zealand v England at Dunedin, Jun 20, 1998
p1202
aVNew Zealand v England at Dunedin, Jun 20, 1998
p1203
aVNew Zealand v England at Dunedin, Jun 20, 1998
p1204
aVNew Zealand v England at Dunedin, Jun 20, 1998
p1205
aVNew Zealand v England at Auckland, Jun 27, 1998
p1206
aVNew Zealand v England at Auckland, Jun 27, 1998
p1207
aVSouth Africa v England at Cape Town, Jul 4, 1998
p1208
aVEngland v Netherlands at Huddersfield, Nov 14, 1998
p1209
aVIreland v England at Lansdowne Road, Mar 6, 1999
p1210
aVEngland v Wales at Wembley, Apr 11, 1999
p1211
aVEngland v Wales at Wembley, Apr 11, 1999
p1212
aVEngland v United States of America at Twickenham, Aug 21, 1999
p1213
aVEngland v Tonga at Twickenham, Oct 15, 1999
p1214
aVEngland v Ireland at Twickenham, Feb 5, 2000
p1215
aVEngland v Ireland at Twickenham, Feb 5, 2000
p1216
aVEngland v Ireland at Twickenham, Feb 5, 2000
p1217
aVSouth Africa v England at Pretoria, Jun 17, 2000
p1218
aVSouth Africa v England at Pretoria, Jun 17, 2000
p1219
aVSouth Africa v England at Pretoria, Jun 17, 2000
p1220
aVEngland v Italy at Twickenham, Feb 17, 2001
p1221
aVEngland v France at Twickenham, Apr 7, 2001
p1222
aVCanada v England at Markham, Jun 2, 2001
p1223
aVCanada v England at Markham, Jun 2, 2001
p1224
aVCanada v England at Markham, Jun 2, 2001
p1225
aVCanada v England at Markham, Jun 2, 2001
p1226
aVCanada v England at Markham, Jun 2, 2001
p1227
aVCanada v England at Burnaby Lake, Jun 9, 2001
p1228
aVCanada v England at Burnaby Lake, Jun 9, 2001
p1229
aVUnited States of America v England at San Francisco, Jun 16, 2001
p1230
aVUnited States of America v England at San Francisco, Jun 16, 2001
p1231
aVUnited States of America v England at San Francisco, Jun 16, 2001
p1232
aVUnited States of America v England at San Francisco, Jun 16, 2001
p1233
aVEngland v Romania at Twickenham, Nov 17, 2001
p1234
aVEngland v Romania at Twickenham, Nov 17, 2001
p1235
aVScotland v England at Murrayfield, Feb 2, 2002
p1236
aVScotland v England at Murrayfield, Feb 2, 2002
p1237
aVFrance v England at Stade de France, Mar 2, 2002
p1238
aVArgentina v England at Buenos Aires, Jun 22, 2002
p1239
aVArgentina v England at Buenos Aires, Jun 22, 2002
p1240
aVArgentina v England at Buenos Aires, Jun 22, 2002
p1241
aVArgentina v England at Buenos Aires, Jun 22, 2002
p1242
aVArgentina v England at Buenos Aires, Jun 22, 2002
p1243
aVEngland v New Zealand at Twickenham, Nov 9, 2002
p1244
aVWales v England at Millennium Stadium, Feb 22, 2003
p1245
aVEngland v Italy at Twickenham, Mar 9, 2003
p1246
aVEngland v Italy at Twickenham, Mar 9, 2003
p1247
aVWales v England at Millennium Stadium, Aug 23, 2003
p1248
aVWales v England at Millennium Stadium, Aug 23, 2003
p1249
aVItaly v England at Rome, Feb 15, 2004
p1250
aVNew Zealand v England at Dunedin, Jun 12, 2004
p1251
aVNew Zealand v England at Auckland, Jun 19, 2004
p1252
aVNew Zealand v England at Auckland, Jun 19, 2004
p1253
aVAustralia v England at Brisbane, Jun 26, 2004
p1254
aVEngland v Canada at Twickenham, Nov 13, 2004
p1255
aVEngland v Canada at Twickenham, Nov 13, 2004
p1256
aVEngland v Canada at Twickenham, Nov 13, 2004
p1257
aVEngland v Canada at Twickenham, Nov 13, 2004
p1258
aVEngland v South Africa at Twickenham, Nov 20, 2004
p1259
aVWales v England at Millennium Stadium, Feb 5, 2005
p1260
aVWales v England at Millennium Stadium, Feb 5, 2005
p1261
aVEngland v Italy at Twickenham, Mar 12, 2005
p1262
aVEngland v Italy at Twickenham, Mar 12, 2005
p1263
aVEngland v Australia at Twickenham, Nov 12, 2005
p1264
aVEngland v Samoa at Twickenham, Nov 26, 2005
p1265
aVEngland v Samoa at Twickenham, Nov 26, 2005
p1266
aVEngland v Samoa at Twickenham, Nov 26, 2005
p1267
aVEngland v Samoa at Twickenham, Nov 26, 2005
p1268
aVAustralia v England at Sydney, Jun 11, 2006
p1269
aVAustralia v England at Sydney, Jun 11, 2006
p1270
aVAustralia v England at Sydney, Jun 11, 2006
p1271
aVAustralia v England at Sydney, Jun 11, 2006
p1272
aVAustralia v England at Sydney, Jun 11, 2006
p1273
aVEngland v New Zealand at Twickenham, Nov 5, 2006
p1274
aVEngland v New Zealand at Twickenham, Nov 5, 2006
p1275
aVEngland v New Zealand at Twickenham, Nov 5, 2006
p1276
aVEngland v Argentina at Twickenham, Nov 11, 2006
p1277
aVEngland v Scotland at Twickenham, Feb 3, 2007
p1278
aVEngland v Scotland at Twickenham, Feb 3, 2007
p1279
aVEngland v Scotland at Twickenham, Feb 3, 2007
p1280
aVEngland v Italy at Twickenham, Feb 10, 2007
p1281
aVIreland v England at Croke Park, Feb 24, 2007
p1282
aVEngland v France at Twickenham, Mar 11, 2007
p1283
aVWales v England at Millennium Stadium, Mar 17, 2007
p1284
aVWales v England at Millennium Stadium, Mar 17, 2007
p1285
aVSouth Africa v England at Bloemfontein, May 26, 2007
p1286
aVSouth Africa v England at Bloemfontein, May 26, 2007
p1287
aVSouth Africa v England at Bloemfontein, May 26, 2007
p1288
aVSouth Africa v England at Bloemfontein, May 26, 2007
p1289
aVSouth Africa v England at Bloemfontein, May 26, 2007
p1290
aVSouth Africa v England at Pretoria, Jun 2, 2007
p1291
aVSouth Africa v England at Pretoria, Jun 2, 2007
p1292
aVEngland v Wales at Twickenham, Aug 4, 2007
p1293
aVEngland v Wales at Twickenham, Feb 2, 2008
p1294
aVEngland v Wales at Twickenham, Feb 2, 2008
p1295
aVEngland v Wales at Twickenham, Feb 2, 2008
p1296
aVItaly v England at Rome, Feb 10, 2008
p1297
aVFrance v England at Stade de France, Feb 23, 2008
p1298
aVEngland v Ireland at Twickenham, Mar 15, 2008
p1299
aVNew Zealand v England at Auckland, Jun 14, 2008
p1300
aVNew Zealand v England at Auckland, Jun 14, 2008
p1301
aVNew Zealand v England at Auckland, Jun 14, 2008
p1302
aVNew Zealand v England at Christchurch, Jun 21, 2008
p1303
aVEngland v Pacific Islanders at Twickenham, Nov 8, 2008
p1304
aVEngland v Pacific Islanders at Twickenham, Nov 8, 2008
p1305
aVEngland v Pacific Islanders at Twickenham, Nov 8, 2008
p1306
aVEngland v Pacific Islanders at Twickenham, Nov 8, 2008
p1307
aVEngland v Pacific Islanders at Twickenham, Nov 8, 2008
p1308
aVEngland v South Africa at Twickenham, Nov 22, 2008
p1309
aVEngland v Italy at Twickenham, Feb 7, 2009
p1310
aVEngland v Italy at Twickenham, Feb 7, 2009
p1311
aVEngland v Argentina at Manchester, Jun 6, 2009
p1312
aVEngland v Argentina at Manchester, Jun 6, 2009
p1313
aVEngland v Argentina at Manchester, Jun 6, 2009
p1314
aVEngland v Argentina at Manchester, Jun 6, 2009
p1315
aVArgentina v England at Salta, Jun 13, 2009
p1316
aVEngland v Australia at Twickenham, Nov 7, 2009
p1317
aVEngland v Australia at Twickenham, Nov 7, 2009
p1318
aVEngland v Argentina at Twickenham, Nov 14, 2009
p1319
aVEngland v Wales at Twickenham, Feb 6, 2010
p1320
aVItaly v England at Rome, Feb 14, 2010
p1321
aVScotland v England at Murrayfield, Mar 13, 2010
p1322
aVFrance v England at Stade de France, Mar 20, 2010
p1323
aVAustralia v England at Perth, Jun 12, 2010
p1324
aVEngland v New Zealand at Twickenham, Nov 6, 2010
p1325
aVEngland v New Zealand at Twickenham, Nov 6, 2010
p1326
aVWales v England at Millennium Stadium, Feb 4, 2011
p1327
aVEngland v Italy at Twickenham, Feb 12, 2011
p1328
aVEngland v Wales at Twickenham, Aug 6, 2011
p1329
aVEngland v Wales at Twickenham, Aug 6, 2011
p1330
aVEngland v Wales at Twickenham, Aug 6, 2011
p1331
aVEngland v Georgia at Dunedin, Sep 18, 2011
p1332
aVScotland v England at Murrayfield, Feb 4, 2012
p1333
aVScotland v England at Murrayfield, Feb 4, 2012
p1334
aVScotland v England at Murrayfield, Feb 4, 2012
p1335
aVScotland v England at Murrayfield, Feb 4, 2012
p1336
aVScotland v England at Murrayfield, Feb 4, 2012
p1337
aVScotland v England at Murrayfield, Feb 4, 2012
p1338
aVScotland v England at Murrayfield, Feb 4, 2012
p1339
aVItaly v England at Rome, Feb 11, 2012
p1340
aVSouth Africa v England at Durban, Jun 9, 2012
p1341
aVSouth Africa v England at Durban, Jun 9, 2012
p1342
aVSouth Africa v England at Durban, Jun 9, 2012
p1343
aVSouth Africa v England at Johannesburg, Jun 16, 2012
p1344
aVSouth Africa v England at Johannesburg, Jun 16, 2012
p1345
aVEngland v Fiji at Twickenham, Nov 10, 2012
p1346
aVEngland v Fiji at Twickenham, Nov 10, 2012
p1347
aVEngland v Fiji at Twickenham, Nov 10, 2012
p1348
aVEngland v New Zealand at Twickenham, Dec 1, 2012
p1349
aVEngland v Scotland at Twickenham, Feb 2, 2013
p1350
aVArgentina v England at Salta, Jun 8, 2013
p1351
aV
aVArgentina v England at Salta, Jun 8, 2013
p1352
aVArgentina v England at Salta, Jun 8, 2013
p1353
aVArgentina v England at Salta, Jun 8, 2013
p1354
aVArgentina v England at Buenos Aires, Jun 15, 2013
p1355
aVArgentina v England at Buenos Aires, Jun 15, 2013
p1356
aVArgentina v England at Buenos Aires, Jun 15, 2013
p1357
aVEngland v Australia at Twickenham, Nov 2, 2013
p1358
aVFrance v England at Stade de France, Feb 1, 2014
p1359
aVFrance v England at Stade de France, Feb 1, 2014
p1360
aVEngland v Wales at Twickenham, Mar 9, 2014
p1361
aVNew Zealand v England at Auckland, Jun 7, 2014
p1362
aVNew Zealand v England at Auckland, Jun 7, 2014
p1363
aVNew Zealand v England at Dunedin, Jun 14, 2014
p1364
aVEngland v New Zealand at Twickenham, Nov 8, 2014
p1365
aVEngland v New Zealand at Twickenham, Nov 8, 2014
p1366
aVEngland v New Zealand at Twickenham, Nov 8, 2014
p1367
a.