(lp1
(lp2
S'John Bentley'
p3
aS'1871'
p4
aS'Halfback'
p5
aS'Derbyshire'
p6
aS'2'
aS'1'
aS'0'
aNaa(lp7
S'Reginald Birkett'
p8
aS'1871'
p9
aS'Forward'
p10
aS'London'
p11
aS'4'
aS'2'
aS'1'
aNaa(lp12
S'Benjamin Burns'
p13
aS'1871'
p14
aS'Forward'
p15
aS'Perth'
p16
aS'1'
aS'0'
aS'0'
aNaa(lp17
S'John Clayton'
p18
aS'1871'
p19
aS'Forward'
p20
aS'Liverpool'
p21
aS'1'
aS'0'
aS'0'
aNaa(lp22
S'Charles Crompton'
p23
aS'1871'
p24
aS'Forward'
p25
aS'Cork'
p26
aS'1'
aS'0'
aS'0'
aNaa(lp27
S'Alfred Davenport'
p28
aS'1871'
p29
aS'Forward'
p30
aS'Oxford'
p31
aS'1'
aS'0'
aS'0'
aNaa(lp32
S'John Dugdale'
p33
aS'1871'
p34
aS'Forward'
p35
aS'Salford'
p36
aS'1'
aS'0'
aS'0'
aNaa(lp37
S'Arthur Gibson'
p38
aS'1871'
p39
aS'Forward'
p40
aS'Hampshire'
p41
aS'1'
aS'0'
aS'0'
aNaa(lp42
S'Joseph Green'
p43
aS'1871'
p44
aS'Halfback'
p45
aS'W Ham'
p46
aS'1'
aS'0'
aS'0'
aNaa(lp47
S'Arthur Guillemard'
p48
aS'1871'
p49
aS'Fullback'
p50
aS'Lewisham'
p51
aS'2'
aS'1'
aS'0'
aNaa(lp52
S'Alfred Hamersley'
p53
aS'1871'
p54
aS'Forward'
p55
aS'Oxon'
p56
aS'4'
aS'2'
aS'1'
aNaa(lp57
S'Harry Luscombe'
p58
aS'1871'
p59
aS'Forward'
p60
aS'Kent'
p61
aS'1'
aS'0'
aS'0'
aNaa(lp62
S'Arthur Lyon'
p63
aS'1871'
p64
aS'Fullback'
p65
aS'W Derby'
p66
aS'1'
aS'0'
aS'0'
aNaa(lp67
S'William MacLaren'
p68
aS'1871'
p69
aS'Three-quarters'
p70
aS'Lancashire'
p71
aS'1'
aS'0'
aS'0'
aNaa(lp72
S'Richard Osborne'
p73
aS'1871'
p74
aS'Fullback'
p75
aS'Yorks'
p76
aS'1'
aS'0'
aS'0'
aNaa(lp77
S'Charles Sherrard'
p78
aS'1871'
p79
aS'Forward'
p80
aS'London'
p81
aS'2'
aS'1'
aS'0'
aNaa(lp82
S'Frederic Stokes'
p83
aS'1871'
p84
aS'Forward'
p85
aS'Greenwich'
p86
aS'3'
aS'1'
aS'0'
aNaa(lp87
S'Frank Tobin'
p88
aS'1871'
p89
aS'Halfback'
p90
aS'Liverpool'
p91
aS'1'
aS'0'
aS'0'
aNaa(lp92
S'Dawson Turner'
p93
aS'1871'
p94
aS'Forward'
p95
aS'Calcutta'
p96
aS'6'
aS'3'
aS'0'
aNaa(lp97
S'Henry Turner'
p98
aS'1871'
p99
aS'Forward'
p100
aS'Sussex'
p101
aS'1'
aS'0'
aS'0'
aNaa(lp102
S'Thomas Batson'
p103
aS'1872'
p104
aS'Forward'
p105
aS'Hereford'
p106
aS'3'
aS'3'
aS'0'
aNaa(lp107
S'James Body'
p108
aS'1872'
p109
aS'Forward'
p110
aS'Kent'
p111
aS'2'
aS'1'
aS'0'
aNaa(lp112
S'James Bush'
p113
aS'1872'
p114
aS'Forward'
p115
aS'Cawnpore'
p116
aS'5'
aS'3'
aS'0'
aNaa(lp117
S'Frederick Currey'
p118
aS'1872'
p119
aS'Forward'
p120
aS'Kent'
p121
aS'1'
aS'1'
aS'0'
aNaa(lp122
S"Francis d'Aguilar"
p123
aS'1872'
p124
aS'Forward'
p125
aS'Bengal'
p126
aS'1'
aS'1'
aS'1'
aNaa(lp127
S'Stephen Finney'
p128
aS'1872'
p129
aS'Halfback'
p130
aS'Marylebone'
p131
aS'2'
aS'1'
aS'1'
aNaa(lp132
S'Harold Freeman'
p133
aS'1872'
p134
aS'Three-quarters'
p135
aS'Glos'
p136
aS'3'
aS'2'
aS'0'
aNaa(lp137
S'Francis Isherwood'
p138
aS'1872'
p139
aS'Forward'
p140
aS'Berkshire'
p141
aS'1'
aS'1'
aS'0'
aNaa(lp142
S'Frank Luscombe'
p143
aS'1872'
p144
aS'Forward'
p145
aS'Surrey'
p146
aS'6'
aS'4'
aS'0'
aNaa(lp147
S'James Mackinlay'
p148
aS'1872'
p149
aS'Forward'
p150
aS'Guildford'
p151
aS'3'
aS'2'
aS'0'
aNaa(lp152
S'Frederick Mills'
p153
aS'1872'
p154
aS'Fullback'
p155
aS'Chertsey'
p156
aS'2'
aS'1'
aS'0'
aNaa(lp157
S'William Moberly'
p158
aS'1872'
p159
aS'Fullback'
p160
aS'Sx'
p161
aS'1'
aS'1'
aS'0'
aNaa(lp162
S'Nipper Pinching'
p163
aS'1872'
p164
aS'Forward'
p165
aS'Gravesend'
p166
aS'1'
aS'1'
aS'0'
aNaa(lp167
S'P. Wilkinson'
p168
aS'1872'
p169
aS'Halfback'
p170
aS'date unknown'
p171
aS'1'
aS'1'
aS'0'
aNaa(lp172
S'Cecil Boyle'
p173
aS'1873'
p174
aS'Halfback'
p175
aS'London'
p176
aS'1'
aS'0'
aS'0'
aNaa(lp177
S'Ernest Cheston'
p178
aS'1873'
p179
aS'Forward'
p180
aS'Hackney'
p181
aS'5'
aS'3'
aS'1'
aNaa(lp182
S'William Fletcher'
p183
aS'1873'
p184
aS'Forward'
p185
aS'Kensington'
p186
aS'2'
aS'0'
aS'0'
aNaa(lp187
S'Henry Lawrence'
p188
aS'1873'
p189
aS'Forward'
p190
aS'Lahore'
p191
aS'4'
aS'2'
aS'0'
aNaa(lp192
S'Henry Marsh'
p193
aS'1873'
p194
aS'Forward'
p195
aS'1850'
p196
aS'1'
aS'0'
aS'0'
aNaa(lp197
S'Murray Marshall'
p198
aS'1873'
p199
aS'Forward'
p200
aS'Goldalming'
p201
aS'10'
p202
aS'6'
aS'0'
aNaa(lp203
S'Sydney Morse'
p204
aS'1873'
p205
aS'Fullback'
p206
aS'Birmingham'
p207
aS'3'
aS'1'
aS'0'
aNaa(lp208
S'Cyril Rickards'
p209
aS'1873'
p210
aS'Forward'
p211
aS'Jeypon'
p212
aS'1'
aS'0'
aS'0'
aNaa(lp213
S'Ernest Still'
p214
aS'1873'
p215
aS'Forward'
p216
aS'Epsom'
p217
aS'1'
aS'0'
aS'0'
aNaa(lp218
S'Charles Vanderspar'
p219
aS'1873'
p220
aS'Fullback'
p221
aS'Ceylon'
p222
aS'1'
aS'0'
aS'0'
aNaa(lp223
S'John Batten'
p224
aS'1874'
p225
aS'Fullback'
p226
aS'Kumaon'
p227
aS'1'
aS'1'
aS'0'
aNaa(lp228
S'Marshall Brooks'
p229
aS'1874'
p230
aS'Fullback'
p231
aS'Lancs'
p232
aS'1'
aS'1'
aS'0'
aNaa(lp233
S'Henry Bryden'
p234
aS'1874'
p235
aS'Forward'
p236
aS'Banbury'
p237
aS'1'
aS'1'
aS'0'
aNaa(lp238
S'William Collins'
p239
aS'1874'
p240
aS'Halfback'
p241
aS'Monghyr'
p242
aS'5'
aS'4'
aS'1'
aNaa(lp243
S'Charles Crosse'
p244
aS'1874'
p245
aS'Forward'
p246
aS'Herts'
p247
aS'2'
aS'2'
aS'0'
aNaa(lp248
S'Foster Cunliffe'
p249
aS'1874'
p250
aS'Forward'
p251
aS'Llanfyllin'
p252
aS'1'
aS'1'
aS'0'
aNaa(lp253
S'James Genth'
p254
aS'1874'
p255
aS'Forward'
p256
aS'Charlton'
p257
aS'2'
aS'1'
aS'0'
aNaa(lp258
S'Edward Kewley'
p259
aS'1874'
p260
aS'Forward'
p261
aS'Bucks'
p262
aS'7'
aS'4'
aS'1'
aNaa(lp263
S'William Milton'
p264
aS'1874'
p265
aS'Three-quarters'
p266
aS'Bucks'
p267
aS'2'
aS'2'
aS'0'
aNaa(lp268
S'Sidney Parker'
p269
aS'1874'
p270
aS'Forward'
p271
aS'Oxon'
p272
aS'2'
aS'1'
aS'0'
aNaa(lp273
S'William Stafford'
p274
aS'1874'
p275
aS'Forward'
p276
aS'1854'
p277
aS'1'
aS'1'
aS'0'
aNaa(lp278
S'Roger Walker'
p279
aS'1874'
p280
aS'Forward'
p281
aS'Bury'
p282
aS'5'
aS'4'
aS'0'
aNaa(lp283
S'Frank Adams'
p284
aS'1875'
p285
aS'Forward'
p286
aS'Newcastle-upon-Tyne'
p287
aS'7'
aS'4'
aS'2'
aNaa(lp288
S'Edward Fraser'
p289
aS'1875'
p290
aS'Forward'
p291
aS'Burnside'
p292
aS'1'
aS'1'
aS'0'
aNaa(lp293
S'Harry Graham'
p294
aS'1875'
p295
aS'Forward'
p296
aS'Kingston'
p297
aS'4'
aS'3'
aS'0'
aNaa(lp298
S'William Hutchinson'
p299
aS'1875'
p300
aS'Forward'
p301
aS'Sculcoates'
p302
aS'2'
aS'2'
aS'0'
aNaa(lp303
S'Arthur Michell'
p304
aS'1875'
p305
aS'Halfback'
p306
aS'Headington'
p307
aS'3'
aS'2'
aS'1'
aNaa(lp308
S'Edward Nash'
p309
aS'1875'
p310
aS'Halfback'
p311
aS'Eton'
p312
aS'1'
aS'1'
aS'0'
aNaa(lp313
S'Alec Pearson'
p314
aS'1875'
p315
aS'Fullback'
p316
aS'VIC'
p317
aS'7'
aS'4'
aS'0'
aNaa(lp318
S'Edward Perrott'
p319
aS'1875'
p320
aS'Forward'
p321
aS'Llanfyllin'
p322
aS'1'
aS'1'
aS'0'
aNaa(lp323
S'Lennard Stokes'
p324
aS'1875'
p325
aS'Three-quarters'
p326
aS'Greenwich'
p327
aS'12'
p328
aS'8'
aS'0'
aNaa(lp329
S'Louis Birkett'
p330
aS'1875'
p331
aS'Fullback'
p332
aS'St Saviour'
p333
aS'3'
aS'1'
aS'0'
aNaa(lp334
S'Wyndham Evanson'
p335
aS'1875'
p336
aS'Halfback'
p337
aS'Llansoy'
p338
aS'5'
aS'1'
aS'1'
aNaa(lp339
S'Josiah Paul'
p340
aS'1875'
p341
aS'Forward'
p342
aS'Glos'
p343
aS'1'
aS'0'
aS'0'
aNaa(lp344
S'Jeaffreson Brewer'
p345
aS'1875'
p346
aS'Forward'
p347
aS'Ebbw Vale'
p348
aS'1'
aS'1'
aS'0'
aNaa(lp349
S'Charles Bryden'
p350
aS'1875'
p351
aS'Forward'
p352
aS'Banbury'
p353
aS'2'
aS'1'
aS'0'
aNaa(lp354
S'Mark Bulteel'
p355
aS'1875'
p356
aS'Forward'
p357
aS'Liverpool'
p358
aS'1'
aS'1'
aS'0'
aNaa(lp359
S'Charles Clark'
p360
aS'1875'
p361
aS'Halfback'
p362
aS'W Derby'
p363
aS'1'
aS'1'
aS'1'
aNaa(lp364
S'John Graham'
p365
aS'1875'
p366
aS'Forward'
p367
aS'Surrey'
p368
aS'1'
aS'1'
aS'0'
aNaa(lp369
S'Walter Greg'
p370
aS'1875'
p371
aS'Forward'
p372
aS'Macclesfield'
p373
aS'2'
aS'2'
aS'0'
aNaa(lp374
S'Charles Gunner'
p375
aS'1875'
p376
aS'Three-quarters'
p377
aS'Bishops Waltham'
p378
aS'1'
aS'1'
aS'0'
aNaa(lp379
S'Spencer Login'
p380
aS'1875'
p381
aS'Fullback'
p382
aS'Punjab'
p383
aS'1'
aS'1'
aS'0'
aNaa(lp384
S'Ernest Marriott'
p385
aS'1875'
p386
aS'Forward'
p387
aS'Salford'
p388
aS'1'
aS'1'
aS'0'
aNaa(lp389
S'Edward Turner'
p390
aS'1875'
p391
aS'Forward'
p392
aS'Epping'
p393
aS'3'
aS'3'
aS'1'
aNaa(lp394
S'Courteney Verelst'
p395
aS'1875'
p396
aS'Forward'
p397
aS'Wirral'
p398
aS'2'
aS'2'
aS'0'
aNaa(lp399
S'Arthur Heath'
p400
aS'1876'
p401
aS'Fullback'
p402
aS'Newcastle-under-Lyme'
p403
aS'1'
aS'1'
aS'0'
aNaa(lp404
S'William Hunt'
p405
aS'1876'
p406
aS'Forward'
p407
aS'Preston'
p408
aS'4'
aS'3'
aS'0'
aNaa(lp409
S'William Hutchinson'
p410
aS'1876'
p411
aS'Halfback'
p412
aS'Charlton'
p413
aS'2'
aS'2'
aS'2'
aNaa(lp414
S'Frederic Lee'
p415
aS'1876'
p416
aS'Forward'
p417
aS'Chelsea'
p418
aS'2'
aS'2'
aS'1'
aNaa(lp419
S'William Rawlinson'
p420
aS'1876'
p421
aS'Forward'
p422
aS'Bury St Edmunds'
p423
aS'1'
aS'1'
aS'0'
aNaa(lp424
S'Thomas Tetley'
p425
aS'1876'
p426
aS'Three-quarters'
p427
aS'Bradford'
p428
aS'1'
aS'1'
aS'0'
aNaa(lp429
S'George Turner'
p430
aS'1876'
p431
aS'Forward'
p432
aS'Essex'
p433
aS'1'
aS'1'
aS'0'
aNaa(lp434
S'Henry Fowler'
p435
aS'1877'
p436
aS'Forward'
p437
aS'Herts'
p438
aS'1'
aS'1'
aS'0'
aNaa(lp439
S'Gillie Harrison'
p440
aS'1877'
p441
aS'Forward'
p442
aS'Cottingham'
p443
aS'7'
aS'5'
aS'0'
aNaa(lp444
S'Monkey Hornby'
p445
aS'1877'
p446
aS'Fullback'
p447
aS'Blackburn'
p448
aS'9'
aS'4'
aS'1'
aNaa(lp449
S'Petley Price'
p450
aS'1877'
p451
aS'Halfback'
p452
aS'Poona'
p453
aS'3'
aS'1'
aS'0'
aNaa(lp454
S'Charles Touzel'
p455
aS'1877'
p456
aS'Forward'
p457
aS'Cheshire'
p458
aS'2'
aS'1'
aS'0'
aNaa(lp459
S'Harry Garnett'
p460
aS'1877'
p461
aS'Forward'
p462
aS'Yorks'
p463
aS'1'
aS'0'
aS'0'
aNaa(lp464
S'Archibald Law'
p465
aS'1877'
p466
aS'Forward'
p467
aS'Nice'
p468
aS'1'
aS'0'
aS'0'
aNaa(lp469
S'Robert Todd'
p470
aS'1877'
p471
aS'Forward'
p472
aS'Bury'
p473
aS'1'
aS'0'
aS'0'
aNaa(lp474
S'John Biggs'
p475
aS'1878'
p476
aS'Forward'
p477
aS'Reading'
p478
aS'2'
aS'1'
aS'0'
aNaa(lp479
S'Frank Fowler'
p480
aS'1878'
p481
aS'No. 8'
p482
aS'Newbury'
p483
aS'2'
aS'0'
aS'0'
aNaa(lp484
S'Howard Fowler'
p485
aS'1878'
p486
aS'Forward'
p487
aS'Tottenham'
p488
aS'3'
aS'1'
aS'0'
aNaa(lp489
S'Temple Gurdon'
p490
aS'1878'
p491
aS'Forward'
p492
aS'Norflk'
p493
aS'16'
p494
aS'12'
p495
aS'1'
aNaa(lp496
S'Henry Kayll'
p497
aS'1878'
p498
aS'Fullback'
p499
aS'Sunderland'
p500
aS'1'
aS'0'
aS'0'
aNaa(lp501
S'George Thomson'
p502
aS'1878'
p503
aS'Forward'
p504
aS'Yorks'
p505
aS'9'
aS'6'
aS'1'
aNaa(lp506
S'George Vernon'
p507
aS'1878'
p508
aS'Forward'
p509
aS'London'
p510
aS'5'
aS'4'
aS'0'
aNaa(lp511
S'John Bell'
p512
aS'1878'
p513
aS'Halfback'
p514
aS'Newcastle-uunder-Lym'
p515
aS'1'
aS'1'
aS'0'
aNaa(lp516
S'Thomas Blatherwick'
p517
aS'1878'
p518
aS'Forward'
p519
aS'Quebec'
p520
aS'1'
aS'1'
aS'0'
aNaa(lp521
S'Jimmy Budd'
p522
aS'1878'
p523
aS'Forward'
p524
aS'Bristol'
p525
aS'5'
aS'3'
aS'1'
aNaa(lp526
S'Ernest Dawson'
p527
aS'1878'
p528
aS'Forward'
p529
aS'Charlottetown'
p530
aS'1'
aS'1'
aS'0'
aNaa(lp531
S'Henry Enthoven'
p532
aS'1878'
p533
aS'Three-quarters'
p534
aS'Liverpool'
p535
aS'1'
aS'1'
aS'0'
aNaa(lp536
S'Herbert Gardner'
p537
aS'1878'
p538
aS'Forward'
p539
aS'Cawnpore'
p540
aS'1'
aS'1'
aS'1'
aNaa(lp541
S'Allan Jackson'
p542
aS'1878'
p543
aS'Halfback'
p544
aS'Spanish Town'
p545
aNaNaNaNaa(lp546
S'William Penny'
p547
aS'1878'
p548
aS'Fullback'
p549
aS'Langport'
p550
aS'3'
aS'2'
aS'1'
aNaa(lp551
S'George Burton'
p552
aS'1879'
p553
aS'Forward'
p554
aS'Wakefield'
p555
aS'6'
aS'4'
aS'6'
aNaa(lp556
S'Harry Huth'
p557
aS'1879'
p558
aS'Fullback'
p559
aS'Huddersfield'
p560
aS'1'
aS'0'
aS'0'
aNaa(lp561
S'Norman McLeod'
p562
aS'1879'
p563
aS'Forward'
p564
aS'Madras'
p565
aS'2'
aS'1'
aS'0'
aNaa(lp566
S'Stuart Neame'
p567
aS'1879'
p568
aS'Forward'
p569
aS'Preston FavershaKent'
p570
aS'4'
aS'3'
aS'0'
aNaa(lp571
S'Hugh Rowley'
p572
aS'1879'
p573
aS'Forward'
p574
aS'Chorlton-upon-Medloc'
p575
aS'9'
aS'5'
aS'3'
aNaa(lp576
S'Henry Springmann'
p577
aS'1879'
p578
aS'Forward'
p579
aS'W Derby'
p580
aS'2'
aS'0'
aS'0'
aNaa(lp581
S'Henry Taylor'
p582
aS'1879'
p583
aS'Halfback'
p584
aS'Greenwich'
p585
aS'5'
aS'3'
aS'6'
aNaa(lp586
S'Harold Bateson'
p587
aS'1879'
p588
aS'Forward'
p589
aS'Liverpool'
p590
aS'1'
aS'1'
aS'0'
aNaa(lp591
S'William Openshaw'
p592
aS'1879'
p593
aS'Halfback'
p594
aS'Cape Town'
p595
aS'1'
aS'1'
aS'0'
aNaa(lp596
S'Henry Twynam'
p597
aS'1879'
p598
aS'Halfback'
p599
aS'Hants'
p600
aS'8'
aS'7'
aS'4'
aNaa(lp601
S'Sidney Ellis'
p602
aS'1880'
p603
aS'Forward'
p604
aS'Lewisham'
p605
aS'1'
aS'1'
aS'1'
aNaa(lp606
S'Thomas Fry'
p607
aS'1880'
p608
aS'Fullback'
p609
aS'Greenwich'
p610
aS'3'
aS'3'
aS'1'
aNaa(lp611
S'Charles Gurdon'
p612
aS'1880'
p613
aS'Forward'
p614
aS'Norfolk'
p615
aS'14'
p616
aS'10'
p617
aS'0'
aNaa(lp618
S'Robert Hunt'
p619
aS'1880'
p620
aS'Three-quarters'
p621
aS'Preston'
p622
aS'4'
aS'2'
aS'2'
aNaa(lp623
S'Barron Kilner'
p624
aS'1880'
p625
aS'Forward'
p626
aS'Thornhill Leer'
p627
aS'1'
aS'1'
aS'0'
aNaa(lp628
S'Ellis Markendale'
p629
aS'1880'
p630
aS'Forward'
p631
aS'Salford'
p632
aS'1'
aS'1'
aS'1'
aNaa(lp633
S'John Schofield'
p634
aS'1880'
p635
aS'Forward'
p636
aS'Stretford'
p637
aS'1'
aS'1'
aS'0'
aNaa(lp638
S'Ernie Woodhead'
p639
aS'1880'
p640
aS'Forward'
p641
aS'Huddersfield'
p642
aS'1'
aS'1'
aS'0'
aNaa(lp643
S'Charles Coates'
p644
aS'1880'
p645
aS'Forward'
p646
aS'Lambeth'
p647
aS'3'
aS'1'
aS'0'
aNaa(lp648
S'Richard Finch'
p649
aS'1880'
p650
aS'Halfback'
p651
aS'Kensington'
p652
aS'1'
aS'1'
aS'0'
aNaa(lp653
S'Charles Phillips'
p654
aS'1880'
p655
aS'Forward'
p656
aS'?'
aS'3'
aS'2'
aS'0'
aNaa(lp657
S'Charles Sawyer'
p658
aS'1880'
p659
aS'Three-quarters'
p660
aS'Manchester'
p661
aS'2'
aS'2'
aS'1'
aNaa(lp662
S'Charles Fernandes'
p663
aS'1881'
p664
aS'Forward'
p665
aS'Wakefield'
p666
aS'3'
aS'2'
aS'1'
aNaa(lp667
S'Walter Hewitt'
p668
aS'1881'
p669
aS'Forward'
p670
aS'Kent'
p671
aS'4'
aS'2'
aS'0'
aNaa(lp672
S'John Ravenscroft'
p673
aS'1881'
p674
aS'Forward'
p675
aS'Wirral'
p676
aS'1'
aS'1'
aS'0'
aNaa(lp677
S'Ryder Richardson'
p678
aS'1881'
p679
aS'Halfback'
p680
aS'Chorlton'
p681
aS'1'
aS'1'
aS'0'
aNaa(lp682
S'James Ward'
p683
aS'1881'
p684
aS'Forward'
p685
aS'Staines'
p686
aS'2'
aS'1'
aS'0'
aNaa(lp687
S'Harry Vassall'
p688
aS'1881'
p689
aS'Forward'
p690
aS'Tadcaster'
p691
aS'5'
aS'2'
aS'3'
aNaa(lp692
S'Charles Wilson'
p693
aS'1881'
p694
aS'Forward'
p695
aS'Norfolk'
p696
aS'1'
aS'1'
aS'0'
aNaa(lp697
S'Frank Wright'
p698
aS'1881'
p699
aS'Halfback'
p700
aS'Leigh'
p701
aS'1'
aS'0'
aS'0'
aNaa(lp702
S'Teddy Beswick'
p703
aS'1882'
p704
aS'Three-quarters'
p705
aS'Penrith'
p706
aS'2'
aS'0'
aS'0'
aNaa(lp707
S'Wilfred Bolton'
p708
aS'1882'
p709
aS'Three-quarters'
p710
aS'Sx'
p711
aS'11'
p712
aS'7'
aS'6'
aNaa(lp713
S'Herbert Fuller'
p714
aS'1882'
p715
aS'Forward'
p716
aS'Bath'
p717
aS'6'
aS'4'
aS'0'
aNaa(lp718
S'James Hunt'
p719
aS'1882'
p720
aS'Forward'
p721
aS'Preston'
p722
aS'3'
aS'1'
aS'0'
aNaa(lp723
S'Bernard Middleton'
p724
aS'1882'
p725
aS'Forward'
p726
aS'Whitehaven'
p727
aS'2'
aS'1'
aS'0'
aNaa(lp728
S'Aubrey Spurling'
p729
aS'1882'
p730
aS'Forward'
p731
aS'Camberwell'
p732
aS'1'
aS'0'
aS'0'
aNaa(lp733
S'Philip Newton'
p734
aS'1882'
p735
aS'Forward'
p736
aS'Brentford'
p737
aS'1'
aS'0'
aS'0'
aNaa(lp738
S'John Payne'
p739
aS'1882'
p740
aS'Halfback'
p741
aS'Lancs'
p742
aS'7'
aS'6'
aS'0'
aNaa(lp743
S'William Tatham'
p744
aS'1882'
p745
aS'Forward'
p746
aS'Walsingham'
p747
aS'7'
aS'6'
aS'1'
aNaa(lp748
S'Arthur Evanson'
p749
aS'1882'
p750
aS'Three-quarters'
p751
aS'nr.Usk'
p752
aS'4'
aS'4'
aS'0'
aNaa(lp753
S'Robert Henderson'
p754
aS'1882'
p755
aS'Forward'
p756
aS'Calcutta'
p757
aS'5'
aS'5'
aS'1'
aNaa(lp758
S'Richard Kindersley'
p759
aS'1882'
p760
aS'Forward'
p761
aS'Devon'
p762
aS'3'
aS'3'
aS'2'
aNaa(lp763
S'Alan Rotherham'
p764
aS'1882'
p765
aS'Halfback'
p766
aS'Coventry'
p767
aS'12'
p768
aS'8'
aS'2'
aNaa(lp769
S'Graham Standing'
p770
aS'1882'
p771
aS'Forward'
p772
aS'Clapham'
p773
aS'2'
aS'2'
aS'0'
aNaa(lp774
S'Arthur Taylor'
p775
aS'1882'
p776
aS'Fullback'
p777
aS'Greenwich'
p778
aS'4'
aS'4'
aS'0'
aNaa(lp779
S'Gregory Wade'
p780
aS'1882'
p781
aS'Three-quarters'
p782
aS'NSW'
p783
aS'8'
aS'8'
aS'7'
aNaa(lp784
S'Charles Wooldridge'
p785
aS'1882'
p786
aS'Forward'
p787
aS'Winchester'
p788
aS'7'
aS'7'
aS'0'
aNaa(lp789
S'Edward Moore'
p790
aS'1883'
p791
aS'Forward'
p792
aS'Dudley'
p793
aS'2'
aS'2'
aS'0'
aNaa(lp794
S'Richard Pattisson'
p795
aS'1883'
p796
aS'Forward'
p797
aS'Tonbridge'
p798
aS'2'
aS'2'
aS'0'
aNaa(lp799
S'Henry Tristram'
p800
aS'1883'
p801
aS'Fullback'
p802
aS'Durham'
p803
aS'5'
aS'4'
aS'0'
aNaa(lp804
S'Charles Chapman'
p805
aS'1884'
p806
aS'Three-quarters'
p807
aS'Lincs'
p808
aS'1'
aS'1'
aS'0'
aNaa(lp809
S'Charles Marriott'
p810
aS'1884'
p811
aS'Forward'
p812
aS'Suffolk'
p813
aS'7'
aS'5'
aS'0'
aNaa(lp814
S'Edward Strong'
p815
aS'1884'
p816
aS'Forward'
p817
aS'Axbridge'
p818
aS'3'
aS'3'
aS'0'
aNaa(lp819
S'Henry Bell'
p820
aS'1884'
p821
aS'Forward'
p822
aS'Liverpool'
p823
aS'1'
aS'1'
aS'0'
aNaa(lp824
S'Herbert Fallas'
p825
aS'1884'
p826
aS'Three-quarters'
p827
aS'Wakefield'
p828
aS'1'
aS'1'
aS'0'
aNaa(lp829
S'Charles Sample'
p830
aS'1884'
p831
aS'Fullback'
p832
aS'Castle Ward'
p833
aS'3'
aS'2'
aS'0'
aNaa(lp834
S'Alfred Teggin'
p835
aS'1884'
p836
aS'Forward'
p837
aS'Manchester'
p838
aS'6'
aS'3'
aS'1'
aNaa(lp839
S'Henry Wigglesworth'
p840
aS'1884'
p841
aS'Three-quarters'
p842
aS'Doncaster'
p843
aS'1'
aS'1'
aS'0'
aNaa(lp844
S'Albert Wood'
p845
aS'1884'
p846
aS'Forward'
p847
aS'date unknown'
p848
aS'1'
aS'1'
aS'0'
aNaa(lp849
S'Edward Court'
p850
aS'1885'
p851
aS'Forward'
p852
aS'Northwich'
p853
aS'1'
aS'1'
aS'0'
aNaa(lp854
S'John Hawcridge'
p855
aS'1885'
p856
aS'Three-quarters'
p857
aS'Macclesfield'
p858
aS'2'
aS'2'
aS'2'
aNaa(lp859
S'Arthur Kemble'
p860
aS'1885'
p861
aS'Forward'
p862
aS'Carlisle'
p863
aS'3'
aS'2'
aS'0'
aNaa(lp864
S'Henry Ryalls'
p865
aS'1885'
p866
aS'Forward'
p867
aS'Wirral'
p868
aS'2'
aS'2'
aS'1'
aNaa(lp869
S'Frank (Slazenger-)Moss'
p870
aS'1885'
p871
aS'Forward'
p872
aS'Manchester'
p873
aS'3'
aS'3'
aS'0'
aNaa(lp874
S'Drewy Stoddart'
p875
aS'1885'
p876
aS'Three-quarters'
p877
aS'S Shields'
p878
aS'10'
p879
aS'6'
aS'2'
aS'5'
aa(lp880
S'Charles Horley'
p881
aS'1885'
p882
aS'Forward'
p883
aS'Pendlebury'
p884
aS'1'
aS'1'
aS'0'
aNaa(lp885
S'Fred Bonsor'
p886
aS'1886'
p887
aS'Halfback'
p888
aS'1862'
p889
aS'6'
aS'3'
aS'0'
aS'0'
aa(lp890
S'William Clibbon'
p891
aS'1886'
p892
aS'Forward'
p893
aS'Co Tipperary'
p894
aS'6'
aS'2'
aS'0'
aNaa(lp895
S'Charles Elliot'
p896
aS'1886'
p897
aS'Forward'
p898
aS'Sunderland'
p899
aS'1'
aS'1'
aS'0'
aNaa(lp900
S'Froude Hancock'
p901
aS'1886'
p902
aS'Forward'
p903
aS'Somerset'
p904
aS'10'
p905
aS'8'
aS'1'
aS'3'
aa(lp906
S'Rupert Inglis'
p907
aS'1886'
p908
aS'Forward'
p909
aS'Hanover Square'
p910
aS'3'
aS'2'
aS'0'
aNaa(lp911
S'George Jeffery'
p912
aS'1886'
p913
aS'Forward'
p914
aS'London'
p915
aS'6'
aS'2'
aS'1'
aNaa(lp916
S'Rawson Robertshaw'
p917
aS'1886'
p918
aS'Three-quarters'
p919
aS'Bradford'
p920
aS'5'
aS'2'
aS'0'
aNaa(lp921
S'Edgar Wilkinson'
p922
aS'1886'
p923
aS'Forward'
p924
aS'Bradford'
p925
aS'5'
aS'2'
aS'2'
aNaa(lp926
S'Norman Spurling'
p927
aS'1886'
p928
aS'Forward'
p929
aS'Blackheath'
p930
aS'3'
aS'1'
aS'0'
aNaa(lp931
S'Rev Brutton'
p932
aS'1886'
p933
aS'Three-quarters'
p934
aS'Tynemouth'
p935
aS'1'
aS'0'
aS'0'
aNaa(lp936
S'Hiatt Baker'
p937
aS'1887'
p938
aS'Forward'
p939
aS'Clifton'
p940
aS'1'
aS'0'
aS'0'
aNaa(lp941
S'Charles Cleveland'
p942
aS'1887'
p943
aS'Forward'
p944
aS'Bombay'
p945
aS'2'
aS'0'
aS'0'
aNaa(lp946
S'John Dewhurst'
p947
aS'1887'
p948
aS'Forward'
p949
aS'Yorks'
p950
aS'4'
aS'0'
aS'0'
aS'0'
aa(lp951
S'John Hickson'
p952
aS'1887'
p953
aS'Forward'
p954
aS'Clapham Common'
p955
aS'6'
aS'2'
aS'0'
aS'0'
aa(lp956
S'John le Fleming'
p957
aS'1887'
p958
aS'Three-quarters'
p959
aS'Tonbridge'
p960
aS'1'
aS'0'
aS'0'
aNaa(lp961
S'Dicky Lockwood'
p962
aS'1887'
p963
aS'Three-quarters'
p964
aS'Crigglestone'
p965
aS'14'
p966
aS'8'
aS'5'
aS'28'
p967
aa(lp968
S'Sam Roberts'
p969
aS'1887'
p970
aS'Fullback'
p971
aS'date unknown'
p972
aS'2'
aS'0'
aS'0'
aNaa(lp973
S'Bob Seddon'
p974
aS'1887'
p975
aS'Forward'
p976
aS'Lancashire'
p977
aS'3'
aS'0'
aS'0'
aNaa(lp978
S'Arthur Fagan'
p979
aS'1887'
p980
aS'Three-quarters'
p981
aS'Calcutta'
p982
aS'1'
aS'0'
aS'0'
aNaa(lp983
S'Frank Pease'
p984
aS'1887'
p985
aS'Forward'
p986
aS'Darlington'
p987
aS'1'
aS'0'
aS'0'
aNaa(lp988
S'Mason Scott'
p989
aS'1887'
p990
aS'Halfback'
p991
aS'Newcastle-upon-Tyne'
p992
aS'3'
aS'2'
aS'0'
aS'0'
aa(lp993
S'Charles Anderton'
p994
aS'1889'
p995
aS'Forward'
p996
aS'Machester'
p997
aS'1'
aS'1'
aS'0'
aS'0'
aa(lp998
S'Harry Bedford'
p999
aS'1889'
p1000
aS'Forward'
p1001
aS'Leeds'
p1002
aS'3'
aS'3'
aS'2'
aS'2'
aa(lp1003
S'John Cave'
p1004
aS'1889'
p1005
aS'Forward'
p1006
aS'Surbiton'
p1007
aS'1'
aS'1'
aS'0'
aS'0'
aa(lp1008
S'Frank Evershed'
p1009
aS'1889'
p1010
aS'Forward'
p1011
aS'Staffs'
p1012
aS'10'
p1013
aS'7'
aS'4'
aS'7'
aa(lp1014
S'Donald Jowett'
p1015
aS'1889'
p1016
aS'Forward'
p1017
aS'Bradford'
p1018
aS'6'
aS'5'
aS'0'
aS'2'
aa(lp1019
S'Frederick Lowrie'
p1020
aS'1889'
p1021
aS'Forward'
p1022
aS'Wakefield'
p1023
aS'2'
aS'1'
aS'0'
aS'0'
aa(lp1024
S'Arthur Robinson'
p1025
aS'1889'
p1026
aS'Forward'
p1027
aS'Darlington'
p1028
aS'4'
aS'3'
aS'0'
aS'0'
aa(lp1029
S'Artie Royle'
p1030
aS'1889'
p1031
aS'Fullback'
p1032
aS'date unknown'
p1033
aS'1'
aS'1'
aS'0'
aS'0'
aa(lp1034
S'William Scott'
p1035
aS'1889'
p1036
aS'Halfback'
p1037
aS'Gateshead'
p1038
aS'1'
aS'1'
aS'0'
aS'0'
aa(lp1039
S'John Sutcliffe'
p1040
aS'1889'
p1041
aS'Three-quarters'
p1042
aS'nr Halifax'
p1043
aS'1'
aS'1'
aS'1'
aS'3'
aa(lp1044
S'Harry Wilkinson'
p1045
aS'1889'
p1046
aS'Forward'
p1047
aS'Halifax'
p1048
aS'1'
aS'1'
aS'0'
aS'0'
aa(lp1049
S'William Yiend'
p1050
aS'1889'
p1051
aS'Forward'
p1052
aS'Winchcome'
p1053
aS'6'
aS'5'
aS'0'
aS'0'
aa(lp1054
S'Richard Budworth'
p1055
aS'1890'
p1056
aS'Forward'
p1057
aS'Essex'
p1058
aS'3'
aS'1'
aS'1'
aS'1'
aa(lp1059
S'Francis Fox'
p1060
aS'1890'
p1061
aS'Halfback'
p1062
aS'Wellington'
p1063
aS'2'
aS'1'
aS'0'
aS'0'
aa(lp1064
S'Willie Mitchell'
p1065
aS'1890'
p1066
aS'Fullback'
p1067
aS'Quebec'
p1068
aS'10'
p1069
aS'7'
aS'0'
aS'3'
aa(lp1070
S'Dolly Morrison'
p1071
aS'1890'
p1072
aS'Three-quarters'
p1073
aS'Guisborough'
p1074
aS'4'
aS'3'
aS'1'
aS'1'
aa(lp1075
S'John Rogers'
p1076
aS'1890'
p1077
aS'Forward'
p1078
aS'Aston'
p1079
aS'4'
aS'2'
aS'1'
aS'1'
aa(lp1080
S'Jim Valentine'
p1081
aS'1890'
p1082
aS'Centre'
p1083
aS'Salford'
p1084
aS'4'
aS'1'
aS'0'
aS'2'
aa(lp1085
S'Samuel Woods'
p1086
aS'1890'
p1087
aS'Forward'
p1088
aS'NSW'
p1089
aS'13'
p1090
aS'9'
aS'1'
aS'6'
aa(lp1091
S'James Wright'
p1092
aS'1890'
p1093
aS'Halfback'
p1094
aS'Yorks'
p1095
aS'1'
aS'0'
aS'0'
aS'0'
aa(lp1096
S'Randolph Aston'
p1097
aS'1890'
p1098
aS'Centre'
p1099
aS'Kensington'
p1100
aS'5'
aS'5'
aS'2'
aS'2'
aa(lp1101
S'Jack Dyson'
p1102
aS'1890'
p1103
aS'Three-quarters'
p1104
aS'Skelmanthorpe'
p1105
aS'4'
aS'3'
aS'1'
aS'2'
aa(lp1106
S'Edgar Holmes'
p1107
aS'1890'
p1108
aS'Forward'
p1109
aS'Bradford'
p1110
aS'2'
aS'2'
aS'0'
aS'0'
aa(lp1111
S'Jack Toothill'
p1112
aS'1890'
p1113
aS'Forward'
p1114
aS'Bradford'
p1115
aS'12'
p1116
aS'9'
aS'1'
aS'1'
aa(lp1117
S'William Spence'
p1118
aS'1890'
p1119
aS'Halfback'
p1120
aS'Cheshire'
p1121
aS'1'
aS'1'
aS'0'
aS'0'
aa(lp1122
S'Frederick Alderson'
p1123
aS'1891'
p1124
aS'Three-quarters'
p1125
aS'Nthumberlnd'
p1126
aS'6'
aS'4'
aS'1'
aS'11'
p1127
aa(lp1128
S'John Berry'
p1129
aS'1891'
p1130
aS'Halfback'
p1131
aS'Fellside'
p1132
aS'3'
aS'2'
aS'0'
aS'0'
aa(lp1133
S'William Bromet'
p1134
aS'1891'
p1135
aS'Forward'
p1136
aS'Tadcaster'
p1137
aS'15'
p1138
aS'11'
p1139
aS'1'
aS'2'
aa(lp1140
S'Percy Christopherson'
p1141
aS'1891'
p1142
aS'Three-quarters'
p1143
aS'Blackheath'
p1144
aS'2'
aS'1'
aS'2'
aS'2'
aa(lp1145
S'Tom Kent'
p1146
aS'1891'
p1147
aS'Forward'
p1148
aS'Nottingham'
p1149
aS'6'
aS'5'
aS'0'
aS'0'
aa(lp1150
S'William Leake'
p1151
aS'1891'
p1152
aS'Halfback'
p1153
aS'Ceylon'
p1154
aS'3'
aS'2'
aS'0'
aS'0'
aa(lp1155
S'Eustace North'
p1156
aS'1891'
p1157
aS'Forward'
p1158
aS'Lewisham'
p1159
aS'3'
aS'2'
aS'0'
aS'0'
aa(lp1160
S'James Richards'
p1161
aS'1891'
p1162
aS'Forward'
p1163
aS'Warks'
p1164
aS'3'
aS'2'
aS'0'
aS'0'
aa(lp1165
S'Roger Wilson'
p1166
aS'1891'
p1167
aS'Forward'
p1168
aS'W Derby'
p1169
aS'3'
aS'2'
aS'2'
aS'2'
aa(lp1170
S'Launcelot Percival'
p1171
aS'1891'
p1172
aS'Forward'
p1173
aS'Clifton'
p1174
aS'3'
aS'2'
aS'1'
aS'2'
aa(lp1175
S'Edgar Bonham-Carter'
p1176
aS'1891'
p1177
aS'Forward'
p1178
aS'Kensington'
p1179
aS'1'
aS'0'
aS'0'
aS'0'
aa(lp1180
S'Alfred Allport'
p1181
aS'1892'
p1182
aS'Forward'
p1183
aS'Brixton'
p1184
aS'5'
aS'3'
aS'0'
aS'0'
aa(lp1185
S'Arthur Briggs'
p1186
aS'1892'
p1187
aS'Halfback'
p1188
aS'?'
aS'3'
aS'3'
aS'0'
aS'0'
aa(lp1189
S'Edward Bullough'
p1190
aS'1892'
p1191
aS'Forward'
p1192
aS'Wigan'
p1193
aS'3'
aS'3'
aS'0'
aS'0'
aa(lp1194
S'Charles Emmott'
p1195
aS'1892'
p1196
aS'Halfback'
p1197
aS'Bradford'
p1198
aS'1'
aS'1'
aS'0'
aS'0'
aa(lp1199
S'Scatter Hubbard'
p1200
aS'1892'
p1201
aS'Three-quarters'
p1202
aS'Benares'
p1203
aS'2'
aS'2'
aS'1'
aS'2'
aa(lp1204
S'William Nicholl'
p1205
aS'1892'
p1206
aS'Forward'
p1207
aS'Yorks?'
p1208
aS'2'
aS'2'
aS'1'
aS'2'
aa(lp1209
S'James Pyke'
p1210
aS'1892'
p1211
aS'Forward'
p1212
aS'St Helens'
p1213
aS'1'
aS'1'
aS'0'
aS'0'
aa(lp1214
S'Wardlaw Thomson'
p1215
aS'1892'
p1216
aS'Centre'
p1217
aS'South Rhodesia'
p1218
aS'4'
aS'3'
aS'1'
aS'3'
aa(lp1219
S'Abel Ashworth'
p1220
aS'1892'
p1221
aS'Forward'
p1222
aS'Ashton'
p1223
aS'1'
aS'1'
aS'0'
aS'0'
aa(lp1224
S'Samuel Houghton'
p1225
aS'1892'
p1226
aS'Fullback'
p1227
aS'Runcorn'
p1228
aS'2'
aS'2'
aS'0'
aS'0'
aa(lp1229
S'James Marsh'
p1230
aS'1889'
p1231
aS'Three-quarters'
p1232
aS'?'
aS'3'
aS'3'
aS'0'
aS'0'
aa(lp1233
S'Ernest Taylor'
p1234
aS'1892'
p1235
aS'Halfback'
p1236
aS'Newcastle-upon-Tyne'
p1237
aS'14'
p1238
aS'7'
aS'2'
aS'15'
p1239
aa(lp1240
S'Harry Bradshaw'
p1241
aS'1892'
p1242
aS'Forward'
p1243
aS'Leeds'
p1244
aS'7'
aS'3'
aS'2'
aS'5'
aa(lp1245
S'Thomas Coop'
p1246
aS'1892'
p1247
aS'Fullback'
p1248
aS'Lancs'
p1249
aS'1'
aS'1'
aS'0'
aS'0'
aa(lp1250
S'Harry Varley'
p1251
aS'1892'
p1252
aS'Scrum-half'
p1253
aS'Yorks'
p1254
aS'1'
aS'1'
aS'0'
aS'0'
aa(lp1255
S'Tom Broadley'
p1256
aS'1893'
p1257
aS'Forward'
p1258
aS'Bingley'
p1259
aS'6'
aS'1'
aS'0'
aS'0'
aa(lp1260
S'Robert de Winton'
p1261
aS'1893'
p1262
aS'Halfback'
p1263
aS'Hay'
p1264
aS'1'
aS'0'
aS'0'
aS'0'
aa(lp1265
S'Edwin Field'
p1266
aS'1893'
p1267
aS'Fullback'
p1268
aS'Hampstead'
p1269
aS'2'
aS'1'
aS'0'
aS'0'
aa(lp1270
S'John Greenwell'
p1271
aS'1893'
p1272
aS'Forward'
p1273
aS'Tynemouth'
p1274
aS'2'
aS'1'
aS'0'
aS'0'
aa(lp1275
S'Frederick Lohden'
p1276
aS'1893'
p1277
aS'Forward'
p1278
aS'Hartlepool'
p1279
aS'1'
aS'0'
aS'1'
aS'2'
aa(lp1280
S'Howard Marshall'
p1281
aS'1891'
p1282
aS'Halfback'
p1283
aS'Sunderland'
p1284
aS'3'
aS'2'
aS'3'
aS'6'
aa(lp1285
S'Philip Maud'
p1286
aS'1893'
p1287
aS'Forward'
p1288
aS'Sudbury'
p1289
aS'2'
aS'1'
aS'0'
aS'0'
aa(lp1290
S'Horace Duckett'
p1291
aS'1893'
p1292
aS'Halfback'
p1293
aS'Bradford'
p1294
aS'2'
aS'1'
aS'0'
aS'0'
aa(lp1295
S'Thomas Nicholson'
p1296
aS'1893'
p1297
aS'Three-quarters'
p1298
aS'date unknown'
p1299
aS'1'
aS'1'
aS'0'
aS'0'
aa(lp1300
S'Frederic Jones'
p1301
aS'1893'
p1302
aS'Three-quarters'
p1303
aS'Birkenhead'
p1304
aS'1'
aS'0'
aS'0'
aS'0'
aa(lp1305
S'John Robinson'
p1306
aS'1893'
p1307
aS'Forward'
p1308
aS'Burton-on-Trent'
p1309
aS'4'
aS'2'
aS'1'
aS'3'
aa(lp1310
S'Buster Soane'
p1311
aS'1893'
p1312
aS'Forward'
p1313
aS'Bath'
p1314
aS'4'
aS'1'
aS'0'
aS'0'
aa(lp1315
S'Cyril Wells'
p1316
aS'1893'
p1317
aS'Halfback'
p1318
aS'London'
p1319
aS'6'
aS'2'
aS'0'
aS'0'
aa(lp1320
S'Fred Byrne'
p1321
aS'1894'
p1322
aS'Fullback'
p1323
aS'Birmingham'
p1324
aS'17'
p1325
aS'7'
aS'0'
aS'36'
p1326
aa(lp1327
S'Frederick Firth'
p1328
aS'1894'
p1329
aS'Wing'
p1330
aS'Yorks'
p1331
aS'3'
aS'1'
aS'0'
aS'0'
aa(lp1332
S'John Hall'
p1333
aS'1894'
p1334
aS'Forward'
p1335
aS'date unknown'
p1336
aS'3'
aS'1'
aS'0'
aS'0'
aa(lp1337
S'Charles Hooper'
p1338
aS'1894'
p1339
aS'Centre'
p1340
aS'Glos'
p1341
aS'3'
aS'1'
aS'0'
aS'0'
aa(lp1342
S'Samuel Morfitt'
p1343
aS'1894'
p1344
aS'Centre'
p1345
aS'Kingston-upon-Hull'
p1346
aS'6'
aS'2'
aS'3'
aS'9'
aa(lp1347
S'Harry Speed'
p1348
aS'1894'
p1349
aS'Forward'
p1350
aS'Castleford'
p1351
aS'4'
aS'1'
aS'0'
aS'0'
aa(lp1352
S'William Tucker'
p1353
aS'1894'
p1354
aS'Forward'
p1355
aS'1872'
p1356
aS'5'
aS'3'
aS'0'
aS'0'
aa(lp1357
S'Bob Wood'
p1358
aS'1894'
p1359
aS'Halfback'
p1360
aS'Pontefract'
p1361
aS'1'
aS'0'
aS'0'
aS'0'
aa(lp1362
S'Albert Elliott'
p1363
aS'1894'
p1364
aS'Forward'
p1365
aS'Sthampton'
p1366
aS'1'
aS'0'
aS'0'
aS'0'
aa(lp1367
S'Walter Jackson'
p1368
aS'1894'
p1369
aS'Wing'
p1370
aS'Gloucester'
p1371
aS'1'
aS'0'
aS'0'
aS'0'
aa(lp1372
S'William Walton'
p1373
aS'1894'
p1374
aS'Forward'
p1375
aS'?'
aS'1'
aS'0'
aS'0'
aS'0'
aa(lp1376
S'Edward Baker'
p1377
aS'1895'
p1378
aS'Centre'
p1379
aS'United States'
p1380
aS'7'
aS'3'
aS'0'
aS'0'
aa(lp1381
S'Godfrey Carey'
p1382
aS'1895'
p1383
aS'Forward'
p1384
aS'Guernsey'
p1385
aS'5'
aS'3'
aS'1'
aS'3'
aa(lp1386
S'Dick Cattell'
p1387
aS'1895'
p1388
aS'Fly-half'
p1389
aS'Erdington'
p1390
aS'7'
aS'3'
aS'2'
aS'6'
aa(lp1391
S'John Fegan'
p1392
aS'1895'
p1393
aS'Wing'
p1394
aS'Kent'
p1395
aS'3'
aS'2'
aS'1'
aS'3'
aa(lp1396
S'Horace Finlinson'
p1397
aS'1895'
p1398
aS'Forward'
p1399
aS'Bedford'
p1400
aS'3'
aS'2'
aS'0'
aS'0'
aa(lp1401
S'Frederick Leslie-Jones'
p1402
aS'1895'
p1403
aS'Centre'
p1404
aS'Fylde'
p1405
aS'2'
aS'2'
aS'1'
aS'3'
aa(lp1406
S'Frank Mitchell'
p1407
aS'1895'
p1408
aS'Forward'
p1409
aS'Market Weighton'
p1410
aS'6'
aS'3'
aS'1'
aS'5'
aa(lp1411
S'Francis Poole'
p1412
aS'1895'
p1413
aS'Forward'
p1414
aS'Houghton'
p1415
aS'3'
aS'2'
aS'0'
aS'0'
aa(lp1416
S'Charles Thomas'
p1417
aS'1895'
p1418
aS'Forward'
p1419
aS'Barnstaple'
p1420
aS'4'
aS'2'
aS'1'
aS'3'
aa(lp1421
S'Herbert Ward'
p1422
aS'1895'
p1423
aS'Fullback'
p1424
aS'Bradford'
p1425
aS'1'
aS'1'
aS'0'
aS'0'
aa(lp1426
S'Thomas Dobson'
p1427
aS'1895'
p1428
aS'Centre'
p1429
aS'Bradford'
p1430
aS'1'
aS'0'
aS'0'
aS'0'
aa(lp1431
S'Ernest Fookes'
p1432
aS'1896'
p1433
aS'Wing'
p1434
aS'Waverley'
p1435
aS'10'
p1436
aS'3'
aS'5'
aS'15'
p1437
aa(lp1438
S'Lyndhurst Giblin'
p1439
aS'1896'
p1440
aS'Forward'
p1441
aS'Tasmania'
p1442
aS'3'
aS'2'
aS'0'
aS'0'
aa(lp1443
S'John Pinch'
p1444
aS'1896'
p1445
aS'Forward'
p1446
aS'Lancaster'
p1447
aS'3'
aS'2'
aS'0'
aS'0'
aa(lp1448
S'John Rhodes'
p1449
aS'1896'
p1450
aS'Forward'
p1451
aS'Pontefract'
p1452
aS'3'
aS'1'
aS'0'
aS'0'
aa(lp1453
S'Anthony Starks'
p1454
aS'1896'
p1455
aS'Forward'
p1456
aS'Castleford'
p1457
aS'2'
aS'1'
aS'0'
aS'0'
aa(lp1458
S'John Ward'
p1459
aS'1896'
p1460
aS'Forward'
p1461
aS'Castleford'
p1462
aS'3'
aS'1'
aS'0'
aS'0'
aa(lp1463
S'Willie Whiteley'
p1464
aS'1896'
p1465
aS'Forward'
p1466
aS'Yorks'
p1467
aS'1'
aS'1'
aS'0'
aS'0'
aa(lp1468
S'James Baron'
p1469
aS'1896'
p1470
aS'Forward'
p1471
aS'Micklethwaite'
p1472
aS'3'
aS'0'
aS'0'
aS'0'
aa(lp1473
S'George Hughes'
p1474
aS'1896'
p1475
aS'Forward'
p1476
aS'Yorks'
p1477
aS'1'
aS'0'
aS'0'
aS'0'
aa(lp1478
S'Edward Knowles'
p1479
aS'1896'
p1480
aS'Forward'
p1481
aS'Cumb.'
p1482
aS'2'
aS'1'
aS'0'
aS'0'
aa(lp1483
S'Bob Poole'
p1484
aS'1896'
p1485
aS'Fullback'
p1486
aS'Hartlepool'
p1487
aS'1'
aS'0'
aS'0'
aS'0'
aa(lp1488
S'William Ashford'
p1489
aS'1897'
p1490
aS'Forward'
p1491
aS'Devon'
p1492
aS'4'
aS'1'
aS'0'
aS'0'
aa(lp1493
S'Francis Byrne'
p1494
aS'1897'
p1495
aS'Wing'
p1496
aS'Birmingham'
p1497
aS'1'
aS'0'
aS'0'
aS'0'
aa(lp1498
S'Percy Ebdon'
p1499
aS'1897'
p1500
aS'Forward'
p1501
aS'Somerset'
p1502
aS'2'
aS'0'
aS'0'
aS'0'
aa(lp1503
S'Tom Fletcher'
p1504
aS'1897'
p1505
aS'Centre'
p1506
aS'Cumberland'
p1507
aS'1'
aS'0'
aS'0'
aS'0'
aa(lp1508
S'Frederick Jacob'
p1509
aS'1897'
p1510
aS'Forward'
p1511
aS'Kent'
p1512
aS'8'
aS'2'
aS'0'
aS'0'
aa(lp1513
S'Roland Mangles'
p1514
aS'1897'
p1515
aS'Forward'
p1516
aS'Guildford'
p1517
aS'2'
aS'0'
aS'0'
aS'0'
aa(lp1518
S'Robert Oakes'
p1519
aS'1897'
p1520
aS'Forward'
p1521
aS'Hartlepool'
p1522
aS'8'
aS'2'
aS'0'
aS'0'
aa(lp1523
S'Wilfred Stoddart'
p1524
aS'1897'
p1525
aS'Forward'
p1526
aS'Liverpool'
p1527
aS'3'
aS'1'
aS'0'
aS'0'
aa(lp1528
S'Frank Stout'
p1529
aS'1897'
p1530
aS'Forward'
p1531
aS'Gloucester'
p1532
aS'21'
p1533
aS'5'
aS'1'
aS'5'
aa(lp1534
S'William Bunting'
p1535
aS'1897'
p1536
aS'Centre'
p1537
aS'Daventry'
p1538
aS'9'
aS'2'
aS'0'
aS'0'
aa(lp1539
S'Samuel Northmore'
p1540
aS'1897'
p1541
aS'Fly-half'
p1542
aS'Cumberland'
p1543
aS'1'
aS'0'
aS'0'
aS'0'
aa(lp1544
S'Tot Robinson'
p1545
aS'1897'
p1546
aS'Wing'
p1547
aS'Gateshead'
p1548
aS'8'
aS'2'
aS'8'
aS'24'
p1549
aa(lp1550
S'John Taylor'
p1551
aS'1897'
p1552
aS'Centre'
p1553
aS'?'
aS'11'
p1554
aS'3'
aS'1'
aS'5'
aa(lp1555
S'James Davidson'
p1556
aS'1897'
p1557
aS'Forward'
p1558
aS'?'
aS'5'
aS'2'
aS'0'
aS'0'
aa(lp1559
S'Herbert Dudgeon'
p1560
aS'1897'
p1561
aS'Forward'
p1562
aS'Tynemouth'
p1563
aS'7'
aS'2'
aS'0'
aS'0'
aa(lp1564
S'Osbert Mackie'
p1565
aS'1896'
p1566
aS'Centre'
p1567
aS'Wakefield'
p1568
aS'6'
aS'4'
aS'1'
aS'7'
aa(lp1569
S'Joseph Blacklock'
p1570
aS'1898'
p1571
aS'Forward'
p1572
aS'S Shields'
p1573
aS'2'
aS'0'
aS'0'
aS'0'
aa(lp1574
S'Philip Jacob'
p1575
aS'1898'
p1576
aS'Scrum-half'
p1577
aS'Seoni'
p1578
aS'1'
aS'0'
aS'0'
aS'0'
aa(lp1579
S'Harry Myers'
p1580
aS'1898'
p1581
aS'Fly-half'
p1582
aS'Leeds'
p1583
aS'1'
aS'0'
aS'0'
aS'0'
aa(lp1584
S'Richard Pierce'
p1585
aS'1898'
p1586
aS'Forward'
p1587
aS'W Derby'
p1588
aS'2'
aS'0'
aS'0'
aS'0'
aa(lp1589
S'Frederick Shaw'
p1590
aS'1898'
p1591
aS'Forward'
p1592
aS'Huddersfield'
p1593
aS'1'
aS'0'
aS'0'
aS'0'
aa(lp1594
S'Charles Wilson'
p1595
aS'1898'
p1596
aS'Forward'
p1597
aS'Co Cork'
p1598
aS'1'
aS'0'
aS'0'
aS'0'
aa(lp1599
S'William Pilkington'
p1600
aS'1898'
p1601
aS'Wing'
p1602
aS'Prescot'
p1603
aS'1'
aS'0'
aS'0'
aS'0'
aa(lp1604
S'Harold Ramsden'
p1605
aS'1898'
p1606
aS'Forward'
p1607
aS'Bingley'
p1608
aS'2'
aS'1'
aS'0'
aS'0'
aa(lp1609
S'Arthur Rotherham'
p1610
aS'1891'
p1611
aS'Scrum-half'
p1612
aS'Coventry'
p1613
aS'8'
aS'4'
aS'0'
aS'4'
aa(lp1614
S'Percy Royds'
p1615
aS'1898'
p1616
aS'Centre'
p1617
aS'Rochdale'
p1618
aS'3'
aS'1'
aS'1'
aS'3'
aa(lp1619
S'James Shaw'
p1620
aS'1898'
p1621
aS'Forward'
p1622
aS'Burton'
p1623
aS'2'
aS'1'
aS'0'
aS'0'
aa(lp1624
S'Percy Stout'
p1625
aS'1898'
p1626
aS'Centre'
p1627
aS'Gloucester'
p1628
aS'5'
aS'1'
aS'1'
aS'3'
aa(lp1629
S'Geoffrey Unwin'
p1630
aS'1898'
p1631
aS'Fly-half'
p1632
aS'Ecclesall Bay'
p1633
aS'1'
aS'0'
aS'0'
aS'0'
aa(lp1634
S'Robert Livesay'
p1635
aS'1898'
p1636
aS'Fly-half'
p1637
aS'Gillinghm'
p1638
aS'2'
aS'1'
aS'0'
aS'0'
aa(lp1639
S'John Daniell'
p1640
aS'1899'
p1641
aS'Forward'
p1642
aS'Bath'
p1643
aS'7'
aS'4'
aS'0'
aS'0'
aa(lp1644
S'Joseph Davidson'
p1645
aS'1899'
p1646
aS'Forward'
p1647
aS'Chester-le-Street'
p1648
aS'2'
aS'0'
aS'0'
aS'0'
aa(lp1649
S'Reginald Forrest'
p1650
aS'1899'
p1651
aS'Wing'
p1652
aS'Bristol'
p1653
aS'6'
aS'2'
aS'1'
aS'3'
aa(lp1654
S'Octopus Gamlin'
p1655
aS'1899'
p1656
aS'Fullback'
p1657
aS'Somerset'
p1658
aS'15'
p1659
aS'4'
aS'0'
aS'3'
aa(lp1660
S'George Gibson'
p1661
aS'1899'
p1662
aS'Forward'
p1663
aS'Gateshead'
p1664
aS'6'
aS'3'
aS'0'
aS'0'
aa(lp1665
S'Charles Harper'
p1666
aS'1899'
p1667
aS'Forward'
p1668
aS'Caistor'
p1669
aS'1'
aS'0'
aS'0'
aS'0'
aa(lp1670
S'William Mortimer'
p1671
aS'1896'
p1672
aS'Forward'
p1673
aS'Warrington'
p1674
aS'5'
aS'3'
aS'0'
aS'0'
aa(lp1675
S'Stanley Anderson'
p1676
aS'1899'
p1677
aS'Wing'
p1678
aS'r Tynemouth'
p1679
aS'1'
aS'0'
aS'0'
aS'0'
aa(lp1680
S'Arthur Darby'
p1681
aS'1899'
p1682
aS'Forward'
p1683
aS'Chester'
p1684
aS'1'
aS'0'
aS'0'
aS'0'
aa(lp1685
S'John Shooter'
p1686
aS'1899'
p1687
aS'Forward'
p1688
aS'Nottingham'
p1689
aS'4'
aS'1'
aS'0'
aS'0'
aa(lp1690
S'Aubrey Dowson'
p1691
aS'1899'
p1692
aS'Forward'
p1693
aS'Stockport'
p1694
aS'1'
aS'0'
aS'0'
aS'0'
aa(lp1695
S'Reginald Hobbs'
p1696
aS'1899'
p1697
aS'Forward'
p1698
aS'Tyldesley'
p1699
aS'2'
aS'0'
aS'0'
aS'0'
aa(lp1700
S'John Matters'
p1701
aS'1899'
p1702
aS'Wing'
p1703
aS'Stoke Damerel'
p1704
aS'1'
aS'0'
aS'0'
aS'0'
aa(lp1705
S'Reginald Schwarz'
p1706
aS'1899'
p1707
aS'Fly-half'
p1708
aS'Lewisham'
p1709
aS'3'
aS'0'
aS'0'
aS'0'
aa(lp1710
S'Bim Baxter'
p1711
aS'1900'
p1712
aS'Forward'
p1713
aS'Cheshire'
p1714
aS'3'
aS'1'
aS'0'
aS'0'
aa(lp1715
S'Fred Bell'
p1716
aS'1900'
p1717
aS'Forward'
p1718
aS'Cullercoates'
p1719
aS'1'
aS'0'
aS'0'
aS'0'
aa(lp1720
S'Robert Bell'
p1721
aS'1900'
p1722
aS'Forward'
p1723
aS'Newcastle-upon-Tyne'
p1724
aS'3'
aS'1'
aS'0'
aS'0'
aa(lp1725
S'Arthur Brettargh'
p1726
aS'1900'
p1727
aS'Centre'
p1728
aS'Cheshire'
p1729
aS'8'
aS'1'
aS'1'
aS'3'
aa(lp1730
S'William Cobby'
p1731
aS'1900'
p1732
aS'Forward'
p1733
aS'Hull'
p1734
aS'1'
aS'0'
aS'0'
aS'0'
aa(lp1735
S'Arthur Cockerham'
p1736
aS'1900'
p1737
aS'Forward'
p1738
aS'Bradfo'
p1739
aS'1'
aS'0'
aS'0'
aS'0'
aa(lp1740
S'Sydney Coopper'
p1741
aS'1900'
p1742
aS'Wing'
p1743
aS'Hoo'
p1744
aS'7'
aS'1'
aS'2'
aS'6'
aa(lp1745
S'Gerald Gordon-Smith'
p1746
aS'1900'
p1747
aS'Centre'
p1748
aS'Southampton'
p1749
aS'3'
aS'1'
aS'1'
aS'7'
aa(lp1750
S'Wallace Jarman'
p1751
aS'1899'
p1752
aS'Forward'
p1753
aS'Towcester'
p1754
aS'5'
aS'3'
aS'0'
aS'0'
aa(lp1755
S'George Marsden'
p1756
aS'1900'
p1757
aS'Fly-half'
p1758
aS'Morley'
p1759
aS'3'
aS'1'
aS'0'
aS'0'
aa(lp1760
S'Elliot Nicholson'
p1761
aS'1899'
p1762
aS'Wing'
p1763
aS'W Derby'
p1764
aS'4'
aS'3'
aS'1'
aS'3'
aa(lp1765
S'Shirley Reynolds'
p1766
aS'1900'
p1767
aS'Forward'
p1768
aS'Lahore'
p1769
aS'4'
aS'1'
aS'0'
aS'0'
aa(lp1770
S'Charles Scott'
p1771
aS'1900'
p1772
aS'Forward'
p1773
aS'Wimbledon'
p1774
aS'4'
aS'1'
aS'0'
aS'0'
aa(lp1775
S'Harry Alexander'
p1776
aS'1900'
p1777
aS'Forward'
p1778
aS'Cheshire'
p1779
aS'7'
aS'2'
aS'0'
aS'7'
aa(lp1780
S'John Marquis'
p1781
aS'1900'
p1782
aS'Scrum-half'
p1783
aS'Birkenhead'
p1784
aS'2'
aS'1'
aS'0'
aS'0'
aa(lp1785
S'Alexander Todd'
p1786
aS'1896'
p1787
aS'Forward'
p1788
aS'London'
p1789
aS'6'
aS'4'
aS'1'
aS'3'
aa(lp1790
S'Arthur Luxmoore'
p1791
aS'1900'
p1792
aS'Forward'
p1793
aS'Hendon'
p1794
aS'2'
aS'0'
aS'0'
aS'0'
aa(lp1795
S'Edgar Elliot'
p1796
aS'1901'
p1797
aS'Wing'
p1798
aS'Sunderland'
p1799
aS'4'
aS'0'
aS'2'
aS'6'
aa(lp1800
S'Nigel Fletcher'
p1801
aS'1901'
p1802
aS'Forward'
p1803
aS'London'
p1804
aS'4'
aS'0'
aS'0'
aS'0'
aa(lp1805
S'Charles Gibson'
p1806
aS'1901'
p1807
aS'Forward'
p1808
aS'Gateshead'
p1809
aS'1'
aS'0'
aS'0'
aS'0'
aa(lp1810
S'David Graham'
p1811
aS'1901'
p1812
aS'Forward'
p1813
aS'Aspatria?'
p1814
aS'1'
aS'0'
aS'0'
aS'0'
aa(lp1815
S"Arthur O'Neill"
p1816
aS'1901'
p1817
aS'Forward'
p1818
aS'?'
aS'3'
aS'0'
aS'0'
aS'0'
aa(lp1819
S'Ernest Roberts'
p1820
aS'1901'
p1821
aS'Forward'
p1822
aS'Lowestoft'
p1823
aS'6'
aS'0'
aS'0'
aS'0'
aa(lp1824
S'John Sagar'
p1825
aS'1901'
p1826
aS'Fullback'
p1827
aS'Easington'
p1828
aS'2'
aS'0'
aS'0'
aS'0'
aa(lp1829
S'Whacker Smith'
p1830
aS'1901'
p1831
aS'Wing'
p1832
aS'Gloucester'
p1833
aS'1'
aS'0'
aS'0'
aS'0'
aa(lp1834
S'Elliott Vivyan'
p1835
aS'1901'
p1836
aS'Wing'
p1837
aS'Stoke Damerel'
p1838
aS'4'
aS'1'
aS'3'
aS'13'
p1839
aa(lp1840
S'Katie Walton'
p1841
aS'1901'
p1842
aS'Scrum-half'
p1843
aS'York'
p1844
aS'4'
aS'2'
aS'0'
aS'0'
aa(lp1845
S'Charlie Hall'
p1846
aS'1901'
p1847
aS'Forward'
p1848
aS'Gloucester'
p1849
aS'2'
aS'0'
aS'0'
aS'0'
aa(lp1850
S'Robert Wood'
p1851
aS'1901'
p1852
aS'Forward'
p1853
aS'W Derby'
p1854
aS'3'
aS'0'
aS'0'
aS'0'
aa(lp1855
S'Norman Cox'
p1856
aS'1901'
p1857
aS'Centre'
p1858
aS'Sunderland'
p1859
aS'1'
aS'0'
aS'0'
aS'0'
aa(lp1860
S'Charles Edgar'
p1861
aS'1901'
p1862
aS'Forward'
p1863
aS'W Derby'
p1864
aS'1'
aS'0'
aS'0'
aS'0'
aa(lp1865
S'Jock Hartley'
p1866
aS'1901'
p1867
aS'Forward'
p1868
aS'Woodford'
p1869
aS'2'
aS'1'
aS'0'
aS'0'
aa(lp1870
S'Toggie Kendall'
p1871
aS'1901'
p1872
aS'Scrum-half'
p1873
aS'Prescot'
p1874
aS'3'
aS'0'
aS'0'
aS'0'
aa(lp1875
S'Bernard Oughtred'
p1876
aS'1901'
p1877
aS'Fly-half'
p1878
aS'Hartlepool'
p1879
aS'6'
aS'2'
aS'0'
aS'0'
aa(lp1880
S'Henry Weston'
p1881
aS'1901'
p1882
aS'Forward'
p1883
aS'Potterspury'
p1884
aS'1'
aS'0'
aS'0'
aS'0'
aa(lp1885
S'Denys Dobson'
p1886
aS'1902'
p1887
aS'Forward'
p1888
aS'Isle of Ma'
p1889
aS'10'
p1890
aS'5'
aS'3'
aS'9'
aa(lp1891
S'George Fraser'
p1892
aS'1902'
p1893
aS'Forward'
p1894
aS'Fulham'
p1895
aS'5'
aS'2'
aS'0'
aS'0'
aa(lp1896
S'John Jewitt'
p1897
aS'1902'
p1898
aS'Lock'
p1899
aS'Co.Durham'
p1900
aS'1'
aS'0'
aS'0'
aS'0'
aa(lp1901
S'Philip Nicholas'
p1902
aS'1902'
p1903
aS'Wing'
p1904
aS'Monmouth'
p1905
aS'1'
aS'0'
aS'0'
aS'0'
aa(lp1906
S'John Raphael'
p1907
aS'1902'
p1908
aS'Centre'
p1909
aS'Brussels'
p1910
aS'9'
aS'4'
aS'1'
aS'3'
aa(lp1911
S'Leonard Tosswill'
p1912
aS'1902'
p1913
aS'Forward'
p1914
aS'Exeter'
p1915
aS'3'
aS'2'
aS'0'
aS'0'
aa(lp1916
S'Thomas Willcocks'
p1917
aS'1902'
p1918
aS'Forward'
p1919
aS'Buckfastleigh'
p1920
aS'1'
aS'0'
aS'0'
aS'0'
aa(lp1921
S'Samuel Williams'
p1922
aS'1902'
p1923
aS'Forward'
p1924
aS'Stoke Damerel'
p1925
aS'7'
aS'2'
aS'2'
aS'6'
aa(lp1926
S'Peter Hardwick'
p1927
aS'1902'
p1928
aS'Forward'
p1929
aS'Tynemouth'
p1930
aS'8'
aS'3'
aS'0'
aS'0'
aa(lp1931
S'Thomas Simpson'
p1932
aS'1902'
p1933
aS'Wing'
p1934
aS'Newcastle-upon-Tyne'
p1935
aS'11'
p1936
aS'4'
aS'3'
aS'9'
aa(lp1937
S'Robert Bradley'
p1938
aS'1903'
p1939
aS'Forward'
p1940
aS'date unknown'
p1941
aS'1'
aS'0'
aS'0'
aS'0'
aa(lp1942
S'Vincent Cartwright'
p1943
aS'1903'
p1944
aS'Forward'
p1945
aS'Nottingham'
p1946
aS'14'
p1947
aS'2'
aS'0'
aS'8'
aa(lp1948
S'James Duthie'
p1949
aS'1903'
p1950
aS'Forward'
p1951
aS'Hartlepool'
p1952
aS'1'
aS'0'
aS'0'
aS'0'
aa(lp1953
S'Frankie Hulme'
p1954
aS'1903'
p1955
aS'Halfback'
p1956
aS'Cheshire'
p1957
aS'5'
aS'1'
aS'0'
aS'0'
aa(lp1958
S'Jack Miles'
p1959
aS'1903'
p1960
aS'Wing'
p1961
aS'Grimsby'
p1962
aS'1'
aS'0'
aS'0'
aS'0'
aa(lp1963
S'Reginald Spooner'
p1964
aS'1903'
p1965
aS'Centre'
p1966
aS'Lancs'
p1967
aS'1'
aS'0'
aS'0'
aS'0'
aa(lp1968
S'Walter Heppel'
p1969
aS'1903'
p1970
aS'Forward'
p1971
aS'Weston-super-Mare'
p1972
aS'1'
aS'0'
aS'0'
aS'0'
aa(lp1973
S'Basil Hill'
p1974
aS'1903'
p1975
aS'Forward'
p1976
aS'Broughty Ferry'
p1977
aS'9'
aS'2'
aS'0'
aS'10'
p1978
aa(lp1979
S'Edward Barrett'
p1980
aS'1903'
p1981
aS'Centre'
p1982
aS'Sy'
p1983
aS'1'
aS'0'
aS'0'
aS'0'
aa(lp1984
S'Walter Butcher'
p1985
aS'1903'
p1986
aS'Scrum-half'
p1987
aS'Sy'
p1988
aS'7'
aS'1'
aS'0'
aS'0'
aa(lp1989
S'Edward Dillon'
p1990
aS'1904'
p1991
aS'Centre'
p1992
aS'Kent'
p1993
aS'4'
aS'1'
aS'0'
aS'0'
aa(lp1994
S'Patrick Hancock'
p1995
aS'1903'
p1996
aS'Fly-half'
p1997
aS'Assam'
p1998
aS'6'
aS'1'
aS'0'
aS'0'
aa(lp1999
S'George Keeton'
p2000
aS'1904'
p2001
aS'Hooker'
p2002
aS'Peterborough'
p2003
aS'3'
aS'1'
aS'0'
aS'0'
aa(lp2004
S'Jumbo Milton'
p2005
aS'1904'
p2006
aS'Forward'
p2007
aS'Cape Colony'
p2008
aS'5'
aS'1'
aS'0'
aS'0'
aa(lp2009
S'Norman Moore'
p2010
aS'1904'
p2011
aS'Forward'
p2012
aS'Lewisham'
p2013
aS'3'
aS'1'
aS'2'
aS'6'
aa(lp2014
S'Charles Newbold'
p2015
aS'1904'
p2016
aS'Hooker'
p2017
aS'Tunbridge Wells'
p2018
aS'6'
aS'1'
aS'0'
aS'0'
aa(lp2019
S'William Cave'
p2020
aS'1903'
p2021
aS'Forward'
p2022
aS'Croydon'
p2023
aS'4'
aS'0'
aS'1'
aS'3'
aa(lp2024
S'Thomas Gibson'
p2025
aS'1903'
p2026
aS'Forward'
p2027
aS'Gateshead'
p2028
aS'5'
aS'0'
aS'0'
aS'0'
aa(lp2029
S'Sam Irvin'
p2030
aS'1905'
p2031
aS'Fullback'
p2032
aS'Hartlepool'
p2033
aS'1'
aS'0'
aS'0'
aS'0'
aa(lp2034
S'John Mathias'
p2035
aS'1905'
p2036
aS'Lock'
p2037
aS'Cardigan'
p2038
aS'4'
aS'0'
aS'0'
aS'0'
aa(lp2039
S'Francis Palmer'
p2040
aS'1905'
p2041
aS'Wing'
p2042
aS'Hereford'
p2043
aS'1'
aS'0'
aS'0'
aS'0'
aa(lp2044
S'Walter Rogers'
p2045
aS'1905'
p2046
aS'Forward'
p2047
aS'Wilts'
p2048
aS'2'
aS'0'
aS'0'
aS'0'
aa(lp2049
S'John Green'
p2050
aS'1905'
p2051
aS'Forward'
p2052
aS'Skipton?'
p2053
aS'8'
aS'3'
aS'0'
aS'0'
aa(lp2054
S'William Grylls'
p2055
aS'1905'
p2056
aS'Lock'
p2057
aS'Redruth'
p2058
aS'1'
aS'0'
aS'0'
aS'0'
aa(lp2059
S'Harry Shewring'
p2060
aS'1905'
p2061
aS'Centre'
p2062
aS'Keynsham'
p2063
aS'10'
p2064
aS'3'
aS'1'
aS'3'
aa(lp2065
S'Christopher Stanger-Leathes'
p2066
aS'1904'
p2067
aS'Fullback'
p2068
aS'Kensington'
p2069
aS'2'
aS'1'
aS'0'
aS'0'
aa(lp2070
S'George Vickery'
p2071
aS'1905'
p2072
aS'Forward'
p2073
aS'Chard'
p2074
aS'1'
aS'0'
aS'0'
aS'0'
aa(lp2075
S'Curly Hammond'
p2076
aS'1905'
p2077
aS'Forward'
p2078
aS'Pontefract'
p2079
aS'8'
aS'3'
aS'0'
aS'0'
aa(lp2080
S'Sidney Osborne'
p2081
aS'1905'
p2082
aS'Forward'
p2083
aS'Camberwell'
p2084
aS'1'
aS'0'
aS'0'
aS'0'
aa(lp2085
S'Adrian Stoop'
p2086
aS'1905'
p2087
aS'Fly-half'
p2088
aS'Kensington'
p2089
aS'15'
p2090
aS'8'
aS'2'
aS'6'
aa(lp2091
S'Jacky Braithwaite'
p2092
aS'1905'
p2093
aS'Scrum-half'
p2094
aS'Leeds'
p2095
aS'1'
aS'0'
aS'0'
aS'0'
aa(lp2096
S'Dai Gent'
p2097
aS'1905'
p2098
aS'Fly-half'
p2099
aS'Llandovery'
p2100
aS'5'
aS'1'
aS'0'
aS'0'
aa(lp2101
S'Reginald Godfray'
p2102
aS'1905'
p2103
aS'Centre'
p2104
aS'Jersey'
p2105
aS'1'
aS'0'
aS'0'
aS'0'
aa(lp2106
S'Alfred Hind'
p2107
aS'1905'
p2108
aS'Wing'
p2109
aS'Preston'
p2110
aS'2'
aS'0'
aS'0'
aS'0'
aa(lp2111
S'Henry Imrie'
p2112
aS'1905'
p2113
aS'Wing'
p2114
aS'Durham'
p2115
aS'2'
aS'0'
aS'1'
aS'3'
aa(lp2116
S'John Jackett'
p2117
aS'1905'
p2118
aS'Fullback'
p2119
aS'Falmouth'
p2120
aS'16'
p2121
aS'4'
aS'0'
aS'4'
aa(lp2122
S'Richard Russell'
p2123
aS'1905'
p2124
aS'Forward'
p2125
aS'Bingham'
p2126
aS'1'
aS'0'
aS'0'
aS'0'
aa(lp2127
S'George Summerscale'
p2128
aS'1905'
p2129
aS'Forward'
p2130
aS'Durham'
p2131
aS'1'
aS'0'
aS'0'
aS'0'
aa(lp2132
S'George Dobbs'
p2133
aS'1906'
p2134
aS'Flanker'
p2135
aS'Kildare'
p2136
aS'2'
aS'0'
aS'0'
aS'0'
aa(lp2137
S'Harold Hodges'
p2138
aS'1906'
p2139
aS'Prop'
p2140
aS'Mansfield Woodhouse'
p2141
aS'2'
aS'0'
aS'0'
aS'0'
aa(lp2142
S'Arthur Hudson'
p2143
aS'1906'
p2144
aS'Wing'
p2145
aS'Gloucester'
p2146
aS'8'
aS'4'
aS'9'
aS'27'
p2147
aa(lp2148
S'Raphael Jago'
p2149
aS'1906'
p2150
aS'Scrum-half'
p2151
aS'Dorset'
p2152
aS'5'
aS'0'
aS'1'
aS'3'
aa(lp2153
S'Thomas Kelly'
p2154
aS'1906'
p2155
aS'Lock'
p2156
aS'Tiverton'
p2157
aS'12'
p2158
aS'5'
aS'0'
aS'0'
aa(lp2159
S'Alf Kewney'
p2160
aS'1906'
p2161
aS'Forward'
p2162
aS'Tynemouth'
p2163
aS'16'
p2164
aS'7'
aS'2'
aS'6'
aa(lp2165
S'William Mills'
p2166
aS'1906'
p2167
aS'No. 8'
p2168
aS'Stoke Damerel'
p2169
aS'11'
p2170
aS'4'
aS'4'
aS'12'
p2171
aa(lp2172
S'James Hutchinson'
p2173
aS'1906'
p2174
aS'Wing'
p2175
aS'Stockton-on-Tees'
p2176
aS'1'
aS'0'
aS'0'
aS'0'
aa(lp2177
S'Cecil Milton'
p2178
aS'1906'
p2179
aS'Centre'
p2180
aS'Cape Colony'
p2181
aS'1'
aS'0'
aS'0'
aS'0'
aa(lp2182
S'Joseph Sandford'
p2183
aS'1906'
p2184
aS'Centre'
p2185
aS'Devon'
p2186
aS'1'
aS'0'
aS'0'
aS'0'
aa(lp2187
S'John Birkett'
p2188
aS'1906'
p2189
aS'Centre'
p2190
aS'Richmond'
p2191
aS'21'
p2192
aS'12'
p2193
aS'10'
p2194
aS'34'
p2195
aa(lp2196
S'Robert Dibble'
p2197
aS'1906'
p2198
aS'Forward'
p2199
aS'Bridgwater'
p2200
aS'22'
p2201
aS'11'
p2202
aS'0'
aS'0'
aa(lp2203
S'Darkie Peters'
p2204
aS'1906'
p2205
aS'Fly-half'
p2206
aS'Salford'
p2207
aS'5'
aS'2'
aS'2'
aS'6'
aa(lp2208
S'Cecil Shaw'
p2209
aS'1906'
p2210
aS'Forward'
p2211
aS'Wolverhampton'
p2212
aS'6'
aS'2'
aS'0'
aS'0'
aa(lp2213
S'Thomas Hogarth'
p2214
aS'1906'
p2215
aS'Forward'
p2216
aS'Hartlepool'
p2217
aS'1'
aS'1'
aS'1'
aS'3'
aa(lp2218
S'Arnold Alcock'
p2219
aS'1906'
p2220
aS'Hooker'
p2221
aS'Staffs'
p2222
aS'1'
aS'0'
aS'0'
aS'0'
aa(lp2223
S'Freddie Brooks'
p2224
aS'1906'
p2225
aS'Wing'
p2226
aS'Cape Town'
p2227
aS'1'
aS'0'
aS'1'
aS'3'
aa(lp2228
S'Tremlett Batchelor'
p2229
aS'1907'
p2230
aS'Wing'
p2231
aS'Wirral'
p2232
aS'1'
aS'1'
aS'0'
aS'0'
aa(lp2233
S'John Hopley'
p2234
aS'1907'
p2235
aS'Flanker'
p2236
aS'Grahamstown'
p2237
aS'3'
aS'2'
aS'0'
aS'0'
aa(lp2238
S'Danny Lambert'
p2239
aS'1907'
p2240
aS'Wing'
p2241
aS'Cranbrook'
p2242
aS'7'
aS'3'
aS'8'
aS'46'
p2243
aa(lp2244
S'Harry Lee'
p2245
aS'1907'
p2246
aS'Fullback'
p2247
aS'Dewsbury'
p2248
aS'1'
aS'1'
aS'0'
aS'0'
aa(lp2249
S'Billy Nanson'
p2250
aS'1907'
p2251
aS'Forward'
p2252
aS'Carlisle'
p2253
aS'2'
aS'1'
aS'1'
aS'3'
aa(lp2254
S'Andrew Slocock'
p2255
aS'1907'
p2256
aS'Forward'
p2257
aS'Stratford'
p2258
aS'8'
aS'3'
aS'3'
aS'9'
aa(lp2259
S'Thomas Wedge'
p2260
aS'1907'
p2261
aS'Scrum-half'
p2262
aS'Penzance'
p2263
aS'2'
aS'1'
aS'0'
aS'0'
aa(lp2264
S'Frank Scott'
p2265
aS'1907'
p2266
aS'Wing'
p2267
aS'WA'
p2268
aS'1'
aS'0'
aS'0'
aS'0'
aa(lp2269
S'Jumbo Leather'
p2270
aS'1907'
p2271
aS'Forward'
p2272
aS'Leigh'
p2273
aS'1'
aS'0'
aS'0'
aS'0'
aa(lp2274
S'Arthur Pickering'
p2275
aS'1907'
p2276
aS'Centre'
p2277
aS'Dewsbury'
p2278
aS'1'
aS'0'
aS'0'
aS'3'
aa(lp2279
S'Walter Wilson'
p2280
aS'1907'
p2281
aS'Wing'
p2282
aS'QLD'
p2283
aS'2'
aS'0'
aS'0'
aS'0'
aa(lp2284
S'Andrew Newton'
p2285
aS'1907'
p2286
aS'Wing'
p2287
aS'Co Down'
p2288
aS'1'
aS'0'
aS'0'
aS'0'
aa(lp2289
S'Khaki Roberts'
p2290
aS'1907'
p2291
aS'Forward'
p2292
aS'Exeter'
p2293
aS'3'
aS'1'
aS'0'
aS'6'
aa(lp2294
S'Sydney Start'
p2295
aS'1907'
p2296
aS'Scrum-half'
p2297
aS'Salford'
p2298
aS'1'
aS'0'
aS'0'
aS'0'
aa(lp2299
S'Patsy Boylan'
p2300
aS'1908'
p2301
aS'Forward'
p2302
aS'Hartlepool'
p2303
aS'4'
aS'2'
aS'0'
aS'0'
aa(lp2304
S'Ernest Chambers'
p2305
aS'1908'
p2306
aS'Forward'
p2307
aS'Hackney'
p2308
aS'3'
aS'2'
aS'0'
aS'0'
aa(lp2309
S'Harry Havelock'
p2310
aS'1908'
p2311
aS'Flanker'
p2312
aS'Hartlepool'
p2313
aS'3'
aS'2'
aS'0'
aS'0'
aa(lp2314
S'Walter Lapage'
p2315
aS'1908'
p2316
aS'Centre'
p2317
aS'Nantwich'
p2318
aS'4'
aS'2'
aS'2'
aS'6'
aa(lp2319
S'Garnet Portus'
p2320
aS'1908'
p2321
aS'Fly-half'
p2322
aS'NSW'
p2323
aS'2'
aS'2'
aS'1'
aS'3'
aa(lp2324
S'Herbert Sibree'
p2325
aS'1908'
p2326
aS'Scrum-half'
p2327
aS'Antananarivo'
p2328
aS'3'
aS'2'
aS'0'
aS'0'
aa(lp2329
S'Alf Wood'
p2330
aS'1908'
p2331
aS'Fullback'
p2332
aS'Wolverhampton'
p2333
aS'3'
aS'2'
aS'0'
aS'8'
aa(lp2334
S'R. Gilbert'
p2335
aS'1908'
p2336
aS'Forward'
p2337
aS'date unknown'
p2338
aS'3'
aS'1'
aS'0'
aS'0'
aa(lp2339
S'Rupert Williamson'
p2340
aS'1908'
p2341
aS'Scrum-half'
p2342
aS'South Africa?'
p2343
aS'5'
aS'2'
aS'2'
aS'6'
aa(lp2344
S'Jumbo Vassall'
p2345
aS'1908'
p2346
aS'Centre'
p2347
aS'Devon'
p2348
aS'4'
aS'1'
aS'0'
aS'0'
aa(lp2349
S'Fischer Burges-Watson'
p2350
aS'1908'
p2351
aS'Forward'
p2352
aS'Portsea'
p2353
aS'2'
aS'0'
aS'1'
aS'3'
aa(lp2354
S'Maffer Davey'
p2355
aS'1908'
p2356
aS'Fly-half'
p2357
aS'Redruth'
p2358
aS'3'
aS'0'
aS'0'
aS'0'
aa(lp2359
S'George Lyon'
p2360
aS'1908'
p2361
aS'Fullback'
p2362
aS'Bankipore'
p2363
aS'2'
aS'0'
aS'0'
aS'0'
aa(lp2364
S'William Oldham'
p2365
aS'1908'
p2366
aS'Forward'
p2367
aS'Coventry'
p2368
aS'3'
aS'0'
aS'0'
aS'0'
aa(lp2369
S'Tommy Woods'
p2370
aS'1908'
p2371
aS'Forward'
p2372
aS'Bridgwater'
p2373
aS'1'
aS'0'
aS'0'
aS'0'
aa(lp2374
S'Alec Ashcroft'
p2375
aS'1909'
p2376
aS'Fly-half'
p2377
aS'W Derby'
p2378
aS'1'
aS'0'
aS'0'
aS'0'
aa(lp2379
S'Eric Assinder'
p2380
aS'1909'
p2381
aS'Centre'
p2382
aS'Kings Norton'
p2383
aS'2'
aS'0'
aS'0'
aS'0'
aa(lp2384
S'Barrie Bennetts'
p2385
aS'1909'
p2386
aS'Wing'
p2387
aS'Penzance'
p2388
aS'2'
aS'0'
aS'0'
aS'0'
aa(lp2389
S'John Cooper'
p2390
aS'1909'
p2391
aS'Forward'
p2392
aS'Birmingham'
p2393
aS'2'
aS'0'
aS'0'
aS'0'
aa(lp2394
S'Percy Down'
p2395
aS'1908'
p2396
aS'Forward'
p2397
aS'Clifton'
p2398
aS'4'
aS'0'
aS'0'
aS'0'
aa(lp2399
S'Frederick Knight'
p2400
aS'1909'
p2401
aS'Flanker'
p2402
aS'Devon'
p2403
aS'1'
aS'0'
aS'0'
aS'0'
aa(lp2404
S'Edgar Mobbs'
p2405
aS'1909'
p2406
aS'Wing'
p2407
aS'Northampton'
p2408
aS'7'
aS'3'
aS'4'
aS'12'
p2409
aa(lp2410
S'Alfred Morris'
p2411
aS'1909'
p2412
aS'Forward'
p2413
aS'Richmond'
p2414
aS'3'
aS'1'
aS'0'
aS'0'
aa(lp2415
S'Sid Penny'
p2416
aS'1909'
p2417
aS'Forward'
p2418
aS'London'
p2419
aS'1'
aS'0'
aS'0'
aS'0'
aa(lp2420
S'Frank Tarr'
p2421
aS'1909'
p2422
aS'Centre'
p2423
aS'Belper'
p2424
aS'4'
aS'2'
aS'2'
aS'6'
aa(lp2425
S'Herbert Archer'
p2426
aS'1908'
p2427
aS'Forward'
p2428
aS'Bridgwater'
p2429
aS'6'
aS'2'
aS'0'
aS'0'
aa(lp2430
S'Frank Handford'
p2431
aS'1909'
p2432
aS'Flanker'
p2433
aS'Lancs'
p2434
aS'7'
aS'3'
aS'0'
aS'0'
aa(lp2435
S'Ernest Ibbitson'
p2436
aS'1909'
p2437
aS'Lock'
p2438
aS'Leeds'
p2439
aS'4'
aS'2'
aS'0'
aS'0'
aa(lp2440
S'William Johns'
p2441
aS'1909'
p2442
aS'Forward'
p2443
aS'Gloucester'
p2444
aS'7'
aS'4'
aS'1'
aS'3'
aa(lp2445
S'Charles Bolton'
p2446
aS'1909'
p2447
aS'Flanker'
p2448
aS'Kensington'
p2449
aS'1'
aS'1'
aS'0'
aS'0'
aa(lp2450
S'Frank Hutchinson'
p2451
aS'1909'
p2452
aS'Fly-half'
p2453
aS'Wakefield'
p2454
aS'3'
aS'2'
aS'1'
aS'3'
aa(lp2455
S'Ronald Poulton-Palmer'
p2456
aS'1909'
p2457
aS'Centre'
p2458
aS'Headington'
p2459
aS'17'
p2460
aS'14'
p2461
aS'8'
aS'28'
p2462
aa(lp2463
S'Harold Morton'
p2464
aS'1909'
p2465
aS'Prop'
p2466
aS'Sheffield'
p2467
aS'4'
aS'2'
aS'0'
aS'0'
aa(lp2468
S'Alexander Palmer'
p2469
aS'1909'
p2470
aS'Wing'
p2471
aS'Dunedin'
p2472
aS'2'
aS'1'
aS'2'
aS'10'
p2473
aa(lp2474
S'Arthur Wilson'
p2475
aS'1909'
p2476
aS'Forward'
p2477
aS'Newcastle-upon-Tyne'
p2478
aS'1'
aS'1'
aS'0'
aS'0'
aa(lp2479
S'Cyril Wright'
p2480
aS'1909'
p2481
aS'Centre'
p2482
aS'Oporto'
p2483
aS'2'
aS'1'
aS'0'
aS'0'
aa(lp2484
S'Harold Harrison'
p2485
aS'1909'
p2486
aS'Forward'
p2487
aS'Solihull'
p2488
aS'4'
aS'3'
aS'0'
aS'4'
aa(lp2489
S'Lancelot Barrington-Ward'
p2490
aS'1910'
p2491
aS'No. 8'
p2492
aS'Droitwich'
p2493
aS'4'
aS'3'
aS'0'
aS'0'
aa(lp2494
S'Harry Berry'
p2495
aS'1910'
p2496
aS'Forward'
p2497
aS'Gloucester'
p2498
aS'4'
aS'3'
aS'2'
aS'6'
aa(lp2499
S'Fred Chapman'
p2500
aS'1908'
p2501
aS'Wing'
p2502
aS'S Shields'
p2503
aS'8'
aS'6'
aS'1'
aS'20'
p2504
aa(lp2505
S'Leonard Haigh'
p2506
aS'1910'
p2507
aS'Prop'
p2508
aS'Prestwich'
p2509
aS'7'
aS'4'
aS'0'
aS'0'
aa(lp2510
S'Billy Johnston'
p2511
aS'1910'
p2512
aS'Fullback'
p2513
aS'Bristol'
p2514
aS'16'
p2515
aS'13'
p2516
aS'0'
aS'0'
aa(lp2517
S'Cherry Pillman'
p2518
aS'1910'
p2519
aS'Flanker'
p2520
aS'Bromley'
p2521
aS'20'
p2522
aS'15'
p2523
aS'8'
aS'30'
p2524
aa(lp2525
S'Fenton Smith'
p2526
aS'1910'
p2527
aS'Forward'
p2528
aS'Brighton'
p2529
aS'5'
aS'2'
aS'0'
aS'0'
aa(lp2530
S'Bert Solomon'
p2531
aS'1910'
p2532
aS'Centre'
p2533
aS'Redruth'
p2534
aS'1'
aS'1'
aS'1'
aS'3'
aa(lp2535
S'Leslie Hayward'
p2536
aS'1910'
p2537
aS'Centre'
p2538
aS'Cheltenham'
p2539
aS'1'
aS'0'
aS'0'
aS'0'
aa(lp2540
S'Alan Adams'
p2541
aS'1910'
p2542
aS'Centre'
p2543
aS'Greymouth'
p2544
aS'1'
aS'1'
aS'0'
aS'0'
aa(lp2545
S'Harry Coverdale'
p2546
aS'1910'
p2547
aS'Fly-half'
p2548
aS'Hartlepool'
p2549
aS'4'
aS'3'
aS'0'
aS'4'
aa(lp2550
S'Reginald Hands'
p2551
aS'1910'
p2552
aS'Forward'
p2553
aS'Cape Town'
p2554
aS'2'
aS'2'
aS'0'
aS'0'
aa(lp2555
S'Anthony Henniker-Gotley'
p2556
aS'1910'
p2557
aS'Scrum-half'
p2558
aS'Warks'
p2559
aS'6'
aS'4'
aS'0'
aS'0'
aa(lp2560
S'John Ritson'
p2561
aS'1908'
p2562
aS'Forward'
p2563
aS'Chester-le-Street'
p2564
aS'9'
aS'7'
aS'2'
aS'6'
aa(lp2565
S'Edward Scorfield'
p2566
aS'1910'
p2567
aS'Lock'
p2568
aS'Preston'
p2569
aS'1'
aS'1'
aS'0'
aS'0'
aa(lp2570
S'Cyril Williams'
p2571
aS'1910'
p2572
aS'Fullback'
p2573
aS'Stroud'
p2574
aS'1'
aS'1'
aS'0'
aS'0'
aa(lp2575
S'Norman Wodehouse'
p2576
aS'1910'
p2577
aS'Forward'
p2578
aS'Notts'
p2579
aS'14'
p2580
aS'10'
p2581
aS'2'
aS'6'
aa(lp2582
S'Guy Hind'
p2583
aS'1908'
p2584
aS'Forward'
p2585
aS'Stoke-on-Trent'
p2586
aS'4'
aS'1'
aS'0'
aS'0'
aa(lp2587
S'Percy Lawrie'
p2588
aS'1910'
p2589
aS'Wing'
p2590
aS'Lutterworth'
p2591
aS'2'
aS'2'
aS'1'
aS'3'
aa(lp2592
S'Tim Stoop'
p2593
aS'1910'
p2594
aS'Centre'
p2595
aS'Kensington'
p2596
aS'4'
aS'2'
aS'0'
aS'0'
aa(lp2597
S'Bruno Brown'
p2598
aS'1911'
p2599
aS'Prop'
p2600
aS'QLD'
p2601
aS'18'
p2602
aS'14'
p2603
aS'4'
aS'12'
p2604
aa(lp2605
S'John King'
p2606
aS'1911'
p2607
aS'No. 8'
p2608
aS'Leeds'
p2609
aS'12'
p2610
aS'8'
aS'0'
aS'0'
aa(lp2611
S'William Mann'
p2612
aS'1911'
p2613
aS'Forward'
p2614
aS'Edmonton'
p2615
aS'3'
aS'1'
aS'1'
aS'3'
aa(lp2616
S'Alan Roberts'
p2617
aS'1911'
p2618
aS'Wing'
p2619
aS'Newcastle-upon-Tyne'
p2620
aS'8'
aS'5'
aS'5'
aS'15'
p2621
aa(lp2622
S'John Scholfield'
p2623
aS'1911'
p2624
aS'Centre'
p2625
aS'Fylde'
p2626
aS'1'
aS'0'
aS'1'
aS'3'
aa(lp2627
S'Samuel Williams'
p2628
aS'1910'
p2629
aS'Fullback'
p2630
aS'Rogerston'
p2631
aS'7'
aS'3'
aS'0'
aS'0'
aa(lp2632
S'Ronald Lagden'
p2633
aS'1911'
p2634
aS'No. 8'
p2635
aS'Basutoland'
p2636
aS'1'
aS'1'
aS'0'
aS'4'
aa(lp2637
S'Henry Brougham'
p2638
aS'1912'
p2639
aS'Wing'
p2640
aS'Wellington College'
p2641
aS'4'
aS'3'
aS'3'
aS'9'
aa(lp2642
S'John Eddison'
p2643
aS'1912'
p2644
aS'Forward'
p2645
aS'Edinburgh'
p2646
aS'4'
aS'3'
aS'1'
aS'3'
aa(lp2647
S'Dave Holland'
p2648
aS'1912'
p2649
aS'Forward'
p2650
aS'Gloucester'
p2651
aS'3'
aS'2'
aS'1'
aS'3'
aa(lp2652
S'Alfred MacIlwaine'
p2653
aS'1912'
p2654
aS'Prop'
p2655
aS'Sculcoates'
p2656
aS'5'
aS'4'
aS'0'
aS'0'
aa(lp2657
S'John Pym'
p2658
aS'1912'
p2659
aS'Scrum-half'
p2660
aS'Kingston'
p2661
aS'4'
aS'3'
aS'1'
aS'3'
aa(lp2662
S'Dick Stafford'
p2663
aS'1912'
p2664
aS'Prop'
p2665
aS'Bedford'
p2666
aS'4'
aS'3'
aS'0'
aS'0'
aa(lp2667
S'John Greenwood'
p2668
aS'1912'
p2669
aS'Forward'
p2670
aS'Lewisham'
p2671
aS'13'
p2672
aS'11'
p2673
aS'0'
aS'30'
p2674
aa(lp2675
S'William Hynes'
p2676
aS'1912'
p2677
aS'Lock'
p2678
aS'Portsea'
p2679
aS'1'
aS'1'
aS'0'
aS'0'
aa(lp2680
S'Maurice Neale'
p2681
aS'1910'
p2682
aS'Wing'
p2683
aS'Thornbury'
p2684
aS'4'
aS'2'
aS'1'
aS'3'
aa(lp2685
S'William Cheesman'
p2686
aS'1913'
p2687
aS'Scrum-half'
p2688
aS'Pancras'
p2689
aS'4'
aS'3'
aS'0'
aS'0'
aa(lp2690
S'Vincent Coates'
p2691
aS'1913'
p2692
aS'Wing'
p2693
aS'Edinburgh'
p2694
aS'5'
aS'4'
aS'6'
aS'18'
p2695
aa(lp2696
S'Dave Davies'
p2697
aS'1913'
p2698
aS'Fly-half'
p2699
aS'Pembroke'
p2700
aS'22'
p2701
aS'20'
p2702
aS'4'
aS'24'
p2703
aa(lp2704
S'Cyril Lowe'
p2705
aS'1913'
p2706
aS'Wing'
p2707
aS'Lincs'
p2708
aS'25'
p2709
aS'21'
p2710
aS'18'
p2711
aS'58'
p2712
aa(lp2713
S'Sidney Smart'
p2714
aS'1913'
p2715
aS'No. 8'
p2716
aS'Gloucester'
p2717
aS'12'
p2718
aS'10'
p2719
aS'0'
aS'0'
aa(lp2720
S'Francis Steinthal'
p2721
aS'1913'
p2722
aS'Centre'
p2723
aS'Bradford'
p2724
aS'2'
aS'2'
aS'0'
aS'0'
aa(lp2725
S'George Ward'
p2726
aS'1913'
p2727
aS'No. 8'
p2728
aS'Leicester'
p2729
aS'6'
aS'6'
aS'0'
aS'0'
aa(lp2730
S'Arthur Dingle'
p2731
aS'1913'
p2732
aS'Wing'
p2733
aS'Durhm'
p2734
aS'3'
aS'3'
aS'0'
aS'0'
aa(lp2735
S'Alfred Kitching'
p2736
aS'1913'
p2737
aS'Lock'
p2738
aS'Scarborough'
p2739
aS'1'
aS'1'
aS'0'
aS'0'
aa(lp2740
S'Francis Oakeley'
p2741
aS'1913'
p2742
aS'Scrum-half'
p2743
aS'Hereford'
p2744
aS'4'
aS'4'
aS'0'
aS'0'
aa(lp2745
S'Joseph Brunton'
p2746
aS'1914'
p2747
aS'Lock'
p2748
aS'Tynemouth'
p2749
aS'3'
aS'3'
aS'0'
aS'0'
aa(lp2750
S'Arthur Bull'
p2751
aS'1914'
p2752
aS'Prop'
p2753
aS'Newport Pagnell'
p2754
aS'1'
aS'1'
aS'0'
aS'0'
aa(lp2755
S'Alfred Maynard'
p2756
aS'1914'
p2757
aS'Hooker'
p2758
aS'Kent'
p2759
aS'3'
aS'3'
aS'0'
aS'0'
aa(lp2760
S'Tim Taylor'
p2761
aS'1914'
p2762
aS'Fly-half'
p2763
aS'Leicester'
p2764
aS'1'
aS'1'
aS'0'
aS'0'
aa(lp2765
S'Bungy Watson'
p2766
aS'1914'
p2767
aS'Centre'
p2768
aS'Southsea'
p2769
aS'3'
aS'3'
aS'1'
aS'3'
aa(lp2770
S'Pedlar Wood'
p2771
aS'1914'
p2772
aS'Scrum-half'
p2773
aS'Leicester'
p2774
aS'1'
aS'1'
aS'0'
aS'0'
aa(lp2775
S'Arthur Harrison'
p2776
aS'1914'
p2777
aS'Forward'
p2778
aS'Torquay'
p2779
aS'2'
aS'2'
aS'0'
aS'0'
aa(lp2780
S'Robert Pillman'
p2781
aS'1914'
p2782
aS'Flanker'
p2783
aS'Kent'
p2784
aS'1'
aS'1'
aS'0'
aS'0'
aa(lp2785
S'Francis Stone'
p2786
aS'1914'
p2787
aS'No. 8'
p2788
aS'Lewisham'
p2789
aS'1'
aS'1'
aS'0'
aS'0'
aa(lp2790
S'Alexander Sykes'
p2791
aS'1914'
p2792
aS'Forward'
p2793
aS'Birkenhead'
p2794
aS'1'
aS'1'
aS'0'
aS'0'
aa(lp2795
S'Barry Cumberlege'
p2796
aS'1920'
p2797
aS'Fullback'
p2798
aS'Newcastle-upon-Tyne'
p2799
aS'8'
aS'6'
aS'0'
aS'2'
aa(lp2800
S'Harold Day'
p2801
aS'1920'
p2802
aS'Wing'
p2803
aS'Darjeeling'
p2804
aS'4'
aS'0'
aS'2'
aS'16'
p2805
aa(lp2806
S'George Halford'
p2807
aS'1920'
p2808
aS'Lock'
p2809
aS'Gloucester'
p2810
aS'2'
aS'1'
aS'0'
aS'0'
aa(lp2811
S'Ernest Hammett'
p2812
aS'1920'
p2813
aS'Centre'
p2814
aS'Radstock'
p2815
aS'8'
aS'6'
aS'0'
aS'12'
p2816
aa(lp2817
S'Cecil Kershaw'
p2818
aS'1920'
p2819
aS'Scrum-half'
p2820
aS'Dacca'
p2821
aS'16'
p2822
aS'13'
p2823
aS'2'
aS'6'
aa(lp2824
S'Jannie Krige'
p2825
aS'1920'
p2826
aS'Centre'
p2827
aS'Caledon'
p2828
aS'1'
aS'0'
aS'0'
aS'0'
aa(lp2829
S'Frank Mellish'
p2830
aS'1920'
p2831
aS'Flanker'
p2832
aS'Rondebosch'
p2833
aS'12'
p2834
aS'8'
aS'1'
aS'3'
aa(lp2835
S'Laurence Merriam'
p2836
aS'1920'
p2837
aS'Lock'
p2838
aS'Islington'
p2839
aS'2'
aS'1'
aS'0'
aS'0'
aa(lp2840
S'James Morgan'
p2841
aS'1920'
p2842
aS'Hooker'
p2843
aS'Cockermouth?'
p2844
aS'1'
aS'0'
aS'0'
aS'0'
aa(lp2845
S'Wavell Wakefield'
p2846
aS'1920'
p2847
aS'Flanker'
p2848
aS'Beckenham'
p2849
aS'31'
p2850
aS'20'
p2851
aS'6'
aS'18'
p2852
aa(lp2853
S'Jock Wright'
p2854
aS'1920'
p2855
aS'Prop'
p2856
aS'Plymouth'
p2857
aS'2'
aS'1'
aS'0'
aS'0'
aa(lp2858
S'Geoffrey Conway'
p2859
aS'1920'
p2860
aS'No. 8'
p2861
aS'Cardiff'
p2862
aS'18'
p2863
aS'15'
p2864
aS'1'
aS'25'
p2865
aa(lp2866
S'Wilfrid Lowry'
p2867
aS'1920'
p2868
aS'Wing'
p2869
aS'Birkenhead'
p2870
aS'1'
aS'1'
aS'0'
aS'0'
aa(lp2871
S'Harry Millett'
p2872
aS'1920'
p2873
aS'Fullback'
p2874
aS'Islington'
p2875
aS'1'
aS'1'
aS'0'
aS'0'
aa(lp2876
S'Alastair Smallwood'
p2877
aS'1920'
p2878
aS'Wing'
p2879
aS'Alloa'
p2880
aS'14'
p2881
aS'12'
p2882
aS'7'
aS'25'
p2883
aa(lp2884
S'Sos Taylor'
p2885
aS'1920'
p2886
aS'Prop'
p2887
aS'Leicester'
p2888
aS'2'
aS'2'
aS'0'
aS'0'
aa(lp2889
S'Stan Harris'
p2890
aS'1920'
p2891
aS'Wing'
p2892
aS'Somerset East'
p2893
aS'4'
aS'2'
aS'2'
aS'6'
aa(lp2894
S'Edward Myers'
p2895
aS'1920'
p2896
aS'Centre'
p2897
aS'United States'
p2898
aS'18'
p2899
aS'15'
p2900
aS'3'
aS'13'
p2901
aa(lp2902
S'Tom Voyce'
p2903
aS'1920'
p2904
aS'Flanker'
p2905
aS'Gloucester'
p2906
aS'29'
p2907
aS'19'
p2908
aS'6'
aS'21'
p2909
aa(lp2910
S'Freddie Blakiston'
p2911
aS'1920'
p2912
aS'Flanker'
p2913
aS'W Derby'
p2914
aS'21'
p2915
aS'13'
p2916
aS'3'
aS'9'
aa(lp2917
S'Tom Woods'
p2918
aS'1920'
p2919
aS'Forward'
p2920
aS'Pontypool'
p2921
aS'5'
aS'5'
aS'1'
aS'3'
aa(lp2922
S'Reg Edwards'
p2923
aS'1921'
p2924
aS'Prop'
p2925
aS'Newport'
p2926
aS'11'
p2927
aS'8'
aS'1'
aS'3'
aa(lp2928
S'Ernest Gardner'
p2929
aS'1921'
p2930
aS'Hooker'
p2931
aS'Cardiff'
p2932
aS'10'
p2933
aS'8'
aS'1'
aS'3'
aa(lp2934
S'Ron Cove-Smith'
p2935
aS'1921'
p2936
aS'Lock'
p2937
aS'Edmonton'
p2938
aS'33'
p2939
aS'22'
p2940
aS'1'
aS'3'
aa(lp2941
S'Quentin King'
p2942
aS'1921'
p2943
aS'Wing'
p2944
aS'Bedford'
p2945
aS'1'
aS'1'
aS'1'
aS'3'
aa(lp2946
S'Len Corbett'
p2947
aS'1921'
p2948
aS'Centre'
p2949
aS'Bristol'
p2950
aS'16'
p2951
aS'11'
p2952
aS'3'
aS'15'
p2953
aa(lp2954
S'Vivian Davies'
p2955
aS'1922'
p2956
aS'Fly-half'
p2957
aS'Bromley'
p2958
aS'2'
aS'0'
aS'0'
aS'0'
aa(lp2959
S'Sam Tucker'
p2960
aS'1922'
p2961
aS'Hooker'
p2962
aS'Bristol'
p2963
aS'27'
p2964
aS'14'
p2965
aS'2'
aS'6'
aa(lp2966
S'Matthew Bradby'
p2967
aS'1922'
p2968
aS'Centre'
p2969
aS'Rugby'
p2970
aS'2'
aS'1'
aS'0'
aS'0'
aa(lp2971
S'Robert Duncan'
p2972
aS'1922'
p2973
aS'Prop'
p2974
aS'Glamorgan'
p2975
aS'3'
aS'2'
aS'0'
aS'0'
aa(lp2976
S'John Maxwell-Hyslop'
p2977
aS'1922'
p2978
aS'Flanker'
p2979
aS'Bristol'
p2980
aS'3'
aS'2'
aS'1'
aS'3'
aa(lp2981
S'Reg Pickles'
p2982
aS'1922'
p2983
aS'Fullback'
p2984
aS'Bristol'
p2985
aS'2'
aS'1'
aS'0'
aS'0'
aa(lp2986
S'Leo Price'
p2987
aS'1922'
p2988
aS'Flanker'
p2989
aS'Surrey'
p2990
aS'4'
aS'4'
aS'2'
aS'6'
aa(lp2991
S'John Middleton'
p2992
aS'1922'
p2993
aS'Fullback'
p2994
aS'Dublin'
p2995
aS'1'
aS'1'
aS'0'
aS'0'
aa(lp2996
S'James Pitman'
p2997
aS'1922'
p2998
aS'Wing'
p2999
aS'Kensington'
p3000
aS'1'
aS'1'
aS'0'
aS'0'
aa(lp3001
S'Peveril William-Powlett'
p3002
aS'1922'
p3003
aS'Prop'
p3004
aS'Abergavenny'
p3005
aS'1'
aS'1'
aS'0'
aS'0'
aa(lp3006
S'Frederick Gilbert'
p3007
aS'1923'
p3008
aS'Fullback'
p3009
aS'Plymouth'
p3010
aS'2'
aS'2'
aS'0'
aS'0'
aa(lp3011
S'William Luddington'
p3012
aS'1923'
p3013
aS'Prop'
p3014
aS'Farnham'
p3015
aS'13'
p3016
aS'10'
p3017
aS'0'
aS'16'
p3018
aa(lp3019
S'Frank Sanders'
p3020
aS'1923'
p3021
aS'Hooker'
p3022
aS'Newton Abbot'
p3023
aS'3'
aS'3'
aS'0'
aS'0'
aa(lp3024
S'Toff Holliday'
p3025
aS'1923'
p3026
aS'Fullback'
p3027
aS'Wigton'
p3028
aS'7'
aS'4'
aS'0'
aS'0'
aa(lp3029
S'Harold Locke'
p3030
aS'1923'
p3031
aS'Centre'
p3032
aS'Birkenhead'
p3033
aS'12'
p3034
aS'9'
aS'1'
aS'3'
aa(lp3035
S'Carston Catcheside'
p3036
aS'1924'
p3037
aS'Wing'
p3038
aS'Sunderland'
p3039
aS'8'
aS'5'
aS'6'
aS'18'
p3040
aa(lp3041
S'Bunny Chantrill'
p3042
aS'1924'
p3043
aS'Fullback'
p3044
aS'Barton Regis'
p3045
aS'4'
aS'4'
aS'0'
aS'0'
aa(lp3046
S'Jake Jacob'
p3047
aS'1924'
p3048
aS'Wing'
p3049
aS'Elham'
p3050
aS'5'
aS'5'
aS'4'
aS'12'
p3051
aa(lp3052
S'Alan Robson'
p3053
aS'1924'
p3054
aS'Hooker'
p3055
aS'Lanark'
p3056
aS'5'
aS'4'
aS'0'
aS'0'
aa(lp3057
S'Arthur Young'
p3058
aS'1924'
p3059
aS'Scrum-half'
p3060
aS'Darjeeling'
p3061
aS'19'
p3062
aS'12'
p3063
aS'2'
aS'6'
aa(lp3064
S'Chubby Faithfull'
p3065
aS'1924'
p3066
aS'Prop'
p3067
aS'Fareham'
p3068
aS'3'
aS'2'
aS'0'
aS'0'
aa(lp3069
S'Richard Hamilton-Wickes'
p3070
aS'1924'
p3071
aS'Wing'
p3072
aS'Uxbridge'
p3073
aS'10'
p3074
aS'4'
aS'4'
aS'12'
p3075
aa(lp3076
S'Jim Brough'
p3077
aS'1925'
p3078
aS'Fullback'
p3079
aS'Silloth'
p3080
aS'2'
aS'1'
aS'0'
aS'0'
aa(lp3081
S'John Gibbs'
p3082
aS'1925'
p3083
aS'Wing'
p3084
aS'Bromley'
p3085
aS'7'
aS'4'
aS'2'
aS'6'
aa(lp3086
S'Ronald Hillard'
p3087
aS'1925'
p3088
aS'Prop'
p3089
aS'Durham'
p3090
aS'1'
aS'0'
aS'0'
aS'0'
aa(lp3091
S'Harold Kittermaster'
p3092
aS'1925'
p3093
aS'Fly-half'
p3094
aS'Uppingham'
p3095
aS'7'
aS'2'
aS'3'
aS'9'
aa(lp3096
S'Rex Armstrong'
p3097
aS'1925'
p3098
aS'Prop'
p3099
aS'Newcastle-upon-Tyne'
p3100
aS'1'
aS'1'
aS'0'
aS'3'
aa(lp3101
S'Edward Massey'
p3102
aS'1925'
p3103
aS'Scrum-half'
p3104
aS'W Derby'
p3105
aS'3'
aS'1'
aS'0'
aS'0'
aa(lp3106
S'Joe Periton'
p3107
aS'1925'
p3108
aS'Flanker'
p3109
aS'Belfast'
p3110
aS'21'
p3111
aS'12'
p3112
aS'6'
aS'18'
p3113
aa(lp3114
S'Richard Lawson'
p3115
aS'1925'
p3116
aS'No. 8'
p3117
aS'Workington'
p3118
aS'1'
aS'0'
aS'0'
aS'0'
aa(lp3119
S'Roderick MacLennan'
p3120
aS'1925'
p3121
aS'Prop'
p3122
aS'Glasgow'
p3123
aS'3'
aS'1'
aS'0'
aS'0'
aa(lp3124
S'Duncan Cumming'
p3125
aS'1925'
p3126
aS'No. 8'
p3127
aS'Blackburn'
p3128
aS'2'
aS'1'
aS'0'
aS'0'
aa(lp3129
S'Stanley Considine'
p3130
aS'1925'
p3131
aS'Wing'
p3132
aS'Bilasur'
p3133
aS'1'
aS'1'
aS'0'
aS'0'
aa(lp3134
S'Alfred Aslett'
p3135
aS'1926'
p3136
aS'Centre'
p3137
aS'Calcutta'
p3138
aS'6'
aS'2'
aS'2'
aS'6'
aa(lp3139
S'Hyde Burton'
p3140
aS'1926'
p3141
aS'Wing'
p3142
aS"Bishop's Stortford"
p3143
aS'1'
aS'0'
aS'0'
aS'0'
aa(lp3144
S'Tim Francis'
p3145
aS'1926'
p3146
aS'Centre'
p3147
aS'Uitenhage'
p3148
aS'4'
aS'1'
aS'0'
aS'8'
aa(lp3149
S'Bob Hanvey'
p3150
aS'1926'
p3151
aS'Prop'
p3152
aS'Wigton'
p3153
aS'4'
aS'1'
aS'0'
aS'0'
aa(lp3154
S'Edward Stanbury'
p3155
aS'1926'
p3156
aS'Flanker'
p3157
aS'Plympton'
p3158
aS'16'
p3159
aS'9'
aS'0'
aS'13'
p3160
aa(lp3161
S'John Worton'
p3162
aS'1926'
p3163
aS'Scrum-half'
p3164
aS'Fulham'
p3165
aS'2'
aS'1'
aS'0'
aS'0'
aa(lp3166
S'Thomas Devitt'
p3167
aS'1926'
p3168
aS'Wing'
p3169
aS'Surrey'
p3170
aS'4'
aS'3'
aS'0'
aS'0'
aa(lp3171
S'Leslie Haslett'
p3172
aS'1926'
p3173
aS'Lock'
p3174
aS'Pontypool'
p3175
aS'2'
aS'1'
aS'1'
aS'3'
aa(lp3176
S'Bill Tucker'
p3177
aS'1926'
p3178
aS'No. 8'
p3179
aS'1903'
p3180
aS'3'
aS'1'
aS'0'
aS'0'
aa(lp3181
S'James Webb'
p3182
aS'1926'
p3183
aS'No. 8'
p3184
aS'Northampton'
p3185
aS'3'
aS'1'
aS'1'
aS'3'
aa(lp3186
S'Thomas Coulson'
p3187
aS'1927'
p3188
aS'No. 8'
p3189
aS'Bristol'
p3190
aS'3'
aS'3'
aS'0'
aS'0'
aa(lp3191
S'Jerry Hanley'
p3192
aS'1927'
p3193
aS'Flanker'
p3194
aS'Cork'
p3195
aS'7'
aS'5'
aS'1'
aS'3'
aa(lp3196
S'Colin Laird'
p3197
aS'1927'
p3198
aS'Fly-half'
p3199
aS'London'
p3200
aS'10'
p3201
aS'8'
aS'5'
aS'15'
p3202
aa(lp3203
S'Monkey Sellar'
p3204
aS'1927'
p3205
aS'Fullback'
p3206
aS'Lewisham'
p3207
aS'7'
aS'6'
aS'0'
aS'0'
aa(lp3208
S'Kendrick Stark'
p3209
aS'1927'
p3210
aS'Prop'
p3211
aS'Edmonton'
p3212
aS'9'
aS'7'
aS'0'
aS'5'
aa(lp3213
S'Harry Davies'
p3214
aS'1927'
p3215
aS'Flanker'
p3216
aS'Stockport'
p3217
aS'1'
aS'1'
aS'0'
aS'0'
aa(lp3218
S'Wallace Eyres'
p3219
aS'1927'
p3220
aS'No. 8'
p3221
aS'Barton Regis'
p3222
aS'1'
aS'1'
aS'0'
aS'0'
aa(lp3223
S'Douglas Law'
p3224
aS'1927'
p3225
aS'Prop'
p3226
aS'Huddersfield'
p3227
aS'1'
aS'1'
aS'0'
aS'0'
aa(lp3228
S'William Pratten'
p3229
aS'1927'
p3230
aS'Lock'
p3231
aS'Lewisham'
p3232
aS'2'
aS'0'
aS'0'
aS'0'
aa(lp3233
S'William Alexander'
p3234
aS'1927'
p3235
aS'Wing'
p3236
aS'?'
aS'1'
aS'0'
aS'0'
aS'0'
aa(lp3237
S'Colin Bishop'
p3238
aS'1927'
p3239
aS'Fly-half'
p3240
aS'Hampstead'
p3241
aS'1'
aS'0'
aS'0'
aS'0'
aa(lp3242
S'Ralph Buckingham'
p3243
aS'1927'
p3244
aS'Centre'
p3245
aS'Blaby'
p3246
aS'1'
aS'0'
aS'0'
aS'0'
aa(lp3247
S'Jack Wallens'
p3248
aS'1927'
p3249
aS'Fullback'
p3250
aS'Birkenhead'
p3251
aS'1'
aS'0'
aS'0'
aS'0'
aa(lp3252
S'Carl Aarvold'
p3253
aS'1928'
p3254
aS'Centre'
p3255
aS'Hartlepool'
p3256
aS'21'
p3257
aS'10'
p3258
aS'7'
aS'21'
p3259
aa(lp3260
S'William Kirwan-Taylor'
p3261
aS'1928'
p3262
aS'Wing'
p3263
aS'Surrey'
p3264
aS'5'
aS'5'
aS'2'
aS'6'
aa(lp3265
S'Thomas Lawson'
p3266
aS'1928'
p3267
aS'No. 8'
p3268
aS'Cockermouth'
p3269
aS'2'
aS'2'
aS'0'
aS'0'
aa(lp3270
S'James Richardson'
p3271
aS'1928'
p3272
aS'Centre'
p3273
aS'Cheshire'
p3274
aS'5'
aS'5'
aS'1'
aS'23'
p3275
aa(lp3276
S'David Turquand-Young'
p3277
aS'1928'
p3278
aS'Lock'
p3279
aS'London'
p3280
aS'5'
aS'3'
aS'0'
aS'0'
aa(lp3281
S'Godfrey Palmer'
p3282
aS'1928'
p3283
aS'Wing'
p3284
aS'Steyning'
p3285
aS'3'
aS'3'
aS'2'
aS'6'
aa(lp3286
S'Doug Prentice'
p3287
aS'1928'
p3288
aS'No. 8'
p3289
aS'Leicester'
p3290
aS'5'
aS'3'
aS'0'
aS'6'
aa(lp3291
S'Robert Sparks'
p3292
aS'1928'
p3293
aS'Prop'
p3294
aS'E Stonehouse'
p3295
aS'9'
aS'4'
aS'0'
aS'0'
aa(lp3296
S'Thomas Brown'
p3297
aS'1928'
p3298
aS'Fullback'
p3299
aS'Bristol'
p3300
aS'9'
aS'5'
aS'0'
aS'0'
aa(lp3301
S'Roy Foulds'
p3302
aS'1929'
p3303
aS'No. 8'
p3304
aS'W Derby'
p3305
aS'2'
aS'1'
aS'0'
aS'0'
aa(lp3306
S'Geoffrey Sladen'
p3307
aS'1929'
p3308
aS'Centre'
p3309
aS'Reigate'
p3310
aS'3'
aS'1'
aS'0'
aS'0'
aa(lp3311
S'Robert Smeddle'
p3312
aS'1929'
p3313
aS'Wing'
p3314
aS'Leeds'
p3315
aS'4'
aS'1'
aS'2'
aS'6'
aa(lp3316
S'Jack Swayne'
p3317
aS'1929'
p3318
aS'No. 8'
p3319
aS'Musoorie'
p3320
aS'1'
aS'1'
aS'0'
aS'0'
aa(lp3321
S'Herbert Whitley'
p3322
aS'1924'
p3323
aS'Scrum-half'
p3324
aS'Morpeth'
p3325
aS'4'
aS'1'
aS'0'
aS'0'
aa(lp3326
S'Harry Wilkinson'
p3327
aS'1929'
p3328
aS'Flanker'
p3329
aS'Halifax'
p3330
aS'4'
aS'2'
aS'2'
aS'6'
aa(lp3331
S'Guy Wilson'
p3332
aS'1929'
p3333
aS'Wing'
p3334
aS'Leigh'
p3335
aS'2'
aS'1'
aS'0'
aS'4'
aa(lp3336
S'Thomas Harris'
p3337
aS'1929'
p3338
aS'No. 8'
p3339
aS'Northampton'
p3340
aS'2'
aS'1'
aS'0'
aS'0'
aa(lp3341
S'Stephen Meikle'
p3342
aS'1929'
p3343
aS'Fly-half'
p3344
aS'West Derby'
p3345
aS'1'
aS'0'
aS'1'
aS'3'
aa(lp3346
S'Tony Novis'
p3347
aS'1929'
p3348
aS'Wing'
p3349
aS'1906'
p3350
aS'10'
p3351
aS'4'
aS'6'
aS'18'
p3352
aa(lp3353
S'Henry Rew'
p3354
aS'1929'
p3355
aS'Prop'
p3356
aS'Exeter'
p3357
aS'14'
p3358
aS'6'
aS'0'
aS'0'
aa(lp3359
S'Edward Richards'
p3360
aS'1929'
p3361
aS'Scrum-half'
p3362
aS'E Stonehouse'
p3363
aS'2'
aS'1'
aS'0'
aS'0'
aa(lp3364
S'Eric Coley'
p3365
aS'1929'
p3366
aS'No. 8'
p3367
aS'Northampton'
p3368
aS'2'
aS'1'
aS'1'
aS'3'
aa(lp3369
S'Charles Gummer'
p3370
aS'1929'
p3371
aS'No. 8'
p3372
aS'Surrey'
p3373
aS'1'
aS'1'
aS'1'
aS'3'
aa(lp3374
S'Sam Martindale'
p3375
aS'1929'
p3376
aS'Lock'
p3377
aS'Kendal'
p3378
aS'2'
aS'1'
aS'0'
aS'0'
aa(lp3379
S'Jim Reeve'
p3380
aS'1929'
p3381
aS'Wing'
p3382
aS'Kensington'
p3383
aS'12'
p3384
aS'4'
aS'6'
aS'18'
p3385
aa(lp3386
S'Roger Spong'
p3387
aS'1929'
p3388
aS'Fly-half'
p3389
aS'Barnet'
p3390
aS'13'
p3391
aS'4'
aS'0'
aS'0'
aa(lp3392
S'John Askew'
p3393
aS'1930'
p3394
aS'Fullback'
p3395
aS'Gateshead'
p3396
aS'3'
aS'2'
aS'0'
aS'0'
aa(lp3397
S'Alfred Bateson'
p3398
aS'1930'
p3399
aS'Prop'
p3400
aS'Yorks'
p3401
aS'4'
aS'2'
aS'0'
aS'0'
aa(lp3402
S'Brian Black'
p3403
aS'1930'
p3404
aS'Lock'
p3405
aS'1907'
p3406
aS'15'
p3407
aS'4'
aS'2'
aS'34'
p3408
aa(lp3409
S'Jeff Forrest'
p3410
aS'1930'
p3411
aS'Lock'
p3412
aS'Barnet'
p3413
aS'10'
p3414
aS'4'
aS'0'
aS'2'
aa(lp3415
S'Peter Howard'
p3416
aS'1930'
p3417
aS'No. 8'
p3418
aS'Maidenhead'
p3419
aS'8'
aS'2'
aS'0'
aS'0'
aa(lp3420
S'Joe Kendrew'
p3421
aS'1930'
p3422
aS'Prop'
p3423
aS'Barnstaple'
p3424
aS'10'
p3425
aS'5'
aS'0'
aS'2'
aa(lp3426
S'Frank Malir'
p3427
aS'1930'
p3428
aS'Centre'
p3429
aS'1905'
p3430
aS'3'
aS'1'
aS'0'
aS'0'
aa(lp3431
S'Matthew Robson'
p3432
aS'1930'
p3433
aS'Centre'
p3434
aS'Bellingham'
p3435
aS'4'
aS'2'
aS'1'
aS'3'
aa(lp3436
S'Wilf Sobey'
p3437
aS'1930'
p3438
aS'Scrum-half'
p3439
aS'1905'
p3440
aS'5'
aS'2'
aS'0'
aS'0'
aa(lp3441
S'Alan Key'
p3442
aS'1930'
p3443
aS'Scrum-half'
p3444
aS'Amersham'
p3445
aS'2'
aS'0'
aS'0'
aS'0'
aa(lp3446
S'Peter Brook'
p3447
aS'1930'
p3448
aS'Flanker'
p3449
aS'Thornton Heath'
p3450
aS'3'
aS'1'
aS'0'
aS'0'
aa(lp3451
S'John Hubbard'
p3452
aS'1930'
p3453
aS'Fullback'
p3454
aS'Woolwich'
p3455
aS'1'
aS'0'
aS'0'
aS'0'
aa(lp3456
S'Christopher Tanner'
p3457
aS'1930'
p3458
aS'Wing'
p3459
aS'Cheltenham'
p3460
aS'5'
aS'2'
aS'1'
aS'3'
aa(lp3461
S'Jimmy Barrington'
p3462
aS'1931'
p3463
aS'Fly-half'
p3464
aS'Bridgwater'
p3465
aS'2'
aS'0'
aS'0'
aS'0'
aa(lp3466
S'Lawrence Bedford'
p3467
aS'1931'
p3468
aS'Fullback'
p3469
aS'Leeds'
p3470
aS'2'
aS'0'
aS'0'
aS'0'
aa(lp3471
S'Maurice Bonaventura'
p3472
aS'1931'
p3473
aS'Prop'
p3474
aS'?'
aS'1'
aS'0'
aS'0'
aS'0'
aa(lp3475
S'Don Burland'
p3476
aS'1931'
p3477
aS'Centre'
p3478
aS'Bristol'
p3479
aS'8'
aS'3'
aS'3'
aS'23'
p3480
aa(lp3481
S'Richard Davey'
p3482
aS'1931'
p3483
aS'Flanker'
p3484
aS'Paddington'
p3485
aS'1'
aS'0'
aS'0'
aS'0'
aa(lp3486
S'Maurice McCanlis'
p3487
aS'1931'
p3488
aS'Centre'
p3489
aS'Quetta'
p3490
aS'2'
aS'0'
aS'0'
aS'0'
aa(lp3491
S'Brian Pope'
p3492
aS'1931'
p3493
aS'Scrum-half'
p3494
aS'Barnet'
p3495
aS'3'
aS'0'
aS'0'
aS'0'
aa(lp3496
S'Deneys Swayne'
p3497
aS'1931'
p3498
aS'Flanker'
p3499
aS'?'
aS'1'
aS'0'
aS'0'
aS'0'
aa(lp3500
S'Tinny Dean'
p3501
aS'1931'
p3502
aS'Scrum-half'
p3503
aS'Lewisham'
p3504
aS'1'
aS'0'
aS'0'
aS'0'
aa(lp3505
S'Pop Dunkley'
p3506
aS'1931'
p3507
aS'No. 8'
p3508
aS'Daventry'
p3509
aS'6'
aS'2'
aS'0'
aS'0'
aa(lp3510
S'Gordon Gregory'
p3511
aS'1931'
p3512
aS'Hooker'
p3513
aS'Taunton'
p3514
aS'13'
p3515
aS'6'
aS'0'
aS'4'
aa(lp3516
S'Ernest Harding'
p3517
aS'1931'
p3518
aS'No. 8'
p3519
aS'Mile End'
p3520
aS'1'
aS'0'
aS'0'
aS'0'
aa(lp3521
S'Cliff Harrison'
p3522
aS'1931'
p3523
aS'Wing'
p3524
aS'Hartlepool'
p3525
aS'2'
aS'0'
aS'0'
aS'0'
aa(lp3526
S'Peter Hordern'
p3527
aS'1931'
p3528
aS'Flanker'
p3529
aS'Berkhampstead'
p3530
aS'4'
aS'1'
aS'0'
aS'0'
aa(lp3531
S'Tom Knowles'
p3532
aS'1931'
p3533
aS'Fly-half'
p3534
aS'W Bromwich'
p3535
aS'1'
aS'0'
aS'0'
aS'0'
aa(lp3536
S'John Tallent'
p3537
aS'1931'
p3538
aS'Centre'
p3539
aS'Bromley'
p3540
aS'5'
aS'1'
aS'3'
aS'9'
aa(lp3541
S'Eric Whiteley'
p3542
aS'1931'
p3543
aS'Fullback'
p3544
aS'Croydon'
p3545
aS'2'
aS'0'
aS'0'
aS'0'
aa(lp3546
S'Bobby Barr'
p3547
aS'1932'
p3548
aS'Fullback'
p3549
aS'Blisworth'
p3550
aS'3'
aS'1'
aS'0'
aS'2'
aa(lp3551
S'Alfred Carpenter'
p3552
aS'1932'
p3553
aS'Prop'
p3554
aS'Mitcheldean'
p3555
aS'1'
aS'0'
aS'0'
aS'0'
aa(lp3556
S'Ronald Gerrard'
p3557
aS'1932'
p3558
aS'Centre'
p3559
aS'1912'
p3560
aS'14'
p3561
aS'8'
aS'0'
aS'0'
aa(lp3562
S'Reginald Hobbs'
p3563
aS'1932'
p3564
aS'Lock'
p3565
aS'Elham'
p3566
aS'4'
aS'2'
aS'0'
aS'0'
aa(lp3567
S'John Hodgson'
p3568
aS'1930'
p3569
aS'Flanker'
p3570
aS'Gosforth'
p3571
aS'9'
aS'5'
aS'0'
aS'0'
aa(lp3572
S'Doug Norman'
p3573
aS'1932'
p3574
aS'Hooker'
p3575
aS'Leicester'
p3576
aS'2'
aS'0'
aS'0'
aS'0'
aa(lp3577
S'Arthur Rowley'
p3578
aS'1932'
p3579
aS'No. 8'
p3580
aS'Coventry'
p3581
aS'1'
aS'0'
aS'0'
aS'0'
aa(lp3582
S'Les Saxby'
p3583
aS'1932'
p3584
aS'Flanker'
p3585
aS'Bradfield'
p3586
aS'2'
aS'0'
aS'0'
aS'0'
aa(lp3587
S'Charles Webb'
p3588
aS'1932'
p3589
aS'Lock'
p3590
aS'Plymouth'
p3591
aS'12'
p3592
aS'5'
aS'0'
aS'0'
aa(lp3593
S'Barney Evans'
p3594
aS'1932'
p3595
aS'Prop'
p3596
aS'Kent'
p3597
aS'5'
aS'3'
aS'0'
aS'0'
aa(lp3598
S'Walter Elliot'
p3599
aS'1932'
p3600
aS'Fly-half'
p3601
aS'Birkenhead'
p3602
aS'7'
aS'5'
aS'1'
aS'3'
aa(lp3603
S'Bernard Gadney'
p3604
aS'1932'
p3605
aS'Scrum-half'
p3606
aS'Oxford'
p3607
aS'14'
p3608
aS'9'
aS'1'
aS'3'
aa(lp3609
S'Reginald Roberts'
p3610
aS'1932'
p3611
aS'Hooker'
p3612
aS'Coventry'
p3613
aS'1'
aS'1'
aS'0'
aS'0'
aa(lp3614
S'Arthur Vaughan-Jones'
p3615
aS'1932'
p3616
aS'Flanker'
p3617
aS'Pontarddulais'
p3618
aS'3'
aS'2'
aS'0'
aS'0'
aa(lp3619
S'Ray Longland'
p3620
aS'1932'
p3621
aS'Prop'
p3622
aS'Lavendon'
p3623
aS'19'
p3624
aS'11'
p3625
aS'0'
aS'0'
aa(lp3626
S'Reggie Bolton'
p3627
aS'1933'
p3628
aS'Flanker'
p3629
aS'Prescot'
p3630
aS'5'
aS'3'
aS'2'
aS'6'
aa(lp3631
S'Lewis Booth'
p3632
aS'1933'
p3633
aS'Wing'
p3634
aS'Leeds'
p3635
aS'7'
aS'3'
aS'3'
aS'9'
aa(lp3636
S'Anthony Roncoroni'
p3637
aS'1933'
p3638
aS'Lock'
p3639
aS'Hendon'
p3640
aS'3'
aS'1'
aS'0'
aS'0'
aa(lp3641
S'Edward Sadler'
p3642
aS'1933'
p3643
aS'Flanker'
p3644
aS'Colchester'
p3645
aS'2'
aS'1'
aS'1'
aS'3'
aa(lp3646
S'Carlton Troop'
p3647
aS'1933'
p3648
aS'No. 8'
p3649
aS'Malton'
p3650
aS'2'
aS'1'
aS'0'
aS'0'
aa(lp3651
S'William Weston'
p3652
aS'1933'
p3653
aS'Flanker'
p3654
aS'Potterspury'
p3655
aS'16'
p3656
aS'10'
p3657
aS'0'
aS'0'
aa(lp3658
S'Peter Cranmer'
p3659
aS'1934'
p3660
aS'Centre'
p3661
aS'BHam'
p3662
aS'16'
p3663
aS'10'
p3664
aS'1'
aS'14'
p3665
aa(lp3666
S'John Dicks'
p3667
aS'1934'
p3668
aS'Lock'
p3669
aS'Nthants'
p3670
aS'8'
aS'6'
aS'0'
aS'0'
aa(lp3671
S'Henry Fry'
p3672
aS'1934'
p3673
aS'Flanker'
p3674
aS'W Derby'
p3675
aS'3'
aS'3'
aS'2'
aS'6'
aa(lp3676
S'Graham Meikle'
p3677
aS'1934'
p3678
aS'Wing'
p3679
aS'Waterloo'
p3680
aS'3'
aS'3'
aS'4'
aS'12'
p3681
aa(lp3682
S'Tuppy Owen-Smith'
p3683
aS'1934'
p3684
aS'Fullback'
p3685
aS'Rondebosch'
p3686
aS'10'
p3687
aS'8'
aS'0'
aS'0'
aa(lp3688
S'Tim Warr'
p3689
aS'1934'
p3690
aS'Wing'
p3691
aS'Birmingham'
p3692
aS'2'
aS'2'
aS'1'
aS'3'
aa(lp3693
S'John Wright'
p3694
aS'1934'
p3695
aS'Lock'
p3696
aS'Salop'
p3697
aS'1'
aS'1'
aS'0'
aS'0'
aa(lp3698
S'Charles Slow'
p3699
aS'1934'
p3700
aS'Fly-half'
p3701
aS'Northampton'
p3702
aS'1'
aS'1'
aS'0'
aS'0'
aa(lp3703
S'Harold Boughton'
p3704
aS'1935'
p3705
aS'Fullback'
p3706
aS'Gloucester'
p3707
aS'3'
aS'1'
aS'0'
aS'14'
p3708
aa(lp3709
S'Peter Candler'
p3710
aS'1935'
p3711
aS'Fly-half'
p3712
aS'Exeter'
p3713
aS'10'
p3714
aS'5'
aS'2'
aS'6'
aa(lp3715
S'Allan Clarke'
p3716
aS'1935'
p3717
aS'Lock'
p3718
aS'Coventry'
p3719
aS'6'
aS'2'
aS'0'
aS'0'
aa(lp3720
S'Arthur Cridlan'
p3721
aS'1935'
p3722
aS'Flanker'
p3723
aS'Ealing'
p3724
aS'3'
aS'1'
aS'0'
aS'0'
aa(lp3725
S'Jimmy Giles'
p3726
aS'1935'
p3727
aS'Scrum-half'
p3728
aS'Coventry'
p3729
aS'8'
aS'5'
aS'2'
aS'6'
aa(lp3730
S'Jack Heaton'
p3731
aS'1935'
p3732
aS'Centre'
p3733
aS'Lancs'
p3734
aS'9'
aS'5'
aS'0'
aS'17'
p3735
aa(lp3736
S'Dudley Kemp'
p3737
aS'1935'
p3738
aS'No. 8'
p3739
aS'Isle of Wight'
p3740
aS'1'
aS'0'
aS'0'
aS'0'
aa(lp3741
S'Roy Leyland'
p3742
aS'1935'
p3743
aS'Wing'
p3744
aS'Astley'
p3745
aS'3'
aS'1'
aS'0'
aS'0'
aa(lp3746
S'Ernie Nicholson'
p3747
aS'1935'
p3748
aS'Hooker'
p3749
aS'Long Ashton'
p3750
aS'5'
aS'2'
aS'0'
aS'0'
aa(lp3751
S'Arthur Payne'
p3752
aS'1935'
p3753
aS'No. 8'
p3754
aS'Bristol'
p3755
aS'2'
aS'1'
aS'0'
aS'0'
aa(lp3756
S'Dick Auty'
p3757
aS'1935'
p3758
aS'Fly-half'
p3759
aS'Yorks'
p3760
aS'1'
aS'0'
aS'0'
aS'0'
aa(lp3761
S'Edward Hamilton-Hill'
p3762
aS'1936'
p3763
aS'Flanker'
p3764
aS'Peterborough'
p3765
aS'3'
aS'1'
aS'0'
aS'0'
aa(lp3766
S'Alexander Obolensky'
p3767
aS'1936'
p3768
aS'Wing'
p3769
aS'Petrograd'
p3770
aS'4'
aS'2'
aS'2'
aS'6'
aa(lp3771
S'Hal Sever'
p3772
aS'1936'
p3773
aS'Wing'
p3774
aS'Bucklow'
p3775
aS'10'
p3776
aS'6'
aS'5'
aS'19'
p3777
aa(lp3778
S'Harold Wheatley'
p3779
aS'1936'
p3780
aS'Prop'
p3781
aS'Coventry'
p3782
aS'7'
aS'3'
aS'0'
aS'0'
aa(lp3783
S'Herbert Toft'
p3784
aS'1936'
p3785
aS'Hooker'
p3786
aS'Salford'
p3787
aS'10'
p3788
aS'7'
aS'0'
aS'0'
aa(lp3789
S'Arthur Butler'
p3790
aS'1937'
p3791
aS'Wing'
p3792
aS'Oxford'
p3793
aS'2'
aS'2'
aS'1'
aS'3'
aa(lp3794
S'David Campbell'
p3795
aS'1937'
p3796
aS'Flanker'
p3797
aS'NSW'
p3798
aS'2'
aS'2'
aS'0'
aS'0'
aa(lp3799
S'Thomas Huskisson'
p3800
aS'1937'
p3801
aS'Lock'
p3802
aS'Richmond'
p3803
aS'8'
aS'6'
aS'0'
aS'0'
aa(lp3804
S'Tommy Kemp'
p3805
aS'1937'
p3806
aS'Fly-half'
p3807
aS'Bolton'
p3808
aS'5'
aS'3'
aS'0'
aS'0'
aa(lp3809
S'Dermot Milman'
p3810
aS'1937'
p3811
aS'No. 8'
p3812
aS'Kent'
p3813
aS'4'
aS'2'
aS'0'
aS'0'
aa(lp3814
S'Robin Prescott'
p3815
aS'1937'
p3816
aS'Prop'
p3817
aS'Paddington'
p3818
aS'6'
aS'5'
aS'1'
aS'3'
aa(lp3819
S'Arthur Wheatley'
p3820
aS'1937'
p3821
aS'Lock'
p3822
aS'Coventry'
p3823
aS'5'
aS'3'
aS'0'
aS'0'
aa(lp3824
S'John Cook'
p3825
aS'1937'
p3826
aS'Flanker'
p3827
aS'Beds'
p3828
aS'1'
aS'1'
aS'0'
aS'0'
aa(lp3829
S'Jeff Reynolds'
p3830
aS'1937'
p3831
aS'Fly-half'
p3832
aS'Canton'
p3833
aS'5'
aS'2'
aS'1'
aS'7'
aa(lp3834
S'Jimmy Unwin'
p3835
aS'1937'
p3836
aS'Wing'
p3837
aS'Essex'
p3838
aS'6'
aS'2'
aS'3'
aS'9'
aa(lp3839
S'Hubert Freakes'
p3840
aS'1938'
p3841
aS'Fullback'
p3842
aS'Durban'
p3843
aS'3'
aS'1'
aS'0'
aS'2'
aa(lp3844
S'Basil Nicholson'
p3845
aS'1938'
p3846
aS'Centre'
p3847
aS'Lewisham'
p3848
aS'3'
aS'1'
aS'1'
aS'3'
aa(lp3849
S'Mike Marshall'
p3850
aS'1938'
p3851
aS'No. 8'
p3852
aS'Yorkshire'
p3853
aS'5'
aS'3'
aS'1'
aS'3'
aa(lp3854
S'Grahame Parker'
p3855
aS'1938'
p3856
aS'Fullback'
p3857
aS'Gloucester'
p3858
aS'2'
aS'1'
aS'0'
aS'24'
p3859
aa(lp3860
S'Alan Brown'
p3861
aS'1938'
p3862
aS'Flanker'
p3863
aS'St Helens'
p3864
aS'1'
aS'0'
aS'0'
aS'0'
aa(lp3865
S'Tom Berry'
p3866
aS'1939'
p3867
aS'Flanker'
p3868
aS'Slawston'
p3869
aS'3'
aS'2'
aS'0'
aS'0'
aa(lp3870
S'Robert Carr'
p3871
aS'1939'
p3872
aS'Wing'
p3873
aS'Backlow'
p3874
aS'3'
aS'2'
aS'0'
aS'0'
aa(lp3875
S'Paul Cooke'
p3876
aS'1939'
p3877
aS'Scrum-half'
p3878
aS'Marylebone'
p3879
aS'2'
aS'1'
aS'0'
aS'0'
aa(lp3880
S'Dickie Guest'
p3881
aS'1939'
p3882
aS'Wing'
p3883
aS'Prescot'
p3884
aS'13'
p3885
aS'7'
aS'5'
aS'15'
p3886
aa(lp3887
S'George Hancock'
p3888
aS'1939'
p3889
aS'Centre'
p3890
aS'Wirral'
p3891
aS'3'
aS'2'
aS'0'
aS'0'
aa(lp3892
S'Derek Teden'
p3893
aS'1939'
p3894
aS'Prop'
p3895
aS'Edmonton'
p3896
aS'3'
aS'2'
aS'1'
aS'3'
aa(lp3897
S'Gus Walker'
p3898
aS'1939'
p3899
aS'Fly-half'
p3900
aS'Garforth'
p3901
aS'2'
aS'1'
aS'0'
aS'0'
aa(lp3902
S'John Watkins'
p3903
aS'1939'
p3904
aS'Flanker'
p3905
aS'Taunton'
p3906
aS'3'
aS'2'
aS'0'
aS'0'
aa(lp3907
S'Jack Ellis'
p3908
aS'1939'
p3909
aS'Scrum-half'
p3910
aS'Leeds'
p3911
aS'1'
aS'1'
aS'0'
aS'0'
aa(lp3912
S'Ernest Parsons'
p3913
aS'1939'
p3914
aS'Fullback'
p3915
aS'Christchurch'
p3916
aS'1'
aS'1'
aS'0'
aS'0'
aa(lp3917
S'Billy Bennett'
p3918
aS'1947'
p3919
aS'Centre'
p3920
aS'Putney'
p3921
aS'7'
aS'3'
aS'1'
aS'3'
aa(lp3922
S'Arthur Gray'
p3923
aS'1947'
p3924
aS'Fullback'
p3925
aS'Leeds'
p3926
aS'3'
aS'2'
aS'0'
aS'2'
aa(lp3927
S'Nim Hall'
p3928
aS'1947'
p3929
aS'Fly-half'
p3930
aS'Huddersfield'
p3931
aS'17'
p3932
aS'9'
aS'0'
aS'39'
p3933
aa(lp3934
S'Alan Henderson'
p3935
aS'1947'
p3936
aS'Hooker'
p3937
aS'Kirkintilloch'
p3938
aS'9'
aS'3'
aS'1'
aS'3'
aa(lp3939
S'Geoffrey Kelly'
p3940
aS'1947'
p3941
aS'Prop'
p3942
aS'Royston'
p3943
aS'4'
aS'2'
aS'0'
aS'0'
aa(lp3944
S'Bill Moore'
p3945
aS'1947'
p3946
aS'Scrum-half'
p3947
aS'Leicester'
p3948
aS'7'
aS'4'
aS'0'
aS'0'
aa(lp3949
S'Joe Mycock'
p3950
aS'1947'
p3951
aS'Lock'
p3952
aS'Lancs'
p3953
aS'5'
aS'3'
aS'0'
aS'0'
aa(lp3954
S'Sam Perry'
p3955
aS'1947'
p3956
aS'Lock'
p3957
aS'Isle of Wight'
p3958
aS'7'
aS'1'
aS'0'
aS'0'
aa(lp3959
S'Edward Scott'
p3960
aS'1947'
p3961
aS'Centre'
p3962
aS'Cornwall'
p3963
aS'5'
aS'1'
aS'0'
aS'0'
aa(lp3964
S'Micky Steele-Bodger'
p3965
aS'1947'
p3966
aS'Flanker'
p3967
aS'Tamworth'
p3968
aS'9'
aS'3'
aS'0'
aS'0'
aa(lp3969
S'David Swarbrick'
p3970
aS'1947'
p3971
aS'Wing'
p3972
aS'Tynemouth'
p3973
aS'6'
aS'2'
aS'0'
aS'0'
aa(lp3974
S'Jika Travers'
p3975
aS'1947'
p3976
aS'Flanker'
p3977
aS'Waverley'
p3978
aS'6'
aS'3'
aS'0'
aS'4'
aa(lp3979
S'Harry Walker'
p3980
aS'1947'
p3981
aS'Prop'
p3982
aS'Aston'
p3983
aS'9'
aS'3'
aS'0'
aS'0'
aa(lp3984
S'Don White'
p3985
aS'1947'
p3986
aS'Flanker'
p3987
aS'Northants'
p3988
aS'14'
p3989
aS'8'
aS'2'
aS'6'
aa(lp3990
S'Squib Donnelly'
p3991
aS'1947'
p3992
aS'Centre'
p3993
aS'Ngaruawahia'
p3994
aS'1'
aS'0'
aS'0'
aS'0'
aa(lp3995
S'James George'
p3996
aS'1947'
p3997
aS'Lock'
p3998
aS'Falmouth'
p3999
aS'3'
aS'2'
aS'0'
aS'0'
aa(lp4000
S'Cyril Holmes'
p4001
aS'1947'
p4002
aS'Wing'
p4003
aS'Bolton'
p4004
aS'3'
aS'1'
aS'1'
aS'3'
aa(lp4005
S'Ossie Newton-Thompson'
p4006
aS'1947'
p4007
aS'Scrum-half'
p4008
aS'Paddington'
p4009
aS'2'
aS'2'
aS'0'
aS'0'
aa(lp4010
S'Bob Weighill'
p4011
aS'1947'
p4012
aS'No. 8'
p4013
aS'Kings Norton'
p4014
aS'4'
aS'2'
aS'0'
aS'0'
aa(lp4015
S'George Gibbs'
p4016
aS'1947'
p4017
aS'Prop'
p4018
aS'1920'
p4019
aS'2'
aS'1'
aS'0'
aS'0'
aa(lp4020
S'Syd Newman'
p4021
aS'1947'
p4022
aS'Fullback'
p4023
aS'Pretoria'
p4024
aS'3'
aS'1'
aS'0'
aS'3'
aa(lp4025
S'Vic Roberts'
p4026
aS'1947'
p4027
aS'Flanker'
p4028
aS'Penryn'
p4029
aS'16'
p4030
aS'7'
aS'2'
aS'6'
aa(lp4031
S'Eric Evans'
p4032
aS'1948'
p4033
aS'Hooker'
p4034
aS'Droylsden'
p4035
aS'30'
p4036
aS'17'
p4037
aS'5'
aS'15'
p4038
aa(lp4039
S'John Keeling'
p4040
aS'1948'
p4041
aS'Hooker'
p4042
aS'Cairo'
p4043
aS'2'
aS'0'
aS'0'
aS'0'
aa(lp4044
S'Richard Madge'
p4045
aS'1948'
p4046
aS'Scrum-half'
p4047
aS'Exeter'
p4048
aS'4'
aS'0'
aS'0'
aS'0'
aa(lp4049
S'Douglas Vaughan'
p4050
aS'1948'
p4051
aS'No. 8'
p4052
aS'Wrexham'
p4053
aS'8'
aS'2'
aS'0'
aS'0'
aa(lp4054
S'Humphrey Luya'
p4055
aS'1948'
p4056
aS'Lock'
p4057
aS'W Derby'
p4058
aS'5'
aS'0'
aS'0'
aS'0'
aa(lp4059
S'Ivor Preece'
p4060
aS'1948'
p4061
aS'Fly-half'
p4062
aS'Coventry'
p4063
aS'13'
p4064
aS'3'
aS'0'
aS'3'
aa(lp4065
S'Dick Uren'
p4066
aS'1948'
p4067
aS'Fullback'
p4068
aS'West Kirby'
p4069
aS'4'
aS'1'
aS'0'
aS'7'
aa(lp4070
S'Thomas Price'
p4071
aS'1948'
p4072
aS'Prop'
p4073
aS'?'
aS'6'
aS'2'
aS'0'
aS'0'
aa(lp4074
S'Martin Turner'
p4075
aS'1948'
p4076
aS'Wing'
p4077
aS'Croydon'
p4078
aS'2'
aS'0'
aS'0'
aS'0'
aa(lp4079
S'Lewis Cannell'
p4080
aS'1948'
p4081
aS'Centre'
p4082
aS'Coventry'
p4083
aS'19'
p4084
aS'9'
aS'2'
aS'6'
aa(lp4085
S'Patrick Sykes'
p4086
aS'1948'
p4087
aS'Scrum-half'
p4088
aS'Vancouver'
p4089
aS'7'
aS'5'
aS'0'
aS'0'
aa(lp4090
S'Allan Towell'
p4091
aS'1948'
p4092
aS'Centre'
p4093
aS'Middlesbrough'
p4094
aS'2'
aS'1'
aS'0'
aS'0'
aa(lp4095
S'Mike Berridge'
p4096
aS'1949'
p4097
aS'Prop'
p4098
aS'Huntingdon'
p4099
aS'2'
aS'0'
aS'0'
aS'0'
aa(lp4100
S'Bryan Braithwaite-Exley'
p4101
aS'1949'
p4102
aS'No. 8'
p4103
aS'Wetherby'
p4104
aS'1'
aS'0'
aS'0'
aS'0'
aa(lp4105
S'Tom Danby'
p4106
aS'1949'
p4107
aS'Wing'
p4108
aS'Durham'
p4109
aS'1'
aS'0'
aS'0'
aS'0'
aa(lp4110
S'Jack Gregory'
p4111
aS'1949'
p4112
aS'Wing'
p4113
aS'Bristol'
p4114
aS'1'
aS'0'
aS'0'
aS'0'
aa(lp4115
S'Barry Holmes'
p4116
aS'1949'
p4117
aS'Fullback'
p4118
aS'Buenos Aires'
p4119
aS'6'
aS'2'
aS'0'
aS'4'
aa(lp4120
S'Edward Horsfall'
p4121
aS'1949'
p4122
aS'Flanker'
p4123
aS'Huddersfield'
p4124
aS'1'
aS'0'
aS'0'
aS'0'
aa(lp4125
S'Geoffrey Hosking'
p4126
aS'1949'
p4127
aS'Lock'
p4128
aS'St Thomas'
p4129
aS'5'
aS'2'
aS'1'
aS'3'
aa(lp4130
S'Gordon Rimmer'
p4131
aS'1949'
p4132
aS'Scrum-half'
p4133
aS'Southport'
p4134
aS'13'
p4135
aS'3'
aS'0'
aS'0'
aa(lp4136
S'Clive van Ryneveld'
p4137
aS'1949'
p4138
aS'Centre'
p4139
aS'Cape Town'
p4140
aS'4'
aS'2'
aS'3'
aS'9'
aa(lp4141
S'John Kendall-Carpenter'
p4142
aS'1949'
p4143
aS'No. 8'
p4144
aS'Cardiff'
p4145
aS'23'
p4146
aS'12'
p4147
aS'1'
aS'3'
aa(lp4148
S'Robert Kennedy'
p4149
aS'1949'
p4150
aS'Wing'
p4151
aS'Rhodesia'
p4152
aS'3'
aS'2'
aS'1'
aS'3'
aa(lp4153
S'John Matthews'
p4154
aS'1949'
p4155
aS'Lock'
p4156
aS'Hastings'
p4157
aS'10'
p4158
aS'6'
aS'0'
aS'0'
aa(lp4159
S'John Steeds'
p4160
aS'1949'
p4161
aS'Hooker'
p4162
aS'Edmonton'
p4163
aS'5'
aS'3'
aS'0'
aS'0'
aa(lp4164
S'Brian Boobbyer'
p4165
aS'1950'
p4166
aS'Centre'
p4167
aS'Ealing'
p4168
aS'9'
aS'4'
aS'2'
aS'6'
aa(lp4169
S'Ian Botting'
p4170
aS'1950'
p4171
aS'Wing'
p4172
aS'Dunedin'
p4173
aS'2'
aS'1'
aS'0'
aS'0'
aa(lp4174
S'John Cain'
p4175
aS'1950'
p4176
aS'Flanker'
p4177
aS'W Derby'
p4178
aS'1'
aS'0'
aS'0'
aS'0'
aa(lp4179
S'Murray Hofmeyer'
p4180
aS'1950'
p4181
aS'Fullback'
p4182
aS'Pretoria'
p4183
aS'3'
aS'0'
aS'0'
aS'7'
aa(lp4184
S'Wally Holmes'
p4185
aS'1950'
p4186
aS'Prop'
p4187
aS'Nuneaton'
p4188
aS'16'
p4189
aS'8'
aS'0'
aS'0'
aa(lp4190
S'Herbert Jones'
p4191
aS'1950'
p4192
aS'Lock'
p4193
aS'Barnstaple?'
p4194
aS'3'
aS'1'
aS'0'
aS'0'
aa(lp4195
S'Harry Small'
p4196
aS'1950'
p4197
aS'Flanker'
p4198
aS'1922'
p4199
aS'4'
aS'1'
aS'0'
aS'0'
aa(lp4200
S'John Smith'
p4201
aS'1950'
p4202
aS'Wing'
p4203
aS'Stroud'
p4204
aS'4'
aS'1'
aS'4'
aS'12'
p4205
aa(lp4206
S'Akker Adkins'
p4207
aS'1950'
p4208
aS'Lock'
p4209
aS'Coventry'
p4210
aS'7'
aS'4'
aS'1'
aS'3'
aa(lp4211
S'John Hyde'
p4212
aS'1950'
p4213
aS'Wing'
p4214
aS'Wellingborough'
p4215
aS'2'
aS'0'
aS'0'
aS'0'
aa(lp4216
S'John Baume'
p4217
aS'1950'
p4218
aS'Prop'
p4219
aS'Dewsbury'
p4220
aS'1'
aS'0'
aS'0'
aS'0'
aa(lp4221
S'Jasper Bartlett'
p4222
aS'1951'
p4223
aS'Lock'
p4224
aS'Birmingham'
p4225
aS'1'
aS'0'
aS'0'
aS'0'
aa(lp4226
S'Ted Hewitt'
p4227
aS'1951'
p4228
aS'Fullback'
p4229
aS'Coventry'
p4230
aS'3'
aS'0'
aS'0'
aS'2'
aa(lp4231
S'Philip Moore'
p4232
aS'1951'
p4233
aS'No. 8'
p4234
aS'1921'
p4235
aS'1'
aS'0'
aS'0'
aS'0'
aa(lp4236
S'Lionel Oakley'
p4237
aS'1951'
p4238
aS'Centre'
p4239
aS'Dacca'
p4240
aS'1'
aS'0'
aS'0'
aS'0'
aa(lp4241
S'George Rittson-Thomas'
p4242
aS'1951'
p4243
aS'Flanker'
p4244
aS'Cardiff'
p4245
aS'3'
aS'0'
aS'1'
aS'3'
aa(lp4246
S'Trevor Smith'
p4247
aS'1951'
p4248
aS'Hooker'
p4249
aS'Bedford'
p4250
aS'1'
aS'0'
aS'0'
aS'0'
aa(lp4251
S'Bob Stirling'
p4252
aS'1951'
p4253
aS'Prop'
p4254
aS'Lichfield'
p4255
aS'18'
p4256
aS'10'
p4257
aS'1'
aS'3'
aa(lp4258
S'Vic Tindall'
p4259
aS'1951'
p4260
aS'Wing'
p4261
aS'Kingsclere'
p4262
aS'4'
aS'1'
aS'0'
aS'0'
aa(lp4263
S'Squire Wilkins'
p4264
aS'1951'
p4265
aS'Lock'
p4266
aS'Leeds'
p4267
aS'13'
p4268
aS'7'
aS'0'
aS'0'
aa(lp4269
S'Peter Woodruff'
p4270
aS'1951'
p4271
aS'Wing'
p4272
aS'Newport'
p4273
aS'4'
aS'1'
aS'0'
aS'0'
aa(lp4274
S'Evan Hardy'
p4275
aS'1951'
p4276
aS'Fly-half'
p4277
aS'Meerut'
p4278
aS'3'
aS'1'
aS'0'
aS'0'
aa(lp4279
S'Bruce Neale'
p4280
aS'1951'
p4281
aS'Lock'
p4282
aS'Chelsea'
p4283
aS'3'
aS'1'
aS'0'
aS'0'
aa(lp4284
S'John Williams'
p4285
aS'1951'
p4286
aS'Centre'
p4287
aS'Penzance'
p4288
aS'2'
aS'1'
aS'0'
aS'0'
aa(lp4289
S'William Hook'
p4290
aS'1951'
p4291
aS'Fullback'
p4292
aS'Gloucester'
p4293
aS'3'
aS'1'
aS'0'
aS'2'
aa(lp4294
S'Dennis Shuttleworth'
p4295
aS'1951'
p4296
aS'Scrum-half'
p4297
aS'Leeds'
p4298
aS'2'
aS'2'
aS'0'
aS'0'
aa(lp4299
S'Albert Agar'
p4300
aS'1952'
p4301
aS'Centre'
p4302
aS'Hartlepool'
p4303
aS'7'
aS'4'
aS'1'
aS'6'
aa(lp4304
S'Alec Lewis'
p4305
aS'1952'
p4306
aS'Flanker'
p4307
aS'Brighton'
p4308
aS'10'
p4309
aS'6'
aS'0'
aS'0'
aa(lp4310
S'Chris Winn'
p4311
aS'1952'
p4312
aS'Wing'
p4313
aS'Beckenham'
p4314
aS'8'
aS'5'
aS'3'
aS'9'
aa(lp4315
S'Ted Woodward'
p4316
aS'1952'
p4317
aS'Wing'
p4318
aS'Wycombe'
p4319
aS'15'
p4320
aS'8'
aS'6'
aS'21'
p4321
aa(lp4322
S'Elliott Woodgate'
p4323
aS'1952'
p4324
aS'Prop'
p4325
aS'Totnes'
p4326
aS'1'
aS'0'
aS'0'
aS'0'
aa(lp4327
S'Philip Collins'
p4328
aS'1952'
p4329
aS'Fullback'
p4330
aS'Redruth'
p4331
aS'3'
aS'3'
aS'0'
aS'0'
aa(lp4332
S'Reginald Bazley'
p4333
aS'1952'
p4334
aS'Wing'
p4335
aS'Barrow-in-Furness'
p4336
aS'10'
p4337
aS'6'
aS'2'
aS'6'
aa(lp4338
S'Nick Labuschagne'
p4339
aS'1953'
p4340
aS'Hooker'
p4341
aS'Durban'
p4342
aS'5'
aS'2'
aS'0'
aS'0'
aa(lp4343
S'Martin Regan'
p4344
aS'1953'
p4345
aS'Fly-half'
p4346
aS'St Helens'
p4347
aS'12'
p4348
aS'8'
aS'1'
aS'3'
aa(lp4349
S'Jeff Butterfield'
p4350
aS'1953'
p4351
aS'Centre'
p4352
aS'Heckmondwike'
p4353
aS'32'
p4354
aS'18'
p4355
aS'8'
aS'27'
p4356
aa(lp4357
S'Tug Wilson'
p4358
aS'1953'
p4359
aS'Flanker'
p4360
aS'Wilderness'
p4361
aS'8'
aS'5'
aS'4'
aS'12'
p4362
aa(lp4363
S'Phil Davies'
p4364
aS'1953'
p4365
aS'Centre'
p4366
aS'Worcs'
p4367
aS'14'
p4368
aS'7'
aS'1'
aS'3'
aa(lp4369
S'Reg Higgins'
p4370
aS'1954'
p4371
aS'Flanker'
p4372
aS'Lancs'
p4373
aS'14'
p4374
aS'9'
aS'2'
aS'6'
aa(lp4375
S'Ian King'
p4376
aS'1954'
p4377
aS'Fullback'
p4378
aS'Leyburn'
p4379
aS'3'
aS'2'
aS'0'
aS'5'
aa(lp4380
S'Pat Quinn'
p4381
aS'1954'
p4382
aS'Centre'
p4383
aS'Lancs'
p4384
aS'5'
aS'3'
aS'0'
aS'0'
aa(lp4385
S'Sandy Sanders'
p4386
aS'1954'
p4387
aS'Prop'
p4388
aS'Fulham'
p4389
aS'9'
aS'5'
aS'0'
aS'0'
aa(lp4390
S'Peter Yarranton'
p4391
aS'1954'
p4392
aS'Lock'
p4393
aS'Acton'
p4394
aS'5'
aS'3'
aS'0'
aS'0'
aa(lp4395
S'Peter Young'
p4396
aS'1954'
p4397
aS'Lock'
p4398
aS'Bristol'
p4399
aS'9'
aS'4'
aS'1'
aS'3'
aa(lp4400
S'John Bance'
p4401
aS'1954'
p4402
aS'Lock'
p4403
aS'Kingsclere'
p4404
aS'1'
aS'1'
aS'0'
aS'0'
aa(lp4405
S'Nigel Gibbs'
p4406
aS'1954'
p4407
aS'Fullback'
p4408
aS'1922'
p4409
aS'2'
aS'1'
aS'0'
aS'4'
aa(lp4410
S'Vic Leadbetter'
p4411
aS'1954'
p4412
aS'No. 8'
p4413
aS'Kettering'
p4414
aS'2'
aS'1'
aS'0'
aS'0'
aa(lp4415
S'Ernie Robinson'
p4416
aS'1954'
p4417
aS'Hooker'
p4418
aS'?'
aS'4'
aS'2'
aS'0'
aS'0'
aa(lp4419
S'Johnny Williams'
p4420
aS'1954'
p4421
aS'Scrum-half'
p4422
aS'Leeds N'
p4423
aS'9'
aS'3'
aS'1'
aS'3'
aa(lp4424
S'Doug Baker'
p4425
aS'1955'
p4426
aS'Fly-half'
p4427
aS'Canary Is'
p4428
aS'6'
aS'2'
aS'0'
aS'3'
aa(lp4429
S'William Hancock'
p4430
aS'1955'
p4431
aS'Lock'
p4432
aS'Monmouth'
p4433
aS'2'
aS'0'
aS'0'
aS'0'
aa(lp4434
S'George Hastings'
p4435
aS'1955'
p4436
aS'Prop'
p4437
aS'Dursley'
p4438
aS'13'
p4439
aS'8'
aS'1'
aS'11'
p4440
aa(lp4441
S'David Hazell'
p4442
aS'1955'
p4443
aS'Prop'
p4444
aS'Taunton'
p4445
aS'4'
aS'1'
aS'0'
aS'9'
aa(lp4446
S'Peter Ryan'
p4447
aS'1955'
p4448
aS'Flanker'
p4449
aS'Bucklow'
p4450
aS'2'
aS'0'
aS'0'
aS'0'
aa(lp4451
S'Noddy Taylor'
p4452
aS'1955'
p4453
aS'No. 8'
p4454
aS'Wakefield'
p4455
aS'6'
aS'1'
aS'0'
aS'0'
aa(lp4456
S'Ian Beer'
p4457
aS'1955'
p4458
aS'No. 8'
p4459
aS'Croydon'
p4460
aS'2'
aS'1'
aS'1'
aS'3'
aa(lp4461
S'Harry Scott'
p4462
aS'1955'
p4463
aS'Fullback'
p4464
aS'Yorks'
p4465
aS'1'
aS'0'
aS'0'
aS'0'
aa(lp4466
S'Frank Sykes'
p4467
aS'1955'
p4468
aS'Wing'
p4469
aS'Yorks'
p4470
aS'4'
aS'1'
aS'1'
aS'3'
aa(lp4471
S'Noel Estcourt'
p4472
aS'1955'
p4473
aS'Fullback'
p4474
aS'South Rhodesia'
p4475
aS'1'
aS'1'
aS'0'
aS'0'
aa(lp4476
S'Fenwick Allison'
p4477
aS'1956'
p4478
aS'Fullback'
p4479
aS'Tynemouth'
p4480
aS'7'
aS'3'
aS'0'
aS'15'
p4481
aa(lp4482
S'Ned Ashcroft'
p4483
aS'1956'
p4484
aS'No. 8'
p4485
aS'St Helens'
p4486
aS'18'
p4487
aS'11'
p4488
aS'1'
aS'3'
aa(lp4489
S'John Currie'
p4490
aS'1956'
p4491
aS'Lock'
p4492
aS'Clifton'
p4493
aS'25'
p4494
aS'14'
p4495
aS'0'
aS'16'
p4496
aa(lp4497
S'Peter Jackson'
p4498
aS'1956'
p4499
aS'Wing'
p4500
aS'Birmingham'
p4501
aS'25'
p4502
aS'15'
p4503
aS'8'
aS'24'
p4504
aa(lp4505
S'Ron Jacobs'
p4506
aS'1956'
p4507
aS'Prop'
p4508
aS'Cambs'
p4509
aS'29'
p4510
aS'14'
p4511
aS'0'
aS'0'
aa(lp4512
S'Dickie Jeeps'
p4513
aS'1955'
p4514
aS'Scrum-half'
p4515
aS'Chesterton'
p4516
aS'37'
p4517
aS'17'
p4518
aS'0'
aS'0'
aa(lp4519
S'David Marques'
p4520
aS'1956'
p4521
aS'Lock'
p4522
aS'Ware'
p4523
aS'25'
p4524
aS'14'
p4525
aS'1'
aS'3'
aa(lp4526
S'Peter Robbins'
p4527
aS'1956'
p4528
aS'Flanker'
p4529
aS'Coventry'
p4530
aS'19'
p4531
aS'11'
p4532
aS'0'
aS'0'
aa(lp4533
S'Mike Smith'
p4534
aS'1956'
p4535
aS'Fly-half'
p4536
aS'Leicester'
p4537
aS'1'
aS'0'
aS'0'
aS'0'
aa(lp4538
S'Peter Thompson'
p4539
aS'1956'
p4540
aS'Wing'
p4541
aS'Scarborough'
p4542
aS'17'
p4543
aS'10'
p4544
aS'5'
aS'15'
p4545
aa(lp4546
S'Ricky Bartlett'
p4547
aS'1957'
p4548
aS'Fly-half'
p4549
aS'Kingston'
p4550
aS'7'
aS'6'
aS'0'
aS'0'
aa(lp4551
S'Bob Challis'
p4552
aS'1957'
p4553
aS'Fullback'
p4554
aS'Long Ashton'
p4555
aS'3'
aS'3'
aS'0'
aS'10'
p4556
aa(lp4557
S'Phil Horrocks-Taylor'
p4558
aS'1958'
p4559
aS'Fly-half'
p4560
aS'Halifax'
p4561
aS'10'
p4562
aS'2'
aS'0'
aS'3'
aa(lp4563
S'Ronald Syrett'
p4564
aS'1958'
p4565
aS'Flanker'
p4566
aS'Amersham'
p4567
aS'11'
p4568
aS'7'
aS'1'
aS'3'
aa(lp4569
S'Jim Hetherington'
p4570
aS'1958'
p4571
aS'Fullback'
p4572
aS'Brighton'
p4573
aS'6'
aS'3'
aS'0'
aS'9'
aa(lp4574
S'Malcolm Phillips'
p4575
aS'1958'
p4576
aS'Centre'
p4577
aS'Prestbury'
p4578
aS'25'
p4579
aS'11'
p4580
aS'5'
aS'15'
p4581
aa(lp4582
S'John Young'
p4583
aS'1958'
p4584
aS'Wing'
p4585
aS'Chester'
p4586
aS'10'
p4587
aS'4'
aS'3'
aS'9'
aa(lp4588
S'Alfred Herbert'
p4589
aS'1958'
p4590
aS'Flanker'
p4591
aS'Stroud'
p4592
aS'6'
aS'2'
aS'0'
aS'0'
aa(lp4593
S'John Scott'
p4594
aS'1958'
p4595
aS'Fullback'
p4596
aS'?'
aS'1'
aS'1'
aS'0'
aS'0'
aa(lp4597
S'Gordon Bendon'
p4598
aS'1959'
p4599
aS'Prop'
p4600
aS'Lambeth'
p4601
aS'4'
aS'1'
aS'0'
aS'0'
aa(lp4602
S'Bev Risman'
p4603
aS'1959'
p4604
aS'Fly-half'
p4605
aS'Salford'
p4606
aS'12'
p4607
aS'4'
aS'2'
aS'18'
p4608
aa(lp4609
S'Stephen Smith'
p4610
aS'1959'
p4611
aS'Scrum-half'
p4612
aS'1934'
p4613
aS'5'
aS'1'
aS'0'
aS'0'
aa(lp4614
S'John Wackett'
p4615
aS'1959'
p4616
aS'Hooker'
p4617
aS'Hatfield'
p4618
aS'2'
aS'1'
aS'0'
aS'0'
aa(lp4619
S'Larry Webb'
p4620
aS'1959'
p4621
aS'Prop'
p4622
aS'VIC'
p4623
aS'4'
aS'1'
aS'0'
aS'0'
aa(lp4624
S'Brian Wightman'
p4625
aS'1959'
p4626
aS'No. 8'
p4627
aS'Birmingham'
p4628
aS'5'
aS'1'
aS'0'
aS'0'
aa(lp4629
S'Jeff Clements'
p4630
aS'1959'
p4631
aS'Flanker'
p4632
aS'Wincanton'
p4633
aS'3'
aS'1'
aS'0'
aS'0'
aa(lp4634
S'Herbert Godwin'
p4635
aS'1959'
p4636
aS'Hooker'
p4637
aS'Abergavenny'
p4638
aS'11'
p4639
aS'2'
aS'1'
aS'3'
aa(lp4640
S'Stan Hodgson'
p4641
aS'1960'
p4642
aS'Hooker'
p4643
aS'Durham'
p4644
aS'11'
p4645
aS'4'
aS'0'
aS'0'
aa(lp4646
S'William Morgan'
p4647
aS'1960'
p4648
aS'No. 8'
p4649
aS'Monmouth'
p4650
aS'9'
aS'4'
aS'0'
aS'0'
aa(lp4651
S'James Roberts'
p4652
aS'1960'
p4653
aS'Wing'
p4654
aS'?'
aS'18'
p4655
aS'8'
aS'6'
aS'18'
p4656
aa(lp4657
S'Don Rutherford'
p4658
aS'1960'
p4659
aS'Fullback'
p4660
aS'Tynemouth'
p4661
aS'15'
p4662
aS'5'
aS'0'
aS'41'
p4663
aa(lp4664
S'Richard Sharp'
p4665
aS'1960'
p4666
aS'Fly-half'
p4667
aS'Mysore'
p4668
aS'16'
p4669
aS'7'
aS'2'
aS'29'
p4670
aa(lp4671
S'Mike Weston'
p4672
aS'1960'
p4673
aS'Centre'
p4674
aS'Durham'
p4675
aS'35'
p4676
aS'13'
p4677
aS'1'
aS'6'
aa(lp4678
S'Peter Wright'
p4679
aS'1960'
p4680
aS'Prop'
p4681
aS'Glanford'
p4682
aS'13'
p4683
aS'5'
aS'0'
aS'0'
aa(lp4684
S'Bill Patterson'
p4685
aS'1959'
p4686
aS'Centre'
p4687
aS'Newcastle-upon-Tyne'
p4688
aS'3'
aS'1'
aS'0'
aS'0'
aa(lp4689
S'Laurie Rimmer'
p4690
aS'1961'
p4691
aS'Flanker'
p4692
aS'Liverpool S'
p4693
aS'5'
aS'1'
aS'0'
aS'0'
aa(lp4694
S'Ray French'
p4695
aS'1961'
p4696
aS'Lock'
p4697
aS'St Helens'
p4698
aS'4'
aS'1'
aS'0'
aS'0'
aa(lp4699
S'Mike Gavins'
p4700
aS'1961'
p4701
aS'Fullback'
p4702
aS'Leeds'
p4703
aS'1'
aS'0'
aS'0'
aS'0'
aa(lp4704
S'John Price'
p4705
aS'1961'
p4706
aS'Lock'
p4707
aS'?'
aS'1'
aS'0'
aS'0'
aS'0'
aa(lp4708
S'Budge Rogers'
p4709
aS'1961'
p4710
aS'Flanker'
p4711
aS'Bedford'
p4712
aS'36'
p4713
aS'10'
p4714
aS'3'
aS'9'
aa(lp4715
S'John Willcox'
p4716
aS'1961'
p4717
aS'Fullback'
p4718
aS'Sutton Coldfield'
p4719
aS'19'
p4720
aS'6'
aS'0'
aS'22'
p4721
aa(lp4722
S'Victor Harding'
p4723
aS'1961'
p4724
aS'Lock'
p4725
aS'Southwark'
p4726
aS'6'
aS'2'
aS'1'
aS'3'
aa(lp4727
S'Philip Judd'
p4728
aS'1962'
p4729
aS'Prop'
p4730
aS'Coventry'
p4731
aS'22'
p4732
aS'5'
aS'0'
aS'0'
aa(lp4733
S'Martin Underwood'
p4734
aS'1962'
p4735
aS'Wing'
p4736
aS'Kidderminster'
p4737
aS'5'
aS'1'
aS'0'
aS'0'
aa(lp4738
S'Mike Wade'
p4739
aS'1962'
p4740
aS'Centre'
p4741
aS'Leicester'
p4742
aS'3'
aS'1'
aS'1'
aS'3'
aa(lp4743
S'John Dee'
p4744
aS'1962'
p4745
aS'Centre'
p4746
aS'Hartlepool'
p4747
aS'2'
aS'0'
aS'0'
aS'0'
aa(lp4748
S'Andy Hurst'
p4749
aS'1962'
p4750
aS'Wing'
p4751
aS'Cairo'
p4752
aS'1'
aS'0'
aS'0'
aS'0'
aa(lp4753
S'Thomas Pargetter'
p4754
aS'1962'
p4755
aS'Lock'
p4756
aS'Stratford'
p4757
aS'3'
aS'1'
aS'0'
aS'0'
aa(lp4758
S'Stanley Purdy'
p4759
aS'1962'
p4760
aS'Flanker'
p4761
aS'Rugby'
p4762
aS'1'
aS'0'
aS'0'
aS'0'
aa(lp4763
S'Simon Clarke'
p4764
aS'1963'
p4765
aS'Scrum-half'
p4766
aS'Westcliff'
p4767
aS'13'
p4768
aS'4'
aS'1'
aS'3'
aa(lp4769
S'Mike Davis'
p4770
aS'1963'
p4771
aS'Lock'
p4772
aS'Lichfield'
p4773
aS'16'
p4774
aS'5'
aS'0'
aS'0'
aa(lp4775
S'Beverley Dovey'
p4776
aS'1963'
p4777
aS'Prop'
p4778
aS'Forest of Dean'
p4779
aS'2'
aS'1'
aS'0'
aS'0'
aa(lp4780
S'Nick Drake-Lee'
p4781
aS'1963'
p4782
aS'Prop'
p4783
aS'Kettering'
p4784
aS'8'
aS'3'
aS'1'
aS'3'
aa(lp4785
S'Dick Manley'
p4786
aS'1963'
p4787
aS'Flanker'
p4788
aS'Exeter'
p4789
aS'4'
aS'3'
aS'0'
aS'0'
aa(lp4790
S'John Owen'
p4791
aS'1963'
p4792
aS'Lock'
p4793
aS'Sutton Coldfield'
p4794
aS'14'
p4795
aS'4'
aS'1'
aS'3'
aa(lp4796
S'John Thorne'
p4797
aS'1963'
p4798
aS'Hooker'
p4799
aS'Bristol'
p4800
aS'3'
aS'2'
aS'0'
aS'0'
aa(lp4801
S'David Perry'
p4802
aS'1963'
p4803
aS'No. 8'
p4804
aS'SE Surrey'
p4805
aS'15'
p4806
aS'3'
aS'2'
aS'6'
aa(lp4807
S'Tug Wilson'
p4808
aS'1963'
p4809
aS'Prop'
p4810
aS'Newark'
p4811
aS'1'
aS'1'
aS'0'
aS'0'
aa(lp4812
S'Roger Hosen'
p4813
aS'1963'
p4814
aS'Fullback'
p4815
aS'Cornwall'
p4816
aS'10'
p4817
aS'3'
aS'0'
aS'63'
p4818
aa(lp4819
S'Victor Marriott'
p4820
aS'1963'
p4821
aS'Flanker'
p4822
aS'Battersea'
p4823
aS'4'
aS'0'
aS'0'
aS'0'
aa(lp4824
S'John Ranson'
p4825
aS'1963'
p4826
aS'Wing'
p4827
aS'Durham'
p4828
aS'7'
aS'1'
aS'2'
aS'6'
aa(lp4829
S'Roger Sangwin'
p4830
aS'1964'
p4831
aS'Centre'
p4832
aS'Holderness'
p4833
aS'2'
aS'0'
aS'0'
aS'0'
aa(lp4834
S'Peter Ford'
p4835
aS'1964'
p4836
aS'Flanker'
p4837
aS'Gloucester'
p4838
aS'4'
aS'1'
aS'0'
aS'0'
aa(lp4839
S'Bob Rowell'
p4840
aS'1964'
p4841
aS'Lock'
p4842
aS'Corbridge'
p4843
aS'2'
aS'0'
aS'0'
aS'0'
aa(lp4844
S'Tom Brophy'
p4845
aS'1964'
p4846
aS'Fly-half'
p4847
aS'Liverpool'
p4848
aS'8'
aS'1'
aS'0'
aS'0'
aa(lp4849
S'Colin Payne'
p4850
aS'1964'
p4851
aS'Lock'
p4852
aS'Edmonton'
p4853
aS'10'
p4854
aS'2'
aS'1'
aS'3'
aa(lp4855
S'Thomas Peart'
p4856
aS'1964'
p4857
aS'No. 8'
p4858
aS'Hartlepool'
p4859
aS'2'
aS'1'
aS'0'
aS'0'
aa(lp4860
S'Frederick Wrench'
p4861
aS'1964'
p4862
aS'Prop'
p4863
aS'Northwich'
p4864
aS'2'
aS'1'
aS'0'
aS'0'
aa(lp4865
S'Geoffrey Frankcom'
p4866
aS'1965'
p4867
aS'Centre'
p4868
aS'Bathavon'
p4869
aS'4'
aS'1'
aS'0'
aS'0'
aa(lp4870
S'Tony Horton'
p4871
aS'1965'
p4872
aS'Prop'
p4873
aS'Brentford'
p4874
aS'10'
p4875
aS'1'
aS'0'
aS'0'
aa(lp4876
S'Stephen Richards'
p4877
aS'1965'
p4878
aS'Hooker'
p4879
aS'W Kirby'
p4880
aS'9'
aS'3'
aS'0'
aS'0'
aa(lp4881
S'David Rosser'
p4882
aS'1965'
p4883
aS'Centre'
p4884
aS'Portsmouth'
p4885
aS'5'
aS'1'
aS'0'
aS'0'
aa(lp4886
S'Ted Rudd'
p4887
aS'1965'
p4888
aS'Wing'
p4889
aS'Liverpool'
p4890
aS'6'
aS'0'
aS'0'
aS'0'
aa(lp4891
S'Nicholas Silk'
p4892
aS'1965'
p4893
aS'Flanker'
p4894
aS'Lewes'
p4895
aS'4'
aS'1'
aS'0'
aS'0'
aa(lp4896
S'Colin Simpson'
p4897
aS'1965'
p4898
aS'Wing'
p4899
aS'Ipswich'
p4900
aS'1'
aS'0'
aS'0'
aS'0'
aa(lp4901
S'Peter Cook'
p4902
aS'1965'
p4903
aS'Wing'
p4904
aS'High Wycombe'
p4905
aS'2'
aS'1'
aS'0'
aS'0'
aa(lp4906
S'Andy Hancock'
p4907
aS'1965'
p4908
aS'Wing'
p4909
aS'Dartford'
p4910
aS'3'
aS'1'
aS'1'
aS'3'
aa(lp4911
S'Terence Arthur'
p4912
aS'1966'
p4913
aS'Centre'
p4914
aS'Hartlepool'
p4915
aS'2'
aS'0'
aS'0'
aS'0'
aa(lp4916
S'Piggy Powell'
p4917
aS'1966'
p4918
aS'Prop'
p4919
aS'Rugby'
p4920
aS'11'
p4921
aS'3'
aS'0'
aS'0'
aa(lp4922
S'John Pullin'
p4923
aS'1966'
p4924
aS'Hooker'
p4925
aS'Thornbury'
p4926
aS'49'
p4927
aS'15'
p4928
aS'1'
aS'3'
aa(lp4929
S'Keith Savage'
p4930
aS'1966'
p4931
aS'Wing'
p4932
aS'Warwick'
p4933
aS'17'
p4934
aS'3'
aS'1'
aS'3'
aa(lp4935
S'Jeremy Spencer'
p4936
aS'1966'
p4937
aS'Scrum-half'
p4938
aS'?'
aS'1'
aS'0'
aS'0'
aS'0'
aa(lp4939
S'Bob Taylor'
p4940
aS'1966'
p4941
aS'Flanker'
p4942
aS'Northampton'
p4943
aS'20'
p4944
aS'6'
aS'2'
aS'6'
aa(lp4945
S'Clive Ashby'
p4946
aS'1966'
p4947
aS'Scrum-half'
p4948
aS'Mozambique'
p4949
aS'3'
aS'0'
aS'1'
aS'3'
aa(lp4950
S'Dick Greenwood'
p4951
aS'1966'
p4952
aS'Flanker'
p4953
aS'Macclesfield'
p4954
aS'5'
aS'0'
aS'1'
aS'3'
aa(lp4955
S'Colin McFadyean'
p4956
aS'1966'
p4957
aS'Centre'
p4958
aS'Tavistock'
p4959
aS'15'
p4960
aS'2'
aS'5'
aS'18'
p4961
aa(lp4962
S'William Treadwell'
p4963
aS'1966'
p4964
aS'Hooker'
p4965
aS'Brentford'
p4966
aS'3'
aS'0'
aS'0'
aS'0'
aa(lp4967
S'Bob Hearn'
p4968
aS'1966'
p4969
aS'Centre'
p4970
aS'Cheltenham'
p4971
aS'6'
aS'2'
aS'0'
aS'0'
aa(lp4972
S'George Sherriff'
p4973
aS'1966'
p4974
aS'No. 8'
p4975
aS'Stepney'
p4976
aS'3'
aS'0'
aS'0'
aS'0'
aa(lp4977
S'Trevor Wintle'
p4978
aS'1966'
p4979
aS'Scrum-half'
p4980
aS'Forest of Dean'
p4981
aS'5'
aS'2'
aS'0'
aS'0'
aa(lp4982
S'Mike Coulman'
p4983
aS'1967'
p4984
aS'Prop'
p4985
aS'Stafford'
p4986
aS'10'
p4987
aS'3'
aS'1'
aS'3'
aa(lp4988
S'Peter Glover'
p4989
aS'1967'
p4990
aS'Wing'
p4991
aS'York'
p4992
aS'3'
aS'0'
aS'0'
aS'0'
aa(lp4993
S'Christopher Jennins'
p4994
aS'1967'
p4995
aS'Centre'
p4996
aS'Runcorn'
p4997
aS'3'
aS'1'
aS'0'
aS'0'
aa(lp4998
S'Peter Larter'
p4999
aS'1967'
p5000
aS'Lock'
p5001
aS'Totnes'
p5002
aS'25'
p5003
aS'7'
aS'1'
aS'6'
aa(lp5004
S'John Barton'
p5005
aS'1967'
p5006
aS'Lock'
p5007
aS'?'
aS'4'
aS'1'
aS'2'
aS'6'
aa(lp5008
S'John Finlan'
p5009
aS'1967'
p5010
aS'Fly-half'
p5011
aS'Warwick'
p5012
aS'13'
p5013
aS'4'
aS'0'
aS'9'
aa(lp5014
S'John Pallant'
p5015
aS'1967'
p5016
aS'No. 8'
p5017
aS'Nottingham'
p5018
aS'3'
aS'2'
aS'0'
aS'0'
aa(lp5019
S'Roger Pickering'
p5020
aS'1967'
p5021
aS'Scrum-half'
p5022
aS'Birmingham'
p5023
aS'6'
aS'3'
aS'0'
aS'0'
aa(lp5024
S'Dave Rollitt'
p5025
aS'1967'
p5026
aS'No. 8'
p5027
aS'Barnsley'
p5028
aS'11'
p5029
aS'5'
aS'1'
aS'3'
aa(lp5030
S'Dave Watt'
p5031
aS'1967'
p5032
aS'Lock'
p5033
aS'Bristol'
p5034
aS'4'
aS'2'
aS'0'
aS'0'
aa(lp5035
S'Rod Webb'
p5036
aS'1967'
p5037
aS'Wing'
p5038
aS'Newbold-on-Avon'
p5039
aS'12'
p5040
aS'4'
aS'2'
aS'6'
aa(lp5041
S'William Gittings'
p5042
aS'1967'
p5043
aS'Scrum-half'
p5044
aS'Coventry'
p5045
aS'1'
aS'0'
aS'0'
aS'0'
aa(lp5046
S'Bob Lloyd'
p5047
aS'1967'
p5048
aS'Centre'
p5049
aS'Plympton'
p5050
aS'5'
aS'1'
aS'2'
aS'6'
aa(lp5051
S'Peter Bell'
p5052
aS'1968'
p5053
aS'Flanker'
p5054
aS'Wandsworth'
p5055
aS'4'
aS'1'
aS'0'
aS'0'
aa(lp5056
S'David Gay'
p5057
aS'1968'
p5058
aS'No. 8'
p5059
aS'Bath'
p5060
aS'4'
aS'1'
aS'0'
aS'0'
aa(lp5061
S'Bob Hiller'
p5062
aS'1968'
p5063
aS'Fullback'
p5064
aS'Woking'
p5065
aS'19'
p5066
aS'6'
aS'3'
aS'138'
p5067
aa(lp5068
S'Brian Keen'
p5069
aS'1968'
p5070
aS'Prop'
p5071
aS'Bury St Edmunds'
p5072
aS'4'
aS'1'
aS'0'
aS'0'
aa(lp5073
S'Jim Parsons'
p5074
aS'1968'
p5075
aS'Lock'
p5076
aS'Chipping Norton'
p5077
aS'4'
aS'1'
aS'0'
aS'0'
aa(lp5078
S'Derek Prout'
p5079
aS'1968'
p5080
aS'Wing'
p5081
aS'Launceston'
p5082
aS'2'
aS'0'
aS'0'
aS'0'
aa(lp5083
S'Bill Redwood'
p5084
aS'1968'
p5085
aS'Scrum-half'
p5086
aS'Bristol'
p5087
aS'2'
aS'0'
aS'1'
aS'3'
aa(lp5088
S'Bryan West'
p5089
aS'1968'
p5090
aS'Flanker'
p5091
aS'Northampton'
p5092
aS'8'
aS'3'
aS'0'
aS'0'
aa(lp5093
S'Terence Brooke'
p5094
aS'1968'
p5095
aS'Centre'
p5096
aS'NE Surrey'
p5097
aS'2'
aS'1'
aS'0'
aS'0'
aa(lp5098
S'David Duckham'
p5099
aS'1969'
p5100
aS'Wing'
p5101
aS'Coventry'
p5102
aS'39'
p5103
aS'12'
p5104
aS'10'
p5105
aS'36'
p5106
aa(lp5107
S'Keith Fairbrother'
p5108
aS'1969'
p5109
aS'Prop'
p5110
aS'Coventry'
p5111
aS'12'
p5112
aS'5'
aS'0'
aS'0'
aa(lp5113
S'Keith Fielding'
p5114
aS'1969'
p5115
aS'Wing'
p5116
aS'Birmingham'
p5117
aS'10'
p5118
aS'4'
aS'1'
aS'3'
aa(lp5119
S'Nigel Horton'
p5120
aS'1969'
p5121
aS'Lock'
p5122
aS'Birmingham'
p5123
aS'20'
p5124
aS'7'
aS'1'
aS'4'
aa(lp5125
S'John Spencer'
p5126
aS'1969'
p5127
aS'Centre'
p5128
aS'Staincliffe'
p5129
aS'14'
p5130
aS'5'
aS'2'
aS'6'
aa(lp5131
S'Timothy Dalton'
p5132
aS'1969'
p5133
aS''
aS'Warwick'
p5134
aS'1'
aS'1'
aS'0'
aS'0'
aa(lp5135
S'Ken Plummer'
p5136
aS'1969'
p5137
aS'Wing'
p5138
aS'Falmouth'
p5139
aS'4'
aS'0'
aS'0'
aS'0'
aa(lp5140
S'Tony Bucknall'
p5141
aS'1969'
p5142
aS'Flanker'
p5143
aS'Torquay'
p5144
aS'10'
p5145
aS'3'
aS'0'
aS'0'
aa(lp5146
S'Peter Hale'
p5147
aS'1969'
p5148
aS'Wing'
p5149
aS'Birmingham'
p5150
aS'3'
aS'2'
aS'0'
aS'0'
aa(lp5151
S'Roger Shackleton'
p5152
aS'1969'
p5153
aS'Fly-half'
p5154
aS'Yorks'
p5155
aS'4'
aS'2'
aS'1'
aS'3'
aa(lp5156
S'Nigel Starmer-Smith'
p5157
aS'1969'
p5158
aS'Scrum-half'
p5159
aS'Cheltenham'
p5160
aS'7'
aS'2'
aS'0'
aS'0'
aa(lp5161
S'Stack Stevens'
p5162
aS'1969'
p5163
aS'Prop'
p5164
aS'Cornwall'
p5165
aS'25'
p5166
aS'9'
aS'2'
aS'8'
aa(lp5167
S'Chris Wardlow'
p5168
aS'1969'
p5169
aS'Centre'
p5170
aS'Carlisle'
p5171
aS'6'
aS'2'
aS'0'
aS'0'
aa(lp5172
S'John Novak'
p5173
aS'1970'
p5174
aS'Wing'
p5175
aS'Stratford-upon-Avon'
p5176
aS'3'
aS'0'
aS'1'
aS'3'
aa(lp5177
S'Mike Bulpitt'
p5178
aS'1970'
p5179
aS'Wing'
p5180
aS'Yorks'
p5181
aS'1'
aS'0'
aS'0'
aS'0'
aa(lp5182
S'Barry Jackson'
p5183
aS'1970'
p5184
aS'Prop'
p5185
aS'Manchester N?'
p5186
aS'2'
aS'0'
aS'0'
aS'0'
aa(lp5187
S'Tony Jorden'
p5188
aS'1970'
p5189
aS'Fullback'
p5190
aS'Herts'
p5191
aS'7'
aS'3'
aS'0'
aS'22'
p5192
aa(lp5193
S'Mike Leadbetter'
p5194
aS'1970'
p5195
aS'Lock'
p5196
aS'Southport'
p5197
aS'1'
aS'0'
aS'0'
aS'0'
aa(lp5198
S'Gerry Redmond'
p5199
aS'1970'
p5200
aS'No. 8'
p5201
aS'Weston'
p5202
aS'1'
aS'0'
aS'0'
aS'0'
aa(lp5203
S'Charlie Hannaford'
p5204
aS'1971'
p5205
aS'No. 8'
p5206
aS'Gloucester'
p5207
aS'3'
aS'1'
aS'1'
aS'3'
aa(lp5208
S'Jeremy Janion'
p5209
aS'1971'
p5210
aS'Wing'
p5211
aS"Bishop's Stortford"
p5212
aS'12'
p5213
aS'3'
aS'0'
aS'0'
aa(lp5214
S'Tony Neary'
p5215
aS'1971'
p5216
aS'Flanker'
p5217
aS'Manchester'
p5218
aS'44'
p5219
aS'15'
p5220
aS'5'
aS'19'
p5221
aa(lp5222
S'Barry Ninnes'
p5223
aS'1971'
p5224
aS'Lock'
p5225
aS'St Ives'
p5226
aS'1'
aS'0'
aS'0'
aS'0'
aa(lp5227
S'Jacko Page'
p5228
aS'1971'
p5229
aS'Scrum-half'
p5230
aS'Brighton'
p5231
aS'5'
aS'2'
aS'0'
aS'0'
aa(lp5232
S'Peter Rossborough'
p5233
aS'1971'
p5234
aS'Fullback'
p5235
aS'Coventry'
p5236
aS'7'
aS'2'
aS'1'
aS'34'
p5237
aa(lp5238
S'Ian Wright'
p5239
aS'1971'
p5240
aS'Fly-half'
p5241
aS'Croydon'
p5242
aS'4'
aS'1'
aS'0'
aS'0'
aa(lp5243
S'Fran Cotton'
p5244
aS'1971'
p5245
aS'Prop'
p5246
aS'Wigan'
p5247
aS'38'
p5248
aS'17'
p5249
aS'1'
aS'4'
aa(lp5250
S'Dick Cowman'
p5251
aS'1971'
p5252
aS'Fly-half'
p5253
aS'Workington'
p5254
aS'5'
aS'0'
aS'0'
aS'6'
aa(lp5255
S'Christopher Ralston'
p5256
aS'1971'
p5257
aS'Lock'
p5258
aS'Hendon'
p5259
aS'23'
p5260
aS'7'
aS'1'
aS'4'
aa(lp5261
S'Roger Creed'
p5262
aS'1971'
p5263
aS'Flanker'
p5264
aS'Solihull'
p5265
aS'1'
aS'0'
aS'0'
aS'0'
aa(lp5266
S'Peter Dixon'
p5267
aS'1971'
p5268
aS'Flanker'
p5269
aS'Yorks'
p5270
aS'25'
p5271
aS'8'
aS'5'
aS'19'
p5272
aa(lp5273
S'Mike Beese'
p5274
aS'1972'
p5275
aS'Centre'
p5276
aS'Bristol'
p5277
aS'3'
aS'0'
aS'1'
aS'4'
aa(lp5278
S'Alan Brinn'
p5279
aS'1972'
p5280
aS'Lock'
p5281
aS'Rhondda'
p5282
aS'3'
aS'0'
aS'0'
aS'0'
aa(lp5283
S'Mike Burton'
p5284
aS'1972'
p5285
aS'Prop'
p5286
aS'Maidenhead'
p5287
aS'17'
p5288
aS'4'
aS'0'
aS'0'
aa(lp5289
S'Alan Old'
p5290
aS'1972'
p5291
aS'Fly-half'
p5292
aS'Middlesbrough'
p5293
aS'16'
p5294
aS'4'
aS'1'
aS'98'
p5295
aa(lp5296
S'Andy Ripley'
p5297
aS'1972'
p5298
aS'No. 8'
p5299
aS'S Liverpool'
p5300
aS'24'
p5301
aS'8'
aS'2'
aS'8'
aa(lp5302
S'Jan Webster'
p5303
aS'1972'
p5304
aS'Scrum-half'
p5305
aS'Southport'
p5306
aS'11'
p5307
aS'3'
aS'0'
aS'0'
aa(lp5308
S'Peter Knight'
p5309
aS'1972'
p5310
aS'Fullback'
p5311
aS'Bristol'
p5312
aS'3'
aS'1'
aS'0'
aS'0'
aa(lp5313
S'Lionel Weston'
p5314
aS'1972'
p5315
aS'Scrum-half'
p5316
aS'Wenlock'
p5317
aS'2'
aS'0'
aS'0'
aS'0'
aa(lp5318
S'Nick Martin'
p5319
aS'1972'
p5320
aS'Lock'
p5321
aS'Cambridge'
p5322
aS'1'
aS'0'
aS'0'
aS'0'
aa(lp5323
S'Geoff Evans'
p5324
aS'1972'
p5325
aS'Centre'
p5326
aS'Coventry'
p5327
aS'9'
aS'4'
aS'1'
aS'7'
aa(lp5328
S'Sam Doble'
p5329
aS'1972'
p5330
aS'Fullback'
p5331
aS'Wolverhampton'
p5332
aS'3'
aS'1'
aS'0'
aS'20'
p5333
aa(lp5334
S'Alan Morley'
p5335
aS'1972'
p5336
aS'Wing'
p5337
aS'Bristol'
p5338
aS'7'
aS'2'
aS'2'
aS'8'
aa(lp5339
S'Peter Preece'
p5340
aS'1972'
p5341
aS'Centre'
p5342
aS'Meriden'
p5343
aS'12'
p5344
aS'4'
aS'0'
aS'0'
aa(lp5345
S'John Watkins'
p5346
aS'1972'
p5347
aS'Flanker'
p5348
aS'Gloucester'
p5349
aS'7'
aS'3'
aS'0'
aS'0'
aa(lp5350
S'Frank Anderson'
p5351
aS'1973'
p5352
aS'Prop'
p5353
aS'Ormskirk'
p5354
aS'1'
aS'0'
aS'0'
aS'0'
aa(lp5355
S'Peter Warfield'
p5356
aS'1973'
p5357
aS'Centre'
p5358
aS'Lincs'
p5359
aS'6'
aS'1'
aS'0'
aS'0'
aa(lp5360
S'Steve Smith'
p5361
aS'1973'
p5362
aS'Scrum-half'
p5363
aS'Stockport'
p5364
aS'28'
p5365
aS'13'
p5366
aS'2'
aS'8'
aa(lp5367
S'Roger Uttley'
p5368
aS'1973'
p5369
aS'Lock'
p5370
aS'Blackpool'
p5371
aS'27'
p5372
aS'15'
p5373
aS'3'
aS'12'
p5374
aa(lp5375
S'Martin Cooper'
p5376
aS'1973'
p5377
aS'Fly-half'
p5378
aS'Burton-on-Trent'
p5379
aS'11'
p5380
aS'6'
aS'1'
aS'4'
aa(lp5381
S'Peter Squires'
p5382
aS'1973'
p5383
aS'Wing'
p5384
aS'Yorks'
p5385
aS'30'
p5386
aS'12'
p5387
aS'6'
aS'24'
p5388
aa(lp5389
S'David Roughley'
p5390
aS'1973'
p5391
aS'Centre'
p5392
aS'Warrington'
p5393
aS'3'
aS'1'
aS'0'
aS'0'
aa(lp5394
S'Keith Smith'
p5395
aS'1974'
p5396
aS'Centre'
p5397
aS'Leeds'
p5398
aS'4'
aS'2'
aS'0'
aS'0'
aa(lp5399
S'Dusty Hare'
p5400
aS'1974'
p5401
aS'Fullback'
p5402
aS'Newark'
p5403
aS'25'
p5404
aS'11'
p5405
aS'2'
aS'240'
p5406
aa(lp5407
S'Bill Beaumont'
p5408
aS'1975'
p5409
aS'Lock'
p5410
aS'Preston'
p5411
aS'41'
p5412
aS'16'
p5413
aS'0'
aS'0'
aa(lp5414
S'Peter Wheeler'
p5415
aS'1975'
p5416
aS'Hooker'
p5417
aS'S Norwood'
p5418
aS'48'
p5419
aS'19'
p5420
aS'0'
aS'0'
aa(lp5421
S'Neil Bennett'
p5422
aS'1975'
p5423
aS'Fly-half'
p5424
aS'IOM'
p5425
aS'7'
aS'2'
aS'2'
aS'23'
p5426
aa(lp5427
S'Peter Butler'
p5428
aS'1975'
p5429
aS'Fullback'
p5430
aS'Gloucester'
p5431
aS'2'
aS'0'
aS'0'
aS'10'
p5432
aa(lp5433
S'Peter Kingston'
p5434
aS'1975'
p5435
aS'Scrum-half'
p5436
aS'Lydney?'
p5437
aS'5'
aS'1'
aS'0'
aS'0'
aa(lp5438
S'Neil Mantell'
p5439
aS'1975'
p5440
aS'Lock'
p5441
aS'Reigate'
p5442
aS'1'
aS'0'
aS'0'
aS'0'
aa(lp5443
S'Andy Maxwell'
p5444
aS'1975'
p5445
aS'Centre'
p5446
aS'W Kirby'
p5447
aS'7'
aS'1'
aS'1'
aS'4'
aa(lp5448
S'Barry Nelmes'
p5449
aS'1975'
p5450
aS'Prop'
p5451
aS'Bristol'
p5452
aS'6'
aS'2'
aS'1'
aS'4'
aa(lp5453
S'Alan Wordsworth'
p5454
aS'1975'
p5455
aS'Fly-half'
p5456
aS'Thornton Heath'
p5457
aS'1'
aS'0'
aS'0'
aS'0'
aa(lp5458
S'Alastair Hignell'
p5459
aS'1975'
p5460
aS'Fullback'
p5461
aS'Cambs'
p5462
aS'14'
p5463
aS'4'
aS'0'
aS'48'
p5464
aa(lp5465
S'Bob Wilkinson'
p5466
aS'1975'
p5467
aS'Lock'
p5468
aS'Luton'
p5469
aS'6'
aS'1'
aS'0'
aS'0'
aa(lp5470
S'Barry Corless'
p5471
aS'1976'
p5472
aS'Centre'
p5473
aS'Norfolk'
p5474
aS'10'
p5475
aS'5'
aS'1'
aS'4'
aa(lp5476
S'Mark Keyworth'
p5477
aS'1976'
p5478
aS'Flanker'
p5479
aS'Bridgnorth'
p5480
aS'4'
aS'1'
aS'0'
aS'0'
aa(lp5481
S'Mike Lampkowski'
p5482
aS'1976'
p5483
aS'Scrum-half'
p5484
aS'Scunthorpe'
p5485
aS'4'
aS'1'
aS'1'
aS'4'
aa(lp5486
S'David Cooke'
p5487
aS'1976'
p5488
aS'Centre'
p5489
aS'1949'
p5490
aS'4'
aS'0'
aS'0'
aS'0'
aa(lp5491
S'Derek Wyatt'
p5492
aS'1976'
p5493
aS'Wing'
p5494
aS'Woolwich'
p5495
aS'1'
aS'0'
aS'0'
aS'0'
aa(lp5496
S'Garry Adey'
p5497
aS'1976'
p5498
aS'No. 8'
p5499
aS'Loughborough'
p5500
aS'2'
aS'0'
aS'0'
aS'0'
aa(lp5501
S'Mike Slemen'
p5502
aS'1976'
p5503
aS'Wing'
p5504
aS'Liverpool'
p5505
aS'32'
p5506
aS'15'
p5507
aS'8'
aS'32'
p5508
aa(lp5509
S'Christopher Williams'
p5510
aS'1976'
p5511
aS'Fly-half'
p5512
aS'?'
aS'1'
aS'0'
aS'0'
aS'0'
aa(lp5513
S'Robin Cowling'
p5514
aS'1977'
p5515
aS'Prop'
p5516
aS'Ipswich'
p5517
aS'8'
aS'2'
aS'0'
aS'0'
aa(lp5518
S'Charles Kent'
p5519
aS'1977'
p5520
aS'Centre'
p5521
aS'Bridgwater'
p5522
aS'5'
aS'2'
aS'1'
aS'4'
aa(lp5523
S'Mike Rafter'
p5524
aS'1977'
p5525
aS'Flanker'
p5526
aS'Bristol'
p5527
aS'17'
p5528
aS'6'
aS'0'
aS'0'
aa(lp5529
S'Malcolm Young'
p5530
aS'1977'
p5531
aS'Scrum-half'
p5532
aS'NHumberlnd'
p5533
aS'10'
p5534
aS'4'
aS'1'
aS'15'
p5535
aa(lp5536
S'John Scott'
p5537
aS'1978'
p5538
aS'No. 8'
p5539
aS'Exeter'
p5540
aS'34'
p5541
aS'14'
p5542
aS'1'
aS'4'
aa(lp5543
S'Paul Dodge'
p5544
aS'1978'
p5545
aS'Centre'
p5546
aS'Leicester'
p5547
aS'34'
p5548
aS'15'
p5549
aS'1'
aS'15'
p5550
aa(lp5551
S'John Horton'
p5552
aS'1978'
p5553
aS'Fly-half'
p5554
aS'St Helens'
p5555
aS'13'
p5556
aS'6'
aS'0'
aS'12'
p5557
aa(lp5558
S'Bob Mordell'
p5559
aS''
aS'Flanker'
p5560
aS'Twickenham'
p5561
aS'1'
aS'0'
aS'0'
aS'0'
aa(lp5562
S'David Caplan'
p5563
aS'1978'
p5564
aS'Fullback'
p5565
aS'Leeds'
p5566
aS'2'
aS'2'
aS'0'
aS'0'
aa(lp5567
S'Maurice Colclough'
p5568
aS'1978'
p5569
aS'Lock'
p5570
aS'Oxford'
p5571
aS'33'
p5572
aS'15'
p5573
aS'1'
aS'4'
aa(lp5574
S'Tony Bond'
p5575
aS'1978'
p5576
aS'Centre'
p5577
aS'Manchester'
p5578
aS'6'
aS'1'
aS'0'
aS'0'
aa(lp5579
S'Gary Pearce'
p5580
aS'1979'
p5581
aS'Prop'
p5582
aS'Bucks'
p5583
aS'36'
p5584
aS'12'
p5585
aS'0'
aS'0'
aa(lp5586
S'Richard Cardus'
p5587
aS'1979'
p5588
aS'Centre'
p5589
aS'Leeds'
p5590
aS'2'
aS'1'
aS'0'
aS'0'
aa(lp5591
S'Colin Smart'
p5592
aS'1979'
p5593
aS'Prop'
p5594
aS'Highbury'
p5595
aS'17'
p5596
aS'7'
aS'0'
aS'0'
aa(lp5597
S'John Carleton'
p5598
aS'1979'
p5599
aS'Wing'
p5600
aS'Orrell'
p5601
aS'32'
p5602
aS'13'
p5603
aS'7'
aS'28'
p5604
aa(lp5605
S'Les Cusworth'
p5606
aS'1979'
p5607
aS'Fly-half'
p5608
aS'Normanton'
p5609
aS'12'
p5610
aS'4'
aS'0'
aS'12'
p5611
aa(lp5612
S'Nick Preston'
p5613
aS'1979'
p5614
aS'Centre'
p5615
aS'Prestwich'
p5616
aS'3'
aS'2'
aS'1'
aS'4'
aa(lp5617
S'Phil Blakeway'
p5618
aS'1980'
p5619
aS'Prop'
p5620
aS'Cheltenham'
p5621
aS'19'
p5622
aS'11'
p5623
aS'0'
aS'0'
aa(lp5624
S'Clive Woodward'
p5625
aS'1980'
p5626
aS'Centre'
p5627
aS'Cambs'
p5628
aS'23'
p5629
aS'12'
p5630
aS'4'
aS'16'
p5631
aa(lp5632
S'David Cooke'
p5633
aS'1981'
p5634
aS'Flanker'
p5635
aS'QLD'
p5636
aS'12'
p5637
aS'5'
aS'0'
aS'0'
aa(lp5638
S'Austin Sheppard'
p5639
aS'1981'
p5640
aS'Prop'
p5641
aS'Bristol'
p5642
aS'2'
aS'0'
aS'0'
aS'0'
aa(lp5643
S'Huw Davies'
p5644
aS'1981'
p5645
aS'Fly-half'
p5646
aS'Eastbourne'
p5647
aS'21'
p5648
aS'7'
aS'4'
aS'16'
p5649
aa(lp5650
S'Nick Jeavons'
p5651
aS'1981'
p5652
aS'Flanker'
p5653
aS'Calcutta'
p5654
aS'14'
p5655
aS'6'
aS'1'
aS'4'
aa(lp5656
S'Bob Hesford'
p5657
aS'1981'
p5658
aS'No. 8'
p5659
aS'Blackpool'
p5660
aS'10'
p5661
aS'5'
aS'0'
aS'0'
aa(lp5662
S'Marcus Rose'
p5663
aS'1981'
p5664
aS'Fullback'
p5665
aS'Loughborough'
p5666
aS'10'
p5667
aS'3'
aS'2'
aS'82'
p5668
aa(lp5669
S'Gordon Sargent'
p5670
aS'1981'
p5671
aS'Prop'
p5672
aS'Gloucester'
p5673
aS'1'
aS'1'
aS'0'
aS'0'
aa(lp5674
S'John Fidler'
p5675
aS'1981'
p5676
aS'Lock'
p5677
aS'Cheltenham'
p5678
aS'4'
aS'1'
aS'0'
aS'0'
aa(lp5679
S'Steve Mills'
p5680
aS'1981'
p5681
aS'Hooker'
p5682
aS'Cirencester'
p5683
aS'5'
aS'1'
aS'0'
aS'0'
aa(lp5684
S'Tony Swift'
p5685
aS'1981'
p5686
aS'Wing'
p5687
aS'Preston'
p5688
aS'6'
aS'1'
aS'0'
aS'0'
aa(lp5689
S'Peter Winterbottom'
p5690
aS'1982'
p5691
aS'Flanker'
p5692
aS'Leeds'
p5693
aS'65'
p5694
aS'32'
p5695
aS'3'
aS'13'
p5696
aa(lp5697
S'Nick Stringer'
p5698
aS'1982'
p5699
aS'Fullback'
p5700
aS'Harrow'
p5701
aS'5'
aS'3'
aS'0'
aS'0'
aa(lp5702
S'Jim Syddall'
p5703
aS'1982'
p5704
aS'Lock'
p5705
aS'Barton'
p5706
aS'2'
aS'0'
aS'0'
aS'0'
aa(lp5707
S'Steve Bainbridge'
p5708
aS'1982'
p5709
aS'Lock, No. 8'
p5710
aS'Newcastle-upon-Tyne'
p5711
aS'20'
p5712
aS'7'
aS'0'
aS'0'
aa(lp5713
S'Stephen Boyle'
p5714
aS'1983'
p5715
aS'Lock'
p5716
aS'Warrington'
p5717
aS'3'
aS'0'
aS'0'
aS'0'
aa(lp5718
S'David Trick'
p5719
aS'1983'
p5720
aS'Wing'
p5721
aS'Dartford'
p5722
aS'2'
aS'0'
aS'0'
aS'0'
aa(lp5723
S'Nick Youngs'
p5724
aS'1983'
p5725
aS'Scrum-half'
p5726
aS'Norfolk'
p5727
aS'6'
aS'2'
aS'0'
aS'0'
aa(lp5728
S'Paul Simpson'
p5729
aS'1983'
p5730
aS'Flanker'
p5731
aS'Leeds'
p5732
aS'3'
aS'1'
aS'0'
aS'0'
aa(lp5733
S'Colin White'
p5734
aS'1983'
p5735
aS'Prop'
p5736
aS'Newcastle-upon-Tyne'
p5737
aS'4'
aS'2'
aS'0'
aS'0'
aa(lp5738
S'Jon Hall'
p5739
aS'1984'
p5740
aS'Flanker'
p5741
aS'Bath'
p5742
aS'21'
p5743
aS'7'
aS'2'
aS'8'
aa(lp5744
S'Bryan Barley'
p5745
aS'1984'
p5746
aS'Centre'
p5747
aS'Wakefield'
p5748
aS'7'
aS'2'
aS'1'
aS'4'
aa(lp5749
S'Rory Underwood'
p5750
aS'1984'
p5751
aS'Wing'
p5752
aS'Middlesbrough'
p5753
aS'91'
p5754
aS'58'
p5755
aS'50'
p5756
aS'215'
p5757
aa(lp5758
S'Steve Redfern'
p5759
aS'1984'
p5760
aS'Prop'
p5761
aS'Leicester'
p5762
aS'1'
aS'1'
aS'0'
aS'0'
aa(lp5763
S'Andy Dun'
p5764
aS'1984'
p5765
aS'Flanker'
p5766
aS'Bristol'
p5767
aS'1'
aS'0'
aS'0'
aS'0'
aa(lp5768
S'Paul Rendall'
p5769
aS'1984'
p5770
aS'Prop'
p5771
aS'London'
p5772
aS'28'
p5773
aS'14'
p5774
aS'0'
aS'0'
aa(lp5775
S'Mark Bailey'
p5776
aS'1984'
p5777
aS'Wing'
p5778
aS'Castleford'
p5779
aS'7'
aS'4'
aS'1'
aS'4'
aa(lp5780
S'Chris Butcher'
p5781
aS'1984'
p5782
aS'Flanker'
p5783
aS'Karachi'
p5784
aS'3'
aS'0'
aS'0'
aS'0'
aa(lp5785
S'Richard Hill'
p5786
aS'1984'
p5787
aS'Scrum-half'
p5788
aS'Birmingham'
p5789
aS'29'
p5790
aS'16'
p5791
aS'2'
aS'8'
aa(lp5792
S'John Palmer'
p5793
aS'1984'
p5794
aS'Centre'
p5795
aS'1957'
p5796
aS'3'
aS'1'
aS'0'
aS'0'
aa(lp5797
S'Malcolm Preedy'
p5798
aS'1984'
p5799
aS'Prop'
p5800
aS'Gloucester'
p5801
aS'1'
aS'0'
aS'0'
aS'0'
aa(lp5802
S'Steve Brain'
p5803
aS'1984'
p5804
aS'Hooker'
p5805
aS'Stafford'
p5806
aS'13'
p5807
aS'4'
aS'0'
aS'0'
aa(lp5808
S'Gary Rees'
p5809
aS'1984'
p5810
aS'Flanker'
p5811
aS'Derbys'
p5812
aS'23'
p5813
aS'13'
p5814
aS'2'
aS'8'
aa(lp5815
S'Stuart Barnes'
p5816
aS'1984'
p5817
aS'Fly-half'
p5818
aS'Essex'
p5819
aS'10'
p5820
aS'3'
aS'0'
aS'34'
p5821
aa(lp5822
S'Gareth Chilcott'
p5823
aS'1984'
p5824
aS'Prop'
p5825
aS'Bristol'
p5826
aS'14'
p5827
aS'8'
aS'0'
aS'0'
aa(lp5828
S'Rob Lozowski'
p5829
aS'1984'
p5830
aS'Centre'
p5831
aS'Ealing'
p5832
aS'1'
aS'0'
aS'0'
aS'0'
aa(lp5833
S'Nigel Melville'
p5834
aS'1984'
p5835
aS'Scrum-half'
p5836
aS'Leeds'
p5837
aS'13'
p5838
aS'4'
aS'0'
aS'0'
aa(lp5839
S'Nigel Redman'
p5840
aS'1984'
p5841
aS'Lock'
p5842
aS'Cardiff'
p5843
aS'20'
p5844
aS'12'
p5845
aS'1'
aS'4'
aa(lp5846
S'Rob Andrew'
p5847
aS'1985'
p5848
aS'Fly-half'
p5849
aS'Yorks'
p5850
aS'76'
p5851
aS'53'
p5852
aS'2'
aS'407'
p5853
aa(lp5854
S'Wade Dooley'
p5855
aS'1985'
p5856
aS'Lock'
p5857
aS'Warrington'
p5858
aS'57'
p5859
aS'35'
p5860
aS'3'
aS'12'
p5861
aa(lp5862
S'Richard Harding'
p5863
aS'1985'
p5864
aS'Scrum-half'
p5865
aS'Bristol'
p5866
aS'12'
p5867
aS'7'
aS'1'
aS'4'
aa(lp5868
S'John Orwin'
p5869
aS'1985'
p5870
aS'Lock'
p5871
aS'Bradford'
p5872
aS'14'
p5873
aS'5'
aS'0'
aS'0'
aa(lp5874
S'Kevin Simms'
p5875
aS'1985'
p5876
aS'Centre'
p5877
aS'Prescot'
p5878
aS'15'
p5879
aS'4'
aS'1'
aS'4'
aa(lp5880
S'Simon Smith'
p5881
aS'1985'
p5882
aS'Wing'
p5883
aS'Baldock'
p5884
aS'9'
aS'3'
aS'3'
aS'12'
p5885
aa(lp5886
S'Chris Martin'
p5887
aS'1985'
p5888
aS'Fullback'
p5889
aS'Truro'
p5890
aS'4'
aS'1'
aS'0'
aS'0'
aa(lp5891
S'Mike Teague'
p5892
aS'1985'
p5893
aS'Flanker'
p5894
aS'Gloucester'
p5895
aS'30'
p5896
aS'19'
p5897
aS'3'
aS'12'
p5898
aa(lp5899
S'Mike Harrison'
p5900
aS'1985'
p5901
aS'Wing'
p5902
aS'Barnsley'
p5903
aS'15'
p5904
aS'4'
aS'8'
aS'32'
p5905
aa(lp5906
S'Robert Huntsman'
p5907
aS'1985'
p5908
aS'Prop'
p5909
aS'Beverley'
p5910
aS'2'
aS'0'
aS'0'
aS'0'
aa(lp5911
S'Jamie Salmon'
p5912
aS'1981'
p5913
aS'Centre'
p5914
aS'1959'
p5915
aS'15'
p5916
aS'7'
aS'2'
aS'8'
aa(lp5917
S'Simon Halliday'
p5918
aS'1986'
p5919
aS'Centre'
p5920
aS'Haverfordwest'
p5921
aS'23'
p5922
aS'17'
p5923
aS'2'
aS'8'
aa(lp5924
S'Graham Robbins'
p5925
aS'1986'
p5926
aS'No. 8'
p5927
aS'Sutton Coldfield'
p5928
aS'2'
aS'1'
aS'0'
aS'0'
aa(lp5929
S'Fran Clough'
p5930
aS'1986'
p5931
aS'Centre'
p5932
aS'Wigan'
p5933
aS'4'
aS'3'
aS'0'
aS'0'
aa(lp5934
S'Dean Richards'
p5935
aS'1986'
p5936
aS'No. 8'
p5937
aS'Nuneaton'
p5938
aS'54'
p5939
aS'38'
p5940
aS'6'
aS'24'
p5941
aa(lp5942
S'David Cusani'
p5943
aS'1987'
p5944
aS'Lock'
p5945
aS'Wigan'
p5946
aS'1'
aS'0'
aS'0'
aS'0'
aa(lp5947
S'Graham Dawe'
p5948
aS'1987'
p5949
aS'Hooker, Lock'
p5950
aS'Tavistock'
p5951
aS'5'
aS'2'
aS'0'
aS'0'
aa(lp5952
S'Brian Moore'
p5953
aS'1987'
p5954
aS'Hooker'
p5955
aS'Birmingham'
p5956
aS'69'
p5957
aS'48'
p5958
aS'1'
aS'4'
aa(lp5959
S'Peter Williams'
p5960
aS'1987'
p5961
aS'Fly-half'
p5962
aS'Wigan'
p5963
aS'4'
aS'2'
aS'0'
aS'0'
aa(lp5964
S'Jon Webb'
p5965
aS'1987'
p5966
aS'Fullback'
p5967
aS'Ealing'
p5968
aS'33'
p5969
aS'20'
p5970
aS'4'
aS'296'
p5971
aa(lp5972
S'Will Carling'
p5973
aS'1988'
p5974
aS'Centre'
p5975
aS'Bradford-on-Avon'
p5976
aS'73'
p5977
aS'53'
p5978
aS'12'
p5979
aS'54'
p5980
aa(lp5981
S'Jeff Probyn'
p5982
aS'1988'
p5983
aS'Prop'
p5984
aS'Bethnal Green'
p5985
aS'37'
p5986
aS'25'
p5987
aS'3'
aS'12'
p5988
aa(lp5989
S'Mickey Skinner'
p5990
aS'1988'
p5991
aS'Flanker'
p5992
aS'Newcastle-upon-Tyne'
p5993
aS'21'
p5994
aS'16'
p5995
aS'3'
aS'12'
p5996
aa(lp5997
S'Chris Oti'
p5998
aS'1988'
p5999
aS'Wing'
p6000
aS'Paddington'
p6001
aS'13'
p6002
aS'8'
aS'8'
aS'32'
p6003
aa(lp6004
S'John Bentley'
p6005
aS'1988'
p6006
aS'Wing'
p6007
aS'Dewsbury'
p6008
aS'6'
aS'2'
aS'1'
aS'4'
aa(lp6009
S'Dave Egerton'
p6010
aS'1988'
p6011
aS'No. 8'
p6012
aS'Middlesex'
p6013
aS'7'
aS'5'
aS'1'
aS'4'
aa(lp6014
S'Barry Evans'
p6015
aS'1988'
p6016
aS'Wing'
p6017
aS'Hinckley'
p6018
aS'2'
aS'1'
aS'0'
aS'0'
aa(lp6019
S'Andy Robinson'
p6020
aS'1988'
p6021
aS'Flanker'
p6022
aS'Taunton'
p6023
aS'8'
aS'4'
aS'1'
aS'4'
aa(lp6024
S'Paul Ackford'
p6025
aS'1988'
p6026
aS'Lock'
p6027
aS'Hanover'
p6028
aS'25'
p6029
aS'18'
p6030
aS'1'
aS'4'
aa(lp6031
S'Andy Harriman'
p6032
aS'1988'
p6033
aS'Wing'
p6034
aS'Lagos'
p6035
aS'1'
aS'1'
aS'0'
aS'0'
aa(lp6036
S'Dewi Morris'
p6037
aS'1988'
p6038
aS'Scrum-half'
p6039
aS'Crickhowell'
p6040
aS'29'
p6041
aS'20'
p6042
aS'5'
aS'21'
p6043
aa(lp6044
S'John Buckton'
p6045
aS'1988'
p6046
aS'Centre'
p6047
aS'Hull'
p6048
aS'3'
aS'2'
aS'0'
aS'0'
aa(lp6049
S'Steve Bates'
p6050
aS'1989'
p6051
aS'Scrum-half'
p6052
aS'Merthyr Tydfil'
p6053
aS'1'
aS'1'
aS'0'
aS'0'
aa(lp6054
S'Jerry Guscott'
p6055
aS'1989'
p6056
aS'Centre'
p6057
aS'Bath'
p6058
aS'73'
p6059
aS'56'
p6060
aS'31'
p6061
aS'150'
p6062
aa(lp6063
S'Simon Hodgkinson'
p6064
aS'1989'
p6065
aS'Fullback'
p6066
aS'Thornbury'
p6067
aS'14'
p6068
aS'12'
p6069
aS'1'
aS'203'
p6070
aa(lp6071
S'Mark Linnett'
p6072
aS'1989'
p6073
aS'Prop'
p6074
aS'Rugby'
p6075
aS'1'
aS'1'
aS'1'
aS'4'
aa(lp6076
S'Andy Mullins'
p6077
aS'1989'
p6078
aS'Prop'
p6079
aS'Eltham'
p6080
aS'1'
aS'1'
aS'0'
aS'0'
aa(lp6081
S'Nigel Heslop'
p6082
aS'1990'
p6083
aS'Wing'
p6084
aS'W Hartlepool'
p6085
aS'10'
p6086
aS'9'
aS'3'
aS'12'
p6087
aa(lp6088
S'Jason Leonard'
p6089
aS'1990'
p6090
aS'Prop'
p6091
aS'Barking'
p6092
aS'119'
p6093
aS'89'
p6094
aS'1'
aS'5'
aa(lp6095
S'David Pears'
p6096
aS'1990'
p6097
aS'Fullback, Fly-half'
p6098
aS'Workington'
p6099
aS'4'
aS'3'
aS'0'
aS'0'
aa(lp6100
S'Dean Ryan'
p6101
aS'1990'
p6102
aS'Lock, No. 8'
p6103
aS'Tuxford'
p6104
aS'4'
aS'3'
aS'1'
aS'4'
aa(lp6105
S'John Olver'
p6106
aS'1990'
p6107
aS'Hooker'
p6108
aS'Manchester'
p6109
aS'3'
aS'3'
aS'0'
aS'0'
aa(lp6110
S'Martin Bayfield'
p6111
aS'1991'
p6112
aS'Lock'
p6113
aS'Bedford'
p6114
aS'34'
p6115
aS'23'
p6116
aS'0'
aS'0'
aa(lp6117
S'Tim Rodber'
p6118
aS'1992'
p6119
aS'Back-row'
p6120
aS'Yorks'
p6121
aS'46'
p6122
aS'35'
p6123
aS'5'
aS'25'
p6124
aa(lp6125
S'Ian Hunter'
p6126
aS'1992'
p6127
aS'Fullback, Wing'
p6128
aS'London'
p6129
aS'7'
aS'5'
aS'3'
aS'15'
p6130
aa(lp6131
S'Victor Ubogu'
p6132
aS'1992'
p6133
aS'Prop'
p6134
aS'Lagos'
p6135
aS'24'
p6136
aS'17'
p6137
aS'1'
aS'5'
aa(lp6138
S'Tony Underwood'
p6139
aS'1992'
p6140
aS'Wing'
p6141
aS'Ipoh'
p6142
aS'28'
p6143
aS'21'
p6144
aS'13'
p6145
aS'65'
p6146
aa(lp6147
S'Ben Clarke'
p6148
aS'1992'
p6149
aS'Back-row'
p6150
aS"Bishop's Stortford"
p6151
aS'43'
p6152
aS'27'
p6153
aS'3'
aS'15'
p6154
aa(lp6155
S'Phil de Glanville'
p6156
aS'1992'
p6157
aS'Centre'
p6158
aS'Loughborough'
p6159
aS'38'
p6160
aS'24'
p6161
aS'8'
aS'40'
p6162
aa(lp6163
S'Martin Johnson'
p6164
aS'1993'
p6165
aS'Lock'
p6166
aS'Solihull'
p6167
aS'92'
p6168
aS'71'
p6169
aS'2'
aS'10'
p6170
aa(lp6171
S'Kyran Bracken'
p6172
aS'1993'
p6173
aS'Scrum-half'
p6174
aS'Dublin'
p6175
aS'51'
p6176
aS'40'
p6177
aS'3'
aS'15'
p6178
aa(lp6179
S'Jon Callard'
p6180
aS'1993'
p6181
aS'Fullback'
p6182
aS'Leicester'
p6183
aS'5'
aS'3'
aS'0'
aS'69'
p6184
aa(lp6185
S'Neil Back'
p6186
aS'1994'
p6187
aS'Flanker'
p6188
aS'Coventry'
p6189
aS'71'
p6190
aS'53'
p6191
aS'17'
p6192
aS'88'
p6193
aa(lp6194
S'Steve Ojomoh'
p6195
aS'1994'
p6196
aS'Back-row'
p6197
aS'Benin City'
p6198
aS'12'
p6199
aS'7'
aS'0'
aS'0'
aa(lp6200
S'Mike Catt'
p6201
aS'1994'
p6202
aS'Fly-half, Centre'
p6203
aS'Port Elizabeth'
p6204
aS'76'
p6205
aS'50'
p6206
aS'7'
aS'142'
p6207
aa(lp6208
S'Paul Hull'
p6209
aS'1994'
p6210
aS'Fullback'
p6211
aS'London'
p6212
aS'4'
aS'3'
aS'0'
aS'0'
aa(lp6213
S'Graham Rowntree'
p6214
aS'1995'
p6215
aS'Prop'
p6216
aS'Stockton-on-Tees'
p6217
aS'57'
p6218
aS'38'
p6219
aS'0'
aS'0'
aa(lp6220
S'Richard West'
p6221
aS'1995'
p6222
aS'Lock'
p6223
aS'Hereford'
p6224
aS'1'
aS'1'
aS'0'
aS'0'
aa(lp6225
S'Damian Hopley'
p6226
aS'1995'
p6227
aS'Wing, Centre'
p6228
aS'London'
p6229
aS'3'
aS'2'
aS'0'
aS'0'
aa(lp6230
S'John Mallett'
p6231
aS'1995'
p6232
aS'Prop'
p6233
aS'Lincoln'
p6234
aS'1'
aS'1'
aS'0'
aS'0'
aa(lp6235
S'Mark Regan'
p6236
aS'1995'
p6237
aS'Hooker'
p6238
aS'Bristol'
p6239
aS'47'
p6240
aS'28'
p6241
aS'3'
aS'15'
p6242
aa(lp6243
S'Lawrence Dallaglio'
p6244
aS'1995'
p6245
aS'No. 8'
p6246
aS"Shepherd's Bush"
p6247
aS'88'
p6248
aS'62'
p6249
aS'17'
p6250
aS'85'
p6251
aa(lp6252
S'Matt Dawson'
p6253
aS'1995'
p6254
aS'Scrum-half'
p6255
aS'Birkenhead'
p6256
aS'84'
p6257
aS'53'
p6258
aS'18'
p6259
aS'111'
p6260
aa(lp6261
S'Paul Grayson'
p6262
aS'1995'
p6263
aS'Fly-half'
p6264
aS'Lancashire'
p6265
aS'32'
p6266
aS'21'
p6267
aS'2'
aS'400'
p6268
aa(lp6269
S'Jon Sleightholme'
p6270
aS'1996'
p6271
aS'Wing'
p6272
aS'Yorkshire'
p6273
aS'12'
p6274
aS'9'
aS'4'
aS'20'
p6275
aa(lp6276
S'Garath Archer'
p6277
aS'1996'
p6278
aS'No. 8, Lock'
p6279
aS'Durham'
p6280
aS'21'
p6281
aS'13'
p6282
aS'0'
aS'0'
aa(lp6283
S'Adedayo Adebayo'
p6284
aS'1996'
p6285
aS'Wing'
p6286
aS'Ibadan'
p6287
aS'6'
aS'3'
aS'2'
aS'10'
p6288
aa(lp6289
S'Andy Gomarsall'
p6290
aS'1996'
p6291
aS'Scrum-half'
p6292
aS'Durham'
p6293
aS'35'
p6294
aS'21'
p6295
aS'6'
aS'37'
p6296
aa(lp6297
S'Simon Shaw'
p6298
aS'1996'
p6299
aS'Lock'
p6300
aS'Nairobi'
p6301
aS'73'
p6302
aS'44'
p6303
aS'2'
aS'10'
p6304
aa(lp6305
S'Chris Sheasby'
p6306
aS'1996'
p6307
aS'No. 8'
p6308
aS'Windsor'
p6309
aS'7'
aS'4'
aS'1'
aS'5'
aa(lp6310
S'Tim Stimpson'
p6311
aS'1996'
p6312
aS'Fullback'
p6313
aS'Liverpool'
p6314
aS'20'
p6315
aS'11'
p6316
aS'2'
aS'35'
p6317
aa(lp6318
S'Phil Greening'
p6319
aS'1996'
p6320
aS'Hooker'
p6321
aS'Gloucester'
p6322
aS'24'
p6323
aS'16'
p6324
aS'6'
aS'30'
p6325
aa(lp6326
S'Rob Hardwick'
p6327
aS'1996'
p6328
aS'Prop'
p6329
aS'Kenilworth'
p6330
aS'1'
aS'1'
aS'0'
aS'0'
aa(lp6331
S'Nick Beal'
p6332
aS'1996'
p6333
aS'Fullback'
p6334
aS'York'
p6335
aS'15'
p6336
aS'9'
aS'3'
aS'15'
p6337
aa(lp6338
S'Richard Hill'
p6339
aS'1997'
p6340
aS'Back-row'
p6341
aS'Surrey'
p6342
aS'76'
p6343
aS'53'
p6344
aS'12'
p6345
aS'60'
p6346
aa(lp6347
S'Austin Healey'
p6348
aS'1997'
p6349
aS'Utility back'
p6350
aS'Wallasey'
p6351
aS'53'
p6352
aS'35'
p6353
aS'15'
p6354
aS'75'
p6355
aa(lp6356
S'Darren Garforth'
p6357
aS'1997'
p6358
aS'Prop'
p6359
aS'Coventry'
p6360
aS'25'
p6361
aS'15'
p6362
aS'0'
aS'0'
aa(lp6363
S'Martin Corry'
p6364
aS'1997'
p6365
aS'Lock, Back-row'
p6366
aS'Birmingham'
p6367
aS'71'
p6368
aS'40'
p6369
aS'6'
aS'30'
p6370
aa(lp6371
S'Tony Diprose'
p6372
aS'1997'
p6373
aS'No. 8'
p6374
aS'Essex'
p6375
aS'10'
p6376
aS'4'
aS'1'
aS'5'
aa(lp6377
S'Nick Greenstock'
p6378
aS'1997'
p6379
aS'Centre'
p6380
aS'UAE'
p6381
aS'4'
aS'1'
aS'2'
aS'10'
p6382
aa(lp6383
S'Martin Haag'
p6384
aS'1997'
p6385
aS'Lock'
p6386
aS'Chelmsford'
p6387
aS'2'
aS'1'
aS'0'
aS'0'
aa(lp6388
S'Jim Mallinder'
p6389
aS'1997'
p6390
aS'Fullback'
p6391
aS'Halifax'
p6392
aS'2'
aS'1'
aS'0'
aS'0'
aa(lp6393
S'Kevin Yates'
p6394
aS'1997'
p6395
aS'Prop'
p6396
aS'Medicine Hat'
p6397
aS'4'
aS'1'
aS'0'
aS'0'
aa(lp6398
S'Richard Cockerill'
p6399
aS'1997'
p6400
aS'Hooker'
p6401
aS'Rugby'
p6402
aS'27'
p6403
aS'14'
p6404
aS'3'
aS'15'
p6405
aa(lp6406
S'Danny Grewcock'
p6407
aS'1997'
p6408
aS'Lock'
p6409
aS'Coventry'
p6410
aS'74'
p6411
aS'45'
p6412
aS'2'
aS'10'
p6413
aa(lp6414
S'Mark Mapletoft'
p6415
aS'1997'
p6416
aS'Fly-half'
p6417
aS'Mansfield'
p6418
aS'1'
aS'0'
aS'0'
aS'3'
aa(lp6419
S'Alex King'
p6420
aS'1997'
p6421
aS'Fly-half'
p6422
aS'Brighton'
p6423
aS'5'
aS'4'
aS'1'
aS'23'
p6424
aa(lp6425
S'Will Green'
p6426
aS'1997'
p6427
aS'Prop'
p6428
aS'Littlehampton'
p6429
aS'4'
aS'2'
aS'0'
aS'0'
aa(lp6430
S'Will Greenwood'
p6431
aS'1997'
p6432
aS'Centre'
p6433
aS'Blackburn'
p6434
aS'57'
p6435
aS'44'
p6436
aS'31'
p6437
aS'155'
p6438
aa(lp6439
S'Andy Long'
p6440
aS'1997'
p6441
aS'Hooker'
p6442
aS'Poole'
p6443
aS'2'
aS'1'
aS'0'
aS'0'
aa(lp6444
S'Matt Perry'
p6445
aS'1997'
p6446
aS'Fullback'
p6447
aS'Bath'
p6448
aS'39'
p6449
aS'22'
p6450
aS'10'
p6451
aS'50'
p6452
aa(lp6453
S'David Rees'
p6454
aS'1997'
p6455
aS'Utility back'
p6456
aS'Kingston-upon-Thames'
p6457
aS'11'
p6458
aS'5'
aS'3'
aS'15'
p6459
aa(lp6460
S'Dorian West'
p6461
aS'1998'
p6462
aS'Hooker'
p6463
aS'Wrexham'
p6464
aS'21'
p6465
aS'17'
p6466
aS'3'
aS'15'
p6467
aa(lp6468
S'Phil Vickery'
p6469
aS'1998'
p6470
aS'Prop'
p6471
aS'Barnstaple'
p6472
aS'78'
p6473
aS'50'
p6474
aS'2'
aS'10'
p6475
aa(lp6476
S'Jonny Wilkinson'
p6477
aS'1998'
p6478
aS'Fly-half'
p6479
aS'Frimley'
p6480
aS'97'
p6481
aS'67'
p6482
aS'7'
aS'1246'
p6483
aa(lp6484
S'Scott Benton'
p6485
aS'1998'
p6486
aS'Scrum-half'
p6487
aS'Bradford'
p6488
aS'1'
aS'0'
aS'0'
aS'0'
aa(lp6489
S'Spencer Brown'
p6490
aS'1998'
p6491
aS'Wing'
p6492
aS'Eton'
p6493
aS'2'
aS'0'
aS'0'
aS'0'
aa(lp6494
S'Richard Pool-Jones'
p6495
aS'1998'
p6496
aS'Flanker'
p6497
aS'London'
p6498
aS'1'
aS'0'
aS'0'
aS'0'
aa(lp6499
S'Steve Ravenscroft'
p6500
aS'1998'
p6501
aS'Centre'
p6502
aS'Leeds'
p6503
aS'2'
aS'0'
aS'0'
aS'0'
aa(lp6504
S'Ben Sturnham'
p6505
aS'1998'
p6506
aS'Flanker'
p6507
aS'St Albans'
p6508
aS'3'
aS'0'
aS'0'
aS'0'
aa(lp6509
S'Dominic Chapman'
p6510
aS'1998'
p6511
aS'Wing'
p6512
aS'Kingston-upon-Thames'
p6513
aS'1'
aS'0'
aS'0'
aS'0'
aa(lp6514
S'Stuart Potter'
p6515
aS'1998'
p6516
aS'Centre'
p6517
aS'Lichfield'
p6518
aS'1'
aS'0'
aS'0'
aS'0'
aa(lp6519
S'Josh Lewsey'
p6520
aS'1998'
p6521
aS'Wing, Centre'
p6522
aS'Kent'
p6523
aS'58'
p6524
aS'33'
p6525
aS'22'
p6526
aS'110'
p6527
aa(lp6528
S'Pat Sanderson'
p6529
aS'1998'
p6530
aS'Back-row'
p6531
aS'Chester'
p6532
aS'16'
p6533
aS'6'
aS'1'
aS'5'
aa(lp6534
S'Tom Beim'
p6535
aS'1998'
p6536
aS'Wing'
p6537
aS'Frimley'
p6538
aS'2'
aS'0'
aS'1'
aS'5'
aa(lp6539
S'Dave Sims'
p6540
aS'1998'
p6541
aS'Lock'
p6542
aS'Gloucester'
p6543
aS'3'
aS'0'
aS'0'
aS'0'
aa(lp6544
S'Jos Baxendell'
p6545
aS'1998'
p6546
aS'Fly-half, Centre'
p6547
aS'Manchester'
p6548
aS'2'
aS'0'
aS'0'
aS'0'
aa(lp6549
S'Rob Fidler'
p6550
aS'1998'
p6551
aS'Lock'
p6552
aS'Cheltenham'
p6553
aS'2'
aS'0'
aS'0'
aS'0'
aa(lp6554
S'Paul Sampson'
p6555
aS'1998'
p6556
aS'Wing, Fullback'
p6557
aS'Keighley'
p6558
aS'3'
aS'2'
aS'0'
aS'0'
aa(lp6559
S'Dan Luger'
p6560
aS'1998'
p6561
aS'Wing'
p6562
aS'Chiswick'
p6563
aS'38'
p6564
aS'31'
p6565
aS'24'
p6566
aS'120'
p6567
aa(lp6568
S'Neil McCarthy'
p6569
aS'1999'
p6570
aS'Hooker'
p6571
aS'Slough'
p6572
aS'3'
aS'3'
aS'0'
aS'0'
aa(lp6573
S'Steve Hanley'
p6574
aS'1999'
p6575
aS'Wing'
p6576
aS'Whitehaven'
p6577
aS'1'
aS'0'
aS'1'
aS'5'
aa(lp6578
S'Barrie-Jon Mather'
p6579
aS'1999'
p6580
aS'Centre'
p6581
aS'Wigan'
p6582
aS'1'
aS'0'
aS'0'
aS'0'
aa(lp6583
S'Trevor Woodman'
p6584
aS'1999'
p6585
aS'Prop'
p6586
aS'Plymouth'
p6587
aS'22'
p6588
aS'18'
p6589
aS'0'
aS'0'
aa(lp6590
S'Joe Worsley'
p6591
aS'1999'
p6592
aS'Back-row'
p6593
aS'Hants'
p6594
aS'79'
p6595
aS'48'
p6596
aS'10'
p6597
aS'50'
p6598
aa(lp6599
S'Ben Cohen'
p6600
aS'2000'
p6601
aS'Wing'
p6602
aS'Northampton'
p6603
aS'57'
p6604
aS'40'
p6605
aS'31'
p6606
aS'155'
p6607
aa(lp6608
S'Mike Tindall'
p6609
aS'2000'
p6610
aS'Centre'
p6611
aS'Otley'
p6612
aS'75'
p6613
aS'51'
p6614
aS'14'
p6615
aS'74'
p6616
aa(lp6617
S'Iain Balshaw'
p6618
aS'2000'
p6619
aS'Fullback'
p6620
aS'Blackburn'
p6621
aS'38'
p6622
aS'25'
p6623
aS'13'
p6624
aS'65'
p6625
aa(lp6626
S'Julian White'
p6627
aS'2000'
p6628
aS'Prop'
p6629
aS'Plymouth'
p6630
aS'55'
p6631
aS'29'
p6632
aS'0'
aS'0'
aa(lp6633
S'David Flatman'
p6634
aS'2000'
p6635
aS'Prop'
p6636
aS'Maidstone'
p6637
aS'8'
aS'7'
aS'0'
aS'0'
aa(lp6638
S'Leon Lloyd'
p6639
aS'2000'
p6640
aS'Centre, Wing'
p6641
aS'Coventry'
p6642
aS'5'
aS'4'
aS'2'
aS'10'
p6643
aa(lp6644
S'Jason Robinson'
p6645
aS'2001'
p6646
aS'Fullback'
p6647
aS'Leeds'
p6648
aS'56'
p6649
aS'39'
p6650
aS'30'
p6651
aS'150'
p6652
aa(lp6653
S'Steve Borthwick'
p6654
aS'2001'
p6655
aS'Lock'
p6656
aS'Carlisle'
p6657
aS'57'
p6658
aS'29'
p6659
aS'2'
aS'10'
p6660
aa(lp6661
S'Ben Kay'
p6662
aS'2001'
p6663
aS'Lock'
p6664
aS'Liverpool'
p6665
aS'64'
p6666
aS'44'
p6667
aS'2'
aS'10'
p6668
aa(lp6669
S'Lewis Moody'
p6670
aS'2001'
p6671
aS'Flanker'
p6672
aS'Ascot'
p6673
aS'74'
p6674
aS'46'
p6675
aS'10'
p6676
aS'50'
p6677
aa(lp6678
S'Jamie Noon'
p6679
aS'2001'
p6680
aS'Centre'
p6681
aS'Goole'
p6682
aS'38'
p6683
aS'16'
p6684
aS'7'
aS'35'
p6685
aa(lp6686
S'Michael Stephenson'
p6687
aS'2001'
p6688
aS'Wing'
p6689
aS'Tynemouth'
p6690
aS'3'
aS'3'
aS'0'
aS'0'
aa(lp6691
S'Dave Walder'
p6692
aS'2001'
p6693
aS'Fly-half'
p6694
aS'Newcastle-upon-Tyne'
p6695
aS'4'
aS'4'
aS'2'
aS'41'
p6696
aa(lp6697
S'Steve White-Cooper'
p6698
aS'2001'
p6699
aS'Flanker'
p6700
aS'Cape Town'
p6701
aS'2'
aS'2'
aS'0'
aS'0'
aa(lp6702
S'Martyn Wood'
p6703
aS'2001'
p6704
aS'Scrum-half'
p6705
aS'Harrogate'
p6706
aS'2'
aS'2'
aS'1'
aS'5'
aa(lp6707
S'Fraser Waters'
p6708
aS'2001'
p6709
aS'Centre'
p6710
aS'Cape Town'
p6711
aS'3'
aS'1'
aS'0'
aS'0'
aa(lp6712
S'Olly Barkley'
p6713
aS'2001'
p6714
aS'Fly-half'
p6715
aS'London'
p6716
aS'23'
p6717
aS'10'
p6718
aS'2'
aS'82'
p6719
aa(lp6720
S'Tom Palmer'
p6721
aS'2001'
p6722
aS'Lock'
p6723
aS'London'
p6724
aS'42'
p6725
aS'23'
p6726
aS'0'
aS'0'
aa(lp6727
S'Tom Voyce'
p6728
aS'2001'
p6729
aS'Wing'
p6730
aS'Truro'
p6731
aS'9'
aS'4'
aS'3'
aS'15'
p6732
aa(lp6733
S'Charlie Hodgson'
p6734
aS'2001'
p6735
aS'Fly-half'
p6736
aS'Halifax'
p6737
aS'38'
p6738
aS'22'
p6739
aS'8'
aS'269'
p6740
aa(lp6741
S'Alex Sanderson'
p6742
aS'2001'
p6743
aS'Back-row'
p6744
aS'Chester'
p6745
aS'5'
aS'4'
aS'1'
aS'5'
aa(lp6746
S'Steve Thompson'
p6747
aS'2002'
p6748
aS'Hooker'
p6749
aS'Hemel Hempstead'
p6750
aS'76'
p6751
aS'49'
p6752
aS'4'
aS'20'
p6753
aa(lp6754
S'Nick Duncombe'
p6755
aS'2002'
p6756
aS'Scrum-half'
p6757
aS'Bucks'
p6758
aS'2'
aS'2'
aS'0'
aS'0'
aa(lp6759
S'Henry Paul'
p6760
aS'2002'
p6761
aS'Centre'
p6762
aS'Tokoroa'
p6763
aS'6'
aS'4'
aS'0'
aS'6'
aa(lp6764
S'Geoff Appleford'
p6765
aS'2002'
p6766
aS'Centre'
p6767
aS'Dundee'
p6768
aS'1'
aS'1'
aS'0'
aS'0'
aa(lp6769
S'Phil Christophers'
p6770
aS'2002'
p6771
aS'Centre'
p6772
aS'Heidelberg'
p6773
aS'3'
aS'3'
aS'1'
aS'5'
aa(lp6774
S'Alex Codling'
p6775
aS'2002'
p6776
aS'Lock'
p6777
aS'Lewisham'
p6778
aS'1'
aS'1'
aS'0'
aS'0'
aa(lp6779
S'Michael Horak'
p6780
aS'2002'
p6781
aS'Fullback'
p6782
aS'Johannesburg'
p6783
aS'1'
aS'1'
aS'0'
aS'0'
aa(lp6784
S'Ben Johnston'
p6785
aS'2002'
p6786
aS'Centre'
p6787
aS'Clatterbridge'
p6788
aS'2'
aS'2'
aS'0'
aS'0'
aa(lp6789
S'James Simpson-Daniel'
p6790
aS'2002'
p6791
aS'Wing'
p6792
aS'Stockton-on-Tees'
p6793
aS'10'
p6794
aS'7'
aS'3'
aS'15'
p6795
aa(lp6796
S'Robbie Morris'
p6797
aS'2003'
p6798
aS'Prop'
p6799
aS'Hertford'
p6800
aS'2'
aS'2'
aS'0'
aS'0'
aa(lp6801
S'Ollie Smith'
p6802
aS'2003'
p6803
aS'Centre'
p6804
aS'Leicester'
p6805
aS'6'
aS'4'
aS'1'
aS'5'
aa(lp6806
S'Mike Worsley'
p6807
aS'2003'
p6808
aS'Prop'
p6809
aS'Warrington'
p6810
aS'3'
aS'2'
aS'0'
aS'0'
aa(lp6811
S'Stuart Abbott'
p6812
aS'2003'
p6813
aS'Centre'
p6814
aS'Cape Town'
p6815
aS'9'
aS'5'
aS'2'
aS'10'
p6816
aa(lp6817
S'Dan Scarbrough'
p6818
aS'2003'
p6819
aS'Fullback'
p6820
aS'Bingley'
p6821
aS'2'
aS'1'
aS'1'
aS'5'
aa(lp6822
S'Chris Jones'
p6823
aS'2004'
p6824
aS'Lock'
p6825
aS'Manchester'
p6826
aS'12'
p6827
aS'4'
aS'1'
aS'5'
aa(lp6828
S'Matt Stevens'
p6829
aS'2004'
p6830
aS'Prop'
p6831
aS'Durban'
p6832
aS'44'
p6833
aS'24'
p6834
aS'0'
aS'0'
aa(lp6835
S'Michael Lipman'
p6836
aS'2004'
p6837
aS'Flanker'
p6838
aS'London'
p6839
aS'10'
p6840
aS'4'
aS'0'
aS'0'
aa(lp6841
S'Andy Titterrell'
p6842
aS'2004'
p6843
aS'Hooker'
p6844
aS'Dartford'
p6845
aS'5'
aS'3'
aS'0'
aS'0'
aa(lp6846
S'Tim Payne'
p6847
aS'2004'
p6848
aS'Prop'
p6849
aS'Swindon'
p6850
aS'22'
p6851
aS'7'
aS'0'
aS'0'
aa(lp6852
S'Mark Cueto'
p6853
aS'2004'
p6854
aS'Wing'
p6855
aS'Workington'
p6856
aS'56'
p6857
aS'29'
p6858
aS'20'
p6859
aS'100'
p6860
aa(lp6861
S'Andy Hazell'
p6862
aS'2004'
p6863
aS'Back-row'
p6864
aS'Gloucester'
p6865
aS'7'
aS'4'
aS'1'
aS'5'
aa(lp6866
S'Andrew Sheridan'
p6867
aS'2004'
p6868
aS'Prop'
p6869
aS'Kent'
p6870
aS'42'
p6871
aS'25'
p6872
aS'0'
aS'0'
aa(lp6873
S'Hugh Vyvyan'
p6874
aS'2004'
p6875
aS'Lock'
p6876
aS'Guildford'
p6877
aS'1'
aS'1'
aS'1'
aS'5'
aa(lp6878
S'Harry Ellis'
p6879
aS'2004'
p6880
aS'Scrum-half'
p6881
aS'Wigston'
p6882
aS'28'
p6883
aS'14'
p6884
aS'5'
aS'25'
p6885
aa(lp6886
S'Mathew Tait'
p6887
aS'2005'
p6888
aS'Fullback'
p6889
aS'Shotley Bridge'
p6890
aS'38'
p6891
aS'18'
p6892
aS'5'
aS'25'
p6893
aa(lp6894
S'James Forrester'
p6895
aS'2005'
p6896
aS'Back-row'
p6897
aS'Oxford'
p6898
aS'2'
aS'1'
aS'0'
aS'0'
aa(lp6899
S'Duncan Bell'
p6900
aS'2005'
p6901
aS'Prop'
p6902
aS"King's Lynn"
p6903
aS'5'
aS'3'
aS'0'
aS'0'
aa(lp6904
S'Andy Goode'
p6905
aS'2005'
p6906
aS'Fly-half'
p6907
aS'Coventry'
p6908
aS'17'
p6909
aS'9'
aS'1'
aS'107'
p6910
aa(lp6911
S'Mark van Gisbergen'
p6912
aS'2005'
p6913
aS'Fullback'
p6914
aS'Hamilton'
p6915
aS'1'
aS'1'
aS'0'
aS'0'
aa(lp6916
S'Louis Deacon'
p6917
aS'2005'
p6918
aS'Lock'
p6919
aS'Leicester'
p6920
aS'29'
p6921
aS'16'
p6922
aS'0'
aS'0'
aa(lp6923
S'Perry Freshwater'
p6924
aS'2005'
p6925
aS'Prop'
p6926
aS'Wellington'
p6927
aS'10'
p6928
aS'4'
aS'0'
aS'0'
aa(lp6929
S'Lee Mears'
p6930
aS'2005'
p6931
aS'Hooker'
p6932
aS'Torquay'
p6933
aS'43'
p6934
aS'17'
p6935
aS'1'
aS'5'
aa(lp6936
S'Tom Varndell'
p6937
aS'2005'
p6938
aS'Wing'
p6939
aS'Kent'
p6940
aS'4'
aS'1'
aS'3'
aS'15'
p6941
aa(lp6942
S'Alex Brown'
p6943
aS'2006'
p6944
aS'Lock'
p6945
aS'Bristol'
p6946
aS'3'
aS'0'
aS'0'
aS'0'
aa(lp6947
S'Magnus Lund'
p6948
aS'2006'
p6949
aS'Flanker'
p6950
aS'Manchester'
p6951
aS'10'
p6952
aS'3'
aS'1'
aS'5'
aa(lp6953
S'Peter Richards'
p6954
aS'2006'
p6955
aS'Scrum-half'
p6956
aS'Portsmouth'
p6957
aS'13'
p6958
aS'5'
aS'0'
aS'0'
aa(lp6959
S'George Chuter'
p6960
aS'2006'
p6961
aS'Hooker'
p6962
aS'Greenwich'
p6963
aS'24'
p6964
aS'12'
p6965
aS'1'
aS'5'
aa(lp6966
S'Nick Walshe'
p6967
aS'2006'
p6968
aS'Fly-half, Scrum-half'
p6969
aS'Chiswick'
p6970
aS'2'
aS'0'
aS'0'
aS'0'
aa(lp6971
S'Anthony Allen'
p6972
aS'2006'
p6973
aS'Centre'
p6974
aS'Southampton'
p6975
aS'2'
aS'0'
aS'0'
aS'0'
aa(lp6976
S'Shaun Perry'
p6977
aS'2006'
p6978
aS'Scrum-half'
p6979
aS'Wolverhampton'
p6980
aS'14'
p6981
aS'4'
aS'2'
aS'10'
p6982
aa(lp6983
S'Paul Sackey'
p6984
aS'2006'
p6985
aS'Wing'
p6986
aS'London'
p6987
aS'22'
p6988
aS'9'
aS'11'
p6989
aS'55'
p6990
aa(lp6991
S'Toby Flood'
p6992
aS'2006'
p6993
aS'Fly-half'
p6994
aS'Frimley'
p6995
aS'60'
p6996
aS'30'
p6997
aS'4'
aS'301'
p6998
aa(lp6999
S'Andy Farrell'
p7000
aS'2007'
p7001
aS'Centre'
p7002
aS'Wigan'
p7003
aS'8'
aS'5'
aS'1'
aS'5'
aa(lp7004
S'Olly Morgan'
p7005
aS'2007'
p7006
aS'Fullback'
p7007
aS'London'
p7008
aS'2'
aS'1'
aS'0'
aS'0'
aa(lp7009
S'Tom Rees'
p7010
aS'2007'
p7011
aS'Back-row'
p7012
aS'London'
p7013
aS'15'
p7014
aS'5'
aS'1'
aS'5'
aa(lp7015
S'Nick Easter'
p7016
aS'2007'
p7017
aS'Back-row'
p7018
aS'Epsom'
p7019
aS'51'
p7020
aS'29'
p7021
aS'6'
aS'30'
p7022
aa(lp7023
S'David Strettle'
p7024
aS'2007'
p7025
aS'Wing'
p7026
aS'Warrington'
p7027
aS'14'
p7028
aS'7'
aS'2'
aS'10'
p7029
aa(lp7030
S'Shane Geraghty'
p7031
aS'2007'
p7032
aS'Fly-half'
p7033
aS'Coventry'
p7034
aS'6'
aS'3'
aS'0'
aS'5'
aa(lp7035
S'James Haskell'
p7036
aS'2007'
p7037
aS'Back-row'
p7038
aS'Windsor'
p7039
aS'58'
p7040
aS'33'
p7041
aS'4'
aS'20'
p7042
aa(lp7043
S'Stuart Turner'
p7044
aS'2007'
p7045
aS'Prop'
p7046
aS'Southport'
p7047
aS'3'
aS'0'
aS'0'
aS'0'
aa(lp7048
S'Mike Brown'
p7049
aS'2007'
p7050
aS'Fullback'
p7051
aS'Southampton'
p7052
aS'37'
p7053
aS'22'
p7054
aS'6'
aS'30'
p7055
aa(lp7056
S'Dean Schofield'
p7057
aS'2007'
p7058
aS'Lock'
p7059
aS'Manchester'
p7060
aS'2'
aS'0'
aS'0'
aS'0'
aa(lp7061
S'Matt Cairns'
p7062
aS'2007'
p7063
aS'Hooker'
p7064
aS'Birkenhead'
p7065
aS'1'
aS'0'
aS'0'
aS'0'
aa(lp7066
S'Darren Crompton'
p7067
aS'2007'
p7068
aS'Prop'
p7069
aS'Exeter'
p7070
aS'1'
aS'0'
aS'0'
aS'0'
aa(lp7071
S'Roy Winters'
p7072
aS'2007'
p7073
aS'Lock'
p7074
aS'Cuckfield'
p7075
aS'2'
aS'0'
aS'0'
aS'0'
aa(lp7076
S'Ben Skirving'
p7077
aS'2007'
p7078
aS'Back-row'
p7079
aS'Harlow'
p7080
aS'1'
aS'0'
aS'0'
aS'0'
aa(lp7081
S'Nick Abendanon'
p7082
aS'2007'
p7083
aS'Wing, Fullback'
p7084
aS'Bryanston'
p7085
aS'2'
aS'0'
aS'0'
aS'0'
aa(lp7086
S'Dan Hipkiss'
p7087
aS'2007'
p7088
aS'Centre'
p7089
aS'Ipswich'
p7090
aS'13'
p7091
aS'7'
aS'0'
aS'0'
aa(lp7092
S'Luke Narraway'
p7093
aS'2008'
p7094
aS'No. 8'
p7095
aS'Worcester'
p7096
aS'7'
aS'1'
aS'0'
aS'0'
aa(lp7097
S'Danny Cipriani'
p7098
aS'2008'
p7099
aS'Fly-half'
p7100
aS'Roehampton'
p7101
aS'12'
p7102
aS'6'
aS'2'
aS'59'
p7103
aa(lp7104
S'Lesley Vainikolo'
p7105
aS'2008'
p7106
aS'Wing'
p7107
aS"Nuku'alofa"
p7108
aS'5'
aS'3'
aS'0'
aS'0'
aa(lp7109
S'Richard Wigglesworth'
p7110
aS'2008'
p7111
aS'Scrum-half'
p7112
aS'Blackpool'
p7113
aS'21'
p7114
aS'16'
p7115
aS'1'
aS'5'
aa(lp7116
S'Tom Croft'
p7117
aS'2008'
p7118
aS'Back-row'
p7119
aS'Basingstoke'
p7120
aS'45'
p7121
aS'25'
p7122
aS'6'
aS'30'
p7123
aa(lp7124
S'Paul Hodgson'
p7125
aS'2008'
p7126
aS'Scrum-half'
p7127
aS'Epsom'
p7128
aS'9'
aS'5'
aS'0'
aS'0'
aa(lp7129
S'Topsy Ojo'
p7130
aS'2008'
p7131
aS'Wing'
p7132
aS'Tottenham'
p7133
aS'2'
aS'0'
aS'2'
aS'10'
p7134
aa(lp7135
S'Danny Care'
p7136
aS'2008'
p7137
aS'Scrum-half'
p7138
aS'Leeds'
p7139
aS'50'
p7140
aS'25'
p7141
aS'7'
aS'44'
p7142
aa(lp7143
S'David Paice'
p7144
aS'2008'
p7145
aS'Hooker'
p7146
aS'Darwin'
p7147
aS'8'
aS'4'
aS'0'
aS'0'
aa(lp7148
S'Jason Hobson'
p7149
aS'2008'
p7150
aS'Prop'
p7151
aS'Swansea'
p7152
aS'1'
aS'0'
aS'0'
aS'0'
aa(lp7153
S'Delon Armitage'
p7154
aS'2008'
p7155
aS'Fullback'
p7156
aS'Trinidad'
p7157
aS'26'
p7158
aS'16'
p7159
aS'7'
aS'44'
p7160
aa(lp7161
S'Riki Flutey'
p7162
aS'2008'
p7163
aS'Centre'
p7164
aS'Featherston'
p7165
aS'15'
p7166
aS'7'
aS'4'
aS'20'
p7167
aa(lp7168
S'Nick Kennedy'
p7169
aS'2008'
p7170
aS'Lock'
p7171
aS'Southampton'
p7172
aS'7'
aS'4'
aS'1'
aS'5'
aa(lp7173
S'Ugo Monye'
p7174
aS'2008'
p7175
aS'Wing'
p7176
aS'Islington'
p7177
aS'16'
p7178
aS'8'
aS'3'
aS'15'
p7179
aa(lp7180
S'Dylan Hartley'
p7181
aS'2008'
p7182
aS'Hooker'
p7183
aS'Rotorua'
p7184
aS'66'
p7185
aS'39'
p7186
aS'1'
aS'5'
aa(lp7187
S'Jordan Crane'
p7188
aS'2008'
p7189
aS'Back-row'
p7190
aS'Bromsgrove'
p7191
aS'3'
aS'1'
aS'0'
aS'0'
aa(lp7192
S'Steffon Armitage'
p7193
aS'2009'
p7194
aS'Back-row'
p7195
aS'Trinidad'
p7196
aS'5'
aS'4'
aS'0'
aS'0'
aa(lp7197
S'Ben Foden'
p7198
aS'2009'
p7199
aS'Fullback'
p7200
aS'Chester'
p7201
aS'34'
p7202
aS'20'
p7203
aS'7'
aS'35'
p7204
aa(lp7205
S'Matt Banahan'
p7206
aS'2009'
p7207
aS'Wing'
p7208
aS'Jersey'
p7209
aS'16'
p7210
aS'9'
aS'4'
aS'20'
p7211
aa(lp7212
S'Tom May'
p7213
aS'2009'
p7214
aS'Centre'
p7215
aS'London'
p7216
aS'2'
aS'1'
aS'0'
aS'0'
aa(lp7217
S'David Wilson'
p7218
aS'2009'
p7219
aS'Prop'
p7220
aS'South Shields'
p7221
aS'41'
p7222
aS'24'
p7223
aS'1'
aS'5'
aa(lp7224
S'Sam Vesty'
p7225
aS'2009'
p7226
aS'Fly-half, Fullback'
p7227
aS'Leicester'
p7228
aS'2'
aS'1'
aS'0'
aS'0'
aa(lp7229
S'Chris Robshaw'
p7230
aS'2009'
p7231
aS'Back-row'
p7232
aS'Redhill'
p7233
aS'37'
p7234
aS'22'
p7235
aS'2'
aS'10'
p7236
aa(lp7237
S'Ayoola Erinle'
p7238
aS'2009'
p7239
aS'Centre'
p7240
aS'Lagos'
p7241
aS'2'
aS'0'
aS'0'
aS'0'
aa(lp7242
S'Courtney Lawes'
p7243
aS'2009'
p7244
aS'Lock, Back-row'
p7245
aS'Hackney'
p7246
aS'38'
p7247
aS'23'
p7248
aS'0'
aS'0'
aa(lp7249
S'Paul Doran Jones'
p7250
aS'2009'
p7251
aS'Prop'
p7252
aS'Enfield'
p7253
aS'6'
aS'4'
aS'0'
aS'0'
aa(lp7254
S'Dan Cole'
p7255
aS'2010'
p7256
aS'Prop'
p7257
aS'Leicester'
p7258
aS'53'
p7259
aS'33'
p7260
aS'1'
aS'5'
aa(lp7261
S'Matt Mullan'
p7262
aS'2010'
p7263
aS'Prop'
p7264
aS'Brighton'
p7265
aS'9'
aS'4'
aS'0'
aS'0'
aa(lp7266
S'Ben Youngs'
p7267
aS'2010'
p7268
aS'Scrum-half'
p7269
aS'Cawston'
p7270
aS'49'
p7271
aS'29'
p7272
aS'9'
aS'45'
p7273
aa(lp7274
S'Chris Ashton'
p7275
aS'2010'
p7276
aS'Wing'
p7277
aS'Wigan'
p7278
aS'39'
p7279
aS'23'
p7280
aS'19'
p7281
aS'95'
p7282
aa(lp7283
S'Shontayne Hape'
p7284
aS'2010'
p7285
aS'Centre'
p7286
aS'Auckland'
p7287
aS'13'
p7288
aS'8'
aS'2'
aS'10'
p7289
aa(lp7290
S'Dave Attwood'
p7291
aS'2010'
p7292
aS'Lock'
p7293
aS'Bristol'
p7294
aS'20'
p7295
aS'13'
p7296
aS'0'
aS'0'
aa(lp7297
S'Hendre Fourie'
p7298
aS'2010'
p7299
aS'Flanker'
p7300
aS'Burgersdorp'
p7301
aS'8'
aS'5'
aS'0'
aS'0'
aa(lp7302
S'Tom Wood'
p7303
aS'2011'
p7304
aS'Flanker'
p7305
aS'Coventry'
p7306
aS'36'
p7307
aS'25'
p7308
aS'0'
aS'0'
aa(lp7309
S'Alex Corbisiero'
p7310
aS'2011'
p7311
aS'Prop'
p7312
aS'United States'
p7313
aS'21'
p7314
aS'15'
p7315
aS'1'
aS'5'
aa(lp7316
S'Manusamoa Tuilagi'
p7317
aS'2011'
p7318
aS'Centre'
p7319
aS'Western Samoa'
p7320
aS'26'
p7321
aS'15'
p7322
aS'11'
p7323
aS'55'
p7324
aa(lp7325
S'Mouritz Botha'
p7326
aS'2011'
p7327
aS'Lock'
p7328
aS'Vryheid'
p7329
aS'10'
p7330
aS'5'
aS'0'
aS'0'
aa(lp7331
S'Charlie Sharples'
p7332
aS'2011'
p7333
aS'Wing'
p7334
aS'1989'
p7335
aS'4'
aS'3'
aS'2'
aS'10'
p7336
aa(lp7337
S'Joe Simpson'
p7338
aS'2011'
p7339
aS'Scrum-half'
p7340
aS'NSW'
p7341
aS'1'
aS'1'
aS'0'
aS'0'
aa(lp7342
S'Brad Barritt'
p7343
aS'2012'
p7344
aS'Centre'
p7345
aS'Durban'
p7346
aS'22'
p7347
aS'13'
p7348
aS'2'
aS'10'
p7349
aa(lp7350
S'Phil Dowson'
p7351
aS'2012'
p7352
aS'Back-row'
p7353
aS'Guildford'
p7354
aS'7'
aS'4'
aS'0'
aS'0'
aa(lp7355
S'Owen Farrell'
p7356
aS'2012'
p7357
aS'Centre, Fly-half'
p7358
aS'Billinge'
p7359
aS'30'
p7360
aS'18'
p7361
aS'2'
aS'290'
p7362
aa(lp7363
S'Lee Dickson'
p7364
aS'2012'
p7365
aS'Scrum-half'
p7366
aS'Verden'
p7367
aS'18'
p7368
aS'11'
p7369
aS'0'
aS'0'
aa(lp7370
S'Ben Morgan'
p7371
aS'2012'
p7372
aS'No. 8'
p7373
aS'Bristol'
p7374
aS'27'
p7375
aS'16'
p7376
aS'5'
aS'25'
p7377
aa(lp7378
S'Geoff Parling'
p7379
aS'2012'
p7380
aS'Lock'
p7381
aS'Stockton-on-Tees'
p7382
aS'26'
p7383
aS'15'
p7384
aS'1'
aS'5'
aa(lp7385
S'Jordan Turner-Hall'
p7386
aS'2012'
p7387
aS'Centre'
p7388
aS'London'
p7389
aS'2'
aS'2'
aS'0'
aS'0'
aa(lp7390
S'Rob Webber'
p7391
aS'2012'
p7392
aS'Hooker'
p7393
aS'York'
p7394
aS'12'
p7395
aS'6'
aS'1'
aS'5'
aa(lp7396
S'Tom Johnson'
p7397
aS'2012'
p7398
aS'Back-row'
p7399
aS'Dusseldorf'
p7400
aS'8'
aS'3'
aS'1'
aS'5'
aa(lp7401
S'Joe Marler'
p7402
aS'2012'
p7403
aS'Prop'
p7404
aS'Eastbourne'
p7405
aS'31'
p7406
aS'18'
p7407
aS'0'
aS'0'
aa(lp7408
S'Jonathan Joseph'
p7409
aS'2012'
p7410
aS'Centre'
p7411
aS'Derby'
p7412
aS'11'
p7413
aS'7'
aS'4'
aS'20'
p7414
aa(lp7415
S'Alex Goode'
p7416
aS'2012'
p7417
aS'Fullback, Fly-half'
p7418
aS'Cambridge'
p7419
aS'17'
p7420
aS'9'
aS'0'
aS'3'
aa(lp7421
S'Thomas Waldrom'
p7422
aS'2012'
p7423
aS'No. 8'
p7424
aS'Lower Hutt'
p7425
aS'5'
aS'2'
aS'0'
aS'0'
aa(lp7426
S'Tom Youngs'
p7427
aS'2012'
p7428
aS'Hooker'
p7429
aS'Norwich'
p7430
aS'25'
p7431
aS'18'
p7432
aS'0'
aS'0'
aa(lp7433
S'Joe Launchbury'
p7434
aS'2012'
p7435
aS'Lock'
p7436
aS'Exeter'
p7437
aS'22'
p7438
aS'14'
p7439
aS'2'
aS'10'
p7440
aa(lp7441
S'Mako Vunipola'
p7442
aS'2012'
p7443
aS'Prop'
p7444
aS'Wellington'
p7445
aS'23'
p7446
aS'17'
p7447
aS'1'
aS'5'
aa(lp7448
S'Freddie Burns'
p7449
aS'2012'
p7450
aS'Fly-half'
p7451
aS'Bath'
p7452
aS'5'
aS'3'
aS'1'
aS'57'
p7453
aa(lp7454
S'Billy Twelvetrees'
p7455
aS'2013'
p7456
aS'Centre'
p7457
aS'Chichester'
p7458
aS'20'
p7459
aS'15'
p7460
aS'3'
aS'15'
p7461
aa(lp7462
S'Matt Kvesic'
p7463
aS'2013'
p7464
aS'Back-row'
p7465
aS'Iserlohn'
p7466
aS'2'
aS'2'
aS'0'
aS'0'
aa(lp7467
S'Christian Wade'
p7468
aS''
aS'Wing'
p7469
aS'Slough'
p7470
aS'1'
aS'1'
aS'0'
aS'0'
aa(lp7471
S'Kyle Eastmond'
p7472
aS'2013'
p7473
aS'Fullback, Wing'
p7474
aS'Oldham'
p7475
aS'6'
aS'2'
aS'1'
aS'5'
aa(lp7476
S'Henry Thomas'
p7477
aS'2013'
p7478
aS'Prop'
p7479
aS'Kingston-upon-Thames'
p7480
aS'7'
aS'6'
aS'0'
aS'0'
aa(lp7481
S'Billy Vunipola'
p7482
aS'2013'
p7483
aS'No. 8'
p7484
aS'NSW'
p7485
aS'17'
p7486
aS'10'
p7487
aS'3'
aS'15'
p7488
aa(lp7489
S'Jonny May'
p7490
aS'2013'
p7491
aS'Wing'
p7492
aS'Swindon'
p7493
aS'13'
p7494
aS'9'
aS'3'
aS'15'
p7495
aa(lp7496
S'Marland Yarde'
p7497
aS'2013'
p7498
aS'Wing'
p7499
aS'Castries'
p7500
aS'7'
aS'4'
aS'4'
aS'20'
p7501
aa(lp7502
S'Stephen Myler'
p7503
aS'2013'
p7504
aS'Fly-half'
p7505
aS'Widnes'
p7506
aS'1'
aS'1'
aS'0'
aS'2'
aa(lp7507
S'Joel Tomkins'
p7508
aS'2013'
p7509
aS'Centre'
p7510
aS'Warrington'
p7511
aS'3'
aS'2'
aS'0'
aS'0'
aa(lp7512
S'Luther Burrell'
p7513
aS'2014'
p7514
aS'Centre'
p7515
aS'Huddersfield'
p7516
aS'12'
p7517
aS'8'
aS'3'
aS'15'
p7518
aa(lp7519
S'Jack Nowell'
p7520
aS'2014'
p7521
aS'Fullback'
p7522
aS'Truro'
p7523
aS'8'
aS'6'
aS'4'
aS'20'
p7524
aa(lp7525
S'George Ford'
p7526
aS'2014'
p7527
aS'Fly-half'
p7528
aS'Oldham'
p7529
aS'11'
p7530
aS'8'
aS'2'
aS'109'
p7531
aa(lp7532
S'Joe Gray'
p7533
aS'2014'
p7534
aS'Hooker'
p7535
aS'Nottingham'
p7536
aS'1'
aS'0'
aS'0'
aS'0'
aa(lp7537
S'Chris Pennell'
p7538
aS'2014'
p7539
aS'Fullback'
p7540
aS'Worcester'
p7541
aS'1'
aS'0'
aS'0'
aS'0'
aa(lp7542
S'Kieran Brookes'
p7543
aS'2014'
p7544
aS'Prop'
p7545
aS'Stoke-on-Trent'
p7546
aS'10'
p7547
aS'6'
aS'0'
aS'0'
aa(lp7548
S'Semesa Rokoduguni'
p7549
aS'2014'
p7550
aS'Centre, Wing'
p7551
aS'Nausori'
p7552
aS'1'
aS'0'
aS'0'
aS'0'
aa(lp7553
S'George Kruis'
p7554
aS'2014'
p7555
aS'Back-row'
p7556
aS'Guildford'
p7557
aS'7'
aS'4'
aS'0'
aS'0'
aa(lp7558
S'Anthony Watson'
p7559
aS'2014'
p7560
aS'Wing, Fullback'
p7561
aS'Ashford'
p7562
aS'9'
aS'6'
aS'2'
aS'10'
p7563
aa.