(lp1
VSeptember 10, 1876, Pine Mountain, QLD
p2
aVMarch 9, 1870, Grahamstown
p3
aVMarch 25, 1875, Brisbane, QLD
p4
aVcirca 1877
p5
aVJanuary 18, 1875, Newcastle, NSW
p6
aVApril 9, 1876, Indooroopilly, QLD
p7
aVFebruary 9, 1871, Kempsey, NSW
p8
aVcirca 1874, Bourke, NSW
p9
aVFebruary 28, 1875, Renfrewshire
p10
aVJune 8, 1872, Sydney, NSW
p11
aVJanuary 25, 1877, Dalby, QLD
p12
aVOctober 2, 1879, Redfern, NSW
p13
aVDecember 27, 1871, Brisbane, QLD
p14
aVNovember 5, 1876, Invercargill
p15
aVMarch 9, 1874, Maitland, NSW
p16
aVOctober 3, 1872, Stratford
p17
aVDecember 5, 1878, Christchurch
p18
aVApril 9, 1873, Dunedin
p19
aVJune 4, 1876, Castlereagh, NSW
p20
aVFebruary 6, 1879, Brisbane, QLD
p21
aVcirca 1876, Bathurst, NSW
p22
aVDecember 2, 1874, Brisbane, QLD
p23
aVJuly 30, 1875, Bathurst, NSW
p24
aVJuly 12, 1875, Brisbane, QLD
p25
aVJanuary 31, 1874, Orange, NSW
p26
aVJuly 4, 1872, Sydney, NSW
p27
aVNovember 20, 1870, Newcastle, NSW
p28
aVcirca 1869, Sydney, NSW
p29
aVMay 27, 1876, Hillston, NSW
p30
aVMarch 18, 1868, Dunedin
p31
aVAugust 30, 1874, Wellington
p32
aVOctober 13, 1877, Hillston, NSW
p33
aVcirca 1873
p34
aVMarch 31, 1879, Sydney, NSW
p35
aVFebruary 19, 1881, Brisbane, QLD
p36
aVcirca 1872, Penrith, NSW
p37
aVApril 11, 1880, Dawes Pt, NSW
p38
aVSeptember 21, 1880, N Lambton, NSW
p39
aVNovember 26, 1879, Sydney, NSW
p40
aVcirca 1876, Bathurst, NSW
p41
aVOctober 15, 1878, Villeneuva, QLD
p42
aVMay 19, 1878, Blenheim
p43
aVApril 18, 1878, Auckland
p44
aVJanuary 4, 1877, Lucknow, NSW
p45
aVFebruary 8, 1884, Sydney, NSW
p46
aVAugust 30, 1874, Brisbane, QLD
p47
aVNovember 9, 1879, Shanangolden, Limeric
p48
aVcirca 1876, Sydney, NSW
p49
aVNovember 5, 1880, Vegetable Creek, NSW
p50
aVFebruary 12, 1880, Hampden Hall, NSW
p51
aVMay 3, 1879, Newcastle, NSW
p52
aVJanuary 25, 1884, Sandgate, QLD
p53
aVMarch 3, 1878, Smeaton, VIC
p54
aVApril 15, 1880, Brisbane, QLD
p55
aVMarch 21, 1880, Sydney, NSW
p56
aVJuly 20, 1882, Brisbane, QLD
p57
aVJune 18, 1882, Brisbane, QLD
p58
aVJanuary 20, 1885, Brisbane, QLD
p59
aVFebruary 27, 1882, Armidale, NSW
p60
aVMarch 23, 1880, Cootamundra, NSW
p61
aVDecember 11, 1878, Surat, QLD
p62
aVApril 19, 1885, Brisbane, QLD
p63
aVcirca 1883, Orange, NSW
p64
aVDecember 29, 1882, Bathurst, NSW
p65
aVJuly 19, 1876, Thames
p66
aVMay 29, 1882, Brisbane, QLD
p67
aVcirca 1882, Armidale, NSW
p68
aVApril 16, 1881, Brisbane, QLD
p69
aVJanuary 23, 1885, Ultimo, NSW
p70
aVFebruary 28, 1886, Wellington, NSW
p71
aVMarch 12, 1885, Bathurst, NSW
p72
aVAugust 20, 1875, W Underwood, Bucks
p73
aVJanuary 19, 1880, Carcoar, NSW
p74
aVFebruary 14, 1884, Penrith, NSW
p75
aV(guess: regd Q4), Ashton-in-Makerfield
p76
aVcirca 1886, Dublin
p77
aVFebruary 19, 1884, Sydney, NSW
p78
aVSeptember 15, 1886, Elizabeth Bay, Sydney
p79
aVJune 24, 1883, Sydney, NSW
p80
aVNovember 27, 1882, Cumnock, NSW
p81
aVcirca 1882, Sydney, NSW
p82
aVMarch 23, 1883, Manly, NSW
p83
aVDecember 5, 1884, St Peters, Sydney
p84
aVJanuary 6, 1885, Brisbane, QLD
p85
aVJanuary 21, 1884, Staffordshire
p86
aVSeptember 1, 1883, Sydney, NSW
p87
aVApril 1, 1885, Keppel Island, QLD
p88
aVNovember 7, 1883, Timoleague
p89
aVMay 11, 1885, Woolloomooloo, Sydney
p90
aVApril 12, 1883, Balmain, NSW
p91
aVOctober 3, 1886, Colinton, QLD
p92
aVJune 4, 1889, Penrith, NSW
p93
aVNovember 17, 1888, Melbourne, VIC
p94
aVSeptember 1, 1885, Sydney, NSW
p95
aVMay 9, 1888, Waverley, NSW
p96
aVJanuary 4, 1887, Sydney, NSW
p97
aVApril 26, 1885, Darlington
p98
aVJuly 30, 1886, Homebush, Sydney
p99
aVApril 7, 1883, Vegetable Creek, NSW
p100
aVJanuary 20, 1883, Cudal, NSW
p101
aVJuly 30, 1884, Sydney, NSW
p102
aVJune 23, 1887, Tamworth, NSW
p103
aVFebruary 24, 1884, Glebe, NSW
p104
aVJuly 22, 1889, Penrith, NSW
p105
aVJune 18, 1888, Glebe, NSW
p106
aVFebruary 2, 1884, Orange, NSW
p107
aV(guess: regd Q1), Holborn
p108
aVcirca 1885, Paddington, NSW
p109
aVSeptember 18, 1888, Gulgong, NSW
p110
aVJuly 2, 1889, Newcastle, NSW
p111
aVAugust 17, 1879, Rockhampton, QLD
p112
aVJuly 12, 1885, Gladstone, QLD
p113
aVJune 13, 1887, Annandale, NSW
p114
aVMay 3, 1888, Essendon, VIC
p115
aVcirca 1885, Manly, NSW
p116
aVJuly 8, 1889, Leichardt, NSW
p117
aVJuly 7, 1888, Sydney, NSW
p118
aVFebruary 10, 1891, Toowoomba, QLD
p119
aVMarch 26, 1893, Toowoomba, QLD
p120
aVcirca 1880
p121
aVJanuary 16, 1890, Glebe, NSW
p122
aVMarch 5, 1893, Sydney, NSW
p123
aVNovember 10, 1887, Nelson
p124
aVMay 11, 1885, Sydney, NSW
p125
aVcirca 1892, Clifton Hill, VIC
p126
aVAugust 8, 1888, Newcastle, NSW
p127
aVJuly 29, 1889, Queensland
p128
aVJanuary 30, 1886, Sydney, NSW
p129
aVApril 10, 1892, Cowra, NSW
p130
aVOctober 15, 1891, Condoblin, NSW
p131
aVJuly 16, 1890, Marouba, NSW
p132
aVNovember 15, 1889, Bondi Beach, NSW
p133
aVSeptember 18, 1890, Hokitika
p134
aVSeptember 13, 1883, Toowoomba, QLD
p135
aVcirca 1888, Sydney, NSW
p136
aVcirca 1889, Sydney, NSW
p137
aVJune 21, 1891, Roma, QLD
p138
aVSeptember 29, 1882, Paddington, NSW
p139
aVJune 23, 1894, Brisbane, QLD
p140
aVJune 17, 1894, Ipswich, QLD
p141
aVJune 16, 1886, Warwick, QLD
p142
aVAugust 9, 1890, Glasgow
p143
aVNovember 29, 1894, Brisbane, QLD
p144
aVOctober 12, 1890, Brisbane, QLD
p145
aVSeptember 28, 1893, Mudgee, NSW
p146
aVAugust 7, 1891, Robertson, NSW
p147
aVcirca 1892, Sydney, NSW
p148
aVcirca 1892, Newcastle, NSW
p149
aVAugust 1, 1892, Dulwich, SA
p150
aVcirca 1893, Sydney, NSW
p151
aVcirca 1895, Junee, NSW
p152
aVcirca 1897, Sydney, NSW
p153
aVJuly 27, 1898, Waverley, NSW
p154
aVJanuary 16, 1899, Waterford, QLD
p155
aVcirca 1894, Richmond, VIC
p156
aVSeptember 26, 1896, Charters Towers, NSW
p157
aVJune 19, 1895, Cowra, NSW
p158
aVJanuary 12, 1899
p159
aVOctober 5, 1896, Sydney, NSW
p160
aVcirca 1897, Balmain, NSW
p161
aVApril 12, 1898, Balgowlah, NSW
p162
aVSeptember 19, 1898, Burwood, NSW
p163
aVSeptember 6, 1891, Sydney, NSW
p164
aVJuly 11, 1899, Sydney, NSW
p165
aVcirca 1901, Sydney, NSW
p166
aVJune 9, 1899, Burwood, NSW
p167
aVJuly 18, 1893, Brisbane, QLD
p168
aVSeptember 10, 1884, Sydney, NSW
p169
aVcirca 1899, Paddington, NSW
p170
aVAugust 1, 1900, Teutoburg, QLD
p171
aVcirca 1900, Singleton, NSW
p172
aVcirca 1895, Sydney, NSW
p173
aVMarch 18, 1899, Manly.NSW
p174
aVMarch 12, 1897, Leeston
p175
aVcirca 1901, Bathurst, NSW
p176
aVOctober 5, 1900, Machsville, NSW
p177
aVAugust 26, 1899, Mona Vale, NSW
p178
aVOctober 10, 1895, Stanmore, NSW
p179
aVcirca 1896, Sydney, NSW
p180
aVNovember 8, 1896, N Sydney
p181
aVcirca 1900, Sydney, NSW
p182
aVMay 25, 1899, Blayney, NSW
p183
aVcirca 1898, Annandale, NSW
p184
aVcirca 1902, Sydney, NSW
p185
aVJuly 26, 1896, Manly, NSW
p186
aVcirca 1900, St Kilda, VIC
p187
aVcirca 1899, Sydney, NSW
p188
aVcirca 1895, Sydney, NSW
p189
aVSeptember 1, 1902, Sydney, NSW
p190
aVOctober 13, 1903, Sydney, NSW
p191
aVcirca 1899, Sydney, NSW
p192
aVMay 25, 1897, Balmain, NSW
p193
aVNovember 14, 1903, Glen Innes, NSW
p194
aVOctober 27, 1902, Darlinghurst, NSW
p195
aVJanuary 11, 1889, Wellington
p196
aVJanuary 30, 1904, Leichardt
p197
aVSeptember 6, 1897, Warren, NSW
p198
aVDecember 11, 1899, Pretoria
p199
aVDecember 4, 1900, Narrabri, NSW
p200
aVMarch 18, 1895, Port Macquarie, NSW
p201
aVMarch 24, 1902, Leeston
p202
aVNovember 12, 1901, Bathurst, NSW
p203
aVJanuary 4, 1903, Sydney, NSW
p204
aVApril 6, 1901, Petersham, NSW
p205
aVcirca 1896, Merewether, NSW
p206
aVcirca 1897, Ipswich, QLD
p207
aVJune 1, 1900, Temora, NSW
p208
aVOctober 14, 1906, Sydney, NSW
p209
aVdate unknown
p210
aVApril 1, 1900, London
p211
aVNovember 24, 1905, Cundletown, NSW
p212
aVcirca 1903, Sydney, NSW
p213
aVcirca 1900
p214
aVcirca 1897, Grafton, NSW
p215
aVOctober 1, 1896, Coonamble, NSW
p216
aVApril 26, 1903, Corowa, NSW
p217
aVcirca 1905, Western Samoa
p218
aVJanuary 1, 1898, Sydney, NSW
p219
aVcirca 1902, Edinburgh
p220
aVSeptember 28, 1903, Newcastle, NSW
p221
aVOctober 30, 1900, N Sydney
p222
aVApril 22, 1903, Failford, NSW
p223
aVDecember 14, 1900, Greymouth
p224
aVFebruary 17, 1906, Sheffield, TAS
p225
aVMay 2, 1906, Sydney, NSW
p226
aVSeptember 3, 1903, Boulder City, WA
p227
aVDecember 25, 1903, Sydney, NSW
p228
aVNovember 10, 1906, Sydney, NSW
p229
aVMarch 21, 1905, Sydney, NSW
p230
aVJuly 30, 1906, Mansfield, VIC
p231
aVcirca 1903, Sydney, NSW
p232
aVSeptember 25, 1902, Manly, NSW
p233
aVSeptember 1, 1903, Walcha, NSW
p234
aVOctober 8, 1903, Sydney, NSW
p235
aVDecember 22, 1903, Sydney, NSW
p236
aVMay 7, 1906, Sydney, NSW
p237
aVNovember 24, 1906, Stockton, NSW
p238
aVAugust 8, 1904, Strathfield, NSW
p239
aVMarch 20, 1906, Eagle Junction, QLD
p240
aVJuly 21, 1904, Launceston, TAS
p241
aVOctober 30, 1904, Leichhardt, NSW
p242
aVDecember 10, 1903, Mereweather, NSW
p243
aVMarch 8, 1904, Concord, NSW
p244
aVDecember 7, 1903, North Sydney, NSW
p245
aVSeptember 20, 1905, Inverell, NSW
p246
aVMay 7, 1909, Newtown, NSW
p247
aVApril 12, 1907, Armidale, NSW
p248
aVOctober 11, 1906, Dundas, NSW
p249
aVJanuary 7, 1902, Sydney, NSW
p250
aVJanuary 10, 1907, Pretoria
p251
aVJanuary 16, 1907, Paddington, NSW
p252
aVMay 26, 1907, Hunterville
p253
aVJune 23, 1910, Coogee, NSW
p254
aVSeptember 22, 1908, Auckland
p255
aVSeptember 30, 1906, Guyra, NSW
p256
aVJanuary 31, 1908, Moss Vale, NSW
p257
aVSeptember 26, 1905, Manly, NSW
p258
aVOctober 17, 1908, Randwick, NSW
p259
aVcirca 1904, Barraba, NSW
p260
aVAugust 24, 1903, Hobart, TAS
p261
aVOctober 1, 1907, Brisbane, QLD
p262
aVSeptember 11, 1903, Bowral, NSW
p263
aVJune 30, 1904, Brisbane, QLD
p264
aVMay 9, 1905, Coogee, NSW
p265
aVDecember 25, 1906, Dalby, QLD
p266
aVcirca 1902, Sydney, NSW
p267
aVOctober 14, 1907, Brisbane, QLD
p268
aVSeptember 16, 1906, Emmaville, NSW
p269
aVMarch 26, 1906, Brisbane, QLD
p270
aVJuly 28, 1910, Exmouth
p271
aVSeptember 9, 1908, Mount Perry, QLD
p272
aVDecember 12, 1910, Coff's Harbour, NSW
p273
aVFebruary 26, 1911, Summer Hill, NSW
p274
aVSeptember 16, 1909, Geraldton, WA
p275
aVJuly 4, 1909, Brewarina, NSW
p276
aVSeptember 16, 1907, Crow's Nest, QLD
p277
aVDecember 21, 1908, Mosman, NSW
p278
aVJanuary 3, 1912, Nanango, QLD
p279
aVOctober 14, 1909, Sydney, NSW
p280
aVJuly 12, 1907, Wangaratta, VIC
p281
aVApril 2, 1905, Toowoomba, QLD
p282
aVMay 16, 1908, Berridale, NSW
p283
aVFebruary 5, 1912, Barabra, NSW
p284
aVJuly 28, 1903, Bellingen, NSW
p285
aVJuly 24, 1911, Roma, QLD
p286
aVFebruary 10, 1913, Mackay, QLD
p287
aVMarch 9, 1912, Lockhart, NSW
p288
aVMay 24, 1907, Toowoomba
p289
aVAugust 10, 1911, Toowoomba, QLD
p290
aVOctober 11, 1904, Leichhard
p291
aVMarch 23, 1912, Brisbane, QLD
p292
aVAugust 27, 1907, Quambone, NSW
p293
aVAugust 20, 1913, Mosman, NSW
p294
aVDecember 27, 1917, Armidale, NSW
p295
aVNovember 5, 1909, Sydney, NSW
p296
aVJanuary 23, 1914, Strathfield, NSW
p297
aVSeptember 18, 1913, Drummoyne, NSW
p298
aVApril 26, 1912, Sydney, NSW
p299
aVNovember 3, 1914, Major's Creek, NSW
p300
aVSeptember 3, 1911, Coogee, NSW
p301
aVSeptember 6, 1912, Strathfield, NSW
p302
aVJune 29, 1909, Melbourne, VIC
p303
aVAugust 27, 1914, Quirindi, NSW
p304
aVSeptember 26, 1916, Armidale, NSW
p305
aVDecember 11, 1910, Tamworth
p306
aVJanuary 18, 1912, Gympie, QLD
p307
aVOctober 2, 1917, Randwick, NSW
p308
aVSeptember 18, 1916, Petersham, NSW
p309
aVMarch 3, 1914, Invercargill
p310
aVOctober 19, 1910, Lindfield, NSW
p311
aVJanuary 31, 1912, Roseville, NSW
p312
aVApril 17, 1911, Trangie, NSW
p313
aVSeptember 13, 1918, Brisbane, QLD
p314
aVApril 25, 1918, St Kilda, VIC
p315
aVMay 12, 1914, Brisbane, QLD
p316
aVApril 6, 1914, Coogee, NSW
p317
aVSeptember 17, 1914, Sydney, NSW
p318
aVJuly 2, 1909, Multan
p319
aVSeptember 19, 1914, Toowoomba, QLD
p320
aVJune 30, 1914, Richmond River, NSW
p321
aVJune 10, 1919, Moree, NSW
p322
aVApril 28, 1916, Forbes, NSW
p323
aVSeptember 26, 1926, Bathurst, NSW
p324
aVSeptember 28, 1924, Bankstown, NSW
p325
aVMay 14, 1923, Sydney, NSW
p326
aVJuly 17, 1924, Manly, NSW
p327
aVJuly 12, 1925, Epping, NSW
p328
aVDecember 23, 1919, Buenos Aires
p329
aVMarch 17, 1928, Brisbane, QLD
p330
aVFebruary 12, 1919, Brisbane, QLD
p331
aVFebruary 12, 1927, Sydney, NSW
p332
aVFebruary 28, 1918, Ipswich, QLD
p333
aVJanuary 15, 1921, Rockhampton, QLD
p334
aVSeptember 16, 1925, Narrabri, NSW
p335
aVNovember 29, 1917, Bundaberg, QLD
p336
aVMay 5, 1921, Rochdale
p337
aVNovember 8, 1921, Randwick, NSW
p338
aVNovember 7, 1922, Sydney, NSW
p339
aVJuly 22, 1927, Coogee, NSW
p340
aVApril 19, 1923, Haberfield, NSW
p341
aVApril 11, 1921, Clovelly, NSW
p342
aVcirca 1923, ?
p343
aVApril 5, 1921, Coonamble, NSW
p344
aVNovember 7, 1925, Waratah, NSW
p345
aVJanuary 19, 1919, Neutral Bay, NSW
p346
aVMay 3, 1924, Penrith, NSW
p347
aVJune 18, 1922, Wee Waa, NSW
p348
aVOctober 4, 1925, Manly, NSW
p349
aVJanuary 29, 1922, Kingaroy, QLD
p350
aVJune 19, 1924, Lismore, NSW
p351
aVJuly 20, 1922, N Sydney
p352
aVNovember 15, 1926, Coogee, NSW
p353
aVFebruary 2, 1923, Brisbane, QLD
p354
aVSeptember 18, 1917, Abbey Wood, Kent
p355
aVOctober 19, 1922, Wagga Wagga, NSW
p356
aVAugust 20, 1920, Camperdown, NSW
p357
aVMarch 7, 1927, Tumbarumba, NSW
p358
aVJanuary 3, 1921, Brisbane, QLD
p359
aVSeptember 14, 1922, Sydney, NSW
p360
aVMarch 16, 1927, Brisbane, QLD
p361
aVJune 8, 1928, Bondi, NSW
p362
aVMarch 17, 1928, Brisbane, QLD
p363
aVMarch 21, 1926, Newcastle, NSW
p364
aVJune 8, 1928, Ross Bay, Sydney
p365
aVOctober 18, 1928, Brisbane, QLD
p366
aVOctober 15, 1929, Randwick
p367
aVMarch 4, 1928, Auburn, NSW
p368
aVJanuary 20, 1927, Yass, NSW
p369
aVFebruary 18, 1928, Five Dock, NSW
p370
aVSeptember 20, 1927, Strathfield, NSW
p371
aVMarch 2, 1929, Fennell Bay, NSW
p372
aVApril 29, 1927, Coogee, NSW
p373
aVMarch 3, 1930, Auckland
p374
aVJune 24, 1919, Darling Downs
p375
aVSeptember 22, 1930, Toowoomba, QLD
p376
aVMarch 20, 1926, Brisbane, QLD
p377
aVApril 26, 1927, Toowoomba, QLD
p378
aVNovember 18, 1929, Narrandera, NSW
p379
aVOctober 19, 1924, Wanganui
p380
aVMarch 24, 1924, Brisbane, QLD
p381
aVJuly 7, 1932, Melbourne, VIC
p382
aVNovember 21, 1930, Sutherland, NSW
p383
aVSeptember 21, 1929, Bombala, NSW
p384
aVFebruary 2, 1928, Maleny, QLD
p385
aVApril 13, 1926, Brisbane, QLD
p386
aVJune 5, 1927, Clovelly, NSW
p387
aVJune 23, 1929, Surry Hills, NSW
p388
aVSeptember 24, 1928, Sydney, NSW
p389
aVOctober 18, 1926, Newcastle, NSW
p390
aVSeptember 9, 1930, Toowoomba, QLD
p391
aVApril 29, 1930, Coff's Harbour, NSW
p392
aVNovember 18, 1931, Childers, QLD
p393
aVApril 29, 1929, Balgowlah, NSW
p394
aVMay 10, 1931, Brisbane, QLD
p395
aVApril 26, 1932, Warwick, QLD
p396
aVFebruary 4, 1933, Sydney, NSW
p397
aVSeptember 14, 1925, Sydney, NSW
p398
aVNovember 18, 1932, Albury
p399
aVDecember 31, 1931, Batavia, Java
p400
aVApril 11, 1929, Brisbane, QLD
p401
aVJanuary 3, 1926, Orange, NSW
p402
aVOctober 18, 1921, Atherton, QLD
p403
aVAugust 16, 1932, Brisbane, QLD
p404
aVFebruary 12, 1934, Sydney, NSW
p405
aVAugust 24, 1930, Brisbane, QLD
p406
aVAugust 31, 1933, Manly, NSW
p407
aVFebruary 17, 1933, Coorparoo, QLD
p408
aVAugust 26, 1923, Wyong, NSW
p409
aVOctober 27, 1930, Sydney, NSW
p410
aVMarch 30, 1935, Griffith, NSW
p411
aVJune 19, 1925, Auburn, NSW
p412
aVJune 15, 1934, Sydney, NSW
p413
aVFebruary 18, 1929, Orange, NSW
p414
aVJune 5, 1935, Sydney, NSW
p415
aVNovember 4, 1933, Melbourne, VIC
p416
aVMarch 9, 1934, Sydney, NSW
p417
aVOctober 3, 1933, Sydney, NSW
p418
aVJune 6, 1938, Newcastle, NSW
p419
aVAugust 9, 1936, Ipswich, QLD
p420
aVDecember 20, 1929, Sydney, NSW
p421
aVNovember 14, 1932, Walcha, NSW
p422
aVSeptember 10, 1934, Queanbeyan
p423
aVFebruary 21, 1936, Sydney, NSW
p424
aVMay 4, 1931, Brisbane, QLD
p425
aVJune 23, 1934, Sydney, NSW
p426
aVMarch 3, 1939, Sydney, NSW
p427
aVNovember 7, 1934, Bathurst, NSW
p428
aVMay 9, 1930, Melbourne, VIC
p429
aVAugust 9, 1935, Ashgrove, Brisbane
p430
aVApril 29, 1938, Wagga Wagga, NSW
p431
aVDecember 13, 1935, Paddington
p432
aVAugust 26, 1934, Ipswich, QLD
p433
aVApril 9, 1933, Sydney, NSW
p434
aVJuly 27, 1934, Grafton, NSW
p435
aVJuly 3, 1933, Kogarah, NSW
p436
aVOctober 26, 1933, Waratah, NSW
p437
aVMay 18, 1924, Hornsby, NSW
p438
aVJuly 27, 1935, Southport, QLD
p439
aVJanuary 30, 1931, Sydney, NSW
p440
aVDecember 2, 1931, New Lambton, NSW
p441
aVJune 4, 1937, Orange, NSW
p442
aVMarch 20, 1934, Sydney, NSW
p443
aVDecember 14, 1935, Brisbane, QLD
p444
aVJune 22, 1936, Brisbane, QLD
p445
aVOctober 29, 1936, Manly, NSW
p446
aVMarch 30, 1927, Casino, NSW
p447
aVJuly 24, 1937, Wagga Wagga, NSW
p448
aVOctober 20, 1931, Colinsville, QLD
p449
aVFebruary 27, 1935, Woollongong, NSW
p450
aVMarch 16, 1935, Glebe, Sydney
p451
aVApril 28, 1935, Brisbane, QLD
p452
aVAugust 27, 1939, Sydney, NSW
p453
a.