(lp1
VAustralia v Great Britain at Sydney, Jun 24, 1899
p2
aVAustralia v Great Britain at Sydney, Jun 24, 1899
p3
aVAustralia v Great Britain at Sydney, Jun 24, 1899
p4
aVAustralia v Great Britain at Sydney, Jun 24, 1899
p5
aVAustralia v Great Britain at Sydney, Jun 24, 1899
p6
aVAustralia v Great Britain at Sydney, Jun 24, 1899
p7
aVAustralia v Great Britain at Sydney, Jun 24, 1899
p8
aVAustralia v Great Britain at Sydney, Jun 24, 1899
p9
aVAustralia v Great Britain at Sydney, Jun 24, 1899
p10
aVAustralia v Great Britain at Sydney, Jun 24, 1899
p11
aVAustralia v Great Britain at Sydney, Jun 24, 1899
p12
aVAustralia v Great Britain at Sydney, Jun 24, 1899
p13
aVAustralia v Great Britain at Sydney, Jun 24, 1899
p14
aVAustralia v Great Britain at Sydney, Jun 24, 1899
p15
aVAustralia v Great Britain at Sydney, Jun 24, 1899
p16
aVAustralia v Great Britain at Brisbane, Jul 22, 1899
p17
aVAustralia v Great Britain at Brisbane, Jul 22, 1899
p18
aVAustralia v Great Britain at Brisbane, Jul 22, 1899
p19
aVAustralia v Great Britain at Brisbane, Jul 22, 1899
p20
aVAustralia v Great Britain at Brisbane, Jul 22, 1899
p21
aVAustralia v Great Britain at Brisbane, Jul 22, 1899
p22
aVAustralia v Great Britain at Brisbane, Jul 22, 1899
p23
aVAustralia v Great Britain at Sydney, Aug 5, 1899
p24
aVAustralia v Great Britain at Sydney, Aug 5, 1899
p25
aVAustralia v Great Britain at Sydney, Aug 5, 1899
p26
aVAustralia v Great Britain at Sydney, Aug 5, 1899
p27
aVAustralia v Great Britain at Sydney, Aug 5, 1899
p28
aVAustralia v Great Britain at Sydney, Aug 5, 1899
p29
aVAustralia v Great Britain at Sydney, Aug 5, 1899
p30
aVAustralia v Great Britain at Sydney, Aug 5, 1899
p31
aVAustralia v Great Britain at Sydney, Aug 12, 1899
p32
aVAustralia v Great Britain at Sydney, Aug 12, 1899
p33
aVAustralia v Great Britain at Sydney, Aug 12, 1899
p34
aVAustralia v New Zealand at Sydney, Aug 15, 1903
p35
aVAustralia v New Zealand at Sydney, Aug 15, 1903
p36
aVAustralia v New Zealand at Sydney, Aug 15, 1903
p37
aVAustralia v New Zealand at Sydney, Aug 15, 1903
p38
aVAustralia v New Zealand at Sydney, Aug 15, 1903
p39
aVAustralia v New Zealand at Sydney, Aug 15, 1903
p40
aVAustralia v New Zealand at Sydney, Aug 15, 1903
p41
aVAustralia v New Zealand at Sydney, Aug 15, 1903
p42
aVAustralia v New Zealand at Sydney, Aug 15, 1903
p43
aVAustralia v New Zealand at Sydney, Aug 15, 1903
p44
aVAustralia v New Zealand at Sydney, Aug 15, 1903
p45
aVAustralia v Great Britain at Sydney, Jul 2, 1904
p46
aVAustralia v Great Britain at Sydney, Jul 2, 1904
p47
aVAustralia v Great Britain at Sydney, Jul 2, 1904
p48
aVAustralia v Great Britain at Sydney, Jul 2, 1904
p49
aVAustralia v Great Britain at Sydney, Jul 2, 1904
p50
aVAustralia v Great Britain at Sydney, Jul 2, 1904
p51
aVAustralia v Great Britain at Sydney, Jul 2, 1904
p52
aVAustralia v Great Britain at Brisbane, Jul 23, 1904
p53
aVAustralia v Great Britain at Brisbane, Jul 23, 1904
p54
aVAustralia v Great Britain at Brisbane, Jul 23, 1904
p55
aVAustralia v Great Britain at Brisbane, Jul 23, 1904
p56
aVAustralia v Great Britain at Brisbane, Jul 23, 1904
p57
aVAustralia v Great Britain at Brisbane, Jul 23, 1904
p58
aVAustralia v Great Britain at Sydney, Jul 30, 1904
p59
aVAustralia v Great Britain at Sydney, Jul 30, 1904
p60
aVAustralia v Great Britain at Sydney, Jul 30, 1904
p61
aVAustralia v Great Britain at Sydney, Jul 30, 1904
p62
aVAustralia v Great Britain at Sydney, Jul 30, 1904
p63
aVAustralia v Great Britain at Sydney, Jul 30, 1904
p64
aVNew Zealand v Australia at Dunedin, Sep 2, 1905
p65
aVNew Zealand v Australia at Dunedin, Sep 2, 1905
p66
aVNew Zealand v Australia at Dunedin, Sep 2, 1905
p67
aVNew Zealand v Australia at Dunedin, Sep 2, 1905
p68
aVNew Zealand v Australia at Dunedin, Sep 2, 1905
p69
aVNew Zealand v Australia at Dunedin, Sep 2, 1905
p70
aVNew Zealand v Australia at Dunedin, Sep 2, 1905
p71
aVNew Zealand v Australia at Dunedin, Sep 2, 1905
p72
aVAustralia v Great Britain at Brisbane, Jul 22, 1899
p73
aVAustralia v New Zealand at Sydney, Jul 20, 1907
p74
aVAustralia v New Zealand at Sydney, Jul 20, 1907
p75
aVAustralia v New Zealand at Sydney, Jul 20, 1907
p76
aVAustralia v New Zealand at Sydney, Jul 20, 1907
p77
aVAustralia v New Zealand at Sydney, Jul 20, 1907
p78
aVAustralia v New Zealand at Sydney, Jul 20, 1907
p79
aVAustralia v New Zealand at Sydney, Jul 20, 1907
p80
aVAustralia v New Zealand at Sydney, Jul 20, 1907
p81
aVAustralia v New Zealand at Sydney, Jul 20, 1907
p82
aVAustralia v New Zealand at Sydney, Jul 20, 1907
p83
aVAustralia v New Zealand at Sydney, Jul 20, 1907
p84
aVAustralia v New Zealand at Sydney, Jul 20, 1907
p85
aVAustralia v New Zealand at Sydney, Jul 20, 1907
p86
aVAustralia v New Zealand at Sydney, Jul 20, 1907
p87
aVAustralia v New Zealand at Brisbane, Aug 3, 1907
p88
aVAustralia v New Zealand at Brisbane, Aug 3, 1907
p89
aVAustralia v New Zealand at Brisbane, Aug 3, 1907
p90
aVAustralia v New Zealand at Brisbane, Aug 3, 1907
p91
aVAustralia v New Zealand at Brisbane, Aug 3, 1907
p92
aVAustralia v New Zealand at Sydney, Aug 10, 1907
p93
aVWales v Australia at Cardiff, Dec 12, 1908
p94
aVWales v Australia at Cardiff, Dec 12, 1908
p95
aVWales v Australia at Cardiff, Dec 12, 1908
p96
aVWales v Australia at Cardiff, Dec 12, 1908
p97
aVWales v Australia at Cardiff, Dec 12, 1908
p98
aVWales v Australia at Cardiff, Dec 12, 1908
p99
aVWales v Australia at Cardiff, Dec 12, 1908
p100
aVEngland v Australia at Blackheath, Jan 9, 1909
p101
aVEngland v Australia at Blackheath, Jan 9, 1909
p102
aVEngland v Australia at Blackheath, Jan 9, 1909
p103
aVEngland v Australia at Blackheath, Jan 9, 1909
p104
aVAustralia v New Zealand at Sydney, Jun 25, 1910
p105
aVAustralia v New Zealand at Sydney, Jun 25, 1910
p106
aVAustralia v New Zealand at Sydney, Jun 25, 1910
p107
aVAustralia v New Zealand at Sydney, Jun 25, 1910
p108
aVAustralia v New Zealand at Sydney, Jun 25, 1910
p109
aVAustralia v New Zealand at Sydney, Jun 25, 1910
p110
aVAustralia v New Zealand at Sydney, Jun 25, 1910
p111
aVAustralia v New Zealand at Sydney, Jun 25, 1910
p112
aVAustralia v New Zealand at Sydney, Jun 25, 1910
p113
aVAustralia v New Zealand at Sydney, Jun 27, 1910
p114
aVAustralia v New Zealand at Sydney, Jun 27, 1910
p115
aVAustralia v New Zealand at Sydney, Jul 2, 1910
p116
aVUnited States of America v Australia at Berkeley, Nov 16, 1912
p117
aVUnited States of America v Australia at Berkeley, Nov 16, 1912
p118
aVUnited States of America v Australia at Berkeley, Nov 16, 1912
p119
aVUnited States of America v Australia at Berkeley, Nov 16, 1912
p120
aVUnited States of America v Australia at Berkeley, Nov 16, 1912
p121
aVUnited States of America v Australia at Berkeley, Nov 16, 1912
p122
aVUnited States of America v Australia at Berkeley, Nov 16, 1912
p123
aVUnited States of America v Australia at Berkeley, Nov 16, 1912
p124
aVNew Zealand v Australia at Wellington, Sep 6, 1913
p125
aVNew Zealand v Australia at Wellington, Sep 6, 1913
p126
aVNew Zealand v Australia at Wellington, Sep 6, 1913
p127
aVNew Zealand v Australia at Wellington, Sep 6, 1913
p128
aVNew Zealand v Australia at Wellington, Sep 6, 1913
p129
aVNew Zealand v Australia at Wellington, Sep 6, 1913
p130
aVNew Zealand v Australia at Wellington, Sep 6, 1913
p131
aVNew Zealand v Australia at Wellington, Sep 6, 1913
p132
aVNew Zealand v Australia at Wellington, Sep 6, 1913
p133
aVNew Zealand v Australia at Wellington, Sep 6, 1913
p134
aVNew Zealand v Australia at Dunedin, Sep 13, 1913
p135
aVNew Zealand v Australia at Dunedin, Sep 13, 1913
p136
aVNew Zealand v Australia at Dunedin, Sep 13, 1913
p137
aVNew Zealand v Australia at Christchurch, Sep 20, 1913
p138
aVAustralia v New Zealand at Sydney, Jul 18, 1914
p139
aVAustralia v New Zealand at Sydney, Jul 18, 1914
p140
aVAustralia v New Zealand at Sydney, Jul 18, 1914
p141
aVAustralia v New Zealand at Sydney, Jul 18, 1914
p142
aVAustralia v New Zealand at Brisbane, Aug 1, 1914
p143
aVAustralia v New Zealand at Brisbane, Aug 1, 1914
p144
aVAustralia v New Zealand at Brisbane, Aug 1, 1914
p145
aVAustralia v New Zealand at Sydney, Aug 15, 1914
p146
aVAustralia v New Zealand at Sydney, Aug 15, 1914
p147
aVAustralia v New Zealand at Sydney, Aug 15, 1914
p148
aVAustralia v New Zealand XV at Sydney, Jul 24, 1920
p149
aVAustralia v New Zealand XV at Sydney, Jul 24, 1920
p150
aVAustralia v New Zealand XV at Sydney, Jul 24, 1920
p151
aVAustralia v New Zealand XV at Sydney, Jul 24, 1920
p152
aVAustralia v New Zealand XV at Sydney, Jul 24, 1920
p153
aVAustralia v New Zealand XV at Sydney, Jul 24, 1920
p154
aVAustralia v New Zealand XV at Sydney, Jul 24, 1920
p155
aVAustralia v New Zealand XV at Sydney, Jul 24, 1920
p156
aVAustralia v New Zealand XV at Sydney, Jul 24, 1920
p157
aVAustralia v New Zealand XV at Sydney, Jul 24, 1920
p158
aVAustralia v New Zealand XV at Sydney, Jul 24, 1920
p159
aVAustralia v New Zealand XV at Sydney, Jul 31, 1920
p160
aVAustralia v New Zealand XV at Sydney, Jul 31, 1920
p161
aVAustralia v New Zealand XV at Sydney, Jul 31, 1920
p162
aVAustralia v New Zealand XV at Sydney, Aug 7, 1920
p163
aVAustralia v New Zealand XV at Sydney, Aug 7, 1920
p164
aVAustralia v New Zealand XV at Sydney, Aug 7, 1920
p165
aVAustralia v New Zealand XV at Sydney, Aug 7, 1920
p166
aVAustralia v South Africa XV at Sydney, Jun 25, 1921
p167
aVAustralia v South Africa XV at Sydney, Jun 25, 1921
p168
aVAustralia v South Africa XV at Sydney, Jun 25, 1921
p169
aVAustralia v South Africa XV at Sydney, Jun 25, 1921
p170
aVAustralia v South Africa XV at Sydney, Jun 25, 1921
p171
aVAustralia v South Africa XV at Sydney, Jun 25, 1921
p172
aVAustralia v South Africa XV at Sydney, Jun 25, 1921
p173
aVAustralia v South Africa XV at Sydney, Jun 25, 1921
p174
aVNew Zealand XV v Australia at Christchurch, Sep 3, 1921
p175
aVNew Zealand XV v Australia at Christchurch, Sep 3, 1921
p176
aVNew Zealand XV v Australia at Christchurch, Sep 3, 1921
p177
aVAustralia v New Zealand Maori at Sydney, Jun 24, 1922
p178
aVAustralia v New Zealand Maori at Sydney, Jun 24, 1922
p179
aVAustralia v New Zealand Maori at Sydney, Jun 24, 1922
p180
aVAustralia v New Zealand Maori at Sydney, Jun 26, 1922
p181
aVAustralia v New Zealand Maori at Sydney, Jun 26, 1922
p182
aVAustralia v New Zealand Maori at Sydney, Jul 8, 1922
p183
aVAustralia v New Zealand XV at Sydney, Jul 29, 1922
p184
aVAustralia v New Zealand XV at Sydney, Jul 29, 1922
p185
aVAustralia v New Zealand XV at Sydney, Jul 29, 1922
p186
aVAustralia v New Zealand XV at Sydney, Aug 5, 1922
p187
aVAustralia v New Zealand XV at Sydney, Aug 5, 1922
p188
aVAustralia v New Zealand XV at Sydney, Aug 7, 1922
p189
aVAustralia v New Zealand Maori at Sydney, Jun 16, 1923
p190
aVAustralia v New Zealand Maori at Sydney, Jun 16, 1923
p191
aVAustralia v New Zealand Maori at Sydney, Jun 16, 1923
p192
aVAustralia v New Zealand Maori at Sydney, Jun 16, 1923
p193
aVAustralia v New Zealand Maori at Sydney, Jun 16, 1923
p194
aVAustralia v New Zealand Maori at Sydney, Jun 23, 1923
p195
aVAustralia v New Zealand Maori at Sydney, Jun 23, 1923
p196
aVAustralia v New Zealand Maori at Sydney, Jun 25, 1923
p197
aVNew Zealand XV v Australia at Dunedin, Aug 25, 1923
p198
aVNew Zealand XV v Australia at Dunedin, Aug 25, 1923
p199
aVNew Zealand XV v Australia at Dunedin, Aug 25, 1923
p200
aVNew Zealand XV v Australia at Dunedin, Aug 25, 1923
p201
aVNew Zealand XV v Australia at Dunedin, Aug 25, 1923
p202
aVNew Zealand XV v Australia at Wellington, Sep 15, 1923
p203
aVNew Zealand XV v Australia at Wellington, Sep 15, 1923
p204
aVAustralia v New Zealand XV at Sydney, Jul 5, 1924
p205
aVAustralia v New Zealand XV at Sydney, Jul 5, 1924
p206
aVAustralia v New Zealand XV at Sydney, Jul 12, 1924
p207
aVAustralia v New Zealand XV at Sydney, Jun 13, 1925
p208
aVAustralia v New Zealand XV at Sydney, Jun 13, 1925
p209
aVAustralia v New Zealand XV at Sydney, Jun 13, 1925
p210
aVAustralia v New Zealand XV at Sydney, Jun 13, 1925
p211
aVAustralia v New Zealand XV at Sydney, Jun 13, 1925
p212
aVAustralia v New Zealand XV at Sydney, Jun 13, 1925
p213
aVAustralia v New Zealand XV at Sydney, Jun 13, 1925
p214
aVAustralia v New Zealand XV at Sydney, Jun 20, 1925
p215
aVAustralia v New Zealand XV at Sydney, Jun 20, 1925
p216
aVAustralia v New Zealand XV at Sydney, Jun 20, 1925
p217
aVAustralia v New Zealand XV at Sydney, Jun 20, 1925
p218
aVAustralia v New Zealand XV at Sydney, Jun 20, 1925
p219
aVAustralia v New Zealand XV at Sydney, Jun 20, 1925
p220
aVAustralia v New Zealand XV at Sydney, Jun 20, 1925
p221
aVAustralia v New Zealand XV at Sydney, Jun 20, 1925
p222
aVAustralia v New Zealand XV at Sydney, Jun 20, 1925
p223
aVAustralia v New Zealand XV at Sydney, Jun 23, 1925
p224
aVNew Zealand XV v Australia at Auckland, Sep 19, 1925
p225
aVNew Zealand XV v Australia at Auckland, Sep 19, 1925
p226
aVNew Zealand XV v Australia at Auckland, Sep 19, 1925
p227
aVAustralia v New Zealand XV at Sydney, Jul 10, 1926
p228
aVAustralia v New Zealand XV at Sydney, Jul 10, 1926
p229
aVAustralia v New Zealand XV at Sydney, Jul 10, 1926
p230
aVAustralia v New Zealand XV at Sydney, Jul 10, 1926
p231
aVAustralia v New Zealand XV at Sydney, Jul 20, 1926
p232
aVAustralia v New Zealand XV at Sydney, Jul 20, 1926
p233
aVAustralia v New Zealand XV at Sydney, Jul 29, 1926
p234
aVAustralia v New Zealand XV at Sydney, Jul 29, 1926
p235
aVAustralia v New Zealand XV at Sydney, Jul 29, 1926
p236
aVAustralia v New Zealand XV at Sydney, Jul 29, 1926
p237
aVAustralia v New Zealand XV at Sydney, Jul 29, 1926
p238
aVAustralia v New Zealand XV at Sydney, Jul 29, 1926
p239
aVAustralia v New Zealand XV at Sydney, Jul 29, 1926
p240
aVIreland v Australia at Lansdowne Road, Nov 12, 1927
p241
aVIreland v Australia at Lansdowne Road, Nov 12, 1927
p242
aVScotland v Australia at Murrayfield, Dec 17, 1927
p243
aVFrance v Australia at Colombes, Jan 22, 1928
p244
aVNew Zealand XV v Australia at Wellington, Sep 5, 1928
p245
aVNew Zealand XV v Australia at Wellington, Sep 5, 1928
p246
aVNew Zealand XV v Australia at Wellington, Sep 5, 1928
p247
aVNew Zealand XV v Australia at Wellington, Sep 5, 1928
p248
aVNew Zealand XV v Australia at Wellington, Sep 5, 1928
p249
aVNew Zealand XV v Australia at Wellington, Sep 5, 1928
p250
aVNew Zealand XV v Australia at Wellington, Sep 5, 1928
p251
aVNew Zealand XV v Australia at Wellington, Sep 5, 1928
p252
aVNew Zealand XV v Australia at Wellington, Sep 5, 1928
p253
aVNew Zealand XV v Australia at Wellington, Sep 5, 1928
p254
aVNew Zealand XV v Australia at Dunedin, Sep 8, 1928
p255
aVNew Zealand XV v Australia at Dunedin, Sep 8, 1928
p256
aVNew Zealand XV v Australia at Dunedin, Sep 8, 1928
p257
aVNew Zealand XV v Australia at Christchurch, Sep 15, 1928
p258
aVNew Zealand XV v Australia at Christchurch, Sep 15, 1928
p259
aVNew Zealand Maori v Australia at Wellington, Sep 22, 1928
p260
aVNew Zealand Maori v Australia at Wellington, Sep 22, 1928
p261
aVAustralia v New Zealand at Sydney, Jul 6, 1929
p262
aVAustralia v New Zealand at Sydney, Jul 6, 1929
p263
aVAustralia v New Zealand at Sydney, Jul 6, 1929
p264
aVAustralia v New Zealand at Sydney, Jul 6, 1929
p265
aVAustralia v New Zealand at Sydney, Jul 6, 1929
p266
aVAustralia v New Zealand at Sydney, Jul 6, 1929
p267
aVAustralia v New Zealand at Brisbane, Jul 20, 1929
p268
aVAustralia v New Zealand at Brisbane, Jul 20, 1929
p269
aVNew Zealand Maori v Australia at Palmerston North, Sep 9, 1931
p270
aVNew Zealand Maori v Australia at Palmerston North, Sep 9, 1931
p271
aVNew Zealand Maori v Australia at Palmerston North, Sep 9, 1931
p272
aVNew Zealand Maori v Australia at Palmerston North, Sep 9, 1931
p273
aVNew Zealand Maori v Australia at Palmerston North, Sep 9, 1931
p274
aVNew Zealand Maori v Australia at Palmerston North, Sep 9, 1931
p275
aVNew Zealand Maori v Australia at Palmerston North, Sep 9, 1931
p276
aVNew Zealand Maori v Australia at Palmerston North, Sep 9, 1931
p277
aVNew Zealand v Australia at Auckland, Sep 12, 1931
p278
aVAustralia v New Zealand at Sydney, Jul 2, 1932
p279
aVAustralia v New Zealand at Sydney, Jul 2, 1932
p280
aVAustralia v New Zealand at Sydney, Jul 23, 1932
p281
aVAustralia v New Zealand at Sydney, Jul 23, 1932
p282
aVSouth Africa v Australia at Cape Town, Jul 8, 1933
p283
aVSouth Africa v Australia at Cape Town, Jul 8, 1933
p284
aVSouth Africa v Australia at Cape Town, Jul 8, 1933
p285
aVSouth Africa v Australia at Cape Town, Jul 8, 1933
p286
aVSouth Africa v Australia at Cape Town, Jul 8, 1933
p287
aVSouth Africa v Australia at Durban, Jul 22, 1933
p288
aVAustralia v New Zealand at Sydney, Aug 11, 1934
p289
aVAustralia v New Zealand at Sydney, Aug 11, 1934
p290
aVNew Zealand v Australia at Auckland, Sep 12, 1931
p291
aVAustralia v New Zealand at Sydney, Aug 11, 1934
p292
aVAustralia v New Zealand at Sydney, Aug 25, 1934
p293
aVNew Zealand v Australia at Wellington, Sep 5, 1936
p294
aVNew Zealand v Australia at Wellington, Sep 5, 1936
p295
aVNew Zealand v Australia at Wellington, Sep 5, 1936
p296
aVNew Zealand v Australia at Wellington, Sep 5, 1936
p297
aVNew Zealand v Australia at Wellington, Sep 5, 1936
p298
aVNew Zealand v Australia at Wellington, Sep 5, 1936
p299
aVNew Zealand v Australia at Wellington, Sep 5, 1936
p300
aVNew Zealand v Australia at Wellington, Sep 5, 1936
p301
aVNew Zealand v Australia at Dunedin, Sep 12, 1936
p302
aVNew Zealand Maori v Australia at Palmerston North, Sep 23, 1936
p303
aVNew Zealand Maori v Australia at Palmerston North, Sep 23, 1936
p304
aVAustralia v South Africa at Sydney, Jun 26, 1937
p305
aVAustralia v South Africa at Sydney, Jun 26, 1937
p306
aVAustralia v South Africa at Sydney, Jun 26, 1937
p307
aVAustralia v South Africa at Sydney, Jun 26, 1937
p308
aVAustralia v South Africa at Sydney, Jul 17, 1937
p309
aVAustralia v South Africa at Sydney, Jul 17, 1937
p310
aVAustralia v South Africa at Sydney, Jul 17, 1937
p311
aVAustralia v South Africa at Sydney, Jul 17, 1937
p312
aVAustralia v New Zealand at Sydney, Jul 23, 1938
p313
aVAustralia v New Zealand at Sydney, Jul 23, 1938
p314
aVAustralia v New Zealand at Sydney, Jul 23, 1938
p315
aVAustralia v New Zealand at Sydney, Jul 23, 1938
p316
aVAustralia v New Zealand at Sydney, Jul 23, 1938
p317
aVAustralia v New Zealand at Brisbane, Aug 6, 1938
p318
aVAustralia v New Zealand at Brisbane, Aug 6, 1938
p319
aVAustralia v New Zealand at Brisbane, Aug 6, 1938
p320
aVAustralia v New Zealand at Brisbane, Aug 6, 1938
p321
aVAustralia v New Zealand at Brisbane, Aug 6, 1938
p322
aVAustralia v New Zealand at Sydney, Aug 13, 1938
p323
aVNew Zealand v Australia at Dunedin, Sep 14, 1946
p324
aVNew Zealand v Australia at Dunedin, Sep 14, 1946
p325
aVNew Zealand v Australia at Dunedin, Sep 14, 1946
p326
aVNew Zealand v Australia at Dunedin, Sep 14, 1946
p327
aVNew Zealand v Australia at Dunedin, Sep 14, 1946
p328
aVNew Zealand v Australia at Dunedin, Sep 14, 1946
p329
aVNew Zealand v Australia at Dunedin, Sep 14, 1946
p330
aVNew Zealand v Australia at Dunedin, Sep 14, 1946
p331
aVNew Zealand v Australia at Dunedin, Sep 14, 1946
p332
aVNew Zealand v Australia at Dunedin, Sep 14, 1946
p333
aVNew Zealand v Australia at Dunedin, Sep 14, 1946
p334
aVNew Zealand v Australia at Dunedin, Sep 14, 1946
p335
aVNew Zealand v Australia at Dunedin, Sep 14, 1946
p336
aVNew Zealand v Australia at Dunedin, Sep 14, 1946
p337
aVNew Zealand v Australia at Dunedin, Sep 14, 1946
p338
aVNew Zealand v Australia at Dunedin, Sep 14, 1946
p339
aVNew Zealand v Australia at Dunedin, Sep 14, 1946
p340
aVNew Zealand Maori v Australia at Hamilton, Sep 25, 1946
p341
aVNew Zealand Maori v Australia at Hamilton, Sep 25, 1946
p342
aVNew Zealand Maori v Australia at Hamilton, Sep 25, 1946
p343
aVNew Zealand Maori v Australia at Hamilton, Sep 25, 1946
p344
aVNew Zealand v Australia at Auckland, Sep 28, 1946
p345
aVAustralia v New Zealand at Brisbane, Jun 14, 1947
p346
aVAustralia v New Zealand at Brisbane, Jun 14, 1947
p347
aVAustralia v New Zealand at Brisbane, Jun 14, 1947
p348
aVAustralia v New Zealand at Brisbane, Jun 14, 1947
p349
aVAustralia v New Zealand at Sydney, Jun 28, 1947
p350
aVAustralia v New Zealand at Sydney, Jun 28, 1947
p351
aVAustralia v New Zealand at Sydney, Jun 28, 1947
p352
aVAustralia v New Zealand at Sydney, Jun 28, 1947
p353
aVAustralia v New Zealand at Sydney, Jun 28, 1947
p354
aVScotland v Australia at Murrayfield, Nov 22, 1947
p355
aVScotland v Australia at Murrayfield, Nov 22, 1947
p356
aVAustralia v New Zealand Maori at Sydney, Jun 4, 1949
p357
aVAustralia v New Zealand Maori at Sydney, Jun 4, 1949
p358
aVAustralia v New Zealand Maori at Sydney, Jun 4, 1949
p359
aVAustralia v New Zealand Maori at Sydney, Jun 4, 1949
p360
aVAustralia v New Zealand Maori at Sydney, Jun 4, 1949
p361
aVAustralia v New Zealand Maori at Sydney, Jun 4, 1949
p362
aVAustralia v New Zealand Maori at Sydney, Jun 4, 1949
p363
aVAustralia v New Zealand Maori at Sydney, Jun 4, 1949
p364
aVAustralia v New Zealand Maori at Brisbane, Jun 11, 1949
p365
aVAustralia v New Zealand Maori at Brisbane, Jun 11, 1949
p366
aVAustralia v New Zealand Maori at Sydney, Jun 25, 1949
p367
aVNew Zealand v Australia at Wellington, Sep 3, 1949
p368
aVNew Zealand v Australia at Wellington, Sep 3, 1949
p369
aVNew Zealand v Australia at Wellington, Sep 3, 1949
p370
aVNew Zealand v Australia at Wellington, Sep 3, 1949
p371
aVAustralia v British and Irish Lions at Brisbane, Aug 19, 1950
p372
aVAustralia v British and Irish Lions at Brisbane, Aug 19, 1950
p373
aVAustralia v British and Irish Lions at Brisbane, Aug 19, 1950
p374
aVAustralia v British and Irish Lions at Brisbane, Aug 19, 1950
p375
aVAustralia v British and Irish Lions at Brisbane, Aug 19, 1950
p376
aVAustralia v British and Irish Lions at Brisbane, Aug 19, 1950
p377
aVAustralia v British and Irish Lions at Sydney, Aug 26, 1950
p378
aVAustralia v New Zealand at Sydney, Jun 23, 1951
p379
aVAustralia v New Zealand at Sydney, Jun 23, 1951
p380
aVAustralia v New Zealand at Sydney, Jun 23, 1951
p381
aVAustralia v New Zealand at Sydney, Jun 23, 1951
p382
aVAustralia v New Zealand at Sydney, Jun 23, 1951
p383
aVAustralia v New Zealand at Sydney, Jun 23, 1951
p384
aVAustralia v New Zealand at Sydney, Jun 23, 1951
p385
aVAustralia v New Zealand at Sydney, Jul 7, 1951
p386
aVAustralia v New Zealand at Brisbane, Jul 21, 1951
p387
aVAustralia v Fiji at Sydney, Jul 26, 1952
p388
aVAustralia v Fiji at Sydney, Jul 26, 1952
p389
aVAustralia v Fiji at Sydney, Jul 26, 1952
p390
aVAustralia v Fiji at Sydney, Jul 26, 1952
p391
aVAustralia v Fiji at Sydney, Jul 26, 1952
p392
aVAustralia v Fiji at Sydney, Jul 26, 1952
p393
aVAustralia v Fiji at Sydney, Jul 26, 1952
p394
aVAustralia v Fiji at Sydney, Aug 9, 1952
p395
aVNew Zealand v Australia at Christchurch, Sep 6, 1952
p396
aVSouth Africa v Australia at Johannesburg, Aug 22, 1953
p397
aVSouth Africa v Australia at Johannesburg, Aug 22, 1953
p398
aVSouth Africa v Australia at Johannesburg, Aug 22, 1953
p399
aVSouth Africa v Australia at Johannesburg, Aug 22, 1953
p400
aVSouth Africa v Australia at Johannesburg, Aug 22, 1953
p401
aVSouth Africa v Australia at Johannesburg, Aug 22, 1953
p402
aVSouth Africa v Australia at Cape Town, Sep 5, 1953
p403
aVSouth Africa v Australia at Cape Town, Sep 5, 1953
p404
aVAustralia v Fiji at Brisbane, Jun 5, 1954
p405
aVAustralia v Fiji at Brisbane, Jun 5, 1954
p406
aVAustralia v Fiji at Brisbane, Jun 5, 1954
p407
aVAustralia v Fiji at Sydney, Jun 26, 1954
p408
aVNew Zealand v Australia at Wellington, Aug 20, 1955
p409
aVNew Zealand v Australia at Wellington, Aug 20, 1955
p410
aVNew Zealand v Australia at Wellington, Aug 20, 1955
p411
aVNew Zealand v Australia at Dunedin, Sep 3, 1955
p412
aVNew Zealand v Australia at Dunedin, Sep 3, 1955
p413
aVNew Zealand v Australia at Dunedin, Sep 3, 1955
p414
aVAustralia v South Africa at Sydney, May 26, 1956
p415
aVAustralia v South Africa at Sydney, May 26, 1956
p416
aVAustralia v South Africa at Sydney, May 26, 1956
p417
aVAustralia v South Africa at Brisbane, Jun 2, 1956
p418
aVAustralia v New Zealand at Sydney, May 25, 1957
p419
aVAustralia v New Zealand at Sydney, May 25, 1957
p420
aVAustralia v New Zealand at Sydney, May 25, 1957
p421
aVAustralia v New Zealand at Sydney, May 25, 1957
p422
aVAustralia v New Zealand at Sydney, May 25, 1957
p423
aVAustralia v New Zealand at Sydney, May 25, 1957
p424
aVAustralia v New Zealand at Sydney, May 25, 1957
p425
aVAustralia v New Zealand at Brisbane, Jun 1, 1957
p426
aVAustralia v New Zealand at Brisbane, Jun 1, 1957
p427
aVAustralia v New Zealand at Brisbane, Jun 1, 1957
p428
aVAustralia v New Zealand at Brisbane, Jun 1, 1957
p429
aVWales v Australia at Cardiff, Jan 4, 1958
p430
aVWales v Australia at Cardiff, Jan 4, 1958
p431
aVWales v Australia at Cardiff, Jan 4, 1958
p432
aVEngland v Australia at Twickenham, Feb 1, 1958
p433
aVEngland v Australia at Twickenham, Feb 1, 1958
p434
aVScotland v Australia at Murrayfield, Feb 15, 1958
p435
aVFrance v Australia at Colombes, Mar 9, 1958
p436
aVFrance v Australia at Colombes, Mar 9, 1958
p437
aVFrance v Australia at Colombes, Mar 9, 1958
p438
aVAustralia v New Zealand Maori at Brisbane, Jun 14, 1958
p439
aVAustralia v New Zealand Maori at Brisbane, Jun 14, 1958
p440
aVAustralia v New Zealand Maori at Brisbane, Jun 14, 1958
p441
aVAustralia v New Zealand Maori at Brisbane, Jun 14, 1958
p442
aVAustralia v New Zealand Maori at Sydney, Jun 28, 1958
p443
aVAustralia v New Zealand Maori at Sydney, Jun 28, 1958
p444
aVAustralia v New Zealand Maori at Sydney, Jun 28, 1958
p445
aVNew Zealand v Australia at Wellington, Aug 23, 1958
p446
aVNew Zealand v Australia at Wellington, Aug 23, 1958
p447
aVNew Zealand v Australia at Wellington, Aug 23, 1958
p448
aVNew Zealand v Australia at Wellington, Aug 23, 1958
p449
aVNew Zealand v Australia at Wellington, Aug 23, 1958
p450
aVNew Zealand v Australia at Christchurch, Sep 6, 1958
p451
aVNew Zealand v Australia at Auckland, Sep 20, 1958
p452
aVAustralia v British and Irish Lions at Brisbane, Jun 6, 1959
p453
aVAustralia v British and Irish Lions at Brisbane, Jun 6, 1959
p454
aVAustralia v British and Irish Lions at Brisbane, Jun 6, 1959
p455
aVAustralia v Fiji at Brisbane, Jun 10, 1961
p456
aVAustralia v Fiji at Brisbane, Jun 10, 1961
p457
aVAustralia v Fiji at Brisbane, Jun 10, 1961
p458
aVAustralia v Fiji at Brisbane, Jun 10, 1961
p459
aVAustralia v Fiji at Brisbane, Jun 10, 1961
p460
aVAustralia v Fiji at Brisbane, Jun 10, 1961
p461
aVAustralia v Fiji at Brisbane, Jun 10, 1961
p462
aVAustralia v Fiji at Brisbane, Jun 10, 1961
p463
aVAustralia v Fiji at Brisbane, Jun 10, 1961
p464
aVAustralia v Fiji at Brisbane, Jun 10, 1961
p465
aVAustralia v Fiji at Brisbane, Jun 10, 1961
p466
aVAustralia v Fiji at Sydney, Jun 17, 1961
p467
aVAustralia v Fiji at Sydney, Jun 17, 1961
p468
aVAustralia v Fiji at Melbourne, Jul 1, 1961
p469
aVAustralia v New Zealand at Brisbane, May 26, 1962
p470
aVAustralia v New Zealand at Brisbane, May 26, 1962
p471
aVAustralia v New Zealand at Brisbane, May 26, 1962
p472
aVAustralia v New Zealand at Brisbane, May 26, 1962
p473
aVAustralia v New Zealand at Brisbane, May 26, 1962
p474
aVAustralia v New Zealand at Brisbane, May 26, 1962
p475
aVNew Zealand v Australia at Wellington, Aug 25, 1962
p476
aVNew Zealand v Australia at Wellington, Aug 25, 1962
p477
aVNew Zealand v Australia at Wellington, Aug 25, 1962
p478
aVNew Zealand v Australia at Wellington, Aug 25, 1962
p479
aVNew Zealand v Australia at Wellington, Aug 25, 1962
p480
aVNew Zealand v Australia at Wellington, Aug 25, 1962
p481
aVNew Zealand v Australia at Wellington, Aug 25, 1962
p482
aVNew Zealand v Australia at Dunedin, Sep 8, 1962
p483
aVNew Zealand v Australia at Dunedin, Sep 8, 1962
p484
aVAustralia v England at Sydney, Jun 4, 1963
p485
aVAustralia v England at Sydney, Jun 4, 1963
p486
aVAustralia v England at Sydney, Jun 4, 1963
p487
aVAustralia v England at Sydney, Jun 4, 1963
p488
aVSouth Africa v Australia at Pretoria, Jul 13, 1963
p489
aVSouth Africa v Australia at Cape Town, Aug 10, 1963
p490
aVSouth Africa v Australia at Cape Town, Aug 10, 1963
p491
aVSouth Africa v Australia at Cape Town, Aug 10, 1963
p492
aVNew Zealand v Australia at Dunedin, Aug 15, 1964
p493
aVNew Zealand v Australia at Dunedin, Aug 15, 1964
p494
aVNew Zealand v Australia at Christchurch, Aug 22, 1964
p495
aVNew Zealand v Australia at Wellington, Aug 29, 1964
p496
aVAustralia v British and Irish Lions at Sydney, May 28, 1966
p497
aVAustralia v British and Irish Lions at Sydney, May 28, 1966
p498
aVAustralia v British and Irish Lions at Sydney, May 28, 1966
p499
aVAustralia v British and Irish Lions at Brisbane, Jun 4, 1966
p500
aVWales v Australia at Cardiff, Dec 3, 1966
p501
aVWales v Australia at Cardiff, Dec 3, 1966
p502
aVScotland v Australia at Murrayfield, Dec 17, 1966
p503
aVEngland v Australia at Twickenham, Jan 7, 1967
p504
aVAustralia v Ireland at Sydney, May 13, 1967
p505
aVAustralia v Ireland at Sydney, May 13, 1967
p506
aVNew Zealand v Australia at Wellington, Aug 19, 1967
p507
aVNew Zealand v Australia at Wellington, Aug 19, 1967
p508
aVNew Zealand v Australia at Wellington, Aug 19, 1967
p509
aVNew Zealand v Australia at Wellington, Aug 19, 1967
p510
aVNew Zealand v Australia at Wellington, Aug 19, 1967
p511
aVNew Zealand v Australia at Wellington, Aug 19, 1967
p512
aVAustralia v New Zealand at Sydney, Jun 15, 1968
p513
aVAustralia v New Zealand at Sydney, Jun 15, 1968
p514
aVAustralia v New Zealand at Sydney, Jun 15, 1968
p515
aVAustralia v New Zealand at Sydney, Jun 15, 1968
p516
aVAustralia v New Zealand at Sydney, Jun 15, 1968
p517
aVAustralia v New Zealand at Sydney, Jun 15, 1968
p518
aVAustralia v New Zealand at Sydney, Jun 15, 1968
p519
aVAustralia v New Zealand at Sydney, Jun 15, 1968
p520
aVAustralia v New Zealand at Brisbane, Jun 22, 1968
p521
aVAustralia v New Zealand at Brisbane, Jun 22, 1968
p522
aVIreland v Australia at Lansdowne Road, Oct 26, 1968
p523
aVIreland v Australia at Lansdowne Road, Oct 26, 1968
p524
aVScotland v Australia at Murrayfield, Nov 2, 1968
p525
aVAustralia v Wales at Sydney, Jun 21, 1969
p526
aVAustralia v Wales at Sydney, Jun 21, 1969
p527
aVAustralia v Wales at Sydney, Jun 21, 1969
p528
aVSouth Africa v Australia at Johannesburg, Aug 2, 1969
p529
aVSouth Africa v Australia at Johannesburg, Aug 2, 1969
p530
aVSouth Africa v Australia at Johannesburg, Aug 2, 1969
p531
aVSouth Africa v Australia at Durban, Aug 16, 1969
p532
aVSouth Africa v Australia at Durban, Aug 16, 1969
p533
aVSouth Africa v Australia at Bloemfontein, Sep 20, 1969
p534
aVAustralia v Scotland at Sydney, Jun 6, 1970
p535
aVAustralia v South Africa at Sydney, Jul 17, 1971
p536
aVAustralia v South Africa at Sydney, Jul 17, 1971
p537
aVAustralia v South Africa at Sydney, Jul 17, 1971
p538
aVAustralia v South Africa at Sydney, Jul 17, 1971
p539
aVAustralia v South Africa at Sydney, Jul 17, 1971
p540
aVAustralia v South Africa at Brisbane, Jul 31, 1971
p541
aVAustralia v South Africa at Brisbane, Jul 31, 1971
p542
aVAustralia v South Africa at Sydney, Aug 7, 1971
p543
aVAustralia v South Africa at Sydney, Aug 7, 1971
p544
aVAustralia v South Africa at Sydney, Aug 7, 1971
p545
aVFrance v Australia at Toulouse, Nov 20, 1971
p546
aVFrance v Australia at Toulouse, Nov 20, 1971
p547
aVFrance v Australia at Toulouse, Nov 20, 1971
p548
aVAustralia v France at Sydney, Jun 17, 1972
p549
aVAustralia v France at Sydney, Jun 17, 1972
p550
aVAustralia v France at Sydney, Jun 17, 1972
p551
aVAustralia v France at Brisbane, Jun 25, 1972
p552
aVNew Zealand v Australia at Wellington, Aug 19, 1972
p553
aVNew Zealand v Australia at Wellington, Aug 19, 1972
p554
aVNew Zealand v Australia at Wellington, Aug 19, 1972
p555
aVNew Zealand v Australia at Wellington, Aug 19, 1972
p556
aVFiji v Australia at Suva, Sep 19, 1972
p557
aVFiji v Australia at Suva, Sep 19, 1972
p558
aVFiji v Australia at Suva, Sep 19, 1972
p559
aVAustralia v Tonga at Sydney, Jun 23, 1973
p560
aVAustralia v Tonga at Sydney, Jun 23, 1973
p561
aVAustralia v Tonga at Sydney, Jun 23, 1973
p562
aVNew Zealand v France at Auckland, Aug 10, 1968
p563
aVAustralia v Tonga at Brisbane, Jun 30, 1973
p564
aVAustralia v Tonga at Brisbane, Jun 30, 1973
p565
aVWales v Australia at Cardiff, Nov 10, 1973
p566
aVEngland v Australia at Twickenham, Nov 17, 1973
p567
aVEngland v Australia at Twickenham, Nov 17, 1973
p568
aVAustralia v New Zealand at Sydney, May 25, 1974
p569
aVAustralia v New Zealand at Sydney, May 25, 1974
p570
aVAustralia v New Zealand at Sydney, May 25, 1974
p571
aVAustralia v New Zealand at Sydney, May 25, 1974
p572
aVAustralia v New Zealand at Sydney, May 25, 1974
p573
aVAustralia v New Zealand at Sydney, May 25, 1974
p574
aVAustralia v New Zealand at Brisbane, Jun 1, 1974
p575
aVAustralia v England at Sydney, May 24, 1975
p576
aVAustralia v England at Sydney, May 24, 1975
p577
aVAustralia v England at Sydney, May 24, 1975
p578
aVAustralia v England at Sydney, May 24, 1975
p579
aVAustralia v England at Sydney, May 24, 1975
p580
aVAustralia v Japan at Sydney, Aug 2, 1975
p581
aVAustralia v Japan at Sydney, Aug 2, 1975
p582
aVAustralia v Japan at Brisbane, Aug 17, 1975
p583
aVAustralia v Japan at Brisbane, Aug 17, 1975
p584
aVAustralia v Japan at Brisbane, Aug 17, 1975
p585
aVScotland v Australia at Murrayfield, Dec 6, 1975
p586
aVScotland v Australia at Murrayfield, Dec 6, 1975
p587
aVScotland v Australia at Murrayfield, Dec 6, 1975
p588
aVWales v Australia at Cardiff, Dec 20, 1975
p589
aVEngland v Australia at Twickenham, Jan 3, 1976
p590
aVAustralia v Fiji at Brisbane, Jun 19, 1976
p591
aVAustralia v Fiji at Sydney, Jun 26, 1976
p592
aVFrance v Australia at Parc des Princes, Oct 30, 1976
p593
aVAustralia v Wales at Brisbane, Jun 11, 1978
p594
aVAustralia v Wales at Brisbane, Jun 11, 1978
p595
aVAustralia v Wales at Brisbane, Jun 11, 1978
p596
aVNew Zealand v Australia at Wellington, Aug 19, 1978
p597
aVNew Zealand v Australia at Wellington, Aug 19, 1978
p598
aVNew Zealand v Australia at Christchurch, Aug 26, 1978
p599
aVNew Zealand v Australia at Christchurch, Aug 26, 1978
p600
aVNew Zealand v Australia at Auckland, Sep 9, 1978
p601
aVNew Zealand v Australia at Auckland, Sep 9, 1978
p602
aVAustralia v Ireland at Brisbane, Jun 3, 1979
p603
aVAustralia v Ireland at Brisbane, Jun 3, 1979
p604
aVAustralia v Ireland at Sydney, Jun 16, 1979
p605
aVAustralia v New Zealand at Sydney, Jul 28, 1979
p606
aVAustralia v New Zealand at Sydney, Jul 28, 1979
p607
aVArgentina v Australia at Buenos Aires, Oct 27, 1979
p608
aVArgentina v Australia at Buenos Aires, Oct 27, 1979
p609
aVFiji v Australia at Suva, May 24, 1980
p610
aVFiji v Australia at Suva, May 24, 1980
p611
aVFiji v Australia at Suva, May 24, 1980
p612
aVFiji v Australia at Suva, May 24, 1980
p613
aVFiji v Australia at Suva, May 24, 1980
p614
aVFiji v Australia at Suva, May 24, 1980
p615
aVFiji v Australia at Suva, May 24, 1980
p616
aVAustralia v New Zealand at Sydney, Jun 21, 1980
p617
aVAustralia v New Zealand at Sydney, Jun 21, 1980
p618
aVAustralia v New Zealand at Sydney, Jul 12, 1980
p619
aVAustralia v New Zealand at Sydney, Jul 12, 1980
p620
aVWales v Australia at Cardiff, Dec 5, 1981
p621
aVAustralia v Scotland at Brisbane, Jul 4, 1982
p622
aVAustralia v Scotland at Brisbane, Jul 4, 1982
p623
aVNew Zealand v Australia at Christchurch, Aug 14, 1982
p624
aVNew Zealand v Australia at Christchurch, Aug 14, 1982
p625
aVNew Zealand v Australia at Christchurch, Aug 14, 1982
p626
aVNew Zealand v Australia at Christchurch, Aug 14, 1982
p627
aVNew Zealand v Australia at Christchurch, Aug 14, 1982
p628
aVNew Zealand v Australia at Christchurch, Aug 14, 1982
p629
aVNew Zealand v Australia at Wellington, Aug 28, 1982
p630
aVNew Zealand v Australia at Wellington, Aug 28, 1982
p631
aVNew Zealand v Australia at Auckland, Sep 11, 1982
p632
aVAustralia v United States of America at Sydney, Jul 9, 1983
p633
aVAustralia v United States of America at Sydney, Jul 9, 1983
p634
aVAustralia v Argentina at Brisbane, Jul 31, 1983
p635
aVAustralia v Argentina at Brisbane, Jul 31, 1983
p636
aVItaly v Australia at Rovigo, Oct 22, 1983
p637
aVItaly v Australia at Rovigo, Oct 22, 1983
p638
aVFrance v Australia at Clermont-Ferrand, Nov 13, 1983
p639
aVFrance v Australia at Clermont-Ferrand, Nov 13, 1983
p640
aVFiji v Australia at Suva, Jun 9, 1984
p641
aVFiji v Australia at Suva, Jun 9, 1984
p642
aVFiji v Australia at Suva, Jun 9, 1984
p643
aVFiji v Australia at Suva, Jun 9, 1984
p644
aVNew Zealand XV v Argentina at Dunedin, Sep 8, 1979
p645
aVEngland v Australia at Twickenham, Nov 3, 1984
p646
aVEngland v Australia at Twickenham, Nov 3, 1984
p647
aVAustralia v Canada at Sydney, Jun 15, 1985
p648
aVAustralia v Canada at Sydney, Jun 15, 1985
p649
aVAustralia v Canada at Sydney, Jun 15, 1985
p650
aVAustralia v Canada at Sydney, Jun 15, 1985
p651
aVAustralia v Fiji at Brisbane, Aug 10, 1985
p652
aVAustralia v Fiji at Brisbane, Aug 10, 1985
p653
aVAustralia v Fiji at Sydney, Aug 17, 1985
p654
aVAustralia v France at Sydney, Jun 21, 1986
p655
aVAustralia v Argentina at Sydney, Jul 12, 1986
p656
aVNew Zealand v Australia at Wellington, Aug 9, 1986
p657
aVNew Zealand v Australia at Dunedin, Aug 23, 1986
p658
aVNew Zealand v Australia at Auckland, Sep 6, 1986
p659
aVAustralia v Korea at Brisbane, May 17, 1987
p660
aVAustralia v Korea at Brisbane, May 17, 1987
p661
aVAustralia v Korea at Brisbane, May 17, 1987
p662
aVAustralia v England at Sydney, May 23, 1987
p663
aVArgentina v Australia at Buenos Aires, Oct 31, 1987
p664
aVArgentina v Australia at Buenos Aires, Oct 31, 1987
p665
aVArgentina v Australia at Buenos Aires, Nov 7, 1987
p666
aVAustralia v England at Brisbane, May 29, 1988
p667
aVAustralia v England at Brisbane, May 29, 1988
p668
aVAustralia v England at Brisbane, May 29, 1988
p669
aVAustralia v England at Sydney, Jun 12, 1988
p670
aVAustralia v New Zealand at Brisbane, Jul 16, 1988
p671
aVAustralia v New Zealand at Brisbane, Jul 16, 1988
p672
aVEngland v Australia at Twickenham, Nov 5, 1988
p673
aVScotland v Australia at Murrayfield, Nov 19, 1988
p674
aVFiji v Samoa at Suva, Jun 25, 1983
p675
aVScotland v Australia at Murrayfield, Nov 19, 1988
p676
aVAustralia v British and Irish Lions at Sydney, Jul 1, 1989
p677
aVAustralia v British and Irish Lions at Sydney, Jul 1, 1989
p678
aVAustralia v British and Irish Lions at Sydney, Jul 1, 1989
p679
aVNew Zealand v Australia at Auckland, Aug 5, 1989
p680
aVNew Zealand v Australia at Auckland, Aug 5, 1989
p681
aVNew Zealand v Australia at Auckland, Aug 5, 1989
p682
aVFrance v Australia at Strasbourg, Nov 4, 1989
p683
aVFrance v Australia at Strasbourg, Nov 4, 1989
p684
aVFrance v Australia at Strasbourg, Nov 4, 1989
p685
aVFrance v Australia at Strasbourg, Nov 4, 1989
p686
aVFrance v Australia at Strasbourg, Nov 4, 1989
p687
aVAustralia v France at Sydney, Jun 9, 1990
p688
aVAustralia v France at Sydney, Jun 9, 1990
p689
aVAustralia v France at Brisbane, Jun 24, 1990
p690
aVAustralia v France at Brisbane, Jun 24, 1990
p691
aVAustralia v United States of America at Brisbane, Jul 8, 1990
p692
aVAustralia v United States of America at Brisbane, Jul 8, 1990
p693
aVNew Zealand v Australia at Christchurch, Jul 21, 1990
p694
aVAustralia v Wales at Brisbane, Jul 22, 1991
p695
aVAustralia v Wales at Brisbane, Jul 22, 1991
p696
aVAustralia v Wales at Brisbane, Jul 22, 1991
p697
aVArgentina v Australia at Llanelli, Oct 4, 1991
p698
aVAustralia v Scotland at Sydney, Jun 13, 1992
p699
aVAustralia v Scotland at Sydney, Jun 13, 1992
p700
aVAustralia v Scotland at Sydney, Jun 13, 1992
p701
aVAustralia v New Zealand at Sydney, Jul 4, 1992
p702
aVAustralia v New Zealand at Sydney, Jul 4, 1992
p703
aVWales v Australia at Cardiff, Nov 21, 1992
p704
aVAustralia v Tonga at Brisbane, Jul 4, 1993
p705
aVNew Zealand v Australia at Dunedin, Jul 17, 1993
p706
aVAustralia v South Africa at Sydney, Jul 31, 1993
p707
aVAustralia v South Africa at Sydney, Jul 31, 1993
p708
aVAustralia v South Africa at Sydney, Jul 31, 1993
p709
aVJapan v Fiji at Tokyo, Mar 4, 1990
p710
aVAustralia v South Africa at Sydney, Aug 21, 1993
p711
aVFrance v Australia at Bordeaux, Oct 30, 1993
p712
aVFrance v Australia at Bordeaux, Oct 30, 1993
p713
aVAustralia v Ireland at Brisbane, Jun 5, 1994
p714
aVAustralia v Ireland at Brisbane, Jun 5, 1994
p715
aVAustralia v Ireland at Sydney, Jun 11, 1994
p716
aVAustralia v Ireland at Sydney, Jun 11, 1994
p717
aVAustralia v Italy at Brisbane, Jun 18, 1994
p718
aVAustralia v Italy at Brisbane, Jun 18, 1994
p719
aVAustralia v Canada at Port Elizabeth, May 31, 1995
p720
aVAustralia v Canada at Port Elizabeth, May 31, 1995
p721
aVAustralia v Romania at Stellenbosch, Jun 3, 1995
p722
aVNew Zealand v Australia at Auckland, Jul 22, 1995
p723
aVAustralia v Wales at Brisbane, Jun 9, 1996
p724
aVAustralia v Wales at Brisbane, Jun 9, 1996
p725
aVAustralia v Wales at Brisbane, Jun 9, 1996
p726
aVAustralia v Wales at Sydney, Jun 22, 1996
p727
aVAustralia v Wales at Sydney, Jun 22, 1996
p728
aVAustralia v Wales at Sydney, Jun 22, 1996
p729
aVAustralia v Canada at Brisbane, Jun 29, 1996
p730
aVAustralia v Canada at Brisbane, Jun 29, 1996
p731
aVSouth Africa v Australia at Bloemfontein, Aug 3, 1996
p732
aVItaly v Australia at Padova, Oct 23, 1996
p733
aVScotland v Australia at Murrayfield, Nov 9, 1996
p734
aVWales v Australia at Cardiff, Dec 1, 1996
p735
aVAustralia v France at Sydney, Jun 21, 1997
p736
aVAustralia v France at Brisbane, Jun 28, 1997
p737
aVNew Zealand v Australia at Christchurch, Jul 5, 1997
p738
aVAustralia v England at Sydney, Jul 12, 1997
p739
aVNew Zealand v Australia at Dunedin, Aug 16, 1997
p740
aVNew Zealand v Australia at Dunedin, Aug 16, 1997
p741
aVSouth Africa v Australia at Pretoria, Aug 23, 1997
p742
aVEngland v Australia at Twickenham, Nov 15, 1997
p743
aVAustralia v England at Brisbane, Jun 6, 1998
p744
aVAustralia v Scotland at Sydney, Jun 13, 1998
p745
aVAustralia v Scotland at Brisbane, Jun 20, 1998
p746
aVSouth Africa v Australia at Johannesburg, Aug 22, 1998
p747
aVSouth Africa v Australia at Johannesburg, Aug 22, 1998
p748
aVAustralia v Tonga at Canberra, Sep 22, 1998
p749
aVFrance v Australia at Stade de France, Nov 21, 1998
p750
aVParaguay v Argentina at Asuncion, Sep 28, 1991
p751
aVAustralia v Ireland at Brisbane, Jun 12, 1999
p752
aVFrance v South Africa at Lyon, Oct 17, 1992
p753
aVAustralia v Ireland at Brisbane, Jun 12, 1999
p754
aVAustralia v South Africa at Brisbane, Jul 17, 1999
p755
aVAustralia v New Zealand at Sydney, Aug 28, 1999
p756
aVAustralia v United States of America at Limerick, Oct 14, 1999
p757
aVAustralia v United States of America at Limerick, Oct 14, 1999
p758
aVAustralia v Argentina at Brisbane, Jun 17, 2000
p759
aVAustralia v Argentina at Brisbane, Jun 17, 2000
p760
aVAustralia v Argentina at Brisbane, Jun 17, 2000
p761
aVAustralia v Argentina at Brisbane, Jun 17, 2000
p762
aVAustralia v South Africa at Melbourne, Jul 8, 2000
p763
aVAustralia v New Zealand at Sydney, Jul 15, 2000
p764
aVFrance v Australia at Stade de France, Nov 4, 2000
p765
aVFrance v Australia at Stade de France, Nov 4, 2000
p766
aVEngland v Australia at Twickenham, Nov 18, 2000
p767
aVAustralia v British and Irish Lions at Brisbane, Jun 30, 2001
p768
aVAustralia v British and Irish Lions at Brisbane, Jun 30, 2001
p769
aVAustralia v British and Irish Lions at Melbourne, Jul 7, 2001
p770
aVAustralia v British and Irish Lions at Sydney, Jul 14, 2001
p771
aVAustralia v South Africa at Perth, Aug 18, 2001
p772
aVWales v Australia at Millennium Stadium, Nov 25, 2001
p773
aVAustralia v France at Melbourne, Jun 22, 2002
p774
aVAustralia v France at Melbourne, Jun 22, 2002
p775
aVAustralia v France at Melbourne, Jun 22, 2002
p776
aVAustralia v France at Sydney, Jun 29, 2002
p777
aVAustralia v France at Sydney, Jun 29, 2002
p778
aVArgentina v Australia at Buenos Aires, Nov 2, 2002
p779
aVArgentina v Australia at Buenos Aires, Nov 2, 2002
p780
aVEngland v Australia at Twickenham, Nov 16, 2002
p781
aVItaly v Australia at Genova, Nov 23, 2002
p782
aVAustralia v Ireland at Perth, Jun 7, 2003
p783
aVAustralia v Ireland at Perth, Jun 7, 2003
p784
aVAustralia v Wales at Sydney, Jun 14, 2003
p785
aVNew Zealand v Australia at Auckland, Aug 16, 2003
p786
aVAustralia v Namibia at Adelaide, Oct 25, 2003
p787
aVAustralia v Namibia at Adelaide, Oct 25, 2003
p788
aVAustralia v Scotland at Melbourne, Jun 13, 2004
p789
aVAustralia v Scotland at Melbourne, Jun 13, 2004
p790
aVAustralia v England at Brisbane, Jun 26, 2004
p791
aVAustralia v Pacific Islanders at Adelaide, Jul 3, 2004
p792
aVScotland v Australia at Murrayfield, Nov 6, 2004
p793
aVScotland v Australia at Glasgow, Nov 20, 2004
p794
aVAustralia v Samoa at Sydney, Jun 11, 2005
p795
aVAustralia v Samoa at Sydney, Jun 11, 2005
p796
aVAustralia v Samoa at Sydney, Jun 11, 2005
p797
aVAustralia v Italy at Melbourne, Jun 25, 2005
p798
aVAustralia v France at Brisbane, Jul 2, 2005
p799
aVAustralia v South Africa at Sydney, Jul 9, 2005
p800
aVAustralia v South Africa at Perth, Aug 20, 2005
p801
aVNew Zealand v Australia at Auckland, Sep 3, 2005
p802
aVNew Zealand v Australia at Auckland, Sep 3, 2005
p803
aVNew Zealand v Australia at Auckland, Sep 3, 2005
p804
aVFrance v Australia at Marseille, Nov 5, 2005
p805
aVEngland v Australia at Twickenham, Nov 12, 2005
p806
aVEngland v Australia at Twickenham, Nov 12, 2005
p807
aVIreland v Australia at Lansdowne Road, Nov 19, 2005
p808
aVAustralia v England at Sydney, Jun 11, 2006
p809
aVAustralia v England at Sydney, Jun 11, 2006
p810
aVAustralia v England at Sydney, Jun 11, 2006
p811
aVAustralia v England at Sydney, Jun 11, 2006
p812
aVAustralia v England at Melbourne, Jun 17, 2006
p813
aVAustralia v Ireland at Perth, Jun 24, 2006
p814
aVSouth Africa v Australia at Johannesburg, Sep 9, 2006
p815
aVSouth Africa v Australia at Johannesburg, Sep 9, 2006
p816
aVAustralia v Wales at Sydney, May 26, 2007
p817
aVAustralia v Wales at Sydney, May 26, 2007
p818
aVAustralia v Wales at Brisbane, Jun 2, 2007
p819
aVAustralia v Fiji at Perth, Jun 9, 2007
p820
aVAustralia v Japan at Lyon, Sep 8, 2007
p821
aVAustralia v Ireland at Melbourne, Jun 14, 2008
p822
aVAustralia v Ireland at Melbourne, Jun 14, 2008
p823
aVAustralia v Ireland at Melbourne, Jun 14, 2008
p824
aVAustralia v France at Sydney, Jun 28, 2008
p825
aVAustralia v France at Sydney, Jun 28, 2008
p826
aVAustralia v France at Brisbane, Jul 5, 2008
p827
aVAustralia v New Zealand at Sydney, Jul 26, 2008
p828
aVAustralia v New Zealand at Brisbane, Sep 13, 2008
p829
aVAustralia v New Zealand at Hong Kong, Nov 1, 2008
p830
aVItaly v Australia at Padova, Nov 8, 2008
p831
aVItaly v Australia at Padova, Nov 8, 2008
p832
aVItaly v Australia at Padova, Nov 8, 2008
p833
aVAustralia v Italy at Canberra, Jun 13, 2009
p834
aVAustralia v Italy at Melbourne, Jun 20, 2009
p835
aVNew Zealand v Australia at Auckland, Jul 18, 2009
p836
aVWales v Australia at Millennium Stadium, Nov 28, 2009
p837
aVAustralia v Fiji at Canberra, Jun 5, 2010
p838
aVAustralia v Fiji at Canberra, Jun 5, 2010
p839
aVAustralia v Fiji at Canberra, Jun 5, 2010
p840
aVAustralia v Fiji at Canberra, Jun 5, 2010
p841
aVAustralia v Fiji at Canberra, Jun 5, 2010
p842
aVAustralia v England at Perth, Jun 12, 2010
p843
aVAustralia v England at Perth, Jun 12, 2010
p844
aVAustralia v South Africa at Brisbane, Jul 24, 2010
p845
aVAustralia v South Africa at Brisbane, Jul 24, 2010
p846
aVAustralia v New Zealand at Melbourne, Jul 31, 2010
p847
aVItaly v Australia at Firenze, Nov 20, 2010
p848
aVFrance v Australia at Stade de France, Nov 27, 2010
p849
aVAustralia v Samoa at Sydney, Jul 17, 2011
p850
aVAustralia v Samoa at Sydney, Jul 17, 2011
p851
aVAustralia v Samoa at Sydney, Jul 17, 2011
p852
aVAustralia v Samoa at Sydney, Jul 17, 2011
p853
aVWales v Australia at Millennium Stadium, Dec 3, 2011
p854
aVAustralia v Scotland at Newcastle, Jun 5, 2012
p855
aVAustralia v Scotland at Newcastle, Jun 5, 2012
p856
aVAustralia v Scotland at Newcastle, Jun 5, 2012
p857
aVAustralia v Scotland at Newcastle, Jun 5, 2012
p858
aVAustralia v Scotland at Newcastle, Jun 5, 2012
p859
aVAustralia v Scotland at Newcastle, Jun 5, 2012
p860
aVAustralia v Wales at Brisbane, Jun 9, 2012
p861
aVNew Zealand v Australia at Auckland, Aug 25, 2012
p862
aVAustralia v South Africa at Perth, Sep 8, 2012
p863
aVAustralia v Argentina at Gold Coast, Sep 15, 2012
p864
aVArgentina v Australia at Rosario, Oct 6, 2012
p865
aVAustralia v New Zealand at Brisbane, Oct 20, 2012
p866
aVFrance v Australia at Stade de France, Nov 10, 2012
p867
aVAustralia v British and Irish Lions at Brisbane, Jun 22, 2013
p868
aVAustralia v British and Irish Lions at Brisbane, Jun 22, 2013
p869
aVAustralia v British and Irish Lions at Brisbane, Jun 22, 2013
p870
aVAustralia v British and Irish Lions at Sydney, Jul 6, 2013
p871
aVAustralia v New Zealand at Sydney, Aug 17, 2013
p872
aVAustralia v New Zealand at Sydney, Aug 17, 2013
p873
aVAustralia v New Zealand at Sydney, Aug 17, 2013
p874
aVAustralia v New Zealand at Sydney, Aug 17, 2013
p875
aVAustralia v New Zealand at Sydney, Aug 17, 2013
p876
aVSouth Africa v Australia at Cape Town, Sep 28, 2013
p877
aVArgentina v Australia at Rosario, Oct 5, 2013
p878
aVNew Zealand v Australia at Dunedin, Oct 19, 2013
p879
aVAustralia v France at Brisbane, Jun 7, 2014
p880
aVAustralia v France at Melbourne, Jun 14, 2014
p881
aVAustralia v France at Melbourne, Jun 14, 2014
p882
aVAustralia v France at Melbourne, Jun 14, 2014
p883
aVAustralia v France at Sydney, Jun 21, 2014
p884
aVArgentina v Australia at Mendoza, Oct 4, 2014
p885
aVArgentina v Australia at Mendoza, Oct 4, 2014
p886
aVWales v Australia at Millennium Stadium, Nov 8, 2014
p887
aVWales v Australia at Millennium Stadium, Nov 8, 2014
p888
aVIreland v Australia at Lansdowne Road, Nov 22, 2014
p889
aVUnited States of America v Australia at Chicago, Sep 5, 2015
p890
aVUnited States of America v Australia at Chicago, Sep 5, 2015
p891
a.