(lp1
S'Paddy Carew'
p2
aS'James Carson'
p3
aS'Ginger Colton'
p4
aS'Walter Davis'
p5
aS'Charlie Ellis'
p6
aS'Poley Evans'
p7
aS'Austin Gralton'
p8
aS'Alex Kelly'
p9
aS'Bob McCowan'
p10
aS'Hyam Marks'
p11
aS'Frank Row'
p12
aS'Lonnie Spragg'
p13
aS'Dooee Tanner'
p14
aS'Peter Ward'
p15
aS'Charlie White'
p16
aS'Robert Challoner'
p17
aS'Arthur Corfe'
p18
aS'Ernest Currie'
p19
aS'Charles Graham'
p20
aS'Alec Henry'
p21
aS'Norm Street'
p22
aS'Tom Ward'
p23
aS'Roger Barton'
p24
aS'Sime Boland'
p25
aS'George Bouffler'
p26
aS'Arch Boyd'
p27
aS'Wally Cobb'
p28
aS'Syd Miller'
p29
aS"Iggy O'Donnell"
p30
aS'Bill Webb'
p31
aS'Bill Hardcastle'
p32
aS"Jack O'Donnell"
p33
aS'Jum Sampson'
p34
aS'Alec Burdon'
p35
aS'Lew Evans'
p36
aS'James Joyce'
p37
aS'Harold Judd'
p38
aS'Ted Larkin'
p39
aS'Dinny Lutge'
p40
aS'Johnny Maund'
p41
aS'Frank Nicholson'
p42
aS'Charlie Redwood'
p43
aS'Sid Riley'
p44
aS'Stan Wickham'
p45
aS'Snowy Baker'
p46
aS'Puddin Colton'
p47
aS'Eddie Dore'
p48
aS'Jack Hindmarsh'
p49
aS'Billy Richards'
p50
aS'Jack Verge'
p51
aS'Patrick Walsh'
p52
aS'Phil Carmichael'
p53
aS'Alex McKinnon'
p54
aS'Douglas McLean'
p55
aS'John Manning'
p56
aS'Voy Oxenham'
p57
aS'Allen Oxlade'
p58
aS'Blue Dixon'
p59
aS'Francis Finley'
p60
aS'Frank Futter'
p61
aS'Jack Meibusch'
p62
aS'Fred Nicholson'
p63
aS'Jim White'
p64
aS'George Anlezark'
p65
aS'Jimmy Clarken'
p66
aS'Mickey Dore'
p67
aS'Bill Hirschberg'
p68
aS'Ben Lucas'
p69
aS'Arthur Penman'
p70
aS'Bede Smith'
p71
aS'Mac Smith'
p72
aS'Blair Swannell'
p73
aS'Jack "Bowser" Barnett'
p74
aS'Peter Burge'
p75
aS'Bill Dix'
p76
aS'Peter Flanagan'
p77
aS'Tom Griffin'
p78
aS'James Hughes'
p79
aS'Paddy McCue'
p80
aS'Chris McKivat'
p81
aS'Johnny Rosewell'
p82
aS'Norm Row'
p83
aS'Charles Russell'
p84
aS'George Watson'
p85
aS'Fred Wood'
p86
aS'Bob Graves'
p87
aS'William Canniffe'
p88
aS'Jack Fihelly'
p89
aS'Edward Mandible'
p90
aS'Dally Messenger'
p91
aS'Esmond Parkinson'
p92
aS'Son Burge'
p93
aS'Danny Carroll'
p94
aS'Bob Craig'
p95
aS'Charles Hammand'
p96
aS'Jack Hickey'
p97
aS'Paddy Moran'
p98
aS'Ward Prentice'
p99
aS'Rusty Richards'
p100
aS'Ken Gavin'
p101
aS'Mannie McArthur'
p102
aS'Arthur McCabe'
p103
aS'Syd Middleton'
p104
aS'Dinny Campbell'
p105
aS'Alf Dunbar'
p106
aS'Larry Dwyer'
p107
aS'Brickey Farmer'
p108
aS'Harald George'
p109
aS'Herb Gilbert'
p110
aS'Charlie Hodgens'
p111
aS'Pat Murphy'
p112
aS'Frederick Timbury'
p113
aS'Bob Stuart'
p114
aS'Leo Reynolds'
p115
aS'Joe Slater'
p116
aS'Bob Adamson'
p117
aS'Ted Fahey'
p118
aS'Copper Kent'
p119
aS'Lou Meibusch'
p120
aS'William Murphy'
p121
aS'George Pugh'
p122
aS'Alfred Walker'
p123
aS'Bill Watson'
p124
aS'Ernie Carr'
p125
aS'Bill Cody'
p126
aS'Hebert Jones'
p127
aS'Michael McMahon'
p128
aS"Claud O'Donnell"
p129
aS'Dudley Suttor'
p130
aS'Bill Tasker'
p131
aS'Fred Thompson'
p132
aS'Clarrie Wallach'
p133
aS'Larry Wogan'
p134
aS'Sandy Horodan'
p135
aS'Bryan Hughes'
p136
aS'Richard Simpson'
p137
aS'David Williams'
p138
aS'Harald Baker'
p139
aS'Jimmy Flynn'
p140
aS'Eric Francis'
p141
aS'John Thompson'
p142
aS'Clinker Birt'
p143
aS'Samuel Kreutzer'
p144
aS'William Morrissey'
p145
aS'Jackie Beith'
p146
aS'Montague Massy-Westropp'
p147
aS'Clarrie Prentice'
p148
aS'John Bond'
p149
aS'Roy Chambers'
p150
aS'Tom Davis'
p151
aS'Viv Dunn'
p152
aS'Ray Elliott'
p153
aS'Charlie Fox'
p154
aS'Tommy Lawton'
p155
aS'Bob Marrott'
p156
aS'Arthur Mayne'
p157
aS'Irving Ormiston'
p158
aS'Roland Raymond'
p159
aS'Clive Farquhar'
p160
aS'George McKay'
p161
aS'Geoffrey Wyld'
p162
aS'Watty Friend'
p163
aS'Onslow Humphreys'
p164
aS'Norm Mingay'
p165
aS'Jackie Shute'
p166
aS'Slip Carr'
p167
aS'Duncan Fowles'
p168
aS'John Holdsworth'
p169
aS'Reg Lane'
p170
aS'Otto Nothling'
p171
aS'Billy Sheehan'
p172
aS'Tom Smith'
p173
aS'Joe Thorn'
p174
aS'Derby Loudon'
p175
aS'Bot Stanley'
p176
aS'Johnny Wallace'
p177
aS'Jock Blackwood'
p178
aS'John Taylor'
p179
aS'Charlie Thompson'
p180
aS'Roy Cooney'
p181
aS'Reg Ferguson'
p182
aS'Henry Pigott'
p183
aS'Jack Bonner'
p184
aS'Larry Newman'
p185
aS'Ted Thorn'
p186
aS'Bill Marrott'
p187
aS'Norm Smith'
p188
aS'Bill Douglas'
p189
aS'Arthur Erby'
p190
aS'Gregor George'
p191
aS'John Pym'
p192
aS'Harry Tancred'
p193
aS'Owen Crossman'
p194
aS'Allen Bowers'
p195
aS'Peter Buchanan'
p196
aS'Ted Greatorex'
p197
aS'Alexander Armstrong'
p198
aS'Danie Erasmus'
p199
aS'Hugh Taylor'
p200
aS'Hugh Buntine'
p201
aS'Bob Loudon'
p202
aS'John Crakanthorp'
p203
aS'Wally Meagher'
p204
aS'Roy Hoskins'
p205
aS'Ernie Ritchie'
p206
aS'Jim Foote'
p207
aS'Robert Anderson'
p208
aS'Harry Bryant'
p209
aS'John Hill'
p210
aS'Alf Rainbow'
p211
aS'Alec Ross'
p212
aS'Arthur Toby'
p213
aS'Patrick Mulligan'
p214
aS'Clive Bondfield'
p215
aS'Bill Laycock'
p216
aS'Charles Morrissey'
p217
aS'Ernie Reid'
p218
aS'Wal Rigney'
p219
aS'Colin Shaw'
p220
aS'Harold Snell'
p221
aS'Ken Tarleton'
p222
aS'Wylie Breckenridge'
p223
aS'Arthur Jamieson'
p224
aS'Jack Ford'
p225
aS'Bruce Judd'
p226
aS'Harry Woods'
p227
aS'Huck Finlay'
p228
aS'Wal Ives'
p229
aS'Syd King'
p230
aS'Cyril Towers'
p231
aS'Jim Tancred'
p232
aS'Don Telford'
p233
aS'Ray Bowden'
p234
aS'Ian Comrie-Thomson'
p235
aS'Jack Duncan'
p236
aS'George Mackay'
p237
aS'Stuart McLaren'
p238
aS'Geoff Storey'
p239
aS'Merv Rylance'
p240
aS'Eric Ford'
p241
aS'Arnold Tancred'
p242
aS'Sid Malcolm'
p243
aS'Malcolm Blair'
p244
aS'Ric Bardsley'
p245
aS'Robert Burge'
p246
aS'Bill Cerutti'
p247
aS'Mac Lamb'
p248
aS"Jack O'Connor"
p249
aS"John O'Donnell"
p250
aS'Myer Rosenblum'
p251
aS'Alf Smairl'
p252
aS'Bob Westfield'
p253
aS'Bill White'
p254
aS'Bill Hemingway'
p255
aS'Allen Munsie'
p256
aS'Walter Phipps'
p257
aS'Geoff Bland'
p258
aS'Bruce Caldwell'
p259
aS'Donald Bull'
p260
aS'Bernard Croft'
p261
aS'Edward Bonis'
p262
aS'Cam Gordon'
p263
aS'Harry Hamalainen'
p264
aS'Len Palfreyman'
p265
aS'Eddie Thompson'
p266
aS'Alan Thorpe'
p267
aS'Gordon McGhie'
p268
aS'Gordon Sturtridge'
p269
aS'Walter Bennett'
p270
aS'Owen Bridle'
p271
aS'Jim Clark'
p272
aS'Harold Herd'
p273
aS'Tom Perrin'
p274
aS'Jack Steggall'
p275
aS'Harold Tolhurst'
p276
aS'Max White'
p277
aS'Dave Cowper'
p278
aS'Kiwi Cooke'
p279
aS'Dinny Love'
p280
aS'Weary Dunlop'
p281
aS'Roy Lindsay'
p282
aS'Ron Biilmann'
p283
aS'Jack Kelaher'
p284
aS'Wal Mackney'
p285
aS'Doug McLean'
p286
aS'Bill White'
p287
aS'Aub Hodgson'
p288
aS'Vincent Bermingham'
p289
aS'Dooney Hayes'
p290
aS'Ted Jessep'
p291
aS'Wally Lewis'
p292
aS'Ron Walden'
p293
aS'Mike Gibbons'
p294
aS'Frank Hutchinson'
p295
aS'Russell Kelly'
p296
aS'Bill McLaughlin'
p297
aS'Stake Malone'
p298
aS'Thomas Pauling'
p299
aS'Ron Rankin'
p300
aS'Vic Richards'
p301
aS'Keith Storey'
p302
aS'Roo Dorr'
p303
aS'Mac Ramsay'
p304
aS'Eric Hutchinson'
p305
aS'Jan McShane'
p306
aS'Vayro Wilson'
p307
aS'Keith Windon'
p308
aS'Paul Collins'
p309
aS'Bill Hammon'
p310
aS"Frank O'Brien"
p311
aS'Alby Stone'
p312
aS'Max Carpenter'
p313
aS'John Howard'
p314
aS'Frederick Kerr'
p315
aS'Boyd Oxlade'
p316
aS'Gordon Stone'
p317
aS'Winston Ide'
p318
aS'Haggis Lang'
p319
aS'Cracker McDonald'
p320
aS'Bill Monti'
p321
aS'Cec Ramalli'
p322
aS'Mick Clifford'
p323
aS'Trevor Allan'
p324
aS'Arthur Buchan'
p325
aS'Mick Cremin'
p326
aS'Wal Dawson'
p327
aS'Charlie Eastes'
p328
aS'Phil Hardcastle'
p329
aS'Paul Johnson'
p330
aS'Alan Livermore'
p331
aS'John MacBride'
p332
aS'Bill McLean'
p333
aS'Bob McMaster'
p334
aS'Brian Piper'
p335
aS'Bernard Schulte'
p336
aS'Eric Tweedale'
p337
aS'Col Windon'
p338
aS'Ernie Freeman'
p339
aS'Max Howell'
p340
aS'Des Bannon'
p341
aS'Don Furness'
p342
aS'Bruce Hamilton'
p343
aS'James Stone'
p344
aS'Cyril Burke'
p345
aS'Roger Cornforth'
p346
aS'Ken Kearney'
p347
aS'Doug Keller'
p348
aS'Alan Walker'
p349
aS'Thomas Bourke'
p350
aS'Neville Emery'
p351
aS'Joe Kraefft'
p352
aS'Nick Shehadie'
p353
aS'Clem Windsor'
p354
aS'Eric Davis'
p355
aS'Arthur Tonkin'
p356
aS'Jack Baxter'
p357
aS'Jack Blomley'
p358
aS'Eddie Broad'
p359
aS'Roy Cawsey'
p360
aS'Nev Cottrell'
p361
aS'Keith Cross'
p362
aS'Patrick Harvey'
p363
aS'Jack Marshall'
p364
aS'Dave Brockhoff'
p365
aS'John Fogarty'
p366
aS'John Solomon'
p367
aS'Clarrie Davis'
p368
aS'Ralph Garner'
p369
aS'Rex Mossop'
p370
aS'Bevan Wilson'
p371
aS'Bill Gardner'
p372
aS'Keith Gordon'
p373
aS'Nigger Hills'
p374
aS'Fabe McCarthy'
p375
aS'Donald MacMillan'
p376
aS'Peter Thompson'
p377
aS'Paul Costello'
p378
aS'Alan Cameron'
p379
aS'Keith Gudsell'
p380
aS'Conrad Primmer'
p381
aS'Peter Rothwell'
p382
aS'Eddie Stapleton'
p383
aS'Dick Tooth'
p384
aS'Arch Winning'
p385
aS'Tiny Betts'
p386
aS'Murray Tate'
p387
aS'Herb Barker'
p388
aS'Brian Cox'
p389
aS'Bob Davidson'
p390
aS'Lou Hatherall'
p391
aS'Brian Johnson'
p392
aS'Garth Jones'
p393
aS'Tony Miller'
p394
aS'Ray Colbert'
p395
aS"John O'Neill"
p396
aS'John Bosler'
p397
aS'Jack Carroll'
p398
aS'Mac Hughes'
p399
aS'James Phipps'
p400
aS'Thomas Sweeney'
p401
aS'Jim Walsh'
p402
aS'Spencer Brown'
p403
aS'Colin Forbes'
p404
aS'Vince Heinrich'
p405
aS'Paul Mooney'
p406
aS'John Pashley'
p407
aS'Gavan Horsley'
p408
aS'Neil Adams'
p409
aS'James Cross'
p410
aS'John Thornett'
p411
aS'Gordon Davis'
p412
aS'Rod Phelps'
p413
aS'Don Strachan'
p414
aS'Jim Brown'
p415
aS'Ainslie Sheil'
p416
aS'Saxon White'
p417
aS'Barry Roberts'
p418
aS'Terry Curley'
p419
aS'Ken Donald'
p420
aS'Max Elliott'
p421
aS'Peter Fenwicke'
p422
aS'Alan Morton'
p423
aS'Jack Potts'
p424
aS'Chilla Wilson'
p425
aS'David Emanuel'
p426
aS'Brian Ford'
p427
aS'Bill Gunther'
p428
aS'Neill Latimer'
p429
aS'Desmond Connor'
p430
aS'Jim Lenehan'
p431
aS'Arthur Summons'
p432
aS'Kevin Ryan'
p433
aS'Geoff Vaughan'
p434
aS'Ted Purkiss'
p435
aS'Tony Fox'
p436
aS'Ron Harvey'
p437
aS'Ken Yanz'
p438
aS'Alistar Boyd'
p439
aS'Don Logan'
p440
aS'Ronald Meadows'
p441
aS'Bruce Wells'
p442
aS'Jack Carroll'
p443
aS'Peter James'
p444
aS'Kerry Larkin'
p445
aS'Peter Dunn'
p446
aS'Keith Ellis'
p447
aS'Beres Ellwood'
p448
aS'Don Lowth'
p449
aS'Jon White'
p450
aS'Danny Kay'
p451
aS'Thomas Baxter'
p452
aS'Len Diett'
p453
a.