(lp1
S'http://www.espnscrum.com/australia/rugby/player/1347.html'
p2
aS'http://www.espnscrum.com/australia/rugby/player/1348.html'
p3
aS'http://www.espnscrum.com/australia/rugby/player/1349.html'
p4
aS'http://www.espnscrum.com/australia/rugby/player/1351.html'
p5
aS'http://www.espnscrum.com/australia/rugby/player/1352.html'
p6
aS'http://www.espnscrum.com/australia/rugby/player/1353.html'
p7
aS'http://www.espnscrum.com/australia/rugby/player/1356.html'
p8
aS'http://www.espnscrum.com/australia/rugby/player/1359.html'
p9
aS'http://www.espnscrum.com/australia/rugby/player/1360.html'
p10
aS'http://www.espnscrum.com/australia/rugby/player/1361.html'
p11
aS'http://www.espnscrum.com/australia/rugby/player/1363.html'
p12
aS'http://www.espnscrum.com/australia/rugby/player/1365.html'
p13
aS'http://www.espnscrum.com/australia/rugby/player/1366.html'
p14
aS'http://www.espnscrum.com/australia/rugby/player/1367.html'
p15
aS'http://www.espnscrum.com/australia/rugby/player/1368.html'
p16
aS'http://www.espnscrum.com/australia/rugby/player/1370.html'
p17
aS'http://www.espnscrum.com/australia/rugby/player/1371.html'
p18
aS'http://www.espnscrum.com/australia/rugby/player/1372.html'
p19
aS'http://www.espnscrum.com/australia/rugby/player/1374.html'
p20
aS'http://www.espnscrum.com/australia/rugby/player/1375.html'
p21
aS'http://www.espnscrum.com/australia/rugby/player/1377.html'
p22
aS'http://www.espnscrum.com/australia/rugby/player/1380.html'
p23
aS'http://www.espnscrum.com/australia/rugby/player/1381.html'
p24
aS'http://www.espnscrum.com/australia/rugby/player/1382.html'
p25
aS'http://www.espnscrum.com/australia/rugby/player/1383.html'
p26
aS'http://www.espnscrum.com/australia/rugby/player/1384.html'
p27
aS'http://www.espnscrum.com/australia/rugby/player/1385.html'
p28
aS'http://www.espnscrum.com/australia/rugby/player/1387.html'
p29
aS'http://www.espnscrum.com/australia/rugby/player/1389.html'
p30
aS'http://www.espnscrum.com/australia/rugby/player/1390.html'
p31
aS'http://www.espnscrum.com/australia/rugby/player/1391.html'
p32
aS'http://www.espnscrum.com/australia/rugby/player/1392.html'
p33
aS'http://www.espnscrum.com/australia/rugby/player/1393.html'
p34
aS'http://www.espnscrum.com/australia/rugby/player/1554.html'
p35
aS'http://www.espnscrum.com/australia/rugby/player/1557.html'
p36
aS'http://www.espnscrum.com/australia/rugby/player/1560.html'
p37
aS'http://www.espnscrum.com/australia/rugby/player/1561.html'
p38
aS'http://www.espnscrum.com/australia/rugby/player/1563.html'
p39
aS'http://www.espnscrum.com/australia/rugby/player/1565.html'
p40
aS'http://www.espnscrum.com/australia/rugby/player/1569.html'
p41
aS'http://www.espnscrum.com/australia/rugby/player/1570.html'
p42
aS'http://www.espnscrum.com/australia/rugby/player/1572.html'
p43
aS'http://www.espnscrum.com/australia/rugby/player/1573.html'
p44
aS'http://www.espnscrum.com/australia/rugby/player/1578.html'
p45
aS'http://www.espnscrum.com/australia/rugby/player/1649.html'
p46
aS'http://www.espnscrum.com/australia/rugby/player/1651.html'
p47
aS'http://www.espnscrum.com/australia/rugby/player/1653.html'
p48
aS'http://www.espnscrum.com/australia/rugby/player/1654.html'
p49
aS'http://www.espnscrum.com/australia/rugby/player/1657.html'
p50
aS'http://www.espnscrum.com/australia/rugby/player/1661.html'
p51
aS'http://www.espnscrum.com/australia/rugby/player/1662.html'
p52
aS'http://www.espnscrum.com/australia/rugby/player/1663.html'
p53
aS'http://www.espnscrum.com/australia/rugby/player/1665.html'
p54
aS'http://www.espnscrum.com/australia/rugby/player/1666.html'
p55
aS'http://www.espnscrum.com/australia/rugby/player/1667.html'
p56
aS'http://www.espnscrum.com/australia/rugby/player/1668.html'
p57
aS'http://www.espnscrum.com/australia/rugby/player/1669.html'
p58
aS'http://www.espnscrum.com/australia/rugby/player/1671.html'
p59
aS'http://www.espnscrum.com/australia/rugby/player/1672.html'
p60
aS'http://www.espnscrum.com/australia/rugby/player/1673.html'
p61
aS'http://www.espnscrum.com/australia/rugby/player/1675.html'
p62
aS'http://www.espnscrum.com/australia/rugby/player/1676.html'
p63
aS'http://www.espnscrum.com/australia/rugby/player/1677.html'
p64
aS'http://www.espnscrum.com/australia/rugby/player/1715.html'
p65
aS'http://www.espnscrum.com/australia/rugby/player/1718.html'
p66
aS'http://www.espnscrum.com/australia/rugby/player/1720.html'
p67
aS'http://www.espnscrum.com/australia/rugby/player/1723.html'
p68
aS'http://www.espnscrum.com/australia/rugby/player/1724.html'
p69
aS'http://www.espnscrum.com/australia/rugby/player/1726.html'
p70
aS'http://www.espnscrum.com/australia/rugby/player/1729.html'
p71
aS'http://www.espnscrum.com/australia/rugby/player/1730.html'
p72
aS'http://www.espnscrum.com/australia/rugby/player/1378.html'
p73
aS'http://www.espnscrum.com/australia/rugby/player/1894.html'
p74
aS'http://www.espnscrum.com/australia/rugby/player/1896.html'
p75
aS'http://www.espnscrum.com/australia/rugby/player/1898.html'
p76
aS'http://www.espnscrum.com/australia/rugby/player/1899.html'
p77
aS'http://www.espnscrum.com/australia/rugby/player/1902.html'
p78
aS'http://www.espnscrum.com/australia/rugby/player/1904.html'
p79
aS'http://www.espnscrum.com/australia/rugby/player/1906.html'
p80
aS'http://www.espnscrum.com/australia/rugby/player/1907.html'
p81
aS'http://www.espnscrum.com/australia/rugby/player/1909.html'
p82
aS'http://www.espnscrum.com/australia/rugby/player/1910.html'
p83
aS'http://www.espnscrum.com/australia/rugby/player/1911.html'
p84
aS'http://www.espnscrum.com/australia/rugby/player/1912.html'
p85
aS'http://www.espnscrum.com/australia/rugby/player/1913.html'
p86
aS'http://www.espnscrum.com/australia/rugby/player/1901.html'
p87
aS'http://www.espnscrum.com/australia/rugby/player/1914.html'
p88
aS'http://www.espnscrum.com/australia/rugby/player/1916.html'
p89
aS'http://www.espnscrum.com/australia/rugby/player/1917.html'
p90
aS'http://www.espnscrum.com/australia/rugby/player/1918.html'
p91
aS'http://www.espnscrum.com/australia/rugby/player/1919.html'
p92
aS'http://www.espnscrum.com/australia/rugby/player/1920.html'
p93
aS'http://www.espnscrum.com/australia/rugby/player/1987.html'
p94
aS'http://www.espnscrum.com/australia/rugby/player/1988.html'
p95
aS'http://www.espnscrum.com/australia/rugby/player/1989.html'
p96
aS'http://www.espnscrum.com/australia/rugby/player/1990.html'
p97
aS'http://www.espnscrum.com/australia/rugby/player/1992.html'
p98
aS'http://www.espnscrum.com/australia/rugby/player/1994.html'
p99
aS'http://www.espnscrum.com/australia/rugby/player/1995.html'
p100
aS'http://www.espnscrum.com/australia/rugby/player/2002.html'
p101
aS'http://www.espnscrum.com/australia/rugby/player/2004.html'
p102
aS'http://www.espnscrum.com/australia/rugby/player/2005.html'
p103
aS'http://www.espnscrum.com/australia/rugby/player/2006.html'
p104
aS'http://www.espnscrum.com/australia/rugby/player/2145.html'
p105
aS'http://www.espnscrum.com/australia/rugby/player/2146.html'
p106
aS'http://www.espnscrum.com/australia/rugby/player/2147.html'
p107
aS'http://www.espnscrum.com/australia/rugby/player/2148.html'
p108
aS'http://www.espnscrum.com/australia/rugby/player/2150.html'
p109
aS'http://www.espnscrum.com/australia/rugby/player/2151.html'
p110
aS'http://www.espnscrum.com/australia/rugby/player/2152.html'
p111
aS'http://www.espnscrum.com/australia/rugby/player/2155.html'
p112
aS'http://www.espnscrum.com/australia/rugby/player/2160.html'
p113
aS'http://www.espnscrum.com/australia/rugby/player/2166.html'
p114
aS'http://www.espnscrum.com/australia/rugby/player/2164.html'
p115
aS'http://www.espnscrum.com/australia/rugby/player/2167.html'
p116
aS'http://www.espnscrum.com/australia/rugby/player/2297.html'
p117
aS'http://www.espnscrum.com/australia/rugby/player/2302.html'
p118
aS'http://www.espnscrum.com/australia/rugby/player/2305.html'
p119
aS'http://www.espnscrum.com/australia/rugby/player/2308.html'
p120
aS'http://www.espnscrum.com/australia/rugby/player/2311.html'
p121
aS'http://www.espnscrum.com/australia/rugby/player/2314.html'
p122
aS'http://www.espnscrum.com/australia/rugby/player/2319.html'
p123
aS'http://www.espnscrum.com/australia/rugby/player/2320.html'
p124
aS'http://www.espnscrum.com/australia/rugby/player/2403.html'
p125
aS'http://www.espnscrum.com/australia/rugby/player/2404.html'
p126
aS'http://www.espnscrum.com/australia/rugby/player/2408.html'
p127
aS'http://www.espnscrum.com/australia/rugby/player/2412.html'
p128
aS'http://www.espnscrum.com/australia/rugby/player/2414.html'
p129
aS'http://www.espnscrum.com/australia/rugby/player/2418.html'
p130
aS'http://www.espnscrum.com/australia/rugby/player/2419.html'
p131
aS'http://www.espnscrum.com/australia/rugby/player/2421.html'
p132
aS'http://www.espnscrum.com/australia/rugby/player/2422.html'
p133
aS'http://www.espnscrum.com/australia/rugby/player/2424.html'
p134
aS'http://www.espnscrum.com/australia/rugby/player/2435.html'
p135
aS'http://www.espnscrum.com/australia/rugby/player/2436.html'
p136
aS'http://www.espnscrum.com/australia/rugby/player/2439.html'
p137
aS'http://www.espnscrum.com/australia/rugby/player/2446.html'
p138
aS'http://www.espnscrum.com/australia/rugby/player/2512.html'
p139
aS'http://www.espnscrum.com/australia/rugby/player/2515.html'
p140
aS'http://www.espnscrum.com/australia/rugby/player/2516.html'
p141
aS'http://www.espnscrum.com/australia/rugby/player/2520.html'
p142
aS'http://www.espnscrum.com/australia/rugby/player/2521.html'
p143
aS'http://www.espnscrum.com/australia/rugby/player/2523.html'
p144
aS'http://www.espnscrum.com/australia/rugby/player/2524.html'
p145
aS'http://www.espnscrum.com/australia/rugby/player/2525.html'
p146
aS'http://www.espnscrum.com/australia/rugby/player/2527.html'
p147
aS'http://www.espnscrum.com/australia/rugby/player/2528.html'
p148
aS'http://www.espnscrum.com/australia/rugby/player/2670.html'
p149
aS'http://www.espnscrum.com/australia/rugby/player/2673.html'
p150
aS'http://www.espnscrum.com/australia/rugby/player/2674.html'
p151
aS'http://www.espnscrum.com/australia/rugby/player/2677.html'
p152
aS'http://www.espnscrum.com/australia/rugby/player/2678.html'
p153
aS'http://www.espnscrum.com/australia/rugby/player/2679.html'
p154
aS'http://www.espnscrum.com/australia/rugby/player/2681.html'
p155
aS'http://www.espnscrum.com/australia/rugby/player/2682.html'
p156
aS'http://www.espnscrum.com/australia/rugby/player/2683.html'
p157
aS'http://www.espnscrum.com/australia/rugby/player/2684.html'
p158
aS'http://www.espnscrum.com/australia/rugby/player/2685.html'
p159
aS'http://www.espnscrum.com/australia/rugby/player/2689.html'
p160
aS'http://www.espnscrum.com/australia/rugby/player/2690.html'
p161
aS'http://www.espnscrum.com/australia/rugby/player/2693.html'
p162
aS'http://www.espnscrum.com/australia/rugby/player/2694.html'
p163
aS'http://www.espnscrum.com/australia/rugby/player/2695.html'
p164
aS'http://www.espnscrum.com/australia/rugby/player/2696.html'
p165
aS'http://www.espnscrum.com/australia/rugby/player/2698.html'
p166
aS'http://www.espnscrum.com/australia/rugby/player/2785.html'
p167
aS'http://www.espnscrum.com/australia/rugby/player/2788.html'
p168
aS'http://www.espnscrum.com/australia/rugby/player/2789.html'
p169
aS'http://www.espnscrum.com/australia/rugby/player/2791.html'
p170
aS'http://www.espnscrum.com/australia/rugby/player/2797.html'
p171
aS'http://www.espnscrum.com/australia/rugby/player/2800.html'
p172
aS'http://www.espnscrum.com/australia/rugby/player/2801.html'
p173
aS'http://www.espnscrum.com/australia/rugby/player/2802.html'
p174
aS'http://www.espnscrum.com/australia/rugby/player/2834.html'
p175
aS'http://www.espnscrum.com/australia/rugby/player/2840.html'
p176
aS'http://www.espnscrum.com/australia/rugby/player/2842.html'
p177
aS'http://www.espnscrum.com/australia/rugby/player/2900.html'
p178
aS'http://www.espnscrum.com/australia/rugby/player/2914.html'
p179
aS'http://www.espnscrum.com/australia/rugby/player/2915.html'
p180
aS'http://www.espnscrum.com/australia/rugby/player/2917.html'
p181
aS'http://www.espnscrum.com/australia/rugby/player/2924.html'
p182
aS'http://www.espnscrum.com/australia/rugby/player/2925.html'
p183
aS'http://www.espnscrum.com/australia/rugby/player/2928.html'
p184
aS'http://www.espnscrum.com/australia/rugby/player/2934.html'
p185
aS'http://www.espnscrum.com/australia/rugby/player/2935.html'
p186
aS'http://www.espnscrum.com/australia/rugby/player/2937.html'
p187
aS'http://www.espnscrum.com/australia/rugby/player/2938.html'
p188
aS'http://www.espnscrum.com/australia/rugby/player/2940.html'
p189
aS'http://www.espnscrum.com/australia/rugby/player/2995.html'
p190
aS'http://www.espnscrum.com/australia/rugby/player/2997.html'
p191
aS'http://www.espnscrum.com/australia/rugby/player/3003.html'
p192
aS'http://www.espnscrum.com/australia/rugby/player/3005.html'
p193
aS'http://www.espnscrum.com/australia/rugby/player/2994.html'
p194
aS'http://www.espnscrum.com/australia/rugby/player/3008.html'
p195
aS'http://www.espnscrum.com/australia/rugby/player/3013.html'
p196
aS'http://www.espnscrum.com/australia/rugby/player/3014.html'
p197
aS'http://www.espnscrum.com/australia/rugby/player/3015.html'
p198
aS'http://www.espnscrum.com/australia/rugby/player/3017.html'
p199
aS'http://www.espnscrum.com/australia/rugby/player/3023.html'
p200
aS'http://www.espnscrum.com/australia/rugby/player/3139.html'
p201
aS'http://www.espnscrum.com/australia/rugby/player/3018.html'
p202
aS'http://www.espnscrum.com/australia/rugby/player/3031.html'
p203
aS'http://www.espnscrum.com/australia/rugby/player/3035.html'
p204
aS'http://www.espnscrum.com/australia/rugby/player/3135.html'
p205
aS'http://www.espnscrum.com/australia/rugby/player/3138.html'
p206
aS'http://www.espnscrum.com/australia/rugby/player/3141.html'
p207
aS'http://www.espnscrum.com/australia/rugby/player/3246.html'
p208
aS'http://www.espnscrum.com/australia/rugby/player/3248.html'
p209
aS'http://www.espnscrum.com/australia/rugby/player/3253.html'
p210
aS'http://www.espnscrum.com/australia/rugby/player/3260.html'
p211
aS'http://www.espnscrum.com/australia/rugby/player/3261.html'
p212
aS'http://www.espnscrum.com/australia/rugby/player/3143.html'
p213
aS'http://www.espnscrum.com/australia/rugby/player/3259.html'
p214
aS'http://www.espnscrum.com/australia/rugby/player/3264.html'
p215
aS'http://www.espnscrum.com/australia/rugby/player/3268.html'
p216
aS'http://www.espnscrum.com/australia/rugby/player/3269.html'
p217
aS'http://www.espnscrum.com/australia/rugby/player/3270.html'
p218
aS'http://www.espnscrum.com/australia/rugby/player/3271.html'
p219
aS'http://www.espnscrum.com/australia/rugby/player/3272.html'
p220
aS'http://www.espnscrum.com/australia/rugby/player/3273.html'
p221
aS'http://www.espnscrum.com/australia/rugby/player/3274.html'
p222
aS'http://www.espnscrum.com/australia/rugby/player/3265.html'
p223
aS'http://www.espnscrum.com/australia/rugby/player/3277.html'
p224
aS'http://www.espnscrum.com/australia/rugby/player/3278.html'
p225
aS'http://www.espnscrum.com/australia/rugby/player/3279.html'
p226
aS'http://www.espnscrum.com/australia/rugby/player/3282.html'
p227
aS'http://www.espnscrum.com/australia/rugby/player/3332.html'
p228
aS'http://www.espnscrum.com/australia/rugby/player/3334.html'
p229
aS'http://www.espnscrum.com/australia/rugby/player/3335.html'
p230
aS'http://www.espnscrum.com/australia/rugby/player/3336.html'
p231
aS'http://www.espnscrum.com/australia/rugby/player/3339.html'
p232
aS'http://www.espnscrum.com/australia/rugby/player/3340.html'
p233
aS'http://www.espnscrum.com/australia/rugby/player/3342.html'
p234
aS'http://www.espnscrum.com/australia/rugby/player/3343.html'
p235
aS'http://www.espnscrum.com/australia/rugby/player/3344.html'
p236
aS'http://www.espnscrum.com/australia/rugby/player/3346.html'
p237
aS'http://www.espnscrum.com/australia/rugby/player/3347.html'
p238
aS'http://www.espnscrum.com/australia/rugby/player/3350.html'
p239
aS'http://www.espnscrum.com/australia/rugby/player/3348.html'
p240
aS'http://www.espnscrum.com/australia/rugby/player/3490.html'
p241
aS'http://www.espnscrum.com/australia/rugby/player/3491.html'
p242
aS'http://www.espnscrum.com/australia/rugby/player/3502.html'
p243
aS'http://www.espnscrum.com/australia/rugby/player/3517.html'
p244
aS'http://www.espnscrum.com/australia/rugby/player/3585.html'
p245
aS'http://www.espnscrum.com/australia/rugby/player/3588.html'
p246
aS'http://www.espnscrum.com/australia/rugby/player/3590.html'
p247
aS'http://www.espnscrum.com/australia/rugby/player/3595.html'
p248
aS'http://www.espnscrum.com/australia/rugby/player/3597.html'
p249
aS'http://www.espnscrum.com/australia/rugby/player/3598.html'
p250
aS'http://www.espnscrum.com/australia/rugby/player/3601.html'
p251
aS'http://www.espnscrum.com/australia/rugby/player/3602.html'
p252
aS'http://www.espnscrum.com/australia/rugby/player/3604.html'
p253
aS'http://www.espnscrum.com/australia/rugby/player/3605.html'
p254
aS'http://www.espnscrum.com/australia/rugby/player/3608.html'
p255
aS'http://www.espnscrum.com/australia/rugby/player/3612.html'
p256
aS'http://www.espnscrum.com/australia/rugby/player/3613.html'
p257
aS'http://www.espnscrum.com/australia/rugby/player/3615.html'
p258
aS'http://www.espnscrum.com/australia/rugby/player/3616.html'
p259
aS'http://www.espnscrum.com/australia/rugby/player/3622.html'
p260
aS'http://www.espnscrum.com/australia/rugby/player/3623.html'
p261
aS'http://www.espnscrum.com/australia/rugby/player/3715.html'
p262
aS'http://www.espnscrum.com/australia/rugby/player/3718.html'
p263
aS'http://www.espnscrum.com/australia/rugby/player/3719.html'
p264
aS'http://www.espnscrum.com/australia/rugby/player/3720.html'
p265
aS'http://www.espnscrum.com/australia/rugby/player/3725.html'
p266
aS'http://www.espnscrum.com/australia/rugby/player/3726.html'
p267
aS'http://www.espnscrum.com/australia/rugby/player/3731.html'
p268
aS'http://www.espnscrum.com/australia/rugby/player/3732.html'
p269
aS'http://www.espnscrum.com/australia/rugby/player/3879.html'
p270
aS'http://www.espnscrum.com/australia/rugby/player/3880.html'
p271
aS'http://www.espnscrum.com/australia/rugby/player/3881.html'
p272
aS'http://www.espnscrum.com/australia/rugby/player/3884.html'
p273
aS'http://www.espnscrum.com/australia/rugby/player/3889.html'
p274
aS'http://www.espnscrum.com/australia/rugby/player/3893.html'
p275
aS'http://www.espnscrum.com/australia/rugby/player/3894.html'
p276
aS'http://www.espnscrum.com/australia/rugby/player/3897.html'
p277
aS'http://www.espnscrum.com/australia/rugby/player/3900.html'
p278
aS'http://www.espnscrum.com/australia/rugby/player/3995.html'
p279
aS'http://www.espnscrum.com/australia/rugby/player/3997.html'
p280
aS'http://www.espnscrum.com/australia/rugby/player/4033.html'
p281
aS'http://www.espnscrum.com/australia/rugby/player/4036.html'
p282
aS'http://www.espnscrum.com/australia/rugby/player/4111.html'
p283
aS'http://www.espnscrum.com/australia/rugby/player/4114.html'
p284
aS'http://www.espnscrum.com/australia/rugby/player/4116.html'
p285
aS'http://www.espnscrum.com/australia/rugby/player/4117.html'
p286
aS'http://www.espnscrum.com/australia/rugby/player/4119.html'
p287
aS'http://www.espnscrum.com/australia/rugby/player/4121.html'
p288
aS'http://www.espnscrum.com/australia/rugby/player/4210.html'
p289
aS'http://www.espnscrum.com/australia/rugby/player/4212.html'
p290
aS'http://www.espnscrum.com/australia/rugby/player/3901.html'
p291
aS'http://www.espnscrum.com/australia/rugby/player/4214.html'
p292
aS'http://www.espnscrum.com/australia/rugby/player/4224.html'
p293
aS'http://www.espnscrum.com/australia/rugby/player/4409.html'
p294
aS'http://www.espnscrum.com/australia/rugby/player/4410.html'
p295
aS'http://www.espnscrum.com/australia/rugby/player/4412.html'
p296
aS'http://www.espnscrum.com/australia/rugby/player/4414.html'
p297
aS'http://www.espnscrum.com/australia/rugby/player/4415.html'
p298
aS'http://www.espnscrum.com/australia/rugby/player/4417.html'
p299
aS'http://www.espnscrum.com/australia/rugby/player/4419.html'
p300
aS'http://www.espnscrum.com/australia/rugby/player/4420.html'
p301
aS'http://www.espnscrum.com/australia/rugby/player/4425.html'
p302
aS'http://www.espnscrum.com/australia/rugby/player/4435.html'
p303
aS'http://www.espnscrum.com/australia/rugby/player/4445.html'
p304
aS'http://www.espnscrum.com/australia/rugby/player/4509.html'
p305
aS'http://www.espnscrum.com/australia/rugby/player/4511.html'
p306
aS'http://www.espnscrum.com/australia/rugby/player/4514.html'
p307
aS'http://www.espnscrum.com/australia/rugby/player/4515.html'
p308
aS'http://www.espnscrum.com/australia/rugby/player/4516.html'
p309
aS'http://www.espnscrum.com/australia/rugby/player/4517.html'
p310
aS'http://www.espnscrum.com/australia/rugby/player/4520.html'
p311
aS'http://www.espnscrum.com/australia/rugby/player/4521.html'
p312
aS'http://www.espnscrum.com/australia/rugby/player/4606.html'
p313
aS'http://www.espnscrum.com/australia/rugby/player/4609.html'
p314
aS'http://www.espnscrum.com/australia/rugby/player/4610.html'
p315
aS'http://www.espnscrum.com/australia/rugby/player/4613.html'
p316
aS'http://www.espnscrum.com/australia/rugby/player/4616.html'
p317
aS'http://www.espnscrum.com/australia/rugby/player/4623.html'
p318
aS'http://www.espnscrum.com/australia/rugby/player/4625.html'
p319
aS'http://www.espnscrum.com/australia/rugby/player/4626.html'
p320
aS'http://www.espnscrum.com/australia/rugby/player/4627.html'
p321
aS'http://www.espnscrum.com/australia/rugby/player/4628.html'
p322
aS'http://www.espnscrum.com/australia/rugby/player/4630.html'
p323
aS'http://www.espnscrum.com/australia/rugby/player/4827.html'
p324
aS'http://www.espnscrum.com/australia/rugby/player/4830.html'
p325
aS'http://www.espnscrum.com/australia/rugby/player/4832.html'
p326
aS'http://www.espnscrum.com/australia/rugby/player/4833.html'
p327
aS'http://www.espnscrum.com/australia/rugby/player/4835.html'
p328
aS'http://www.espnscrum.com/australia/rugby/player/4843.html'
p329
aS'http://www.espnscrum.com/australia/rugby/player/4845.html'
p330
aS'http://www.espnscrum.com/australia/rugby/player/4846.html'
p331
aS'http://www.espnscrum.com/australia/rugby/player/4847.html'
p332
aS'http://www.espnscrum.com/australia/rugby/player/4849.html'
p333
aS'http://www.espnscrum.com/australia/rugby/player/4850.html'
p334
aS'http://www.espnscrum.com/australia/rugby/player/4852.html'
p335
aS'http://www.espnscrum.com/australia/rugby/player/4854.html'
p336
aS'http://www.espnscrum.com/australia/rugby/player/4857.html'
p337
aS'http://www.espnscrum.com/australia/rugby/player/4860.html'
p338
aS'http://www.espnscrum.com/australia/rugby/player/4841.html'
p339
aS'http://www.espnscrum.com/australia/rugby/player/4844.html'
p340
aS'http://www.espnscrum.com/australia/rugby/player/4861.html'
p341
aS'http://www.espnscrum.com/australia/rugby/player/4865.html'
p342
aS'http://www.espnscrum.com/australia/rugby/player/4868.html'
p343
aS'http://www.espnscrum.com/australia/rugby/player/4878.html'
p344
aS'http://www.espnscrum.com/australia/rugby/player/4881.html'
p345
aS'http://www.espnscrum.com/australia/rugby/player/4963.html'
p346
aS'http://www.espnscrum.com/australia/rugby/player/4967.html'
p347
aS'http://www.espnscrum.com/australia/rugby/player/4968.html'
p348
aS'http://www.espnscrum.com/australia/rugby/player/4974.html'
p349
aS'http://www.espnscrum.com/australia/rugby/player/4975.html'
p350
aS'http://www.espnscrum.com/australia/rugby/player/4976.html'
p351
aS'http://www.espnscrum.com/australia/rugby/player/4978.html'
p352
aS'http://www.espnscrum.com/australia/rugby/player/4980.html'
p353
aS'http://www.espnscrum.com/australia/rugby/player/4982.html'
p354
aS'http://www.espnscrum.com/australia/rugby/player/5003.html'
p355
aS'http://www.espnscrum.com/australia/rugby/player/5008.html'
p356
aS'http://www.espnscrum.com/australia/rugby/player/5177.html'
p357
aS'http://www.espnscrum.com/australia/rugby/player/5179.html'
p358
aS'http://www.espnscrum.com/australia/rugby/player/5180.html'
p359
aS'http://www.espnscrum.com/australia/rugby/player/5181.html'
p360
aS'http://www.espnscrum.com/australia/rugby/player/5182.html'
p361
aS'http://www.espnscrum.com/australia/rugby/player/5183.html'
p362
aS'http://www.espnscrum.com/australia/rugby/player/5184.html'
p363
aS'http://www.espnscrum.com/australia/rugby/player/5186.html'
p364
aS'http://www.espnscrum.com/australia/rugby/player/5189.html'
p365
aS'http://www.espnscrum.com/australia/rugby/player/5190.html'
p366
aS'http://www.espnscrum.com/australia/rugby/player/5193.html'
p367
aS'http://www.espnscrum.com/australia/rugby/player/5234.html'
p368
aS'http://www.espnscrum.com/australia/rugby/player/5236.html'
p369
aS'http://www.espnscrum.com/australia/rugby/player/5243.html'
p370
aS'http://www.espnscrum.com/australia/rugby/player/5248.html'
p371
aS'http://www.espnscrum.com/australia/rugby/player/5332.html'
p372
aS'http://www.espnscrum.com/australia/rugby/player/5333.html'
p373
aS'http://www.espnscrum.com/australia/rugby/player/5334.html'
p374
aS'http://www.espnscrum.com/australia/rugby/player/5335.html'
p375
aS'http://www.espnscrum.com/australia/rugby/player/5336.html'
p376
aS'http://www.espnscrum.com/australia/rugby/player/5337.html'
p377
aS'http://www.espnscrum.com/australia/rugby/player/5338.html'
p378
aS'http://www.espnscrum.com/australia/rugby/player/5415.html'
p379
aS'http://www.espnscrum.com/australia/rugby/player/5419.html'
p380
aS'http://www.espnscrum.com/australia/rugby/player/5423.html'
p381
aS'http://www.espnscrum.com/australia/rugby/player/5425.html'
p382
aS'http://www.espnscrum.com/australia/rugby/player/5426.html'
p383
aS'http://www.espnscrum.com/australia/rugby/player/5428.html'
p384
aS'http://www.espnscrum.com/australia/rugby/player/5430.html'
p385
aS'http://www.espnscrum.com/australia/rugby/player/5431.html'
p386
aS'http://www.espnscrum.com/australia/rugby/player/5433.html'
p387
aS'http://www.espnscrum.com/australia/rugby/player/5564.html'
p388
aS'http://www.espnscrum.com/australia/rugby/player/5565.html'
p389
aS'http://www.espnscrum.com/australia/rugby/player/5566.html'
p390
aS'http://www.espnscrum.com/australia/rugby/player/5567.html'
p391
aS'http://www.espnscrum.com/australia/rugby/player/5568.html'
p392
aS'http://www.espnscrum.com/australia/rugby/player/5569.html'
p393
aS'http://www.espnscrum.com/australia/rugby/player/5570.html'
p394
aS'http://www.espnscrum.com/australia/rugby/player/5573.html'
p395
aS'http://www.espnscrum.com/australia/rugby/player/5594.html'
p396
aS'http://www.espnscrum.com/australia/rugby/player/5697.html'
p397
aS'http://www.espnscrum.com/australia/rugby/player/5698.html'
p398
aS'http://www.espnscrum.com/australia/rugby/player/5699.html'
p399
aS'http://www.espnscrum.com/australia/rugby/player/5701.html'
p400
aS'http://www.espnscrum.com/australia/rugby/player/5702.html'
p401
aS'http://www.espnscrum.com/australia/rugby/player/5703.html'
p402
aS'http://www.espnscrum.com/australia/rugby/player/5705.html'
p403
aS'http://www.espnscrum.com/australia/rugby/player/5706.html'
p404
aS'http://www.espnscrum.com/australia/rugby/player/5823.html'
p405
aS'http://www.espnscrum.com/australia/rugby/player/5824.html'
p406
aS'http://www.espnscrum.com/australia/rugby/player/5827.html'
p407
aS'http://www.espnscrum.com/australia/rugby/player/5830.html'
p408
aS'http://www.espnscrum.com/australia/rugby/player/5962.html'
p409
aS'http://www.espnscrum.com/australia/rugby/player/5965.html'
p410
aS'http://www.espnscrum.com/australia/rugby/player/5972.html'
p411
aS'http://www.espnscrum.com/australia/rugby/player/5977.html'
p412
aS'http://www.espnscrum.com/australia/rugby/player/5980.html'
p413
aS'http://www.espnscrum.com/australia/rugby/player/5981.html'
p414
aS'http://www.espnscrum.com/australia/rugby/player/6049.html'
p415
aS'http://www.espnscrum.com/australia/rugby/player/6053.html'
p416
aS'http://www.espnscrum.com/australia/rugby/player/6056.html'
p417
aS'http://www.espnscrum.com/australia/rugby/player/6057.html'
p418
aS'http://www.espnscrum.com/australia/rugby/player/6143.html'
p419
aS'http://www.espnscrum.com/australia/rugby/player/6144.html'
p420
aS'http://www.espnscrum.com/australia/rugby/player/6145.html'
p421
aS'http://www.espnscrum.com/australia/rugby/player/6146.html'
p422
aS'http://www.espnscrum.com/australia/rugby/player/6150.html'
p423
aS'http://www.espnscrum.com/australia/rugby/player/6151.html'
p424
aS'http://www.espnscrum.com/australia/rugby/player/6154.html'
p425
aS'http://www.espnscrum.com/australia/rugby/player/6155.html'
p426
aS'http://www.espnscrum.com/australia/rugby/player/6156.html'
p427
aS'http://www.espnscrum.com/australia/rugby/player/6157.html'
p428
aS'http://www.espnscrum.com/australia/rugby/player/6159.html'
p429
aS'http://www.espnscrum.com/australia/rugby/player/6199.html'
p430
aS'http://www.espnscrum.com/australia/rugby/player/6204.html'
p431
aS'http://www.espnscrum.com/australia/rugby/player/6205.html'
p432
aS'http://www.espnscrum.com/australia/rugby/player/6223.html'
p433
aS'http://www.espnscrum.com/australia/rugby/player/6224.html'
p434
aS'http://www.espnscrum.com/australia/rugby/player/6226.html'
p435
aS'http://www.espnscrum.com/australia/rugby/player/6234.html'
p436
aS'http://www.espnscrum.com/australia/rugby/player/6235.html'
p437
aS'http://www.espnscrum.com/australia/rugby/player/6243.html'
p438
aS'http://www.espnscrum.com/australia/rugby/player/6264.html'
p439
aS'http://www.espnscrum.com/australia/rugby/player/6268.html'
p440
aS'http://www.espnscrum.com/australia/rugby/player/6269.html'
p441
aS'http://www.espnscrum.com/australia/rugby/player/6271.html'
p442
aS'http://www.espnscrum.com/australia/rugby/player/6273.html'
p443
aS'http://www.espnscrum.com/australia/rugby/player/6274.html'
p444
aS'http://www.espnscrum.com/australia/rugby/player/6275.html'
p445
aS'http://www.espnscrum.com/australia/rugby/player/6300.html'
p446
aS'http://www.espnscrum.com/australia/rugby/player/6301.html'
p447
aS'http://www.espnscrum.com/australia/rugby/player/6302.html'
p448
aS'http://www.espnscrum.com/australia/rugby/player/6305.html'
p449
aS'http://www.espnscrum.com/australia/rugby/player/6306.html'
p450
aS'http://www.espnscrum.com/australia/rugby/player/6308.html'
p451
aS'http://www.espnscrum.com/australia/rugby/player/6323.html'
p452
aS'http://www.espnscrum.com/australia/rugby/player/6397.html'
p453
a.