(lp1
VProp
p2
aVProp
p3
aVNo. 8
p4
aVLock
p5
aVLock
p6
aVWing
p7
aVScrum-half
p8
aVFlanker
p9
aVFullback
p10
aVLock
p11
aVCentre
p12
aVCentre
p13
aVProp
p14
aVFly-half
p15
aVWing
p16
aVNo. 8
p17
aVFlanker
p18
aVScrum-half
p19
aVHooker
p20
aVCentre
p21
aVFlanker
p22
aVWing
p23
aVFlanker
p24
aVFlanker
p25
aVHooker
p26
aVScrum-half
p27
aVFullback
p28
aVWing
p29
aVFly-half
p30
aVProp
p31
aVFlanker
p32
aVHooker
p33
aVNo. 8
p34
aVProp
p35
aVFly-half
p36
aVLock
p37
aVFlanker
p38
aVHooker
p39
aVLock
p40
aVFullback
p41
aVProp
p42
aVWing
p43
aVCentre
p44
aVCentre
p45
aVScrum-half
p46
aVFlanker
p47
aVHooker
p48
aVCentre
p49
aVLock
p50
aVFullback
p51
aVBack-row
p52
aVFullback
p53
aVLock
p54
aVWing
p55
aVFly-half
p56
aVProp
p57
aVHooker
p58
aVLock
p59
aVScrum-half
p60
aVCentre
p61
aVProp
p62
aVWing
p63
aVFlanker
p64
aVFly-half
p65
aVProp
p66
aVScrum-half
p67
aVFlanker
p68
aVFlanker
p69
aVFullback
p70
aVCentre
p71
aVCentre
p72
aVForward
p73
aVProp
p74
aVLock
p75
aVFullback
p76
aVFlanker
p77
aVHooker
p78
aVFlanker
p79
aVLock
p80
aVFly-half
p81
aVProp
p82
aVFlanker
p83
aVWing
p84
aVWing
p85
aVScrum-half
p86
aVSecond-row
p87
aVLock
p88
aVFlanker
p89
aVFly-half
p90
aVWing
p91
aVWing
p92
aVLock
p93
aVCentre, Fly-half
p94
aVHooker
p95
aVLock
p96
aVCentre
p97
aVFlanker
p98
aVCentre
p99
aVForward
p100
aVProp
p101
aVFlanker
p102
aVFly-half
p103
aVNo. 8
p104
aVCentre
p105
aVWing
p106
aVFullback
p107
aVFlanker
p108
aVProp
p109
aVWing
p110
aVFly-half
p111
aVLock
p112
aVLock
p113
aVFlanker
p114
aVLock
p115
aVProp
p116
aVWing
p117
aVLock
p118
aVFlanker
p119
aVWing
p120
aVNo. 8
p121
aVLock
p122
aVScrum-half
p123
aVProp
p124
aVWing
p125
aVFlanker
p126
aVCentre
p127
aVFullback
p128
aVHooker
p129
aVWing
p130
aVFly-half
p131
aVNo. 8
p132
aVLock
p133
aVCentre
p134
aVProp
p135
aVFlanker
p136
aVFullback
p137
aVHooker
p138
aVFlanker
p139
aVCentre
p140
aVWing
p141
aVFlanker
p142
aVNo. 8
p143
aVProp
p144
aVProp
p145
aVFullback
p146
aVWing
p147
aVProp
p148
aVHooker
p149
aVCentre
p150
aVProp
p151
aVNo. 8
p152
aVFlanker
p153
aVLock
p154
aVFly-half
p155
aVHooker
p156
aVWing
p157
aVFlanker
p158
aVWing
p159
aVCentre
p160
aVNo. 8
p161
aVLock
p162
aVLock
p163
aVFly-half
p164
aVScrum-half
p165
aVWing
p166
aVWing
p167
aVHooker
p168
aVLock
p169
aVWing
p170
aVFullback
p171
aVFly-half
p172
aVProp
p173
aVFlanker
p174
aVFlanker
p175
aVCentre
p176
aVWing
p177
aVHooker
p178
aVFly-half
p179
aVProp
p180
aVCentre
p181
aVLock
p182
aV
aVLock
p183
aVWing
p184
aVFlanker
p185
aVNo. 8
p186
aVWing
p187
aV
aVProp
p188
aVFly-half
p189
aVWing
p190
aVNo. 8
p191
aVWing
p192
aVWing
p193
aVCentre
p194
aVFlanker
p195
aVNo. 8
p196
aVWing
p197
aVLock
p198
aVCentre
p199
aVFlanker
p200
aVFullback
p201
aVScrum-half
p202
aVNo. 8
p203
aVProp
p204
aVWing
p205
aVCentre
p206
aVNo. 8
p207
aVProp
p208
aVFly-half
p209
aVFullback
p210
aVCentre
p211
aVCentre
p212
aVWing
p213
aVFlanker
p214
aVCentre
p215
aVCentre
p216
aVFlanker
p217
aVLock
p218
aVScrum-half
p219
aVHooker
p220
aVFlanker
p221
aV
aVNo. 8
p222
aVProp
p223
aVProp
p224
aVLock
p225
aVLock
p226
aVCentre
p227
aVCentre
p228
aVProp
p229
aVLock
p230
aVLock
p231
aVProp
p232
aVScrum-half
p233
aVFullback
p234
aVWing
p235
aVLock
p236
aV
aVWing
p237
aVFlanker
p238
aVScrum-half
p239
aVProp
p240
aVFlanker
p241
aVCentre
p242
aVProp
p243
aVLock
p244
aVLock
p245
aVHooker
p246
aVFlanker
p247
aVWing
p248
aVFullback
p249
aVWing
p250
aVWing
p251
aVFlanker
p252
aVHooker
p253
aVLock
p254
aVCentre
p255
aVCentre
p256
aVWing
p257
aVHooker
p258
aVWing
p259
aVLock
p260
aVFlanker
p261
aVProp
p262
aV
aVWing
p263
aVCentre
p264
aVScrum-half
p265
aVFlanker
p266
aVFlanker
p267
aVCentre
p268
aVNo. 8
p269
aVFullback
p270
aVWing
p271
aVProp
p272
aVCentre
p273
aVLock
p274
aVProp
p275
aVNo. 8
p276
aVWing
p277
aVFly-half
p278
aVWing
p279
aVNo. 8
p280
aVWing
p281
aVLock
p282
aVNo. 8
p283
aVProp
p284
aVCentre
p285
aVProp
p286
aVFly-half
p287
aVProp
p288
aVScrum-half
p289
aVLock
p290
aVNo. 8
p291
aVCentre
p292
aVProp
p293
aVCentre
p294
aVFullback
p295
aVFly-half
p296
aVFullback
p297
aVWing
p298
aVNo. 8
p299
aVLock
p300
aVScrum-half
p301
aVProp
p302
aVFlanker
p303
aVFly-half
p304
aVCentre
p305
aVWing
p306
aVHooker
p307
aVWing
p308
aVWing
p309
aVNo. 8
p310
aVFlanker
p311
aVScrum-half
p312
aVCentre
p313
aVProp
p314
aVFlanker
p315
aVLock
p316
aVScrum-half
p317
aVFullback
p318
aVCentre
p319
aVNo. 8
p320
aVFly-half
p321
aVHooker
p322
aVWing
p323
aVLock
p324
aVCentre
p325
aVFlanker
p326
aVWing
p327
aVFlanker
p328
aVProp
p329
aVFullback
p330
aVScrum-half
p331
aVProp
p332
aVFlanker
p333
aVProp
p334
aVCentre
p335
aVFly-half
p336
aVHooker
p337
aVLock
p338
aVWing
p339
aVScrum-half
p340
aVLock
p341
aVHooker
p342
aVFlanker
p343
aVCentre
p344
aVCentre
p345
aVFly-half
p346
aVLock
p347
aVProp
p348
aVFullback
p349
aVProp
p350
aVWing
p351
aVProp
p352
aVCentre
p353
aVFly-half
p354
aVFullback
p355
aVHooker
p356
aVFlanker
p357
aVNo. 8
p358
aVWing
p359
aVFlanker
p360
aVWing
p361
aVCentre
p362
aVWing
p363
aVWing
p364
aVLock
p365
aVProp
p366
aVFullback
p367
aVProp
p368
aVWing
p369
aVProp
p370
aVFlanker
p371
aVWing
p372
aVFullback
p373
aVLock
p374
aVCentre
p375
aVLock
p376
aVFullback
p377
aVWing
p378
aVFly-half
p379
aVFlanker
p380
aVProp
p381
aVFly-half
p382
aVCentre
p383
aVScrum-half
p384
aVProp
p385
aVProp
p386
aVNo. 8
p387
aVWing
p388
aVProp
p389
aVFullback
p390
aVFullback
p391
aVScrum-half
p392
aVNo. 8
p393
aVNo. 8
p394
aVCentre
p395
aVFullback
p396
aVHooker
p397
aVFly-half
p398
aVProp
p399
aVFlanker
p400
aVHooker
p401
aVFlanker
p402
aVWing
p403
aVProp
p404
aVHooker
p405
aVFlanker
p406
aVFly-half
p407
aVWing
p408
aVProp
p409
aVHooker
p410
aVFly-half
p411
aVCentre
p412
aVWing
p413
aVFullback
p414
aVWing
p415
aVProp
p416
aVFlanker
p417
aVWing
p418
aVCentre
p419
aVFlanker
p420
aVLock
p421
aVWing
p422
aVNo. 8
p423
aVLock
p424
aVScrum-half
p425
aVFullback
p426
aVFly-half
p427
aVNo. 8
p428
aVProp
p429
aVFlanker
p430
aVWing
p431
aVFly-half
p432
aVFlanker
p433
aVWing
p434
aVScrum-half
p435
aVHooker
p436
aVFly-half
p437
aVLock
p438
aVCentre
p439
aVProp
p440
aVProp
p441
aVProp
p442
aVCentre
p443
aVFlanker
p444
aVProp
p445
aVCentre
p446
aVCentre
p447
aVCentre
p448
a.