(lp1
VProp
p2
aVProp
p3
aVNo. 8
p4
aVLock
p5
aVLock
p6
aVWing
p7
aVScrum-half
p8
aVFlanker
p9
aVFullback
p10
aVLock
p11
aVCentre
p12
aVCentre
p13
aVProp
p14
aVFly-half
p15
aVWing
p16
aVNo. 8
p17
aVFlanker
p18
aVScrum-half
p19
aVHooker
p20
aVCentre
p21
aVFlanker
p22
aVWing
p23
aVFlanker
p24
aVFlanker
p25
aVHooker
p26
aVScrum-half
p27
aVFullback
p28
aVWing
p29
aVFly-half
p30
aVProp
p31
aVFlanker
p32
aVHooker
p33
aVNo. 8
p34
aVProp
p35
aVFly-half
p36
aVLock
p37
aVFlanker
p38
aVHooker
p39
aVLock
p40
aVFullback
p41
aVProp
p42
aVWing
p43
aVCentre
p44
aVCentre
p45
aVScrum-half
p46
aVFlanker
p47
aVHooker
p48
aVCentre
p49
aVLock
p50
aVFullback
p51
aVBack-row
p52
aVFullback
p53
aVLock
p54
aVWing
p55
aVFly-half
p56
aVProp
p57
aVHooker
p58
aVLock
p59
aVScrum-half
p60
aVCentre
p61
aVProp
p62
aVWing
p63
aVFlanker
p64
aVFly-half
p65
aVProp
p66
aVScrum-half
p67
aVFlanker
p68
aVFlanker
p69
aVFullback
p70
aVCentre
p71
aVCentre
p72
aVForward
p73
aVProp
p74
aVLock
p75
aVFullback
p76
aVFlanker
p77
aVHooker
p78
aVFlanker
p79
aVLock
p80
aVFly-half
p81
aVProp
p82
aVFlanker
p83
aVWing
p84
aVWing
p85
aVScrum-half
p86
aVSecond-row
p87
aVLock
p88
aVFlanker
p89
aVFly-half
p90
aVWing
p91
aVWing
p92
aVLock
p93
aVFly-half, Centre
p94
aVHooker
p95
aVLock
p96
aVCentre
p97
aVFlanker
p98
aVCentre
p99
aVForward
p100
aVProp
p101
aVFlanker
p102
aVFly-half
p103
aVNo. 8
p104
aVCentre
p105
aVWing
p106
aVFullback
p107
aVFlanker
p108
aVProp
p109
aVWing
p110
aVFly-half
p111
aVLock
p112
aVLock
p113
aVFlanker
p114
aVLock
p115
aVProp
p116
aVWing
p117
aVLock
p118
aVFlanker
p119
aVWing
p120
aVNo. 8
p121
aVLock
p122
aVScrum-half
p123
aVProp
p124
aVWing
p125
aVFlanker
p126
aVCentre
p127
aVFullback
p128
aVHooker
p129
aVWing
p130
aVFly-half
p131
aVNo. 8
p132
aVLock
p133
aVCentre
p134
aVProp
p135
aVFlanker
p136
aVFullback
p137
aVHooker
p138
aVFlanker
p139
aVCentre
p140
aVWing
p141
aVFlanker
p142
aVNo. 8
p143
aVProp
p144
aVProp
p145
aVFullback
p146
aVWing
p147
aVProp
p148
aVHooker
p149
aVCentre
p150
aVProp
p151
aVNo. 8
p152
aVFlanker
p153
aVLock
p154
aVFly-half
p155
aVHooker
p156
aVWing
p157
aVFlanker
p158
aVWing
p159
aVCentre
p160
aVNo. 8
p161
aVLock
p162
aVLock
p163
aVFly-half
p164
aVScrum-half
p165
aVWing
p166
aVWing
p167
aVHooker
p168
aVLock
p169
aVWing
p170
aVFullback
p171
aVFly-half
p172
aVProp
p173
aVFlanker
p174
aVFlanker
p175
aVCentre
p176
aVWing
p177
aVHooker
p178
aVFly-half
p179
aVProp
p180
aVCentre
p181
aVLock
p182
aV
aVLock
p183
aVWing
p184
aVFlanker
p185
aVNo. 8
p186
aVWing
p187
aV
aVProp
p188
aVFly-half
p189
aVWing
p190
aVNo. 8
p191
aVWing
p192
aVWing
p193
aVCentre
p194
aVFlanker
p195
aVNo. 8
p196
aVWing
p197
aVLock
p198
aVCentre
p199
aVFlanker
p200
aVFullback
p201
aVScrum-half
p202
aVNo. 8
p203
aVProp
p204
aVWing
p205
aVCentre
p206
aVNo. 8
p207
aVProp
p208
aVFly-half
p209
aVFullback
p210
aVCentre
p211
aVCentre
p212
aVWing
p213
aVFlanker
p214
aVCentre
p215
aVCentre
p216
aVFlanker
p217
aVLock
p218
aVScrum-half
p219
aVHooker
p220
aVFlanker
p221
aV
aVNo. 8
p222
aVProp
p223
aVProp
p224
aVLock
p225
aVLock
p226
aVCentre
p227
aVCentre
p228
aVProp
p229
aVLock
p230
aVLock
p231
aVProp
p232
aVScrum-half
p233
aVFullback
p234
aVWing
p235
aVLock
p236
aV
aVWing
p237
aVFlanker
p238
aVScrum-half
p239
aVProp
p240
aVFlanker
p241
aVCentre
p242
aVProp
p243
aVLock
p244
aVLock
p245
aVHooker
p246
aVFlanker
p247
aVWing
p248
aVFullback
p249
aVWing
p250
aVWing
p251
aVFlanker
p252
aVHooker
p253
aVLock
p254
aVCentre
p255
aVCentre
p256
aVWing
p257
aVHooker
p258
aVWing
p259
aVLock
p260
aVFlanker
p261
aVProp
p262
aV
aVWing
p263
aVCentre
p264
aVScrum-half
p265
aVFlanker
p266
aVFlanker
p267
aVCentre
p268
aVNo. 8
p269
aVFullback
p270
aVWing
p271
aVProp
p272
aVCentre
p273
aVLock
p274
aVProp
p275
aVNo. 8
p276
aVWing
p277
aVFly-half
p278
aVWing
p279
aVNo. 8
p280
aVWing
p281
aVLock
p282
aVNo. 8
p283
aVProp
p284
aVCentre
p285
aVProp
p286
aVFly-half
p287
aVProp
p288
aVScrum-half
p289
aVLock
p290
aVNo. 8
p291
aVCentre
p292
aVProp
p293
aVCentre
p294
aVFullback
p295
aVFly-half
p296
aVFullback
p297
aVWing
p298
aVNo. 8
p299
aVLock
p300
aVScrum-half
p301
aVProp
p302
aVFlanker
p303
aVFly-half
p304
aVCentre
p305
aVWing
p306
aVHooker
p307
aVWing
p308
aVWing
p309
aVNo. 8
p310
aVFlanker
p311
aVScrum-half
p312
aVCentre
p313
aVProp
p314
aVFlanker
p315
aVLock
p316
aVScrum-half
p317
aVFullback
p318
aVCentre
p319
aVNo. 8
p320
aVFly-half
p321
aVHooker
p322
aVWing
p323
aVLock
p324
aVCentre
p325
aVFlanker
p326
aVWing
p327
aVFlanker
p328
aVProp
p329
aVFullback
p330
aVScrum-half
p331
aVProp
p332
aVFlanker
p333
aVProp
p334
aVCentre
p335
aVFly-half
p336
aVHooker
p337
aVLock
p338
aVWing
p339
aVScrum-half
p340
aVLock
p341
aVHooker
p342
aVFlanker
p343
aVCentre
p344
aVCentre
p345
aVFly-half
p346
aVLock
p347
aVProp
p348
aVFullback
p349
aVProp
p350
aVWing
p351
aVProp
p352
aVCentre
p353
aVFly-half
p354
aVFullback
p355
aVHooker
p356
aVFlanker
p357
aVNo. 8
p358
aVWing
p359
aVFlanker
p360
aVWing
p361
aVCentre
p362
aVWing
p363
aVWing
p364
aVLock
p365
aVProp
p366
aVFullback
p367
aVProp
p368
aVWing
p369
aVProp
p370
aVFlanker
p371
aVWing
p372
aVFullback
p373
aVLock
p374
aVCentre
p375
aVLock
p376
aVFullback
p377
aVWing
p378
aVFly-half
p379
aVFlanker
p380
aVProp
p381
aVFly-half
p382
aVCentre
p383
aVScrum-half
p384
aVProp
p385
aVProp
p386
aVNo. 8
p387
aVWing
p388
aVProp
p389
aVFullback
p390
aVFullback
p391
aVScrum-half
p392
aVNo. 8
p393
aVNo. 8
p394
aVCentre
p395
aVFullback
p396
aVHooker
p397
aVFly-half
p398
aVProp
p399
aVFlanker
p400
aVHooker
p401
aVFlanker
p402
aVWing
p403
aVProp
p404
aVHooker
p405
aVFlanker
p406
aVFly-half
p407
aVWing
p408
aVProp
p409
aVHooker
p410
aVFly-half
p411
aVCentre
p412
aVWing
p413
aVFullback
p414
aVWing
p415
aVProp
p416
aVFlanker
p417
aVWing
p418
aVCentre
p419
aVFlanker
p420
aVLock
p421
aVWing
p422
aVNo. 8
p423
aVLock
p424
aVScrum-half
p425
aVFullback
p426
aVFly-half
p427
aVNo. 8
p428
aVProp
p429
aVFlanker
p430
aVWing
p431
aVFly-half
p432
aVFlanker
p433
aVWing
p434
aVScrum-half
p435
aVHooker
p436
aVFly-half
p437
aVLock
p438
aVCentre
p439
aVProp
p440
aVProp
p441
aVProp
p442
aVCentre
p443
aVFlanker
p444
aVProp
p445
aVCentre
p446
aVCentre
p447
aVCentre
p448
aVHooker
p449
aVNo. 8
p450
aVScrum-half
p451
aVWing
p452
aVFly-half
p453
aVFlanker
p454
aVCentre
p455
aVLock
p456
aVWing
p457
aVNo. 8
p458
aVFlanker
p459
aVFly-half
p460
aVLock
p461
aVLock
p462
aVWing
p463
aVWing
p464
aVWing
p465
aVWing
p466
aVProp
p467
aVLock
p468
aVCentre
p469
aVFly-half
p470
aVWing
p471
aVFlanker
p472
aVWing
p473
aVProp
p474
aVFly-half
p475
aVScrum-half
p476
aVWing
p477
aVLock
p478
aVCentre
p479
aVProp
p480
aVFlanker
p481
aVCentre
p482
aVFullback
p483
aVWing
p484
aVFullback
p485
aVFlanker
p486
aVCentre
p487
aVCentre
p488
aVNo. 8
p489
aVWing
p490
aVNo. 8
p491
aVWing
p492
aVWing
p493
aVCentre
p494
aVCentre
p495
aVFlanker
p496
aVLock
p497
aVFly-half
p498
aVProp
p499
aVWing
p500
aVFlanker
p501
aVLock
p502
aVWing
p503
aVFullback
p504
aVWing
p505
aVFlanker
p506
aVCentre
p507
aVFly-half
p508
aVWing
p509
aVFullback
p510
aVLock
p511
aVProp
p512
aVNo. 8
p513
aVScrum-half
p514
aVCentre
p515
aVLock
p516
aVCentre
p517
aVWing
p518
aVProp
p519
aVProp
p520
aVHooker
p521
aVCentre
p522
aVLock
p523
aVLock
p524
aVFly-half
p525
aVHooker
p526
aVFlanker
p527
aVCentre
p528
aVFlanker
p529
aVProp
p530
aVNo. 8
p531
aVFly-half
p532
aVLock
p533
aVFlanker
p534
aVWing
p535
aVLock
p536
aVWing
p537
aVScrum-half
p538
aVProp
p539
aVHooker
p540
aVProp
p541
aVFly-half
p542
aVCentre
p543
aVCentre
p544
aVNo. 8
p545
aVCentre
p546
aVScrum-half
p547
aVProp
p548
aVHooker
p549
aVNo. 8
p550
aVLock
p551
aVScrum-half
p552
aVFly-half
p553
aVLock
p554
aVProp
p555
aVNo. 8
p556
aVCentre
p557
aVWing
p558
aVHooker
p559
aVScrum-half
p560
aVFlanker
p561
aVFlanker
p562
aVWing
p563
aVLock
p564
aVHooker
p565
aVNo. 8
p566
aVFly-half
p567
aVProp
p568
aVFlanker
p569
aVFlanker
p570
aVFullback
p571
aVProp
p572
aVWing
p573
aVCentre
p574
aVFly-half
p575
aVWing
p576
aVScrum-half
p577
aVFullback
p578
aVLock
p579
aVWing
p580
aVWing
p581
aVCentre
p582
aVLock
p583
aVFlanker
p584
aVCentre
p585
aVCentre
p586
aV
aVWing
p587
aVCentre
p588
aVProp
p589
aVCentre
p590
aVLock
p591
aVWing
p592
aVWing
p593
aVFullback
p594
aVProp
p595
aVFly-half
p596
aVFullback
p597
aVHooker
p598
aVLock
p599
aVScrum-half
p600
aVFlanker
p601
aVScrum-half
p602
aVCentre
p603
aVProp
p604
aVLock
p605
aVCentre
p606
aVWing
p607
aVLock
p608
aVFlanker
p609
aVLock
p610
aVFly-half
p611
aVFullback
p612
aVProp
p613
aVWing
p614
aVWing
p615
aVFullback
p616
aVFlanker
p617
aVWing
p618
aVProp
p619
aVCentre
p620
aVNo. 8
p621
aVProp
p622
aVHooker
p623
aVHooker
p624
aVLock
p625
aVLock
p626
aVScrum-half
p627
aVWing
p628
aVFlanker
p629
aVScrum-half
p630
aVProp
p631
aVHooker
p632
aVNo. 8
p633
aVHooker
p634
aVLock
p635
aVLock
p636
aVFly-half
p637
aVNo. 8
p638
aVProp
p639
aVScrum-half
p640
aVWing
p641
aVFullback
p642
aVFlanker
p643
aVCentre
p644
aVCentre
p645
aVFly-half
p646
aVCentre
p647
aVProp
p648
aVCentre
p649
aVLock
p650
aVProp
p651
aVFlanker
p652
aVFullback
p653
aVScrum-half
p654
aVCentre
p655
aVFly-half
p656
aVNo. 8
p657
aVNo. 8
p658
aVWing
p659
aVFlanker
p660
aVNo. 8
p661
aVCentre
p662
aVProp
p663
aVProp
p664
aVNo. 8
p665
aVCentre
p666
aVCentre
p667
aVFlanker
p668
aVWing
p669
aVScrum-half
p670
aVProp
p671
aVCentre
p672
aVFullback
p673
aVProp
p674
aVCentre, Fly-half
p675
aVHooker
p676
aVLock
p677
aVCentre
p678
aVLock
p679
aVFlanker
p680
aVFullback
p681
aVWing
p682
aVProp
p683
aVCentre
p684
aVNo. 8
p685
aVWing
p686
aVScrum-half
p687
aVFlanker
p688
aVLock
p689
aVWing
p690
aVFullback
p691
aVHooker
p692
aVCentre
p693
aVFlanker
p694
aVCentre
p695
aVFullback
p696
aVLock
p697
aVFly-half
p698
aVScrum-half
p699
aVCentre
p700
aVFly-half
p701
aVWing
p702
aVLock
p703
aVFlanker
p704
aVFullback
p705
aVCentre
p706
aVBack-row
p707
aVCentre
p708
aVFullback
p709
aVCentre
p710
aVCentre
p711
aVScrum-half
p712
aVFly-half
p713
aVFullback, Wing
p714
aVHooker
p715
aVFlanker
p716
aVScrum-half
p717
aVHooker
p718
aVLock, Back-row
p719
aVProp
p720
aVScrum-half
p721
aVCentre
p722
aVFullback, Fly-half
p723
aVHooker
p724
aVProp
p725
aVLock
p726
aVFlanker
p727
aVProp
p728
aVLock
p729
aVWing
p730
aVLock, Flanker
p731
aVCentre
p732
aVProp
p733
aVFlanker
p734
aVLock
p735
aVNo. 8
p736
aVFly-half
p737
aVLock
p738
aVHooker
p739
aVCentre
p740
aVProp
p741
aVScrum-half
p742
aVUtility back
p743
aVFullback
p744
aVProp
p745
aVFly-half
p746
aVNo. 8
p747
aVFlanker
p748
aVLock, Flanker
p749
aVCentre
p750
aVProp
p751
aVFullback, Wing
p752
aVProp
p753
aVCentre
p754
aVScrum-half
p755
aVNo. 8
p756
aVBack-row
p757
aVFullback, Wing
p758
aVBack-row
p759
aVProp
p760
aVFlanker
p761
aVProp
p762
aVProp
p763
aVHooker
p764
aVLock
p765
aVWing, Centre
p766
aVCentre
p767
aVOutside back
p768
aVLock
p769
aVUtility back
p770
aVHooker
p771
aVLock
p772
aVFlanker
p773
aVHooker
p774
aVCentre
p775
aVUtility back
p776
aVCentre
p777
aVOutside back
p778
aVLock, Flanker
p779
aVProp
p780
aVProp
p781
aVNo. 8
p782
aVCentre
p783
aVNo. 8
p784
aVScrum-half
p785
aVProp
p786
aVLock
p787
aVBack-row
p788
aVFlanker
p789
aVLock, Flanker
p790
aVHooker
p791
aVUtility back
p792
aVLock
p793
aVWing
p794
aVCentre
p795
aVCentre
p796
aVLock, Flanker
p797
aVCentre, Fly-half
p798
aVProp
p799
aVNo. 8
p800
aVHooker
p801
aVProp
p802
aVProp
p803
aVHooker
p804
aVFullback, Wing
p805
aVScrum-half
p806
aVBack-row
p807
aVProp
p808
aVProp
p809
aVScrum-half
p810
aVFullback, Fly-half
p811
aVFly-half
p812
aVCentre, Wing
p813
aVLock
p814
aVUtility back
p815
aVScrum-half
p816
aVWing, Fullback
p817
aVLock
p818
aVProp
p819
aVCentre
p820
aVWing
p821
aVOutside back
p822
aVBack-row
p823
aVFlanker
p824
aVFly-half
p825
aVProp
p826
aVWing
p827
aVLock
p828
aVProp
p829
aVScrum-half
p830
aVFullback
p831
aVHooker
p832
aVCentre
p833
aVProp
p834
aVHooker
p835
aVBack-row
p836
aVProp
p837
aVProp
p838
aVLock, Back-row
p839
aVLock
p840
aVCentre
p841
aVCentre
p842
aVNo. 8
p843
aVWing
p844
aVScrum-half
p845
aVLock
p846
aVFlanker
p847
aVCentre
p848
aVFlanker
p849
aVCentre
p850
aVFullback
p851
aVProp
p852
aVWing
p853
aVFlanker
p854
aVCentre, Wing
p855
aVFlanker
p856
aVWing
p857
aVLock
p858
aVWing, Centre
p859
aVHooker
p860
aVProp
p861
aVWing, Fullback
p862
aVFly-half
p863
aVNo. 8
p864
aVFullback
p865
aVFly-half
p866
aVFlanker
p867
aVCentre
p868
aVProp
p869
aVScrum-half
p870
aVWing
p871
aVFly-half
p872
aVWing
p873
aVLock
p874
aVHooker
p875
aVLock
p876
aVProp
p877
aVLock
p878
aVHooker
p879
aVNo. 8
p880
aVFlanker
p881
aVProp
p882
aVWing
p883
aVWing
p884
aVProp
p885
a.