(lp1
(dp2
S'Pens'
p3
S'0'
sS'Sub'
p4
S'0'
sS'Lost'
p5
S'3'
sS'Drop'
p6
S'0'
sS'Start'
p7
S'4'
sS'Won'
p8
S'1'
sS'GfM'
p9
S'0'
sS'Draw'
p10
S'0'
sS'Mat'
p11
S'4'
sS'Conv'
p12
S'0'
sS'Tries'
p13
S'0'
sS'Pts'
p14
S'0'
sa(dp15
S'Pens'
p16
S'0'
sS'Sub'
p17
S'0'
sS'Lost'
p18
S'0'
sS'Drop'
p19
S'0'
sS'Start'
p20
S'1'
sS'Won'
p21
S'1'
sS'GfM'
p22
S'0'
sS'Draw'
p23
S'0'
sS'Mat'
p24
S'1'
sS'Conv'
p25
S'0'
sS'Tries'
p26
S'0'
sS'Pts'
p27
S'0'
sa(dp28
S'Pens'
p29
S'0'
sS'Sub'
p30
S'0'
sS'Lost'
p31
S'1'
sS'Drop'
p32
S'0'
sS'Start'
p33
S'2'
sS'Won'
p34
S'1'
sS'GfM'
p35
S'0'
sS'Draw'
p36
S'0'
sS'Mat'
p37
S'2'
sS'Conv'
p38
S'0'
sS'Tries'
p39
S'1'
sS'Pts'
p40
S'3'
sa(dp41
S'Pens'
p42
S'0'
sS'Sub'
p43
S'0'
sS'Lost'
p44
S'2'
sS'Drop'
p45
S'0'
sS'Start'
p46
S'3'
sS'Won'
p47
S'1'
sS'GfM'
p48
S'0'
sS'Draw'
p49
S'0'
sS'Mat'
p50
S'3'
sS'Conv'
p51
S'0'
sS'Tries'
p52
S'0'
sS'Pts'
p53
S'0'
sa(dp54
S'Pens'
p55
S'0'
sS'Sub'
p56
S'0'
sS'Lost'
p57
S'3'
sS'Drop'
p58
S'0'
sS'Start'
p59
S'4'
sS'Won'
p60
S'1'
sS'GfM'
p61
S'0'
sS'Draw'
p62
S'0'
sS'Mat'
p63
S'4'
sS'Conv'
p64
S'0'
sS'Tries'
p65
S'0'
sS'Pts'
p66
S'0'
sa(dp67
S'Pens'
p68
S'0'
sS'Sub'
p69
S'0'
sS'Lost'
p70
S'1'
sS'Drop'
p71
S'0'
sS'Start'
p72
S'2'
sS'Won'
p73
S'1'
sS'GfM'
p74
S'0'
sS'Draw'
p75
S'0'
sS'Mat'
p76
S'2'
sS'Conv'
p77
S'0'
sS'Tries'
p78
S'1'
sS'Pts'
p79
S'3'
sa(dp80
S'Pens'
p81
S'0'
sS'Sub'
p82
S'0'
sS'Lost'
p83
S'2'
sS'Drop'
p84
S'0'
sS'Start'
p85
S'3'
sS'Won'
p86
S'1'
sS'GfM'
p87
S'0'
sS'Draw'
p88
S'0'
sS'Mat'
p89
S'3'
sS'Conv'
p90
S'0'
sS'Tries'
p91
S'0'
sS'Pts'
p92
S'0'
sa(dp93
S'Pens'
p94
S'0'
sS'Sub'
p95
S'0'
sS'Lost'
p96
S'0'
sS'Drop'
p97
S'0'
sS'Start'
p98
S'1'
sS'Won'
p99
S'1'
sS'GfM'
p100
S'0'
sS'Draw'
p101
S'0'
sS'Mat'
p102
S'1'
sS'Conv'
p103
S'0'
sS'Tries'
p104
S'0'
sS'Pts'
p105
S'0'
sa(dp106
S'Pens'
p107
S'0'
sS'Sub'
p108
S'0'
sS'Lost'
p109
S'2'
sS'Drop'
p110
S'0'
sS'Start'
p111
S'3'
sS'Won'
p112
S'1'
sS'GfM'
p113
S'0'
sS'Draw'
p114
S'0'
sS'Mat'
p115
S'3'
sS'Conv'
p116
S'0'
sS'Tries'
p117
S'0'
sS'Pts'
p118
S'0'
sa(dp119
S'Pens'
p120
S'0'
sS'Sub'
p121
S'0'
sS'Lost'
p122
S'1'
sS'Drop'
p123
S'0'
sS'Start'
p124
S'2'
sS'Won'
p125
S'1'
sS'GfM'
p126
S'0'
sS'Draw'
p127
S'0'
sS'Mat'
p128
S'2'
sS'Conv'
p129
S'0'
sS'Tries'
p130
S'0'
sS'Pts'
p131
S'0'
sa(dp132
S'Pens'
p133
S'0'
sS'Sub'
p134
S'0'
sS'Lost'
p135
S'2'
sS'Drop'
p136
S'0'
sS'Start'
p137
S'3'
sS'Won'
p138
S'1'
sS'GfM'
p139
S'0'
sS'Draw'
p140
S'0'
sS'Mat'
p141
S'3'
sS'Conv'
p142
S'0'
sS'Tries'
p143
S'0'
sS'Pts'
p144
S'0'
sa(dp145
S'Pens'
p146
S'0'
sS'Sub'
p147
S'0'
sS'Lost'
p148
S'3'
sS'Drop'
p149
S'0'
sS'Start'
p150
S'4'
sS'Won'
p151
S'1'
sS'GfM'
p152
S'0'
sS'Draw'
p153
S'0'
sS'Mat'
p154
S'4'
sS'Conv'
p155
S'4'
sS'Tries'
p156
S'3'
sS'Pts'
p157
S'17'
p158
sa(dp159
S'Pens'
p160
S'0'
sS'Sub'
p161
S'0'
sS'Lost'
p162
S'1'
sS'Drop'
p163
S'0'
sS'Start'
p164
S'2'
sS'Won'
p165
S'1'
sS'GfM'
p166
S'0'
sS'Draw'
p167
S'0'
sS'Mat'
p168
S'2'
sS'Conv'
p169
S'0'
sS'Tries'
p170
S'0'
sS'Pts'
p171
S'0'
sa(dp172
S'Pens'
p173
S'0'
sS'Sub'
p174
S'0'
sS'Lost'
p175
S'3'
sS'Drop'
p176
S'0'
sS'Start'
p177
S'4'
sS'Won'
p178
S'1'
sS'GfM'
p179
S'0'
sS'Draw'
p180
S'0'
sS'Mat'
p181
S'4'
sS'Conv'
p182
S'0'
sS'Tries'
p183
S'0'
sS'Pts'
p184
S'0'
sa(dp185
S'Pens'
p186
S'0'
sS'Sub'
p187
S'0'
sS'Lost'
p188
S'2'
sS'Drop'
p189
S'0'
sS'Start'
p190
S'3'
sS'Won'
p191
S'1'
sS'GfM'
p192
S'0'
sS'Draw'
p193
S'0'
sS'Mat'
p194
S'3'
sS'Conv'
p195
S'0'
sS'Tries'
p196
S'0'
sS'Pts'
p197
S'0'
sa(dp198
S'Pens'
p199
S'0'
sS'Sub'
p200
S'0'
sS'Lost'
p201
S'1'
sS'Drop'
p202
S'0'
sS'Start'
p203
S'1'
sS'Won'
p204
S'0'
sS'GfM'
p205
S'0'
sS'Draw'
p206
S'0'
sS'Mat'
p207
S'1'
sS'Conv'
p208
S'0'
sS'Tries'
p209
S'0'
sS'Pts'
p210
S'0'
sa(dp211
S'Pens'
p212
S'0'
sS'Sub'
p213
S'0'
sS'Lost'
p214
S'1'
sS'Drop'
p215
S'0'
sS'Start'
p216
S'1'
sS'Won'
p217
S'0'
sS'GfM'
p218
S'0'
sS'Draw'
p219
S'0'
sS'Mat'
p220
S'1'
sS'Conv'
p221
S'0'
sS'Tries'
p222
S'0'
sS'Pts'
p223
S'0'
sa(dp224
S'Pens'
p225
S'0'
sS'Sub'
p226
S'0'
sS'Lost'
p227
S'1'
sS'Drop'
p228
S'0'
sS'Start'
p229
S'1'
sS'Won'
p230
S'0'
sS'GfM'
p231
S'0'
sS'Draw'
p232
S'0'
sS'Mat'
p233
S'1'
sS'Conv'
p234
S'0'
sS'Tries'
p235
S'0'
sS'Pts'
p236
S'0'
sa(dp237
S'Pens'
p238
S'0'
sS'Sub'
p239
S'0'
sS'Lost'
p240
S'1'
sS'Drop'
p241
S'0'
sS'Start'
p242
S'1'
sS'Won'
p243
S'0'
sS'GfM'
p244
S'0'
sS'Draw'
p245
S'0'
sS'Mat'
p246
S'1'
sS'Conv'
p247
S'0'
sS'Tries'
p248
S'0'
sS'Pts'
p249
S'0'
sa(dp250
S'Pens'
p251
S'0'
sS'Sub'
p252
S'0'
sS'Lost'
p253
S'1'
sS'Drop'
p254
S'0'
sS'Start'
p255
S'1'
sS'Won'
p256
S'0'
sS'GfM'
p257
S'0'
sS'Draw'
p258
S'0'
sS'Mat'
p259
S'1'
sS'Conv'
p260
S'0'
sS'Tries'
p261
S'0'
sS'Pts'
p262
S'0'
sa(dp263
S'Pens'
p264
S'0'
sS'Sub'
p265
S'0'
sS'Lost'
p266
S'1'
sS'Drop'
p267
S'0'
sS'Start'
p268
S'1'
sS'Won'
p269
S'0'
sS'GfM'
p270
S'0'
sS'Draw'
p271
S'0'
sS'Mat'
p272
S'1'
sS'Conv'
p273
S'0'
sS'Tries'
p274
S'0'
sS'Pts'
p275
S'0'
sa(dp276
S'Pens'
p277
S'0'
sS'Sub'
p278
S'0'
sS'Lost'
p279
S'1'
sS'Drop'
p280
S'0'
sS'Start'
p281
S'1'
sS'Won'
p282
S'0'
sS'GfM'
p283
S'0'
sS'Draw'
p284
S'0'
sS'Mat'
p285
S'1'
sS'Conv'
p286
S'0'
sS'Tries'
p287
S'0'
sS'Pts'
p288
S'0'
sa(dp289
S'Pens'
p290
S'0'
sS'Sub'
p291
S'0'
sS'Lost'
p292
S'1'
sS'Drop'
p293
S'0'
sS'Start'
p294
S'1'
sS'Won'
p295
S'0'
sS'GfM'
p296
S'0'
sS'Draw'
p297
S'0'
sS'Mat'
p298
S'1'
sS'Conv'
p299
S'0'
sS'Tries'
p300
S'0'
sS'Pts'
p301
S'0'
sa(dp302
S'Pens'
p303
S'0'
sS'Sub'
p304
S'0'
sS'Lost'
p305
S'3'
sS'Drop'
p306
S'0'
sS'Start'
p307
S'3'
sS'Won'
p308
S'0'
sS'GfM'
p309
S'0'
sS'Draw'
p310
S'0'
sS'Mat'
p311
S'3'
sS'Conv'
p312
S'0'
sS'Tries'
p313
S'0'
sS'Pts'
p314
S'0'
sa(dp315
S'Pens'
p316
S'0'
sS'Sub'
p317
S'0'
sS'Lost'
p318
S'1'
sS'Drop'
p319
S'0'
sS'Start'
p320
S'1'
sS'Won'
p321
S'0'
sS'GfM'
p322
S'0'
sS'Draw'
p323
S'0'
sS'Mat'
p324
S'1'
sS'Conv'
p325
S'0'
sS'Tries'
p326
S'0'
sS'Pts'
p327
S'0'
sa(dp328
S'Pens'
p329
S'0'
sS'Sub'
p330
S'0'
sS'Lost'
p331
S'1'
sS'Drop'
p332
S'0'
sS'Start'
p333
S'1'
sS'Won'
p334
S'0'
sS'GfM'
p335
S'0'
sS'Draw'
p336
S'0'
sS'Mat'
p337
S'1'
sS'Conv'
p338
S'0'
sS'Tries'
p339
S'0'
sS'Pts'
p340
S'0'
sa(dp341
S'Pens'
p342
S'0'
sS'Sub'
p343
S'0'
sS'Lost'
p344
S'2'
sS'Drop'
p345
S'0'
sS'Start'
p346
S'2'
sS'Won'
p347
S'0'
sS'GfM'
p348
S'0'
sS'Draw'
p349
S'0'
sS'Mat'
p350
S'2'
sS'Conv'
p351
S'0'
sS'Tries'
p352
S'0'
sS'Pts'
p353
S'0'
sa(dp354
S'Pens'
p355
S'0'
sS'Sub'
p356
S'0'
sS'Lost'
p357
S'1'
sS'Drop'
p358
S'0'
sS'Start'
p359
S'1'
sS'Won'
p360
S'0'
sS'GfM'
p361
S'0'
sS'Draw'
p362
S'0'
sS'Mat'
p363
S'1'
sS'Conv'
p364
S'0'
sS'Tries'
p365
S'0'
sS'Pts'
p366
S'0'
sa(dp367
S'Pens'
p368
S'0'
sS'Sub'
p369
S'0'
sS'Lost'
p370
S'2'
sS'Drop'
p371
S'0'
sS'Start'
p372
S'2'
sS'Won'
p373
S'0'
sS'GfM'
p374
S'0'
sS'Draw'
p375
S'0'
sS'Mat'
p376
S'2'
sS'Conv'
p377
S'0'
sS'Tries'
p378
S'0'
sS'Pts'
p379
S'0'
sa(dp380
S'Pens'
p381
S'0'
sS'Sub'
p382
S'0'
sS'Lost'
p383
S'2'
sS'Drop'
p384
S'0'
sS'Start'
p385
S'2'
sS'Won'
p386
S'0'
sS'GfM'
p387
S'0'
sS'Draw'
p388
S'0'
sS'Mat'
p389
S'2'
sS'Conv'
p390
S'0'
sS'Tries'
p391
S'0'
sS'Pts'
p392
S'0'
sa(dp393
S'Pens'
p394
S'0'
sS'Sub'
p395
S'0'
sS'Lost'
p396
S'2'
sS'Drop'
p397
S'0'
sS'Start'
p398
S'2'
sS'Won'
p399
S'0'
sS'GfM'
p400
S'0'
sS'Draw'
p401
S'0'
sS'Mat'
p402
S'2'
sS'Conv'
p403
S'0'
sS'Tries'
p404
S'0'
sS'Pts'
p405
S'0'
sa(dp406
S'Pens'
p407
S'0'
sS'Sub'
p408
S'0'
sS'Lost'
p409
S'1'
sS'Drop'
p410
S'0'
sS'Start'
p411
S'1'
sS'Won'
p412
S'0'
sS'GfM'
p413
S'0'
sS'Draw'
p414
S'0'
sS'Mat'
p415
S'1'
sS'Conv'
p416
S'0'
sS'Tries'
p417
S'0'
sS'Pts'
p418
S'0'
sa(dp419
S'Pens'
p420
S'0'
sS'Sub'
p421
S'0'
sS'Lost'
p422
S'1'
sS'Drop'
p423
S'0'
sS'Start'
p424
S'1'
sS'Won'
p425
S'0'
sS'GfM'
p426
S'0'
sS'Draw'
p427
S'0'
sS'Mat'
p428
S'1'
sS'Conv'
p429
S'0'
sS'Tries'
p430
S'0'
sS'Pts'
p431
S'0'
sa(dp432
S'Pens'
p433
S'0'
sS'Sub'
p434
S'0'
sS'Lost'
p435
S'4'
sS'Drop'
p436
S'0'
sS'Start'
p437
S'4'
sS'Won'
p438
S'0'
sS'GfM'
p439
S'0'
sS'Draw'
p440
S'0'
sS'Mat'
p441
S'4'
sS'Conv'
p442
S'0'
sS'Tries'
p443
S'1'
sS'Pts'
p444
S'3'
sa(dp445
S'Pens'
p446
S'0'
sS'Sub'
p447
S'0'
sS'Lost'
p448
S'3'
sS'Drop'
p449
S'0'
sS'Start'
p450
S'3'
sS'Won'
p451
S'0'
sS'GfM'
p452
S'0'
sS'Draw'
p453
S'0'
sS'Mat'
p454
S'3'
sS'Conv'
p455
S'0'
sS'Tries'
p456
S'0'
sS'Pts'
p457
S'0'
sa(dp458
S'Pens'
p459
S'0'
sS'Sub'
p460
S'0'
sS'Lost'
p461
S'1'
sS'Drop'
p462
S'0'
sS'Start'
p463
S'1'
sS'Won'
p464
S'0'
sS'GfM'
p465
S'0'
sS'Draw'
p466
S'0'
sS'Mat'
p467
S'1'
sS'Conv'
p468
S'0'
sS'Tries'
p469
S'0'
sS'Pts'
p470
S'0'
sa(dp471
S'Pens'
p472
S'0'
sS'Sub'
p473
S'0'
sS'Lost'
p474
S'5'
sS'Drop'
p475
S'0'
sS'Start'
p476
S'5'
sS'Won'
p477
S'0'
sS'GfM'
p478
S'0'
sS'Draw'
p479
S'0'
sS'Mat'
p480
S'5'
sS'Conv'
p481
S'0'
sS'Tries'
p482
S'0'
sS'Pts'
p483
S'0'
sa(dp484
S'Pens'
p485
S'0'
sS'Sub'
p486
S'0'
sS'Lost'
p487
S'1'
sS'Drop'
p488
S'0'
sS'Start'
p489
S'1'
sS'Won'
p490
S'0'
sS'GfM'
p491
S'0'
sS'Draw'
p492
S'0'
sS'Mat'
p493
S'1'
sS'Conv'
p494
S'0'
sS'Tries'
p495
S'0'
sS'Pts'
p496
S'0'
sa(dp497
S'Pens'
p498
S'0'
sS'Sub'
p499
S'0'
sS'Lost'
p500
S'4'
sS'Drop'
p501
S'0'
sS'Start'
p502
S'4'
sS'Won'
p503
S'0'
sS'GfM'
p504
S'0'
sS'Draw'
p505
S'0'
sS'Mat'
p506
S'4'
sS'Conv'
p507
S'0'
sS'Tries'
p508
S'0'
sS'Pts'
p509
S'0'
sa(dp510
S'Pens'
p511
S'0'
sS'Sub'
p512
S'0'
sS'Lost'
p513
S'1'
sS'Drop'
p514
S'0'
sS'Start'
p515
S'1'
sS'Won'
p516
S'0'
sS'GfM'
p517
S'0'
sS'Draw'
p518
S'0'
sS'Mat'
p519
S'1'
sS'Conv'
p520
S'0'
sS'Tries'
p521
S'0'
sS'Pts'
p522
S'0'
sa(dp523
S'Pens'
p524
S'0'
sS'Sub'
p525
S'0'
sS'Lost'
p526
S'2'
sS'Drop'
p527
S'0'
sS'Start'
p528
S'2'
sS'Won'
p529
S'0'
sS'GfM'
p530
S'0'
sS'Draw'
p531
S'0'
sS'Mat'
p532
S'2'
sS'Conv'
p533
S'0'
sS'Tries'
p534
S'0'
sS'Pts'
p535
S'0'
sa(dp536
S'Pens'
p537
S'0'
sS'Sub'
p538
S'0'
sS'Lost'
p539
S'4'
sS'Drop'
p540
S'0'
sS'Start'
p541
S'4'
sS'Won'
p542
S'0'
sS'GfM'
p543
S'0'
sS'Draw'
p544
S'0'
sS'Mat'
p545
S'4'
sS'Conv'
p546
S'0'
sS'Tries'
p547
S'0'
sS'Pts'
p548
S'0'
sa(dp549
S'Pens'
p550
S'0'
sS'Sub'
p551
S'0'
sS'Lost'
p552
S'1'
sS'Drop'
p553
S'0'
sS'Start'
p554
S'1'
sS'Won'
p555
S'0'
sS'GfM'
p556
S'0'
sS'Draw'
p557
S'0'
sS'Mat'
p558
S'1'
sS'Conv'
p559
S'0'
sS'Tries'
p560
S'0'
sS'Pts'
p561
S'0'
sa(dp562
S'Pens'
p563
S'1'
sS'Sub'
p564
S'0'
sS'Lost'
p565
S'5'
sS'Drop'
p566
S'0'
sS'Start'
p567
S'5'
sS'Won'
p568
S'0'
sS'GfM'
p569
S'0'
sS'Draw'
p570
S'0'
sS'Mat'
p571
S'5'
sS'Conv'
p572
S'0'
sS'Tries'
p573
S'0'
sS'Pts'
p574
S'3'
sa(dp575
S'Pens'
p576
S'0'
sS'Sub'
p577
S'0'
sS'Lost'
p578
S'2'
sS'Drop'
p579
S'0'
sS'Start'
p580
S'2'
sS'Won'
p581
S'0'
sS'GfM'
p582
S'0'
sS'Draw'
p583
S'0'
sS'Mat'
p584
S'2'
sS'Conv'
p585
S'0'
sS'Tries'
p586
S'0'
sS'Pts'
p587
S'0'
sa(dp588
S'Pens'
p589
S'0'
sS'Sub'
p590
S'0'
sS'Lost'
p591
S'2'
sS'Drop'
p592
S'0'
sS'Start'
p593
S'2'
sS'Won'
p594
S'0'
sS'GfM'
p595
S'0'
sS'Draw'
p596
S'0'
sS'Mat'
p597
S'2'
sS'Conv'
p598
S'0'
sS'Tries'
p599
S'0'
sS'Pts'
p600
S'0'
sa(dp601
S'Pens'
p602
S'0'
sS'Sub'
p603
S'0'
sS'Lost'
p604
S'1'
sS'Drop'
p605
S'0'
sS'Start'
p606
S'1'
sS'Won'
p607
S'0'
sS'GfM'
p608
S'0'
sS'Draw'
p609
S'0'
sS'Mat'
p610
S'1'
sS'Conv'
p611
S'0'
sS'Tries'
p612
S'0'
sS'Pts'
p613
S'0'
sa(dp614
S'Pens'
p615
S'0'
sS'Sub'
p616
S'0'
sS'Lost'
p617
S'1'
sS'Drop'
p618
S'0'
sS'Start'
p619
S'1'
sS'Won'
p620
S'0'
sS'GfM'
p621
S'0'
sS'Draw'
p622
S'0'
sS'Mat'
p623
S'1'
sS'Conv'
p624
S'0'
sS'Tries'
p625
S'0'
sS'Pts'
p626
S'0'
sa(dp627
S'Pens'
p628
S'0'
sS'Sub'
p629
S'1'
sS'Lost'
p630
S'5'
sS'Drop'
p631
S'0'
sS'Start'
p632
S'4'
sS'Won'
p633
S'0'
sS'GfM'
p634
S'0'
sS'Draw'
p635
S'0'
sS'Mat'
p636
S'5'
sS'Conv'
p637
S'0'
sS'Tries'
p638
S'0'
sS'Pts'
p639
S'0'
sa(dp640
S'Pens'
p641
S'0'
sS'Sub'
p642
S'0'
sS'Lost'
p643
S'2'
sS'Drop'
p644
S'0'
sS'Start'
p645
S'2'
sS'Won'
p646
S'0'
sS'GfM'
p647
S'0'
sS'Draw'
p648
S'0'
sS'Mat'
p649
S'2'
sS'Conv'
p650
S'0'
sS'Tries'
p651
S'0'
sS'Pts'
p652
S'0'
sa(dp653
S'Pens'
p654
S'0'
sS'Sub'
p655
S'0'
sS'Lost'
p656
S'3'
sS'Drop'
p657
S'0'
sS'Start'
p658
S'3'
sS'Won'
p659
S'0'
sS'GfM'
p660
S'0'
sS'Draw'
p661
S'0'
sS'Mat'
p662
S'3'
sS'Conv'
p663
S'0'
sS'Tries'
p664
S'0'
sS'Pts'
p665
S'0'
sa(dp666
S'Pens'
p667
S'1'
sS'Sub'
p668
S'0'
sS'Lost'
p669
S'3'
sS'Drop'
p670
S'0'
sS'Start'
p671
S'4'
sS'Won'
p672
S'1'
sS'GfM'
p673
S'1'
sS'Draw'
p674
S'0'
sS'Mat'
p675
S'4'
sS'Conv'
p676
S'0'
sS'Tries'
p677
S'0'
sS'Pts'
p678
S'6'
sa(dp679
S'Pens'
p680
S'0'
sS'Sub'
p681
S'0'
sS'Lost'
p682
S'1'
sS'Drop'
p683
S'0'
sS'Start'
p684
S'1'
sS'Won'
p685
S'0'
sS'GfM'
p686
S'0'
sS'Draw'
p687
S'0'
sS'Mat'
p688
S'1'
sS'Conv'
p689
S'0'
sS'Tries'
p690
S'0'
sS'Pts'
p691
S'0'
sa(dp692
S'Pens'
p693
S'0'
sS'Sub'
p694
S'0'
sS'Lost'
p695
S'3'
sS'Drop'
p696
S'0'
sS'Start'
p697
S'3'
sS'Won'
p698
S'0'
sS'GfM'
p699
S'0'
sS'Draw'
p700
S'0'
sS'Mat'
p701
S'3'
sS'Conv'
p702
S'0'
sS'Tries'
p703
S'1'
sS'Pts'
p704
S'3'
sa(dp705
S'Pens'
p706
S'0'
sS'Sub'
p707
S'0'
sS'Lost'
p708
S'1'
sS'Drop'
p709
S'0'
sS'Start'
p710
S'1'
sS'Won'
p711
S'0'
sS'GfM'
p712
S'0'
sS'Draw'
p713
S'0'
sS'Mat'
p714
S'1'
sS'Conv'
p715
S'0'
sS'Tries'
p716
S'0'
sS'Pts'
p717
S'0'
sa(dp718
S'Pens'
p719
S'0'
sS'Sub'
p720
S'0'
sS'Lost'
p721
S'2'
sS'Drop'
p722
S'0'
sS'Start'
p723
S'2'
sS'Won'
p724
S'0'
sS'GfM'
p725
S'0'
sS'Draw'
p726
S'0'
sS'Mat'
p727
S'2'
sS'Conv'
p728
S'0'
sS'Tries'
p729
S'0'
sS'Pts'
p730
S'0'
sa(dp731
S'Pens'
p732
S'0'
sS'Sub'
p733
S'0'
sS'Lost'
p734
S'4'
sS'Drop'
p735
S'0'
sS'Start'
p736
S'4'
sS'Won'
p737
S'0'
sS'GfM'
p738
S'0'
sS'Draw'
p739
S'0'
sS'Mat'
p740
S'4'
sS'Conv'
p741
S'0'
sS'Tries'
p742
S'0'
sS'Pts'
p743
S'0'
sa(dp744
S'Pens'
p745
S'0'
sS'Sub'
p746
S'0'
sS'Lost'
p747
S'1'
sS'Drop'
p748
S'0'
sS'Start'
p749
S'1'
sS'Won'
p750
S'0'
sS'GfM'
p751
S'0'
sS'Draw'
p752
S'0'
sS'Mat'
p753
S'1'
sS'Conv'
p754
S'0'
sS'Tries'
p755
S'0'
sS'Pts'
p756
S'0'
sa(dp757
S'Pens'
p758
S'0'
sS'Sub'
p759
S'0'
sS'Lost'
p760
S'1'
sS'Drop'
p761
S'0'
sS'Start'
p762
S'1'
sS'Won'
p763
S'0'
sS'GfM'
p764
S'0'
sS'Draw'
p765
S'0'
sS'Mat'
p766
S'1'
sS'Conv'
p767
S'0'
sS'Tries'
p768
S'0'
sS'Pts'
p769
S'0'
sa(dp770
S'Pens'
p771
S'0'
sS'Sub'
p772
S'0'
sS'Lost'
p773
S'1'
sS'Drop'
p774
S'0'
sS'Start'
p775
S'1'
sS'Won'
p776
S'0'
sS'GfM'
p777
S'0'
sS'Draw'
p778
S'0'
sS'Mat'
p779
S'1'
sS'Conv'
p780
S'0'
sS'Tries'
p781
S'0'
sS'Pts'
p782
S'0'
sa(dp783
S'Pens'
p784
S'0'
sS'Sub'
p785
S'0'
sS'Lost'
p786
S'1'
sS'Drop'
p787
S'0'
sS'Start'
p788
S'1'
sS'Won'
p789
S'0'
sS'GfM'
p790
S'0'
sS'Draw'
p791
S'0'
sS'Mat'
p792
S'1'
sS'Conv'
p793
S'0'
sS'Tries'
p794
S'0'
sS'Pts'
p795
S'0'
sa(dp796
S'Pens'
p797
S'0'
sS'Sub'
p798
S'0'
sS'Lost'
p799
S'1'
sS'Drop'
p800
S'0'
sS'Start'
p801
S'1'
sS'Won'
p802
S'0'
sS'GfM'
p803
S'0'
sS'Draw'
p804
S'0'
sS'Mat'
p805
S'1'
sS'Conv'
p806
S'0'
sS'Tries'
p807
S'0'
sS'Pts'
p808
S'0'
sa(dp809
S'Pens'
p810
S'0'
sS'Sub'
p811
S'0'
sS'Lost'
p812
S'1'
sS'Drop'
p813
S'0'
sS'Start'
p814
S'1'
sS'Won'
p815
S'0'
sS'GfM'
p816
S'0'
sS'Draw'
p817
S'0'
sS'Mat'
p818
S'1'
sS'Conv'
p819
S'0'
sS'Tries'
p820
S'0'
sS'Pts'
p821
S'0'
sa(dp822
S'Pens'
p823
S'0'
sS'Sub'
p824
S'0'
sS'Lost'
p825
S'1'
sS'Drop'
p826
S'0'
sS'Start'
p827
S'1'
sS'Won'
p828
S'0'
sS'GfM'
p829
S'0'
sS'Draw'
p830
S'0'
sS'Mat'
p831
S'1'
sS'Conv'
p832
S'0'
sS'Tries'
p833
S'0'
sS'Pts'
p834
S'0'
sa(dp835
S'Pens'
p836
S'0'
sS'Sub'
p837
S'0'
sS'Lost'
p838
S'3'
sS'Drop'
p839
S'0'
sS'Start'
p840
S'4'
sS'Won'
p841
S'1'
sS'GfM'
p842
S'0'
sS'Draw'
p843
S'0'
sS'Mat'
p844
S'4'
sS'Conv'
p845
S'0'
sS'Tries'
p846
S'0'
sS'Pts'
p847
S'0'
sa(dp848
S'Pens'
p849
S'0'
sS'Sub'
p850
S'0'
sS'Lost'
p851
S'1'
sS'Drop'
p852
S'0'
sS'Start'
p853
S'1'
sS'Won'
p854
S'0'
sS'GfM'
p855
S'0'
sS'Draw'
p856
S'0'
sS'Mat'
p857
S'1'
sS'Conv'
p858
S'0'
sS'Tries'
p859
S'0'
sS'Pts'
p860
S'0'
sa(dp861
S'Pens'
p862
S'0'
sS'Sub'
p863
S'0'
sS'Lost'
p864
S'1'
sS'Drop'
p865
S'0'
sS'Start'
p866
S'1'
sS'Won'
p867
S'0'
sS'GfM'
p868
S'0'
sS'Draw'
p869
S'0'
sS'Mat'
p870
S'1'
sS'Conv'
p871
S'0'
sS'Tries'
p872
S'0'
sS'Pts'
p873
S'0'
sa(dp874
S'Pens'
p875
S'0'
sS'Sub'
p876
S'0'
sS'Lost'
p877
S'1'
sS'Drop'
p878
S'0'
sS'Start'
p879
S'1'
sS'Won'
p880
S'0'
sS'GfM'
p881
S'0'
sS'Draw'
p882
S'0'
sS'Mat'
p883
S'1'
sS'Conv'
p884
S'0'
sS'Tries'
p885
S'0'
sS'Pts'
p886
S'0'
sa(dp887
S'Pens'
p888
S'0'
sS'Sub'
p889
S'0'
sS'Lost'
p890
S'1'
sS'Drop'
p891
S'0'
sS'Start'
p892
S'1'
sS'Won'
p893
S'0'
sS'GfM'
p894
S'0'
sS'Draw'
p895
S'0'
sS'Mat'
p896
S'1'
sS'Conv'
p897
S'0'
sS'Tries'
p898
S'0'
sS'Pts'
p899
S'0'
sa(dp900
S'Pens'
p901
S'0'
sS'Sub'
p902
S'0'
sS'Lost'
p903
S'3'
sS'Drop'
p904
S'0'
sS'Start'
p905
S'4'
sS'Won'
p906
S'0'
sS'GfM'
p907
S'0'
sS'Draw'
p908
S'1'
sS'Mat'
p909
S'4'
sS'Conv'
p910
S'0'
sS'Tries'
p911
S'0'
sS'Pts'
p912
S'0'
sa(dp913
S'Pens'
p914
S'0'
sS'Sub'
p915
S'0'
sS'Lost'
p916
S'1'
sS'Drop'
p917
S'0'
sS'Start'
p918
S'1'
sS'Won'
p919
S'0'
sS'GfM'
p920
S'0'
sS'Draw'
p921
S'0'
sS'Mat'
p922
S'1'
sS'Conv'
p923
S'0'
sS'Tries'
p924
S'0'
sS'Pts'
p925
S'0'
sa(dp926
S'Pens'
p927
S'0'
sS'Sub'
p928
S'0'
sS'Lost'
p929
S'2'
sS'Drop'
p930
S'0'
sS'Start'
p931
S'8'
sS'Won'
p932
S'6'
sS'GfM'
p933
S'0'
sS'Draw'
p934
S'0'
sS'Mat'
p935
S'8'
sS'Conv'
p936
S'0'
sS'Tries'
p937
S'1'
sS'Pts'
p938
S'3'
sa(dp939
S'Pens'
p940
S'0'
sS'Sub'
p941
S'0'
sS'Lost'
p942
S'3'
sS'Drop'
p943
S'0'
sS'Start'
p944
S'5'
sS'Won'
p945
S'1'
sS'GfM'
p946
S'0'
sS'Draw'
p947
S'1'
sS'Mat'
p948
S'5'
sS'Conv'
p949
S'0'
sS'Tries'
p950
S'0'
sS'Pts'
p951
S'0'
sa(dp952
S'Pens'
p953
S'0'
sS'Sub'
p954
S'0'
sS'Lost'
p955
S'2'
sS'Drop'
p956
S'0'
sS'Start'
p957
S'3'
sS'Won'
p958
S'0'
sS'GfM'
p959
S'0'
sS'Draw'
p960
S'1'
sS'Mat'
p961
S'3'
sS'Conv'
p962
S'0'
sS'Tries'
p963
S'0'
sS'Pts'
p964
S'0'
sa(dp965
S'Pens'
p966
S'0'
sS'Sub'
p967
S'0'
sS'Lost'
p968
S'2'
sS'Drop'
p969
S'0'
sS'Start'
p970
S'4'
sS'Won'
p971
S'1'
sS'GfM'
p972
S'0'
sS'Draw'
p973
S'1'
sS'Mat'
p974
S'4'
sS'Conv'
p975
S'0'
sS'Tries'
p976
S'0'
sS'Pts'
p977
S'0'
sa(dp978
S'Pens'
p979
S'0'
sS'Sub'
p980
S'0'
sS'Lost'
p981
S'2'
sS'Drop'
p982
S'0'
sS'Start'
p983
S'2'
sS'Won'
p984
S'0'
sS'GfM'
p985
S'0'
sS'Draw'
p986
S'0'
sS'Mat'
p987
S'2'
sS'Conv'
p988
S'0'
sS'Tries'
p989
S'0'
sS'Pts'
p990
S'0'
sa(dp991
S'Pens'
p992
S'0'
sS'Sub'
p993
S'0'
sS'Lost'
p994
S'3'
sS'Drop'
p995
S'0'
sS'Start'
p996
S'6'
sS'Won'
p997
S'2'
sS'GfM'
p998
S'0'
sS'Draw'
p999
S'1'
sS'Mat'
p1000
S'6'
sS'Conv'
p1001
S'0'
sS'Tries'
p1002
S'0'
sS'Pts'
p1003
S'0'
sa(dp1004
S'Pens'
p1005
S'0'
sS'Sub'
p1006
S'0'
sS'Lost'
p1007
S'1'
sS'Drop'
p1008
S'0'
sS'Start'
p1009
S'2'
sS'Won'
p1010
S'0'
sS'GfM'
p1011
S'0'
sS'Draw'
p1012
S'1'
sS'Mat'
p1013
S'2'
sS'Conv'
p1014
S'0'
sS'Tries'
p1015
S'0'
sS'Pts'
p1016
S'0'
sa(dp1017
S'Pens'
p1018
S'0'
sS'Sub'
p1019
S'0'
sS'Lost'
p1020
S'2'
sS'Drop'
p1021
S'0'
sS'Start'
p1022
S'4'
sS'Won'
p1023
S'1'
sS'GfM'
p1024
S'0'
sS'Draw'
p1025
S'1'
sS'Mat'
p1026
S'4'
sS'Conv'
p1027
S'0'
sS'Tries'
p1028
S'0'
sS'Pts'
p1029
S'0'
sa(dp1030
S'Pens'
p1031
S'0'
sS'Sub'
p1032
S'0'
sS'Lost'
p1033
S'2'
sS'Drop'
p1034
S'0'
sS'Start'
p1035
S'4'
sS'Won'
p1036
S'1'
sS'GfM'
p1037
S'0'
sS'Draw'
p1038
S'1'
sS'Mat'
p1039
S'4'
sS'Conv'
p1040
S'0'
sS'Tries'
p1041
S'0'
sS'Pts'
p1042
S'0'
sa(dp1043
S'Pens'
p1044
S'0'
sS'Sub'
p1045
S'0'
sS'Lost'
p1046
S'1'
sS'Drop'
p1047
S'0'
sS'Start'
p1048
S'2'
sS'Won'
p1049
S'0'
sS'GfM'
p1050
S'0'
sS'Draw'
p1051
S'1'
sS'Mat'
p1052
S'2'
sS'Conv'
p1053
S'0'
sS'Tries'
p1054
S'0'
sS'Pts'
p1055
S'0'
sa(dp1056
S'Pens'
p1057
S'1'
sS'Sub'
p1058
S'0'
sS'Lost'
p1059
S'3'
sS'Drop'
p1060
S'0'
sS'Start'
p1061
S'6'
sS'Won'
p1062
S'2'
sS'GfM'
p1063
S'0'
sS'Draw'
p1064
S'1'
sS'Mat'
p1065
S'6'
sS'Conv'
p1066
S'3'
sS'Tries'
p1067
S'2'
sS'Pts'
p1068
S'15'
p1069
sa(dp1070
S'Pens'
p1071
S'0'
sS'Sub'
p1072
S'0'
sS'Lost'
p1073
S'3'
sS'Drop'
p1074
S'0'
sS'Start'
p1075
S'5'
sS'Won'
p1076
S'1'
sS'GfM'
p1077
S'0'
sS'Draw'
p1078
S'1'
sS'Mat'
p1079
S'5'
sS'Conv'
p1080
S'0'
sS'Tries'
p1081
S'3'
sS'Pts'
p1082
S'9'
sa(dp1083
S'Pens'
p1084
S'0'
sS'Sub'
p1085
S'0'
sS'Lost'
p1086
S'1'
sS'Drop'
p1087
S'0'
sS'Start'
p1088
S'1'
sS'Won'
p1089
S'0'
sS'GfM'
p1090
S'0'
sS'Draw'
p1091
S'0'
sS'Mat'
p1092
S'1'
sS'Conv'
p1093
S'0'
sS'Tries'
p1094
S'0'
sS'Pts'
p1095
S'0'
sa(dp1096
S'Pens'
p1097
S'0'
sS'Sub'
p1098
S'0'
sS'Lost'
p1099
S'9'
sS'Drop'
p1100
S'0'
sS'Start'
p1101
S'12'
p1102
sS'Won'
p1103
S'2'
sS'GfM'
p1104
S'0'
sS'Draw'
p1105
S'1'
sS'Mat'
p1106
S'12'
p1107
sS'Conv'
p1108
S'0'
sS'Tries'
p1109
S'1'
sS'Pts'
p1110
S'3'
sa(dp1111
S'Pens'
p1112
S'0'
sS'Sub'
p1113
S'1'
sS'Lost'
p1114
S'1'
sS'Drop'
p1115
S'0'
sS'Start'
p1116
S'0'
sS'Won'
p1117
S'0'
sS'GfM'
p1118
S'0'
sS'Draw'
p1119
S'0'
sS'Mat'
p1120
S'1'
sS'Conv'
p1121
S'0'
sS'Tries'
p1122
S'0'
sS'Pts'
p1123
S'0'
sa(dp1124
S'Pens'
p1125
S'0'
sS'Sub'
p1126
S'0'
sS'Lost'
p1127
S'1'
sS'Drop'
p1128
S'0'
sS'Start'
p1129
S'1'
sS'Won'
p1130
S'0'
sS'GfM'
p1131
S'0'
sS'Draw'
p1132
S'0'
sS'Mat'
p1133
S'1'
sS'Conv'
p1134
S'0'
sS'Tries'
p1135
S'0'
sS'Pts'
p1136
S'0'
sa(dp1137
S'Pens'
p1138
S'0'
sS'Sub'
p1139
S'0'
sS'Lost'
p1140
S'1'
sS'Drop'
p1141
S'0'
sS'Start'
p1142
S'1'
sS'Won'
p1143
S'0'
sS'GfM'
p1144
S'0'
sS'Draw'
p1145
S'0'
sS'Mat'
p1146
S'1'
sS'Conv'
p1147
S'0'
sS'Tries'
p1148
S'0'
sS'Pts'
p1149
S'0'
sa(dp1150
S'Pens'
p1151
S'0'
sS'Sub'
p1152
S'0'
sS'Lost'
p1153
S'2'
sS'Drop'
p1154
S'0'
sS'Start'
p1155
S'3'
sS'Won'
p1156
S'0'
sS'GfM'
p1157
S'0'
sS'Draw'
p1158
S'1'
sS'Mat'
p1159
S'3'
sS'Conv'
p1160
S'0'
sS'Tries'
p1161
S'0'
sS'Pts'
p1162
S'0'
sa(dp1163
S'Pens'
p1164
S'0'
sS'Sub'
p1165
S'0'
sS'Lost'
p1166
S'1'
sS'Drop'
p1167
S'0'
sS'Start'
p1168
S'2'
sS'Won'
p1169
S'0'
sS'GfM'
p1170
S'0'
sS'Draw'
p1171
S'1'
sS'Mat'
p1172
S'2'
sS'Conv'
p1173
S'2'
sS'Tries'
p1174
S'1'
sS'Pts'
p1175
S'7'
sa(dp1176
S'Pens'
p1177
S'0'
sS'Sub'
p1178
S'0'
sS'Lost'
p1179
S'1'
sS'Drop'
p1180
S'0'
sS'Start'
p1181
S'1'
sS'Won'
p1182
S'0'
sS'GfM'
p1183
S'0'
sS'Draw'
p1184
S'0'
sS'Mat'
p1185
S'1'
sS'Conv'
p1186
S'0'
sS'Tries'
p1187
S'0'
sS'Pts'
p1188
S'0'
sa(dp1189
S'Pens'
p1190
S'0'
sS'Sub'
p1191
S'0'
sS'Lost'
p1192
S'1'
sS'Drop'
p1193
S'0'
sS'Start'
p1194
S'2'
sS'Won'
p1195
S'0'
sS'GfM'
p1196
S'0'
sS'Draw'
p1197
S'1'
sS'Mat'
p1198
S'2'
sS'Conv'
p1199
S'0'
sS'Tries'
p1200
S'0'
sS'Pts'
p1201
S'0'
sa(dp1202
S'Pens'
p1203
S'0'
sS'Sub'
p1204
S'0'
sS'Lost'
p1205
S'3'
sS'Drop'
p1206
S'0'
sS'Start'
p1207
S'5'
sS'Won'
p1208
S'2'
sS'GfM'
p1209
S'0'
sS'Draw'
p1210
S'0'
sS'Mat'
p1211
S'5'
sS'Conv'
p1212
S'0'
sS'Tries'
p1213
S'1'
sS'Pts'
p1214
S'3'
sa(dp1215
S'Pens'
p1216
S'0'
sS'Sub'
p1217
S'0'
sS'Lost'
p1218
S'1'
sS'Drop'
p1219
S'0'
sS'Start'
p1220
S'1'
sS'Won'
p1221
S'0'
sS'GfM'
p1222
S'0'
sS'Draw'
p1223
S'0'
sS'Mat'
p1224
S'1'
sS'Conv'
p1225
S'0'
sS'Tries'
p1226
S'0'
sS'Pts'
p1227
S'0'
sa(dp1228
S'Pens'
p1229
S'0'
sS'Sub'
p1230
S'0'
sS'Lost'
p1231
S'1'
sS'Drop'
p1232
S'0'
sS'Start'
p1233
S'2'
sS'Won'
p1234
S'1'
sS'GfM'
p1235
S'0'
sS'Draw'
p1236
S'0'
sS'Mat'
p1237
S'2'
sS'Conv'
p1238
S'0'
sS'Tries'
p1239
S'0'
sS'Pts'
p1240
S'0'
sa(dp1241
S'Pens'
p1242
S'0'
sS'Sub'
p1243
S'0'
sS'Lost'
p1244
S'1'
sS'Drop'
p1245
S'0'
sS'Start'
p1246
S'2'
sS'Won'
p1247
S'1'
sS'GfM'
p1248
S'0'
sS'Draw'
p1249
S'0'
sS'Mat'
p1250
S'2'
sS'Conv'
p1251
S'0'
sS'Tries'
p1252
S'0'
sS'Pts'
p1253
S'0'
sa(dp1254
S'Pens'
p1255
S'0'
sS'Sub'
p1256
S'0'
sS'Lost'
p1257
S'1'
sS'Drop'
p1258
S'0'
sS'Start'
p1259
S'1'
sS'Won'
p1260
S'0'
sS'GfM'
p1261
S'0'
sS'Draw'
p1262
S'0'
sS'Mat'
p1263
S'1'
sS'Conv'
p1264
S'0'
sS'Tries'
p1265
S'0'
sS'Pts'
p1266
S'0'
sa(dp1267
S'Pens'
p1268
S'1'
sS'Sub'
p1269
S'0'
sS'Lost'
p1270
S'3'
sS'Drop'
p1271
S'0'
sS'Start'
p1272
S'6'
sS'Won'
p1273
S'3'
sS'GfM'
p1274
S'0'
sS'Draw'
p1275
S'0'
sS'Mat'
p1276
S'6'
sS'Conv'
p1277
S'0'
sS'Tries'
p1278
S'0'
sS'Pts'
p1279
S'3'
sa(dp1280
S'Pens'
p1281
S'0'
sS'Sub'
p1282
S'0'
sS'Lost'
p1283
S'2'
sS'Drop'
p1284
S'0'
sS'Start'
p1285
S'5'
sS'Won'
p1286
S'3'
sS'GfM'
p1287
S'0'
sS'Draw'
p1288
S'0'
sS'Mat'
p1289
S'5'
sS'Conv'
p1290
S'0'
sS'Tries'
p1291
S'2'
sS'Pts'
p1292
S'6'
sa(dp1293
S'Pens'
p1294
S'0'
sS'Sub'
p1295
S'0'
sS'Lost'
p1296
S'0'
sS'Drop'
p1297
S'0'
sS'Start'
p1298
S'1'
sS'Won'
p1299
S'1'
sS'GfM'
p1300
S'0'
sS'Draw'
p1301
S'0'
sS'Mat'
p1302
S'1'
sS'Conv'
p1303
S'0'
sS'Tries'
p1304
S'0'
sS'Pts'
p1305
S'0'
sa(dp1306
S'Pens'
p1307
S'0'
sS'Sub'
p1308
S'0'
sS'Lost'
p1309
S'0'
sS'Drop'
p1310
S'0'
sS'Start'
p1311
S'1'
sS'Won'
p1312
S'1'
sS'GfM'
p1313
S'0'
sS'Draw'
p1314
S'0'
sS'Mat'
p1315
S'1'
sS'Conv'
p1316
S'0'
sS'Tries'
p1317
S'0'
sS'Pts'
p1318
S'0'
sa(dp1319
S'Pens'
p1320
S'0'
sS'Sub'
p1321
S'0'
sS'Lost'
p1322
S'0'
sS'Drop'
p1323
S'0'
sS'Start'
p1324
S'1'
sS'Won'
p1325
S'1'
sS'GfM'
p1326
S'0'
sS'Draw'
p1327
S'0'
sS'Mat'
p1328
S'1'
sS'Conv'
p1329
S'0'
sS'Tries'
p1330
S'0'
sS'Pts'
p1331
S'0'
sa(dp1332
S'Pens'
p1333
S'0'
sS'Sub'
p1334
S'0'
sS'Lost'
p1335
S'2'
sS'Drop'
p1336
S'0'
sS'Start'
p1337
S'4'
sS'Won'
p1338
S'2'
sS'GfM'
p1339
S'0'
sS'Draw'
p1340
S'0'
sS'Mat'
p1341
S'4'
sS'Conv'
p1342
S'0'
sS'Tries'
p1343
S'0'
sS'Pts'
p1344
S'0'
sa(dp1345
S'Pens'
p1346
S'0'
sS'Sub'
p1347
S'0'
sS'Lost'
p1348
S'2'
sS'Drop'
p1349
S'0'
sS'Start'
p1350
S'3'
sS'Won'
p1351
S'1'
sS'GfM'
p1352
S'0'
sS'Draw'
p1353
S'0'
sS'Mat'
p1354
S'3'
sS'Conv'
p1355
S'0'
sS'Tries'
p1356
S'0'
sS'Pts'
p1357
S'0'
sa(dp1358
S'Pens'
p1359
S'0'
sS'Sub'
p1360
S'0'
sS'Lost'
p1361
S'2'
sS'Drop'
p1362
S'0'
sS'Start'
p1363
S'4'
sS'Won'
p1364
S'2'
sS'GfM'
p1365
S'0'
sS'Draw'
p1366
S'0'
sS'Mat'
p1367
S'4'
sS'Conv'
p1368
S'0'
sS'Tries'
p1369
S'0'
sS'Pts'
p1370
S'0'
sa(dp1371
S'Pens'
p1372
S'0'
sS'Sub'
p1373
S'0'
sS'Lost'
p1374
S'5'
sS'Drop'
p1375
S'1'
sS'Start'
p1376
S'8'
sS'Won'
p1377
S'3'
sS'GfM'
p1378
S'0'
sS'Draw'
p1379
S'0'
sS'Mat'
p1380
S'8'
sS'Conv'
p1381
S'0'
sS'Tries'
p1382
S'0'
sS'Pts'
p1383
S'4'
sa(dp1384
S'Pens'
p1385
S'0'
sS'Sub'
p1386
S'0'
sS'Lost'
p1387
S'1'
sS'Drop'
p1388
S'0'
sS'Start'
p1389
S'1'
sS'Won'
p1390
S'0'
sS'GfM'
p1391
S'0'
sS'Draw'
p1392
S'0'
sS'Mat'
p1393
S'1'
sS'Conv'
p1394
S'0'
sS'Tries'
p1395
S'0'
sS'Pts'
p1396
S'0'
sa(dp1397
S'Pens'
p1398
S'0'
sS'Sub'
p1399
S'0'
sS'Lost'
p1400
S'5'
sS'Drop'
p1401
S'0'
sS'Start'
p1402
S'8'
sS'Won'
p1403
S'3'
sS'GfM'
p1404
S'0'
sS'Draw'
p1405
S'0'
sS'Mat'
p1406
S'8'
sS'Conv'
p1407
S'0'
sS'Tries'
p1408
S'0'
sS'Pts'
p1409
S'0'
sa(dp1410
S'Pens'
p1411
S'0'
sS'Sub'
p1412
S'0'
sS'Lost'
p1413
S'2'
sS'Drop'
p1414
S'0'
sS'Start'
p1415
S'3'
sS'Won'
p1416
S'1'
sS'GfM'
p1417
S'0'
sS'Draw'
p1418
S'0'
sS'Mat'
p1419
S'3'
sS'Conv'
p1420
S'0'
sS'Tries'
p1421
S'3'
sS'Pts'
p1422
S'9'
sa(dp1423
S'Pens'
p1424
S'0'
sS'Sub'
p1425
S'0'
sS'Lost'
p1426
S'2'
sS'Drop'
p1427
S'0'
sS'Start'
p1428
S'3'
sS'Won'
p1429
S'1'
sS'GfM'
p1430
S'0'
sS'Draw'
p1431
S'0'
sS'Mat'
p1432
S'3'
sS'Conv'
p1433
S'0'
sS'Tries'
p1434
S'1'
sS'Pts'
p1435
S'3'
sa(dp1436
S'Pens'
p1437
S'0'
sS'Sub'
p1438
S'0'
sS'Lost'
p1439
S'7'
sS'Drop'
p1440
S'0'
sS'Start'
p1441
S'9'
sS'Won'
p1442
S'2'
sS'GfM'
p1443
S'0'
sS'Draw'
p1444
S'0'
sS'Mat'
p1445
S'9'
sS'Conv'
p1446
S'0'
sS'Tries'
p1447
S'0'
sS'Pts'
p1448
S'0'
sa(dp1449
S'Pens'
p1450
S'0'
sS'Sub'
p1451
S'0'
sS'Lost'
p1452
S'1'
sS'Drop'
p1453
S'0'
sS'Start'
p1454
S'2'
sS'Won'
p1455
S'1'
sS'GfM'
p1456
S'0'
sS'Draw'
p1457
S'0'
sS'Mat'
p1458
S'2'
sS'Conv'
p1459
S'0'
sS'Tries'
p1460
S'0'
sS'Pts'
p1461
S'0'
sa(dp1462
S'Pens'
p1463
S'0'
sS'Sub'
p1464
S'0'
sS'Lost'
p1465
S'1'
sS'Drop'
p1466
S'0'
sS'Start'
p1467
S'2'
sS'Won'
p1468
S'1'
sS'GfM'
p1469
S'0'
sS'Draw'
p1470
S'0'
sS'Mat'
p1471
S'2'
sS'Conv'
p1472
S'0'
sS'Tries'
p1473
S'0'
sS'Pts'
p1474
S'0'
sa(dp1475
S'Pens'
p1476
S'0'
sS'Sub'
p1477
S'1'
sS'Lost'
p1478
S'1'
sS'Drop'
p1479
S'0'
sS'Start'
p1480
S'1'
sS'Won'
p1481
S'1'
sS'GfM'
p1482
S'0'
sS'Draw'
p1483
S'0'
sS'Mat'
p1484
S'2'
sS'Conv'
p1485
S'0'
sS'Tries'
p1486
S'0'
sS'Pts'
p1487
S'0'
sa(dp1488
S'Pens'
p1489
S'0'
sS'Sub'
p1490
S'0'
sS'Lost'
p1491
S'1'
sS'Drop'
p1492
S'0'
sS'Start'
p1493
S'1'
sS'Won'
p1494
S'0'
sS'GfM'
p1495
S'0'
sS'Draw'
p1496
S'0'
sS'Mat'
p1497
S'1'
sS'Conv'
p1498
S'0'
sS'Tries'
p1499
S'0'
sS'Pts'
p1500
S'0'
sa(dp1501
S'Pens'
p1502
S'0'
sS'Sub'
p1503
S'0'
sS'Lost'
p1504
S'0'
sS'Drop'
p1505
S'0'
sS'Start'
p1506
S'1'
sS'Won'
p1507
S'1'
sS'GfM'
p1508
S'0'
sS'Draw'
p1509
S'0'
sS'Mat'
p1510
S'1'
sS'Conv'
p1511
S'0'
sS'Tries'
p1512
S'0'
sS'Pts'
p1513
S'0'
sa(dp1514
S'Pens'
p1515
S'0'
sS'Sub'
p1516
S'0'
sS'Lost'
p1517
S'3'
sS'Drop'
p1518
S'0'
sS'Start'
p1519
S'4'
sS'Won'
p1520
S'1'
sS'GfM'
p1521
S'0'
sS'Draw'
p1522
S'0'
sS'Mat'
p1523
S'4'
sS'Conv'
p1524
S'0'
sS'Tries'
p1525
S'0'
sS'Pts'
p1526
S'0'
sa(dp1527
S'Pens'
p1528
S'0'
sS'Sub'
p1529
S'0'
sS'Lost'
p1530
S'0'
sS'Drop'
p1531
S'0'
sS'Start'
p1532
S'1'
sS'Won'
p1533
S'1'
sS'GfM'
p1534
S'0'
sS'Draw'
p1535
S'0'
sS'Mat'
p1536
S'1'
sS'Conv'
p1537
S'0'
sS'Tries'
p1538
S'0'
sS'Pts'
p1539
S'0'
sa(dp1540
S'Pens'
p1541
S'0'
sS'Sub'
p1542
S'0'
sS'Lost'
p1543
S'0'
sS'Drop'
p1544
S'0'
sS'Start'
p1545
S'1'
sS'Won'
p1546
S'1'
sS'GfM'
p1547
S'0'
sS'Draw'
p1548
S'0'
sS'Mat'
p1549
S'1'
sS'Conv'
p1550
S'0'
sS'Tries'
p1551
S'1'
sS'Pts'
p1552
S'3'
sa(dp1553
S'Pens'
p1554
S'0'
sS'Sub'
p1555
S'0'
sS'Lost'
p1556
S'0'
sS'Drop'
p1557
S'0'
sS'Start'
p1558
S'1'
sS'Won'
p1559
S'1'
sS'GfM'
p1560
S'0'
sS'Draw'
p1561
S'0'
sS'Mat'
p1562
S'1'
sS'Conv'
p1563
S'0'
sS'Tries'
p1564
S'0'
sS'Pts'
p1565
S'0'
sa(dp1566
S'Pens'
p1567
S'0'
sS'Sub'
p1568
S'0'
sS'Lost'
p1569
S'0'
sS'Drop'
p1570
S'0'
sS'Start'
p1571
S'1'
sS'Won'
p1572
S'1'
sS'GfM'
p1573
S'0'
sS'Draw'
p1574
S'0'
sS'Mat'
p1575
S'1'
sS'Conv'
p1576
S'0'
sS'Tries'
p1577
S'0'
sS'Pts'
p1578
S'0'
sa(dp1579
S'Pens'
p1580
S'0'
sS'Sub'
p1581
S'0'
sS'Lost'
p1582
S'9'
sS'Drop'
p1583
S'0'
sS'Start'
p1584
S'16'
p1585
sS'Won'
p1586
S'7'
sS'GfM'
p1587
S'0'
sS'Draw'
p1588
S'0'
sS'Mat'
p1589
S'16'
p1590
sS'Conv'
p1591
S'0'
sS'Tries'
p1592
S'3'
sS'Pts'
p1593
S'9'
sa(dp1594
S'Pens'
p1595
S'0'
sS'Sub'
p1596
S'0'
sS'Lost'
p1597
S'6'
sS'Drop'
p1598
S'0'
sS'Start'
p1599
S'8'
sS'Won'
p1600
S'2'
sS'GfM'
p1601
S'0'
sS'Draw'
p1602
S'0'
sS'Mat'
p1603
S'8'
sS'Conv'
p1604
S'0'
sS'Tries'
p1605
S'0'
sS'Pts'
p1606
S'0'
sa(dp1607
S'Pens'
p1608
S'0'
sS'Sub'
p1609
S'0'
sS'Lost'
p1610
S'5'
sS'Drop'
p1611
S'0'
sS'Start'
p1612
S'6'
sS'Won'
p1613
S'1'
sS'GfM'
p1614
S'0'
sS'Draw'
p1615
S'0'
sS'Mat'
p1616
S'6'
sS'Conv'
p1617
S'0'
sS'Tries'
p1618
S'1'
sS'Pts'
p1619
S'3'
sa(dp1620
S'Pens'
p1621
S'0'
sS'Sub'
p1622
S'0'
sS'Lost'
p1623
S'2'
sS'Drop'
p1624
S'0'
sS'Start'
p1625
S'3'
sS'Won'
p1626
S'1'
sS'GfM'
p1627
S'0'
sS'Draw'
p1628
S'0'
sS'Mat'
p1629
S'3'
sS'Conv'
p1630
S'0'
sS'Tries'
p1631
S'0'
sS'Pts'
p1632
S'0'
sa(dp1633
S'Pens'
p1634
S'0'
sS'Sub'
p1635
S'0'
sS'Lost'
p1636
S'2'
sS'Drop'
p1637
S'0'
sS'Start'
p1638
S'3'
sS'Won'
p1639
S'1'
sS'GfM'
p1640
S'0'
sS'Draw'
p1641
S'0'
sS'Mat'
p1642
S'3'
sS'Conv'
p1643
S'0'
sS'Tries'
p1644
S'3'
sS'Pts'
p1645
S'9'
sa(dp1646
S'Pens'
p1647
S'0'
sS'Sub'
p1648
S'0'
sS'Lost'
p1649
S'1'
sS'Drop'
p1650
S'0'
sS'Start'
p1651
S'1'
sS'Won'
p1652
S'0'
sS'GfM'
p1653
S'0'
sS'Draw'
p1654
S'0'
sS'Mat'
p1655
S'1'
sS'Conv'
p1656
S'1'
sS'Tries'
p1657
S'0'
sS'Pts'
p1658
S'2'
sa(dp1659
S'Pens'
p1660
S'0'
sS'Sub'
p1661
S'0'
sS'Lost'
p1662
S'2'
sS'Drop'
p1663
S'0'
sS'Start'
p1664
S'2'
sS'Won'
p1665
S'0'
sS'GfM'
p1666
S'0'
sS'Draw'
p1667
S'0'
sS'Mat'
p1668
S'2'
sS'Conv'
p1669
S'0'
sS'Tries'
p1670
S'0'
sS'Pts'
p1671
S'0'
sa(dp1672
S'Pens'
p1673
S'0'
sS'Sub'
p1674
S'0'
sS'Lost'
p1675
S'2'
sS'Drop'
p1676
S'0'
sS'Start'
p1677
S'3'
sS'Won'
p1678
S'1'
sS'GfM'
p1679
S'0'
sS'Draw'
p1680
S'0'
sS'Mat'
p1681
S'3'
sS'Conv'
p1682
S'0'
sS'Tries'
p1683
S'3'
sS'Pts'
p1684
S'9'
sa(dp1685
S'Pens'
p1686
S'0'
sS'Sub'
p1687
S'0'
sS'Lost'
p1688
S'5'
sS'Drop'
p1689
S'0'
sS'Start'
p1690
S'6'
sS'Won'
p1691
S'1'
sS'GfM'
p1692
S'0'
sS'Draw'
p1693
S'0'
sS'Mat'
p1694
S'6'
sS'Conv'
p1695
S'0'
sS'Tries'
p1696
S'0'
sS'Pts'
p1697
S'0'
sa(dp1698
S'Pens'
p1699
S'0'
sS'Sub'
p1700
S'0'
sS'Lost'
p1701
S'5'
sS'Drop'
p1702
S'0'
sS'Start'
p1703
S'6'
sS'Won'
p1704
S'1'
sS'GfM'
p1705
S'0'
sS'Draw'
p1706
S'0'
sS'Mat'
p1707
S'6'
sS'Conv'
p1708
S'0'
sS'Tries'
p1709
S'1'
sS'Pts'
p1710
S'3'
sa(dp1711
S'Pens'
p1712
S'0'
sS'Sub'
p1713
S'0'
sS'Lost'
p1714
S'4'
sS'Drop'
p1715
S'0'
sS'Start'
p1716
S'5'
sS'Won'
p1717
S'1'
sS'GfM'
p1718
S'0'
sS'Draw'
p1719
S'0'
sS'Mat'
p1720
S'5'
sS'Conv'
p1721
S'0'
sS'Tries'
p1722
S'0'
sS'Pts'
p1723
S'0'
sa(dp1724
S'Pens'
p1725
S'0'
sS'Sub'
p1726
S'0'
sS'Lost'
p1727
S'15'
p1728
sS'Drop'
p1729
S'0'
sS'Start'
p1730
S'22'
p1731
sS'Won'
p1732
S'7'
sS'GfM'
p1733
S'0'
sS'Draw'
p1734
S'0'
sS'Mat'
p1735
S'22'
p1736
sS'Conv'
p1737
S'1'
sS'Tries'
p1738
S'4'
sS'Pts'
p1739
S'14'
p1740
sa(dp1741
S'Pens'
p1742
S'0'
sS'Sub'
p1743
S'0'
sS'Lost'
p1744
S'1'
sS'Drop'
p1745
S'0'
sS'Start'
p1746
S'1'
sS'Won'
p1747
S'0'
sS'GfM'
p1748
S'0'
sS'Draw'
p1749
S'0'
sS'Mat'
p1750
S'1'
sS'Conv'
p1751
S'0'
sS'Tries'
p1752
S'0'
sS'Pts'
p1753
S'0'
sa(dp1754
S'Pens'
p1755
S'0'
sS'Sub'
p1756
S'0'
sS'Lost'
p1757
S'1'
sS'Drop'
p1758
S'0'
sS'Start'
p1759
S'2'
sS'Won'
p1760
S'1'
sS'GfM'
p1761
S'0'
sS'Draw'
p1762
S'0'
sS'Mat'
p1763
S'2'
sS'Conv'
p1764
S'2'
sS'Tries'
p1765
S'0'
sS'Pts'
p1766
S'4'
sa(dp1767
S'Pens'
p1768
S'0'
sS'Sub'
p1769
S'0'
sS'Lost'
p1770
S'1'
sS'Drop'
p1771
S'0'
sS'Start'
p1772
S'1'
sS'Won'
p1773
S'0'
sS'GfM'
p1774
S'0'
sS'Draw'
p1775
S'0'
sS'Mat'
p1776
S'1'
sS'Conv'
p1777
S'2'
sS'Tries'
p1778
S'0'
sS'Pts'
p1779
S'4'
sa(dp1780
S'Pens'
p1781
S'0'
sS'Sub'
p1782
S'0'
sS'Lost'
p1783
S'3'
sS'Drop'
p1784
S'0'
sS'Start'
p1785
S'4'
sS'Won'
p1786
S'1'
sS'GfM'
p1787
S'0'
sS'Draw'
p1788
S'0'
sS'Mat'
p1789
S'4'
sS'Conv'
p1790
S'0'
sS'Tries'
p1791
S'0'
sS'Pts'
p1792
S'0'
sa(dp1793
S'Pens'
p1794
S'0'
sS'Sub'
p1795
S'0'
sS'Lost'
p1796
S'3'
sS'Drop'
p1797
S'0'
sS'Start'
p1798
S'3'
sS'Won'
p1799
S'0'
sS'GfM'
p1800
S'0'
sS'Draw'
p1801
S'0'
sS'Mat'
p1802
S'3'
sS'Conv'
p1803
S'0'
sS'Tries'
p1804
S'0'
sS'Pts'
p1805
S'0'
sa(dp1806
S'Pens'
p1807
S'0'
sS'Sub'
p1808
S'0'
sS'Lost'
p1809
S'2'
sS'Drop'
p1810
S'0'
sS'Start'
p1811
S'2'
sS'Won'
p1812
S'0'
sS'GfM'
p1813
S'0'
sS'Draw'
p1814
S'0'
sS'Mat'
p1815
S'2'
sS'Conv'
p1816
S'0'
sS'Tries'
p1817
S'0'
sS'Pts'
p1818
S'0'
sa(dp1819
S'Pens'
p1820
S'0'
sS'Sub'
p1821
S'0'
sS'Lost'
p1822
S'2'
sS'Drop'
p1823
S'0'
sS'Start'
p1824
S'2'
sS'Won'
p1825
S'0'
sS'GfM'
p1826
S'0'
sS'Draw'
p1827
S'0'
sS'Mat'
p1828
S'2'
sS'Conv'
p1829
S'0'
sS'Tries'
p1830
S'0'
sS'Pts'
p1831
S'0'
sa(dp1832
S'Pens'
p1833
S'0'
sS'Sub'
p1834
S'0'
sS'Lost'
p1835
S'1'
sS'Drop'
p1836
S'0'
sS'Start'
p1837
S'1'
sS'Won'
p1838
S'0'
sS'GfM'
p1839
S'0'
sS'Draw'
p1840
S'0'
sS'Mat'
p1841
S'1'
sS'Conv'
p1842
S'0'
sS'Tries'
p1843
S'0'
sS'Pts'
p1844
S'0'
sa(dp1845
S'Pens'
p1846
S'0'
sS'Sub'
p1847
S'0'
sS'Lost'
p1848
S'1'
sS'Drop'
p1849
S'0'
sS'Start'
p1850
S'1'
sS'Won'
p1851
S'0'
sS'GfM'
p1852
S'0'
sS'Draw'
p1853
S'0'
sS'Mat'
p1854
S'1'
sS'Conv'
p1855
S'0'
sS'Tries'
p1856
S'0'
sS'Pts'
p1857
S'0'
sa(dp1858
S'Pens'
p1859
S'0'
sS'Sub'
p1860
S'0'
sS'Lost'
p1861
S'1'
sS'Drop'
p1862
S'0'
sS'Start'
p1863
S'1'
sS'Won'
p1864
S'0'
sS'GfM'
p1865
S'0'
sS'Draw'
p1866
S'0'
sS'Mat'
p1867
S'1'
sS'Conv'
p1868
S'0'
sS'Tries'
p1869
S'0'
sS'Pts'
p1870
S'0'
sa(dp1871
S'Pens'
p1872
S'0'
sS'Sub'
p1873
S'0'
sS'Lost'
p1874
S'1'
sS'Drop'
p1875
S'0'
sS'Start'
p1876
S'1'
sS'Won'
p1877
S'0'
sS'GfM'
p1878
S'0'
sS'Draw'
p1879
S'0'
sS'Mat'
p1880
S'1'
sS'Conv'
p1881
S'0'
sS'Tries'
p1882
S'0'
sS'Pts'
p1883
S'0'
sa(dp1884
S'Pens'
p1885
S'0'
sS'Sub'
p1886
S'0'
sS'Lost'
p1887
S'4'
sS'Drop'
p1888
S'0'
sS'Start'
p1889
S'4'
sS'Won'
p1890
S'0'
sS'GfM'
p1891
S'0'
sS'Draw'
p1892
S'0'
sS'Mat'
p1893
S'4'
sS'Conv'
p1894
S'0'
sS'Tries'
p1895
S'0'
sS'Pts'
p1896
S'0'
sa(dp1897
S'Pens'
p1898
S'0'
sS'Sub'
p1899
S'0'
sS'Lost'
p1900
S'1'
sS'Drop'
p1901
S'0'
sS'Start'
p1902
S'1'
sS'Won'
p1903
S'0'
sS'GfM'
p1904
S'0'
sS'Draw'
p1905
S'0'
sS'Mat'
p1906
S'1'
sS'Conv'
p1907
S'0'
sS'Tries'
p1908
S'0'
sS'Pts'
p1909
S'0'
sa(dp1910
S'Pens'
p1911
S'0'
sS'Sub'
p1912
S'0'
sS'Lost'
p1913
S'1'
sS'Drop'
p1914
S'0'
sS'Start'
p1915
S'1'
sS'Won'
p1916
S'0'
sS'GfM'
p1917
S'0'
sS'Draw'
p1918
S'0'
sS'Mat'
p1919
S'1'
sS'Conv'
p1920
S'0'
sS'Tries'
p1921
S'0'
sS'Pts'
p1922
S'0'
sa(dp1923
S'Pens'
p1924
S'0'
sS'Sub'
p1925
S'0'
sS'Lost'
p1926
S'3'
sS'Drop'
p1927
S'0'
sS'Start'
p1928
S'4'
sS'Won'
p1929
S'1'
sS'GfM'
p1930
S'0'
sS'Draw'
p1931
S'0'
sS'Mat'
p1932
S'4'
sS'Conv'
p1933
S'0'
sS'Tries'
p1934
S'1'
sS'Pts'
p1935
S'3'
sa(dp1936
S'Pens'
p1937
S'0'
sS'Sub'
p1938
S'0'
sS'Lost'
p1939
S'2'
sS'Drop'
p1940
S'0'
sS'Start'
p1941
S'2'
sS'Won'
p1942
S'0'
sS'GfM'
p1943
S'0'
sS'Draw'
p1944
S'0'
sS'Mat'
p1945
S'2'
sS'Conv'
p1946
S'0'
sS'Tries'
p1947
S'0'
sS'Pts'
p1948
S'0'
sa(dp1949
S'Pens'
p1950
S'0'
sS'Sub'
p1951
S'0'
sS'Lost'
p1952
S'14'
p1953
sS'Drop'
p1954
S'0'
sS'Start'
p1955
S'20'
p1956
sS'Won'
p1957
S'6'
sS'GfM'
p1958
S'0'
sS'Draw'
p1959
S'0'
sS'Mat'
p1960
S'20'
p1961
sS'Conv'
p1962
S'0'
sS'Tries'
p1963
S'2'
sS'Pts'
p1964
S'6'
sa(dp1965
S'Pens'
p1966
S'0'
sS'Sub'
p1967
S'0'
sS'Lost'
p1968
S'6'
sS'Drop'
p1969
S'0'
sS'Start'
p1970
S'7'
sS'Won'
p1971
S'1'
sS'GfM'
p1972
S'0'
sS'Draw'
p1973
S'0'
sS'Mat'
p1974
S'7'
sS'Conv'
p1975
S'0'
sS'Tries'
p1976
S'0'
sS'Pts'
p1977
S'0'
sa(dp1978
S'Pens'
p1979
S'0'
sS'Sub'
p1980
S'1'
sS'Lost'
p1981
S'6'
sS'Drop'
p1982
S'0'
sS'Start'
p1983
S'12'
p1984
sS'Won'
p1985
S'7'
sS'GfM'
p1986
S'0'
sS'Draw'
p1987
S'0'
sS'Mat'
p1988
S'13'
p1989
sS'Conv'
p1990
S'0'
sS'Tries'
p1991
S'0'
sS'Pts'
p1992
S'0'
sa(dp1993
S'Pens'
p1994
S'0'
sS'Sub'
p1995
S'0'
sS'Lost'
p1996
S'12'
p1997
sS'Drop'
p1998
S'0'
sS'Start'
p1999
S'17'
p2000
sS'Won'
p2001
S'5'
sS'GfM'
p2002
S'0'
sS'Draw'
p2003
S'0'
sS'Mat'
p2004
S'17'
p2005
sS'Conv'
p2006
S'0'
sS'Tries'
p2007
S'2'
sS'Pts'
p2008
S'6'
sa(dp2009
S'Pens'
p2010
S'9'
sS'Sub'
p2011
S'0'
sS'Lost'
p2012
S'6'
sS'Drop'
p2013
S'0'
sS'Start'
p2014
S'14'
p2015
sS'Won'
p2016
S'8'
sS'GfM'
p2017
S'0'
sS'Draw'
p2018
S'0'
sS'Mat'
p2019
S'14'
p2020
sS'Conv'
p2021
S'15'
p2022
sS'Tries'
p2023
S'1'
sS'Pts'
p2024
S'60'
p2025
sa(dp2026
S'Pens'
p2027
S'0'
sS'Sub'
p2028
S'0'
sS'Lost'
p2029
S'2'
sS'Drop'
p2030
S'0'
sS'Start'
p2031
S'2'
sS'Won'
p2032
S'0'
sS'GfM'
p2033
S'0'
sS'Draw'
p2034
S'0'
sS'Mat'
p2035
S'2'
sS'Conv'
p2036
S'0'
sS'Tries'
p2037
S'1'
sS'Pts'
p2038
S'3'
sa(dp2039
S'Pens'
p2040
S'0'
sS'Sub'
p2041
S'0'
sS'Lost'
p2042
S'4'
sS'Drop'
p2043
S'0'
sS'Start'
p2044
S'4'
sS'Won'
p2045
S'0'
sS'GfM'
p2046
S'0'
sS'Draw'
p2047
S'0'
sS'Mat'
p2048
S'4'
sS'Conv'
p2049
S'0'
sS'Tries'
p2050
S'0'
sS'Pts'
p2051
S'0'
sa(dp2052
S'Pens'
p2053
S'0'
sS'Sub'
p2054
S'0'
sS'Lost'
p2055
S'3'
sS'Drop'
p2056
S'0'
sS'Start'
p2057
S'3'
sS'Won'
p2058
S'0'
sS'GfM'
p2059
S'0'
sS'Draw'
p2060
S'0'
sS'Mat'
p2061
S'3'
sS'Conv'
p2062
S'0'
sS'Tries'
p2063
S'0'
sS'Pts'
p2064
S'0'
sa(dp2065
S'Pens'
p2066
S'0'
sS'Sub'
p2067
S'0'
sS'Lost'
p2068
S'7'
sS'Drop'
p2069
S'0'
sS'Start'
p2070
S'13'
p2071
sS'Won'
p2072
S'6'
sS'GfM'
p2073
S'0'
sS'Draw'
p2074
S'0'
sS'Mat'
p2075
S'13'
p2076
sS'Conv'
p2077
S'0'
sS'Tries'
p2078
S'10'
p2079
sS'Pts'
p2080
S'30'
p2081
sa(dp2082
S'Pens'
p2083
S'0'
sS'Sub'
p2084
S'0'
sS'Lost'
p2085
S'1'
sS'Drop'
p2086
S'0'
sS'Start'
p2087
S'1'
sS'Won'
p2088
S'0'
sS'GfM'
p2089
S'0'
sS'Draw'
p2090
S'0'
sS'Mat'
p2091
S'1'
sS'Conv'
p2092
S'0'
sS'Tries'
p2093
S'0'
sS'Pts'
p2094
S'0'
sa(dp2095
S'Pens'
p2096
S'0'
sS'Sub'
p2097
S'0'
sS'Lost'
p2098
S'5'
sS'Drop'
p2099
S'0'
sS'Start'
p2100
S'6'
sS'Won'
p2101
S'1'
sS'GfM'
p2102
S'0'
sS'Draw'
p2103
S'0'
sS'Mat'
p2104
S'6'
sS'Conv'
p2105
S'0'
sS'Tries'
p2106
S'3'
sS'Pts'
p2107
S'9'
sa(dp2108
S'Pens'
p2109
S'0'
sS'Sub'
p2110
S'0'
sS'Lost'
p2111
S'1'
sS'Drop'
p2112
S'0'
sS'Start'
p2113
S'1'
sS'Won'
p2114
S'0'
sS'GfM'
p2115
S'0'
sS'Draw'
p2116
S'0'
sS'Mat'
p2117
S'1'
sS'Conv'
p2118
S'0'
sS'Tries'
p2119
S'0'
sS'Pts'
p2120
S'0'
sa(dp2121
S'Pens'
p2122
S'0'
sS'Sub'
p2123
S'0'
sS'Lost'
p2124
S'5'
sS'Drop'
p2125
S'0'
sS'Start'
p2126
S'10'
p2127
sS'Won'
p2128
S'5'
sS'GfM'
p2129
S'0'
sS'Draw'
p2130
S'0'
sS'Mat'
p2131
S'10'
p2132
sS'Conv'
p2133
S'0'
sS'Tries'
p2134
S'0'
sS'Pts'
p2135
S'0'
sa(dp2136
S'Pens'
p2137
S'1'
sS'Sub'
p2138
S'0'
sS'Lost'
p2139
S'4'
sS'Drop'
p2140
S'0'
sS'Start'
p2141
S'6'
sS'Won'
p2142
S'2'
sS'GfM'
p2143
S'0'
sS'Draw'
p2144
S'0'
sS'Mat'
p2145
S'6'
sS'Conv'
p2146
S'0'
sS'Tries'
p2147
S'0'
sS'Pts'
p2148
S'3'
sa(dp2149
S'Pens'
p2150
S'2'
sS'Sub'
p2151
S'0'
sS'Lost'
p2152
S'6'
sS'Drop'
p2153
S'0'
sS'Start'
p2154
S'7'
sS'Won'
p2155
S'1'
sS'GfM'
p2156
S'0'
sS'Draw'
p2157
S'0'
sS'Mat'
p2158
S'7'
sS'Conv'
p2159
S'4'
sS'Tries'
p2160
S'2'
sS'Pts'
p2161
S'20'
p2162
sa(dp2163
S'Pens'
p2164
S'0'
sS'Sub'
p2165
S'0'
sS'Lost'
p2166
S'2'
sS'Drop'
p2167
S'0'
sS'Start'
p2168
S'3'
sS'Won'
p2169
S'1'
sS'GfM'
p2170
S'0'
sS'Draw'
p2171
S'0'
sS'Mat'
p2172
S'3'
sS'Conv'
p2173
S'0'
sS'Tries'
p2174
S'2'
sS'Pts'
p2175
S'6'
sa(dp2176
S'Pens'
p2177
S'0'
sS'Sub'
p2178
S'1'
sS'Lost'
p2179
S'3'
sS'Drop'
p2180
S'0'
sS'Start'
p2181
S'3'
sS'Won'
p2182
S'1'
sS'GfM'
p2183
S'0'
sS'Draw'
p2184
S'0'
sS'Mat'
p2185
S'4'
sS'Conv'
p2186
S'0'
sS'Tries'
p2187
S'3'
sS'Pts'
p2188
S'9'
sa(dp2189
S'Pens'
p2190
S'0'
sS'Sub'
p2191
S'1'
sS'Lost'
p2192
S'5'
sS'Drop'
p2193
S'0'
sS'Start'
p2194
S'7'
sS'Won'
p2195
S'3'
sS'GfM'
p2196
S'0'
sS'Draw'
p2197
S'0'
sS'Mat'
p2198
S'8'
sS'Conv'
p2199
S'0'
sS'Tries'
p2200
S'0'
sS'Pts'
p2201
S'0'
sa(dp2202
S'Pens'
p2203
S'0'
sS'Sub'
p2204
S'1'
sS'Lost'
p2205
S'5'
sS'Drop'
p2206
S'0'
sS'Start'
p2207
S'5'
sS'Won'
p2208
S'1'
sS'GfM'
p2209
S'0'
sS'Draw'
p2210
S'0'
sS'Mat'
p2211
S'6'
sS'Conv'
p2212
S'0'
sS'Tries'
p2213
S'1'
sS'Pts'
p2214
S'3'
sa(dp2215
S'Pens'
p2216
S'0'
sS'Sub'
p2217
S'0'
sS'Lost'
p2218
S'1'
sS'Drop'
p2219
S'0'
sS'Start'
p2220
S'1'
sS'Won'
p2221
S'0'
sS'GfM'
p2222
S'0'
sS'Draw'
p2223
S'0'
sS'Mat'
p2224
S'1'
sS'Conv'
p2225
S'0'
sS'Tries'
p2226
S'0'
sS'Pts'
p2227
S'0'
sa(dp2228
S'Pens'
p2229
S'5'
sS'Sub'
p2230
S'0'
sS'Lost'
p2231
S'11'
p2232
sS'Drop'
p2233
S'2'
sS'Start'
p2234
S'19'
p2235
sS'Won'
p2236
S'8'
sS'GfM'
p2237
S'0'
sS'Draw'
p2238
S'0'
sS'Mat'
p2239
S'19'
p2240
sS'Conv'
p2241
S'5'
sS'Tries'
p2242
S'1'
sS'Pts'
p2243
S'36'
p2244
sa(dp2245
S'Pens'
p2246
S'0'
sS'Sub'
p2247
S'0'
sS'Lost'
p2248
S'11'
p2249
sS'Drop'
p2250
S'0'
sS'Start'
p2251
S'18'
p2252
sS'Won'
p2253
S'7'
sS'GfM'
p2254
S'0'
sS'Draw'
p2255
S'0'
sS'Mat'
p2256
S'18'
p2257
sS'Conv'
p2258
S'0'
sS'Tries'
p2259
S'6'
sS'Pts'
p2260
S'18'
p2261
sa(dp2262
S'Pens'
p2263
S'0'
sS'Sub'
p2264
S'0'
sS'Lost'
p2265
S'8'
sS'Drop'
p2266
S'0'
sS'Start'
p2267
S'12'
p2268
sS'Won'
p2269
S'4'
sS'GfM'
p2270
S'0'
sS'Draw'
p2271
S'0'
sS'Mat'
p2272
S'12'
p2273
sS'Conv'
p2274
S'0'
sS'Tries'
p2275
S'1'
sS'Pts'
p2276
S'3'
sa(dp2277
S'Pens'
p2278
S'0'
sS'Sub'
p2279
S'0'
sS'Lost'
p2280
S'5'
sS'Drop'
p2281
S'0'
sS'Start'
p2282
S'6'
sS'Won'
p2283
S'1'
sS'GfM'
p2284
S'0'
sS'Draw'
p2285
S'0'
sS'Mat'
p2286
S'6'
sS'Conv'
p2287
S'0'
sS'Tries'
p2288
S'0'
sS'Pts'
p2289
S'0'
sa(dp2290
S'Pens'
p2291
S'1'
sS'Sub'
p2292
S'0'
sS'Lost'
p2293
S'2'
sS'Drop'
p2294
S'0'
sS'Start'
p2295
S'4'
sS'Won'
p2296
S'2'
sS'GfM'
p2297
S'0'
sS'Draw'
p2298
S'0'
sS'Mat'
p2299
S'4'
sS'Conv'
p2300
S'1'
sS'Tries'
p2301
S'0'
sS'Pts'
p2302
S'5'
sa(dp2303
S'Pens'
p2304
S'6'
sS'Sub'
p2305
S'0'
sS'Lost'
p2306
S'7'
sS'Drop'
p2307
S'1'
sS'Start'
p2308
S'14'
p2309
sS'Won'
p2310
S'7'
sS'GfM'
p2311
S'0'
sS'Draw'
p2312
S'0'
sS'Mat'
p2313
S'14'
p2314
sS'Conv'
p2315
S'8'
sS'Tries'
p2316
S'5'
sS'Pts'
p2317
S'53'
p2318
sa(dp2319
S'Pens'
p2320
S'0'
sS'Sub'
p2321
S'0'
sS'Lost'
p2322
S'6'
sS'Drop'
p2323
S'0'
sS'Start'
p2324
S'17'
p2325
sS'Won'
p2326
S'11'
p2327
sS'GfM'
p2328
S'0'
sS'Draw'
p2329
S'0'
sS'Mat'
p2330
S'17'
p2331
sS'Conv'
p2332
S'0'
sS'Tries'
p2333
S'16'
p2334
sS'Pts'
p2335
S'48'
p2336
sa(dp2337
S'Pens'
p2338
S'0'
sS'Sub'
p2339
S'0'
sS'Lost'
p2340
S'13'
p2341
sS'Drop'
p2342
S'0'
sS'Start'
p2343
S'21'
p2344
sS'Won'
p2345
S'8'
sS'GfM'
p2346
S'0'
sS'Draw'
p2347
S'0'
sS'Mat'
p2348
S'21'
p2349
sS'Conv'
p2350
S'0'
sS'Tries'
p2351
S'0'
sS'Pts'
p2352
S'0'
sa(dp2353
S'Pens'
p2354
S'1'
sS'Sub'
p2355
S'0'
sS'Lost'
p2356
S'1'
sS'Drop'
p2357
S'0'
sS'Start'
p2358
S'2'
sS'Won'
p2359
S'1'
sS'GfM'
p2360
S'0'
sS'Draw'
p2361
S'0'
sS'Mat'
p2362
S'2'
sS'Conv'
p2363
S'3'
sS'Tries'
p2364
S'2'
sS'Pts'
p2365
S'15'
p2366
sa(dp2367
S'Pens'
p2368
S'0'
sS'Sub'
p2369
S'0'
sS'Lost'
p2370
S'4'
sS'Drop'
p2371
S'0'
sS'Start'
p2372
S'6'
sS'Won'
p2373
S'2'
sS'GfM'
p2374
S'0'
sS'Draw'
p2375
S'0'
sS'Mat'
p2376
S'6'
sS'Conv'
p2377
S'0'
sS'Tries'
p2378
S'0'
sS'Pts'
p2379
S'0'
sa(dp2380
S'Pens'
p2381
S'0'
sS'Sub'
p2382
S'0'
sS'Lost'
p2383
S'0'
sS'Drop'
p2384
S'0'
sS'Start'
p2385
S'1'
sS'Won'
p2386
S'1'
sS'GfM'
p2387
S'0'
sS'Draw'
p2388
S'0'
sS'Mat'
p2389
S'1'
sS'Conv'
p2390
S'0'
sS'Tries'
p2391
S'1'
sS'Pts'
p2392
S'3'
sa(dp2393
S'Pens'
p2394
S'0'
sS'Sub'
p2395
S'1'
sS'Lost'
p2396
S'3'
sS'Drop'
p2397
S'0'
sS'Start'
p2398
S'4'
sS'Won'
p2399
S'2'
sS'GfM'
p2400
S'0'
sS'Draw'
p2401
S'0'
sS'Mat'
p2402
S'5'
sS'Conv'
p2403
S'0'
sS'Tries'
p2404
S'0'
sS'Pts'
p2405
S'0'
sa(dp2406
S'Pens'
p2407
S'0'
sS'Sub'
p2408
S'1'
sS'Lost'
p2409
S'1'
sS'Drop'
p2410
S'0'
sS'Start'
p2411
S'0'
sS'Won'
p2412
S'0'
sS'GfM'
p2413
S'0'
sS'Draw'
p2414
S'0'
sS'Mat'
p2415
S'1'
sS'Conv'
p2416
S'0'
sS'Tries'
p2417
S'0'
sS'Pts'
p2418
S'0'
sa(dp2419
S'Pens'
p2420
S'0'
sS'Sub'
p2421
S'0'
sS'Lost'
p2422
S'2'
sS'Drop'
p2423
S'0'
sS'Start'
p2424
S'8'
sS'Won'
p2425
S'6'
sS'GfM'
p2426
S'0'
sS'Draw'
p2427
S'0'
sS'Mat'
p2428
S'8'
sS'Conv'
p2429
S'0'
sS'Tries'
p2430
S'0'
sS'Pts'
p2431
S'0'
sa(dp2432
S'Pens'
p2433
S'0'
sS'Sub'
p2434
S'0'
sS'Lost'
p2435
S'1'
sS'Drop'
p2436
S'0'
sS'Start'
p2437
S'1'
sS'Won'
p2438
S'0'
sS'GfM'
p2439
S'0'
sS'Draw'
p2440
S'0'
sS'Mat'
p2441
S'1'
sS'Conv'
p2442
S'0'
sS'Tries'
p2443
S'1'
sS'Pts'
p2444
S'3'
sa(dp2445
S'Pens'
p2446
S'0'
sS'Sub'
p2447
S'0'
sS'Lost'
p2448
S'11'
p2449
sS'Drop'
p2450
S'0'
sS'Start'
p2451
S'15'
p2452
sS'Won'
p2453
S'4'
sS'GfM'
p2454
S'0'
sS'Draw'
p2455
S'0'
sS'Mat'
p2456
S'15'
p2457
sS'Conv'
p2458
S'1'
sS'Tries'
p2459
S'1'
sS'Pts'
p2460
S'5'
sa(dp2461
S'Pens'
p2462
S'0'
sS'Sub'
p2463
S'0'
sS'Lost'
p2464
S'2'
sS'Drop'
p2465
S'0'
sS'Start'
p2466
S'7'
sS'Won'
p2467
S'5'
sS'GfM'
p2468
S'0'
sS'Draw'
p2469
S'0'
sS'Mat'
p2470
S'7'
sS'Conv'
p2471
S'0'
sS'Tries'
p2472
S'2'
sS'Pts'
p2473
S'6'
sa(dp2474
S'Pens'
p2475
S'0'
sS'Sub'
p2476
S'1'
sS'Lost'
p2477
S'4'
sS'Drop'
p2478
S'0'
sS'Start'
p2479
S'6'
sS'Won'
p2480
S'3'
sS'GfM'
p2481
S'0'
sS'Draw'
p2482
S'0'
sS'Mat'
p2483
S'7'
sS'Conv'
p2484
S'0'
sS'Tries'
p2485
S'2'
sS'Pts'
p2486
S'6'
sa(dp2487
S'Pens'
p2488
S'0'
sS'Sub'
p2489
S'1'
sS'Lost'
p2490
S'0'
sS'Drop'
p2491
S'0'
sS'Start'
p2492
S'0'
sS'Won'
p2493
S'1'
sS'GfM'
p2494
S'0'
sS'Draw'
p2495
S'0'
sS'Mat'
p2496
S'1'
sS'Conv'
p2497
S'0'
sS'Tries'
p2498
S'0'
sS'Pts'
p2499
S'0'
sa(dp2500
S'Pens'
p2501
S'0'
sS'Sub'
p2502
S'0'
sS'Lost'
p2503
S'3'
sS'Drop'
p2504
S'0'
sS'Start'
p2505
S'5'
sS'Won'
p2506
S'2'
sS'GfM'
p2507
S'0'
sS'Draw'
p2508
S'0'
sS'Mat'
p2509
S'5'
sS'Conv'
p2510
S'0'
sS'Tries'
p2511
S'0'
sS'Pts'
p2512
S'0'
sa(dp2513
S'Pens'
p2514
S'0'
sS'Sub'
p2515
S'0'
sS'Lost'
p2516
S'9'
sS'Drop'
p2517
S'0'
sS'Start'
p2518
S'12'
p2519
sS'Won'
p2520
S'3'
sS'GfM'
p2521
S'0'
sS'Draw'
p2522
S'0'
sS'Mat'
p2523
S'12'
p2524
sS'Conv'
p2525
S'1'
sS'Tries'
p2526
S'0'
sS'Pts'
p2527
S'2'
sa(dp2528
S'Pens'
p2529
S'0'
sS'Sub'
p2530
S'0'
sS'Lost'
p2531
S'0'
sS'Drop'
p2532
S'0'
sS'Start'
p2533
S'1'
sS'Won'
p2534
S'1'
sS'GfM'
p2535
S'0'
sS'Draw'
p2536
S'0'
sS'Mat'
p2537
S'1'
sS'Conv'
p2538
S'0'
sS'Tries'
p2539
S'0'
sS'Pts'
p2540
S'0'
sa(dp2541
S'Pens'
p2542
S'0'
sS'Sub'
p2543
S'0'
sS'Lost'
p2544
S'0'
sS'Drop'
p2545
S'0'
sS'Start'
p2546
S'2'
sS'Won'
p2547
S'2'
sS'GfM'
p2548
S'0'
sS'Draw'
p2549
S'0'
sS'Mat'
p2550
S'2'
sS'Conv'
p2551
S'0'
sS'Tries'
p2552
S'0'
sS'Pts'
p2553
S'0'
sa(dp2554
S'Pens'
p2555
S'2'
sS'Sub'
p2556
S'1'
sS'Lost'
p2557
S'8'
sS'Drop'
p2558
S'0'
sS'Start'
p2559
S'14'
p2560
sS'Won'
p2561
S'7'
sS'GfM'
p2562
S'0'
sS'Draw'
p2563
S'0'
sS'Mat'
p2564
S'15'
p2565
sS'Conv'
p2566
S'1'
sS'Tries'
p2567
S'7'
sS'Pts'
p2568
S'29'
p2569
sa(dp2570
S'Pens'
p2571
S'0'
sS'Sub'
p2572
S'1'
sS'Lost'
p2573
S'3'
sS'Drop'
p2574
S'0'
sS'Start'
p2575
S'6'
sS'Won'
p2576
S'4'
sS'GfM'
p2577
S'0'
sS'Draw'
p2578
S'0'
sS'Mat'
p2579
S'7'
sS'Conv'
p2580
S'0'
sS'Tries'
p2581
S'4'
sS'Pts'
p2582
S'12'
p2583
sa(dp2584
S'Pens'
p2585
S'0'
sS'Sub'
p2586
S'1'
sS'Lost'
p2587
S'0'
sS'Drop'
p2588
S'0'
sS'Start'
p2589
S'1'
sS'Won'
p2590
S'2'
sS'GfM'
p2591
S'0'
sS'Draw'
p2592
S'0'
sS'Mat'
p2593
S'2'
sS'Conv'
p2594
S'0'
sS'Tries'
p2595
S'0'
sS'Pts'
p2596
S'0'
sa(dp2597
S'Pens'
p2598
S'0'
sS'Sub'
p2599
S'0'
sS'Lost'
p2600
S'5'
sS'Drop'
p2601
S'0'
sS'Start'
p2602
S'8'
sS'Won'
p2603
S'3'
sS'GfM'
p2604
S'0'
sS'Draw'
p2605
S'0'
sS'Mat'
p2606
S'8'
sS'Conv'
p2607
S'0'
sS'Tries'
p2608
S'5'
sS'Pts'
p2609
S'15'
p2610
sa(dp2611
S'Pens'
p2612
S'0'
sS'Sub'
p2613
S'0'
sS'Lost'
p2614
S'2'
sS'Drop'
p2615
S'0'
sS'Start'
p2616
S'2'
sS'Won'
p2617
S'0'
sS'GfM'
p2618
S'0'
sS'Draw'
p2619
S'0'
sS'Mat'
p2620
S'2'
sS'Conv'
p2621
S'0'
sS'Tries'
p2622
S'0'
sS'Pts'
p2623
S'0'
sa(dp2624
S'Pens'
p2625
S'0'
sS'Sub'
p2626
S'0'
sS'Lost'
p2627
S'2'
sS'Drop'
p2628
S'0'
sS'Start'
p2629
S'2'
sS'Won'
p2630
S'0'
sS'GfM'
p2631
S'0'
sS'Draw'
p2632
S'0'
sS'Mat'
p2633
S'2'
sS'Conv'
p2634
S'0'
sS'Tries'
p2635
S'1'
sS'Pts'
p2636
S'3'
sa(dp2637
S'Pens'
p2638
S'0'
sS'Sub'
p2639
S'0'
sS'Lost'
p2640
S'4'
sS'Drop'
p2641
S'0'
sS'Start'
p2642
S'4'
sS'Won'
p2643
S'0'
sS'GfM'
p2644
S'0'
sS'Draw'
p2645
S'0'
sS'Mat'
p2646
S'4'
sS'Conv'
p2647
S'0'
sS'Tries'
p2648
S'0'
sS'Pts'
p2649
S'0'
sa(dp2650
S'Pens'
p2651
S'0'
sS'Sub'
p2652
S'1'
sS'Lost'
p2653
S'2'
sS'Drop'
p2654
S'0'
sS'Start'
p2655
S'1'
sS'Won'
p2656
S'0'
sS'GfM'
p2657
S'0'
sS'Draw'
p2658
S'0'
sS'Mat'
p2659
S'2'
sS'Conv'
p2660
S'0'
sS'Tries'
p2661
S'0'
sS'Pts'
p2662
S'0'
sa(dp2663
S'Pens'
p2664
S'0'
sS'Sub'
p2665
S'1'
sS'Lost'
p2666
S'8'
sS'Drop'
p2667
S'0'
sS'Start'
p2668
S'12'
p2669
sS'Won'
p2670
S'4'
sS'GfM'
p2671
S'0'
sS'Draw'
p2672
S'1'
sS'Mat'
p2673
S'13'
p2674
sS'Conv'
p2675
S'0'
sS'Tries'
p2676
S'4'
sS'Pts'
p2677
S'12'
p2678
sa(dp2679
S'Pens'
p2680
S'0'
sS'Sub'
p2681
S'0'
sS'Lost'
p2682
S'1'
sS'Drop'
p2683
S'0'
sS'Start'
p2684
S'1'
sS'Won'
p2685
S'0'
sS'GfM'
p2686
S'0'
sS'Draw'
p2687
S'0'
sS'Mat'
p2688
S'1'
sS'Conv'
p2689
S'0'
sS'Tries'
p2690
S'0'
sS'Pts'
p2691
S'0'
sa(dp2692
S'Pens'
p2693
S'0'
sS'Sub'
p2694
S'0'
sS'Lost'
p2695
S'5'
sS'Drop'
p2696
S'0'
sS'Start'
p2697
S'8'
sS'Won'
p2698
S'3'
sS'GfM'
p2699
S'1'
sS'Draw'
p2700
S'0'
sS'Mat'
p2701
S'8'
sS'Conv'
p2702
S'0'
sS'Tries'
p2703
S'0'
sS'Pts'
p2704
S'3'
sa(dp2705
S'Pens'
p2706
S'0'
sS'Sub'
p2707
S'0'
sS'Lost'
p2708
S'2'
sS'Drop'
p2709
S'0'
sS'Start'
p2710
S'3'
sS'Won'
p2711
S'1'
sS'GfM'
p2712
S'0'
sS'Draw'
p2713
S'0'
sS'Mat'
p2714
S'3'
sS'Conv'
p2715
S'0'
sS'Tries'
p2716
S'0'
sS'Pts'
p2717
S'0'
sa(dp2718
S'Pens'
p2719
S'0'
sS'Sub'
p2720
S'0'
sS'Lost'
p2721
S'3'
sS'Drop'
p2722
S'0'
sS'Start'
p2723
S'4'
sS'Won'
p2724
S'1'
sS'GfM'
p2725
S'0'
sS'Draw'
p2726
S'0'
sS'Mat'
p2727
S'4'
sS'Conv'
p2728
S'0'
sS'Tries'
p2729
S'0'
sS'Pts'
p2730
S'0'
sa(dp2731
S'Pens'
p2732
S'0'
sS'Sub'
p2733
S'0'
sS'Lost'
p2734
S'3'
sS'Drop'
p2735
S'0'
sS'Start'
p2736
S'3'
sS'Won'
p2737
S'0'
sS'GfM'
p2738
S'0'
sS'Draw'
p2739
S'0'
sS'Mat'
p2740
S'3'
sS'Conv'
p2741
S'0'
sS'Tries'
p2742
S'0'
sS'Pts'
p2743
S'0'
sa(dp2744
S'Pens'
p2745
S'0'
sS'Sub'
p2746
S'0'
sS'Lost'
p2747
S'1'
sS'Drop'
p2748
S'0'
sS'Start'
p2749
S'1'
sS'Won'
p2750
S'0'
sS'GfM'
p2751
S'0'
sS'Draw'
p2752
S'0'
sS'Mat'
p2753
S'1'
sS'Conv'
p2754
S'0'
sS'Tries'
p2755
S'0'
sS'Pts'
p2756
S'0'
sa(dp2757
S'Pens'
p2758
S'0'
sS'Sub'
p2759
S'0'
sS'Lost'
p2760
S'3'
sS'Drop'
p2761
S'0'
sS'Start'
p2762
S'3'
sS'Won'
p2763
S'0'
sS'GfM'
p2764
S'0'
sS'Draw'
p2765
S'0'
sS'Mat'
p2766
S'3'
sS'Conv'
p2767
S'0'
sS'Tries'
p2768
S'0'
sS'Pts'
p2769
S'0'
sa(dp2770
S'Pens'
p2771
S'0'
sS'Sub'
p2772
S'0'
sS'Lost'
p2773
S'1'
sS'Drop'
p2774
S'0'
sS'Start'
p2775
S'1'
sS'Won'
p2776
S'0'
sS'GfM'
p2777
S'0'
sS'Draw'
p2778
S'0'
sS'Mat'
p2779
S'1'
sS'Conv'
p2780
S'0'
sS'Tries'
p2781
S'0'
sS'Pts'
p2782
S'0'
sa(dp2783
S'Pens'
p2784
S'0'
sS'Sub'
p2785
S'0'
sS'Lost'
p2786
S'1'
sS'Drop'
p2787
S'0'
sS'Start'
p2788
S'1'
sS'Won'
p2789
S'0'
sS'GfM'
p2790
S'0'
sS'Draw'
p2791
S'0'
sS'Mat'
p2792
S'1'
sS'Conv'
p2793
S'0'
sS'Tries'
p2794
S'0'
sS'Pts'
p2795
S'0'
sa(dp2796
S'Pens'
p2797
S'9'
sS'Sub'
p2798
S'0'
sS'Lost'
p2799
S'10'
p2800
sS'Drop'
p2801
S'0'
sS'Start'
p2802
S'20'
p2803
sS'Won'
p2804
S'9'
sS'GfM'
p2805
S'0'
sS'Draw'
p2806
S'1'
sS'Mat'
p2807
S'20'
p2808
sS'Conv'
p2809
S'8'
sS'Tries'
p2810
S'0'
sS'Pts'
p2811
S'43'
p2812
sa(dp2813
S'Pens'
p2814
S'0'
sS'Sub'
p2815
S'0'
sS'Lost'
p2816
S'2'
sS'Drop'
p2817
S'0'
sS'Start'
p2818
S'2'
sS'Won'
p2819
S'0'
sS'GfM'
p2820
S'0'
sS'Draw'
p2821
S'0'
sS'Mat'
p2822
S'2'
sS'Conv'
p2823
S'0'
sS'Tries'
p2824
S'0'
sS'Pts'
p2825
S'0'
sa(dp2826
S'Pens'
p2827
S'0'
sS'Sub'
p2828
S'1'
sS'Lost'
p2829
S'1'
sS'Drop'
p2830
S'0'
sS'Start'
p2831
S'0'
sS'Won'
p2832
S'0'
sS'GfM'
p2833
S'0'
sS'Draw'
p2834
S'0'
sS'Mat'
p2835
S'1'
sS'Conv'
p2836
S'0'
sS'Tries'
p2837
S'0'
sS'Pts'
p2838
S'0'
sa(dp2839
S'Pens'
p2840
S'0'
sS'Sub'
p2841
S'0'
sS'Lost'
p2842
S'1'
sS'Drop'
p2843
S'0'
sS'Start'
p2844
S'1'
sS'Won'
p2845
S'0'
sS'GfM'
p2846
S'0'
sS'Draw'
p2847
S'0'
sS'Mat'
p2848
S'1'
sS'Conv'
p2849
S'0'
sS'Tries'
p2850
S'0'
sS'Pts'
p2851
S'0'
sa(dp2852
S'Pens'
p2853
S'0'
sS'Sub'
p2854
S'0'
sS'Lost'
p2855
S'4'
sS'Drop'
p2856
S'0'
sS'Start'
p2857
S'4'
sS'Won'
p2858
S'0'
sS'GfM'
p2859
S'0'
sS'Draw'
p2860
S'0'
sS'Mat'
p2861
S'4'
sS'Conv'
p2862
S'0'
sS'Tries'
p2863
S'0'
sS'Pts'
p2864
S'0'
sa(dp2865
S'Pens'
p2866
S'0'
sS'Sub'
p2867
S'0'
sS'Lost'
p2868
S'5'
sS'Drop'
p2869
S'0'
sS'Start'
p2870
S'5'
sS'Won'
p2871
S'0'
sS'GfM'
p2872
S'0'
sS'Draw'
p2873
S'0'
sS'Mat'
p2874
S'5'
sS'Conv'
p2875
S'0'
sS'Tries'
p2876
S'1'
sS'Pts'
p2877
S'3'
sa(dp2878
S'Pens'
p2879
S'0'
sS'Sub'
p2880
S'0'
sS'Lost'
p2881
S'3'
sS'Drop'
p2882
S'0'
sS'Start'
p2883
S'3'
sS'Won'
p2884
S'0'
sS'GfM'
p2885
S'0'
sS'Draw'
p2886
S'0'
sS'Mat'
p2887
S'3'
sS'Conv'
p2888
S'0'
sS'Tries'
p2889
S'0'
sS'Pts'
p2890
S'0'
sa(dp2891
S'Pens'
p2892
S'0'
sS'Sub'
p2893
S'0'
sS'Lost'
p2894
S'3'
sS'Drop'
p2895
S'0'
sS'Start'
p2896
S'3'
sS'Won'
p2897
S'0'
sS'GfM'
p2898
S'0'
sS'Draw'
p2899
S'0'
sS'Mat'
p2900
S'3'
sS'Conv'
p2901
S'0'
sS'Tries'
p2902
S'0'
sS'Pts'
p2903
S'0'
sa(dp2904
S'Pens'
p2905
S'0'
sS'Sub'
p2906
S'1'
sS'Lost'
p2907
S'3'
sS'Drop'
p2908
S'0'
sS'Start'
p2909
S'2'
sS'Won'
p2910
S'0'
sS'GfM'
p2911
S'0'
sS'Draw'
p2912
S'0'
sS'Mat'
p2913
S'3'
sS'Conv'
p2914
S'0'
sS'Tries'
p2915
S'0'
sS'Pts'
p2916
S'0'
sa(dp2917
S'Pens'
p2918
S'0'
sS'Sub'
p2919
S'0'
sS'Lost'
p2920
S'2'
sS'Drop'
p2921
S'0'
sS'Start'
p2922
S'3'
sS'Won'
p2923
S'1'
sS'GfM'
p2924
S'0'
sS'Draw'
p2925
S'0'
sS'Mat'
p2926
S'3'
sS'Conv'
p2927
S'0'
sS'Tries'
p2928
S'0'
sS'Pts'
p2929
S'0'
sa(dp2930
S'Pens'
p2931
S'0'
sS'Sub'
p2932
S'0'
sS'Lost'
p2933
S'2'
sS'Drop'
p2934
S'0'
sS'Start'
p2935
S'2'
sS'Won'
p2936
S'0'
sS'GfM'
p2937
S'0'
sS'Draw'
p2938
S'0'
sS'Mat'
p2939
S'2'
sS'Conv'
p2940
S'0'
sS'Tries'
p2941
S'0'
sS'Pts'
p2942
S'0'
sa(dp2943
S'Pens'
p2944
S'0'
sS'Sub'
p2945
S'1'
sS'Lost'
p2946
S'4'
sS'Drop'
p2947
S'0'
sS'Start'
p2948
S'10'
p2949
sS'Won'
p2950
S'7'
sS'GfM'
p2951
S'0'
sS'Draw'
p2952
S'0'
sS'Mat'
p2953
S'11'
p2954
sS'Conv'
p2955
S'0'
sS'Tries'
p2956
S'0'
sS'Pts'
p2957
S'0'
sa(dp2958
S'Pens'
p2959
S'0'
sS'Sub'
p2960
S'1'
sS'Lost'
p2961
S'1'
sS'Drop'
p2962
S'0'
sS'Start'
p2963
S'0'
sS'Won'
p2964
S'0'
sS'GfM'
p2965
S'0'
sS'Draw'
p2966
S'0'
sS'Mat'
p2967
S'1'
sS'Conv'
p2968
S'0'
sS'Tries'
p2969
S'0'
sS'Pts'
p2970
S'0'
sa(dp2971
S'Pens'
p2972
S'0'
sS'Sub'
p2973
S'0'
sS'Lost'
p2974
S'4'
sS'Drop'
p2975
S'0'
sS'Start'
p2976
S'11'
p2977
sS'Won'
p2978
S'7'
sS'GfM'
p2979
S'0'
sS'Draw'
p2980
S'0'
sS'Mat'
p2981
S'11'
p2982
sS'Conv'
p2983
S'0'
sS'Tries'
p2984
S'4'
sS'Pts'
p2985
S'12'
p2986
sa(dp2987
S'Pens'
p2988
S'0'
sS'Sub'
p2989
S'0'
sS'Lost'
p2990
S'7'
sS'Drop'
p2991
S'0'
sS'Start'
p2992
S'11'
p2993
sS'Won'
p2994
S'4'
sS'GfM'
p2995
S'0'
sS'Draw'
p2996
S'0'
sS'Mat'
p2997
S'11'
p2998
sS'Conv'
p2999
S'0'
sS'Tries'
p3000
S'1'
sS'Pts'
p3001
S'3'
sa(dp3002
S'Pens'
p3003
S'0'
sS'Sub'
p3004
S'0'
sS'Lost'
p3005
S'5'
sS'Drop'
p3006
S'0'
sS'Start'
p3007
S'8'
sS'Won'
p3008
S'3'
sS'GfM'
p3009
S'0'
sS'Draw'
p3010
S'0'
sS'Mat'
p3011
S'8'
sS'Conv'
p3012
S'0'
sS'Tries'
p3013
S'1'
sS'Pts'
p3014
S'3'
sa(dp3015
S'Pens'
p3016
S'0'
sS'Sub'
p3017
S'0'
sS'Lost'
p3018
S'4'
sS'Drop'
p3019
S'0'
sS'Start'
p3020
S'12'
p3021
sS'Won'
p3022
S'8'
sS'GfM'
p3023
S'0'
sS'Draw'
p3024
S'0'
sS'Mat'
p3025
S'12'
p3026
sS'Conv'
p3027
S'0'
sS'Tries'
p3028
S'0'
sS'Pts'
p3029
S'0'
sa(dp3030
S'Pens'
p3031
S'0'
sS'Sub'
p3032
S'0'
sS'Lost'
p3033
S'3'
sS'Drop'
p3034
S'0'
sS'Start'
p3035
S'5'
sS'Won'
p3036
S'2'
sS'GfM'
p3037
S'0'
sS'Draw'
p3038
S'0'
sS'Mat'
p3039
S'5'
sS'Conv'
p3040
S'0'
sS'Tries'
p3041
S'0'
sS'Pts'
p3042
S'0'
sa(dp3043
S'Pens'
p3044
S'0'
sS'Sub'
p3045
S'1'
sS'Lost'
p3046
S'6'
sS'Drop'
p3047
S'0'
sS'Start'
p3048
S'13'
p3049
sS'Won'
p3050
S'8'
sS'GfM'
p3051
S'0'
sS'Draw'
p3052
S'0'
sS'Mat'
p3053
S'14'
p3054
sS'Conv'
p3055
S'0'
sS'Tries'
p3056
S'2'
sS'Pts'
p3057
S'6'
sa(dp3058
S'Pens'
p3059
S'4'
sS'Sub'
p3060
S'1'
sS'Lost'
p3061
S'9'
sS'Drop'
p3062
S'0'
sS'Start'
p3063
S'18'
p3064
sS'Won'
p3065
S'9'
sS'GfM'
p3066
S'0'
sS'Draw'
p3067
S'1'
sS'Mat'
p3068
S'19'
p3069
sS'Conv'
p3070
S'2'
sS'Tries'
p3071
S'9'
sS'Pts'
p3072
S'43'
p3073
sa(dp3074
S'Pens'
p3075
S'0'
sS'Sub'
p3076
S'0'
sS'Lost'
p3077
S'2'
sS'Drop'
p3078
S'0'
sS'Start'
p3079
S'3'
sS'Won'
p3080
S'1'
sS'GfM'
p3081
S'0'
sS'Draw'
p3082
S'0'
sS'Mat'
p3083
S'3'
sS'Conv'
p3084
S'0'
sS'Tries'
p3085
S'0'
sS'Pts'
p3086
S'0'
sa(dp3087
S'Pens'
p3088
S'0'
sS'Sub'
p3089
S'1'
sS'Lost'
p3090
S'1'
sS'Drop'
p3091
S'0'
sS'Start'
p3092
S'0'
sS'Won'
p3093
S'0'
sS'GfM'
p3094
S'0'
sS'Draw'
p3095
S'0'
sS'Mat'
p3096
S'1'
sS'Conv'
p3097
S'0'
sS'Tries'
p3098
S'0'
sS'Pts'
p3099
S'0'
sa(dp3100
S'Pens'
p3101
S'0'
sS'Sub'
p3102
S'0'
sS'Lost'
p3103
S'1'
sS'Drop'
p3104
S'0'
sS'Start'
p3105
S'1'
sS'Won'
p3106
S'0'
sS'GfM'
p3107
S'0'
sS'Draw'
p3108
S'0'
sS'Mat'
p3109
S'1'
sS'Conv'
p3110
S'0'
sS'Tries'
p3111
S'0'
sS'Pts'
p3112
S'0'
sa(dp3113
S'Pens'
p3114
S'0'
sS'Sub'
p3115
S'0'
sS'Lost'
p3116
S'4'
sS'Drop'
p3117
S'0'
sS'Start'
p3118
S'5'
sS'Won'
p3119
S'1'
sS'GfM'
p3120
S'0'
sS'Draw'
p3121
S'0'
sS'Mat'
p3122
S'5'
sS'Conv'
p3123
S'0'
sS'Tries'
p3124
S'0'
sS'Pts'
p3125
S'0'
sa(dp3126
S'Pens'
p3127
S'0'
sS'Sub'
p3128
S'0'
sS'Lost'
p3129
S'1'
sS'Drop'
p3130
S'0'
sS'Start'
p3131
S'1'
sS'Won'
p3132
S'0'
sS'GfM'
p3133
S'0'
sS'Draw'
p3134
S'0'
sS'Mat'
p3135
S'1'
sS'Conv'
p3136
S'0'
sS'Tries'
p3137
S'0'
sS'Pts'
p3138
S'0'
sa(dp3139
S'Pens'
p3140
S'0'
sS'Sub'
p3141
S'0'
sS'Lost'
p3142
S'1'
sS'Drop'
p3143
S'0'
sS'Start'
p3144
S'1'
sS'Won'
p3145
S'0'
sS'GfM'
p3146
S'0'
sS'Draw'
p3147
S'0'
sS'Mat'
p3148
S'1'
sS'Conv'
p3149
S'0'
sS'Tries'
p3150
S'0'
sS'Pts'
p3151
S'0'
sa(dp3152
S'Pens'
p3153
S'0'
sS'Sub'
p3154
S'0'
sS'Lost'
p3155
S'1'
sS'Drop'
p3156
S'0'
sS'Start'
p3157
S'1'
sS'Won'
p3158
S'0'
sS'GfM'
p3159
S'0'
sS'Draw'
p3160
S'0'
sS'Mat'
p3161
S'1'
sS'Conv'
p3162
S'0'
sS'Tries'
p3163
S'0'
sS'Pts'
p3164
S'0'
sa(dp3165
S'Pens'
p3166
S'0'
sS'Sub'
p3167
S'1'
sS'Lost'
p3168
S'3'
sS'Drop'
p3169
S'0'
sS'Start'
p3170
S'7'
sS'Won'
p3171
S'5'
sS'GfM'
p3172
S'0'
sS'Draw'
p3173
S'0'
sS'Mat'
p3174
S'8'
sS'Conv'
p3175
S'0'
sS'Tries'
p3176
S'0'
sS'Pts'
p3177
S'0'
sa(dp3178
S'Pens'
p3179
S'0'
sS'Sub'
p3180
S'1'
sS'Lost'
p3181
S'1'
sS'Drop'
p3182
S'0'
sS'Start'
p3183
S'0'
sS'Won'
p3184
S'0'
sS'GfM'
p3185
S'0'
sS'Draw'
p3186
S'0'
sS'Mat'
p3187
S'1'
sS'Conv'
p3188
S'0'
sS'Tries'
p3189
S'0'
sS'Pts'
p3190
S'0'
sa(dp3191
S'Pens'
p3192
S'0'
sS'Sub'
p3193
S'0'
sS'Lost'
p3194
S'2'
sS'Drop'
p3195
S'0'
sS'Start'
p3196
S'7'
sS'Won'
p3197
S'5'
sS'GfM'
p3198
S'0'
sS'Draw'
p3199
S'0'
sS'Mat'
p3200
S'7'
sS'Conv'
p3201
S'0'
sS'Tries'
p3202
S'4'
sS'Pts'
p3203
S'12'
p3204
sa(dp3205
S'Pens'
p3206
S'0'
sS'Sub'
p3207
S'0'
sS'Lost'
p3208
S'1'
sS'Drop'
p3209
S'0'
sS'Start'
p3210
S'3'
sS'Won'
p3211
S'2'
sS'GfM'
p3212
S'0'
sS'Draw'
p3213
S'0'
sS'Mat'
p3214
S'3'
sS'Conv'
p3215
S'0'
sS'Tries'
p3216
S'0'
sS'Pts'
p3217
S'0'
sa(dp3218
S'Pens'
p3219
S'0'
sS'Sub'
p3220
S'0'
sS'Lost'
p3221
S'9'
sS'Drop'
p3222
S'0'
sS'Start'
p3223
S'18'
p3224
sS'Won'
p3225
S'8'
sS'GfM'
p3226
S'0'
sS'Draw'
p3227
S'1'
sS'Mat'
p3228
S'18'
p3229
sS'Conv'
p3230
S'0'
sS'Tries'
p3231
S'2'
sS'Pts'
p3232
S'6'
sa(dp3233
S'Pens'
p3234
S'0'
sS'Sub'
p3235
S'0'
sS'Lost'
p3236
S'1'
sS'Drop'
p3237
S'0'
sS'Start'
p3238
S'3'
sS'Won'
p3239
S'2'
sS'GfM'
p3240
S'0'
sS'Draw'
p3241
S'0'
sS'Mat'
p3242
S'3'
sS'Conv'
p3243
S'0'
sS'Tries'
p3244
S'0'
sS'Pts'
p3245
S'0'
sa(dp3246
S'Pens'
p3247
S'0'
sS'Sub'
p3248
S'1'
sS'Lost'
p3249
S'2'
sS'Drop'
p3250
S'0'
sS'Start'
p3251
S'2'
sS'Won'
p3252
S'1'
sS'GfM'
p3253
S'0'
sS'Draw'
p3254
S'0'
sS'Mat'
p3255
S'3'
sS'Conv'
p3256
S'0'
sS'Tries'
p3257
S'0'
sS'Pts'
p3258
S'0'
sa(dp3259
S'Pens'
p3260
S'0'
sS'Sub'
p3261
S'2'
sS'Lost'
p3262
S'3'
sS'Drop'
p3263
S'0'
sS'Start'
p3264
S'2'
sS'Won'
p3265
S'1'
sS'GfM'
p3266
S'0'
sS'Draw'
p3267
S'0'
sS'Mat'
p3268
S'4'
sS'Conv'
p3269
S'0'
sS'Tries'
p3270
S'0'
sS'Pts'
p3271
S'0'
sa(dp3272
S'Pens'
p3273
S'0'
sS'Sub'
p3274
S'0'
sS'Lost'
p3275
S'11'
p3276
sS'Drop'
p3277
S'0'
sS'Start'
p3278
S'21'
p3279
sS'Won'
p3280
S'10'
p3281
sS'GfM'
p3282
S'0'
sS'Draw'
p3283
S'0'
sS'Mat'
p3284
S'21'
p3285
sS'Conv'
p3286
S'0'
sS'Tries'
p3287
S'3'
sS'Pts'
p3288
S'9'
sa(dp3289
S'Pens'
p3290
S'0'
sS'Sub'
p3291
S'0'
sS'Lost'
p3292
S'3'
sS'Drop'
p3293
S'0'
sS'Start'
p3294
S'3'
sS'Won'
p3295
S'0'
sS'GfM'
p3296
S'0'
sS'Draw'
p3297
S'0'
sS'Mat'
p3298
S'3'
sS'Conv'
p3299
S'0'
sS'Tries'
p3300
S'0'
sS'Pts'
p3301
S'0'
sa(dp3302
S'Pens'
p3303
S'0'
sS'Sub'
p3304
S'0'
sS'Lost'
p3305
S'3'
sS'Drop'
p3306
S'0'
sS'Start'
p3307
S'4'
sS'Won'
p3308
S'1'
sS'GfM'
p3309
S'0'
sS'Draw'
p3310
S'0'
sS'Mat'
p3311
S'4'
sS'Conv'
p3312
S'0'
sS'Tries'
p3313
S'1'
sS'Pts'
p3314
S'3'
sa(dp3315
S'Pens'
p3316
S'0'
sS'Sub'
p3317
S'0'
sS'Lost'
p3318
S'2'
sS'Drop'
p3319
S'0'
sS'Start'
p3320
S'3'
sS'Won'
p3321
S'1'
sS'GfM'
p3322
S'0'
sS'Draw'
p3323
S'0'
sS'Mat'
p3324
S'3'
sS'Conv'
p3325
S'0'
sS'Tries'
p3326
S'0'
sS'Pts'
p3327
S'0'
sa(dp3328
S'Pens'
p3329
S'0'
sS'Sub'
p3330
S'0'
sS'Lost'
p3331
S'3'
sS'Drop'
p3332
S'0'
sS'Start'
p3333
S'4'
sS'Won'
p3334
S'1'
sS'GfM'
p3335
S'0'
sS'Draw'
p3336
S'0'
sS'Mat'
p3337
S'4'
sS'Conv'
p3338
S'0'
sS'Tries'
p3339
S'3'
sS'Pts'
p3340
S'9'
sa(dp3341
S'Pens'
p3342
S'0'
sS'Sub'
p3343
S'0'
sS'Lost'
p3344
S'2'
sS'Drop'
p3345
S'0'
sS'Start'
p3346
S'3'
sS'Won'
p3347
S'1'
sS'GfM'
p3348
S'0'
sS'Draw'
p3349
S'0'
sS'Mat'
p3350
S'3'
sS'Conv'
p3351
S'0'
sS'Tries'
p3352
S'1'
sS'Pts'
p3353
S'3'
sa(dp3354
S'Pens'
p3355
S'0'
sS'Sub'
p3356
S'0'
sS'Lost'
p3357
S'3'
sS'Drop'
p3358
S'0'
sS'Start'
p3359
S'6'
sS'Won'
p3360
S'3'
sS'GfM'
p3361
S'0'
sS'Draw'
p3362
S'0'
sS'Mat'
p3363
S'6'
sS'Conv'
p3364
S'0'
sS'Tries'
p3365
S'0'
sS'Pts'
p3366
S'0'
sa(dp3367
S'Pens'
p3368
S'1'
sS'Sub'
p3369
S'0'
sS'Lost'
p3370
S'2'
sS'Drop'
p3371
S'0'
sS'Start'
p3372
S'3'
sS'Won'
p3373
S'1'
sS'GfM'
p3374
S'0'
sS'Draw'
p3375
S'0'
sS'Mat'
p3376
S'3'
sS'Conv'
p3377
S'0'
sS'Tries'
p3378
S'1'
sS'Pts'
p3379
S'6'
sa(dp3380
S'Pens'
p3381
S'0'
sS'Sub'
p3382
S'0'
sS'Lost'
p3383
S'3'
sS'Drop'
p3384
S'0'
sS'Start'
p3385
S'5'
sS'Won'
p3386
S'2'
sS'GfM'
p3387
S'0'
sS'Draw'
p3388
S'0'
sS'Mat'
p3389
S'5'
sS'Conv'
p3390
S'0'
sS'Tries'
p3391
S'3'
sS'Pts'
p3392
S'9'
sa(dp3393
S'Pens'
p3394
S'0'
sS'Sub'
p3395
S'0'
sS'Lost'
p3396
S'1'
sS'Drop'
p3397
S'0'
sS'Start'
p3398
S'1'
sS'Won'
p3399
S'0'
sS'GfM'
p3400
S'0'
sS'Draw'
p3401
S'0'
sS'Mat'
p3402
S'1'
sS'Conv'
p3403
S'0'
sS'Tries'
p3404
S'0'
sS'Pts'
p3405
S'0'
sa(dp3406
S'Pens'
p3407
S'0'
sS'Sub'
p3408
S'0'
sS'Lost'
p3409
S'1'
sS'Drop'
p3410
S'0'
sS'Start'
p3411
S'1'
sS'Won'
p3412
S'0'
sS'GfM'
p3413
S'0'
sS'Draw'
p3414
S'0'
sS'Mat'
p3415
S'1'
sS'Conv'
p3416
S'0'
sS'Tries'
p3417
S'0'
sS'Pts'
p3418
S'0'
sa(dp3419
S'Pens'
p3420
S'0'
sS'Sub'
p3421
S'0'
sS'Lost'
p3422
S'5'
sS'Drop'
p3423
S'0'
sS'Start'
p3424
S'8'
sS'Won'
p3425
S'3'
sS'GfM'
p3426
S'0'
sS'Draw'
p3427
S'0'
sS'Mat'
p3428
S'8'
sS'Conv'
p3429
S'0'
sS'Tries'
p3430
S'0'
sS'Pts'
p3431
S'0'
sa(dp3432
S'Pens'
p3433
S'0'
sS'Sub'
p3434
S'0'
sS'Lost'
p3435
S'0'
sS'Drop'
p3436
S'0'
sS'Start'
p3437
S'1'
sS'Won'
p3438
S'1'
sS'GfM'
p3439
S'0'
sS'Draw'
p3440
S'0'
sS'Mat'
p3441
S'1'
sS'Conv'
p3442
S'0'
sS'Tries'
p3443
S'0'
sS'Pts'
p3444
S'0'
sa(dp3445
S'Pens'
p3446
S'0'
sS'Sub'
p3447
S'0'
sS'Lost'
p3448
S'1'
sS'Drop'
p3449
S'0'
sS'Start'
p3450
S'1'
sS'Won'
p3451
S'0'
sS'GfM'
p3452
S'0'
sS'Draw'
p3453
S'0'
sS'Mat'
p3454
S'1'
sS'Conv'
p3455
S'0'
sS'Tries'
p3456
S'0'
sS'Pts'
p3457
S'0'
sa(dp3458
S'Pens'
p3459
S'0'
sS'Sub'
p3460
S'0'
sS'Lost'
p3461
S'1'
sS'Drop'
p3462
S'0'
sS'Start'
p3463
S'1'
sS'Won'
p3464
S'0'
sS'GfM'
p3465
S'0'
sS'Draw'
p3466
S'0'
sS'Mat'
p3467
S'1'
sS'Conv'
p3468
S'1'
sS'Tries'
p3469
S'0'
sS'Pts'
p3470
S'2'
sa(dp3471
S'Pens'
p3472
S'0'
sS'Sub'
p3473
S'0'
sS'Lost'
p3474
S'10'
p3475
sS'Drop'
p3476
S'0'
sS'Start'
p3477
S'21'
p3478
sS'Won'
p3479
S'10'
p3480
sS'GfM'
p3481
S'0'
sS'Draw'
p3482
S'1'
sS'Mat'
p3483
S'21'
p3484
sS'Conv'
p3485
S'0'
sS'Tries'
p3486
S'1'
sS'Pts'
p3487
S'3'
sa(dp3488
S'Pens'
p3489
S'0'
sS'Sub'
p3490
S'0'
sS'Lost'
p3491
S'0'
sS'Drop'
p3492
S'0'
sS'Start'
p3493
S'1'
sS'Won'
p3494
S'1'
sS'GfM'
p3495
S'0'
sS'Draw'
p3496
S'0'
sS'Mat'
p3497
S'1'
sS'Conv'
p3498
S'0'
sS'Tries'
p3499
S'1'
sS'Pts'
p3500
S'3'
sa(dp3501
S'Pens'
p3502
S'0'
sS'Sub'
p3503
S'0'
sS'Lost'
p3504
S'0'
sS'Drop'
p3505
S'0'
sS'Start'
p3506
S'3'
sS'Won'
p3507
S'3'
sS'GfM'
p3508
S'0'
sS'Draw'
p3509
S'0'
sS'Mat'
p3510
S'3'
sS'Conv'
p3511
S'0'
sS'Tries'
p3512
S'0'
sS'Pts'
p3513
S'0'
sa(dp3514
S'Pens'
p3515
S'0'
sS'Sub'
p3516
S'0'
sS'Lost'
p3517
S'2'
sS'Drop'
p3518
S'0'
sS'Start'
p3519
S'4'
sS'Won'
p3520
S'2'
sS'GfM'
p3521
S'0'
sS'Draw'
p3522
S'0'
sS'Mat'
p3523
S'4'
sS'Conv'
p3524
S'0'
sS'Tries'
p3525
S'0'
sS'Pts'
p3526
S'0'
sa(dp3527
S'Pens'
p3528
S'0'
sS'Sub'
p3529
S'0'
sS'Lost'
p3530
S'0'
sS'Drop'
p3531
S'0'
sS'Start'
p3532
S'4'
sS'Won'
p3533
S'4'
sS'GfM'
p3534
S'0'
sS'Draw'
p3535
S'0'
sS'Mat'
p3536
S'4'
sS'Conv'
p3537
S'0'
sS'Tries'
p3538
S'0'
sS'Pts'
p3539
S'0'
sa(dp3540
S'Pens'
p3541
S'0'
sS'Sub'
p3542
S'1'
sS'Lost'
p3543
S'0'
sS'Drop'
p3544
S'0'
sS'Start'
p3545
S'0'
sS'Won'
p3546
S'1'
sS'GfM'
p3547
S'0'
sS'Draw'
p3548
S'0'
sS'Mat'
p3549
S'1'
sS'Conv'
p3550
S'0'
sS'Tries'
p3551
S'0'
sS'Pts'
p3552
S'0'
sa(dp3553
S'Pens'
p3554
S'0'
sS'Sub'
p3555
S'0'
sS'Lost'
p3556
S'0'
sS'Drop'
p3557
S'0'
sS'Start'
p3558
S'3'
sS'Won'
p3559
S'3'
sS'GfM'
p3560
S'0'
sS'Draw'
p3561
S'0'
sS'Mat'
p3562
S'3'
sS'Conv'
p3563
S'0'
sS'Tries'
p3564
S'2'
sS'Pts'
p3565
S'6'
sa(dp3566
S'Pens'
p3567
S'0'
sS'Sub'
p3568
S'0'
sS'Lost'
p3569
S'5'
sS'Drop'
p3570
S'0'
sS'Start'
p3571
S'9'
sS'Won'
p3572
S'4'
sS'GfM'
p3573
S'0'
sS'Draw'
p3574
S'0'
sS'Mat'
p3575
S'9'
sS'Conv'
p3576
S'0'
sS'Tries'
p3577
S'1'
sS'Pts'
p3578
S'3'
sa(dp3579
S'Pens'
p3580
S'0'
sS'Sub'
p3581
S'0'
sS'Lost'
p3582
S'2'
sS'Drop'
p3583
S'0'
sS'Start'
p3584
S'4'
sS'Won'
p3585
S'2'
sS'GfM'
p3586
S'0'
sS'Draw'
p3587
S'0'
sS'Mat'
p3588
S'4'
sS'Conv'
p3589
S'0'
sS'Tries'
p3590
S'1'
sS'Pts'
p3591
S'3'
sa(dp3592
S'Pens'
p3593
S'0'
sS'Sub'
p3594
S'0'
sS'Lost'
p3595
S'6'
sS'Drop'
p3596
S'0'
sS'Start'
p3597
S'12'
p3598
sS'Won'
p3599
S'5'
sS'GfM'
p3600
S'0'
sS'Draw'
p3601
S'1'
sS'Mat'
p3602
S'12'
p3603
sS'Conv'
p3604
S'0'
sS'Tries'
p3605
S'5'
sS'Pts'
p3606
S'15'
p3607
sa(dp3608
S'Pens'
p3609
S'0'
sS'Sub'
p3610
S'0'
sS'Lost'
p3611
S'3'
sS'Drop'
p3612
S'0'
sS'Start'
p3613
S'5'
sS'Won'
p3614
S'2'
sS'GfM'
p3615
S'0'
sS'Draw'
p3616
S'0'
sS'Mat'
p3617
S'5'
sS'Conv'
p3618
S'0'
sS'Tries'
p3619
S'0'
sS'Pts'
p3620
S'0'
sa(dp3621
S'Pens'
p3622
S'0'
sS'Sub'
p3623
S'0'
sS'Lost'
p3624
S'0'
sS'Drop'
p3625
S'0'
sS'Start'
p3626
S'1'
sS'Won'
p3627
S'1'
sS'GfM'
p3628
S'0'
sS'Draw'
p3629
S'0'
sS'Mat'
p3630
S'1'
sS'Conv'
p3631
S'0'
sS'Tries'
p3632
S'0'
sS'Pts'
p3633
S'0'
sa(dp3634
S'Pens'
p3635
S'0'
sS'Sub'
p3636
S'0'
sS'Lost'
p3637
S'1'
sS'Drop'
p3638
S'0'
sS'Start'
p3639
S'2'
sS'Won'
p3640
S'1'
sS'GfM'
p3641
S'0'
sS'Draw'
p3642
S'0'
sS'Mat'
p3643
S'2'
sS'Conv'
p3644
S'0'
sS'Tries'
p3645
S'0'
sS'Pts'
p3646
S'0'
sa(dp3647
S'Pens'
p3648
S'0'
sS'Sub'
p3649
S'0'
sS'Lost'
p3650
S'6'
sS'Drop'
p3651
S'0'
sS'Start'
p3652
S'10'
p3653
sS'Won'
p3654
S'4'
sS'GfM'
p3655
S'0'
sS'Draw'
p3656
S'0'
sS'Mat'
p3657
S'10'
p3658
sS'Conv'
p3659
S'0'
sS'Tries'
p3660
S'3'
sS'Pts'
p3661
S'9'
sa(dp3662
S'Pens'
p3663
S'0'
sS'Sub'
p3664
S'0'
sS'Lost'
p3665
S'1'
sS'Drop'
p3666
S'0'
sS'Start'
p3667
S'2'
sS'Won'
p3668
S'1'
sS'GfM'
p3669
S'0'
sS'Draw'
p3670
S'0'
sS'Mat'
p3671
S'2'
sS'Conv'
p3672
S'0'
sS'Tries'
p3673
S'0'
sS'Pts'
p3674
S'0'
sa(dp3675
S'Pens'
p3676
S'0'
sS'Sub'
p3677
S'0'
sS'Lost'
p3678
S'5'
sS'Drop'
p3679
S'0'
sS'Start'
p3680
S'9'
sS'Won'
p3681
S'4'
sS'GfM'
p3682
S'0'
sS'Draw'
p3683
S'0'
sS'Mat'
p3684
S'9'
sS'Conv'
p3685
S'0'
sS'Tries'
p3686
S'0'
sS'Pts'
p3687
S'0'
sa(dp3688
S'Pens'
p3689
S'0'
sS'Sub'
p3690
S'0'
sS'Lost'
p3691
S'6'
sS'Drop'
p3692
S'1'
sS'Start'
p3693
S'9'
sS'Won'
p3694
S'3'
sS'GfM'
p3695
S'0'
sS'Draw'
p3696
S'0'
sS'Mat'
p3697
S'9'
sS'Conv'
p3698
S'1'
sS'Tries'
p3699
S'4'
sS'Pts'
p3700
S'18'
p3701
sa(dp3702
S'Pens'
p3703
S'0'
sS'Sub'
p3704
S'0'
sS'Lost'
p3705
S'8'
sS'Drop'
p3706
S'0'
sS'Start'
p3707
S'14'
p3708
sS'Won'
p3709
S'6'
sS'GfM'
p3710
S'0'
sS'Draw'
p3711
S'0'
sS'Mat'
p3712
S'14'
p3713
sS'Conv'
p3714
S'0'
sS'Tries'
p3715
S'1'
sS'Pts'
p3716
S'3'
sa(dp3717
S'Pens'
p3718
S'0'
sS'Sub'
p3719
S'0'
sS'Lost'
p3720
S'2'
sS'Drop'
p3721
S'0'
sS'Start'
p3722
S'3'
sS'Won'
p3723
S'1'
sS'GfM'
p3724
S'0'
sS'Draw'
p3725
S'0'
sS'Mat'
p3726
S'3'
sS'Conv'
p3727
S'0'
sS'Tries'
p3728
S'0'
sS'Pts'
p3729
S'0'
sa(dp3730
S'Pens'
p3731
S'0'
sS'Sub'
p3732
S'0'
sS'Lost'
p3733
S'1'
sS'Drop'
p3734
S'0'
sS'Start'
p3735
S'2'
sS'Won'
p3736
S'1'
sS'GfM'
p3737
S'0'
sS'Draw'
p3738
S'0'
sS'Mat'
p3739
S'2'
sS'Conv'
p3740
S'0'
sS'Tries'
p3741
S'0'
sS'Pts'
p3742
S'0'
sa(dp3743
S'Pens'
p3744
S'0'
sS'Sub'
p3745
S'0'
sS'Lost'
p3746
S'1'
sS'Drop'
p3747
S'0'
sS'Start'
p3748
S'1'
sS'Won'
p3749
S'0'
sS'GfM'
p3750
S'0'
sS'Draw'
p3751
S'0'
sS'Mat'
p3752
S'1'
sS'Conv'
p3753
S'0'
sS'Tries'
p3754
S'0'
sS'Pts'
p3755
S'0'
sa(dp3756
S'Pens'
p3757
S'2'
sS'Sub'
p3758
S'0'
sS'Lost'
p3759
S'3'
sS'Drop'
p3760
S'0'
sS'Start'
p3761
S'4'
sS'Won'
p3762
S'1'
sS'GfM'
p3763
S'0'
sS'Draw'
p3764
S'0'
sS'Mat'
p3765
S'4'
sS'Conv'
p3766
S'3'
sS'Tries'
p3767
S'0'
sS'Pts'
p3768
S'12'
p3769
sa(dp3770
S'Pens'
p3771
S'0'
sS'Sub'
p3772
S'0'
sS'Lost'
p3773
S'8'
sS'Drop'
p3774
S'0'
sS'Start'
p3775
S'13'
p3776
sS'Won'
p3777
S'4'
sS'GfM'
p3778
S'0'
sS'Draw'
p3779
S'1'
sS'Mat'
p3780
S'13'
p3781
sS'Conv'
p3782
S'0'
sS'Tries'
p3783
S'3'
sS'Pts'
p3784
S'9'
sa(dp3785
S'Pens'
p3786
S'0'
sS'Sub'
p3787
S'0'
sS'Lost'
p3788
S'1'
sS'Drop'
p3789
S'0'
sS'Start'
p3790
S'4'
sS'Won'
p3791
S'2'
sS'GfM'
p3792
S'0'
sS'Draw'
p3793
S'1'
sS'Mat'
p3794
S'4'
sS'Conv'
p3795
S'0'
sS'Tries'
p3796
S'0'
sS'Pts'
p3797
S'0'
sa(dp3798
S'Pens'
p3799
S'0'
sS'Sub'
p3800
S'0'
sS'Lost'
p3801
S'5'
sS'Drop'
p3802
S'0'
sS'Start'
p3803
S'10'
p3804
sS'Won'
p3805
S'4'
sS'GfM'
p3806
S'0'
sS'Draw'
p3807
S'1'
sS'Mat'
p3808
S'10'
p3809
sS'Conv'
p3810
S'0'
sS'Tries'
p3811
S'4'
sS'Pts'
p3812
S'12'
p3813
sa(dp3814
S'Pens'
p3815
S'0'
sS'Sub'
p3816
S'0'
sS'Lost'
p3817
S'5'
sS'Drop'
p3818
S'0'
sS'Start'
p3819
S'10'
p3820
sS'Won'
p3821
S'4'
sS'GfM'
p3822
S'0'
sS'Draw'
p3823
S'1'
sS'Mat'
p3824
S'10'
p3825
sS'Conv'
p3826
S'0'
sS'Tries'
p3827
S'0'
sS'Pts'
p3828
S'0'
sa(dp3829
S'Pens'
p3830
S'0'
sS'Sub'
p3831
S'0'
sS'Lost'
p3832
S'8'
sS'Drop'
p3833
S'0'
sS'Start'
p3834
S'11'
p3835
sS'Won'
p3836
S'3'
sS'GfM'
p3837
S'0'
sS'Draw'
p3838
S'0'
sS'Mat'
p3839
S'11'
p3840
sS'Conv'
p3841
S'0'
sS'Tries'
p3842
S'1'
sS'Pts'
p3843
S'3'
sa(dp3844
S'Pens'
p3845
S'0'
sS'Sub'
p3846
S'0'
sS'Lost'
p3847
S'1'
sS'Drop'
p3848
S'0'
sS'Start'
p3849
S'3'
sS'Won'
p3850
S'1'
sS'GfM'
p3851
S'0'
sS'Draw'
p3852
S'1'
sS'Mat'
p3853
S'3'
sS'Conv'
p3854
S'0'
sS'Tries'
p3855
S'0'
sS'Pts'
p3856
S'0'
sa(dp3857
S'Pens'
p3858
S'1'
sS'Sub'
p3859
S'0'
sS'Lost'
p3860
S'3'
sS'Drop'
p3861
S'0'
sS'Start'
p3862
S'5'
sS'Won'
p3863
S'1'
sS'GfM'
p3864
S'0'
sS'Draw'
p3865
S'1'
sS'Mat'
p3866
S'5'
sS'Conv'
p3867
S'0'
sS'Tries'
p3868
S'0'
sS'Pts'
p3869
S'3'
sa(dp3870
S'Pens'
p3871
S'0'
sS'Sub'
p3872
S'0'
sS'Lost'
p3873
S'1'
sS'Drop'
p3874
S'0'
sS'Start'
p3875
S'4'
sS'Won'
p3876
S'2'
sS'GfM'
p3877
S'0'
sS'Draw'
p3878
S'1'
sS'Mat'
p3879
S'4'
sS'Conv'
p3880
S'0'
sS'Tries'
p3881
S'0'
sS'Pts'
p3882
S'0'
sa(dp3883
S'Pens'
p3884
S'0'
sS'Sub'
p3885
S'0'
sS'Lost'
p3886
S'2'
sS'Drop'
p3887
S'0'
sS'Start'
p3888
S'4'
sS'Won'
p3889
S'1'
sS'GfM'
p3890
S'0'
sS'Draw'
p3891
S'1'
sS'Mat'
p3892
S'4'
sS'Conv'
p3893
S'0'
sS'Tries'
p3894
S'0'
sS'Pts'
p3895
S'0'
sa(dp3896
S'Pens'
p3897
S'0'
sS'Sub'
p3898
S'0'
sS'Lost'
p3899
S'2'
sS'Drop'
p3900
S'0'
sS'Start'
p3901
S'4'
sS'Won'
p3902
S'1'
sS'GfM'
p3903
S'0'
sS'Draw'
p3904
S'1'
sS'Mat'
p3905
S'4'
sS'Conv'
p3906
S'0'
sS'Tries'
p3907
S'0'
sS'Pts'
p3908
S'0'
sa(dp3909
S'Pens'
p3910
S'0'
sS'Sub'
p3911
S'0'
sS'Lost'
p3912
S'2'
sS'Drop'
p3913
S'0'
sS'Start'
p3914
S'3'
sS'Won'
p3915
S'1'
sS'GfM'
p3916
S'0'
sS'Draw'
p3917
S'0'
sS'Mat'
p3918
S'3'
sS'Conv'
p3919
S'1'
sS'Tries'
p3920
S'0'
sS'Pts'
p3921
S'2'
sa(dp3922
S'Pens'
p3923
S'0'
sS'Sub'
p3924
S'0'
sS'Lost'
p3925
S'4'
sS'Drop'
p3926
S'0'
sS'Start'
p3927
S'4'
sS'Won'
p3928
S'0'
sS'GfM'
p3929
S'0'
sS'Draw'
p3930
S'0'
sS'Mat'
p3931
S'4'
sS'Conv'
p3932
S'0'
sS'Tries'
p3933
S'0'
sS'Pts'
p3934
S'0'
sa(dp3935
S'Pens'
p3936
S'0'
sS'Sub'
p3937
S'0'
sS'Lost'
p3938
S'6'
sS'Drop'
p3939
S'0'
sS'Start'
p3940
S'7'
sS'Won'
p3941
S'1'
sS'GfM'
p3942
S'0'
sS'Draw'
p3943
S'0'
sS'Mat'
p3944
S'7'
sS'Conv'
p3945
S'1'
sS'Tries'
p3946
S'0'
sS'Pts'
p3947
S'2'
sa(dp3948
S'Pens'
p3949
S'0'
sS'Sub'
p3950
S'0'
sS'Lost'
p3951
S'2'
sS'Drop'
p3952
S'0'
sS'Start'
p3953
S'2'
sS'Won'
p3954
S'0'
sS'GfM'
p3955
S'0'
sS'Draw'
p3956
S'0'
sS'Mat'
p3957
S'2'
sS'Conv'
p3958
S'0'
sS'Tries'
p3959
S'2'
sS'Pts'
p3960
S'6'
sa(dp3961
S'Pens'
p3962
S'0'
sS'Sub'
p3963
S'0'
sS'Lost'
p3964
S'3'
sS'Drop'
p3965
S'0'
sS'Start'
p3966
S'4'
sS'Won'
p3967
S'1'
sS'GfM'
p3968
S'0'
sS'Draw'
p3969
S'0'
sS'Mat'
p3970
S'4'
sS'Conv'
p3971
S'0'
sS'Tries'
p3972
S'0'
sS'Pts'
p3973
S'0'
sa(dp3974
S'Pens'
p3975
S'0'
sS'Sub'
p3976
S'0'
sS'Lost'
p3977
S'2'
sS'Drop'
p3978
S'0'
sS'Start'
p3979
S'2'
sS'Won'
p3980
S'0'
sS'GfM'
p3981
S'0'
sS'Draw'
p3982
S'0'
sS'Mat'
p3983
S'2'
sS'Conv'
p3984
S'0'
sS'Tries'
p3985
S'0'
sS'Pts'
p3986
S'0'
sa(dp3987
S'Pens'
p3988
S'5'
sS'Sub'
p3989
S'0'
sS'Lost'
p3990
S'6'
sS'Drop'
p3991
S'0'
sS'Start'
p3992
S'7'
sS'Won'
p3993
S'1'
sS'GfM'
p3994
S'0'
sS'Draw'
p3995
S'0'
sS'Mat'
p3996
S'7'
sS'Conv'
p3997
S'6'
sS'Tries'
p3998
S'0'
sS'Pts'
p3999
S'27'
p4000
sa(dp4001
S'Pens'
p4002
S'0'
sS'Sub'
p4003
S'1'
sS'Lost'
p4004
S'4'
sS'Drop'
p4005
S'0'
sS'Start'
p4006
S'4'
sS'Won'
p4007
S'1'
sS'GfM'
p4008
S'0'
sS'Draw'
p4009
S'0'
sS'Mat'
p4010
S'5'
sS'Conv'
p4011
S'0'
sS'Tries'
p4012
S'1'
sS'Pts'
p4013
S'3'
sa(dp4014
S'Pens'
p4015
S'0'
sS'Sub'
p4016
S'0'
sS'Lost'
p4017
S'1'
sS'Drop'
p4018
S'0'
sS'Start'
p4019
S'1'
sS'Won'
p4020
S'0'
sS'GfM'
p4021
S'0'
sS'Draw'
p4022
S'0'
sS'Mat'
p4023
S'1'
sS'Conv'
p4024
S'0'
sS'Tries'
p4025
S'0'
sS'Pts'
p4026
S'0'
sa(dp4027
S'Pens'
p4028
S'0'
sS'Sub'
p4029
S'0'
sS'Lost'
p4030
S'1'
sS'Drop'
p4031
S'0'
sS'Start'
p4032
S'2'
sS'Won'
p4033
S'1'
sS'GfM'
p4034
S'0'
sS'Draw'
p4035
S'0'
sS'Mat'
p4036
S'2'
sS'Conv'
p4037
S'0'
sS'Tries'
p4038
S'0'
sS'Pts'
p4039
S'0'
sa(dp4040
S'Pens'
p4041
S'0'
sS'Sub'
p4042
S'0'
sS'Lost'
p4043
S'3'
sS'Drop'
p4044
S'0'
sS'Start'
p4045
S'4'
sS'Won'
p4046
S'1'
sS'GfM'
p4047
S'0'
sS'Draw'
p4048
S'0'
sS'Mat'
p4049
S'4'
sS'Conv'
p4050
S'0'
sS'Tries'
p4051
S'2'
sS'Pts'
p4052
S'6'
sa(dp4053
S'Pens'
p4054
S'0'
sS'Sub'
p4055
S'0'
sS'Lost'
p4056
S'2'
sS'Drop'
p4057
S'0'
sS'Start'
p4058
S'2'
sS'Won'
p4059
S'0'
sS'GfM'
p4060
S'0'
sS'Draw'
p4061
S'0'
sS'Mat'
p4062
S'2'
sS'Conv'
p4063
S'0'
sS'Tries'
p4064
S'0'
sS'Pts'
p4065
S'0'
sa(dp4066
S'Pens'
p4067
S'0'
sS'Sub'
p4068
S'0'
sS'Lost'
p4069
S'2'
sS'Drop'
p4070
S'0'
sS'Start'
p4071
S'2'
sS'Won'
p4072
S'0'
sS'GfM'
p4073
S'0'
sS'Draw'
p4074
S'0'
sS'Mat'
p4075
S'2'
sS'Conv'
p4076
S'0'
sS'Tries'
p4077
S'0'
sS'Pts'
p4078
S'0'
sa(dp4079
S'Pens'
p4080
S'0'
sS'Sub'
p4081
S'0'
sS'Lost'
p4082
S'5'
sS'Drop'
p4083
S'0'
sS'Start'
p4084
S'5'
sS'Won'
p4085
S'0'
sS'GfM'
p4086
S'0'
sS'Draw'
p4087
S'0'
sS'Mat'
p4088
S'5'
sS'Conv'
p4089
S'0'
sS'Tries'
p4090
S'0'
sS'Pts'
p4091
S'0'
sa(dp4092
S'Pens'
p4093
S'0'
sS'Sub'
p4094
S'0'
sS'Lost'
p4095
S'3'
sS'Drop'
p4096
S'0'
sS'Start'
p4097
S'3'
sS'Won'
p4098
S'0'
sS'GfM'
p4099
S'0'
sS'Draw'
p4100
S'0'
sS'Mat'
p4101
S'3'
sS'Conv'
p4102
S'0'
sS'Tries'
p4103
S'0'
sS'Pts'
p4104
S'0'
sa(dp4105
S'Pens'
p4106
S'0'
sS'Sub'
p4107
S'0'
sS'Lost'
p4108
S'3'
sS'Drop'
p4109
S'0'
sS'Start'
p4110
S'3'
sS'Won'
p4111
S'0'
sS'GfM'
p4112
S'0'
sS'Draw'
p4113
S'0'
sS'Mat'
p4114
S'3'
sS'Conv'
p4115
S'0'
sS'Tries'
p4116
S'1'
sS'Pts'
p4117
S'3'
sa(dp4118
S'Pens'
p4119
S'0'
sS'Sub'
p4120
S'0'
sS'Lost'
p4121
S'1'
sS'Drop'
p4122
S'0'
sS'Start'
p4123
S'1'
sS'Won'
p4124
S'0'
sS'GfM'
p4125
S'0'
sS'Draw'
p4126
S'0'
sS'Mat'
p4127
S'1'
sS'Conv'
p4128
S'0'
sS'Tries'
p4129
S'0'
sS'Pts'
p4130
S'0'
sa(dp4131
S'Pens'
p4132
S'0'
sS'Sub'
p4133
S'0'
sS'Lost'
p4134
S'2'
sS'Drop'
p4135
S'0'
sS'Start'
p4136
S'2'
sS'Won'
p4137
S'0'
sS'GfM'
p4138
S'0'
sS'Draw'
p4139
S'0'
sS'Mat'
p4140
S'2'
sS'Conv'
p4141
S'0'
sS'Tries'
p4142
S'1'
sS'Pts'
p4143
S'3'
sa(dp4144
S'Pens'
p4145
S'0'
sS'Sub'
p4146
S'0'
sS'Lost'
p4147
S'3'
sS'Drop'
p4148
S'0'
sS'Start'
p4149
S'3'
sS'Won'
p4150
S'0'
sS'GfM'
p4151
S'0'
sS'Draw'
p4152
S'0'
sS'Mat'
p4153
S'3'
sS'Conv'
p4154
S'0'
sS'Tries'
p4155
S'0'
sS'Pts'
p4156
S'0'
sa(dp4157
S'Pens'
p4158
S'4'
sS'Sub'
p4159
S'0'
sS'Lost'
p4160
S'2'
sS'Drop'
p4161
S'0'
sS'Start'
p4162
S'2'
sS'Won'
p4163
S'0'
sS'GfM'
p4164
S'0'
sS'Draw'
p4165
S'0'
sS'Mat'
p4166
S'2'
sS'Conv'
p4167
S'1'
sS'Tries'
p4168
S'2'
sS'Pts'
p4169
S'20'
p4170
sa(dp4171
S'Pens'
p4172
S'0'
sS'Sub'
p4173
S'0'
sS'Lost'
p4174
S'2'
sS'Drop'
p4175
S'0'
sS'Start'
p4176
S'2'
sS'Won'
p4177
S'0'
sS'GfM'
p4178
S'0'
sS'Draw'
p4179
S'0'
sS'Mat'
p4180
S'2'
sS'Conv'
p4181
S'0'
sS'Tries'
p4182
S'0'
sS'Pts'
p4183
S'0'
sa(dp4184
S'Pens'
p4185
S'0'
sS'Sub'
p4186
S'0'
sS'Lost'
p4187
S'1'
sS'Drop'
p4188
S'0'
sS'Start'
p4189
S'1'
sS'Won'
p4190
S'0'
sS'GfM'
p4191
S'0'
sS'Draw'
p4192
S'0'
sS'Mat'
p4193
S'1'
sS'Conv'
p4194
S'0'
sS'Tries'
p4195
S'0'
sS'Pts'
p4196
S'0'
sa(dp4197
S'Pens'
p4198
S'0'
sS'Sub'
p4199
S'0'
sS'Lost'
p4200
S'3'
sS'Drop'
p4201
S'0'
sS'Start'
p4202
S'3'
sS'Won'
p4203
S'0'
sS'GfM'
p4204
S'0'
sS'Draw'
p4205
S'0'
sS'Mat'
p4206
S'3'
sS'Conv'
p4207
S'0'
sS'Tries'
p4208
S'0'
sS'Pts'
p4209
S'0'
sa(dp4210
S'Pens'
p4211
S'0'
sS'Sub'
p4212
S'0'
sS'Lost'
p4213
S'1'
sS'Drop'
p4214
S'0'
sS'Start'
p4215
S'1'
sS'Won'
p4216
S'0'
sS'GfM'
p4217
S'0'
sS'Draw'
p4218
S'0'
sS'Mat'
p4219
S'1'
sS'Conv'
p4220
S'0'
sS'Tries'
p4221
S'0'
sS'Pts'
p4222
S'0'
sa(dp4223
S'Pens'
p4224
S'0'
sS'Sub'
p4225
S'0'
sS'Lost'
p4226
S'2'
sS'Drop'
p4227
S'0'
sS'Start'
p4228
S'2'
sS'Won'
p4229
S'0'
sS'GfM'
p4230
S'0'
sS'Draw'
p4231
S'0'
sS'Mat'
p4232
S'2'
sS'Conv'
p4233
S'0'
sS'Tries'
p4234
S'0'
sS'Pts'
p4235
S'0'
sa(dp4236
S'Pens'
p4237
S'0'
sS'Sub'
p4238
S'0'
sS'Lost'
p4239
S'2'
sS'Drop'
p4240
S'0'
sS'Start'
p4241
S'2'
sS'Won'
p4242
S'0'
sS'GfM'
p4243
S'0'
sS'Draw'
p4244
S'0'
sS'Mat'
p4245
S'2'
sS'Conv'
p4246
S'0'
sS'Tries'
p4247
S'0'
sS'Pts'
p4248
S'0'
sa(dp4249
S'Pens'
p4250
S'0'
sS'Sub'
p4251
S'0'
sS'Lost'
p4252
S'2'
sS'Drop'
p4253
S'0'
sS'Start'
p4254
S'2'
sS'Won'
p4255
S'0'
sS'GfM'
p4256
S'0'
sS'Draw'
p4257
S'0'
sS'Mat'
p4258
S'2'
sS'Conv'
p4259
S'0'
sS'Tries'
p4260
S'0'
sS'Pts'
p4261
S'0'
sa(dp4262
S'Pens'
p4263
S'0'
sS'Sub'
p4264
S'0'
sS'Lost'
p4265
S'1'
sS'Drop'
p4266
S'0'
sS'Start'
p4267
S'1'
sS'Won'
p4268
S'0'
sS'GfM'
p4269
S'0'
sS'Draw'
p4270
S'0'
sS'Mat'
p4271
S'1'
sS'Conv'
p4272
S'0'
sS'Tries'
p4273
S'0'
sS'Pts'
p4274
S'0'
sa(dp4275
S'Pens'
p4276
S'0'
sS'Sub'
p4277
S'0'
sS'Lost'
p4278
S'2'
sS'Drop'
p4279
S'0'
sS'Start'
p4280
S'2'
sS'Won'
p4281
S'0'
sS'GfM'
p4282
S'0'
sS'Draw'
p4283
S'0'
sS'Mat'
p4284
S'2'
sS'Conv'
p4285
S'0'
sS'Tries'
p4286
S'0'
sS'Pts'
p4287
S'0'
sa(dp4288
S'Pens'
p4289
S'0'
sS'Sub'
p4290
S'0'
sS'Lost'
p4291
S'1'
sS'Drop'
p4292
S'0'
sS'Start'
p4293
S'1'
sS'Won'
p4294
S'0'
sS'GfM'
p4295
S'0'
sS'Draw'
p4296
S'0'
sS'Mat'
p4297
S'1'
sS'Conv'
p4298
S'0'
sS'Tries'
p4299
S'0'
sS'Pts'
p4300
S'0'
sa(dp4301
S'Pens'
p4302
S'4'
sS'Sub'
p4303
S'0'
sS'Lost'
p4304
S'7'
sS'Drop'
p4305
S'0'
sS'Start'
p4306
S'14'
p4307
sS'Won'
p4308
S'6'
sS'GfM'
p4309
S'0'
sS'Draw'
p4310
S'1'
sS'Mat'
p4311
S'14'
p4312
sS'Conv'
p4313
S'3'
sS'Tries'
p4314
S'2'
sS'Pts'
p4315
S'24'
p4316
sa(dp4317
S'Pens'
p4318
S'0'
sS'Sub'
p4319
S'0'
sS'Lost'
p4320
S'6'
sS'Drop'
p4321
S'0'
sS'Start'
p4322
S'10'
p4323
sS'Won'
p4324
S'4'
sS'GfM'
p4325
S'0'
sS'Draw'
p4326
S'0'
sS'Mat'
p4327
S'10'
p4328
sS'Conv'
p4329
S'0'
sS'Tries'
p4330
S'0'
sS'Pts'
p4331
S'0'
sa(dp4332
S'Pens'
p4333
S'0'
sS'Sub'
p4334
S'0'
sS'Lost'
p4335
S'3'
sS'Drop'
p4336
S'0'
sS'Start'
p4337
S'3'
sS'Won'
p4338
S'0'
sS'GfM'
p4339
S'0'
sS'Draw'
p4340
S'0'
sS'Mat'
p4341
S'3'
sS'Conv'
p4342
S'0'
sS'Tries'
p4343
S'0'
sS'Pts'
p4344
S'0'
sa(dp4345
S'Pens'
p4346
S'0'
sS'Sub'
p4347
S'0'
sS'Lost'
p4348
S'2'
sS'Drop'
p4349
S'0'
sS'Start'
p4350
S'2'
sS'Won'
p4351
S'0'
sS'GfM'
p4352
S'0'
sS'Draw'
p4353
S'0'
sS'Mat'
p4354
S'2'
sS'Conv'
p4355
S'0'
sS'Tries'
p4356
S'0'
sS'Pts'
p4357
S'0'
sa(dp4358
S'Pens'
p4359
S'0'
sS'Sub'
p4360
S'0'
sS'Lost'
p4361
S'5'
sS'Drop'
p4362
S'0'
sS'Start'
p4363
S'6'
sS'Won'
p4364
S'0'
sS'GfM'
p4365
S'0'
sS'Draw'
p4366
S'1'
sS'Mat'
p4367
S'6'
sS'Conv'
p4368
S'0'
sS'Tries'
p4369
S'2'
sS'Pts'
p4370
S'6'
sa(dp4371
S'Pens'
p4372
S'0'
sS'Sub'
p4373
S'0'
sS'Lost'
p4374
S'4'
sS'Drop'
p4375
S'0'
sS'Start'
p4376
S'5'
sS'Won'
p4377
S'1'
sS'GfM'
p4378
S'0'
sS'Draw'
p4379
S'0'
sS'Mat'
p4380
S'5'
sS'Conv'
p4381
S'0'
sS'Tries'
p4382
S'0'
sS'Pts'
p4383
S'0'
sa(dp4384
S'Pens'
p4385
S'0'
sS'Sub'
p4386
S'0'
sS'Lost'
p4387
S'2'
sS'Drop'
p4388
S'0'
sS'Start'
p4389
S'2'
sS'Won'
p4390
S'0'
sS'GfM'
p4391
S'0'
sS'Draw'
p4392
S'0'
sS'Mat'
p4393
S'2'
sS'Conv'
p4394
S'0'
sS'Tries'
p4395
S'0'
sS'Pts'
p4396
S'0'
sa(dp4397
S'Pens'
p4398
S'0'
sS'Sub'
p4399
S'0'
sS'Lost'
p4400
S'2'
sS'Drop'
p4401
S'0'
sS'Start'
p4402
S'2'
sS'Won'
p4403
S'0'
sS'GfM'
p4404
S'0'
sS'Draw'
p4405
S'0'
sS'Mat'
p4406
S'2'
sS'Conv'
p4407
S'1'
sS'Tries'
p4408
S'0'
sS'Pts'
p4409
S'2'
sa(dp4410
S'Pens'
p4411
S'0'
sS'Sub'
p4412
S'0'
sS'Lost'
p4413
S'7'
sS'Drop'
p4414
S'0'
sS'Start'
p4415
S'10'
p4416
sS'Won'
p4417
S'3'
sS'GfM'
p4418
S'0'
sS'Draw'
p4419
S'0'
sS'Mat'
p4420
S'10'
p4421
sS'Conv'
p4422
S'0'
sS'Tries'
p4423
S'1'
sS'Pts'
p4424
S'3'
sa(dp4425
S'Pens'
p4426
S'0'
sS'Sub'
p4427
S'0'
sS'Lost'
p4428
S'5'
sS'Drop'
p4429
S'0'
sS'Start'
p4430
S'5'
sS'Won'
p4431
S'0'
sS'GfM'
p4432
S'0'
sS'Draw'
p4433
S'0'
sS'Mat'
p4434
S'5'
sS'Conv'
p4435
S'0'
sS'Tries'
p4436
S'1'
sS'Pts'
p4437
S'3'
sa(dp4438
S'Pens'
p4439
S'0'
sS'Sub'
p4440
S'0'
sS'Lost'
p4441
S'6'
sS'Drop'
p4442
S'0'
sS'Start'
p4443
S'7'
sS'Won'
p4444
S'1'
sS'GfM'
p4445
S'0'
sS'Draw'
p4446
S'0'
sS'Mat'
p4447
S'7'
sS'Conv'
p4448
S'1'
sS'Tries'
p4449
S'0'
sS'Pts'
p4450
S'2'
sa(dp4451
S'Pens'
p4452
S'0'
sS'Sub'
p4453
S'0'
sS'Lost'
p4454
S'7'
sS'Drop'
p4455
S'0'
sS'Start'
p4456
S'12'
p4457
sS'Won'
p4458
S'4'
sS'GfM'
p4459
S'0'
sS'Draw'
p4460
S'1'
sS'Mat'
p4461
S'12'
p4462
sS'Conv'
p4463
S'9'
sS'Tries'
p4464
S'0'
sS'Pts'
p4465
S'18'
p4466
sa(dp4467
S'Pens'
p4468
S'0'
sS'Sub'
p4469
S'0'
sS'Lost'
p4470
S'2'
sS'Drop'
p4471
S'0'
sS'Start'
p4472
S'2'
sS'Won'
p4473
S'0'
sS'GfM'
p4474
S'0'
sS'Draw'
p4475
S'0'
sS'Mat'
p4476
S'2'
sS'Conv'
p4477
S'0'
sS'Tries'
p4478
S'0'
sS'Pts'
p4479
S'0'
sa(dp4480
S'Pens'
p4481
S'0'
sS'Sub'
p4482
S'0'
sS'Lost'
p4483
S'5'
sS'Drop'
p4484
S'0'
sS'Start'
p4485
S'10'
p4486
sS'Won'
p4487
S'4'
sS'GfM'
p4488
S'0'
sS'Draw'
p4489
S'1'
sS'Mat'
p4490
S'10'
p4491
sS'Conv'
p4492
S'0'
sS'Tries'
p4493
S'0'
sS'Pts'
p4494
S'0'
sa(dp4495
S'Pens'
p4496
S'0'
sS'Sub'
p4497
S'0'
sS'Lost'
p4498
S'11'
p4499
sS'Drop'
p4500
S'0'
sS'Start'
p4501
S'20'
p4502
sS'Won'
p4503
S'8'
sS'GfM'
p4504
S'0'
sS'Draw'
p4505
S'1'
sS'Mat'
p4506
S'20'
p4507
sS'Conv'
p4508
S'0'
sS'Tries'
p4509
S'11'
p4510
sS'Pts'
p4511
S'33'
p4512
sa(dp4513
S'Pens'
p4514
S'0'
sS'Sub'
p4515
S'1'
sS'Lost'
p4516
S'2'
sS'Drop'
p4517
S'0'
sS'Start'
p4518
S'1'
sS'Won'
p4519
S'0'
sS'GfM'
p4520
S'0'
sS'Draw'
p4521
S'0'
sS'Mat'
p4522
S'2'
sS'Conv'
p4523
S'0'
sS'Tries'
p4524
S'0'
sS'Pts'
p4525
S'0'
sa(dp4526
S'Pens'
p4527
S'0'
sS'Sub'
p4528
S'1'
sS'Lost'
p4529
S'3'
sS'Drop'
p4530
S'0'
sS'Start'
p4531
S'4'
sS'Won'
p4532
S'2'
sS'GfM'
p4533
S'0'
sS'Draw'
p4534
S'0'
sS'Mat'
p4535
S'5'
sS'Conv'
p4536
S'0'
sS'Tries'
p4537
S'1'
sS'Pts'
p4538
S'3'
sa(dp4539
S'Pens'
p4540
S'0'
sS'Sub'
p4541
S'0'
sS'Lost'
p4542
S'1'
sS'Drop'
p4543
S'0'
sS'Start'
p4544
S'1'
sS'Won'
p4545
S'0'
sS'GfM'
p4546
S'0'
sS'Draw'
p4547
S'0'
sS'Mat'
p4548
S'1'
sS'Conv'
p4549
S'0'
sS'Tries'
p4550
S'0'
sS'Pts'
p4551
S'0'
sa(dp4552
S'Pens'
p4553
S'0'
sS'Sub'
p4554
S'0'
sS'Lost'
p4555
S'1'
sS'Drop'
p4556
S'0'
sS'Start'
p4557
S'1'
sS'Won'
p4558
S'0'
sS'GfM'
p4559
S'0'
sS'Draw'
p4560
S'0'
sS'Mat'
p4561
S'1'
sS'Conv'
p4562
S'0'
sS'Tries'
p4563
S'0'
sS'Pts'
p4564
S'0'
sa(dp4565
S'Pens'
p4566
S'0'
sS'Sub'
p4567
S'0'
sS'Lost'
p4568
S'1'
sS'Drop'
p4569
S'0'
sS'Start'
p4570
S'1'
sS'Won'
p4571
S'0'
sS'GfM'
p4572
S'0'
sS'Draw'
p4573
S'0'
sS'Mat'
p4574
S'1'
sS'Conv'
p4575
S'0'
sS'Tries'
p4576
S'0'
sS'Pts'
p4577
S'0'
sa(dp4578
S'Pens'
p4579
S'0'
sS'Sub'
p4580
S'0'
sS'Lost'
p4581
S'2'
sS'Drop'
p4582
S'0'
sS'Start'
p4583
S'2'
sS'Won'
p4584
S'0'
sS'GfM'
p4585
S'0'
sS'Draw'
p4586
S'0'
sS'Mat'
p4587
S'2'
sS'Conv'
p4588
S'0'
sS'Tries'
p4589
S'0'
sS'Pts'
p4590
S'0'
sa(dp4591
S'Pens'
p4592
S'0'
sS'Sub'
p4593
S'0'
sS'Lost'
p4594
S'16'
p4595
sS'Drop'
p4596
S'0'
sS'Start'
p4597
S'26'
p4598
sS'Won'
p4599
S'9'
sS'GfM'
p4600
S'0'
sS'Draw'
p4601
S'1'
sS'Mat'
p4602
S'26'
p4603
sS'Conv'
p4604
S'0'
sS'Tries'
p4605
S'2'
sS'Pts'
p4606
S'6'
sa(dp4607
S'Pens'
p4608
S'0'
sS'Sub'
p4609
S'0'
sS'Lost'
p4610
S'2'
sS'Drop'
p4611
S'0'
sS'Start'
p4612
S'2'
sS'Won'
p4613
S'0'
sS'GfM'
p4614
S'0'
sS'Draw'
p4615
S'0'
sS'Mat'
p4616
S'2'
sS'Conv'
p4617
S'0'
sS'Tries'
p4618
S'1'
sS'Pts'
p4619
S'3'
sa(dp4620
S'Pens'
p4621
S'0'
sS'Sub'
p4622
S'0'
sS'Lost'
p4623
S'4'
sS'Drop'
p4624
S'0'
sS'Start'
p4625
S'7'
sS'Won'
p4626
S'3'
sS'GfM'
p4627
S'0'
sS'Draw'
p4628
S'0'
sS'Mat'
p4629
S'7'
sS'Conv'
p4630
S'0'
sS'Tries'
p4631
S'1'
sS'Pts'
p4632
S'3'
sa(dp4633
S'Pens'
p4634
S'0'
sS'Sub'
p4635
S'0'
sS'Lost'
p4636
S'7'
sS'Drop'
p4637
S'0'
sS'Start'
p4638
S'13'
p4639
sS'Won'
p4640
S'6'
sS'GfM'
p4641
S'0'
sS'Draw'
p4642
S'0'
sS'Mat'
p4643
S'13'
p4644
sS'Conv'
p4645
S'0'
sS'Tries'
p4646
S'0'
sS'Pts'
p4647
S'0'
sa(dp4648
S'Pens'
p4649
S'0'
sS'Sub'
p4650
S'0'
sS'Lost'
p4651
S'4'
sS'Drop'
p4652
S'0'
sS'Start'
p4653
S'5'
sS'Won'
p4654
S'1'
sS'GfM'
p4655
S'0'
sS'Draw'
p4656
S'0'
sS'Mat'
p4657
S'5'
sS'Conv'
p4658
S'0'
sS'Tries'
p4659
S'1'
sS'Pts'
p4660
S'3'
sa(dp4661
S'Pens'
p4662
S'0'
sS'Sub'
p4663
S'0'
sS'Lost'
p4664
S'1'
sS'Drop'
p4665
S'0'
sS'Start'
p4666
S'1'
sS'Won'
p4667
S'0'
sS'GfM'
p4668
S'0'
sS'Draw'
p4669
S'0'
sS'Mat'
p4670
S'1'
sS'Conv'
p4671
S'0'
sS'Tries'
p4672
S'0'
sS'Pts'
p4673
S'0'
sa(dp4674
S'Pens'
p4675
S'0'
sS'Sub'
p4676
S'0'
sS'Lost'
p4677
S'3'
sS'Drop'
p4678
S'0'
sS'Start'
p4679
S'10'
p4680
sS'Won'
p4681
S'6'
sS'GfM'
p4682
S'0'
sS'Draw'
p4683
S'1'
sS'Mat'
p4684
S'10'
p4685
sS'Conv'
p4686
S'0'
sS'Tries'
p4687
S'1'
sS'Pts'
p4688
S'3'
sa(dp4689
S'Pens'
p4690
S'0'
sS'Sub'
p4691
S'0'
sS'Lost'
p4692
S'3'
sS'Drop'
p4693
S'0'
sS'Start'
p4694
S'6'
sS'Won'
p4695
S'3'
sS'GfM'
p4696
S'0'
sS'Draw'
p4697
S'0'
sS'Mat'
p4698
S'6'
sS'Conv'
p4699
S'0'
sS'Tries'
p4700
S'0'
sS'Pts'
p4701
S'0'
sa(dp4702
S'Pens'
p4703
S'0'
sS'Sub'
p4704
S'0'
sS'Lost'
p4705
S'21'
p4706
sS'Drop'
p4707
S'0'
sS'Start'
p4708
S'30'
p4709
sS'Won'
p4710
S'8'
sS'GfM'
p4711
S'0'
sS'Draw'
p4712
S'1'
sS'Mat'
p4713
S'30'
p4714
sS'Conv'
p4715
S'0'
sS'Tries'
p4716
S'3'
sS'Pts'
p4717
S'9'
sa(dp4718
S'Pens'
p4719
S'0'
sS'Sub'
p4720
S'0'
sS'Lost'
p4721
S'1'
sS'Drop'
p4722
S'0'
sS'Start'
p4723
S'1'
sS'Won'
p4724
S'0'
sS'GfM'
p4725
S'0'
sS'Draw'
p4726
S'0'
sS'Mat'
p4727
S'1'
sS'Conv'
p4728
S'0'
sS'Tries'
p4729
S'0'
sS'Pts'
p4730
S'0'
sa(dp4731
S'Pens'
p4732
S'0'
sS'Sub'
p4733
S'0'
sS'Lost'
p4734
S'2'
sS'Drop'
p4735
S'0'
sS'Start'
p4736
S'4'
sS'Won'
p4737
S'1'
sS'GfM'
p4738
S'0'
sS'Draw'
p4739
S'1'
sS'Mat'
p4740
S'4'
sS'Conv'
p4741
S'0'
sS'Tries'
p4742
S'0'
sS'Pts'
p4743
S'0'
sa(dp4744
S'Pens'
p4745
S'2'
sS'Sub'
p4746
S'0'
sS'Lost'
p4747
S'3'
sS'Drop'
p4748
S'0'
sS'Start'
p4749
S'6'
sS'Won'
p4750
S'3'
sS'GfM'
p4751
S'0'
sS'Draw'
p4752
S'0'
sS'Mat'
p4753
S'6'
sS'Conv'
p4754
S'1'
sS'Tries'
p4755
S'2'
sS'Pts'
p4756
S'14'
p4757
sa(dp4758
S'Pens'
p4759
S'0'
sS'Sub'
p4760
S'0'
sS'Lost'
p4761
S'4'
sS'Drop'
p4762
S'0'
sS'Start'
p4763
S'9'
sS'Won'
p4764
S'4'
sS'GfM'
p4765
S'0'
sS'Draw'
p4766
S'1'
sS'Mat'
p4767
S'9'
sS'Conv'
p4768
S'0'
sS'Tries'
p4769
S'0'
sS'Pts'
p4770
S'0'
sa(dp4771
S'Pens'
p4772
S'0'
sS'Sub'
p4773
S'0'
sS'Lost'
p4774
S'3'
sS'Drop'
p4775
S'0'
sS'Start'
p4776
S'7'
sS'Won'
p4777
S'3'
sS'GfM'
p4778
S'0'
sS'Draw'
p4779
S'1'
sS'Mat'
p4780
S'7'
sS'Conv'
p4781
S'0'
sS'Tries'
p4782
S'1'
sS'Pts'
p4783
S'3'
sa(dp4784
S'Pens'
p4785
S'0'
sS'Sub'
p4786
S'0'
sS'Lost'
p4787
S'1'
sS'Drop'
p4788
S'0'
sS'Start'
p4789
S'1'
sS'Won'
p4790
S'0'
sS'GfM'
p4791
S'0'
sS'Draw'
p4792
S'0'
sS'Mat'
p4793
S'1'
sS'Conv'
p4794
S'0'
sS'Tries'
p4795
S'0'
sS'Pts'
p4796
S'0'
sa(dp4797
S'Pens'
p4798
S'0'
sS'Sub'
p4799
S'0'
sS'Lost'
p4800
S'1'
sS'Drop'
p4801
S'0'
sS'Start'
p4802
S'3'
sS'Won'
p4803
S'2'
sS'GfM'
p4804
S'0'
sS'Draw'
p4805
S'0'
sS'Mat'
p4806
S'3'
sS'Conv'
p4807
S'2'
sS'Tries'
p4808
S'0'
sS'Pts'
p4809
S'4'
sa(dp4810
S'Pens'
p4811
S'2'
sS'Sub'
p4812
S'0'
sS'Lost'
p4813
S'8'
sS'Drop'
p4814
S'0'
sS'Start'
p4815
S'14'
p4816
sS'Won'
p4817
S'5'
sS'GfM'
p4818
S'0'
sS'Draw'
p4819
S'1'
sS'Mat'
p4820
S'14'
p4821
sS'Conv'
p4822
S'2'
sS'Tries'
p4823
S'0'
sS'Pts'
p4824
S'10'
p4825
sa(dp4826
S'Pens'
p4827
S'0'
sS'Sub'
p4828
S'0'
sS'Lost'
p4829
S'13'
p4830
sS'Drop'
p4831
S'0'
sS'Start'
p4832
S'19'
p4833
sS'Won'
p4834
S'6'
sS'GfM'
p4835
S'0'
sS'Draw'
p4836
S'0'
sS'Mat'
p4837
S'19'
p4838
sS'Conv'
p4839
S'0'
sS'Tries'
p4840
S'5'
sS'Pts'
p4841
S'15'
p4842
sa(dp4843
S'Pens'
p4844
S'0'
sS'Sub'
p4845
S'0'
sS'Lost'
p4846
S'1'
sS'Drop'
p4847
S'0'
sS'Start'
p4848
S'2'
sS'Won'
p4849
S'0'
sS'GfM'
p4850
S'0'
sS'Draw'
p4851
S'1'
sS'Mat'
p4852
S'2'
sS'Conv'
p4853
S'0'
sS'Tries'
p4854
S'0'
sS'Pts'
p4855
S'0'
sa(dp4856
S'Pens'
p4857
S'0'
sS'Sub'
p4858
S'0'
sS'Lost'
p4859
S'1'
sS'Drop'
p4860
S'0'
sS'Start'
p4861
S'1'
sS'Won'
p4862
S'0'
sS'GfM'
p4863
S'0'
sS'Draw'
p4864
S'0'
sS'Mat'
p4865
S'1'
sS'Conv'
p4866
S'0'
sS'Tries'
p4867
S'0'
sS'Pts'
p4868
S'0'
sa(dp4869
S'Pens'
p4870
S'0'
sS'Sub'
p4871
S'0'
sS'Lost'
p4872
S'4'
sS'Drop'
p4873
S'0'
sS'Start'
p4874
S'8'
sS'Won'
p4875
S'3'
sS'GfM'
p4876
S'0'
sS'Draw'
p4877
S'1'
sS'Mat'
p4878
S'8'
sS'Conv'
p4879
S'0'
sS'Tries'
p4880
S'2'
sS'Pts'
p4881
S'6'
sa(dp4882
S'Pens'
p4883
S'0'
sS'Sub'
p4884
S'0'
sS'Lost'
p4885
S'0'
sS'Drop'
p4886
S'0'
sS'Start'
p4887
S'2'
sS'Won'
p4888
S'1'
sS'GfM'
p4889
S'0'
sS'Draw'
p4890
S'1'
sS'Mat'
p4891
S'2'
sS'Conv'
p4892
S'0'
sS'Tries'
p4893
S'1'
sS'Pts'
p4894
S'3'
sa(dp4895
S'Pens'
p4896
S'1'
sS'Sub'
p4897
S'0'
sS'Lost'
p4898
S'9'
sS'Drop'
p4899
S'2'
sS'Start'
p4900
S'14'
p4901
sS'Won'
p4902
S'5'
sS'GfM'
p4903
S'0'
sS'Draw'
p4904
S'0'
sS'Mat'
p4905
S'14'
p4906
sS'Conv'
p4907
S'0'
sS'Tries'
p4908
S'2'
sS'Pts'
p4909
S'15'
p4910
sa(dp4911
S'Pens'
p4912
S'0'
sS'Sub'
p4913
S'0'
sS'Lost'
p4914
S'3'
sS'Drop'
p4915
S'0'
sS'Start'
p4916
S'4'
sS'Won'
p4917
S'1'
sS'GfM'
p4918
S'0'
sS'Draw'
p4919
S'0'
sS'Mat'
p4920
S'4'
sS'Conv'
p4921
S'0'
sS'Tries'
p4922
S'0'
sS'Pts'
p4923
S'0'
sa(dp4924
S'Pens'
p4925
S'0'
sS'Sub'
p4926
S'0'
sS'Lost'
p4927
S'0'
sS'Drop'
p4928
S'0'
sS'Start'
p4929
S'2'
sS'Won'
p4930
S'2'
sS'GfM'
p4931
S'0'
sS'Draw'
p4932
S'0'
sS'Mat'
p4933
S'2'
sS'Conv'
p4934
S'0'
sS'Tries'
p4935
S'2'
sS'Pts'
p4936
S'6'
sa(dp4937
S'Pens'
p4938
S'0'
sS'Sub'
p4939
S'0'
sS'Lost'
p4940
S'3'
sS'Drop'
p4941
S'0'
sS'Start'
p4942
S'5'
sS'Won'
p4943
S'2'
sS'GfM'
p4944
S'0'
sS'Draw'
p4945
S'0'
sS'Mat'
p4946
S'5'
sS'Conv'
p4947
S'0'
sS'Tries'
p4948
S'0'
sS'Pts'
p4949
S'0'
sa(dp4950
S'Pens'
p4951
S'0'
sS'Sub'
p4952
S'0'
sS'Lost'
p4953
S'0'
sS'Drop'
p4954
S'0'
sS'Start'
p4955
S'2'
sS'Won'
p4956
S'2'
sS'GfM'
p4957
S'0'
sS'Draw'
p4958
S'0'
sS'Mat'
p4959
S'2'
sS'Conv'
p4960
S'0'
sS'Tries'
p4961
S'0'
sS'Pts'
p4962
S'0'
sa(dp4963
S'Pens'
p4964
S'2'
sS'Sub'
p4965
S'0'
sS'Lost'
p4966
S'1'
sS'Drop'
p4967
S'0'
sS'Start'
p4968
S'1'
sS'Won'
p4969
S'0'
sS'GfM'
p4970
S'0'
sS'Draw'
p4971
S'0'
sS'Mat'
p4972
S'1'
sS'Conv'
p4973
S'0'
sS'Tries'
p4974
S'0'
sS'Pts'
p4975
S'6'
sa(dp4976
S'Pens'
p4977
S'0'
sS'Sub'
p4978
S'0'
sS'Lost'
p4979
S'2'
sS'Drop'
p4980
S'0'
sS'Start'
p4981
S'2'
sS'Won'
p4982
S'0'
sS'GfM'
p4983
S'0'
sS'Draw'
p4984
S'0'
sS'Mat'
p4985
S'2'
sS'Conv'
p4986
S'0'
sS'Tries'
p4987
S'0'
sS'Pts'
p4988
S'0'
sa(dp4989
S'Pens'
p4990
S'0'
sS'Sub'
p4991
S'0'
sS'Lost'
p4992
S'2'
sS'Drop'
p4993
S'0'
sS'Start'
p4994
S'2'
sS'Won'
p4995
S'0'
sS'GfM'
p4996
S'0'
sS'Draw'
p4997
S'0'
sS'Mat'
p4998
S'2'
sS'Conv'
p4999
S'0'
sS'Tries'
p5000
S'0'
sS'Pts'
p5001
S'0'
sa(dp5002
S'Pens'
p5003
S'0'
sS'Sub'
p5004
S'0'
sS'Lost'
p5005
S'1'
sS'Drop'
p5006
S'0'
sS'Start'
p5007
S'1'
sS'Won'
p5008
S'0'
sS'GfM'
p5009
S'0'
sS'Draw'
p5010
S'0'
sS'Mat'
p5011
S'1'
sS'Conv'
p5012
S'0'
sS'Tries'
p5013
S'0'
sS'Pts'
p5014
S'0'
sa(dp5015
S'Pens'
p5016
S'0'
sS'Sub'
p5017
S'0'
sS'Lost'
p5018
S'2'
sS'Drop'
p5019
S'0'
sS'Start'
p5020
S'2'
sS'Won'
p5021
S'0'
sS'GfM'
p5022
S'0'
sS'Draw'
p5023
S'0'
sS'Mat'
p5024
S'2'
sS'Conv'
p5025
S'0'
sS'Tries'
p5026
S'0'
sS'Pts'
p5027
S'0'
sa(dp5028
S'Pens'
p5029
S'0'
sS'Sub'
p5030
S'0'
sS'Lost'
p5031
S'1'
sS'Drop'
p5032
S'0'
sS'Start'
p5033
S'1'
sS'Won'
p5034
S'0'
sS'GfM'
p5035
S'0'
sS'Draw'
p5036
S'0'
sS'Mat'
p5037
S'1'
sS'Conv'
p5038
S'0'
sS'Tries'
p5039
S'0'
sS'Pts'
p5040
S'0'
sa(dp5041
S'Pens'
p5042
S'0'
sS'Sub'
p5043
S'0'
sS'Lost'
p5044
S'1'
sS'Drop'
p5045
S'0'
sS'Start'
p5046
S'1'
sS'Won'
p5047
S'0'
sS'GfM'
p5048
S'0'
sS'Draw'
p5049
S'0'
sS'Mat'
p5050
S'1'
sS'Conv'
p5051
S'0'
sS'Tries'
p5052
S'0'
sS'Pts'
p5053
S'0'
sa(dp5054
S'Pens'
p5055
S'0'
sS'Sub'
p5056
S'0'
sS'Lost'
p5057
S'15'
p5058
sS'Drop'
p5059
S'0'
sS'Start'
p5060
S'20'
p5061
sS'Won'
p5062
S'5'
sS'GfM'
p5063
S'0'
sS'Draw'
p5064
S'0'
sS'Mat'
p5065
S'20'
p5066
sS'Conv'
p5067
S'0'
sS'Tries'
p5068
S'1'
sS'Pts'
p5069
S'3'
sa(dp5070
S'Pens'
p5071
S'0'
sS'Sub'
p5072
S'0'
sS'Lost'
p5073
S'3'
sS'Drop'
p5074
S'0'
sS'Start'
p5075
S'3'
sS'Won'
p5076
S'0'
sS'GfM'
p5077
S'0'
sS'Draw'
p5078
S'0'
sS'Mat'
p5079
S'3'
sS'Conv'
p5080
S'0'
sS'Tries'
p5081
S'0'
sS'Pts'
p5082
S'0'
sa(dp5083
S'Pens'
p5084
S'0'
sS'Sub'
p5085
S'0'
sS'Lost'
p5086
S'2'
sS'Drop'
p5087
S'0'
sS'Start'
p5088
S'2'
sS'Won'
p5089
S'0'
sS'GfM'
p5090
S'0'
sS'Draw'
p5091
S'0'
sS'Mat'
p5092
S'2'
sS'Conv'
p5093
S'0'
sS'Tries'
p5094
S'0'
sS'Pts'
p5095
S'0'
sa(dp5096
S'Pens'
p5097
S'2'
sS'Sub'
p5098
S'0'
sS'Lost'
p5099
S'3'
sS'Drop'
p5100
S'0'
sS'Start'
p5101
S'4'
sS'Won'
p5102
S'1'
sS'GfM'
p5103
S'0'
sS'Draw'
p5104
S'0'
sS'Mat'
p5105
S'4'
sS'Conv'
p5106
S'1'
sS'Tries'
p5107
S'0'
sS'Pts'
p5108
S'8'
sa(dp5109
S'Pens'
p5110
S'1'
sS'Sub'
p5111
S'0'
sS'Lost'
p5112
S'11'
p5113
sS'Drop'
p5114
S'0'
sS'Start'
p5115
S'16'
p5116
sS'Won'
p5117
S'5'
sS'GfM'
p5118
S'0'
sS'Draw'
p5119
S'0'
sS'Mat'
p5120
S'16'
p5121
sS'Conv'
p5122
S'2'
sS'Tries'
p5123
S'6'
sS'Pts'
p5124
S'25'
p5125
sa(dp5126
S'Pens'
p5127
S'4'
sS'Sub'
p5128
S'0'
sS'Lost'
p5129
S'8'
sS'Drop'
p5130
S'0'
sS'Start'
p5131
S'10'
p5132
sS'Won'
p5133
S'2'
sS'GfM'
p5134
S'0'
sS'Draw'
p5135
S'0'
sS'Mat'
p5136
S'10'
p5137
sS'Conv'
p5138
S'3'
sS'Tries'
p5139
S'1'
sS'Pts'
p5140
S'21'
p5141
sa(dp5142
S'Pens'
p5143
S'0'
sS'Sub'
p5144
S'0'
sS'Lost'
p5145
S'1'
sS'Drop'
p5146
S'0'
sS'Start'
p5147
S'1'
sS'Won'
p5148
S'0'
sS'GfM'
p5149
S'0'
sS'Draw'
p5150
S'0'
sS'Mat'
p5151
S'1'
sS'Conv'
p5152
S'0'
sS'Tries'
p5153
S'0'
sS'Pts'
p5154
S'0'
sa(dp5155
S'Pens'
p5156
S'0'
sS'Sub'
p5157
S'0'
sS'Lost'
p5158
S'2'
sS'Drop'
p5159
S'0'
sS'Start'
p5160
S'3'
sS'Won'
p5161
S'1'
sS'GfM'
p5162
S'0'
sS'Draw'
p5163
S'0'
sS'Mat'
p5164
S'3'
sS'Conv'
p5165
S'0'
sS'Tries'
p5166
S'0'
sS'Pts'
p5167
S'0'
sa(dp5168
S'Pens'
p5169
S'0'
sS'Sub'
p5170
S'0'
sS'Lost'
p5171
S'5'
sS'Drop'
p5172
S'0'
sS'Start'
p5173
S'8'
sS'Won'
p5174
S'3'
sS'GfM'
p5175
S'0'
sS'Draw'
p5176
S'0'
sS'Mat'
p5177
S'8'
sS'Conv'
p5178
S'0'
sS'Tries'
p5179
S'1'
sS'Pts'
p5180
S'3'
sa(dp5181
S'Pens'
p5182
S'6'
sS'Sub'
p5183
S'0'
sS'Lost'
p5184
S'4'
sS'Drop'
p5185
S'0'
sS'Start'
p5186
S'7'
sS'Won'
p5187
S'3'
sS'GfM'
p5188
S'0'
sS'Draw'
p5189
S'0'
sS'Mat'
p5190
S'7'
sS'Conv'
p5191
S'3'
sS'Tries'
p5192
S'1'
sS'Pts'
p5193
S'27'
p5194
sa(dp5195
S'Pens'
p5196
S'0'
sS'Sub'
p5197
S'0'
sS'Lost'
p5198
S'7'
sS'Drop'
p5199
S'0'
sS'Start'
p5200
S'9'
sS'Won'
p5201
S'2'
sS'GfM'
p5202
S'0'
sS'Draw'
p5203
S'0'
sS'Mat'
p5204
S'9'
sS'Conv'
p5205
S'0'
sS'Tries'
p5206
S'1'
sS'Pts'
p5207
S'3'
sa(dp5208
S'Pens'
p5209
S'0'
sS'Sub'
p5210
S'0'
sS'Lost'
p5211
S'10'
p5212
sS'Drop'
p5213
S'0'
sS'Start'
p5214
S'13'
p5215
sS'Won'
p5216
S'3'
sS'GfM'
p5217
S'0'
sS'Draw'
p5218
S'0'
sS'Mat'
p5219
S'13'
p5220
sS'Conv'
p5221
S'0'
sS'Tries'
p5222
S'0'
sS'Pts'
p5223
S'0'
sa(dp5224
S'Pens'
p5225
S'0'
sS'Sub'
p5226
S'0'
sS'Lost'
p5227
S'1'
sS'Drop'
p5228
S'0'
sS'Start'
p5229
S'2'
sS'Won'
p5230
S'1'
sS'GfM'
p5231
S'0'
sS'Draw'
p5232
S'0'
sS'Mat'
p5233
S'2'
sS'Conv'
p5234
S'0'
sS'Tries'
p5235
S'0'
sS'Pts'
p5236
S'0'
sa(dp5237
S'Pens'
p5238
S'0'
sS'Sub'
p5239
S'0'
sS'Lost'
p5240
S'6'
sS'Drop'
p5241
S'0'
sS'Start'
p5242
S'9'
sS'Won'
p5243
S'3'
sS'GfM'
p5244
S'0'
sS'Draw'
p5245
S'0'
sS'Mat'
p5246
S'9'
sS'Conv'
p5247
S'0'
sS'Tries'
p5248
S'2'
sS'Pts'
p5249
S'6'
sa(dp5250
S'Pens'
p5251
S'0'
sS'Sub'
p5252
S'0'
sS'Lost'
p5253
S'8'
sS'Drop'
p5254
S'0'
sS'Start'
p5255
S'12'
p5256
sS'Won'
p5257
S'4'
sS'GfM'
p5258
S'0'
sS'Draw'
p5259
S'0'
sS'Mat'
p5260
S'12'
p5261
sS'Conv'
p5262
S'0'
sS'Tries'
p5263
S'4'
sS'Pts'
p5264
S'12'
p5265
sa(dp5266
S'Pens'
p5267
S'0'
sS'Sub'
p5268
S'0'
sS'Lost'
p5269
S'30'
p5270
sS'Drop'
p5271
S'0'
sS'Start'
p5272
S'41'
p5273
sS'Won'
p5274
S'9'
sS'GfM'
p5275
S'0'
sS'Draw'
p5276
S'2'
sS'Mat'
p5277
S'41'
p5278
sS'Conv'
p5279
S'0'
sS'Tries'
p5280
S'2'
sS'Pts'
p5281
S'6'
sa(dp5282
S'Pens'
p5283
S'0'
sS'Sub'
p5284
S'0'
sS'Lost'
p5285
S'4'
sS'Drop'
p5286
S'0'
sS'Start'
p5287
S'6'
sS'Won'
p5288
S'2'
sS'GfM'
p5289
S'0'
sS'Draw'
p5290
S'0'
sS'Mat'
p5291
S'6'
sS'Conv'
p5292
S'3'
sS'Tries'
p5293
S'0'
sS'Pts'
p5294
S'6'
sa(dp5295
S'Pens'
p5296
S'0'
sS'Sub'
p5297
S'0'
sS'Lost'
p5298
S'3'
sS'Drop'
p5299
S'0'
sS'Start'
p5300
S'4'
sS'Won'
p5301
S'1'
sS'GfM'
p5302
S'0'
sS'Draw'
p5303
S'0'
sS'Mat'
p5304
S'4'
sS'Conv'
p5305
S'0'
sS'Tries'
p5306
S'0'
sS'Pts'
p5307
S'0'
sa(dp5308
S'Pens'
p5309
S'0'
sS'Sub'
p5310
S'0'
sS'Lost'
p5311
S'1'
sS'Drop'
p5312
S'0'
sS'Start'
p5313
S'1'
sS'Won'
p5314
S'0'
sS'GfM'
p5315
S'0'
sS'Draw'
p5316
S'0'
sS'Mat'
p5317
S'1'
sS'Conv'
p5318
S'0'
sS'Tries'
p5319
S'0'
sS'Pts'
p5320
S'0'
sa(dp5321
S'Pens'
p5322
S'0'
sS'Sub'
p5323
S'0'
sS'Lost'
p5324
S'1'
sS'Drop'
p5325
S'0'
sS'Start'
p5326
S'1'
sS'Won'
p5327
S'0'
sS'GfM'
p5328
S'0'
sS'Draw'
p5329
S'0'
sS'Mat'
p5330
S'1'
sS'Conv'
p5331
S'0'
sS'Tries'
p5332
S'0'
sS'Pts'
p5333
S'0'
sa(dp5334
S'Pens'
p5335
S'0'
sS'Sub'
p5336
S'0'
sS'Lost'
p5337
S'12'
p5338
sS'Drop'
p5339
S'0'
sS'Start'
p5340
S'14'
p5341
sS'Won'
p5342
S'2'
sS'GfM'
p5343
S'0'
sS'Draw'
p5344
S'0'
sS'Mat'
p5345
S'14'
p5346
sS'Conv'
p5347
S'0'
sS'Tries'
p5348
S'1'
sS'Pts'
p5349
S'3'
sa(dp5350
S'Pens'
p5351
S'0'
sS'Sub'
p5352
S'0'
sS'Lost'
p5353
S'8'
sS'Drop'
p5354
S'0'
sS'Start'
p5355
S'11'
p5356
sS'Won'
p5357
S'3'
sS'GfM'
p5358
S'0'
sS'Draw'
p5359
S'0'
sS'Mat'
p5360
S'11'
p5361
sS'Conv'
p5362
S'0'
sS'Tries'
p5363
S'1'
sS'Pts'
p5364
S'3'
sa(dp5365
S'Pens'
p5366
S'1'
sS'Sub'
p5367
S'0'
sS'Lost'
p5368
S'1'
sS'Drop'
p5369
S'0'
sS'Start'
p5370
S'1'
sS'Won'
p5371
S'0'
sS'GfM'
p5372
S'0'
sS'Draw'
p5373
S'0'
sS'Mat'
p5374
S'1'
sS'Conv'
p5375
S'0'
sS'Tries'
p5376
S'0'
sS'Pts'
p5377
S'3'
sa(dp5378
S'Pens'
p5379
S'0'
sS'Sub'
p5380
S'0'
sS'Lost'
p5381
S'3'
sS'Drop'
p5382
S'0'
sS'Start'
p5383
S'4'
sS'Won'
p5384
S'1'
sS'GfM'
p5385
S'0'
sS'Draw'
p5386
S'0'
sS'Mat'
p5387
S'4'
sS'Conv'
p5388
S'0'
sS'Tries'
p5389
S'0'
sS'Pts'
p5390
S'0'
sa(dp5391
S'Pens'
p5392
S'0'
sS'Sub'
p5393
S'0'
sS'Lost'
p5394
S'2'
sS'Drop'
p5395
S'0'
sS'Start'
p5396
S'3'
sS'Won'
p5397
S'1'
sS'GfM'
p5398
S'0'
sS'Draw'
p5399
S'0'
sS'Mat'
p5400
S'3'
sS'Conv'
p5401
S'0'
sS'Tries'
p5402
S'0'
sS'Pts'
p5403
S'0'
sa(dp5404
S'Pens'
p5405
S'0'
sS'Sub'
p5406
S'0'
sS'Lost'
p5407
S'5'
sS'Drop'
p5408
S'0'
sS'Start'
p5409
S'6'
sS'Won'
p5410
S'1'
sS'GfM'
p5411
S'0'
sS'Draw'
p5412
S'0'
sS'Mat'
p5413
S'6'
sS'Conv'
p5414
S'0'
sS'Tries'
p5415
S'0'
sS'Pts'
p5416
S'0'
sa(dp5417
S'Pens'
p5418
S'0'
sS'Sub'
p5419
S'0'
sS'Lost'
p5420
S'1'
sS'Drop'
p5421
S'0'
sS'Start'
p5422
S'2'
sS'Won'
p5423
S'1'
sS'GfM'
p5424
S'0'
sS'Draw'
p5425
S'0'
sS'Mat'
p5426
S'2'
sS'Conv'
p5427
S'0'
sS'Tries'
p5428
S'0'
sS'Pts'
p5429
S'0'
sa(dp5430
S'Pens'
p5431
S'0'
sS'Sub'
p5432
S'0'
sS'Lost'
p5433
S'1'
sS'Drop'
p5434
S'0'
sS'Start'
p5435
S'2'
sS'Won'
p5436
S'1'
sS'GfM'
p5437
S'0'
sS'Draw'
p5438
S'0'
sS'Mat'
p5439
S'2'
sS'Conv'
p5440
S'0'
sS'Tries'
p5441
S'0'
sS'Pts'
p5442
S'0'
sa(dp5443
S'Pens'
p5444
S'0'
sS'Sub'
p5445
S'0'
sS'Lost'
p5446
S'2'
sS'Drop'
p5447
S'0'
sS'Start'
p5448
S'5'
sS'Won'
p5449
S'2'
sS'GfM'
p5450
S'0'
sS'Draw'
p5451
S'1'
sS'Mat'
p5452
S'5'
sS'Conv'
p5453
S'0'
sS'Tries'
p5454
S'0'
sS'Pts'
p5455
S'0'
sa(dp5456
S'Pens'
p5457
S'0'
sS'Sub'
p5458
S'0'
sS'Lost'
p5459
S'1'
sS'Drop'
p5460
S'0'
sS'Start'
p5461
S'1'
sS'Won'
p5462
S'0'
sS'GfM'
p5463
S'0'
sS'Draw'
p5464
S'0'
sS'Mat'
p5465
S'1'
sS'Conv'
p5466
S'0'
sS'Tries'
p5467
S'0'
sS'Pts'
p5468
S'0'
sa(dp5469
S'Pens'
p5470
S'0'
sS'Sub'
p5471
S'0'
sS'Lost'
p5472
S'1'
sS'Drop'
p5473
S'0'
sS'Start'
p5474
S'1'
sS'Won'
p5475
S'0'
sS'GfM'
p5476
S'0'
sS'Draw'
p5477
S'0'
sS'Mat'
p5478
S'1'
sS'Conv'
p5479
S'0'
sS'Tries'
p5480
S'0'
sS'Pts'
p5481
S'0'
sa(dp5482
S'Pens'
p5483
S'0'
sS'Sub'
p5484
S'0'
sS'Lost'
p5485
S'2'
sS'Drop'
p5486
S'0'
sS'Start'
p5487
S'3'
sS'Won'
p5488
S'1'
sS'GfM'
p5489
S'0'
sS'Draw'
p5490
S'0'
sS'Mat'
p5491
S'3'
sS'Conv'
p5492
S'0'
sS'Tries'
p5493
S'0'
sS'Pts'
p5494
S'0'
sa(dp5495
S'Pens'
p5496
S'0'
sS'Sub'
p5497
S'0'
sS'Lost'
p5498
S'25'
p5499
sS'Drop'
p5500
S'0'
sS'Start'
p5501
S'37'
p5502
sS'Won'
p5503
S'9'
sS'GfM'
p5504
S'0'
sS'Draw'
p5505
S'3'
sS'Mat'
p5506
S'37'
p5507
sS'Conv'
p5508
S'0'
sS'Tries'
p5509
S'1'
sS'Pts'
p5510
S'3'
sa(dp5511
S'Pens'
p5512
S'0'
sS'Sub'
p5513
S'0'
sS'Lost'
p5514
S'1'
sS'Drop'
p5515
S'0'
sS'Start'
p5516
S'2'
sS'Won'
p5517
S'1'
sS'GfM'
p5518
S'0'
sS'Draw'
p5519
S'0'
sS'Mat'
p5520
S'2'
sS'Conv'
p5521
S'0'
sS'Tries'
p5522
S'0'
sS'Pts'
p5523
S'0'
sa(dp5524
S'Pens'
p5525
S'0'
sS'Sub'
p5526
S'0'
sS'Lost'
p5527
S'17'
p5528
sS'Drop'
p5529
S'0'
sS'Start'
p5530
S'23'
p5531
sS'Won'
p5532
S'5'
sS'GfM'
p5533
S'0'
sS'Draw'
p5534
S'1'
sS'Mat'
p5535
S'23'
p5536
sS'Conv'
p5537
S'0'
sS'Tries'
p5538
S'2'
sS'Pts'
p5539
S'6'
sa(dp5540
S'Pens'
p5541
S'0'
sS'Sub'
p5542
S'0'
sS'Lost'
p5543
S'1'
sS'Drop'
p5544
S'0'
sS'Start'
p5545
S'2'
sS'Won'
p5546
S'1'
sS'GfM'
p5547
S'0'
sS'Draw'
p5548
S'0'
sS'Mat'
p5549
S'2'
sS'Conv'
p5550
S'0'
sS'Tries'
p5551
S'0'
sS'Pts'
p5552
S'0'
sa(dp5553
S'Pens'
p5554
S'0'
sS'Sub'
p5555
S'0'
sS'Lost'
p5556
S'9'
sS'Drop'
p5557
S'0'
sS'Start'
p5558
S'9'
sS'Won'
p5559
S'0'
sS'GfM'
p5560
S'0'
sS'Draw'
p5561
S'0'
sS'Mat'
p5562
S'9'
sS'Conv'
p5563
S'0'
sS'Tries'
p5564
S'0'
sS'Pts'
p5565
S'0'
sa(dp5566
S'Pens'
p5567
S'0'
sS'Sub'
p5568
S'0'
sS'Lost'
p5569
S'1'
sS'Drop'
p5570
S'0'
sS'Start'
p5571
S'1'
sS'Won'
p5572
S'0'
sS'GfM'
p5573
S'0'
sS'Draw'
p5574
S'0'
sS'Mat'
p5575
S'1'
sS'Conv'
p5576
S'0'
sS'Tries'
p5577
S'0'
sS'Pts'
p5578
S'0'
sa(dp5579
S'Pens'
p5580
S'0'
sS'Sub'
p5581
S'0'
sS'Lost'
p5582
S'6'
sS'Drop'
p5583
S'0'
sS'Start'
p5584
S'7'
sS'Won'
p5585
S'0'
sS'GfM'
p5586
S'0'
sS'Draw'
p5587
S'1'
sS'Mat'
p5588
S'7'
sS'Conv'
p5589
S'0'
sS'Tries'
p5590
S'0'
sS'Pts'
p5591
S'0'
sa(dp5592
S'Pens'
p5593
S'0'
sS'Sub'
p5594
S'0'
sS'Lost'
p5595
S'1'
sS'Drop'
p5596
S'0'
sS'Start'
p5597
S'1'
sS'Won'
p5598
S'0'
sS'GfM'
p5599
S'0'
sS'Draw'
p5600
S'0'
sS'Mat'
p5601
S'1'
sS'Conv'
p5602
S'0'
sS'Tries'
p5603
S'0'
sS'Pts'
p5604
S'0'
sa(dp5605
S'Pens'
p5606
S'2'
sS'Sub'
p5607
S'0'
sS'Lost'
p5608
S'9'
sS'Drop'
p5609
S'1'
sS'Start'
p5610
S'11'
p5611
sS'Won'
p5612
S'2'
sS'GfM'
p5613
S'0'
sS'Draw'
p5614
S'0'
sS'Mat'
p5615
S'11'
p5616
sS'Conv'
p5617
S'1'
sS'Tries'
p5618
S'0'
sS'Pts'
p5619
S'11'
p5620
sa(dp5621
S'Pens'
p5622
S'6'
sS'Sub'
p5623
S'0'
sS'Lost'
p5624
S'8'
sS'Drop'
p5625
S'0'
sS'Start'
p5626
S'9'
sS'Won'
p5627
S'0'
sS'GfM'
p5628
S'0'
sS'Draw'
p5629
S'1'
sS'Mat'
p5630
S'9'
sS'Conv'
p5631
S'0'
sS'Tries'
p5632
S'1'
sS'Pts'
p5633
S'21'
p5634
sa(dp5635
S'Pens'
p5636
S'0'
sS'Sub'
p5637
S'0'
sS'Lost'
p5638
S'1'
sS'Drop'
p5639
S'0'
sS'Start'
p5640
S'1'
sS'Won'
p5641
S'0'
sS'GfM'
p5642
S'0'
sS'Draw'
p5643
S'0'
sS'Mat'
p5644
S'1'
sS'Conv'
p5645
S'0'
sS'Tries'
p5646
S'0'
sS'Pts'
p5647
S'0'
sa(dp5648
S'Pens'
p5649
S'0'
sS'Sub'
p5650
S'0'
sS'Lost'
p5651
S'6'
sS'Drop'
p5652
S'0'
sS'Start'
p5653
S'6'
sS'Won'
p5654
S'0'
sS'GfM'
p5655
S'0'
sS'Draw'
p5656
S'0'
sS'Mat'
p5657
S'6'
sS'Conv'
p5658
S'0'
sS'Tries'
p5659
S'0'
sS'Pts'
p5660
S'0'
sa(dp5661
S'Pens'
p5662
S'0'
sS'Sub'
p5663
S'0'
sS'Lost'
p5664
S'8'
sS'Drop'
p5665
S'0'
sS'Start'
p5666
S'11'
p5667
sS'Won'
p5668
S'2'
sS'GfM'
p5669
S'0'
sS'Draw'
p5670
S'1'
sS'Mat'
p5671
S'11'
p5672
sS'Conv'
p5673
S'0'
sS'Tries'
p5674
S'3'
sS'Pts'
p5675
S'9'
sa(dp5676
S'Pens'
p5677
S'0'
sS'Sub'
p5678
S'0'
sS'Lost'
p5679
S'5'
sS'Drop'
p5680
S'0'
sS'Start'
p5681
S'5'
sS'Won'
p5682
S'0'
sS'GfM'
p5683
S'0'
sS'Draw'
p5684
S'0'
sS'Mat'
p5685
S'5'
sS'Conv'
p5686
S'0'
sS'Tries'
p5687
S'0'
sS'Pts'
p5688
S'0'
sa(dp5689
S'Pens'
p5690
S'0'
sS'Sub'
p5691
S'0'
sS'Lost'
p5692
S'3'
sS'Drop'
p5693
S'0'
sS'Start'
p5694
S'4'
sS'Won'
p5695
S'1'
sS'GfM'
p5696
S'0'
sS'Draw'
p5697
S'0'
sS'Mat'
p5698
S'4'
sS'Conv'
p5699
S'0'
sS'Tries'
p5700
S'0'
sS'Pts'
p5701
S'0'
sa(dp5702
S'Pens'
p5703
S'0'
sS'Sub'
p5704
S'0'
sS'Lost'
p5705
S'7'
sS'Drop'
p5706
S'0'
sS'Start'
p5707
S'9'
sS'Won'
p5708
S'1'
sS'GfM'
p5709
S'0'
sS'Draw'
p5710
S'1'
sS'Mat'
p5711
S'9'
sS'Conv'
p5712
S'0'
sS'Tries'
p5713
S'0'
sS'Pts'
p5714
S'0'
sa(dp5715
S'Pens'
p5716
S'0'
sS'Sub'
p5717
S'0'
sS'Lost'
p5718
S'1'
sS'Drop'
p5719
S'0'
sS'Start'
p5720
S'1'
sS'Won'
p5721
S'0'
sS'GfM'
p5722
S'0'
sS'Draw'
p5723
S'0'
sS'Mat'
p5724
S'1'
sS'Conv'
p5725
S'0'
sS'Tries'
p5726
S'0'
sS'Pts'
p5727
S'0'
sa(dp5728
S'Pens'
p5729
S'0'
sS'Sub'
p5730
S'0'
sS'Lost'
p5731
S'1'
sS'Drop'
p5732
S'0'
sS'Start'
p5733
S'1'
sS'Won'
p5734
S'0'
sS'GfM'
p5735
S'0'
sS'Draw'
p5736
S'0'
sS'Mat'
p5737
S'1'
sS'Conv'
p5738
S'0'
sS'Tries'
p5739
S'0'
sS'Pts'
p5740
S'0'
sa(dp5741
S'Pens'
p5742
S'0'
sS'Sub'
p5743
S'0'
sS'Lost'
p5744
S'1'
sS'Drop'
p5745
S'0'
sS'Start'
p5746
S'1'
sS'Won'
p5747
S'0'
sS'GfM'
p5748
S'0'
sS'Draw'
p5749
S'0'
sS'Mat'
p5750
S'1'
sS'Conv'
p5751
S'0'
sS'Tries'
p5752
S'0'
sS'Pts'
p5753
S'0'
sa(dp5754
S'Pens'
p5755
S'0'
sS'Sub'
p5756
S'0'
sS'Lost'
p5757
S'11'
p5758
sS'Drop'
p5759
S'0'
sS'Start'
p5760
S'24'
p5761
sS'Won'
p5762
S'11'
p5763
sS'GfM'
p5764
S'0'
sS'Draw'
p5765
S'2'
sS'Mat'
p5766
S'24'
p5767
sS'Conv'
p5768
S'0'
sS'Tries'
p5769
S'0'
sS'Pts'
p5770
S'0'
sa(dp5771
S'Pens'
p5772
S'9'
sS'Sub'
p5773
S'0'
sS'Lost'
p5774
S'17'
p5775
sS'Drop'
p5776
S'0'
sS'Start'
p5777
S'24'
p5778
sS'Won'
p5779
S'5'
sS'GfM'
p5780
S'0'
sS'Draw'
p5781
S'2'
sS'Mat'
p5782
S'24'
p5783
sS'Conv'
p5784
S'5'
sS'Tries'
p5785
S'3'
sS'Pts'
p5786
S'46'
p5787
sa(dp5788
S'Pens'
p5789
S'0'
sS'Sub'
p5790
S'0'
sS'Lost'
p5791
S'8'
sS'Drop'
p5792
S'0'
sS'Start'
p5793
S'10'
p5794
sS'Won'
p5795
S'1'
sS'GfM'
p5796
S'0'
sS'Draw'
p5797
S'1'
sS'Mat'
p5798
S'10'
p5799
sS'Conv'
p5800
S'0'
sS'Tries'
p5801
S'1'
sS'Pts'
p5802
S'3'
sa(dp5803
S'Pens'
p5804
S'0'
sS'Sub'
p5805
S'0'
sS'Lost'
p5806
S'3'
sS'Drop'
p5807
S'0'
sS'Start'
p5808
S'5'
sS'Won'
p5809
S'2'
sS'GfM'
p5810
S'0'
sS'Draw'
p5811
S'0'
sS'Mat'
p5812
S'5'
sS'Conv'
p5813
S'0'
sS'Tries'
p5814
S'0'
sS'Pts'
p5815
S'0'
sa(dp5816
S'Pens'
p5817
S'0'
sS'Sub'
p5818
S'0'
sS'Lost'
p5819
S'4'
sS'Drop'
p5820
S'0'
sS'Start'
p5821
S'6'
sS'Won'
p5822
S'1'
sS'GfM'
p5823
S'0'
sS'Draw'
p5824
S'1'
sS'Mat'
p5825
S'6'
sS'Conv'
p5826
S'0'
sS'Tries'
p5827
S'0'
sS'Pts'
p5828
S'0'
sa(dp5829
S'Pens'
p5830
S'0'
sS'Sub'
p5831
S'0'
sS'Lost'
p5832
S'1'
sS'Drop'
p5833
S'0'
sS'Start'
p5834
S'2'
sS'Won'
p5835
S'1'
sS'GfM'
p5836
S'0'
sS'Draw'
p5837
S'0'
sS'Mat'
p5838
S'2'
sS'Conv'
p5839
S'0'
sS'Tries'
p5840
S'0'
sS'Pts'
p5841
S'0'
sa(dp5842
S'Pens'
p5843
S'0'
sS'Sub'
p5844
S'0'
sS'Lost'
p5845
S'1'
sS'Drop'
p5846
S'0'
sS'Start'
p5847
S'1'
sS'Won'
p5848
S'0'
sS'GfM'
p5849
S'0'
sS'Draw'
p5850
S'0'
sS'Mat'
p5851
S'1'
sS'Conv'
p5852
S'0'
sS'Tries'
p5853
S'0'
sS'Pts'
p5854
S'0'
sa(dp5855
S'Pens'
p5856
S'0'
sS'Sub'
p5857
S'0'
sS'Lost'
p5858
S'2'
sS'Drop'
p5859
S'0'
sS'Start'
p5860
S'2'
sS'Won'
p5861
S'0'
sS'GfM'
p5862
S'0'
sS'Draw'
p5863
S'0'
sS'Mat'
p5864
S'2'
sS'Conv'
p5865
S'0'
sS'Tries'
p5866
S'0'
sS'Pts'
p5867
S'0'
sa(dp5868
S'Pens'
p5869
S'0'
sS'Sub'
p5870
S'0'
sS'Lost'
p5871
S'1'
sS'Drop'
p5872
S'0'
sS'Start'
p5873
S'1'
sS'Won'
p5874
S'0'
sS'GfM'
p5875
S'0'
sS'Draw'
p5876
S'0'
sS'Mat'
p5877
S'1'
sS'Conv'
p5878
S'0'
sS'Tries'
p5879
S'0'
sS'Pts'
p5880
S'0'
sa(dp5881
S'Pens'
p5882
S'0'
sS'Sub'
p5883
S'0'
sS'Lost'
p5884
S'0'
sS'Drop'
p5885
S'0'
sS'Start'
p5886
S'1'
sS'Won'
p5887
S'1'
sS'GfM'
p5888
S'0'
sS'Draw'
p5889
S'0'
sS'Mat'
p5890
S'1'
sS'Conv'
p5891
S'0'
sS'Tries'
p5892
S'0'
sS'Pts'
p5893
S'0'
sa(dp5894
S'Pens'
p5895
S'0'
sS'Sub'
p5896
S'0'
sS'Lost'
p5897
S'0'
sS'Drop'
p5898
S'0'
sS'Start'
p5899
S'1'
sS'Won'
p5900
S'1'
sS'GfM'
p5901
S'0'
sS'Draw'
p5902
S'0'
sS'Mat'
p5903
S'1'
sS'Conv'
p5904
S'0'
sS'Tries'
p5905
S'0'
sS'Pts'
p5906
S'0'
sa(dp5907
S'Pens'
p5908
S'0'
sS'Sub'
p5909
S'0'
sS'Lost'
p5910
S'3'
sS'Drop'
p5911
S'0'
sS'Start'
p5912
S'6'
sS'Won'
p5913
S'2'
sS'GfM'
p5914
S'0'
sS'Draw'
p5915
S'1'
sS'Mat'
p5916
S'6'
sS'Conv'
p5917
S'0'
sS'Tries'
p5918
S'0'
sS'Pts'
p5919
S'0'
sa(dp5920
S'Pens'
p5921
S'0'
sS'Sub'
p5922
S'0'
sS'Lost'
p5923
S'0'
sS'Drop'
p5924
S'0'
sS'Start'
p5925
S'1'
sS'Won'
p5926
S'1'
sS'GfM'
p5927
S'0'
sS'Draw'
p5928
S'0'
sS'Mat'
p5929
S'1'
sS'Conv'
p5930
S'0'
sS'Tries'
p5931
S'0'
sS'Pts'
p5932
S'0'
sa(dp5933
S'Pens'
p5934
S'0'
sS'Sub'
p5935
S'0'
sS'Lost'
p5936
S'5'
sS'Drop'
p5937
S'0'
sS'Start'
p5938
S'7'
sS'Won'
p5939
S'1'
sS'GfM'
p5940
S'0'
sS'Draw'
p5941
S'1'
sS'Mat'
p5942
S'7'
sS'Conv'
p5943
S'0'
sS'Tries'
p5944
S'1'
sS'Pts'
p5945
S'3'
sa(dp5946
S'Pens'
p5947
S'0'
sS'Sub'
p5948
S'0'
sS'Lost'
p5949
S'1'
sS'Drop'
p5950
S'0'
sS'Start'
p5951
S'2'
sS'Won'
p5952
S'0'
sS'GfM'
p5953
S'0'
sS'Draw'
p5954
S'1'
sS'Mat'
p5955
S'2'
sS'Conv'
p5956
S'0'
sS'Tries'
p5957
S'0'
sS'Pts'
p5958
S'0'
sa(dp5959
S'Pens'
p5960
S'0'
sS'Sub'
p5961
S'0'
sS'Lost'
p5962
S'1'
sS'Drop'
p5963
S'0'
sS'Start'
p5964
S'2'
sS'Won'
p5965
S'0'
sS'GfM'
p5966
S'0'
sS'Draw'
p5967
S'1'
sS'Mat'
p5968
S'2'
sS'Conv'
p5969
S'0'
sS'Tries'
p5970
S'0'
sS'Pts'
p5971
S'0'
sa(dp5972
S'Pens'
p5973
S'0'
sS'Sub'
p5974
S'0'
sS'Lost'
p5975
S'4'
sS'Drop'
p5976
S'0'
sS'Start'
p5977
S'5'
sS'Won'
p5978
S'1'
sS'GfM'
p5979
S'0'
sS'Draw'
p5980
S'0'
sS'Mat'
p5981
S'5'
sS'Conv'
p5982
S'0'
sS'Tries'
p5983
S'0'
sS'Pts'
p5984
S'0'
sa(dp5985
S'Pens'
p5986
S'0'
sS'Sub'
p5987
S'0'
sS'Lost'
p5988
S'4'
sS'Drop'
p5989
S'0'
sS'Start'
p5990
S'5'
sS'Won'
p5991
S'1'
sS'GfM'
p5992
S'0'
sS'Draw'
p5993
S'0'
sS'Mat'
p5994
S'5'
sS'Conv'
p5995
S'0'
sS'Tries'
p5996
S'0'
sS'Pts'
p5997
S'0'
sa(dp5998
S'Pens'
p5999
S'7'
sS'Sub'
p6000
S'0'
sS'Lost'
p6001
S'11'
p6002
sS'Drop'
p6003
S'0'
sS'Start'
p6004
S'20'
p6005
sS'Won'
p6006
S'7'
sS'GfM'
p6007
S'0'
sS'Draw'
p6008
S'2'
sS'Mat'
p6009
S'20'
p6010
sS'Conv'
p6011
S'1'
sS'Tries'
p6012
S'2'
sS'Pts'
p6013
S'29'
p6014
sa(dp6015
S'Pens'
p6016
S'0'
sS'Sub'
p6017
S'0'
sS'Lost'
p6018
S'1'
sS'Drop'
p6019
S'0'
sS'Start'
p6020
S'1'
sS'Won'
p6021
S'0'
sS'GfM'
p6022
S'0'
sS'Draw'
p6023
S'0'
sS'Mat'
p6024
S'1'
sS'Conv'
p6025
S'0'
sS'Tries'
p6026
S'0'
sS'Pts'
p6027
S'0'
sa(dp6028
S'Pens'
p6029
S'0'
sS'Sub'
p6030
S'0'
sS'Lost'
p6031
S'13'
p6032
sS'Drop'
p6033
S'0'
sS'Start'
p6034
S'24'
p6035
sS'Won'
p6036
S'9'
sS'GfM'
p6037
S'0'
sS'Draw'
p6038
S'2'
sS'Mat'
p6039
S'24'
p6040
sS'Conv'
p6041
S'0'
sS'Tries'
p6042
S'0'
sS'Pts'
p6043
S'0'
sa(dp6044
S'Pens'
p6045
S'0'
sS'Sub'
p6046
S'0'
sS'Lost'
p6047
S'1'
sS'Drop'
p6048
S'0'
sS'Start'
p6049
S'2'
sS'Won'
p6050
S'1'
sS'GfM'
p6051
S'0'
sS'Draw'
p6052
S'0'
sS'Mat'
p6053
S'2'
sS'Conv'
p6054
S'0'
sS'Tries'
p6055
S'0'
sS'Pts'
p6056
S'0'
sa(dp6057
S'Pens'
p6058
S'0'
sS'Sub'
p6059
S'0'
sS'Lost'
p6060
S'1'
sS'Drop'
p6061
S'0'
sS'Start'
p6062
S'1'
sS'Won'
p6063
S'0'
sS'GfM'
p6064
S'0'
sS'Draw'
p6065
S'0'
sS'Mat'
p6066
S'1'
sS'Conv'
p6067
S'0'
sS'Tries'
p6068
S'0'
sS'Pts'
p6069
S'0'
sa(dp6070
S'Pens'
p6071
S'0'
sS'Sub'
p6072
S'0'
sS'Lost'
p6073
S'2'
sS'Drop'
p6074
S'0'
sS'Start'
p6075
S'2'
sS'Won'
p6076
S'0'
sS'GfM'
p6077
S'0'
sS'Draw'
p6078
S'0'
sS'Mat'
p6079
S'2'
sS'Conv'
p6080
S'0'
sS'Tries'
p6081
S'0'
sS'Pts'
p6082
S'0'
sa.