(lp1
(lp2
S'Ko Chu Chang'
p3
aS'1930'
p4
aS'Centre'
p5
aS'date unknown'
p6
aS'4'
aS'2'
aS'1'
aS'3'
aa(lp7
S'Tomoo Chiba'
p8
aS'1930'
p9
aS'Lock'
p10
aS'date unknown'
p11
aS'1'
aS'0'
aS'0'
aS'0'
aa(lp12
S'Mitsugu Fujii'
p13
aS'1930'
p14
aS'Centre'
p15
aS'date unknown'
p16
aS'1'
aS'0'
aS'0'
aS'0'
aa(lp17
S'Takeo Hagiwara-Maekawa'
p18
aS'1930'
p19
aS'Scrum-half'
p20
aS'date unknown'
p21
aS'1'
aS'0'
aS'0'
aS'0'
aa(lp22
S'Shuzaburo Iwashita'
p23
aS'1930'
p24
aS'Prop'
p25
aS'date unknown'
p26
aS'1'
aS'0'
aS'0'
aS'0'
aa(lp27
S'Takeo Kitano'
p28
aS'1930'
p29
aS'Wing'
p30
aS'date unknown'
p31
aS'6'
aS'2'
aS'2'
aS'8'
aa(lp32
S'Kenichi Matsubara'
p33
aS'1930'
p34
aS'Fly-half'
p35
aS'date unknown'
p36
aS'1'
aS'0'
aS'0'
aS'0'
aa(lp37
S'Minoru Mishima'
p38
aS'1930'
p39
aS'Lock'
p40
aS'date unknown'
p41
aS'3'
aS'2'
aS'0'
aS'0'
aa(lp42
S'Hideo Miyaji-Yoshizawa'
p43
aS'1930'
p44
aS'Flanker'
p45
aS'date unknown'
p46
aS'1'
aS'0'
aS'0'
aS'0'
aa(lp47
S'Giichi Ota'
p48
aS'1930'
p49
aS'Prop'
p50
aS'date unknown'
p51
aS'1'
aS'0'
aS'0'
aS'0'
aa(lp52
S'Seizo Shimizu'
p53
aS'1930'
p54
aS'No. 8'
p55
aS'date unknown'
p56
aS'3'
aS'1'
aS'0'
aS'0'
aa(lp57
S'Seiichi Teramura'
p58
aS'1930'
p59
aS'Fullback'
p60
aS'date unknown'
p61
aS'1'
aS'0'
aS'0'
aS'0'
aa(lp62
S'Zenjiro Toba-Nakajima'
p63
aS'1930'
p64
aS'Wing'
p65
aS'date unknown'
p66
aS'4'
aS'2'
aS'5'
aS'15'
p67
aa(lp68
S'Shiro Wada'
p69
aS'1930'
p70
aS'Flanker'
p71
aS'date unknown'
p72
aS'1'
aS'0'
aS'0'
aS'0'
aa(lp73
S'Tadayuki Yagai'
p74
aS'1930'
p75
aS'Hooker'
p76
aS'date unknown'
p77
aS'1'
aS'0'
aS'0'
aS'0'
aa(lp78
S'Hidemaru Suzuki'
p79
aS'1930'
p80
aS'Wing'
p81
aS'date unknown'
p82
aS'1'
aS'0'
aS'0'
aS'0'
aa(lp83
S'Takao Adachi'
p84
aS'1932'
p85
aS'No. 8'
p86
aS'date unknown'
p87
aS'2'
aS'2'
aS'0'
aS'0'
aa(lp88
S'Takeo Baba'
p89
aS'1932'
p90
aS'Wing'
p91
aS'date unknown'
p92
aS'1'
aS'1'
aS'0'
aS'0'
aa(lp93
S'Saburo Hirao'
p94
aS'1932'
p95
aS'Centre'
p96
aS'date unknown'
p97
aS'2'
aS'2'
aS'1'
aS'3'
aa(lp98
S'Hiroshi Ijyuin'
p99
aS'1932'
p100
aS'Prop'
p101
aS'date unknown'
p102
aS'2'
aS'2'
aS'0'
aS'0'
aa(lp103
S'Tsunehiko Kasahara'
p104
aS'1932'
p105
aS'Fullback'
p106
aS'date unknown'
p107
aS'6'
aS'3'
aS'0'
aS'33'
p108
aa(lp109
S'Taro Kinoshita'
p110
aS'1932'
p111
aS'Scrum-half'
p112
aS'date unknown'
p113
aS'2'
aS'2'
aS'0'
aS'0'
aa(lp114
S'Takeshi Matsubara'
p115
aS'1932'
p116
aS'Hooker'
p117
aS'date unknown'
p118
aS'3'
aS'3'
aS'0'
aS'0'
aa(lp119
S'Saburou Nishigaki'
p120
aS'1932'
p121
aS'Prop'
p122
aS'date unknown'
p123
aS'6'
aS'3'
aS'0'
aS'0'
aa(lp124
S'Masahiko Niwa'
p125
aS'1932'
p126
aS'Fly-half'
p127
aS'date unknown'
p128
aS'2'
aS'2'
aS'1'
aS'3'
aa(lp129
S'Yoshio Okada'
p130
aS'1932'
p131
aS'Flanker'
p132
aS'date unknown'
p133
aS'2'
aS'2'
aS'1'
aS'3'
aa(lp134
S'Shinji Ono'
p135
aS'1932'
p136
aS'Lock'
p137
aS'date unknown'
p138
aS'4'
aS'3'
aS'0'
aS'0'
aa(lp139
S'Teiji Toshi'
p140
aS'1932'
p141
aS'Flanker'
p142
aS'date unknown'
p143
aS'2'
aS'2'
aS'1'
aS'3'
aa(lp144
S'Ichiro Nogami'
p145
aS'1932'
p146
aS'Fly-half'
p147
aS'date unknown'
p148
aS'4'
aS'2'
aS'1'
aS'3'
aa(lp149
S'Ryuichi Iimori'
p150
aS'1934'
p151
aS'Scrum-half'
p152
aS'date unknown'
p153
aS'2'
aS'1'
aS'0'
aS'0'
aa(lp154
S'Shinshiro Komehana'
p155
aS'1934'
p156
aS'Flanker'
p157
aS'date unknown'
p158
aS'4'
aS'1'
aS'0'
aS'0'
aa(lp159
S'Kihei Mano'
p160
aS'1934'
p161
aS'Lock'
p162
aS'date unknown'
p163
aS'1'
aS'0'
aS'0'
aS'0'
aa(lp164
S'Kyuji Matsuda'
p165
aS'1934'
p166
aS'Hooker'
p167
aS'date unknown'
p168
aS'1'
aS'0'
aS'0'
aS'0'
aa(lp169
S'Taro Sasakura-Yamamoto'
p170
aS'1934'
p171
aS'Prop'
p172
aS'date unknown'
p173
aS'2'
aS'1'
aS'0'
aS'0'
aa(lp174
S'Sheizo Taji'
p175
aS'1934'
p176
aS'Flanker'
p177
aS'date unknown'
p178
aS'2'
aS'1'
aS'0'
aS'0'
aa(lp179
S'Tsutomu Tsujita'
p180
aS'1934'
p181
aS'Centre'
p182
aS'date unknown'
p183
aS'2'
aS'0'
aS'0'
aS'0'
aa(lp184
S'Takashi Naito'
p185
aS'1934'
p186
aS'Wing'
p187
aS'date unknown'
p188
aS'1'
aS'1'
aS'1'
aS'3'
aa(lp189
S'Hiroshi Tachibana'
p190
aS'1934'
p191
aS'Centre'
p192
aS'date unknown'
p193
aS'1'
aS'1'
aS'0'
aS'0'
aa(lp194
S'Hiroshi Tagawa'
p195
aS'1934'
p196
aS'Lock'
p197
aS'date unknown'
p198
aS'2'
aS'1'
aS'0'
aS'0'
aa(lp199
S'Hideo Ito'
p200
aS'1936'
p201
aS'Lock'
p202
aS'date unknown'
p203
aS'1'
aS'0'
aS'0'
aS'0'
aa(lp204
S'Toichiro Kawagoe'
p205
aS'1936'
p206
aS'Centre'
p207
aS'date unknown'
p208
aS'1'
aS'0'
aS'0'
aS'0'
aa(lp209
S'Ryohei Kinoshita'
p210
aS'1936'
p211
aS'Scrum-half'
p212
aS'date unknown'
p213
aS'2'
aS'0'
aS'0'
aS'0'
aa(lp214
S'Hiroyuki Nabeka'
p215
aS'1936'
p216
aS'Flanker'
p217
aS'date unknown'
p218
aS'2'
aS'0'
aS'0'
aS'0'
aa(lp219
S'Kazutsugu Nishiumi'
p220
aS'1936'
p221
aS'Prop'
p222
aS'date unknown'
p223
aS'2'
aS'0'
aS'0'
aS'0'
aa(lp224
S'Shoji Sakaguchi'
p225
aS'1936'
p226
aS'Wing'
p227
aS'date unknown'
p228
aS'2'
aS'0'
aS'1'
aS'3'
aa(lp229
S'Michihiro Sakai'
p230
aS'1936'
p231
aS'Hooker'
p232
aS'date unknown'
p233
aS'1'
aS'0'
aS'0'
aS'0'
aa(lp234
S'Isao Suzuki'
p235
aS'1936'
p236
aS'Fullback'
p237
aS'date unknown'
p238
aS'2'
aS'0'
aS'0'
aS'0'
aa(lp239
S'Kazuo Yamaguchi'
p240
aS'1936'
p241
aS'Lock'
p242
aS'date unknown'
p243
aS'2'
aS'0'
aS'0'
aS'0'
aa(lp244
S'Haruki Yamamoto'
p245
aS'1936'
p246
aS'No. 8'
p247
aS'date unknown'
p248
aS'1'
aS'0'
aS'0'
aS'0'
aa(lp249
S'Zenji Nishi'
p250
aS'1936'
p251
aS'Wing'
p252
aS'date unknown'
p253
aS'1'
aS'0'
aS'0'
aS'0'
aa(lp254
S'Iwao Ota'
p255
aS'1936'
p256
aS'Prop'
p257
aS'date unknown'
p258
aS'1'
aS'0'
aS'0'
aS'0'
aa(lp259
S'Masao Wada'
p260
aS'1936'
p261
aS'Scrum-half'
p262
aS'date unknown'
p263
aS'1'
aS'0'
aS'0'
aS'0'
aa(lp264
S'Yoshiaki Aoki'
p265
aS'1952'
p266
aS'Wing'
p267
aS'date unknown'
p268
aS'2'
aS'0'
aS'0'
aS'0'
aa(lp269
S'Atsushi Fujii'
p270
aS'1952'
p271
aS'Flanker'
p272
aS'date unknown'
p273
aS'2'
aS'0'
aS'0'
aS'0'
aa(lp274
S'Shinichi Hashimoto'
p275
aS'1952'
p276
aS'Lock'
p277
aS'date unknown'
p278
aS'4'
aS'0'
aS'0'
aS'0'
aa(lp279
S'Noboru Hirohata'
p280
aS'1952'
p281
aS'No. 8'
p282
aS'date unknown'
p283
aS'2'
aS'0'
aS'1'
aS'3'
aa(lp284
S'Ryotarou Kadoto'
p285
aS'1952'
p286
aS'Scrum-half'
p287
aS'date unknown'
p288
aS'1'
aS'0'
aS'0'
aS'0'
aa(lp289
S'Syoichiro Koyama'
p290
aS'1952'
p291
aS'Centre'
p292
aS'date unknown'
p293
aS'1'
aS'0'
aS'0'
aS'0'
aa(lp294
S'Genpei Kuroiwa'
p295
aS'1952'
p296
aS'Wing'
p297
aS'date unknown'
p298
aS'4'
aS'0'
aS'0'
aS'0'
aa(lp299
S'Yoshinobu Nakajima'
p300
aS'1952'
p301
aS'Hooker'
p302
aS'date unknown'
p303
aS'2'
aS'0'
aS'0'
aS'0'
aa(lp304
S'Takao Otsuka'
p305
aS'1952'
p306
aS'Centre'
p307
aS'date unknown'
p308
aS'1'
aS'0'
aS'0'
aS'0'
aa(lp309
S'Ryo Saito'
p310
aS'1952'
p311
aS'Prop'
p312
aS'date unknown'
p313
aS'4'
aS'0'
aS'0'
aS'0'
aa(lp314
S'Hidehiko Sato'
p315
aS'1952'
p316
aS'Fullback'
p317
aS'date unknown'
p318
aS'10'
p319
aS'0'
aS'0'
aS'0'
aa(lp320
S'Tetsuo Sekikawa'
p321
aS'1952'
p322
aS'Prop'
p323
aS'date unknown'
p324
aS'2'
aS'0'
aS'0'
aS'0'
aa(lp325
S'Fukuo Shibagaki'
p326
aS'1952'
p327
aS'Fly-half'
p328
aS'date unknown'
p329
aS'1'
aS'0'
aS'0'
aS'0'
aa(lp330
S'Yusaku Takahashi'
p331
aS'1952'
p332
aS'Flanker'
p333
aS'date unknown'
p334
aS'1'
aS'0'
aS'0'
aS'0'
aa(lp335
S'Akira Tanaka'
p336
aS'1952'
p337
aS'Lock'
p338
aS'date unknown'
p339
aS'2'
aS'0'
aS'0'
aS'0'
aa(lp340
S'Ryuichi Imamura'
p341
aS'1952'
p342
aS'Centre'
p343
aS'date unknown'
p344
aS'6'
aS'0'
aS'0'
aS'0'
aa(lp345
S'Haruo Matsuoka'
p346
aS'1952'
p347
aS'Fly-half'
p348
aS'date unknown'
p349
aS'3'
aS'0'
aS'1'
aS'11'
p350
aa(lp351
S'Sueharu Natsui'
p352
aS'1952'
p353
aS'Prop'
p354
aS'Akita'
p355
aS'3'
aS'0'
aS'0'
aS'0'
aa(lp356
S'Takeshi Takeda'
p357
aS'1952'
p358
aS'Lock'
p359
aS'date unknown'
p360
aS'1'
aS'0'
aS'0'
aS'0'
aa(lp361
S'Hideaki Tsichiya'
p362
aS'1952'
p363
aS'Scrum-half'
p364
aS'date unknown'
p365
aS'1'
aS'0'
aS'0'
aS'0'
aa(lp366
S'Toshiaki Tsuchiya'
p367
aS'1952'
p368
aS'Flanker'
p369
aS'date unknown'
p370
aS'12'
p371
aS'0'
aS'3'
aS'9'
aa(lp372
S'Akihiko Watanabe'
p373
aS'1952'
p374
aS'Centre'
p375
aS'date unknown'
p376
aS'3'
aS'0'
aS'1'
aS'9'
aa(lp377
S'Sada Yamato'
p378
aS'1952'
p379
aS'No. 8'
p380
aS'date unknown'
p381
aS'1'
aS'0'
aS'0'
aS'0'
aa(lp382
S'Hideo Harada'
p383
aS'1953'
p384
aS'No. 8'
p385
aS'date unknown'
p386
aS'2'
aS'0'
aS'1'
aS'3'
aa(lp387
S'Keizo Kamisaka'
p388
aS'1953'
p389
aS'Fly-half'
p390
aS'date unknown'
p391
aS'2'
aS'0'
aS'0'
aS'0'
aa(lp392
S'Teruo Kitajima'
p393
aS'1953'
p394
aS'Prop'
p395
aS'date unknown'
p396
aS'4'
aS'0'
aS'0'
aS'0'
aa(lp397
S'Masaya Matsuoka'
p398
aS'1953'
p399
aS'Hooker'
p400
aS'date unknown'
p401
aS'1'
aS'0'
aS'0'
aS'0'
aa(lp402
S'Mitsuya Ohotsuka'
p403
aS'1953'
p404
aS'Scrum-half'
p405
aS'date unknown'
p406
aS'1'
aS'0'
aS'0'
aS'0'
aa(lp407
S'Toshiro Sasaki'
p408
aS'1953'
p409
aS'Wing'
p410
aS'date unknown'
p411
aS'2'
aS'0'
aS'0'
aS'0'
aa(lp412
S'Yoshiharu Umei'
p413
aS'1953'
p414
aS'Lock'
p415
aS'date unknown'
p416
aS'6'
aS'0'
aS'0'
aS'0'
aa(lp417
S'Junzo Aso'
p418
aS'1953'
p419
aS'Fly-half'
p420
aS'date unknown'
p421
aS'2'
aS'0'
aS'0'
aS'6'
aa(lp422
S'Masaaki Matsushige'
p423
aS'1953'
p424
aS'Flanker'
p425
aS'date unknown'
p426
aS'4'
aS'0'
aS'1'
aS'3'
aa(lp427
S'Manabu Mitoma'
p428
aS'1953'
p429
aS'Scrum-half'
p430
aS'date unknown'
p431
aS'3'
aS'0'
aS'0'
aS'0'
aa(lp432
S'Hirotoshi Hori'
p433
aS'1956'
p434
aS'Fly-half'
p435
aS'date unknown'
p436
aS'1'
aS'0'
aS'0'
aS'0'
aa(lp437
S'Koji Kikkawa'
p438
aS'1956'
p439
aS'Hooker'
p440
aS'date unknown'
p441
aS'6'
aS'0'
aS'0'
aS'0'
aa(lp442
S'Isao Kondo'
p443
aS'1956'
p444
aS'Wing'
p445
aS'date unknown'
p446
aS'2'
aS'0'
aS'0'
aS'0'
aa(lp447
S'Katsuhiro Mano'
p448
aS'1956'
p449
aS'Lock'
p450
aS'date unknown'
p451
aS'6'
aS'0'
aS'0'
aS'0'
aa(lp452
S'Kunio Miyai'
p453
aS'1956'
p454
aS'Wing'
p455
aS'date unknown'
p456
aS'11'
p457
aS'1'
aS'3'
aS'9'
aa(lp458
S'Kazumitsu Ninoguchi'
p459
aS'1956'
p460
aS'Prop'
p461
aS'date unknown'
p462
aS'1'
aS'0'
aS'0'
aS'0'
aa(lp463
S'Takashi Shibata'
p464
aS'1956'
p465
aS'Lock'
p466
aS'date unknown'
p467
aS'1'
aS'0'
aS'0'
aS'0'
aa(lp468
S'Hiroshi Teranishi'
p469
aS'1956'
p470
aS'Centre'
p471
aS'date unknown'
p472
aS'5'
aS'0'
aS'0'
aS'0'
aa(lp473
S'Haruhiko Yamazaki'
p474
aS'1956'
p475
aS'Flanker'
p476
aS'date unknown'
p477
aS'1'
aS'0'
aS'1'
aS'3'
aa(lp478
S'Taisei-Shigehir Arai'
p479
aS'1956'
p480
aS'Fly-half'
p481
aS'date unknown'
p482
aS'6'
aS'0'
aS'0'
aS'6'
aa(lp483
S'Kazuo Natsui'
p484
aS'1956'
p485
aS'Prop'
p486
aS'Akita'
p487
aS'2'
aS'0'
aS'1'
aS'3'
aa(lp488
S'Takashi Sudo'
p489
aS'1956'
p490
aS'Flanker'
p491
aS'date unknown'
p492
aS'3'
aS'0'
aS'0'
aS'0'
aa(lp493
S'Koichi Takaoka'
p494
aS'1956'
p495
aS'Centre'
p496
aS'date unknown'
p497
aS'1'
aS'0'
aS'0'
aS'0'
aa(lp498
S'Ryuichi Ohara'
p499
aS'1956'
p500
aS'Lock'
p501
aS'date unknown'
p502
aS'1'
aS'0'
aS'0'
aS'0'
aa(lp503
S'Syozaburo Yamamoto'
p504
aS'1956'
p505
aS'Scrum-half'
p506
aS'date unknown'
p507
aS'1'
aS'0'
aS'0'
aS'0'
aa(lp508
S'Tatsuya Aoi'
p509
aS'1958'
p510
aS'Centre'
p511
aS'date unknown'
p512
aS'6'
aS'1'
aS'0'
aS'8'
aa(lp513
S'Rikio Enomoto'
p514
aS'1958'
p515
aS'Wing'
p516
aS'date unknown'
p517
aS'4'
aS'0'
aS'3'
aS'9'
aa(lp518
S'Terukazu Fuji'
p519
aS'1958'
p520
aS'Prop'
p521
aS'date unknown'
p522
aS'5'
aS'0'
aS'1'
aS'3'
aa(lp523
S'Koichi Imamura'
p524
aS'1958'
p525
aS'Scrum-half'
p526
aS'date unknown'
p527
aS'5'
aS'0'
aS'0'
aS'0'
aa(lp528
S'Yoshiaki Kaimoto'
p529
aS'1958'
p530
aS'Prop'
p531
aS'date unknown'
p532
aS'2'
aS'0'
aS'0'
aS'0'
aa(lp533
S'Yutaka Katakura'
p534
aS'1958'
p535
aS'Lock'
p536
aS'date unknown'
p537
aS'5'
aS'0'
aS'0'
aS'0'
aa(lp538
S'Hirosgi Hibino'
p539
aS'1958'
p540
aS'Wing'
p541
aS'date unknown'
p542
aS'3'
aS'0'
aS'1'
aS'3'
aa(lp543
S'Kiyoshi Kobayashi'
p544
aS'1958'
p545
aS'Prop'
p546
aS'date unknown'
p547
aS'6'
aS'0'
aS'1'
aS'3'
aa(lp548
S'Fumio Saito-Horikawa'
p549
aS'1958'
p550
aS'Scrum-half'
p551
aS'date unknown'
p552
aS'2'
aS'0'
aS'0'
aS'0'
aa(lp553
S'Ryuzo Taniguchi'
p554
aS'1958'
p555
aS'Centre'
p556
aS'date unknown'
p557
aS'2'
aS'0'
aS'0'
aS'0'
aa(lp558
S'Masao Ozaki'
p559
aS'1958'
p560
aS'No. 8'
p561
aS'date unknown'
p562
aS'2'
aS'0'
aS'1'
aS'3'
aa(lp563
S'Susumu Kitaoka'
p564
aS'1959'
p565
aS'Fullback'
p566
aS'date unknown'
p567
aS'2'
aS'0'
aS'0'
aS'10'
p568
aa(lp569
S'Kinichi Miyajima'
p570
aS'1959'
p571
aS'Flanker'
p572
aS'date unknown'
p573
aS'3'
aS'0'
aS'0'
aS'6'
aa(lp574
S'Kenji Ohotsuka'
p575
aS'1959'
p576
aS'Flanker'
p577
aS'date unknown'
p578
aS'2'
aS'0'
aS'0'
aS'0'
aa(lp579
S'Eiichi Shiga'
p580
aS'1959'
p581
aS'Hooker'
p582
aS'Akita'
p583
aS'3'
aS'0'
aS'0'
aS'0'
aa(lp584
S'Seiji Tanaka'
p585
aS'1959'
p586
aS'Lock'
p587
aS'date unknown'
p588
aS'4'
aS'0'
aS'0'
aS'0'
aa(lp589
S'Hideki Tominaga'
p590
aS'1959'
p591
aS'No. 8'
p592
aS'date unknown'
p593
aS'3'
aS'0'
aS'0'
aS'0'
aa(lp594
S'Terumi Harada'
p595
aS'1959'
p596
aS'Fullback'
p597
aS'date unknown'
p598
aS'1'
aS'0'
aS'0'
aS'2'
aa(lp599
S'Kiichirou Akatsu'
p600
aS'1959'
p601
aS'Hooker'
p602
aS'date unknown'
p603
aS'1'
aS'0'
aS'0'
aS'0'
aa(lp604
S'Masato Hirashima'
p605
aS'1959'
p606
aS'Fly-half'
p607
aS'date unknown'
p608
aS'1'
aS'0'
aS'0'
aS'0'
aa(lp609
S'Kenji Ishii'
p610
aS'1959'
p611
aS'Centre'
p612
aS'date unknown'
p613
aS'2'
aS'0'
aS'0'
aS'0'
aa(lp614
S'Yozo Matsuoka'
p615
aS'1959'
p616
aS'Fullback'
p617
aS'date unknown'
p618
aS'2'
aS'1'
aS'0'
aS'0'
aa(lp619
S'Kazuhisa Tsutsumi-Tatsuno'
p620
aS'1959'
p621
aS'No. 8'
p622
aS'date unknown'
p623
aS'1'
aS'0'
aS'0'
aS'0'
aa(lp624
S'Teruyasu Yuki'
p625
aS'1959'
p626
aS'Prop'
p627
aS'date unknown'
p628
aS'1'
aS'0'
aS'0'
aS'0'
aa(lp629
S'Keisuke Yamada'
p630
aS'1959'
p631
aS'Flanker'
p632
aS'date unknown'
p633
aS'1'
aS'0'
aS'0'
aS'0'
aa(lp634
S'Koji Ishizuka'
p635
aS'1963'
p636
aS'No. 8'
p637
aS'date unknown'
p638
aS'5'
aS'2'
aS'1'
aS'3'
aa(lp639
S'Tadayuki Ito'
p640
aS'1963'
p641
aS'Wing'
p642
aS'date unknown'
p643
aS'19'
p644
aS'8'
aS'19'
p645
aS'63'
p646
aa(lp647
S'Kazuo Kawasaki'
p648
aS'1963'
p649
aS'Prop'
p650
aS'date unknown'
p651
aS'1'
aS'1'
aS'0'
aS'0'
aa(lp652
S'Haruhiko Kitajima'
p653
aS'1963'
p654
aS'Fly-half'
p655
aS'date unknown'
p656
aS'1'
aS'1'
aS'1'
aS'3'
aa(lp657
S'Masatake Kusatsu'
p658
aS'1963'
p659
aS'Lock'
p660
aS'date unknown'
p661
aS'1'
aS'1'
aS'0'
aS'0'
aa(lp662
S'Shugoro Miura'
p663
aS'1963'
p664
aS'Scrum-half'
p665
aS'date unknown'
p666
aS'1'
aS'1'
aS'0'
aS'0'
aa(lp667
S'Kazuo Murata'
p668
aS'1963'
p669
aS'Hooker'
p670
aS'date unknown'
p671
aS'1'
aS'1'
aS'0'
aS'0'
aa(lp672
S'Hirohisa Nishizumi'
p673
aS'1963'
p674
aS'Flanker'
p675
aS'date unknown'
p676
aS'1'
aS'1'
aS'0'
aS'0'
aa(lp677
S'Eiji Okabe'
p678
aS'1963'
p679
aS'Lock'
p680
aS'date unknown'
p681
aS'2'
aS'1'
aS'0'
aS'0'
aa(lp682
S'Masayoshi Ozaki'
p683
aS'1963'
p684
aS'Centre'
p685
aS'date unknown'
p686
aS'5'
aS'3'
aS'2'
aS'10'
p687
aa(lp688
S'Shiro Ueki'
p689
aS'1963'
p690
aS'No. 8'
p691
aS'date unknown'
p692
aS'1'
aS'1'
aS'0'
aS'0'
aa(lp693
S'Koji Yamada'
p694
aS'1963'
p695
aS'Prop'
p696
aS'date unknown'
p697
aS'1'
aS'1'
aS'0'
aS'0'
aa(lp698
S'Tadamasa Fujimoto-Kamohara'
p699
aS'1967'
p700
aS'Fly-half'
p701
aS'date unknown'
p702
aS'14'
p703
aS'4'
aS'3'
aS'10'
p704
aa(lp705
S'Megumi Horikoshi'
p706
aS'1967'
p707
aS'Lock'
p708
aS'date unknown'
p709
aS'4'
aS'1'
aS'0'
aS'0'
aa(lp710
S'Motonari Ishida'
p711
aS'1967'
p712
aS'Flanker'
p713
aS'date unknown'
p714
aS'4'
aS'1'
aS'0'
aS'0'
aa(lp715
S'Takashi Jinno'
p716
aS'1967'
p717
aS'Prop'
p718
aS'date unknown'
p719
aS'1'
aS'0'
aS'0'
aS'0'
aa(lp720
S'Katsumi Kamata'
p721
aS'1967'
p722
aS'Lock'
p723
aS'date unknown'
p724
aS'5'
aS'1'
aS'0'
aS'0'
aa(lp725
S'Tsutomu Katsuraguchi'
p726
aS'1967'
p727
aS'Fullback'
p728
aS'date unknown'
p729
aS'5'
aS'2'
aS'0'
aS'8'
aa(lp730
S'Morio Kawasaki'
p731
aS'1967'
p732
aS'Prop'
p733
aS'date unknown'
p734
aS'7'
aS'2'
aS'0'
aS'0'
aa(lp735
S'Yoshinori Okubo'
p736
aS'1967'
p737
aS'Scrum-half'
p738
aS'date unknown'
p739
aS'3'
aS'1'
aS'1'
aS'3'
aa(lp740
S'Yoshihiro Sakata'
p741
aS'1967'
p742
aS'Wing'
p743
aS'date unknown'
p744
aS'16'
p745
aS'5'
aS'13'
p746
aS'40'
p747
aa(lp748
S'Toru Tenmyo'
p749
aS'1967'
p750
aS'Hooker'
p751
aS'date unknown'
p752
aS'2'
aS'0'
aS'0'
aS'0'
aa(lp753
S'Yoshiharu Yamaguchi'
p754
aS'1967'
p755
aS'Flanker'
p756
aS'date unknown'
p757
aS'13'
p758
aS'4'
aS'2'
aS'94'
p759
aa(lp760
S'Akira Yokoi'
p761
aS'1967'
p762
aS'Centre'
p763
aS'date unknown'
p764
aS'17'
p765
aS'5'
aS'1'
aS'8'
aa(lp766
S'Katsutoshi Azuma'
p767
aS'1967'
p768
aS'Scrum-half'
p769
aS'date unknown'
p770
aS'1'
aS'0'
aS'0'
aS'0'
aa(lp771
S'Shozo Fujita'
p772
aS'1967'
p773
aS'Flanker'
p774
aS'date unknown'
p775
aS'1'
aS'0'
aS'0'
aS'0'
aa(lp776
S'Nobuo Ikaida'
p777
aS'1967'
p778
aS'Fullback'
p779
aS'date unknown'
p780
aS'1'
aS'0'
aS'0'
aS'0'
aa(lp781
S'Kazumasa Inubuse'
p782
aS'1967'
p783
aS'Centre'
p784
aS'date unknown'
p785
aS'1'
aS'0'
aS'0'
aS'0'
aa(lp786
S'Takeshi Kato'
p787
aS'1967'
p788
aS'Flanker'
p789
aS'date unknown'
p790
aS'1'
aS'0'
aS'1'
aS'3'
aa(lp791
S'Haruhiko Komiya'
p792
aS'1967'
p793
aS'Prop'
p794
aS'date unknown'
p795
aS'1'
aS'0'
aS'0'
aS'0'
aa(lp796
S'Shigeru Murayama'
p797
aS'1967'
p798
aS'Hooker'
p799
aS'date unknown'
p800
aS'1'
aS'0'
aS'0'
aS'0'
aa(lp801
S'Hisashi Yamaoka'
p802
aS'1967'
p803
aS'Wing'
p804
aS'date unknown'
p805
aS'1'
aS'0'
aS'0'
aS'0'
aa(lp806
S'Mitsuo Atokawa'
p807
aS'1968'
p808
aS'Hooker'
p809
aS'date unknown'
p810
aS'12'
p811
aS'6'
aS'0'
aS'0'
aa(lp812
S'Yoshiaki Izawa'
p813
aS'1968'
p814
aS'Flanker'
p815
aS'date unknown'
p816
aS'24'
p817
aS'7'
aS'2'
aS'8'
aa(lp818
S'Masaharu Mantani'
p819
aS'1968'
p820
aS'Fullback'
p821
aS'date unknown'
p822
aS'13'
p823
aS'6'
aS'2'
aS'11'
p824
aa(lp825
S'Hiroshi Ogasawara'
p826
aS'1968'
p827
aS'Lock'
p828
aS'date unknown'
p829
aS'24'
p830
aS'7'
aS'0'
aS'0'
aa(lp831
S'Takeo Saruta'
p832
aS'1968'
p833
aS'Prop'
p834
aS'date unknown'
p835
aS'3'
aS'2'
aS'0'
aS'0'
aa(lp836
S'Ryozo Imazato'
p837
aS'1969'
p838
aS'Scrum-half'
p839
aS'date unknown'
p840
aS'24'
p841
aS'6'
aS'0'
aS'0'
aa(lp842
S'Masayoshi Ito'
p843
aS'1969'
p844
aS'Lock'
p845
aS'date unknown'
p846
aS'1'
aS'1'
aS'0'
aS'0'
aa(lp847
S'Katsumi Miyaji'
p848
aS'1969'
p849
aS'Prop'
p850
aS'date unknown'
p851
aS'1'
aS'1'
aS'0'
aS'0'
aa(lp852
S'Yoshio Tanigawa'
p853
aS'1969'
p854
aS'Flanker'
p855
aS'date unknown'
p856
aS'1'
aS'1'
aS'0'
aS'0'
aa(lp857
S'Toshio Terai'
p858
aS'1969'
p859
aS'Lock'
p860
aS'date unknown'
p861
aS'21'
p862
aS'7'
aS'0'
aS'0'
aa(lp863
S'Masahiro Uchida'
p864
aS'1969'
p865
aS'Flanker'
p866
aS'date unknown'
p867
aS'1'
aS'1'
aS'0'
aS'0'
aa(lp868
S'Satoru Matsuoka'
p869
aS'1970'
p870
aS'No. 8'
p871
aS'date unknown'
p872
aS'3'
aS'1'
aS'0'
aS'0'
aa(lp873
S'Makoto Mizutani'
p874
aS'1970'
p875
aS'Wing'
p876
aS'date unknown'
p877
aS'4'
aS'2'
aS'4'
aS'14'
p878
aa(lp879
S'Fumiharu Shimazaki'
p880
aS'1970'
p881
aS'Centre'
p882
aS'date unknown'
p883
aS'10'
p884
aS'3'
aS'2'
aS'10'
p885
aa(lp886
S'Masaaki Shimozono'
p887
aS'1970'
p888
aS'Prop'
p889
aS'date unknown'
p890
aS'11'
p891
aS'3'
aS'0'
aS'0'
aa(lp892
S'Tadahiko Omata'
p893
aS'1970'
p894
aS'Hooker'
p895
aS'date unknown'
p896
aS'3'
aS'1'
aS'0'
aS'0'
aa(lp897
S'Kishio Ishiyama'
p898
aS'1970'
p899
aS'Centre'
p900
aS'date unknown'
p901
aS'2'
aS'0'
aS'0'
aS'0'
aa(lp902
S'Asura Hara'
p903
aS'1970'
p904
aS'Prop'
p905
aS'date unknown'
p906
aS'17'
p907
aS'5'
aS'1'
aS'4'
aa(lp908
S'Toshio Kurosaka'
p909
aS'1970'
p910
aS'Prop'
p911
aS'date unknown'
p912
aS'9'
aS'3'
aS'0'
aS'0'
aa(lp913
S'Koji Miyata'
p914
aS'1971'
p915
aS'Centre'
p916
aS'date unknown'
p917
aS'4'
aS'2'
aS'0'
aS'0'
aa(lp918
S'Yoshihiro Murata'
p919
aS'1971'
p920
aS'No. 8'
p921
aS'date unknown'
p922
aS'11'
p923
aS'5'
aS'7'
aS'28'
p924
aa(lp925
S'Sachio Iburi'
p926
aS'1972'
p927
aS'Prop'
p928
aS'date unknown'
p929
aS'1'
aS'1'
aS'0'
aS'0'
aa(lp930
S'Koichi Shibata'
p931
aS'1972'
p932
aS'Lock'
p933
aS'date unknown'
p934
aS'10'
p935
aS'2'
aS'0'
aS'0'
aa(lp936
S'Masaru Fujiwara'
p937
aS'1973'
p938
aS'Wing'
p939
aS'date unknown'
p940
aS'22'
p941
aS'4'
aS'12'
p942
aS'48'
p943
aa(lp944
S'Kazumi Ohigashi'
p945
aS'1973'
p946
aS'Hooker'
p947
aS'date unknown'
p948
aS'6'
aS'2'
aS'1'
aS'4'
aa(lp949
S'Iwao Yamamoto'
p950
aS'1973'
p951
aS'Fullback'
p952
aS'date unknown'
p953
aS'1'
aS'0'
aS'0'
aS'6'
aa(lp954
S'Junji Yoshida'
p955
aS'1973'
p956
aS'Flanker'
p957
aS'date unknown'
p958
aS'2'
aS'0'
aS'0'
aS'0'
aa(lp959
S'Kazuhito Yoshino'
p960
aS'1973'
p961
aS'Prop'
p962
aS'date unknown'
p963
aS'1'
aS'0'
aS'0'
aS'0'
aa(lp964
S'Hideo Akama'
p965
aS'1973'
p966
aS'Flanker'
p967
aS'date unknown'
p968
aS'13'
p969
aS'2'
aS'0'
aS'0'
aa(lp970
S'Hiroaki Shukuzawa'
p971
aS'1973'
p972
aS'Scrum-half'
p973
aS'date unknown'
p974
aS'2'
aS'1'
aS'0'
aS'0'
aa(lp975
S'Nobuyuki Ueyama'
p976
aS'1973'
p977
aS'Fullback'
p978
aS'date unknown'
p979
aS'20'
p980
aS'5'
aS'5'
aS'99'
p981
aa(lp982
S'Masakatsu Iguchi'
p983
aS'1973'
p984
aS'Fly-half'
p985
aS'date unknown'
p986
aS'8'
aS'2'
aS'0'
aS'3'
aa(lp987
S'Ken Aruga'
p988
aS'1974'
p989
aS'Wing'
p990
aS'date unknown'
p991
aS'15'
p992
aS'2'
aS'6'
aS'24'
p993
aa(lp994
S'Takeo Ishizuka'
p995
aS'1974'
p996
aS'Flanker'
p997
aS'date unknown'
p998
aS'28'
p999
aS'10'
p1000
aS'2'
aS'8'
aa(lp1001
S'Tsukasa Takada'
p1002
aS'1974'
p1003
aS'Prop'
p1004
aS'date unknown'
p1005
aS'18'
p1006
aS'3'
aS'0'
aS'0'
aa(lp1007
S'Shigetaka Mori'
p1008
aS'1974'
p1009
aS'Centre'
p1010
aS'date unknown'
p1011
aS'27'
p1012
aS'6'
aS'5'
aS'20'
p1013
aa(lp1014
S'Masao Yoshida'
p1015
aS'1974'
p1016
aS'Centre'
p1017
aS'date unknown'
p1018
aS'18'
p1019
aS'4'
aS'3'
aS'12'
p1020
aa(lp1021
S'Hitoshi Kano'
p1022
aS'1974'
p1023
aS'Centre'
p1024
aS'date unknown'
p1025
aS'2'
aS'1'
aS'1'
aS'6'
aa(lp1026
S'Osamu Koyabu'
p1027
aS'1974'
p1028
aS'Fly-half'
p1029
aS'date unknown'
p1030
aS'1'
aS'1'
aS'1'
aS'4'
aa(lp1031
S'Susumu Kurihara'
p1032
aS'1974'
p1033
aS'Wing'
p1034
aS'date unknown'
p1035
aS'1'
aS'1'
aS'1'
aS'4'
aa(lp1036
S'Yuji Matsuo'
p1037
aS'1974'
p1038
aS'Fly-half'
p1039
aS'1954'
p1040
aS'24'
p1041
aS'8'
aS'3'
aS'73'
p1042
aa(lp1043
S'Nobufumi Tanaka'
p1044
aS'1974'
p1045
aS'Centre, Fullback'
p1046
aS'date unknown'
p1047
aS'15'
p1048
aS'5'
aS'2'
aS'44'
p1049
aa(lp1050
S'Shigeru Toyoda'
p1051
aS'1974'
p1052
aS'Lock'
p1053
aS'date unknown'
p1054
aS'1'
aS'1'
aS'0'
aS'0'
aa(lp1055
S'Osamu Yamashita'
p1056
aS'1974'
p1057
aS'Flanker'
p1058
aS'date unknown'
p1059
aS'1'
aS'1'
aS'0'
aS'0'
aa(lp1060
S'Akio Hiraki'
p1061
aS'1975'
p1062
aS'Wing'
p1063
aS'date unknown'
p1064
aS'1'
aS'1'
aS'0'
aS'0'
aa(lp1065
S'Ichiro Kobayashi'
p1066
aS'1975'
p1067
aS'Flanker'
p1068
aS'date unknown'
p1069
aS'18'
p1070
aS'2'
aS'1'
aS'4'
aa(lp1071
S'Toru Wada'
p1072
aS'1975'
p1073
aS'Prop'
p1074
aS'date unknown'
p1075
aS'8'
aS'0'
aS'0'
aS'0'
aa(lp1076
S'Shigekazu Hoshino'
p1077
aS'1975'
p1078
aS'Fly-half'
p1079
aS'date unknown'
p1080
aS'6'
aS'1'
aS'0'
aS'3'
aa(lp1081
S'Masayuki Miyauchi'
p1082
aS'1975'
p1083
aS'Prop'
p1084
aS'date unknown'
p1085
aS'4'
aS'1'
aS'0'
aS'0'
aa(lp1086
S'Ryutaro Fukurodate'
p1087
aS'1976'
p1088
aS'Lock'
p1089
aS'date unknown'
p1090
aS'11'
p1091
aS'2'
aS'0'
aS'0'
aa(lp1092
S'Atsuhiko Kanasashi'
p1093
aS'1976'
p1094
aS'Wing'
p1095
aS'date unknown'
p1096
aS'1'
aS'0'
aS'0'
aS'0'
aa(lp1097
S'Takeshi Nakayama'
p1098
aS'1976'
p1099
aS'Prop'
p1100
aS'date unknown'
p1101
aS'8'
aS'2'
aS'0'
aS'0'
aa(lp1102
S'Akio Ueda'
p1103
aS'1976'
p1104
aS'Scrum-half'
p1105
aS'date unknown'
p1106
aS'5'
aS'1'
aS'0'
aS'0'
aa(lp1107
S'Hirotsugu Ato'
p1108
aS'1976'
p1109
aS'Flanker'
p1110
aS'date unknown'
p1111
aS'1'
aS'0'
aS'0'
aS'0'
aa(lp1112
S'Manabu Sasada'
p1113
aS'1976'
p1114
aS'Hooker'
p1115
aS'date unknown'
p1116
aS'8'
aS'1'
aS'0'
aS'0'
aa(lp1117
S'Kyoichi Toyoyama'
p1118
aS'1976'
p1119
aS'Flanker'
p1120
aS'date unknown'
p1121
aS'6'
aS'0'
aS'0'
aS'0'
aa(lp1122
S'Takeo Tsuyama'
p1123
aS'1976'
p1124
aS'Scrum-half'
p1125
aS'date unknown'
p1126
aS'2'
aS'1'
aS'0'
aS'0'
aa(lp1127
S'Hirotaka Ujino'
p1128
aS'1976'
p1129
aS'Wing'
p1130
aS'date unknown'
p1131
aS'12'
p1132
aS'3'
aS'6'
aS'24'
p1133
aa(lp1134
S'Yoichiro Minamikawa'
p1135
aS'1976'
p1136
aS'Centre'
p1137
aS'date unknown'
p1138
aS'19'
p1139
aS'7'
aS'2'
aS'18'
p1140
aa(lp1141
S'Toshiaki Yasui'
p1142
aS'1976'
p1143
aS'Prop'
p1144
aS'date unknown'
p1145
aS'8'
aS'1'
aS'0'
aS'0'
aa(lp1146
S'Kazuo Muraguchi'
p1147
aS'1976'
p1148
aS'Wing'
p1149
aS'date unknown'
p1150
aS'2'
aS'1'
aS'0'
aS'0'
aa(lp1151
S'Naoshi Kymagai'
p1152
aS'1976'
p1153
aS'Lock'
p1154
aS'date unknown'
p1155
aS'2'
aS'0'
aS'0'
aS'0'
aa(lp1156
S'Takeshi Hatakeyama'
p1157
aS'1976'
p1158
aS'Lock'
p1159
aS'date unknown'
p1160
aS'9'
aS'2'
aS'0'
aS'0'
aa(lp1161
S'Isao Saito'
p1162
aS'1977'
p1163
aS'Flanker'
p1164
aS'date unknown'
p1165
aS'1'
aS'0'
aS'0'
aS'0'
aa(lp1166
S'Kiyoshi Segawa'
p1167
aS'1977'
p1168
aS'Lock'
p1169
aS'date unknown'
p1170
aS'5'
aS'1'
aS'0'
aS'0'
aa(lp1171
S'Akemi Namura'
p1172
aS'1977'
p1173
aS'Scrum-half'
p1174
aS'date unknown'
p1175
aS'1'
aS'0'
aS'0'
aS'0'
aa(lp1176
S'Naoshi Kumagai'
p1177
aS'1977'
p1178
aS'Lock'
p1179
aS'date unknown'
p1180
aS'1'
aS'0'
aS'0'
aS'0'
aa(lp1181
S'Junya Matsumoto'
p1182
aS'1977'
p1183
aS'Scrum-half'
p1184
aS'date unknown'
p1185
aS'10'
p1186
aS'2'
aS'0'
aS'0'
aa(lp1187
S'Mitsuru Hohokabe'
p1188
aS'1978'
p1189
aS'Hooker'
p1190
aS'date unknown'
p1191
aS'2'
aS'1'
aS'0'
aS'0'
aa(lp1192
S'Mitsuru Sakamoto'
p1193
aS'1978'
p1194
aS'Flanker'
p1195
aS'date unknown'
p1196
aS'3'
aS'2'
aS'1'
aS'4'
aa(lp1197
S'Toshihiko Kitahara'
p1198
aS'1978'
p1199
aS'Lock'
p1200
aS'date unknown'
p1201
aS'1'
aS'1'
aS'0'
aS'0'
aa(lp1202
S'Takeaki Toyoda'
p1203
aS'1978'
p1204
aS'Prop'
p1205
aS'date unknown'
p1206
aS'1'
aS'1'
aS'1'
aS'4'
aa(lp1207
S'Tetsuro Yajima'
p1208
aS'1978'
p1209
aS'Centre'
p1210
aS'date unknown'
p1211
aS'3'
aS'1'
aS'0'
aS'0'
aa(lp1212
S'Koji Horaguchi'
p1213
aS'1979'
p1214
aS'Prop'
p1215
aS'1953'
p1216
aS'24'
p1217
aS'5'
aS'0'
aS'0'
aa(lp1218
S'Naohisa Tanifuji'
p1219
aS'1979'
p1220
aS'Fullback'
p1221
aS'date unknown'
p1222
aS'14'
p1223
aS'4'
aS'2'
aS'8'
aa(lp1224
S'Takashi Kudo-Nakayama'
p1225
aS'1979'
p1226
aS'Wing'
p1227
aS'date unknown'
p1228
aS'1'
aS'0'
aS'0'
aS'0'
aa(lp1229
S'Hideo Toshima'
p1230
aS'1979'
p1231
aS'Centre'
p1232
aS'date unknown'
p1233
aS'14'
p1234
aS'5'
aS'8'
aS'32'
p1235
aa(lp1236
S'Kazuo Sejimo'
p1237
aS'1979'
p1238
aS'No. 8'
p1239
aS'date unknown'
p1240
aS'13'
p1241
aS'5'
aS'1'
aS'4'
aa(lp1242
S'Michihito Chida'
p1243
aS'1980'
p1244
aS'No. 8'
p1245
aS'1958'
p1246
aS'26'
p1247
aS'8'
aS'4'
aS'16'
p1248
aa(lp1249
S'Jiro Ishiyama'
p1250
aS'1980'
p1251
aS'Prop'
p1252
aS'date unknown'
p1253
aS'18'
p1254
aS'5'
aS'1'
aS'4'
aa(lp1255
S'Hiroaki Takahashi'
p1256
aS'1980'
p1257
aS'Flanker'
p1258
aS'date unknown'
p1259
aS'1'
aS'0'
aS'0'
aS'0'
aa(lp1260
S'Tsuyoshi Fujita'
p1261
aS'1980'
p1262
aS'Hooker'
p1263
aS'1961'
p1264
aS'32'
p1265
aS'7'
aS'4'
aS'16'
p1266
aa(lp1267
S'Takashi Ito'
p1268
aS'1980'
p1269
aS'Flanker'
p1270
aS'date unknown'
p1271
aS'8'
aS'4'
aS'0'
aS'0'
aa(lp1272
S'Hikaru Kawachi'
p1273
aS'1980'
p1274
aS'Flanker'
p1275
aS'date unknown'
p1276
aS'10'
p1277
aS'3'
aS'2'
aS'8'
aa(lp1278
S'Shinichi Oikawa'
p1279
aS'1980'
p1280
aS'Fly-half'
p1281
aS'date unknown'
p1282
aS'1'
aS'0'
aS'0'
aS'5'
aa(lp1283
S'Toshiyuki Hayashi'
p1284
aS'1980'
p1285
aS'Prop, Lock'
p1286
aS'Tokushima'
p1287
aS'38'
p1288
aS'10'
p1289
aS'3'
aS'12'
p1290
aa(lp1291
S'Fukumi Kanaya'
p1292
aS'1980'
p1293
aS'Wing'
p1294
aS'date unknown'
p1295
aS'12'
p1296
aS'5'
aS'3'
aS'12'
p1297
aa(lp1298
S'Yoshimitsu Konishi'
p1299
aS'1980'
p1300
aS'Scrum-half'
p1301
aS'date unknown'
p1302
aS'23'
p1303
aS'6'
aS'7'
aS'28'
p1304
aa(lp1305
S'Esturo Tsuji'
p1306
aS'1980'
p1307
aS'Wing'
p1308
aS'date unknown'
p1309
aS'6'
aS'2'
aS'4'
aS'16'
p1310
aa(lp1311
S'Toshihiro Hirai'
p1312
aS'1980'
p1313
aS''
aS'date unknown'
p1314
aS'3'
aS'2'
aS'0'
aS'0'
aa(lp1315
S'Yoshichiro Ikeda'
p1316
aS'1980'
p1317
aS'Prop'
p1318
aS'date unknown'
p1319
aS'4'
aS'1'
aS'0'
aS'0'
aa(lp1320
S'Nortitoshi Toyoda'
p1321
aS'1982'
p1322
aS''
aS'date unknown'
p1323
aS'1'
aS'1'
aS'0'
aS'0'
aa(lp1324
S'Kazuhiko Honjo'
p1325
aS'1982'
p1326
aS'Fly-half'
p1327
aS'date unknown'
p1328
aS'10'
p1329
aS'3'
aS'2'
aS'67'
p1330
aa(lp1331
S'Masahiro Inoue'
p1332
aS'1982'
p1333
aS'Hooker'
p1334
aS'date unknown'
p1335
aS'5'
aS'2'
aS'0'
aS'0'
aa(lp1336
S'Takao Ooba'
p1337
aS'1982'
p1338
aS'Prop'
p1339
aS'date unknown'
p1340
aS'1'
aS'0'
aS'0'
aS'0'
aa(lp1341
S'Takanobu Kondo'
p1342
aS'1982'
p1343
aS''
aS'date unknown'
p1344
aS'2'
aS'0'
aS'0'
aS'0'
aa(lp1345
S'Seiji Hirao'
p1346
aS'1982'
p1347
aS'Fly-half'
p1348
aS'Kyoto'
p1349
aS'35'
p1350
aS'7'
aS'1'
aS'18'
p1351
aa(lp1352
S'Yasuharu Kawase'
p1353
aS'1982'
p1354
aS'Flanker'
p1355
aS'1959'
p1356
aS'10'
p1357
aS'1'
aS'0'
aS'0'
aa(lp1358
S'Kimitaka Morioka'
p1359
aS'1982'
p1360
aS'Fly-half'
p1361
aS'date unknown'
p1362
aS'1'
aS'0'
aS'0'
aS'0'
aa(lp1363
S'Noboru Watanabe'
p1364
aS'1982'
p1365
aS''
aS'date unknown'
p1366
aS'1'
aS'0'
aS'0'
aS'0'
aa(lp1367
S'Koji Kawachi'
p1368
aS'1983'
p1369
aS'Lock'
p1370
aS'date unknown'
p1371
aS'2'
aS'1'
aS'0'
aS'0'
aa(lp1372
S'Hideo Kobayashi'
p1373
aS'1983'
p1374
aS'Centre'
p1375
aS'date unknown'
p1376
aS'7'
aS'1'
aS'0'
aS'23'
p1377
aa(lp1378
S'Atsushi Oyagi'
p1379
aS'1983'
p1380
aS'Lock'
p1381
aS'1961'
p1382
aS'30'
p1383
aS'6'
aS'3'
aS'12'
p1384
aa(lp1385
S'Kenzo Takada'
p1386
aS'1983'
p1387
aS'Flanker'
p1388
aS'date unknown'
p1389
aS'1'
aS'0'
aS'0'
aS'0'
aa(lp1390
S'Tetsuya Higashida'
p1391
aS'1983'
p1392
aS'Wing'
p1393
aS'date unknown'
p1394
aS'1'
aS'0'
aS'0'
aS'0'
aa(lp1395
S'Toshitaka Kimura'
p1396
aS'1984'
p1397
aS'Prop'
p1398
aS'1963'
p1399
aS'10'
p1400
aS'1'
aS'0'
aS'0'
aa(lp1401
S'Masahiko Koshiyama'
p1402
aS'1984'
p1403
aS'Flanker'
p1404
aS'date unknown'
p1405
aS'10'
p1406
aS'2'
aS'1'
aS'4'
aa(lp1407
S'Shinji Onuki'
p1408
aS'1984'
p1409
aS'Wing'
p1410
aS'1962'
p1411
aS'15'
p1412
aS'2'
aS'3'
aS'12'
p1413
aa(lp1414
S'Masato Yasuda'
p1415
aS'1984'
p1416
aS'Fullback'
p1417
aS'date unknown'
p1418
aS'1'
aS'0'
aS'0'
aS'0'
aa(lp1419
S'Masaharu Aizawa'
p1420
aS'1984'
p1421
aS'Prop'
p1422
aS'1958'
p1423
aS'11'
p1424
aS'2'
aS'0'
aS'0'
aa(lp1425
S'Toshiro Yoshino'
p1426
aS'1985'
p1427
aS'Utility back'
p1428
aS'1960'
p1429
aS'7'
aS'0'
aS'1'
aS'4'
aa(lp1430
S'Shogo Mukai'
p1431
aS'1985'
p1432
aS'Fullback'
p1433
aS'1961'
p1434
aS'13'
p1435
aS'1'
aS'0'
aS'0'
aa(lp1436
S'Daijiro Murai'
p1437
aS'1985'
p1438
aS'Fullback'
p1439
aS'1962'
p1440
aS'8'
aS'0'
aS'1'
aS'4'
aa(lp1441
S'Yoshifumi Kasai'
p1442
aS'1985'
p1443
aS'Flanker'
p1444
aS'date unknown'
p1445
aS'2'
aS'0'
aS'0'
aS'0'
aa(lp1446
S'Eiji Kutsuki'
p1447
aS'1985'
p1448
aS'Centre'
p1449
aS'1962'
p1450
aS'30'
p1451
aS'10'
p1452
aS'9'
aS'39'
p1453
aa(lp1454
S'Toshihiro Matsunaga'
p1455
aS'1985'
p1456
aS'Centre'
p1457
aS'date unknown'
p1458
aS'2'
aS'0'
aS'0'
aS'0'
aa(lp1459
S'Nofomuli Taumoefolau'
p1460
aS'1979'
p1461
aS'Wing'
p1462
aS'1956'
p1463
aS'18'
p1464
aS'4'
aS'5'
aS'20'
p1465
aa(lp1466
S'Masato Tsuchida'
p1467
aS'1985'
p1468
aS'Flanker'
p1469
aS'date unknown'
p1470
aS'1'
aS'0'
aS'0'
aS'0'
aa(lp1471
S'Kinya Konishi'
p1472
aS'1986'
p1473
aS'Lock'
p1474
aS'date unknown'
p1475
aS'2'
aS'0'
aS'0'
aS'0'
aa(lp1476
S'Katsuhiro Matsuo'
p1477
aS'1986'
p1478
aS'Fly-half'
p1479
aS'Miyazaki'
p1480
aS'23'
p1481
aS'8'
aS'3'
aS'61'
p1482
aa(lp1483
S'Osamu Ota'
p1484
aS'1986'
p1485
aS'Prop'
p1486
aS'Akitai'
p1487
aS'27'
p1488
aS'10'
p1489
aS'1'
aS'5'
aa(lp1490
S'Hopoi Taione'
p1491
aS'1986'
p1492
aS'No. 8'
p1493
aS'November 1957'
p1494
aS'4'
aS'1'
aS'0'
aS'0'
aa(lp1495
S'Koji Yasumi'
p1496
aS'1986'
p1497
aS'Prop'
p1498
aS'1957'
p1499
aS'3'
aS'1'
aS'0'
aS'0'
aa(lp1500
S'Katsunori Ishii'
p1501
aS'1986'
p1502
aS'Fullback'
p1503
aS'date unknown'
p1504
aS'1'
aS'0'
aS'0'
aS'0'
aa(lp1505
S'Seiji Kurihara'
p1506
aS'1986'
p1507
aS'Lock'
p1508
aS'1964'
p1509
aS'3'
aS'0'
aS'0'
aS'0'
aa(lp1510
S'Yoshihiko Sakuraba'
p1511
aS'1986'
p1512
aS'Lock'
p1513
aS'Akita'
p1514
aS'43'
p1515
aS'17'
p1516
aS'1'
aS'5'
aa(lp1517
S'Katsufumi Miyamoto'
p1518
aS'1986'
p1519
aS'Flanker'
p1520
aS'1966'
p1521
aS'9'
aS'0'
aS'1'
aS'4'
aa(lp1522
S'Yuji Masutome'
p1523
aS'1986'
p1524
aS'Hooker'
p1525
aS'date unknown'
p1526
aS'1'
aS'0'
aS'0'
aS'0'
aa(lp1527
S'Kojiro Yoshinaga'
p1528
aS'1986'
p1529
aS'Centre'
p1530
aS'1961'
p1531
aS'6'
aS'0'
aS'2'
aS'11'
p1532
aa(lp1533
S'Hisataka Ikuta'
p1534
aS'1987'
p1535
aS'Scrum-half'
p1536
aS'1962'
p1537
aS'4'
aS'0'
aS'0'
aS'0'
aa(lp1538
S'Sinali-Tui Latu'
p1539
aS'1984'
p1540
aS'No. 8'
p1541
aS"Ha'apai"
p1542
aS'34'
p1543
aS'11'
p1544
aS'4'
aS'18'
p1545
aa(lp1546
S'Mitsutake Hagimoto'
p1547
aS'1987'
p1548
aS'Scrum-half'
p1549
aS'1959'
p1550
aS'1'
aS'0'
aS'0'
aS'0'
aa(lp1551
S'Minoru Okidoi'
p1552
aS'1987'
p1553
aS'Wing'
p1554
aS'1965'
p1555
aS'4'
aS'0'
aS'2'
aS'25'
p1556
aa(lp1557
S'Tsutomu Hirose'
p1558
aS'1987'
p1559
aS'Hooker'
p1560
aS'1963'
p1561
aS'3'
aS'0'
aS'0'
aS'0'
aa(lp1562
S'Katsumi Sogumo'
p1563
aS'1987'
p1564
aS'Flanker'
p1565
aS'date unknown'
p1566
aS'1'
aS'0'
aS'0'
aS'0'
aa(lp1567
S'Masami Horikoshi'
p1568
aS'1988'
p1569
aS'Scrum-half'
p1570
aS'Tokyo'
p1571
aS'27'
p1572
aS'10'
p1573
aS'5'
aS'21'
p1574
aa(lp1575
S'Kenji Imakoma'
p1576
aS'1988'
p1577
aS'Centre'
p1578
aS'date unknown'
p1579
aS'2'
aS'0'
aS'3'
aS'12'
p1580
aa(lp1581
S'Takanori Nagata'
p1582
aS'1988'
p1583
aS'Prop'
p1584
aS'date unknown'
p1585
aS'1'
aS'0'
aS'0'
aS'0'
aa(lp1586
S'Koda Tsunejiro'
p1587
aS'1988'
p1588
aS'Flanker'
p1589
aS'date unknown'
p1590
aS'2'
aS'0'
aS'0'
aS'0'
aa(lp1591
S'Seigo Umeki-Kunisada'
p1592
aS'1988'
p1593
aS'Wing'
p1594
aS'date unknown'
p1595
aS'1'
aS'0'
aS'0'
aS'0'
aa(lp1596
S'Yoshihito Yoshida'
p1597
aS'1988'
p1598
aS'Wing'
p1599
aS'Akita'
p1600
aS'31'
p1601
aS'11'
p1602
aS'19'
p1603
aS'97'
p1604
aa(lp1605
S'Masayuki Nagai'
p1606
aS'1988'
p1607
aS'Prop'
p1608
aS'date unknown'
p1609
aS'2'
aS'0'
aS'0'
aS'0'
aa(lp1610
S'Toshitsugu Yamamoto'
p1611
aS'1988'
p1612
aS'Fullback'
p1613
aS'date unknown'
p1614
aS'3'
aS'1'
aS'1'
aS'14'
p1615
aa(lp1616
S'Kiyoshi Imaizumi'
p1617
aS'1988'
p1618
aS''
aS'Tokyo'
p1619
aS'8'
aS'4'
aS'3'
aS'15'
p1620
aa(lp1621
S'Shinobu Aoki'
p1622
aS'1989'
p1623
aS'Fly-half'
p1624
aS'1968'
p1625
aS'5'
aS'1'
aS'1'
aS'4'
aa(lp1626
S'Hiroyuki Kajihara'
p1627
aS'1989'
p1628
aS'Flanker'
p1629
aS'Yamanasi'
p1630
aS'31'
p1631
aS'12'
p1632
aS'6'
aS'28'
p1633
aa(lp1634
S'Shuji Nakashima'
p1635
aS'1989'
p1636
aS'Flanker'
p1637
aS'1965'
p1638
aS'11'
p1639
aS'4'
aS'0'
aS'0'
aa(lp1640
S'Masanori Takura'
p1641
aS'1989'
p1642
aS'Prop'
p1643
aS'Kyoto'
p1644
aS'16'
p1645
aS'8'
aS'1'
aS'5'
aa(lp1646
S'Ekeroma Lauaiufi'
p1647
aS'1987'
p1648
aS'Lock'
p1649
aS'Western Samoa'
p1650
aS'15'
p1651
aS'5'
aS'1'
aS'4'
aa(lp1652
S'Tadashi Goda'
p1653
aS'1990'
p1654
aS'Wing'
p1655
aS'date unknown'
p1656
aS'8'
aS'2'
aS'1'
aS'4'
aa(lp1657
S'Kazuaki Takahashi'
p1658
aS'1990'
p1659
aS'Prop'
p1660
aS'Tokyo'
p1661
aS'22'
p1662
aS'5'
aS'1'
aS'5'
aa(lp1663
S'Takahiro Hosokawa'
p1664
aS'1990'
p1665
aS'Fullback'
p1666
aS'1967'
p1667
aS'10'
p1668
aS'3'
aS'3'
aS'115'
p1669
aa(lp1670
S'Narihiro Watanabe'
p1671
aS'1990'
p1672
aS'Scrum-half'
p1673
aS'date unknown'
p1674
aS'1'
aS'0'
aS'0'
aS'0'
aa(lp1675
S'Masahiro Kunda'
p1676
aS'1990'
p1677
aS'Hooker'
p1678
aS'Aichi'
p1679
aS'48'
p1680
aS'20'
p1681
aS'1'
aS'5'
aa(lp1682
S'Kiyomi Fukumoro'
p1683
aS'1990'
p1684
aS'Fullback'
p1685
aS'date unknown'
p1686
aS'1'
aS'0'
aS'0'
aS'5'
aa(lp1687
S'Susumu Fukuoka'
p1688
aS'1990'
p1689
aS'Centre'
p1690
aS'date unknown'
p1691
aS'1'
aS'0'
aS'0'
aS'0'
aa(lp1692
S'Hirofumi Ouchi'
p1693
aS'1990'
p1694
aS''
aS'1966'
p1695
aS'5'
aS'1'
aS'0'
aS'0'
aa(lp1696
S'Wataru Murata'
p1697
aS'1991'
p1698
aS'Scrum-half'
p1699
aS'Fukuoka'
p1700
aS'41'
p1701
aS'15'
p1702
aS'5'
aS'84'
p1703
aa(lp1704
S'Yukio Motoki'
p1705
aS'1991'
p1706
aS'Centre'
p1707
aS'Osaka'
p1708
aS'79'
p1709
aS'31'
p1710
aS'9'
aS'45'
p1711
aa(lp1712
S'Tatsuya Maeda'
p1713
aS'1991'
p1714
aS''
aS'1968'
p1715
aS'4'
aS'1'
aS'0'
aS'26'
p1716
aa(lp1717
S'Terunori Masuho'
p1718
aS'1991'
p1719
aS'Wing'
p1720
aS'Tokyo'
p1721
aS'47'
p1722
aS'20'
p1723
aS'29'
p1724
aS'147'
p1725
aa(lp1726
S'Sam Kaleta'
p1727
aS'1992'
p1728
aS'Flanker'
p1729
aS'1966'
p1730
aS'11'
p1731
aS'5'
aS'1'
aS'5'
aa(lp1732
S'Jun Komura'
p1733
aS'1992'
p1734
aS'Flanker'
p1735
aS'1970'
p1736
aS'4'
aS'2'
aS'0'
aS'0'
aa(lp1737
S'Sione-Tupo Latu Mailangi'
p1738
aS'1992'
p1739
aS'No. 8'
p1740
aS'1971'
p1741
aS'9'
aS'6'
aS'4'
aS'20'
p1742
aa(lp1743
S'Tsutomu Matsuda'
p1744
aS'1992'
p1745
aS'Fullback, Wing'
p1746
aS'Saitama'
p1747
aS'43'
p1748
aS'20'
p1749
aS'14'
p1750
aS'70'
p1751
aa(lp1752
S'Lopeti Oto'
p1753
aS'1992'
p1754
aS'Wing'
p1755
aS'1971'
p1756
aS'8'
aS'2'
aS'7'
aS'35'
p1757
aa(lp1758
S'Noriyuki Owashi'
p1759
aS'1992'
p1760
aS'Fly-half'
p1761
aS'date unknown'
p1762
aS'1'
aS'1'
aS'0'
aS'7'
aa(lp1763
S'Hirohisa Kato'
p1764
aS'1993'
p1765
aS'Centre'
p1766
aS'date unknown'
p1767
aS'2'
aS'0'
aS'0'
aS'0'
aa(lp1768
S'Hidco Kaneshiro'
p1769
aS'1993'
p1770
aS'Flanker'
p1771
aS'date unknown'
p1772
aS'1'
aS'0'
aS'0'
aS'0'
aa(lp1773
S'Bruce Ferguson'
p1774
aS'1993'
p1775
aS'Lock'
p1776
aS'Suva'
p1777
aS'17'
p1778
aS'7'
aS'0'
aS'0'
aa(lp1779
S'Mitsuo Fujikake'
p1780
aS'1993'
p1781
aS'Centre'
p1782
aS'date unknown'
p1783
aS'4'
aS'2'
aS'1'
aS'5'
aa(lp1784
S'Yogi Nagatomo'
p1785
aS'1993'
p1786
aS'Scrum-half'
p1787
aS'date unknown'
p1788
aS'8'
aS'3'
aS'0'
aS'38'
p1789
aa(lp1790
S'Ian Williams'
p1791
aS'1987'
p1792
aS'Wing'
p1793
aS'NSW'
p1794
aS'18'
p1795
aS'6'
aS'11'
p1796
aS'45'
p1797
aa(lp1798
S'Takashi Akatsuka'
p1799
aS'1994'
p1800
aS'Lock'
p1801
aS'Osaka'
p1802
aS'7'
aS'5'
aS'2'
aS'10'
p1803
aa(lp1804
S'Hideki Nishida'
p1805
aS'1994'
p1806
aS'Scrum-half'
p1807
aS'Kumamoto'
p1808
aS'1'
aS'1'
aS'2'
aS'10'
p1809
aa(lp1810
S'Yasunobu Sato'
p1811
aS'1994'
p1812
aS'Prop'
p1813
aS'date unknown'
p1814
aS'2'
aS'1'
aS'0'
aS'0'
aa(lp1815
S'Keiji Hirose'
p1816
aS'1994'
p1817
aS'Fly-half'
p1818
aS'Osaka'
p1819
aS'40'
p1820
aS'18'
p1821
aS'5'
aS'422'
p1822
aa(lp1823
S'Tetsuya Takeyama'
p1824
aS'1994'
p1825
aS'Centre'
p1826
aS'date unknown'
p1827
aS'2'
aS'1'
aS'0'
aS'0'
aa(lp1828
S'Tomoya Haneda'
p1829
aS'1995'
p1830
aS'Lock'
p1831
aS'Osaka'
p1832
aS'1'
aS'0'
aS'0'
aS'0'
aa(lp1833
S'Eiji Hirotsu'
p1834
aS'1995'
p1835
aS''
aS'Yamaguchi'
p1836
aS'1'
aS'0'
aS'0'
aS'0'
aa(lp1837
S'Ko Izawa-Nakamura'
p1838
aS'1995'
p1839
aS'Flanker'
p1840
aS'Kanagawa'
p1841
aS'17'
p1842
aS'6'
aS'6'
aS'30'
p1843
aa(lp1844
S'Akira Yoshida'
p1845
aS'1995'
p1846
aS'Centre'
p1847
aS'Kyoto'
p1848
aS'16'
p1849
aS'3'
aS'1'
aS'5'
aa(lp1850
S'David Bickle'
p1851
aS'1996'
p1852
aS'Lock'
p1853
aS'Edinburgh'
p1854
aS'6'
aS'2'
aS'1'
aS'5'
aa(lp1855
S'Takeomi Ito'
p1856
aS'1996'
p1857
aS'Back-row'
p1858
aS'Tokyo'
p1859
aS'63'
p1860
aS'26'
p1861
aS'6'
aS'30'
p1862
aa(lp1863
S'Andrew McCormick'
p1864
aS'1996'
p1865
aS'Centre'
p1866
aS'Christchurch'
p1867
aS'25'
p1868
aS'13'
p1869
aS'3'
aS'15'
p1870
aa(lp1871
S'Toshikazu Nakamichi'
p1872
aS'1996'
p1873
aS'Prop, Hooker'
p1874
aS'Osaka'
p1875
aS'16'
p1876
aS'7'
aS'0'
aS'0'
aa(lp1877
S'Hiroki Ozeki'
p1878
aS'1996'
p1879
aS'Wing'
p1880
aS'date unknown'
p1881
aS'5'
aS'3'
aS'2'
aS'10'
p1882
aa(lp1883
S'Yasunori Watanabe'
p1884
aS'1996'
p1885
aS'Lock, Flanker'
p1886
aS'Tokyo'
p1887
aS'34'
p1888
aS'14'
p1889
aS'8'
aS'40'
p1890
aa(lp1891
S'Kenichi Kimura'
p1892
aS'1996'
p1893
aS''
aS'1968'
p1894
aS'1'
aS'0'
aS'0'
aS'0'
aa(lp1895
S'Kenji Sato'
p1896
aS'1996'
p1897
aS'Flanker'
p1898
aS'date unknown'
p1899
aS'5'
aS'1'
aS'0'
aS'0'
aa(lp1900
S'Kazu Hamabe'
p1901
aS'1996'
p1902
aS''
aS'1971'
p1903
aS'12'
p1904
aS'4'
aS'0'
aS'0'
aa(lp1905
S'Masaaki Sakata'
p1906
aS'1996'
p1907
aS'Hooker'
p1908
aS'Kyoto'
p1909
aS'30'
p1910
aS'10'
p1911
aS'5'
aS'25'
p1912
aa(lp1913
S'Osami Yatsuhashi'
p1914
aS'1996'
p1915
aS'Centre'
p1916
aS'Nara'
p1917
aS'12'
p1918
aS'5'
aS'5'
aS'25'
p1919
aa(lp1920
S'Daisuke Ohata'
p1921
aS'1996'
p1922
aS'Wing'
p1923
aS'Osaka'
p1924
aS'58'
p1925
aS'27'
p1926
aS'69'
p1927
aS'345'
p1928
aa(lp1929
S'Shuji Shimizu'
p1930
aS'1996'
p1931
aS'Prop'
p1932
aS'Aichi'
p1933
aS'1'
aS'1'
aS'0'
aS'0'
aa(lp1934
S'Hiroyuki Tanuma'
p1935
aS'1996'
p1936
aS'Lock'
p1937
aS'Kanagawa'
p1938
aS'42'
p1939
aS'16'
p1940
aS'2'
aS'10'
p1941
aa(lp1942
S'Isikeli Basiyalo'
p1943
aS'1994'
p1944
aS'Lock'
p1945
aS'date unknown'
p1946
aS'6'
aS'0'
aS'0'
aS'0'
aa(lp1947
S'Robert Gordon'
p1948
aS'1997'
p1949
aS'No. 8'
p1950
aS'Te Awamutu'
p1951
aS'17'
p1952
aS'6'
aS'2'
aS'10'
p1953
aa(lp1954
S'Ken Iwabuchi'
p1955
aS'1997'
p1956
aS'Fly-half'
p1957
aS'Tokyo'
p1958
aS'21'
p1959
aS'9'
aS'5'
aS'40'
p1960
aa(lp1961
S'Keiji Mizobe'
p1962
aS'1997'
p1963
aS'Prop'
p1964
aS'date unknown'
p1965
aS'4'
aS'1'
aS'0'
aS'0'
aa(lp1966
S'Pat Tuidraki'
p1967
aS'1994'
p1968
aS'Wing'
p1969
aS'Lautoka'
p1970
aS'25'
p1971
aS'8'
aS'10'
p1972
aS'50'
p1973
aa(lp1974
S'Kenichi Wada'
p1975
aS'1997'
p1976
aS'Wing'
p1977
aS'1972'
p1978
aS'5'
aS'0'
aS'1'
aS'5'
aa(lp1979
S'Jun Oyamada'
p1980
aS'1997'
p1981
aS'Wing'
p1982
aS'Akita'
p1983
aS'2'
aS'0'
aS'0'
aS'0'
aa(lp1984
S'Kohei Oguchi'
p1985
aS'1997'
p1986
aS'Prop'
p1987
aS'Saitama'
p1988
aS'10'
p1989
aS'2'
aS'0'
aS'0'
aa(lp1990
S'Kazuya Koizumi'
p1991
aS'1997'
p1992
aS'Lock'
p1993
aS'Yamanasi'
p1994
aS'13'
p1995
aS'2'
aS'0'
aS'0'
aa(lp1996
S'Shin Hasegawa'
p1997
aS'1997'
p1998
aS'Hooker, Prop'
p1999
aS'Kyoto'
p2000
aS'40'
p2001
aS'14'
p2002
aS'1'
aS'5'
aa(lp2003
S'Stephen Miln'
p2004
aS'1998'
p2005
aS'Fullback'
p2006
aS'1967'
p2007
aS'5'
aS'2'
aS'0'
aS'34'
p2008
aa(lp2009
S'Naoto Nakamura'
p2010
aS'1998'
p2011
aS'Prop'
p2012
aS'1969'
p2013
aS'20'
p2014
aS'11'
p2015
aS'2'
aS'10'
p2016
aa(lp2017
S'Greg Smith'
p2018
aS'1998'
p2019
aS'Flanker'
p2020
aS'1968'
p2021
aS'17'
p2022
aS'9'
aS'3'
aS'15'
p2023
aa(lp2024
S'Ross Thompson'
p2025
aS'1998'
p2026
aS'Lock, No. 8'
p2027
aS'1962'
p2028
aS'6'
aS'2'
aS'5'
aS'25'
p2029
aa(lp2030
S'Keisuke Sawaki'
p2031
aS'1998'
p2032
aS'Fly-half'
p2033
aS'Akita'
p2034
aS'8'
aS'6'
aS'2'
aS'27'
p2035
aa(lp2036
S'Katsuji Ohara'
p2037
aS'1998'
p2038
aS'Scrum-half'
p2039
aS'1971'
p2040
aS'5'
aS'3'
aS'0'
aS'0'
aa(lp2041
S'Masahiro Kurokawa'
p2042
aS'1998'
p2043
aS'No. 8'
p2044
aS'Tochigi'
p2045
aS'8'
aS'3'
aS'1'
aS'5'
aa(lp2046
S'Takafumi Hirao'
p2047
aS'1998'
p2048
aS'Wing'
p2049
aS'Osaka'
p2050
aS'12'
p2051
aS'6'
aS'5'
aS'25'
p2052
aa(lp2053
S'Masamitsu Oyabu'
p2054
aS'1998'
p2055
aS'Centre'
p2056
aS'date unknown'
p2057
aS'1'
aS'0'
aS'0'
aS'0'
aa(lp2058
S'Takayuki Sugata'
p2059
aS'1998'
p2060
aS'Flanker'
p2061
aS'date unknown'
p2062
aS'1'
aS'0'
aS'0'
aS'0'
aa(lp2063
S'Graeme Bachop'
p2064
aS'1989'
p2065
aS'Scrum-half'
p2066
aS'Christchurch'
p2067
aS'39'
p2068
aS'28'
p2069
aS'4'
aS'18'
p2070
aa(lp2071
S'Jamie Joseph'
p2072
aS'1992'
p2073
aS'Flanker'
p2074
aS'Blenheim'
p2075
aS'29'
p2076
aS'21'
p2077
aS'3'
aS'15'
p2078
aa(lp2079
S'Kenji Kasai'
p2080
aS'1999'
p2081
aS'Prop'
p2082
aS'Tokyo'
p2083
aS'11'
p2084
aS'5'
aS'1'
aS'5'
aa(lp2085
S'Goshi Tachikawa'
p2086
aS'1999'
p2087
aS'Fullback, Centre'
p2088
aS'Saga'
p2089
aS'20'
p2090
aS'13'
p2091
aS'7'
aS'35'
p2092
aa(lp2093
S'Naoya Okubo'
p2094
aS'1999'
p2095
aS'Flanker, Lock'
p2096
aS'Osaka'
p2097
aS'23'
p2098
aS'9'
aS'0'
aS'0'
aa(lp2099
S'Junji Hiratsuka'
p2100
aS'1999'
p2101
aS'Lock'
p2102
aS'Akita'
p2103
aS'1'
aS'1'
aS'0'
aS'0'
aa(lp2104
S'Ryuji Ishi'
p2105
aS'1999'
p2106
aS'Flanker'
p2107
aS'Fukuoka'
p2108
aS'1'
aS'1'
aS'0'
aS'0'
aa(lp2109
S'Ryohei Miki'
p2110
aS'1999'
p2111
aS'Wing, Centre'
p2112
aS'Shanghai'
p2113
aS'9'
aS'4'
aS'8'
aS'40'
p2114
aa(lp2115
S'Koji Fukuoka'
p2116
aS'2000'
p2117
aS'Fullback'
p2118
aS'Shiga'
p2119
aS'2'
aS'0'
aS'0'
aS'0'
aa(lp2120
S'Hideki Nanba'
p2121
aS'2000'
p2122
aS'Centre'
p2123
aS'Kanagawa'
p2124
aS'24'
p2125
aS'8'
aS'6'
aS'30'
p2126
aa(lp2127
S'Naoya Okubo'
p2128
aS'2000'
p2129
aS'Lock'
p2130
aS'Kanagawa'
p2131
aS'6'
aS'1'
aS'0'
aS'0'
aa(lp2132
S'Yuji Sonoda'
p2133
aS'2000'
p2134
aS'Scrum-half'
p2135
aS'Osaka'
p2136
aS'18'
p2137
aS'5'
aS'2'
aS'10'
p2138
aa(lp2139
S'Hiroshi Sugawara'
p2140
aS'2000'
p2141
aS'Back-row'
p2142
aS'Gifu'
p2143
aS'6'
aS'1'
aS'0'
aS'0'
aa(lp2144
S'Karl Todd'
p2145
aS'2000'
p2146
aS'Lock'
p2147
aS'1972'
p2148
aS'3'
aS'0'
aS'0'
aS'0'
aa(lp2149
S'Masahiko Toyoyoma'
p2150
aS'2000'
p2151
aS'Prop'
p2152
aS'Osaka'
p2153
aS'24'
p2154
aS'9'
aS'3'
aS'15'
p2155
aa(lp2156
S'Toru Kurihara'
p2157
aS'2000'
p2158
aS'Fullback'
p2159
aS'Ibaraki'
p2160
aS'28'
p2161
aS'9'
aS'20'
p2162
aS'347'
p2163
aa(lp2164
S'Shotaro Onishi'
p2165
aS'2000'
p2166
aS'Centre, Fly-half'
p2167
aS'Osaka'
p2168
aS'33'
p2169
aS'15'
p2170
aS'2'
aS'71'
p2171
aa(lp2172
S'Takahiro Hirata'
p2173
aS'2000'
p2174
aS''
aS'Miyazaki'
p2175
aS'2'
aS'0'
aS'0'
aS'0'
aa(lp2176
S'Yasuhiko Iwama'
p2177
aS'2000'
p2178
aS'Prop'
p2179
aS'Kanagawa'
p2180
aS'6'
aS'2'
aS'0'
aS'0'
aa(lp2181
S'Takuo Kawasaki'
p2182
aS'2000'
p2183
aS'Back-row'
p2184
aS'Fukuoka'
p2185
aS'2'
aS'0'
aS'0'
aS'0'
aa(lp2186
S'Michinori Oda'
p2187
aS'2000'
p2188
aS'Fullback'
p2189
aS'Osaka'
p2190
aS'5'
aS'1'
aS'2'
aS'10'
p2191
aa(lp2192
S'Mamoru Ito'
p2193
aS'2000'
p2194
aS'Scrum-half'
p2195
aS'Akita'
p2196
aS'16'
p2197
aS'8'
aS'2'
aS'10'
p2198
aa(lp2199
S'Takeshi Nozawa'
p2200
aS'2000'
p2201
aS'Flanker'
p2202
aS'Tokyo'
p2203
aS'4'
aS'1'
aS'0'
aS'0'
aa(lp2204
S'Masanori Tatsukawa'
p2205
aS'2000'
p2206
aS'Hooker, Prop'
p2207
aS'Kyoto'
p2208
aS'1'
aS'0'
aS'0'
aS'0'
aa(lp2209
S'Kousuke Fujii'
p2210
aS'2000'
p2211
aS'Lock'
p2212
aS'Oita'
p2213
aS'1'
aS'0'
aS'0'
aS'0'
aa(lp2214
S'Yasuharu Uryu'
p2215
aS'2000'
p2216
aS'Centre'
p2217
aS'Fukuoka'
p2218
aS'2'
aS'1'
aS'0'
aS'0'
aa(lp2219
S'Masao Amino'
p2220
aS'2000'
p2221
aS'Hooker'
p2222
aS'Yamanasi'
p2223
aS'10'
p2224
aS'2'
aS'0'
aS'0'
aa(lp2225
S'Masanao Washiya'
p2226
aS'2000'
p2227
aS'No. 8'
p2228
aS'Nara'
p2229
aS'2'
aS'1'
aS'0'
aS'0'
aa(lp2230
S'Noboru Yasuda'
p2231
aS'2000'
p2232
aS'Hooker'
p2233
aS'Osaka'
p2234
aS'2'
aS'1'
aS'0'
aS'0'
aa(lp2235
S'Toshikazu Fumihara'
p2236
aS'2000'
p2237
aS'Prop'
p2238
aS'Osaka'
p2239
aS'1'
aS'0'
aS'0'
aS'0'
aa(lp2240
S'Reo Kawai'
p2241
aS'2000'
p2242
aS'Centre'
p2243
aS'1972'
p2244
aS'1'
aS'0'
aS'0'
aS'0'
aa(lp2245
S'Koichi Kubo'
p2246
aS'2000'
p2247
aS'Back-row'
p2248
aS'Saitama'
p2249
aS'20'
p2250
aS'8'
aS'3'
aS'15'
p2251
aa(lp2252
S'Soushi Fuchigami'
p2253
aS'2000'
p2254
aS'Fly-half'
p2255
aS'Fukuoka'
p2256
aS'5'
aS'2'
aS'3'
aS'22'
p2257
aa(lp2258
S'Nataniela Oto'
p2259
aS'2001'
p2260
aS'Flanker'
p2261
aS'1978'
p2262
aS'12'
p2263
aS'4'
aS'4'
aS'20'
p2264
aa(lp2265
S'Kenichi Takayanagi'
p2266
aS'2001'
p2267
aS'Prop'
p2268
aS'Osaka'
p2269
aS'1'
aS'1'
aS'0'
aS'0'
aa(lp2270
S'Yutaka Tsujimoto'
p2271
aS'2001'
p2272
aS'Hooker'
p2273
aS'Osaka'
p2274
aS'1'
aS'1'
aS'0'
aS'0'
aa(lp2275
S'Shinichi Tsukita'
p2276
aS'2001'
p2277
aS'Scrum-half'
p2278
aS'Fukuoka'
p2279
aS'9'
aS'5'
aS'0'
aS'9'
aa(lp2280
S'Lautangi Vatuvei'
p2281
aS'2001'
p2282
aS'Lock'
p2283
aS'1977'
p2284
aS'23'
p2285
aS'11'
p2286
aS'9'
aS'45'
p2287
aa(lp2288
S'Masahito Yamamoto'
p2289
aS'2001'
p2290
aS'Prop'
p2291
aS'Aichi'
p2292
aS'26'
p2293
aS'8'
aS'1'
aS'5'
aa(lp2294
S'Akihito Kato'
p2295
aS'2001'
p2296
aS'Hooker'
p2297
aS'Akita'
p2298
aS'3'
aS'2'
aS'0'
aS'0'
aa(lp2299
S'Hajime Kiso'
p2300
aS'2001'
p2301
aS'Lock, Back-row'
p2302
aS'Osaka'
p2303
aS'32'
p2304
aS'12'
p2305
aS'0'
aS'0'
aa(lp2306
S'Kazunaka Motoyoshi'
p2307
aS'2001'
p2308
aS'Prop'
p2309
aS'Kanagawa'
p2310
aS'1'
aS'1'
aS'0'
aS'0'
aa(lp2311
S'Yuya Saito'
p2312
aS'2001'
p2313
aS'No. 8'
p2314
aS'Tokyo'
p2315
aS'14'
p2316
aS'7'
aS'4'
aS'20'
p2317
aa(lp2318
S'Eiji Yamamoto'
p2319
aS'2001'
p2320
aS'No. 8'
p2321
aS'Fukuoka'
p2322
aS'3'
aS'0'
aS'0'
aS'0'
aa(lp2323
S'Hirotoki Onozawa'
p2324
aS'2001'
p2325
aS'Wing'
p2326
aS'Shizuoka'
p2327
aS'81'
p2328
aS'41'
p2329
aS'55'
p2330
aS'275'
p2331
aa(lp2332
S'Jun Akune'
p2333
aS'2001'
p2334
aS'Lock'
p2335
aS'1977'
p2336
aS'2'
aS'1'
aS'0'
aS'0'
aa(lp2337
S'Ryo Yamamura'
p2338
aS'2001'
p2339
aS'Prop'
p2340
aS'Saga'
p2341
aS'40'
p2342
aS'14'
p2343
aS'1'
aS'5'
aa(lp2344
S'Hideyuki Yoshida'
p2345
aS'2001'
p2346
aS'Fly-half, Fullback'
p2347
aS'Gunma'
p2348
aS'16'
p2349
aS'7'
aS'1'
aS'5'
aa(lp2350
S'Yuichi Hisadomi'
p2351
aS'2002'
p2352
aS'Prop'
p2353
aS'Saga'
p2354
aS'21'
p2355
aS'9'
aS'1'
aS'5'
aa(lp2356
S'Andy Miller'
p2357
aS'2002'
p2358
aS'Fly-half'
p2359
aS'Te Puke'
p2360
aS'10'
p2361
aS'6'
aS'6'
aS'70'
p2362
aa(lp2363
S'Takuro Miuchi'
p2364
aS'2002'
p2365
aS'Back-row'
p2366
aS'Fukuoka'
p2367
aS'48'
p2368
aS'20'
p2369
aS'7'
aS'35'
p2370
aa(lp2371
S'Adam Parker'
p2372
aS'2002'
p2373
aS'Lock'
p2374
aS'Christchurch'
p2375
aS'18'
p2376
aS'6'
aS'2'
aS'10'
p2377
aa(lp2378
S'Dean Anglesey'
p2379
aS'2002'
p2380
aS'Flanker'
p2381
aS'1969'
p2382
aS'3'
aS'2'
aS'2'
aS'10'
p2383
aa(lp2384
S'Tsuyoshi Kinoshita'
p2385
aS'2002'
p2386
aS'Lock'
p2387
aS'Hyogo'
p2388
aS'2'
aS'0'
aS'1'
aS'5'
aa(lp2389
S'Takashi Yoshida'
p2390
aS'2002'
p2391
aS'Fullback, Wing'
p2392
aS'Nagasaki'
p2393
aS'4'
aS'1'
aS'3'
aS'15'
p2394
aa(lp2395
S'Masahiro Shichinohe'
p2396
aS'2002'
p2397
aS'Hooker'
p2398
aS'Iwate'
p2399
aS'2'
aS'1'
aS'0'
aS'0'
aa(lp2400
S'Takamasa Sawaguchi'
p2401
aS'2002'
p2402
aS'Lock'
p2403
aS'Ibaraki'
p2404
aS'1'
aS'0'
aS'0'
aS'0'
aa(lp2405
S'Tetsuya Watanabe'
p2406
aS'2002'
p2407
aS'Centre'
p2408
aS'Saitama'
p2409
aS'1'
aS'0'
aS'1'
aS'5'
aa(lp2410
S'Dai Katsuno'
p2411
aS'2002'
p2412
aS'Centre'
p2413
aS'Nagano'
p2414
aS'1'
aS'0'
aS'0'
aS'0'
aa(lp2415
S'Kenji Shomen'
p2416
aS'2002'
p2417
aS'Fullback, Fly-half'
p2418
aS'Osaka'
p2419
aS'2'
aS'1'
aS'0'
aS'0'
aa(lp2420
S'Ken Tsukagoshi'
p2421
aS'2002'
p2422
aS'Hooker'
p2423
aS'Saitama'
p2424
aS'9'
aS'3'
aS'0'
aS'0'
aa(lp2425
S'George Konia'
p2426
aS'2003'
p2427
aS'Centre'
p2428
aS'Putaruru'
p2429
aS'6'
aS'0'
aS'2'
aS'10'
p2430
aa(lp2431
S'Yohei Shinomiya'
p2432
aS'2003'
p2433
aS'Wing'
p2434
aS'Kanagawa'
p2435
aS'3'
aS'1'
aS'2'
aS'10'
p2436
aa(lp2437
S'Reuben Parkinson'
p2438
aS'2003'
p2439
aS'Centre'
p2440
aS'Opotiki'
p2441
aS'10'
p2442
aS'1'
aS'0'
aS'0'
aa(lp2443
S'Ryota Asano Inose'
p2444
aS'2003'
p2445
aS'Flanker'
p2446
aS'Chiba'
p2447
aS'22'
p2448
aS'10'
p2449
aS'0'
aS'0'
aa(lp2450
S'Hiroki Matsuo'
p2451
aS'2003'
p2452
aS'Hooker'
p2453
aS'Fukuoka'
p2454
aS'5'
aS'1'
aS'0'
aS'0'
aa(lp2455
S'Takashi Tsuji'
p2456
aS'2003'
p2457
aS'Scrum-half'
p2458
aS'Ibaraki'
p2459
aS'7'
aS'3'
aS'0'
aS'0'
aa(lp2460
S'Hiroaki Ito'
p2461
aS'2004'
p2462
aS'Fly-half'
p2463
aS'Tokyo'
p2464
aS'2'
aS'1'
aS'0'
aS'4'
aa(lp2465
S'Takanori Kumagae'
p2466
aS'2004'
p2467
aS'Lock'
p2468
aS'Fukuoka'
p2469
aS'26'
p2470
aS'9'
aS'1'
aS'5'
aa(lp2471
S'Yuji Matsubara'
p2472
aS'2004'
p2473
aS'Hooker'
p2474
aS'Osaka'
p2475
aS'23'
p2476
aS'9'
aS'2'
aS'10'
p2477
aa(lp2478
S'Masatoshi Mukoyama'
p2479
aS'2004'
p2480
aS'Centre'
p2481
aS'Kumamoto'
p2482
aS'6'
aS'1'
aS'2'
aS'10'
p2483
aa(lp2484
S'Koichi Ohigashi'
p2485
aS'2004'
p2486
aS'Fullback'
p2487
aS'Osaka'
p2488
aS'7'
aS'4'
aS'3'
aS'15'
p2489
aa(lp2490
S'Wataru Ikeda'
p2491
aS'2004'
p2492
aS'Scrum-half'
p2493
aS'Miyagi'
p2494
aS'14'
p2495
aS'5'
aS'1'
aS'61'
p2496
aa(lp2497
S'Hitoshi Ono'
p2498
aS'2004'
p2499
aS'Lock'
p2500
aS'Fukushima'
p2501
aS'87'
p2502
aS'54'
p2503
aS'13'
p2504
aS'65'
p2505
aa(lp2506
S'Feletikiki Mau'
p2507
aS'2004'
p2508
aS'Flanker'
p2509
aS'1977'
p2510
aS'6'
aS'2'
aS'0'
aS'0'
aa(lp2511
S'Kyohei Morita'
p2512
aS'2004'
p2513
aS'Fullback, Fly-half'
p2514
aS'Osaka'
p2515
aS'8'
aS'3'
aS'0'
aS'72'
p2516
aa(lp2517
S'Mitsugu Yamamoto'
p2518
aS'2004'
p2519
aS'Hooker'
p2520
aS'Okayama'
p2521
aS'10'
p2522
aS'5'
aS'3'
aS'15'
p2523
aa(lp2524
S'Kosuke Endo'
p2525
aS'2004'
p2526
aS'Fullback, Wing'
p2527
aS'Hokkaido'
p2528
aS'41'
p2529
aS'19'
p2530
aS'18'
p2531
aS'90'
p2532
aa(lp2533
S'Keiji Takei'
p2534
aS'2004'
p2535
aS'Fullback'
p2536
aS'Kanagawa'
p2537
aS'6'
aS'3'
aS'5'
aS'25'
p2538
aa(lp2539
S'Takashi Yamaoka'
p2540
aS'2004'
p2541
aS'Hooker'
p2542
aS'Yamagata'
p2543
aS'13'
p2544
aS'4'
aS'0'
aS'0'
aa(lp2545
S'Hayato Daimon'
p2546
aS'2004'
p2547
aS'Fullback'
p2548
aS'Hokkaido'
p2549
aS'2'
aS'0'
aS'1'
aS'5'
aa(lp2550
S'Koichiro Kubota'
p2551
aS'2004'
p2552
aS'Wing'
p2553
aS'Yamanasi'
p2554
aS'3'
aS'0'
aS'0'
aS'0'
aa(lp2555
S'Seiichi Shimonura'
p2556
aS'2004'
p2557
aS'Centre'
p2558
aS'Gunma'
p2559
aS'6'
aS'4'
aS'0'
aS'5'
aa(lp2560
S'Kiyonori Tanaka'
p2561
aS'2004'
p2562
aS'Scrum-half'
p2563
aS'Hyogo'
p2564
aS'3'
aS'0'
aS'0'
aS'0'
aa(lp2565
S'Takatoyo Yamaguchi'
p2566
aS'2004'
p2567
aS'Back-row'
p2568
aS'Iwate'
p2569
aS'3'
aS'0'
aS'0'
aS'0'
aa(lp2570
S'Hiroki Mizuno'
p2571
aS'2004'
p2572
aS'Fullback, Wing'
p2573
aS'Kyoto'
p2574
aS'12'
p2575
aS'5'
aS'2'
aS'10'
p2576
aa(lp2577
S'Tatsukichi Nishiura'
p2578
aS'2004'
p2579
aS'Prop'
p2580
aS'Fukuoka'
p2581
aS'17'
p2582
aS'7'
aS'1'
aS'5'
aa(lp2583
S'Tatsuhiko Otao'
p2584
aS'2004'
p2585
aS'Centre, Fly-half'
p2586
aS'Saga'
p2587
aS'7'
aS'5'
aS'0'
aS'0'
aa(lp2588
S'Christian Loamanu'
p2589
aS'2005'
p2590
aS'Centre, Wing'
p2591
aS'Tatakamotonga'
p2592
aS'16'
p2593
aS'4'
aS'5'
aS'25'
p2594
aa(lp2595
S'Hare Makiri'
p2596
aS'2005'
p2597
aS'Flanker, Lock'
p2598
aS'Thames'
p2599
aS'26'
p2600
aS'7'
aS'4'
aS'20'
p2601
aa(lp2602
S'Tomoaki Nakai'
p2603
aS'2005'
p2604
aS'Flanker'
p2605
aS'Kumamoto'
p2606
aS'12'
p2607
aS'5'
aS'0'
aS'0'
aa(lp2608
S'Hiroshi Takahashi'
p2609
aS'2005'
p2610
aS'Prop'
p2611
aS'Tokyo'
p2612
aS'5'
aS'1'
aS'0'
aS'0'
aa(lp2613
S'Jamie Washington'
p2614
aS'2005'
p2615
aS'Lock'
p2616
aS'1974'
p2617
aS'7'
aS'3'
aS'0'
aS'0'
aa(lp2618
S'Ayumu Goromaru'
p2619
aS'2005'
p2620
aS'Fullback'
p2621
aS'Fukuoka'
p2622
aS'46'
p2623
aS'32'
p2624
aS'16'
p2625
aS'570'
p2626
aa(lp2627
S'Shota Goto'
p2628
aS'2005'
p2629
aS'Scrum-half'
p2630
aS'Kanagawa'
p2631
aS'8'
aS'3'
aS'0'
aS'0'
aa(lp2632
S'Shigeyasu Takagi'
p2633
aS'2005'
p2634
aS'Prop, Flanker'
p2635
aS'Hyogo'
p2636
aS'5'
aS'2'
aS'1'
aS'5'
aa(lp2637
S'Masakazu Nakabayashi'
p2638
aS'2005'
p2639
aS'Hooker'
p2640
aS'Kyoto'
p2641
aS'4'
aS'3'
aS'0'
aS'0'
aa(lp2642
S'Katoni Otukolo'
p2643
aS'2005'
p2644
aS'Centre'
p2645
aS'1982'
p2646
aS'3'
aS'2'
aS'3'
aS'15'
p2647
aa(lp2648
S"Philip O'Reilly"
p2649
aS'2005'
p2650
aS'Flanker'
p2651
aS'1980'
p2652
aS'11'
p2653
aS'6'
aS'7'
aS'35'
p2654
aa(lp2655
S'Teppei Tomioka'
p2656
aS'2005'
p2657
aS'Centre'
p2658
aS'Fukuoka'
p2659
aS'2'
aS'0'
aS'0'
aS'0'
aa(lp2660
S'Jumpei Enomoto'
p2661
aS'2005'
p2662
aS'Centre'
p2663
aS'Tokyo'
p2664
aS'1'
aS'1'
aS'0'
aS'0'
aa(lp2665
S'Takashi Kikutani'
p2666
aS'2005'
p2667
aS'No. 8'
p2668
aS'Nara'
p2669
aS'68'
p2670
aS'41'
p2671
aS'32'
p2672
aS'160'
p2673
aa(lp2674
S'Toshizumi Kitagawa'
p2675
aS'2005'
p2676
aS'Lock'
p2677
aS'Kyoto'
p2678
aS'43'
p2679
aS'23'
p2680
aS'2'
aS'10'
p2681
aa(lp2682
S'Takashi Miyake'
p2683
aS'2005'
p2684
aS'Utility back'
p2685
aS'Kyoto'
p2686
aS'4'
aS'1'
aS'1'
aS'5'
aa(lp2687
S'Tsuyoshi Sato'
p2688
aS'2005'
p2689
aS'Lock'
p2690
aS'Saitama'
p2691
aS'9'
aS'5'
aS'1'
aS'5'
aa(lp2692
S'Tomokazu Soma'
p2693
aS'2005'
p2694
aS'Prop'
p2695
aS'Kanagawa'
p2696
aS'24'
p2697
aS'10'
p2698
aS'1'
aS'5'
aa(lp2699
S'Eiji Ando'
p2700
aS'2006'
p2701
aS'Fly-half'
p2702
aS'Saitama'
p2703
aS'13'
p2704
aS'5'
aS'0'
aS'55'
p2705
aa(lp2706
S'Yuta Imamura'
p2707
aS'2006'
p2708
aS'Wing, Centre'
p2709
aS'Mie'
p2710
aS'39'
p2711
aS'20'
p2712
aS'16'
p2713
aS'80'
p2714
aa(lp2715
S'Yuki Yatomi'
p2716
aS'2006'
p2717
aS'Scrum-half'
p2718
aS'Kyoto'
p2719
aS'15'
p2720
aS'7'
aS'2'
aS'10'
p2721
aa(lp2722
S'Atsushi Moriya'
p2723
aS'2006'
p2724
aS'Centre'
p2725
aS'Kyoto'
p2726
aS'7'
aS'2'
aS'0'
aS'0'
aa(lp2727
S'Tomoaki Taniguchi'
p2728
aS'2006'
p2729
aS'Lock'
p2730
aS'Hyogo'
p2731
aS'12'
p2732
aS'5'
aS'2'
aS'10'
p2733
aa(lp2734
S'Go Aruga'
p2735
aS'2006'
p2736
aS'Fullback, Centre'
p2737
aS'Yamanasi'
p2738
aS'18'
p2739
aS'12'
p2740
aS'9'
aS'67'
p2741
aa(lp2742
S'Tomoki Kitagawa'
p2743
aS'2006'
p2744
aS'Wing'
p2745
aS'Kyoto'
p2746
aS'3'
aS'2'
aS'2'
aS'10'
p2747
aa(lp2748
S'James Arlidge'
p2749
aS'2007'
p2750
aS'Fly-half'
p2751
aS'Hamilton'
p2752
aS'32'
p2753
aS'19'
p2754
aS'8'
aS'286'
p2755
aa(lp2756
S'Bryce Robins'
p2757
aS'2007'
p2758
aS'Centre, Fly-half'
p2759
aS'New Plymouth'
p2760
aS'25'
p2761
aS'11'
p2762
aS'14'
p2763
aS'72'
p2764
aa(lp2765
S'Koji Taira'
p2766
aS'2007'
p2767
aS'Centre'
p2768
aS'Nagasaki'
p2769
aS'32'
p2770
aS'16'
p2771
aS'12'
p2772
aS'60'
p2773
aa(lp2774
S'Tomoki Yoshida'
p2775
aS'2007'
p2776
aS'Scrum-half'
p2777
aS'Kyoto'
p2778
aS'25'
p2779
aS'13'
p2780
aS'2'
aS'10'
p2781
aa(lp2782
S'Yusuke Aoki'
p2783
aS'2007'
p2784
aS'Hooker'
p2785
aS'Tokyo'
p2786
aS'30'
p2787
aS'16'
p2788
aS'3'
aS'15'
p2789
aa(lp2790
S'Yuji Kitagawa'
p2791
aS'2007'
p2792
aS'Lock'
p2793
aS'Osaka'
p2794
aS'6'
aS'4'
aS'0'
aS'0'
aa(lp2795
S'Kosei Ono'
p2796
aS'2007'
p2797
aS'Fly-half, Centre'
p2798
aS'Aichi'
p2799
aS'24'
p2800
aS'13'
p2801
aS'4'
aS'33'
p2802
aa(lp2803
S'Toshiaki Hirose'
p2804
aS'2007'
p2805
aS'Wing, Fly-half'
p2806
aS'Osaka'
p2807
aS'26'
p2808
aS'20'
p2809
aS'11'
p2810
aS'55'
p2811
aa(lp2812
S'Takamichi Sasaki'
p2813
aS'2007'
p2814
aS'Flanker'
p2815
aS'Osaka'
p2816
aS'13'
p2817
aS'6'
aS'4'
aS'20'
p2818
aa(lp2819
S'Luke Thompson'
p2820
aS'2007'
p2821
aS'Flanker, Lock'
p2822
aS'Christchurch'
p2823
aS'52'
p2824
aS'31'
p2825
aS'9'
aS'45'
p2826
aa(lp2827
S'Taku Inokuchi'
p2828
aS'2007'
p2829
aS'Front-row'
p2830
aS'Tokyo'
p2831
aS'7'
aS'3'
aS'1'
aS'5'
aa(lp2832
S'Takahiro Sugiura'
p2833
aS'2007'
p2834
aS'Prop'
p2835
aS'Aichi'
p2836
aS'1'
aS'1'
aS'0'
aS'0'
aa(lp2837
S'Glen Marsh'
p2838
aS'2007'
p2839
aS'Flanker'
p2840
aS'Rotorua'
p2841
aS'3'
aS'0'
aS'0'
aS'0'
aa(lp2842
S'Tatsuya Kusumi'
p2843
aS'2007'
p2844
aS'Wing, Fullback'
p2845
aS'Osaka'
p2846
aS'3'
aS'1'
aS'2'
aS'10'
p2847
aa(lp2848
S'Chul-Won Kim'
p2849
aS'2007'
p2850
aS'Scrum-half'
p2851
aS'Seoul'
p2852
aS'2'
aS'0'
aS'0'
aS'0'
aa(lp2853
S'Ryan Nicholas'
p2854
aS'2008'
p2855
aS'Centre, Fly-half'
p2856
aS'Broken Hill'
p2857
aS'38'
p2858
aS'22'
p2859
aS'9'
aS'193'
p2860
aa(lp2861
S'Koji Shinozuka'
p2862
aS'2008'
p2863
aS'Lock, Flanker'
p2864
aS'Saitama'
p2865
aS'6'
aS'5'
aS'2'
aS'10'
p2866
aa(lp2867
S'Hiroki Yoshida'
p2868
aS'2008'
p2869
aS'Fullback, Wing'
p2870
aS'Fukushima'
p2871
aS'7'
aS'6'
aS'5'
aS'43'
p2872
aa(lp2873
S'Yoshitaka Nakayama'
p2874
aS'2008'
p2875
aS'Flanker'
p2876
aS'Fukuoka'
p2877
aS'11'
p2878
aS'9'
aS'3'
aS'15'
p2879
aa(lp2880
S'Akira Ozaki'
p2881
aS'2008'
p2882
aS'Prop'
p2883
aS'Nagasaki'
p2884
aS'3'
aS'3'
aS'1'
aS'5'
aa(lp2885
S'Takashi Sato'
p2886
aS'2008'
p2887
aS'Scrum-half'
p2888
aS'Osaka'
p2889
aS'4'
aS'4'
aS'0'
aS'0'
aa(lp2890
S'Yosuke Ikegaya'
p2891
aS'2008'
p2892
aS'Prop'
p2893
aS'Hiroshima'
p2894
aS'3'
aS'2'
aS'0'
aS'0'
aa(lp2895
S'Yuta Inose'
p2896
aS'2008'
p2897
aS'Prop'
p2898
aS'Ibaraki'
p2899
aS'6'
aS'3'
aS'0'
aS'0'
aa(lp2900
S'Taira Sato'
p2901
aS'2008'
p2902
aS'Lock'
p2903
aS'Akita'
p2904
aS'3'
aS'3'
aS'1'
aS'5'
aa(lp2905
S'Fumiaki Tanaka'
p2906
aS'2008'
p2907
aS'Scrum-half'
p2908
aS'Kyoto'
p2909
aS'44'
p2910
aS'29'
p2911
aS'8'
aS'40'
p2912
aa(lp2913
S'Shaun Webb'
p2914
aS'2008'
p2915
aS'Fly-half'
p2916
aS'Driffield'
p2917
aS'35'
p2918
aS'23'
p2919
aS'18'
p2920
aS'198'
p2921
aa(lp2922
S'Koliniashi Holani'
p2923
aS'2008'
p2924
aS'Lock, Back-row'
p2925
aS"Nuku'alofa"
p2926
aS'38'
p2927
aS'27'
p2928
aS'22'
p2929
aS'110'
p2930
aa(lp2931
S'Naonori Mizuyama'
p2932
aS'2008'
p2933
aS'Hooker'
p2934
aS'Hyogo'
p2935
aS'4'
aS'2'
aS'0'
aS'0'
aa(lp2936
S'Kensuke Hatakeyama'
p2937
aS'2008'
p2938
aS'Prop'
p2939
aS'Miyagi'
p2940
aS'62'
p2941
aS'44'
p2942
aS'10'
p2943
aS'50'
p2944
aa(lp2945
S'Hisateru Hirashima'
p2946
aS'2008'
p2947
aS'Prop'
p2948
aS'Kyoto'
p2949
aS'37'
p2950
aS'27'
p2951
aS'0'
aS'0'
aa(lp2952
S'Kaoru Matsushita'
p2953
aS'2008'
p2954
aS'Fullback, Wing'
p2955
aS'Hyogo'
p2956
aS'7'
aS'6'
aS'3'
aS'17'
p2957
aa(lp2958
S'Koji Tomioka'
p2959
aS'2008'
p2960
aS'Wing, Fullback'
p2961
aS'Osaka'
p2962
aS'6'
aS'4'
aS'1'
aS'5'
aa(lp2963
S'Michael Leitch'
p2964
aS'2008'
p2965
aS'Flanker'
p2966
aS'Burwood'
p2967
aS'38'
p2968
aS'28'
p2969
aS'11'
p2970
aS'55'
p2971
aa(lp2972
S'Masakazu Irie'
p2973
aS'2008'
p2974
aS'Centre, Fly-half'
p2975
aS'Fukuoka'
p2976
aS'1'
aS'1'
aS'0'
aS'0'
aa(lp2977
S'Naoki Kawamata'
p2978
aS'2008'
p2979
aS'Prop'
p2980
aS'Tokyo'
p2981
aS'18'
p2982
aS'15'
p2983
aS'1'
aS'5'
aa(lp2984
S'Piei Mafileo'
p2985
aS'2008'
p2986
aS'Fullback'
p2987
aS'1986'
p2988
aS'1'
aS'1'
aS'0'
aS'0'
aa(lp2989
S'Masato Toyoda'
p2990
aS'2008'
p2991
aS'Lock, No. 8'
p2992
aS'Kyoto'
p2993
aS'1'
aS'1'
aS'0'
aS'0'
aa(lp2994
S'Toetuu Taufa'
p2995
aS'2009'
p2996
aS'Back-row'
p2997
aS"Nuku'alofa"
p2998
aS'22'
p2999
aS'16'
p3000
aS'2'
aS'10'
p3001
aa(lp3002
S'Hiroshi Yamashita'
p3003
aS'2009'
p3004
aS'Prop'
p3005
aS'Osaka'
p3006
aS'39'
p3007
aS'28'
p3008
aS'0'
aS'0'
aa(lp3009
S'Tateo Kanai'
p3010
aS'2009'
p3011
aS'Hooker, Prop'
p3012
aS'Gunma'
p3013
aS'5'
aS'3'
aS'0'
aS'0'
aa(lp3014
S'Shinsuke Nakamura'
p3015
aS'2009'
p3016
aS'Prop'
p3017
aS'Hyogo'
p3018
aS'6'
aS'5'
aS'0'
aS'0'
aa(lp3019
S'Jack Tarrant'
p3020
aS'2009'
p3021
aS'Centre'
p3022
aS'1980'
p3023
aS'7'
aS'4'
aS'7'
aS'35'
p3024
aa(lp3025
S'Yoshimitsu Yasue'
p3026
aS'2009'
p3027
aS'Prop, Hooker'
p3028
aS'Tokyo'
p3029
aS'2'
aS'2'
aS'0'
aS'0'
aa(lp3030
S'Masakazu Toyota'
p3031
aS'2009'
p3032
aS'Back-row'
p3033
aS'Fukuoka'
p3034
aS'9'
aS'6'
aS'1'
aS'5'
aa(lp3035
S'Shota Horie'
p3036
aS'2009'
p3037
aS'Hooker'
p3038
aS'Osaka'
p3039
aS'32'
p3040
aS'23'
p3041
aS'6'
aS'30'
p3042
aa(lp3043
S'Daniel Quate'
p3044
aS'2009'
p3045
aS'Lock, Flanker'
p3046
aS'Napier'
p3047
aS'1'
aS'1'
aS'0'
aS'0'
aa(lp3048
S'Alisi Tupuailei'
p3049
aS'2009'
p3050
aS'Centre'
p3051
aS'Western Samoa'
p3052
aS'20'
p3053
aS'13'
p3054
aS'20'
p3055
aS'100'
p3056
aa(lp3057
S'Takeshi Kizu'
p3058
aS'2009'
p3059
aS'Hooker'
p3060
aS'Osaka'
p3061
aS'33'
p3062
aS'25'
p3063
aS'12'
p3064
aS'60'
p3065
aa(lp3066
S'Shinya Makabe'
p3067
aS'2009'
p3068
aS'Flanker, Lock'
p3069
aS'Miyagi'
p3070
aS'29'
p3071
aS'23'
p3072
aS'4'
aS'20'
p3073
aa(lp3074
S'Yasunori Nagatomo'
p3075
aS'2010'
p3076
aS'Wing'
p3077
aS'Miyazaki'
p3078
aS'9'
aS'7'
aS'4'
aS'20'
p3079
aa(lp3080
S'Sione Vatuvei'
p3081
aS'2010'
p3082
aS'Back-row'
p3083
aS"Nuku'alofa"
p3084
aS'8'
aS'5'
aS'2'
aS'10'
p3085
aa(lp3086
S'Nozomu Fujita'
p3087
aS'2010'
p3088
aS'Prop'
p3089
aS'Saitama'
p3090
aS'14'
p3091
aS'9'
aS'0'
aS'0'
aa(lp3092
S'Hiroki Yuhara'
p3093
aS'2010'
p3094
aS'Hooker'
p3095
aS'Chiba'
p3096
aS'20'
p3097
aS'17'
p3098
aS'3'
aS'15'
p3099
aa(lp3100
S'Ryo Kanazawa'
p3101
aS'2010'
p3102
aS'Centre'
p3103
aS'Osaka'
p3104
aS'3'
aS'3'
aS'1'
aS'5'
aa(lp3105
S'Koji Wada'
p3106
aS'2010'
p3107
aS'Wing, Scrum-half'
p3108
aS'Fukuoka'
p3109
aS'5'
aS'4'
aS'2'
aS'10'
p3110
aa(lp3111
S'Ryohei Yamanaka'
p3112
aS'2010'
p3113
aS'Centre, Fly-half'
p3114
aS'Osaka'
p3115
aS'3'
aS'3'
aS'0'
aS'0'
aa(lp3116
S'Atsushi Tanabe'
p3117
aS'2010'
p3118
aS'Fullback, Centre'
p3119
aS'Nara'
p3120
aS'3'
aS'3'
aS'2'
aS'52'
p3121
aa(lp3122
S'Itaru Taniguchi'
p3123
aS'2010'
p3124
aS'Back-row'
p3125
aS'Ibaraki'
p3126
aS'10'
p3127
aS'6'
aS'0'
aS'0'
aa(lp3128
S'Atsushi Hiwasa'
p3129
aS'2011'
p3130
aS'Scrum-half'
p3131
aS'Hyogo'
p3132
aS'41'
p3133
aS'27'
p3134
aS'1'
aS'5'
aa(lp3135
S'Justin Ives'
p3136
aS'2011'
p3137
aS'Flanker, Lock'
p3138
aS'Mosiel'
p3139
aS'26'
p3140
aS'24'
p3141
aS'5'
aS'25'
p3142
aa(lp3143
S'Taihei Ueda'
p3144
aS'2011'
p3145
aS'Fullback, Wing'
p3146
aS'Fukuoka'
p3147
aS'6'
aS'5'
aS'1'
aS'5'
aa(lp3148
S'Takehisa Usuzuki'
p3149
aS'2011'
p3150
aS'Wing, Fullback'
p3151
aS'Osaka'
p3152
aS'7'
aS'4'
aS'8'
aS'40'
p3153
aa(lp3154
S'Ryuta Ueno'
p3155
aS'2011'
p3156
aS'Hooker'
p3157
aS'Kyoto'
p3158
aS'1'
aS'1'
aS'0'
aS'0'
aa(lp3159
S'Tadasuke Nishihara'
p3160
aS'2011'
p3161
aS'Flanker'
p3162
aS'Osaka'
p3163
aS'3'
aS'1'
aS'0'
aS'0'
aa(lp3164
S'Murray Williams'
p3165
aS'2011'
p3166
aS'Fly-half'
p3167
aS'Auckland'
p3168
aS'6'
aS'2'
aS'0'
aS'2'
aa(lp3169
S'Ryuhei Arita'
p3170
aS'2012'
p3171
aS'Hooker'
p3172
aS'Fukuoka'
p3173
aS'8'
aS'5'
aS'1'
aS'5'
aa(lp3174
S'Jun Fujii'
p3175
aS'2012'
p3176
aS'Scrum-half'
p3177
aS'Aichi'
p3178
aS'6'
aS'4'
aS'1'
aS'5'
aa(lp3179
S'Shoji Ito'
p3180
aS'2012'
p3181
aS'Flanker, Lock'
p3182
aS'Hyogo'
p3183
aS'31'
p3184
aS'23'
p3185
aS'1'
aS'5'
aa(lp3186
S'Yuusuke Nagae'
p3187
aS'2012'
p3188
aS'Prop'
p3189
aS'Gifu'
p3190
aS'18'
p3191
aS'12'
p3192
aS'1'
aS'5'
aa(lp3193
S'Tomohiro Senba'
p3194
aS'2012'
p3195
aS'Wing, Centre'
p3196
aS'Shiga'
p3197
aS'9'
aS'6'
aS'2'
aS'10'
p3198
aa(lp3199
S'Yuu Tamura'
p3200
aS'2012'
p3201
aS'Centre, Fly-half'
p3202
aS'Aichi'
p3203
aS'29'
p3204
aS'23'
p3205
aS'5'
aS'33'
p3206
aa(lp3207
S'Yuta Mochizuki'
p3208
aS'2012'
p3209
aS'Lock, Flanker'
p3210
aS'Kanagawa'
p3211
aS'7'
aS'4'
aS'2'
aS'10'
p3212
aa(lp3213
S'Harumichi Tatekawa'
p3214
aS'2012'
p3215
aS'Centre, Fly-half'
p3216
aS'Nara'
p3217
aS'31'
p3218
aS'23'
p3219
aS'7'
aS'51'
p3220
aa(lp3221
S'Hidetatsu Tsuboi'
p3222
aS'2012'
p3223
aS'Prop'
p3224
aS'1989'
p3225
aS'2'
aS'2'
aS'0'
aS'0'
aa(lp3226
S'Keisuke Uchida'
p3227
aS'2012'
p3228
aS'Scrum-half'
p3229
aS'1992'
p3230
aS'10'
p3231
aS'9'
aS'2'
aS'10'
p3232
aa(lp3233
S'Yoshikazu Fujita'
p3234
aS'2012'
p3235
aS'Wing'
p3236
aS'Kyoto'
p3237
aS'21'
p3238
aS'17'
p3239
aS'24'
p3240
aS'120'
p3241
aa(lp3242
S'Daiki Hashimoto'
p3243
aS'2012'
p3244
aS'Flanker'
p3245
aS'Fukuoka'
p3246
aS'1'
aS'1'
aS'0'
aS'0'
aa(lp3247
S'Yusaku Kuwazuru'
p3248
aS'2012'
p3249
aS'Lock, Flanker'
p3250
aS'Kagoshima'
p3251
aS'3'
aS'3'
aS'2'
aS'10'
p3252
aa(lp3253
S'Kaito Morikawa'
p3254
aS'2012'
p3255
aS'Centre'
p3256
aS'Chiba'
p3257
aS'1'
aS'1'
aS'1'
aS'5'
aa(lp3258
S'Hendrik Tui'
p3259
aS'2012'
p3260
aS'No. 8'
p3261
aS'Auckland'
p3262
aS'27'
p3263
aS'19'
p3264
aS'11'
p3265
aS'55'
p3266
aa(lp3267
S'Michael Broadhurst'
p3268
aS'2012'
p3269
aS'No. 8'
p3270
aS'1986'
p3271
aS'16'
p3272
aS'11'
p3273
aS'6'
aS'30'
p3274
aa(lp3275
S'Masataka Mikami'
p3276
aS'2013'
p3277
aS'Prop'
p3278
aS'Aomori'
p3279
aS'26'
p3280
aS'20'
p3281
aS'1'
aS'5'
aa(lp3282
S"Male Sa'u"
p3283
aS'2013'
p3284
aS'Centre, Fly-half'
p3285
aS'1987'
p3286
aS'20'
p3287
aS'14'
p3288
aS'8'
aS'40'
p3289
aa(lp3290
S'Takuma Asahara'
p3291
aS'2013'
p3292
aS'Prop'
p3293
aS'Yamanasi'
p3294
aS'5'
aS'4'
aS'2'
aS'10'
p3295
aa(lp3296
S'Kenki Fukuoka'
p3297
aS'2013'
p3298
aS'Wing'
p3299
aS'1992'
p3300
aS'12'
p3301
aS'7'
aS'10'
p3302
aS'50'
p3303
aa(lp3304
S'Craig Wing'
p3305
aS'2013'
p3306
aS'Fly-half, Centre'
p3307
aS'NSW'
p3308
aS'7'
aS'3'
aS'1'
aS'5'
aa(lp3309
S'Ryoto Nakamura'
p3310
aS'2013'
p3311
aS'Centre, Fly-half'
p3312
aS'Japan'
p3313
aS'4'
aS'4'
aS'0'
aS'4'
aa(lp3314
S'Ryuta Yasui'
p3315
aS'2013'
p3316
aS'Lock, Flanker'
p3317
aS'Kyoto'
p3318
aS'2'
aS'1'
aS'1'
aS'5'
aa(lp3319
S'Akihito Yamada'
p3320
aS'2013'
p3321
aS'Wing'
p3322
aS'Fukuoka'
p3323
aS'11'
p3324
aS'11'
p3325
aS'10'
p3326
aS'50'
p3327
aa(lp3328
S'Hayden Hopgood'
p3329
aS'2014'
p3330
aS'Lock, Flanker'
p3331
aS'Christchurch'
p3332
aS'6'
aS'5'
aS'4'
aS'20'
p3333
aa(lp3334
S'Kotaro Matsushima'
p3335
aS'2014'
p3336
aS'Utility back'
p3337
aS'1993'
p3338
aS'6'
aS'5'
aS'4'
aS'20'
p3339
aa(lp3340
S'Daishi Murata'
p3341
aS'2014'
p3342
aS'Wing, Centre'
p3343
aS'Nagasaki'
p3344
aS'2'
aS'2'
aS'1'
aS'5'
aa(lp3345
S'Yasuki Hayashi'
p3346
aS'2014'
p3347
aS'Centre, Fly-half'
p3348
aS'Osaka'
p3349
aS'3'
aS'3'
aS'1'
aS'5'
aa(lp3350
S'Kyosuke Horie'
p3351
aS'2014'
p3352
aS'Back-row'
p3353
aS'Tokyo'
p3354
aS'2'
aS'2'
aS'2'
aS'10'
p3355
aa(lp3356
S'Karne Hesketh'
p3357
aS'2014'
p3358
aS'Wing, Centre'
p3359
aS'1985'
p3360
aS'5'
aS'4'
aS'6'
aS'30'
p3361
aa(lp3362
S'Amanaki Mafi'
p3363
aS'2014'
p3364
aS'No. 8'
p3365
aS'1990'
p3366
aS'2'
aS'1'
aS'0'
aS'0'
aa(lp3367
S'Keita Inagaki'
p3368
aS'2014'
p3369
aS'Prop'
p3370
aS'Niigata'
p3371
aS'2'
aS'1'
aS'0'
aS'0'
aa(lp3372
S'Shinnosuke Kakinaga'
p3373
aS'2014'
p3374
aS'Prop'
p3375
aS'Fukuoka'
p3376
aS'2'
aS'1'
aS'0'
aS'0'
aa(lp3377
S'Chihito Matsui'
p3378
aS'2015'
p3379
aS'Wing'
p3380
aS'1994'
p3381
aS'2'
aS'2'
aS'1'
aS'5'
aa(lp3382
S'Tsuyoshi Murata'
p3383
aS'2015'
p3384
aS'Flanker'
p3385
aS'Kanagawa'
p3386
aS'3'
aS'3'
aS'0'
aS'0'
aa(lp3387
S'Kazuhiko Usami'
p3388
aS'2015'
p3389
aS'Lock'
p3390
aS'1992'
p3391
aS'3'
aS'3'
aS'0'
aS'0'
aa.