(lp1
VCentre
p2
aVLock
p3
aVCentre
p4
aVScrum-half
p5
aVProp
p6
aVWing
p7
aVFly-half
p8
aVLock
p9
aVFlanker
p10
aVProp
p11
aVNo. 8
p12
aVFullback
p13
aVWing
p14
aVFlanker
p15
aVHooker
p16
aVWing
p17
aVNo. 8
p18
aVWing
p19
aVCentre
p20
aVProp
p21
aVFullback
p22
aVScrum-half
p23
aVHooker
p24
aVProp
p25
aVFly-half
p26
aVFlanker
p27
aVLock
p28
aVFlanker
p29
aVFly-half
p30
aVScrum-half
p31
aVFlanker
p32
aVLock
p33
aVHooker
p34
aVProp
p35
aVFlanker
p36
aVCentre
p37
aVWing
p38
aVCentre
p39
aVLock
p40
aVLock
p41
aVCentre
p42
aVScrum-half
p43
aVFlanker
p44
aVProp
p45
aVWing
p46
aVHooker
p47
aVFullback
p48
aVLock
p49
aVNo. 8
p50
aVWing
p51
aVProp
p52
aVScrum-half
p53
aVWing
p54
aVFlanker
p55
aVLock
p56
aVNo. 8
p57
aVScrum-half
p58
aVCentre
p59
aVWing
p60
aVHooker
p61
aVCentre
p62
aVProp
p63
aVFullback
p64
aVProp
p65
aVFly-half
p66
aVFlanker
p67
aVLock
p68
aVCentre
p69
aVFly-half
p70
aVProp
p71
aVLock
p72
aVScrum-half
p73
aVFlanker
p74
aVCentre
p75
aVNo. 8
p76
aVNo. 8
p77
aVFly-half
p78
aVProp
p79
aVHooker
p80
aVScrum-half
p81
aVWing
p82
aVLock
p83
aVFly-half
p84
aVFlanker
p85
aVScrum-half
p86
aVFly-half
p87
aVHooker
p88
aVWing
p89
aVLock
p90
aVWing
p91
aVProp
p92
aVLock
p93
aVCentre
p94
aVFlanker
p95
aVFly-half
p96
aVProp
p97
aVFlanker
p98
aVCentre
p99
aVLock
p100
aVScrum-half
p101
aVCentre
p102
aVWing
p103
aVProp
p104
aVScrum-half
p105
aVProp
p106
aVLock
p107
aVWing
p108
aVProp
p109
aVScrum-half
p110
aVCentre
p111
aVNo. 8
p112
aVFullback
p113
aVFlanker
p114
aVFlanker
p115
aVHooker
p116
aVLock
p117
aVNo. 8
p118
aVFullback
p119
aVHooker
p120
aVFly-half
p121
aVCentre
p122
aVFullback
p123
aVNo. 8
p124
aVProp
p125
aVFlanker
p126
aVNo. 8
p127
aVWing
p128
aVProp
p129
aVFly-half
p130
aVLock
p131
aVScrum-half
p132
aVHooker
p133
aVFlanker
p134
aVLock
p135
aVCentre
p136
aVNo. 8
p137
aVProp
p138
aVFly-half
p139
aVLock
p140
aVFlanker
p141
aVProp
p142
aVLock
p143
aVFullback
p144
aVProp
p145
aVScrum-half
p146
aVWing
p147
aVHooker
p148
aVFlanker
p149
aVCentre
p150
aVScrum-half
p151
aVFlanker
p152
aVFullback
p153
aVCentre
p154
aVFlanker
p155
aVProp
p156
aVHooker
p157
aVWing
p158
aVHooker
p159
aVFlanker
p160
aVFullback
p161
aVLock
p162
aVProp
p163
aVScrum-half
p164
aVLock
p165
aVProp
p166
aVFlanker
p167
aVLock
p168
aVFlanker
p169
aVNo. 8
p170
aVWing
p171
aVCentre
p172
aVProp
p173
aVHooker
p174
aVCentre
p175
aVProp
p176
aVProp
p177
aVCentre
p178
aVNo. 8
p179
aVProp
p180
aVLock
p181
aVWing
p182
aVHooker
p183
aVFullback
p184
aVFlanker
p185
aVProp
p186
aVFlanker
p187
aVScrum-half
p188
aVFullback
p189
aVFly-half
p190
aVWing
p191
aVFlanker
p192
aVProp
p193
aVCentre
p194
aVCentre
p195
aVCentre
p196
aVFly-half
p197
aVWing
p198
aVFly-half
p199
aVCentre, Fullback
p200
aVLock
p201
aVFlanker
p202
aVWing
p203
aVFlanker
p204
aVProp
p205
aVFly-half
p206
aVProp
p207
aVLock
p208
aVWing
p209
aVProp
p210
aVScrum-half
p211
aVFlanker
p212
aVHooker
p213
aVFlanker
p214
aVScrum-half
p215
aVWing
p216
aVCentre
p217
aVProp
p218
aVWing
p219
aVLock
p220
aVLock
p221
aVFlanker
p222
aVLock
p223
aVScrum-half
p224
aVLock
p225
aVScrum-half
p226
aVHooker
p227
aVFlanker
p228
aVLock
p229
aVProp
p230
aVCentre
p231
aVProp
p232
aVFullback
p233
aVWing
p234
aVCentre
p235
aVNo. 8
p236
aVNo. 8
p237
aVProp
p238
aVFlanker
p239
aVHooker
p240
aVFlanker
p241
aVFlanker
p242
aVFly-half
p243
aVProp, Lock
p244
aVWing
p245
aVScrum-half
p246
aVWing
p247
aV
aVProp
p248
aV
aVFly-half
p249
aVHooker
p250
aVProp
p251
aV
aVFly-half
p252
aVFlanker
p253
aVFly-half
p254
aV
aVLock
p255
aVCentre
p256
aVLock
p257
aVFlanker
p258
aVWing
p259
aVProp
p260
aVFlanker
p261
aVWing
p262
aVFullback
p263
aVProp
p264
aVUtility back
p265
aVFullback
p266
aVFullback
p267
aVFlanker
p268
aVCentre
p269
aVCentre
p270
aVWing
p271
aVFlanker
p272
aVLock
p273
aVFly-half
p274
aVProp
p275
aVNo. 8
p276
aVProp
p277
aVFullback
p278
aVLock
p279
aVLock
p280
aVFlanker
p281
aVHooker
p282
aVCentre
p283
aVScrum-half
p284
aVNo. 8
p285
aVScrum-half
p286
aVWing
p287
aVHooker
p288
aVFlanker
p289
aVScrum-half
p290
aVCentre
p291
aVProp
p292
aVFlanker
p293
aVWing
p294
aVWing
p295
aVProp
p296
aVFullback
p297
aV
aVFly-half
p298
aVFlanker
p299
aVFlanker
p300
aVProp
p301
aVLock
p302
aVWing
p303
aVProp
p304
aVFullback
p305
aVScrum-half
p306
aVHooker
p307
aVFullback
p308
aVCentre
p309
aV
aVScrum-half
p310
aVCentre
p311
aV
aVWing
p312
aVFlanker
p313
aVFlanker
p314
aVNo. 8
p315
aVFullback, Wing
p316
aVWing
p317
aVFly-half
p318
aVCentre
p319
aVFlanker
p320
aVLock
p321
aVCentre
p322
aVScrum-half
p323
aVWing
p324
aVLock
p325
aVScrum-half
p326
aVProp
p327
aVFly-half
p328
aVCentre
p329
aVLock
p330
aV
aVFlanker
p331
aVCentre
p332
aVLock
p333
aVBack-row
p334
aVCentre
p335
aVProp, Hooker
p336
aVWing
p337
aVLock, Flanker
p338
aV
aVFlanker
p339
aV
aVHooker
p340
aVCentre
p341
aVWing
p342
aVProp
p343
aVLock
p344
aVLock
p345
aVNo. 8
p346
aVFly-half
p347
aVProp
p348
aVWing
p349
aVWing
p350
aVWing
p351
aVProp
p352
aVLock
p353
aVHooker, Prop
p354
aVFullback
p355
aVProp
p356
aVFlanker
p357
aVLock, No. 8
p358
aVFly-half
p359
aVScrum-half
p360
aVNo. 8
p361
aVWing
p362
aVCentre
p363
aVFlanker
p364
aVScrum-half
p365
aVFlanker
p366
aVProp
p367
aVFullback, Centre
p368
aVFlanker, Lock
p369
aVLock
p370
aVFlanker
p371
aVWing, Centre
p372
aVFullback
p373
aVCentre
p374
aVLock
p375
aVScrum-half
p376
aVBack-row
p377
aVLock
p378
aVProp
p379
aVFullback
p380
aVCentre, Fly-half
p381
aV
aVProp
p382
aVBack-row
p383
aVFullback
p384
aVScrum-half
p385
aVFlanker
p386
aVHooker, Prop
p387
aVLock
p388
aVCentre
p389
aVHooker
p390
aVNo. 8
p391
aVHooker
p392
aVProp
p393
aVCentre
p394
aVBack-row
p395
aVFly-half
p396
aVFlanker
p397
aVProp
p398
aVHooker
p399
aVScrum-half
p400
aVLock
p401
aVProp
p402
aVHooker
p403
aVLock, Back-row
p404
aVProp
p405
aVNo. 8
p406
aVNo. 8
p407
aVWing
p408
aVLock
p409
aVProp
p410
aVFly-half, Fullback
p411
aVProp
p412
aVFly-half
p413
aVBack-row
p414
aVLock
p415
aVFlanker
p416
aVLock
p417
aVFullback, Wing
p418
aVHooker
p419
aVLock
p420
aVCentre
p421
aVCentre
p422
aVFullback, Fly-half
p423
aVHooker
p424
aVCentre
p425
aVWing
p426
aVCentre
p427
aVFlanker
p428
aVHooker
p429
aVScrum-half
p430
aVFly-half
p431
aVLock
p432
aVHooker
p433
aVCentre
p434
aVFullback
p435
aVScrum-half
p436
aVLock
p437
aVFlanker
p438
aVFullback, Fly-half
p439
aVHooker
p440
aVFullback, Wing
p441
aVFullback
p442
aVHooker
p443
aVFullback
p444
aVWing
p445
aVCentre
p446
aVScrum-half
p447
aVBack-row
p448
aVFullback, Wing
p449
aVProp
p450
aVCentre, Fly-half
p451
aVCentre, Wing
p452
aVFlanker, Lock
p453
aVFlanker
p454
aVProp
p455
aVLock
p456
aVFullback
p457
aVScrum-half
p458
aVProp, Flanker
p459
aVHooker
p460
aVCentre
p461
aVFlanker
p462
aVCentre
p463
aVCentre
p464
aVNo. 8
p465
aVLock
p466
aVUtility back
p467
aVLock
p468
aVProp
p469
aVFly-half
p470
aVWing, Centre
p471
aVScrum-half
p472
aVCentre
p473
aVLock
p474
aVFullback, Centre
p475
aVWing
p476
aVFly-half
p477
aVCentre, Fly-half
p478
aVCentre
p479
aVScrum-half
p480
aVHooker
p481
aVLock
p482
aVFly-half, Centre
p483
aVWing, Fly-half
p484
aVFlanker
p485
aVFlanker, Lock
p486
aVFront-row
p487
aVProp
p488
aVFlanker
p489
aVWing, Fullback
p490
aVScrum-half
p491
aVCentre, Fly-half
p492
aVLock, Flanker
p493
aVFullback, Wing
p494
aVFlanker
p495
aVProp
p496
aVScrum-half
p497
aVProp
p498
aVProp
p499
aVLock
p500
aVScrum-half
p501
aVFly-half
p502
aVLock, Back-row
p503
aVHooker
p504
aVProp
p505
aVProp
p506
aVFullback, Wing
p507
aVWing, Fullback
p508
aVFlanker
p509
aVCentre, Fly-half
p510
aVProp
p511
aVFullback
p512
aVLock, No. 8
p513
aVBack-row
p514
aVProp
p515
aVHooker, Prop
p516
aVProp
p517
aVCentre
p518
aVProp, Hooker
p519
aVBack-row
p520
aVHooker
p521
aVLock, Flanker
p522
aVCentre
p523
aVHooker
p524
aVFlanker, Lock
p525
aVWing
p526
aVBack-row
p527
aVProp
p528
aVHooker
p529
aVCentre
p530
aVWing, Scrum-half
p531
aVCentre, Fly-half
p532
aVFullback, Centre
p533
aVBack-row
p534
aVScrum-half
p535
aVFlanker, Lock
p536
aVFullback, Wing
p537
aVWing, Fullback
p538
aVHooker
p539
aVFlanker
p540
aVFly-half
p541
aVHooker
p542
aVScrum-half
p543
aVFlanker, Lock
p544
aVProp
p545
aVWing, Centre
p546
aVCentre, Fly-half
p547
aVLock, Flanker
p548
aVCentre, Fly-half
p549
aVProp
p550
aVScrum-half
p551
aVWing
p552
aVFlanker
p553
aVLock, Flanker
p554
aVCentre
p555
aVNo. 8
p556
aVNo. 8
p557
aVProp
p558
aVCentre, Fly-half
p559
aVProp
p560
aVWing
p561
aVFly-half, Centre
p562
aVCentre, Fly-half
p563
aVLock, Flanker
p564
aVWing
p565
aVLock, Flanker
p566
aVUtility back
p567
aVWing, Centre
p568
aVCentre, Fly-half
p569
aVBack-row
p570
aVWing, Centre
p571
aVNo. 8
p572
aVProp
p573
aVProp
p574
aVWing
p575
aVFlanker
p576
aVLock
p577
a.