(lp1
(lp2
S'Apimeleki Amaraki'
p3
aS'1924'
p4
aS''
aS'date unknown'
p5
aS'8'
aS'3'
aS'1'
aS'3'
aa(lp6
S'Kuruka Bogiwalu'
p7
aS'1924'
p8
aS'Flanker'
p9
aS'date unknown'
p10
aS'7'
aS'3'
aS'1'
aS'3'
aa(lp11
S'Viliame Devo'
p12
aS'1924'
p13
aS'Wing'
p14
aS'date unknown'
p15
aS'5'
aS'2'
aS'1'
aS'3'
aa(lp16
S'Esava Kobiti'
p17
aS'1924'
p18
aS'Fullback'
p19
aS'date unknown'
p20
aS'8'
aS'3'
aS'0'
aS'5'
aa(lp21
S'Jioji Koroibanuve'
p22
aS'1924'
p23
aS''
aS'date unknown'
p24
aS'6'
aS'2'
aS'0'
aS'0'
aa(lp25
S'Samisoni Koroitamudu'
p26
aS'1924'
p27
aS''
aS'date unknown'
p28
aS'5'
aS'2'
aS'0'
aS'8'
aa(lp29
S'Atunaisa Laqeretabua'
p30
aS'1924'
p31
aS'Lock'
p32
aS'date unknown'
p33
aS'19'
p34
aS'11'
p35
aS'2'
aS'6'
aa(lp36
S'Filimone Masivulo'
p37
aS'1924'
p38
aS''
aS'date unknown'
p39
aS'5'
aS'2'
aS'0'
aS'0'
aa(lp40
S'Lepani Matea'
p41
aS'1924'
p42
aS''
aS'date unknown'
p43
aS'5'
aS'2'
aS'1'
aS'3'
aa(lp44
S'Fereti Naceba'
p45
aS'1924'
p46
aS''
aS'date unknown'
p47
aS'5'
aS'2'
aS'0'
aS'0'
aa(lp48
S'Sairusi Natuna'
p49
aS'1924'
p50
aS'Wing'
p51
aS'date unknown'
p52
aS'9'
aS'4'
aS'1'
aS'3'
aa(lp53
S'Aloesi Qio'
p54
aS'1924'
p55
aS'Fullback'
p56
aS'date unknown'
p57
aS'8'
aS'3'
aS'0'
aS'7'
aa(lp58
S'Lepani Tamani'
p59
aS'1924'
p60
aS''
aS'date unknown'
p61
aS'5'
aS'2'
aS'0'
aS'0'
aa(lp62
S'Savenaca Tamanibeka'
p63
aS'1924'
p64
aS'Centre'
p65
aS'date unknown'
p66
aS'10'
p67
aS'4'
aS'1'
aS'3'
aa(lp68
S'Isikeli Taukei'
p69
aS'1924'
p70
aS'Wing'
p71
aS'date unknown'
p72
aS'7'
aS'2'
aS'0'
aS'0'
aa(lp73
S'Kemueli Tolili'
p74
aS'1924'
p75
aS''
aS'date unknown'
p76
aS'5'
aS'2'
aS'0'
aS'0'
aa(lp77
S'Nalovu Tubutubu'
p78
aS'1924'
p79
aS'Utility back'
p80
aS'date unknown'
p81
aS'5'
aS'2'
aS'1'
aS'3'
aa(lp82
S'Solomone Tuicakau'
p83
aS'1924'
p84
aS''
aS'date unknown'
p85
aS'5'
aS'2'
aS'0'
aS'0'
aa(lp86
S'Ilaisa Tulele'
p87
aS'1924'
p88
aS''
aS'date unknown'
p89
aS'5'
aS'2'
aS'0'
aS'0'
aa(lp90
S'Ulaiasi Vosabalavu'
p91
aS'1924'
p92
aS'Wing'
p93
aS'date unknown'
p94
aS'5'
aS'2'
aS'1'
aS'3'
aa(lp95
S'Kitione Kida'
p96
aS'1926'
p97
aS'Fly-half'
p98
aS'date unknown'
p99
aS'2'
aS'1'
aS'0'
aS'0'
aa(lp100
S'Rafaele Kuruisiga'
p101
aS'1926'
p102
aS'Scrum-half'
p103
aS'date unknown'
p104
aS'3'
aS'1'
aS'0'
aS'0'
aa(lp105
S'Osea Nabavu'
p106
aS'1926'
p107
aS'Scrum-half'
p108
aS'date unknown'
p109
aS'2'
aS'1'
aS'1'
aS'3'
aa(lp110
S'Kinivuai Nabili'
p111
aS'1926'
p112
aS'Lock'
p113
aS'date unknown'
p114
aS'5'
aS'3'
aS'0'
aS'0'
aa(lp115
S'Apenisa Nayacalagilagi'
p116
aS'1926'
p117
aS'Centre'
p118
aS'date unknown'
p119
aS'1'
aS'1'
aS'0'
aS'0'
aa(lp120
S'Saimone Rabici'
p121
aS'1926'
p122
aS'Forward'
p123
aS'date unknown'
p124
aS'5'
aS'2'
aS'0'
aS'0'
aa(lp125
S'Pita Ravaga'
p126
aS'1926'
p127
aS'Prop'
p128
aS'date unknown'
p129
aS'6'
aS'3'
aS'0'
aS'0'
aa(lp130
S'Manasa Seniloli'
p131
aS'1926'
p132
aS'Centre'
p133
aS'date unknown'
p134
aS'7'
aS'3'
aS'0'
aS'0'
aa(lp135
S'Taniela Uluiviti'
p136
aS'1926'
p137
aS'Forward'
p138
aS'date unknown'
p139
aS'6'
aS'2'
aS'0'
aS'0'
aa(lp140
S'Semi Vakarua'
p141
aS'1926'
p142
aS'Forward'
p143
aS'date unknown'
p144
aS'2'
aS'1'
aS'0'
aS'0'
aa(lp145
S'Jese Baleiwei'
p146
aS'1926'
p147
aS'Flanker'
p148
aS'date unknown'
p149
aS'9'
aS'5'
aS'1'
aS'3'
aa(lp150
S'Tevita Seniloli'
p151
aS'1926'
p152
aS'Forward'
p153
aS'date unknown'
p154
aS'5'
aS'3'
aS'2'
aS'6'
aa(lp155
S'Delana'
p156
aS'1926'
p157
aS''
aS'date unknown'
p158
aS'1'
aS'0'
aS'0'
aS'0'
aa(lp159
S'Livai'
p160
aS'1926'
p161
aS''
aS'date unknown'
p162
aS'1'
aS'0'
aS'0'
aS'0'
aa(lp163
S'Poasa Waqa'
p164
aS'1926'
p165
aS'Utility back'
p166
aS'date unknown'
p167
aS'10'
p168
aS'7'
aS'3'
aS'9'
aa(lp169
S'Josefa Bibi'
p170
aS'1928'
p171
aS''
aS'date unknown'
p172
aS'4'
aS'2'
aS'0'
aS'15'
p173
aa(lp174
S'Isikeli Cawa'
p175
aS'1928'
p176
aS'Centre'
p177
aS'date unknown'
p178
aS'11'
p179
aS'7'
aS'2'
aS'6'
aa(lp180
S'Avaiata Durusolo'
p181
aS'1928'
p182
aS''
aS'date unknown'
p183
aS'3'
aS'2'
aS'0'
aS'0'
aa(lp184
S'Anare Mara'
p185
aS'1928'
p186
aS'Wing'
p187
aS'date unknown'
p188
aS'4'
aS'2'
aS'1'
aS'3'
aa(lp189
S'Saimone Matasarasara'
p190
aS'1928'
p191
aS''
aS'date unknown'
p192
aS'2'
aS'1'
aS'0'
aS'0'
aa(lp193
S'Joeli Ravai'
p194
aS'1928'
p195
aS'Scrum-half'
p196
aS'date unknown'
p197
aS'4'
aS'2'
aS'0'
aS'0'
aa(lp198
S'Manasa Ravai'
p199
aS'1928'
p200
aS''
aS'date unknown'
p201
aS'2'
aS'1'
aS'0'
aS'0'
aa(lp202
S'Epeli Ravouvou'
p203
aS'1928'
p204
aS'Lock'
p205
aS'date unknown'
p206
aS'4'
aS'2'
aS'0'
aS'0'
aa(lp207
S'Veresi Taliqa'
p208
aS'1928'
p209
aS''
aS'date unknown'
p210
aS'4'
aS'2'
aS'0'
aS'0'
aa(lp211
S'Jo Waqa'
p212
aS'1928'
p213
aS'Fly-half'
p214
aS'date unknown'
p215
aS'1'
aS'1'
aS'0'
aS'0'
aa(lp216
S'Asela Batikaciwa'
p217
aS'1932'
p218
aS'Scrum-half'
p219
aS'date unknown'
p220
aS'6'
aS'5'
aS'0'
aS'0'
aa(lp221
S'Aseri Bose'
p222
aS'1932'
p223
aS'Prop'
p224
aS'date unknown'
p225
aS'6'
aS'5'
aS'1'
aS'3'
aa(lp226
S'Vula Daunibau'
p227
aS'1932'
p228
aS'No. 8'
p229
aS'date unknown'
p230
aS'3'
aS'3'
aS'2'
aS'6'
aa(lp231
S'Isikeli Daveta'
p232
aS'1932'
p233
aS'Wing'
p234
aS'date unknown'
p235
aS'6'
aS'5'
aS'6'
aS'18'
p236
aa(lp237
S'Alifereti Koroi'
p238
aS'1932'
p239
aS'Wing'
p240
aS'date unknown'
p241
aS'4'
aS'3'
aS'2'
aS'6'
aa(lp242
S'Akuila Matanibukaca'
p243
aS'1932'
p244
aS'Lock'
p245
aS'date unknown'
p246
aS'6'
aS'5'
aS'2'
aS'19'
p247
aa(lp248
S'Sakeasi Rabitu'
p249
aS'1932'
p250
aS'Flanker'
p251
aS'date unknown'
p252
aS'6'
aS'5'
aS'0'
aS'0'
aa(lp253
S'Joape Suluaqalo'
p254
aS'1932'
p255
aS'Hooker'
p256
aS'date unknown'
p257
aS'3'
aS'3'
aS'3'
aS'9'
aa(lp258
S'Sunia Tubuna'
p259
aS'1932'
p260
aS'Fullback'
p261
aS'date unknown'
p262
aS'3'
aS'3'
aS'0'
aS'0'
aa(lp263
S'Peni Tuidraki'
p264
aS'1932'
p265
aS'Fly-half'
p266
aS'date unknown'
p267
aS'3'
aS'3'
aS'0'
aS'4'
aa(lp268
S'Vilitati Vavaitamana'
p269
aS'1932'
p270
aS'Lock'
p271
aS'date unknown'
p272
aS'10'
p273
aS'7'
aS'0'
aS'0'
aa(lp274
S'Samu Baravilala'
p275
aS'1934'
p276
aS'Fly-half'
p277
aS'circa 1915'
p278
aS'7'
aS'5'
aS'3'
aS'42'
p279
aa(lp280
S'Sairusi Bola'
p281
aS'1934'
p282
aS'Lock'
p283
aS'date unknown'
p284
aS'1'
aS'1'
aS'0'
aS'0'
aa(lp285
S'Isoa Gavidi'
p286
aS'1934'
p287
aS'Fullback'
p288
aS'date unknown'
p289
aS'4'
aS'2'
aS'0'
aS'0'
aa(lp290
S'Seru Ralawa'
p291
aS'1934'
p292
aS'Utility back'
p293
aS'date unknown'
p294
aS'7'
aS'4'
aS'2'
aS'14'
p295
aa(lp296
S'Raiwalui Seniloli'
p297
aS'1934'
p298
aS'Prop'
p299
aS'date unknown'
p300
aS'3'
aS'2'
aS'1'
aS'3'
aa(lp301
S'Eroni Vavaitamana'
p302
aS'1934'
p303
aS'Flanker'
p304
aS'date unknown'
p305
aS'3'
aS'2'
aS'0'
aS'0'
aa(lp306
S'Vilisi Nadaku'
p307
aS'1934'
p308
aS'Lock'
p309
aS'date unknown'
p310
aS'5'
aS'2'
aS'0'
aS'0'
aa(lp311
S'Jone Wesele'
p312
aS'1934'
p313
aS'Scrum-half'
p314
aS'date unknown'
p315
aS'2'
aS'1'
aS'0'
aS'0'
aa(lp316
S'Peni Sailasa'
p317
aS'1934'
p318
aS'Flanker'
p319
aS'date unknown'
p320
aS'1'
aS'1'
aS'0'
aS'0'
aa(lp321
S'Ratu Dovi'
p322
aS'1938'
p323
aS'Fly-half'
p324
aS'date unknown'
p325
aS'3'
aS'1'
aS'0'
aS'0'
aa(lp326
S'Atunaisa Kororua'
p327
aS'1938'
p328
aS'Scrum-half'
p329
aS'date unknown'
p330
aS'3'
aS'1'
aS'0'
aS'0'
aa(lp331
S'Vetaia Naisoro'
p332
aS'1938'
p333
aS'Prop'
p334
aS'date unknown'
p335
aS'3'
aS'1'
aS'0'
aS'0'
aa(lp336
S'Solomone Qurai'
p337
aS'1938'
p338
aS'Lock'
p339
aS'date unknown'
p340
aS'4'
aS'2'
aS'0'
aS'0'
aa(lp341
S'Ulaiasi Radike'
p342
aS'1938'
p343
aS'Fly-half'
p344
aS'date unknown'
p345
aS'3'
aS'1'
aS'0'
aS'0'
aa(lp346
S'Apakuki Tuitavua'
p347
aS'1938'
p348
aS'Lock'
p349
aS'date unknown'
p350
aS'16'
p351
aS'8'
aS'0'
aS'0'
aa(lp352
S'Esava Vavaitamana'
p353
aS'1938'
p354
aS'Prop'
p355
aS'date unknown'
p356
aS'8'
aS'4'
aS'0'
aS'0'
aa(lp357
S'Josaia Voreqe'
p358
aS'1938'
p359
aS'Wing'
p360
aS'date unknown'
p361
aS'5'
aS'3'
aS'3'
aS'9'
aa(lp362
S'Tomasi Vosaicake'
p363
aS'1938'
p364
aS'Hooker'
p365
aS'date unknown'
p366
aS'4'
aS'2'
aS'1'
aS'3'
aa(lp367
S'Isireli Korovulavula'
p368
aS'1938'
p369
aS'Fullback'
p370
aS'date unknown'
p371
aS'3'
aS'2'
aS'1'
aS'3'
aa(lp372
S'Isimeli Wea'
p373
aS'1938'
p374
aS'Lock'
p375
aS'date unknown'
p376
aS'1'
aS'0'
aS'0'
aS'0'
aa(lp377
S'Epeli Bola'
p378
aS'1939'
p379
aS'Wing'
p380
aS'date unknown'
p381
aS'1'
aS'1'
aS'1'
aS'3'
aa(lp382
S'George Cakobau'
p383
aS'1939'
p384
aS'Fly-half'
p385
aS'Bau'
p386
aS'1'
aS'1'
aS'0'
aS'2'
aa(lp387
S'Penaia Ganilau'
p388
aS'1939'
p389
aS'Flanker'
p390
aS'date unknown'
p391
aS'1'
aS'1'
aS'0'
aS'0'
aa(lp392
S'Peni Lagilagi'
p393
aS'1939'
p394
aS'Flanker'
p395
aS'date unknown'
p396
aS'1'
aS'1'
aS'0'
aS'0'
aa(lp397
S'Vereniki Loba'
p398
aS'1939'
p399
aS'Forward'
p400
aS'date unknown'
p401
aS'1'
aS'1'
aS'0'
aS'0'
aa(lp402
S'Inoke Nagatalevu'
p403
aS'1939'
p404
aS'Fly-half'
p405
aS'date unknown'
p406
aS'1'
aS'1'
aS'0'
aS'0'
aa(lp407
S'Sevesi Vatudau'
p408
aS'1939'
p409
aS'Prop'
p410
aS'date unknown'
p411
aS'1'
aS'1'
aS'0'
aS'0'
aa(lp412
S'Ilaitia Cobitu'
p413
aS'1947'
p414
aS'Flanker'
p415
aS'date unknown'
p416
aS'5'
aS'3'
aS'0'
aS'0'
aa(lp417
S'Emosi Dawai'
p418
aS'1947'
p419
aS'Wing'
p420
aS'date unknown'
p421
aS'1'
aS'1'
aS'1'
aS'3'
aa(lp422
S'Luke Dawai'
p423
aS'1947'
p424
aS'Forward'
p425
aS'date unknown'
p426
aS'2'
aS'2'
aS'0'
aS'0'
aa(lp427
S'Solomone Mataiyavi'
p428
aS'1947'
p429
aS'Lock'
p430
aS'date unknown'
p431
aS'2'
aS'2'
aS'0'
aS'0'
aa(lp432
S'Onisimo Naikovu'
p433
aS'1947'
p434
aS'Prop'
p435
aS'date unknown'
p436
aS'4'
aS'3'
aS'0'
aS'0'
aa(lp437
S'Tuiyau Naitini'
p438
aS'1947'
p439
aS'Scrum-half'
p440
aS'circa 1910'
p441
aS'5'
aS'3'
aS'0'
aS'0'
aa(lp442
S'Etuate Nima'
p443
aS'1947'
p444
aS'Wing'
p445
aS'date unknown'
p446
aS'3'
aS'2'
aS'4'
aS'12'
p447
aa(lp448
S'Manasa Nukuvou'
p449
aS'1947'
p450
aS'Flanker'
p451
aS'date unknown'
p452
aS'5'
aS'4'
aS'0'
aS'0'
aa(lp453
S'Ilisoni Ravoka'
p454
aS'1947'
p455
aS'Wing'
p456
aS'date unknown'
p457
aS'4'
aS'3'
aS'2'
aS'6'
aa(lp458
S'Lui Saladoka'
p459
aS'1947'
p460
aS'Hooker'
p461
aS'date unknown'
p462
aS'1'
aS'1'
aS'0'
aS'0'
aa(lp463
S'Waisea Tuisese'
p464
aS'1947'
p465
aS'Centre'
p466
aS'date unknown'
p467
aS'4'
aS'2'
aS'1'
aS'3'
aa(lp468
S'Alipate Veikoso'
p469
aS'1947'
p470
aS'Fly-half'
p471
aS'date unknown'
p472
aS'5'
aS'3'
aS'1'
aS'9'
aa(lp473
S'Taniela Ranavue'
p474
aS'1947'
p475
aS'Fullback'
p476
aS'date unknown'
p477
aS'10'
p478
aS'5'
aS'3'
aS'41'
p479
aa(lp480
S'Marika Tabukaci'
p481
aS'1947'
p482
aS'Prop'
p483
aS'date unknown'
p484
aS'2'
aS'2'
aS'0'
aS'0'
aa(lp485
S'Apisake Kikau'
p486
aS'1948'
p487
aS'Lock'
p488
aS'date unknown'
p489
aS'1'
aS'0'
aS'0'
aS'0'
aa(lp490
S'Malakai Labaibure'
p491
aS'1948'
p492
aS'Lock'
p493
aS'date unknown'
p494
aS'8'
aS'2'
aS'0'
aS'0'
aa(lp495
S'Joeli Susu'
p496
aS'1948'
p497
aS'Hooker'
p498
aS'date unknown'
p499
aS'6'
aS'3'
aS'1'
aS'3'
aa(lp500
S'Sailosi Valewai'
p501
aS'1948'
p502
aS'Prop'
p503
aS'date unknown'
p504
aS'6'
aS'3'
aS'1'
aS'3'
aa(lp505
S'Ilaitia Vuivuda'
p506
aS'1948'
p507
aS'Fullback'
p508
aS'date unknown'
p509
aS'3'
aS'1'
aS'0'
aS'0'
aa(lp510
S'Atunaisa Camaibau'
p511
aS'1948'
p512
aS'Lock'
p513
aS'date unknown'
p514
aS'2'
aS'1'
aS'2'
aS'6'
aa(lp515
S'Kalivati Cavuilati'
p516
aS'1948'
p517
aS'Wing'
p518
aS'date unknown'
p519
aS'4'
aS'2'
aS'0'
aS'0'
aa(lp520
S'Macanawai Cevalawa'
p521
aS'1948'
p522
aS'Lock'
p523
aS'date unknown'
p524
aS'2'
aS'1'
aS'0'
aS'0'
aa(lp525
S'Jone Ravu'
p526
aS'1948'
p527
aS'Fly-half'
p528
aS'date unknown'
p529
aS'5'
aS'2'
aS'0'
aS'0'
aa(lp530
S'Alipate Doviverata'
p531
aS'1948'
p532
aS'Wing'
p533
aS'date unknown'
p534
aS'1'
aS'0'
aS'0'
aS'0'
aa(lp535
S'Semisi Baleca'
p536
aS'1951'
p537
aS'Lock'
p538
aS'date unknown'
p539
aS'5'
aS'3'
aS'0'
aS'0'
aa(lp540
S'George Cavalevu'
p541
aS'1951'
p542
aS'Centre'
p543
aS'date unknown'
p544
aS'8'
aS'4'
aS'4'
aS'12'
p545
aa(lp546
S'Sunia Ganilau'
p547
aS'1951'
p548
aS'Centre'
p549
aS'date unknown'
p550
aS'2'
aS'1'
aS'1'
aS'3'
aa(lp551
S'Waisake Kunavula'
p552
aS'1951'
p553
aS'Lock'
p554
aS'date unknown'
p555
aS'1'
aS'1'
aS'0'
aS'0'
aa(lp556
S'Penaia Lese'
p557
aS'1951'
p558
aS'Fullback'
p559
aS'date unknown'
p560
aS'1'
aS'1'
aS'0'
aS'0'
aa(lp561
S'Josefa Levula'
p562
aS'1951'
p563
aS'Wing'
p564
aS'date unknown'
p565
aS'17'
p566
aS'8'
aS'8'
aS'32'
p567
aa(lp568
S'Isimeli Radrodro'
p569
aS'1951'
p570
aS'No. 8'
p571
aS'date unknown'
p572
aS'5'
aS'4'
aS'0'
aS'6'
aa(lp573
S'Semisi Ralagi'
p574
aS'1951'
p575
aS'Prop'
p576
aS'date unknown'
p577
aS'5'
aS'3'
aS'1'
aS'3'
aa(lp578
S'Wame Salabogi'
p579
aS'1951'
p580
aS'Fly-half'
p581
aS'date unknown'
p582
aS'5'
aS'3'
aS'1'
aS'3'
aa(lp583
S'Maikeli Tuvoli'
p584
aS'1951'
p585
aS'Lock'
p586
aS'date unknown'
p587
aS'1'
aS'1'
aS'0'
aS'0'
aa(lp588
S'Suliasi Vatubua'
p589
aS'1951'
p590
aS'Scrum-half'
p591
aS'date unknown'
p592
aS'10'
p593
aS'5'
aS'0'
aS'16'
p594
aa(lp595
S'Rusiate Vuruya'
p596
aS'1951'
p597
aS'No. 8'
p598
aS'date unknown'
p599
aS'2'
aS'1'
aS'1'
aS'3'
aa(lp600
S'Savenaca Pe'
p601
aS'1951'
p602
aS'Prop'
p603
aS'date unknown'
p604
aS'5'
aS'3'
aS'2'
aS'6'
aa(lp605
S'Peni Tove'
p606
aS'1951'
p607
aS'Prop'
p608
aS'date unknown'
p609
aS'1'
aS'1'
aS'0'
aS'0'
aa(lp610
S'Semesa Seruvatu'
p611
aS'1952'
p612
aS'Lock'
p613
aS'date unknown'
p614
aS'7'
aS'3'
aS'2'
aS'6'
aa(lp615
S'Isikeli Cawa'
p616
aS'1952'
p617
aS'Lock'
p618
aS'date unknown'
p619
aS'3'
aS'3'
aS'0'
aS'0'
aa(lp620
S'Samuela Domoni'
p621
aS'1952'
p622
aS'Centre'
p623
aS'1968'
p624
aS'3'
aS'2'
aS'1'
aS'3'
aa(lp625
S'Navitalai Taga'
p626
aS'1952'
p627
aS'Centre'
p628
aS'date unknown'
p629
aS'1'
aS'1'
aS'0'
aS'0'
aa(lp630
S'Mesake Biumaiwai'
p631
aS'1954'
p632
aS'Centre'
p633
aS'date unknown'
p634
aS'4'
aS'1'
aS'0'
aS'0'
aa(lp635
S'Aminisitai Burogolevu'
p636
aS'1954'
p637
aS'Wing'
p638
aS'date unknown'
p639
aS'2'
aS'1'
aS'1'
aS'3'
aa(lp640
S'Gabirieli Naborisi'
p641
aS'1954'
p642
aS'Flanker'
p643
aS'date unknown'
p644
aS'1'
aS'0'
aS'1'
aS'3'
aa(lp645
S'Apenisa Nawalu'
p646
aS'1954'
p647
aS'Prop'
p648
aS'date unknown'
p649
aS'4'
aS'1'
aS'0'
aS'3'
aa(lp650
S'Josefa Saukuru'
p651
aS'1954'
p652
aS'Hooker'
p653
aS'date unknown'
p654
aS'15'
p655
aS'10'
p656
aS'2'
aS'19'
p657
aa(lp658
S'Orisi Dawai'
p659
aS'1954'
p660
aS'Wing'
p661
aS'date unknown'
p662
aS'12'
p663
aS'6'
aS'5'
aS'15'
p664
aa(lp665
S'Tomasi Naidole'
p666
aS'1954'
p667
aS'Wing'
p668
aS'Malomalo'
p669
aS'7'
aS'5'
aS'0'
aS'4'
aa(lp670
S'Ratulevu Silatolu'
p671
aS'1954'
p672
aS''
aS'date unknown'
p673
aS'3'
aS'1'
aS'0'
aS'0'
aa(lp674
S'Ravuama Vunakece'
p675
aS'1954'
p676
aS'Prop'
p677
aS'date unknown'
p678
aS'2'
aS'1'
aS'0'
aS'0'
aa(lp679
S'Senitiki Naurisau'
p680
aS'1954'
p681
aS'Hooker'
p682
aS'date unknown'
p683
aS'2'
aS'0'
aS'0'
aS'0'
aa(lp684
S'Aseri Kunawave'
p685
aS'1957'
p686
aS'Centre'
p687
aS'date unknown'
p688
aS'6'
aS'4'
aS'0'
aS'0'
aa(lp689
S'Jese Mucunabitu'
p690
aS'1957'
p691
aS'Scrum-half'
p692
aS'date unknown'
p693
aS'9'
aS'4'
aS'1'
aS'3'
aa(lp694
S'Nacanieli Nabaro'
p695
aS'1957'
p696
aS'Flanker'
p697
aS'date unknown'
p698
aS'7'
aS'2'
aS'3'
aS'9'
aa(lp699
S'Mikaele Naikovu'
p700
aS'1957'
p701
aS'Hooker'
p702
aS'date unknown'
p703
aS'5'
aS'4'
aS'0'
aS'0'
aa(lp704
S'Paula Nayacakalou'
p705
aS'1957'
p706
aS'No. 8'
p707
aS'date unknown'
p708
aS'1'
aS'1'
aS'0'
aS'0'
aa(lp709
S'Sanaila Sautu'
p710
aS'1957'
p711
aS'Prop'
p712
aS'date unknown'
p713
aS'5'
aS'4'
aS'0'
aS'0'
aa(lp714
S'Anare Secake'
p715
aS'1957'
p716
aS'Flanker'
p717
aS'date unknown'
p718
aS'3'
aS'2'
aS'0'
aS'0'
aa(lp719
S'Jone Tabaiwalu'
p720
aS'1957'
p721
aS'Lock'
p722
aS'date unknown'
p723
aS'11'
p724
aS'6'
aS'2'
aS'6'
aa(lp725
S'Baniua Tanivukavu'
p726
aS'1957'
p727
aS'Wing'
p728
aS'date unknown'
p729
aS'1'
aS'1'
aS'0'
aS'0'
aa(lp730
S'Nat Uluiviti'
p731
aS'1957'
p732
aS'Fullback'
p733
aS'Natauloa'
p734
aS'3'
aS'2'
aS'0'
aS'23'
p735
aa(lp736
S'Apenisa Kuruisaqila'
p737
aS'1957'
p738
aS'Flanker'
p739
aS'date unknown'
p740
aS'2'
aS'1'
aS'0'
aS'0'
aa(lp741
S'Peni Wadali'
p742
aS'1957'
p743
aS'Flanker'
p744
aS'circa 1932'
p745
aS'1'
aS'1'
aS'0'
aS'0'
aa(lp746
S'Kaiava Bose'
p747
aS'1958'
p748
aS'Fly-half'
p749
aS'date unknown'
p750
aS'7'
aS'2'
aS'0'
aS'8'
aa(lp751
S'Ilaitia Ravouvou'
p752
aS'1958'
p753
aS'Lock'
p754
aS'date unknown'
p755
aS'4'
aS'2'
aS'0'
aS'0'
aa(lp756
S'Maika Ravula'
p757
aS'1958'
p758
aS'Flanker'
p759
aS'date unknown'
p760
aS'3'
aS'2'
aS'2'
aS'6'
aa(lp761
S'Inoke Tabualevu'
p762
aS'1958'
p763
aS'Fullback'
p764
aS'circa 1936'
p765
aS'6'
aS'4'
aS'1'
aS'27'
p766
aa(lp767
S'Eremasi Lovodua'
p768
aS'1958'
p769
aS'Wing'
p770
aS'date unknown'
p771
aS'11'
p772
aS'6'
aS'8'
aS'36'
p773
aa(lp774
S'Seru Tuisese'
p775
aS'1958'
p776
aS'Fullback'
p777
aS'date unknown'
p778
aS'8'
aS'5'
aS'0'
aS'3'
aa(lp779
S'Patimio Tatukivei'
p780
aS'1958'
p781
aS'Flanker'
p782
aS'date unknown'
p783
aS'1'
aS'0'
aS'1'
aS'3'
aa(lp784
S'Peni Rika'
p785
aS'1958'
p786
aS'Scrum-half'
p787
aS'date unknown'
p788
aS'2'
aS'1'
aS'0'
aS'0'
aa(lp789
S'Suliasi Cavu'
p790
aS'1958'
p791
aS'Prop'
p792
aS'date unknown'
p793
aS'13'
p794
aS'8'
aS'2'
aS'6'
aa(lp795
S'Ulaiasi Radike'
p796
aS'1959'
p797
aS'Wing'
p798
aS'date unknown'
p799
aS'1'
aS'0'
aS'0'
aS'0'
aa(lp800
S'Sakiusa Tuva'
p801
aS'1959'
p802
aS'Hooker'
p803
aS'date unknown'
p804
aS'4'
aS'0'
aS'0'
aS'0'
aa(lp805
S'Eliki Gaunavou'
p806
aS'1961'
p807
aS'Fullback'
p808
aS'date unknown'
p809
aS'3'
aS'0'
aS'0'
aS'0'
aa(lp810
S'Sailosi Kepa'
p811
aS'1961'
p812
aS'Flanker'
p813
aS'circa 1938'
p814
aS'1'
aS'0'
aS'0'
aS'0'
aa(lp815
S'Jone Nabou'
p816
aS'1961'
p817
aS'Flanker'
p818
aS'date unknown'
p819
aS'3'
aS'0'
aS'1'
aS'3'
aa(lp820
S'Joeli Naucabalavu'
p821
aS'1961'
p822
aS'Lock, No. 8'
p823
aS'Kumi'
p824
aS'8'
aS'3'
aS'2'
aS'6'
aa(lp825
S'Simione Rarasea'
p826
aS'1961'
p827
aS'Centre'
p828
aS'date unknown'
p829
aS'1'
aS'0'
aS'0'
aS'0'
aa(lp830
S'Seteo Rasau'
p831
aS'1961'
p832
aS'Prop'
p833
aS'date unknown'
p834
aS'3'
aS'0'
aS'1'
aS'3'
aa(lp835
S'Nemesio Ratuveilawa'
p836
aS'1961'
p837
aS'Scrum-half'
p838
aS'date unknown'
p839
aS'6'
aS'5'
aS'3'
aS'13'
p840
aa(lp841
S'Eparama Ravi'
p842
aS'1961'
p843
aS'Centre'
p844
aS'date unknown'
p845
aS'3'
aS'0'
aS'0'
aS'0'
aa(lp846
S'Josua Vadugu'
p847
aS'1961'
p848
aS'Prop'
p849
aS'date unknown'
p850
aS'2'
aS'0'
aS'0'
aS'0'
aa(lp851
S'Vereniki Nalio'
p852
aS'1961'
p853
aS'Flanker'
p854
aS'date unknown'
p855
aS'8'
aS'3'
aS'2'
aS'6'
aa(lp856
S'Sitiveni Tawase'
p857
aS'1961'
p858
aS'Scrum-half'
p859
aS'date unknown'
p860
aS'2'
aS'0'
aS'0'
aS'3'
aa(lp861
S'Epeli Rayawa'
p862
aS'1961'
p863
aS'Prop'
p864
aS'date unknown'
p865
aS'1'
aS'0'
aS'0'
aS'0'
aa(lp866
S'Epi Bolawaqatabu'
p867
aS'1963'
p868
aS'Flanker'
p869
aS'date unknown'
p870
aS'16'
p871
aS'10'
p872
aS'10'
p873
aS'30'
p874
aa(lp875
S'Vinaiya Buli'
p876
aS'1963'
p877
aS'Centre'
p878
aS'date unknown'
p879
aS'4'
aS'4'
aS'2'
aS'6'
aa(lp880
S'Suliasi Daunitutu'
p881
aS'1963'
p882
aS'Wing'
p883
aS'date unknown'
p884
aS'8'
aS'5'
aS'4'
aS'12'
p885
aa(lp886
S'Jope Snr. Naucabalavu Snr.'
p887
aS'1963'
p888
aS'Lock'
p889
aS'date unknown'
p890
aS'19'
p891
aS'12'
p892
aS'4'
aS'12'
p893
aa(lp894
S'Jone Raikuna'
p895
aS'1963'
p896
aS'Fly-half'
p897
aS'date unknown'
p898
aS'15'
p899
aS'9'
aS'2'
aS'6'
aa(lp900
S'Petero Rasiosateki'
p901
aS'1963'
p902
aS'Utility back'
p903
aS'date unknown'
p904
aS'6'
aS'3'
aS'0'
aS'9'
aa(lp905
S'Jone Sokovata'
p906
aS'1963'
p907
aS'Flanker'
p908
aS'date unknown'
p909
aS'4'
aS'3'
aS'0'
aS'0'
aa(lp910
S'Ulaiasi Tukana'
p911
aS'1963'
p912
aS'Hooker'
p913
aS'Savu'
p914
aS'7'
aS'4'
aS'0'
aS'0'
aa(lp915
S'Epi Kunavore'
p916
aS'1963'
p917
aS'Centre'
p918
aS'date unknown'
p919
aS'2'
aS'2'
aS'2'
aS'6'
aa(lp920
S'Apisai Toga'
p921
aS'1963'
p922
aS'Lock'
p923
aS'date unknown'
p924
aS'3'
aS'3'
aS'3'
aS'9'
aa(lp925
S'Sevaro Walisoliso'
p926
aS'1963'
p927
aS'Prop'
p928
aS'date unknown'
p929
aS'7'
aS'4'
aS'3'
aS'9'
aa(lp930
S'Josateki Nasova'
p931
aS'1963'
p932
aS'Utility back'
p933
aS'date unknown'
p934
aS'10'
p935
aS'6'
aS'0'
aS'10'
p936
aa(lp937
S'Aca Soqosoqo'
p938
aS'1964'
p939
aS'Lock'
p940
aS'date unknown'
p941
aS'4'
aS'1'
aS'1'
aS'3'
aa(lp942
S'Apakuki Suluaqalo'
p943
aS'1964'
p944
aS''
aS'date unknown'
p945
aS'1'
aS'0'
aS'0'
aS'0'
aa(lp946
S'George Barley'
p947
aS'1964'
p948
aS'Fly-half'
p949
aS'date unknown'
p950
aS'4'
aS'1'
aS'0'
aS'0'
aa(lp951
S'Aporosa Robe'
p952
aS'1964'
p953
aS'Wing'
p954
aS'date unknown'
p955
aS'3'
aS'1'
aS'2'
aS'6'
aa(lp956
S'Sela Toga'
p957
aS'1964'
p958
aS'No. 8'
p959
aS'date unknown'
p960
aS'12'
p961
aS'8'
aS'7'
aS'21'
p962
aa(lp963
S'Adriu Nadredre'
p964
aS'1964'
p965
aS'Flanker'
p966
aS'date unknown'
p967
aS'3'
aS'1'
aS'0'
aS'0'
aa(lp968
S'Suliasi Tolotu'
p969
aS'1964'
p970
aS'Flanker'
p971
aS'date unknown'
p972
aS'1'
aS'0'
aS'0'
aS'0'
aa(lp973
S'Samuela Vanini'
p974
aS'1964'
p975
aS'Centre'
p976
aS'date unknown'
p977
aS'1'
aS'0'
aS'0'
aS'0'
aa(lp978
S'Setareki Vola'
p979
aS'1964'
p980
aS'Centre'
p981
aS'date unknown'
p982
aS'1'
aS'1'
aS'0'
aS'0'
aa(lp983
S'Amenatave Gutugutuwai'
p984
aS'1967'
p985
aS'Wing'
p986
aS'date unknown'
p987
aS'4'
aS'2'
aS'1'
aS'3'
aa(lp988
S'Moritikei Nabuta'
p989
aS'1967'
p990
aS'Prop'
p991
aS'date unknown'
p992
aS'9'
aS'7'
aS'2'
aS'6'
aa(lp993
S'Kiniviliame Nalatu'
p994
aS'1967'
p995
aS'Wing'
p996
aS'date unknown'
p997
aS'6'
aS'1'
aS'1'
aS'3'
aa(lp998
S'Samu Naqelevuki'
p999
aS'1967'
p1000
aS'Fullback'
p1001
aS'circa 1944'
p1002
aS'12'
p1003
aS'6'
aS'4'
aS'12'
p1004
aa(lp1005
S'Sakiasi Ose'
p1006
aS'1967'
p1007
aS'Flanker'
p1008
aS'date unknown'
p1009
aS'1'
aS'1'
aS'0'
aS'0'
aa(lp1010
S'Nasivi Ravouvou'
p1011
aS'1967'
p1012
aS'Lock'
p1013
aS'circa 1945'
p1014
aS'18'
p1015
aS'8'
aS'5'
aS'15'
p1016
aa(lp1017
S'Setareki Tamanivalu'
p1018
aS'1967'
p1019
aS'Flanker'
p1020
aS'date unknown'
p1021
aS'3'
aS'2'
aS'0'
aS'0'
aa(lp1022
S'Sakopo Vodivodi'
p1023
aS'1967'
p1024
aS'Scrum-half'
p1025
aS'date unknown'
p1026
aS'3'
aS'2'
aS'0'
aS'3'
aa(lp1027
S'Vilaime Waka'
p1028
aS'1967'
p1029
aS'Utility back'
p1030
aS'date unknown'
p1031
aS'3'
aS'2'
aS'0'
aS'0'
aa(lp1032
S'Apenisa Tukairavua'
p1033
aS'1967'
p1034
aS'Lock'
p1035
aS'Naitasiri'
p1036
aS'11'
p1037
aS'7'
aS'1'
aS'4'
aa(lp1038
S'Maika Vakatawabai'
p1039
aS'1967'
p1040
aS'Hooker'
p1041
aS'date unknown'
p1042
aS'1'
aS'0'
aS'0'
aS'0'
aa(lp1043
S'Asaeli Batibasaga'
p1044
aS'1967'
p1045
aS'Wing'
p1046
aS'date unknown'
p1047
aS'7'
aS'6'
aS'8'
aS'63'
p1048
aa(lp1049
S'Waisea Tubu'
p1050
aS'1967'
p1051
aS'Centre'
p1052
aS'date unknown'
p1053
aS'1'
aS'1'
aS'0'
aS'0'
aa(lp1054
S'Albert Eastgate'
p1055
aS'1968'
p1056
aS'Centre'
p1057
aS'date unknown'
p1058
aS'1'
aS'0'
aS'0'
aS'0'
aa(lp1059
S'Suliasi Nacolai'
p1060
aS'1968'
p1061
aS'Wing'
p1062
aS'date unknown'
p1063
aS'6'
aS'3'
aS'6'
aS'18'
p1064
aa(lp1065
S'Ropate Qalo'
p1066
aS'1968'
p1067
aS'Centre'
p1068
aS'date unknown'
p1069
aS'2'
aS'0'
aS'0'
aS'0'
aa(lp1070
S'Lario Raitilava'
p1071
aS'1968'
p1072
aS'Fullback'
p1073
aS'date unknown'
p1074
aS'11'
p1075
aS'6'
aS'2'
aS'26'
p1076
aa(lp1077
S'Timoci Tukaitabua'
p1078
aS'1968'
p1079
aS'Flanker'
p1080
aS'date unknown'
p1081
aS'5'
aS'3'
aS'1'
aS'3'
aa(lp1082
S'Apisalome Turagacoko'
p1083
aS'1968'
p1084
aS'Prop'
p1085
aS'date unknown'
p1086
aS'3'
aS'0'
aS'1'
aS'3'
aa(lp1087
S'Ilai Senivau'
p1088
aS'1968'
p1089
aS'Prop'
p1090
aS'date unknown'
p1091
aS'1'
aS'0'
aS'0'
aS'0'
aa(lp1092
S'Meli Kurisaru'
p1093
aS'1968'
p1094
aS'Flanker'
p1095
aS'date unknown'
p1096
aS'14'
p1097
aS'9'
aS'4'
aS'13'
p1098
aa(lp1099
S'Semesa Sacere'
p1100
aS'1968'
p1101
aS'Scrum-half'
p1102
aS'date unknown'
p1103
aS'1'
aS'0'
aS'0'
aS'0'
aa(lp1104
S'Watile Tuinagiagia'
p1105
aS'1968'
p1106
aS'Fullback'
p1107
aS'date unknown'
p1108
aS'2'
aS'0'
aS'0'
aS'0'
aa(lp1109
S'Isoa Volavola'
p1110
aS'1968'
p1111
aS'Hooker'
p1112
aS'date unknown'
p1113
aS'7'
aS'5'
aS'4'
aS'12'
p1114
aa(lp1115
S'Peniasi Nasalo'
p1116
aS'1968'
p1117
aS'Flanker'
p1118
aS'date unknown'
p1119
aS'4'
aS'2'
aS'0'
aS'7'
aa(lp1120
S'Jona Qoro Narisia'
p1121
aS'1968'
p1122
aS'Prop'
p1123
aS'date unknown'
p1124
aS'14'
p1125
aS'9'
aS'8'
aS'26'
p1126
aa(lp1127
S'Pio Tikoisuva'
p1128
aS'1968'
p1129
aS'Wing'
p1130
aS'date unknown'
p1131
aS'19'
p1132
aS'11'
p1133
aS'4'
aS'22'
p1134
aa(lp1135
S'Seru Naitau'
p1136
aS'1968'
p1137
aS'Lock'
p1138
aS'date unknown'
p1139
aS'2'
aS'2'
aS'1'
aS'3'
aa(lp1140
S'Sefanaia Ratu'
p1141
aS'1968'
p1142
aS'Wing'
p1143
aS'date unknown'
p1144
aS'1'
aS'1'
aS'0'
aS'0'
aa(lp1145
S'Senitiki Nasave'
p1146
aS'1969'
p1147
aS'Centre'
p1148
aS'Nayawa'
p1149
aS'20'
p1150
aS'6'
aS'3'
aS'16'
p1151
aa(lp1152
S'George Sailosi'
p1153
aS'1969'
p1154
aS'Wing'
p1155
aS'date unknown'
p1156
aS'3'
aS'2'
aS'6'
aS'18'
p1157
aa(lp1158
S'Semesa Sikivou'
p1159
aS'1969'
p1160
aS'Scrum-half'
p1161
aS'date unknown'
p1162
aS'7'
aS'3'
aS'3'
aS'59'
p1163
aa(lp1164
S'Ilaitia Tuisese'
p1165
aS'1969'
p1166
aS'No. 8, Lock'
p1167
aS'date unknown'
p1168
aS'17'
p1169
aS'8'
aS'5'
aS'17'
p1170
aa(lp1171
S'Inia Namua'
p1172
aS'1969'
p1173
aS'Centre'
p1174
aS'date unknown'
p1175
aS'1'
aS'1'
aS'2'
aS'8'
aa(lp1176
S'Atonio Racika'
p1177
aS'1969'
p1178
aS'Hooker'
p1179
aS'date unknown'
p1180
aS'30'
p1181
aS'13'
p1182
aS'5'
aS'19'
p1183
aa(lp1184
S'Josateki Radrodro'
p1185
aS'1970'
p1186
aS'Wing'
p1187
aS'date unknown'
p1188
aS'3'
aS'1'
aS'1'
aS'3'
aa(lp1189
S'Jo Sovau'
p1190
aS'1970'
p1191
aS'Prop'
p1192
aS'circa 1951'
p1193
aS'11'
p1194
aS'3'
aS'2'
aS'9'
aa(lp1195
S'Josaia Visei'
p1196
aS'1970'
p1197
aS'Fullback'
p1198
aS'date unknown'
p1199
aS'9'
aS'3'
aS'1'
aS'7'
aa(lp1200
S'Isimeli Batibasaga'
p1201
aS'1970'
p1202
aS'Scrum-half'
p1203
aS'date unknown'
p1204
aS'13'
p1205
aS'7'
aS'1'
aS'65'
p1206
aa(lp1207
S'Inoke Buadromo'
p1208
aS'1970'
p1209
aS'Fullback'
p1210
aS'date unknown'
p1211
aS'1'
aS'1'
aS'1'
aS'3'
aa(lp1212
S'Ravuama Latilevu'
p1213
aS'1970'
p1214
aS'Centre'
p1215
aS'date unknown'
p1216
aS'7'
aS'3'
aS'3'
aS'11'
p1217
aa(lp1218
S'Sitiveni Ligamamada Rabuka'
p1219
aS'1970'
p1220
aS'Prop'
p1221
aS'date unknown'
p1222
aS'2'
aS'2'
aS'0'
aS'0'
aa(lp1223
S'Vuniani Varo'
p1224
aS'1970'
p1225
aS'Wing'
p1226
aS'circa 1948'
p1227
aS'7'
aS'5'
aS'8'
aS'33'
p1228
aa(lp1229
S'Jope Jnr. Naucabalavu Jnr.'
p1230
aS'1972'
p1231
aS'Lock'
p1232
aS'circa 1953'
p1233
aS'12'
p1234
aS'4'
aS'1'
aS'4'
aa(lp1235
S'Tevita Rabuli'
p1236
aS'1972'
p1237
aS'Centre'
p1238
aS'date unknown'
p1239
aS'9'
aS'2'
aS'1'
aS'4'
aa(lp1240
S'Taito Rauluni'
p1241
aS'1972'
p1242
aS'Scrum-half, Fullback'
p1243
aS'date unknown'
p1244
aS'3'
aS'1'
aS'0'
aS'0'
aa(lp1245
S'Wame Gavidi'
p1246
aS'1972'
p1247
aS'Wing, Centre'
p1248
aS'date unknown'
p1249
aS'20'
p1250
aS'7'
aS'3'
aS'14'
p1251
aa(lp1252
S'Nimilote Ratudina'
p1253
aS'1972'
p1254
aS'Prop'
p1255
aS'date unknown'
p1256
aS'14'
p1257
aS'6'
aS'1'
aS'14'
p1258
aa(lp1259
S'Aminiasi Naituyaga'
p1260
aS'1972'
p1261
aS'Fullback'
p1262
aS'date unknown'
p1263
aS'5'
aS'0'
aS'0'
aS'9'
aa(lp1264
S'Rupeni Qaraniqio'
p1265
aS'1972'
p1266
aS'Flanker'
p1267
aS'circa 1946'
p1268
aS'20'
p1269
aS'8'
aS'1'
aS'4'
aa(lp1270
S'Dan Lobendhan'
p1271
aS'1973'
p1272
aS'Fly-half'
p1273
aS'Rakiraki'
p1274
aS'3'
aS'1'
aS'1'
aS'4'
aa(lp1275
S'Rodney Samuels'
p1276
aS'1973'
p1277
aS'Flanker'
p1278
aS'date unknown'
p1279
aS'6'
aS'1'
aS'0'
aS'0'
aa(lp1280
S'Joe Savou'
p1281
aS'1973'
p1282
aS'Fly-half'
p1283
aS'date unknown'
p1284
aS'1'
aS'0'
aS'0'
aS'0'
aa(lp1285
S'Tevita Raulumi'
p1286
aS'1973'
p1287
aS'Scrum-half'
p1288
aS'date unknown'
p1289
aS'1'
aS'0'
aS'0'
aS'0'
aa(lp1290
S'Peter Hughes'
p1291
aS'1973'
p1292
aS'Prop'
p1293
aS'date unknown'
p1294
aS'2'
aS'1'
aS'1'
aS'4'
aa(lp1295
S'Enele Malele'
p1296
aS'1973'
p1297
aS'No. 8'
p1298
aS'date unknown'
p1299
aS'1'
aS'1'
aS'0'
aS'0'
aa(lp1300
S'Emori Tudia'
p1301
aS'1973'
p1302
aS'Centre'
p1303
aS'date unknown'
p1304
aS'1'
aS'1'
aS'0'
aS'0'
aa(lp1305
S'Luke Namadila'
p1306
aS'1973'
p1307
aS'Centre'
p1308
aS'date unknown'
p1309
aS'4'
aS'1'
aS'0'
aS'0'
aa(lp1310
S'Seremaia Cavuilati'
p1311
aS'1974'
p1312
aS'Wing'
p1313
aS'date unknown'
p1314
aS'4'
aS'0'
aS'1'
aS'4'
aa(lp1315
S'Vilikesa Mocelutu'
p1316
aS'1974'
p1317
aS'No. 8'
p1318
aS'Toki'
p1319
aS'3'
aS'0'
aS'3'
aS'12'
p1320
aa(lp1321
S'Watisoni Nasalo'
p1322
aS'1974'
p1323
aS'Fly-half'
p1324
aS'date unknown'
p1325
aS'3'
aS'0'
aS'0'
aS'0'
aa(lp1326
S'Isikeli Tasere'
p1327
aS'1974'
p1328
aS'Prop'
p1329
aS'circa 1946'
p1330
aS'4'
aS'0'
aS'0'
aS'0'
aa(lp1331
S'Meli Masitabua'
p1332
aS'1974'
p1333
aS'Fly-half'
p1334
aS'date unknown'
p1335
aS'1'
aS'0'
aS'0'
aS'0'
aa(lp1336
S'Ilikimi Batibasaga'
p1337
aS'1974'
p1338
aS'Wing'
p1339
aS'date unknown'
p1340
aS'1'
aS'0'
aS'0'
aS'0'
aa(lp1341
S'Isikeli Cagilaba'
p1342
aS'1974'
p1343
aS'No. 8'
p1344
aS'date unknown'
p1345
aS'9'
aS'4'
aS'1'
aS'4'
aa(lp1346
S'Ilisoni Taoba'
p1347
aS'1974'
p1348
aS'Lock'
p1349
aS'date unknown'
p1350
aS'19'
p1351
aS'10'
p1352
aS'1'
aS'4'
aa(lp1353
S'Sefanaia Basiyalo'
p1354
aS'1976'
p1355
aS'Wing'
p1356
aS'date unknown'
p1357
aS'1'
aS'0'
aS'0'
aS'0'
aa(lp1358
S'Tomasi Latianara'
p1359
aS'1976'
p1360
aS'Wing'
p1361
aS'date unknown'
p1362
aS'1'
aS'0'
aS'0'
aS'0'
aa(lp1363
S'Ilai Nabobo'
p1364
aS'1976'
p1365
aS'Lock'
p1366
aS'date unknown'
p1367
aS'1'
aS'0'
aS'0'
aS'0'
aa(lp1368
S'Eroni Puamau'
p1369
aS'1976'
p1370
aS'Hooker'
p1371
aS'date unknown'
p1372
aS'1'
aS'0'
aS'0'
aS'0'
aa(lp1373
S'Tomu Ravualala'
p1374
aS'1976'
p1375
aS'Fly-half'
p1376
aS'date unknown'
p1377
aS'1'
aS'0'
aS'0'
aS'0'
aa(lp1378
S'Matereti Sarasau'
p1379
aS'1976'
p1380
aS'Prop'
p1381
aS'date unknown'
p1382
aS'1'
aS'0'
aS'0'
aS'0'
aa(lp1383
S'Nasoni Uluvula'
p1384
aS'1976'
p1385
aS'Lock'
p1386
aS'date unknown'
p1387
aS'18'
p1388
aS'5'
aS'3'
aS'12'
p1389
aa(lp1390
S'Livai Volavola'
p1391
aS'1976'
p1392
aS'Centre, Wing'
p1393
aS'date unknown'
p1394
aS'1'
aS'0'
aS'0'
aS'0'
aa(lp1395
S'Luke Nabaro'
p1396
aS'1976'
p1397
aS'Prop'
p1398
aS'date unknown'
p1399
aS'1'
aS'0'
aS'0'
aS'0'
aa(lp1400
S'Mosese Nailumu'
p1401
aS'1976'
p1402
aS'Scrum-half'
p1403
aS'date unknown'
p1404
aS'1'
aS'0'
aS'0'
aS'0'
aa(lp1405
S'Qele Ratu'
p1406
aS'1976'
p1407
aS'Centre'
p1408
aS'date unknown'
p1409
aS'5'
aS'4'
aS'1'
aS'4'
aa(lp1410
S'Peceli Kina'
p1411
aS'1976'
p1412
aS'Prop'
p1413
aS'date unknown'
p1414
aS'13'
p1415
aS'1'
aS'1'
aS'4'
aa(lp1416
S'Isoa Makutu'
p1417
aS'1976'
p1418
aS'Flanker'
p1419
aS'date unknown'
p1420
aS'3'
aS'0'
aS'0'
aS'0'
aa(lp1421
S'Viliame Ratudradra'
p1422
aS'1976'
p1423
aS'No. 8'
p1424
aS'date unknown'
p1425
aS'12'
p1426
aS'5'
aS'1'
aS'4'
aa(lp1427
S'Josefa Rauto'
p1428
aS'1976'
p1429
aS'Prop, Hooker'
p1430
aS'date unknown'
p1431
aS'21'
p1432
aS'10'
p1433
aS'4'
aS'50'
p1434
aa(lp1435
S'Jolame Veidreyaki'
p1436
aS'1976'
p1437
aS'Wing'
p1438
aS'date unknown'
p1439
aS'1'
aS'0'
aS'0'
aS'0'
aa(lp1440
S'Paula Waisake'
p1441
aS'1976'
p1442
aS'Scrum-half'
p1443
aS'date unknown'
p1444
aS'4'
aS'1'
aS'0'
aS'3'
aa(lp1445
S'Eroni Matalau'
p1446
aS'1976'
p1447
aS'Flanker'
p1448
aS'date unknown'
p1449
aS'2'
aS'0'
aS'1'
aS'4'
aa(lp1450
S'Samisoni Viriviri'
p1451
aS'1976'
p1452
aS'Fly-half, Scrum-half'
p1453
aS'date unknown'
p1454
aS'24'
p1455
aS'10'
p1456
aS'1'
aS'12'
p1457
aa(lp1458
S'Josaia Taqiri'
p1459
aS'1976'
p1460
aS'Lock'
p1461
aS'date unknown'
p1462
aS'1'
aS'0'
aS'0'
aS'0'
aa(lp1463
S'Robert Howard'
p1464
aS'1977'
p1465
aS'Wing'
p1466
aS'date unknown'
p1467
aS'3'
aS'3'
aS'1'
aS'4'
aa(lp1468
S'Joape Kuinikoro'
p1469
aS'1977'
p1470
aS'Wing'
p1471
aS'date unknown'
p1472
aS'11'
p1473
aS'6'
aS'9'
aS'36'
p1474
aa(lp1475
S'Kemueli Musunamasi'
p1476
aS'1977'
p1477
aS'Fullback'
p1478
aS'date unknown'
p1479
aS'8'
aS'6'
aS'0'
aS'34'
p1480
aa(lp1481
S'Vuata Narisia'
p1482
aS'1977'
p1483
aS'Flanker'
p1484
aS'date unknown'
p1485
aS'8'
aS'6'
aS'3'
aS'12'
p1486
aa(lp1487
S'Rabici Ganilau'
p1488
aS'1979'
p1489
aS'Lock'
p1490
aS'date unknown'
p1491
aS'3'
aS'0'
aS'0'
aS'0'
aa(lp1492
S'Taniela Nayate'
p1493
aS'1979'
p1494
aS'Wing'
p1495
aS'date unknown'
p1496
aS'3'
aS'0'
aS'1'
aS'4'
aa(lp1497
S'Esala Labalaba'
p1498
aS'1979'
p1499
aS'Fly-half'
p1500
aS'date unknown'
p1501
aS'12'
p1502
aS'4'
aS'6'
aS'24'
p1503
aa(lp1504
S'Pita Kewa Nacuva'
p1505
aS'1979'
p1506
aS'Fullback'
p1507
aS'date unknown'
p1508
aS'8'
aS'2'
aS'2'
aS'8'
aa(lp1509
S'Ilami Lutumailagi'
p1510
aS'1979'
p1511
aS'Flanker'
p1512
aS'date unknown'
p1513
aS'8'
aS'3'
aS'5'
aS'20'
p1514
aa(lp1515
S'Josua Rayawa'
p1516
aS'1979'
p1517
aS'Lock'
p1518
aS'date unknown'
p1519
aS'4'
aS'2'
aS'1'
aS'4'
aa(lp1520
S'Kini Vosailagi'
p1521
aS'1979'
p1522
aS'Wing, Centre'
p1523
aS'date unknown'
p1524
aS'11'
p1525
aS'4'
aS'0'
aS'0'
aa(lp1526
S'Tevita Makutu'
p1527
aS'1979'
p1528
aS'Wing'
p1529
aS'date unknown'
p1530
aS'15'
p1531
aS'7'
aS'8'
aS'32'
p1532
aa(lp1533
S'Simione Naiduki'
p1534
aS'1979'
p1535
aS'Flanker'
p1536
aS'date unknown'
p1537
aS'3'
aS'2'
aS'0'
aS'0'
aa(lp1538
S'Joketani Ravouvou'
p1539
aS'1979'
p1540
aS'Prop'
p1541
aS'date unknown'
p1542
aS'8'
aS'2'
aS'0'
aS'0'
aa(lp1543
S'Ilaitia Vai'
p1544
aS'1979'
p1545
aS'Centre'
p1546
aS'date unknown'
p1547
aS'1'
aS'0'
aS'0'
aS'0'
aa(lp1548
S'Iokimi Finau'
p1549
aS'1980'
p1550
aS'Flanker'
p1551
aS'date unknown'
p1552
aS'18'
p1553
aS'6'
aS'3'
aS'12'
p1554
aa(lp1555
S'Ilikimi Kunagogo'
p1556
aS'1980'
p1557
aS'Lock'
p1558
aS'date unknown'
p1559
aS'3'
aS'0'
aS'0'
aS'0'
aa(lp1560
S'Sanivalati Laulau'
p1561
aS'1980'
p1562
aS'Wing'
p1563
aS'date unknown'
p1564
aS'32'
p1565
aS'15'
p1566
aS'20'
p1567
aS'80'
p1568
aa(lp1569
S'Isimeli Radrodro'
p1570
aS'1980'
p1571
aS'Fly-half'
p1572
aS'date unknown'
p1573
aS'3'
aS'1'
aS'0'
aS'3'
aa(lp1574
S'Eneri Ratudradra'
p1575
aS'1980'
p1576
aS'Flanker'
p1577
aS'date unknown'
p1578
aS'8'
aS'2'
aS'0'
aS'0'
aa(lp1579
S'Tuimasi Tubananitu'
p1580
aS'1980'
p1581
aS'Prop'
p1582
aS'circa 1955'
p1583
aS'19'
p1584
aS'11'
p1585
aS'4'
aS'16'
p1586
aa(lp1587
S'Lemeki Vuetaki'
p1588
aS'1980'
p1589
aS'Fullback'
p1590
aS'date unknown'
p1591
aS'3'
aS'1'
aS'0'
aS'15'
p1592
aa(lp1593
S'Vesivesi Bose'
p1594
aS'1980'
p1595
aS'Utility back'
p1596
aS'date unknown'
p1597
aS'1'
aS'0'
aS'0'
aS'0'
aa(lp1598
S'Kameli Nayacalevu'
p1599
aS'1980'
p1600
aS'Centre'
p1601
aS'date unknown'
p1602
aS'15'
p1603
aS'8'
aS'5'
aS'20'
p1604
aa(lp1605
S'Kata Ratumuri'
p1606
aS'1980'
p1607
aS'Lock'
p1608
aS'date unknown'
p1609
aS'3'
aS'2'
aS'1'
aS'4'
aa(lp1610
S'Sunia Seru'
p1611
aS'1980'
p1612
aS'Hooker'
p1613
aS'date unknown'
p1614
aS'2'
aS'0'
aS'0'
aS'0'
aa(lp1615
S'Vikikesa Vatuwaliwali'
p1616
aS'1980'
p1617
aS'Flanker'
p1618
aS'circa 1956'
p1619
aS'16'
p1620
aS'7'
aS'0'
aS'0'
aa(lp1621
S'Isimeli Cerelala'
p1622
aS'1980'
p1623
aS'Lock'
p1624
aS'date unknown'
p1625
aS'2'
aS'0'
aS'0'
aS'0'
aa(lp1626
S'Jone Ratu'
p1627
aS'1980'
p1628
aS'Wing, Fly-half, Fullback'
p1629
aS'date unknown'
p1630
aS'11'
p1631
aS'4'
aS'0'
aS'6'
aa(lp1632
S'Navitalai Senilagakali'
p1633
aS'1980'
p1634
aS'Fly-half'
p1635
aS'date unknown'
p1636
aS'3'
aS'0'
aS'0'
aS'0'
aa(lp1637
S'Sunia Nadruku'
p1638
aS'1981'
p1639
aS'Back-row'
p1640
aS'date unknown'
p1641
aS'15'
p1642
aS'9'
aS'3'
aS'12'
p1643
aa(lp1644
S'Mosese Tamata'
p1645
aS'1981'
p1646
aS'Hooker'
p1647
aS'date unknown'
p1648
aS'8'
aS'5'
aS'1'
aS'4'
aa(lp1649
S'Netava Tamaya'
p1650
aS'1981'
p1651
aS'Fullback'
p1652
aS'date unknown'
p1653
aS'1'
aS'1'
aS'0'
aS'3'
aa(lp1654
S'Pio Tubui'
p1655
aS'1981'
p1656
aS'Fly-half'
p1657
aS'date unknown'
p1658
aS'2'
aS'2'
aS'0'
aS'0'
aa(lp1659
S'Dominiko Manaseitava'
p1660
aS'1981'
p1661
aS'Centre'
p1662
aS'date unknown'
p1663
aS'5'
aS'4'
aS'3'
aS'12'
p1664
aa(lp1665
S'Sani Tagivetaua'
p1666
aS'1981'
p1667
aS'Wing'
p1668
aS'date unknown'
p1669
aS'6'
aS'4'
aS'1'
aS'4'
aa(lp1670
S'Emosi Tatawaqa'
p1671
aS'1981'
p1672
aS'Flanker'
p1673
aS'date unknown'
p1674
aS'8'
aS'4'
aS'0'
aS'0'
aa(lp1675
S'Sakaraia Nacaka'
p1676
aS'1981'
p1677
aS'Wing'
p1678
aS'date unknown'
p1679
aS'4'
aS'1'
aS'0'
aS'0'
aa(lp1680
S'Esala Teleni'
p1681
aS'1982'
p1682
aS'No. 8'
p1683
aS'date unknown'
p1684
aS'23'
p1685
aS'9'
aS'8'
aS'32'
p1686
aa(lp1687
S'Sialeni Vuetaki'
p1688
aS'1982'
p1689
aS'Prop'
p1690
aS'date unknown'
p1691
aS'6'
aS'4'
aS'0'
aS'0'
aa(lp1692
S'Sela Gutugutuwai'
p1693
aS'1982'
p1694
aS'Flanker'
p1695
aS'date unknown'
p1696
aS'12'
p1697
aS'7'
aS'3'
aS'12'
p1698
aa(lp1699
S'Ilai Musunamasi'
p1700
aS'1982'
p1701
aS'Fullback'
p1702
aS'date unknown'
p1703
aS'4'
aS'2'
aS'0'
aS'22'
p1704
aa(lp1705
S'Willie Rokowailoa'
p1706
aS'1982'
p1707
aS'Fly-half'
p1708
aS'1958'
p1709
aS'17'
p1710
aS'9'
aS'3'
aS'66'
p1711
aa(lp1712
S'Peter Kean'
p1713
aS'1982'
p1714
aS'Hooker'
p1715
aS'date unknown'
p1716
aS'5'
aS'3'
aS'0'
aS'0'
aa(lp1717
S'Rusiate Namoro'
p1718
aS'1982'
p1719
aS'Hooker, Prop'
p1720
aS'date unknown'
p1721
aS'22'
p1722
aS'8'
aS'2'
aS'8'
aa(lp1723
S'Waisale Natuna'
p1724
aS'1982'
p1725
aS'Scrum-half'
p1726
aS'date unknown'
p1727
aS'2'
aS'1'
aS'0'
aS'0'
aa(lp1728
S'Lewis Politini'
p1729
aS'1982'
p1730
aS'Lock'
p1731
aS'Suva'
p1732
aS'4'
aS'1'
aS'1'
aS'4'
aa(lp1733
S'Setareki Vero'
p1734
aS'1982'
p1735
aS'Wing'
p1736
aS'date unknown'
p1737
aS'5'
aS'1'
aS'2'
aS'8'
aa(lp1738
S'Kaiava Salusalu'
p1739
aS'1982'
p1740
aS'Centre'
p1741
aS'circa 1957'
p1742
aS'14'
p1743
aS'8'
aS'9'
aS'36'
p1744
aa(lp1745
S'Severo Koroduadua Waqanibau'
p1746
aS'1982'
p1747
aS'Fullback'
p1748
aS'Galoa'
p1749
aS'27'
p1750
aS'10'
p1751
aS'0'
aS'268'
p1752
aa(lp1753
S'Isikeli Tikoduadua'
p1754
aS'1982'
p1755
aS'Wing'
p1756
aS'date unknown'
p1757
aS'3'
aS'0'
aS'0'
aS'0'
aa(lp1758
S'Josevata Naikidi'
p1759
aS'1982'
p1760
aS'Lock'
p1761
aS'date unknown'
p1762
aS'1'
aS'0'
aS'0'
aS'0'
aa(lp1763
S'Tiko Bucaonadi'
p1764
aS'1983'
p1765
aS'Prop'
p1766
aS'date unknown'
p1767
aS'2'
aS'1'
aS'0'
aS'0'
aa(lp1768
S'Paula Nawalu'
p1769
aS'1983'
p1770
aS'Scrum-half'
p1771
aS'circa 1962'
p1772
aS'17'
p1773
aS'6'
aS'1'
aS'7'
aa(lp1774
S'Koli Rokoroi'
p1775
aS'1983'
p1776
aS'Lock, No. 8'
p1777
aS'circa 1956'
p1778
aS'21'
p1779
aS'10'
p1780
aS'2'
aS'8'
aa(lp1781
S'Samu Yalayala'
p1782
aS'1983'
p1783
aS'Wing'
p1784
aS'date unknown'
p1785
aS'10'
p1786
aS'7'
aS'6'
aS'27'
p1787
aa(lp1788
S'Dusilele Bola'
p1789
aS'1983'
p1790
aS'Scrum-half'
p1791
aS'date unknown'
p1792
aS'6'
aS'3'
aS'0'
aS'0'
aa(lp1793
S'Acura Niuqila'
p1794
aS'1983'
p1795
aS'Wing'
p1796
aS'Wainibokasi'
p1797
aS'18'
p1798
aS'9'
aS'9'
aS'36'
p1799
aa(lp1800
S'Sairusi Tabualevu'
p1801
aS'1983'
p1802
aS'Hooker'
p1803
aS'date unknown'
p1804
aS'1'
aS'0'
aS'0'
aS'0'
aa(lp1805
S'Epali Rakai'
p1806
aS'1983'
p1807
aS'Hooker'
p1808
aS'circa 1961'
p1809
aS'17'
p1810
aS'7'
aS'0'
aS'0'
aa(lp1811
S'Sairusi Naituku'
p1812
aS'1983'
p1813
aS'Prop'
p1814
aS'circa 1961'
p1815
aS'18'
p1816
aS'8'
aS'1'
aS'4'
aa(lp1817
S'Emosi Katonitabua'
p1818
aS'1984'
p1819
aS'Centre'
p1820
aS'date unknown'
p1821
aS'6'
aS'3'
aS'0'
aS'0'
aa(lp1822
S'Peni Rauluni'
p1823
aS'1984'
p1824
aS'Centre'
p1825
aS'date unknown'
p1826
aS'5'
aS'3'
aS'2'
aS'8'
aa(lp1827
S'Epeli Turuva'
p1828
aS'1984'
p1829
aS'Fullback'
p1830
aS'date unknown'
p1831
aS'3'
aS'0'
aS'0'
aS'3'
aa(lp1832
S'Ilaitia Savai'
p1833
aS'1984'
p1834
aS'Lock'
p1835
aS'Nakalawaca'
p1836
aS'38'
p1837
aS'12'
p1838
aS'3'
aS'12'
p1839
aa(lp1840
S'Inoke Tabualevu'
p1841
aS'1984'
p1842
aS'Fullback'
p1843
aS'date unknown'
p1844
aS'2'
aS'1'
aS'0'
aS'5'
aa(lp1845
S'Isikeli Leweniqila'
p1846
aS'1984'
p1847
aS'Fly-half'
p1848
aS'date unknown'
p1849
aS'1'
aS'0'
aS'0'
aS'2'
aa(lp1850
S'Belasio Vukiwai'
p1851
aS'1984'
p1852
aS'Hooker'
p1853
aS'date unknown'
p1854
aS'1'
aS'0'
aS'0'
aS'0'
aa(lp1855
S'Peceli Gale'
p1856
aS'1984'
p1857
aS'No. 8'
p1858
aS'circa 1957'
p1859
aS'12'
p1860
aS'5'
aS'3'
aS'12'
p1861
aa(lp1862
S'Solomoni Rasolea'
p1863
aS'1984'
p1864
aS'Wing'
p1865
aS'date unknown'
p1866
aS'5'
aS'2'
aS'1'
aS'4'
aa(lp1867
S'Nemani Matirewa'
p1868
aS'1984'
p1869
aS'Flanker'
p1870
aS'date unknown'
p1871
aS'4'
aS'2'
aS'0'
aS'0'
aa(lp1872
S'Tevita Tukunia'
p1873
aS'1984'
p1874
aS'Fly-half'
p1875
aS'date unknown'
p1876
aS'1'
aS'1'
aS'0'
aS'0'
aa(lp1877
S'Manasa Saunaki'
p1878
aS'1984'
p1879
aS'Fullback'
p1880
aS'date unknown'
p1881
aS'1'
aS'0'
aS'0'
aS'0'
aa(lp1882
S'Asaeli Hughes'
p1883
aS'1985'
p1884
aS'Lock'
p1885
aS'date unknown'
p1886
aS'7'
aS'3'
aS'0'
aS'0'
aa(lp1887
S'Bruce Naulago'
p1888
aS'1985'
p1889
aS'Prop'
p1890
aS'date unknown'
p1891
aS'2'
aS'1'
aS'1'
aS'4'
aa(lp1892
S'Rusiate Cavubulu'
p1893
aS'1985'
p1894
aS'No. 8'
p1895
aS'date unknown'
p1896
aS'4'
aS'2'
aS'1'
aS'4'
aa(lp1897
S'Mosese Nabati'
p1898
aS'1985'
p1899
aS'Wing'
p1900
aS'date unknown'
p1901
aS'4'
aS'0'
aS'0'
aS'0'
aa(lp1902
S'Jo Qoro'
p1903
aS'1985'
p1904
aS'Flanker'
p1905
aS'date unknown'
p1906
aS'1'
aS'0'
aS'0'
aS'0'
aa(lp1907
S'Tomasi Cama'
p1908
aS'1985'
p1909
aS'Centre'
p1910
aS'circa 1961'
p1911
aS'13'
p1912
aS'4'
aS'2'
aS'8'
aa(lp1913
S'Semi Talawadua'
p1914
aS'1985'
p1915
aS'Fly-half'
p1916
aS'date unknown'
p1917
aS'1'
aS'0'
aS'1'
aS'4'
aa(lp1918
S'Serupepeli Tuvula'
p1919
aS'1985'
p1920
aS'Wing'
p1921
aS'circa 1963'
p1922
aS'7'
aS'1'
aS'2'
aS'8'
aa(lp1923
S'Aliposo Waqaliti'
p1924
aS'1985'
p1925
aS'Flanker'
p1926
aS'date unknown'
p1927
aS'1'
aS'0'
aS'0'
aS'0'
aa(lp1928
S'Jimi Damu'
p1929
aS'1985'
p1930
aS'Wing'
p1931
aS'1962'
p1932
aS'4'
aS'0'
aS'1'
aS'14'
p1933
aa(lp1934
S'Peni Volavola'
p1935
aS'1985'
p1936
aS'Prop'
p1937
aS'1963'
p1938
aS'11'
p1939
aS'4'
aS'0'
aS'0'
aa(lp1940
S'Jone Kubu'
p1941
aS'1985'
p1942
aS'Fullback'
p1943
aS'circa 1961'
p1944
aS'11'
p1945
aS'4'
aS'0'
aS'6'
aa(lp1946
S'Savenaca Aria'
p1947
aS'1986'
p1948
aS'Centre'
p1949
aS'1964'
p1950
aS'10'
p1951
aS'1'
aS'2'
aS'8'
aa(lp1952
S'Alifereti Dere Ratu'
p1953
aS'1986'
p1954
aS'Flanker'
p1955
aS'1961'
p1956
aS'12'
p1957
aS'4'
aS'0'
aS'0'
aa(lp1958
S'Sirilo Lovokuru'
p1959
aS'1986'
p1960
aS'Fly-half, Centre'
p1961
aS'circa 1965'
p1962
aS'4'
aS'2'
aS'1'
aS'24'
p1963
aa(lp1964
S'Ifereimi Tawake'
p1965
aS'1986'
p1966
aS'Lock, Flanker'
p1967
aS'Sigatoka'
p1968
aS'46'
p1969
aS'16'
p1970
aS'4'
aS'25'
p1971
aa(lp1972
S'Saula Bueta'
p1973
aS'1986'
p1974
aS'Flanker'
p1975
aS'1963'
p1976
aS'1'
aS'0'
aS'0'
aS'0'
aa(lp1977
S'Osea Koliloa'
p1978
aS'1986'
p1979
aS'Flanker'
p1980
aS'circa 1959'
p1981
aS'3'
aS'2'
aS'1'
aS'4'
aa(lp1982
S'Viliame Lilidamu'
p1983
aS'1986'
p1984
aS'Wing'
p1985
aS'date unknown'
p1986
aS'3'
aS'2'
aS'0'
aS'0'
aa(lp1987
S'Tom Mitchell'
p1988
aS'1986'
p1989
aS'Centre, Wing'
p1990
aS'Taveuni'
p1991
aS'11'
p1992
aS'5'
aS'6'
aS'24'
p1993
aa(lp1994
S'Salacieli Naivilawasa'
p1995
aS'1986'
p1996
aS'Hooker'
p1997
aS'1961'
p1998
aS'21'
p1999
aS'9'
aS'2'
aS'8'
aa(lp2000
S'Pauliasi Tabulutu'
p2001
aS'1986'
p2002
aS'Scrum-half'
p2003
aS'1965'
p2004
aS'18'
p2005
aS'9'
aS'1'
aS'4'
aa(lp2006
S'Waisake Turaga'
p2007
aS'1986'
p2008
aS'Fly-half'
p2009
aS'date unknown'
p2010
aS'1'
aS'0'
aS'0'
aS'0'
aa(lp2011
S'Fabiano Vakadrano'
p2012
aS'1986'
p2013
aS'Wing'
p2014
aS'date unknown'
p2015
aS'1'
aS'0'
aS'0'
aS'0'
aa(lp2016
S'Kavekini Nalaga'
p2017
aS'1986'
p2018
aS'Wing'
p2019
aS'circa 1965'
p2020
aS'3'
aS'3'
aS'1'
aS'4'
aa(lp2021
S'Ilaitia Ravouvou'
p2022
aS'1986'
p2023
aS'Fly-half, Wing'
p2024
aS'circa 1965'
p2025
aS'4'
aS'4'
aS'3'
aS'12'
p2026
aa(lp2027
S'Peni Tora'
p2028
aS'1986'
p2029
aS'Flanker'
p2030
aS'date unknown'
p2031
aS'2'
aS'2'
aS'0'
aS'0'
aa(lp2032
S'Epineri Naituku'
p2033
aS'1987'
p2034
aS'Centre'
p2035
aS'date unknown'
p2036
aS'2'
aS'1'
aS'0'
aS'0'
aa(lp2037
S'Manasa Qoro'
p2038
aS'1987'
p2039
aS'Flanker'
p2040
aS'circa 1965'
p2041
aS'4'
aS'2'
aS'2'
aS'11'
p2042
aa(lp2043
S'John Sanday'
p2044
aS'1987'
p2045
aS'Lock, No. 8'
p2046
aS'circa 1960'
p2047
aS'2'
aS'1'
aS'0'
aS'0'
aa(lp2048
S'Samu Vunivalu'
p2049
aS'1987'
p2050
aS'Flanker'
p2051
aS'circa 1957'
p2052
aS'3'
aS'1'
aS'0'
aS'0'
aa(lp2053
S'Jioji Cama'
p2054
aS'1987'
p2055
aS'Lock'
p2056
aS'date unknown'
p2057
aS'1'
aS'0'
aS'1'
aS'4'
aa(lp2058
S'Livai Kididromo'
p2059
aS'1987'
p2060
aS'Flanker'
p2061
aS'circa 1959'
p2062
aS'4'
aS'0'
aS'0'
aS'0'
aa(lp2063
S'Mosese Taga'
p2064
aS'1987'
p2065
aS'Prop, Hooker'
p2066
aS'Nailaga'
p2067
aS'34'
p2068
aS'13'
p2069
aS'1'
aS'4'
aa(lp2070
S'Aisake Nadolo'
p2071
aS'1987'
p2072
aS'Lock'
p2073
aS'1964'
p2074
aS'23'
p2075
aS'8'
aS'1'
aS'5'
aa(lp2076
S'Tukeli Nakauta'
p2077
aS'1987'
p2078
aS'Flanker'
p2079
aS'date unknown'
p2080
aS'3'
aS'3'
aS'0'
aS'0'
aa(lp2081
S'Niko Baleiverata'
p2082
aS'1988'
p2083
aS'Wing'
p2084
aS'date unknown'
p2085
aS'4'
aS'2'
aS'0'
aS'0'
aa(lp2086
S'Kini Malai'
p2087
aS'1988'
p2088
aS'Fly-half'
p2089
aS'date unknown'
p2090
aS'3'
aS'2'
aS'1'
aS'4'
aa(lp2091
S'Noa Nadruku'
p2092
aS'1988'
p2093
aS'Centre'
p2094
aS'1967'
p2095
aS'13'
p2096
aS'5'
aS'2'
aS'8'
aa(lp2097
S'Ilisoni Naituku'
p2098
aS'1988'
p2099
aS'Prop'
p2100
aS'date unknown'
p2101
aS'7'
aS'2'
aS'0'
aS'0'
aa(lp2102
S'Pita Naruma'
p2103
aS'1988'
p2104
aS'Flanker'
p2105
aS'1959'
p2106
aS'15'
p2107
aS'4'
aS'1'
aS'4'
aa(lp2108
S'Max Olsson'
p2109
aS'1988'
p2110
aS'No. 8, Lock'
p2111
aS'1967'
p2112
aS'7'
aS'3'
aS'3'
aS'12'
p2113
aa(lp2114
S'Mesake Rasari'
p2115
aS'1988'
p2116
aS'Lock'
p2117
aS'date unknown'
p2118
aS'10'
p2119
aS'4'
aS'4'
aS'16'
p2120
aa(lp2121
S'Kinijoji Sarai'
p2122
aS'1988'
p2123
aS'Fullback'
p2124
aS'date unknown'
p2125
aS'3'
aS'2'
aS'0'
aS'24'
p2126
aa(lp2127
S'Sakeasi Vonalagi'
p2128
aS'1988'
p2129
aS'Back-row'
p2130
aS'1965'
p2131
aS'9'
aS'2'
aS'2'
aS'9'
aa(lp2132
S'Mesake Seavula'
p2133
aS'1988'
p2134
aS'Scrum-half'
p2135
aS'date unknown'
p2136
aS'3'
aS'2'
aS'1'
aS'4'
aa(lp2137
S'John Edwards'
p2138
aS'1988'
p2139
aS'Fly-half'
p2140
aS'date unknown'
p2141
aS'1'
aS'0'
aS'0'
aS'0'
aa(lp2142
S'Aporosa Ranuku Kenatale'
p2143
aS'1988'
p2144
aS'Prop'
p2145
aS'date unknown'
p2146
aS'1'
aS'0'
aS'0'
aS'0'
aa(lp2147
S'Waisale Vatubua'
p2148
aS'1988'
p2149
aS'Wing'
p2150
aS'date unknown'
p2151
aS'2'
aS'1'
aS'2'
aS'8'
aa(lp2152
S'Meli Radrekusa'
p2153
aS'1988'
p2154
aS'Lock'
p2155
aS'1969'
p2156
aS'1'
aS'1'
aS'0'
aS'0'
aa(lp2157
S'Tevita Vonolagi'
p2158
aS'1988'
p2159
aS'Wing'
p2160
aS'1963'
p2161
aS'16'
p2162
aS'7'
aS'7'
aS'42'
p2163
aa(lp2164
S'Luke Erenavula'
p2165
aS'1989'
p2166
aS'Wing'
p2167
aS'1965'
p2168
aS'7'
aS'3'
aS'2'
aS'8'
aa(lp2169
S'Aminiasi Radrodro'
p2170
aS'1989'
p2171
aS'Fly-half'
p2172
aS'date unknown'
p2173
aS'2'
aS'1'
aS'0'
aS'0'
aa(lp2174
S'Isikeli Waqavatu'
p2175
aS'1989'
p2176
aS'Wing'
p2177
aS'date unknown'
p2178
aS'4'
aS'2'
aS'2'
aS'8'
aa(lp2179
S'Joeli Vulavou'
p2180
aS'1989'
p2181
aS'Scrum-half'
p2182
aS'date unknown'
p2183
aS'1'
aS'0'
aS'0'
aS'0'
aa(lp2184
S'Waisale Serevi'
p2185
aS'1989'
p2186
aS'Fullback, Centre, Fly-half'
p2187
aS'Suva'
p2188
aS'38'
p2189
aS'15'
p2190
aS'11'
p2191
aS'221'
p2192
aa(lp2193
S'Tomasi Lovo'
p2194
aS'1989'
p2195
aS'Fly-half, Wing'
p2196
aS'1960'
p2197
aS'9'
aS'2'
aS'1'
aS'8'
aa(lp2198
S'Lekima Vasuvulagi'
p2199
aS'1989'
p2200
aS'Scrum-half'
p2201
aS'date unknown'
p2202
aS'3'
aS'1'
aS'0'
aS'0'
aa(lp2203
S'Mosese Natuilagilagi'
p2204
aS'1989'
p2205
aS'Fullback'
p2206
aS'date unknown'
p2207
aS'8'
aS'3'
aS'3'
aS'14'
p2208
aa(lp2209
S'Vuata Narisia'
p2210
aS'1990'
p2211
aS'Fly-half'
p2212
aS'date unknown'
p2213
aS'2'
aS'2'
aS'0'
aS'0'
aa(lp2214
S'Alipate Rabitu'
p2215
aS'1990'
p2216
aS'Hooker'
p2217
aS'date unknown'
p2218
aS'5'
aS'1'
aS'0'
aS'0'
aa(lp2219
S'Ilie Tabua Tamanivalu'
p2220
aS'1990'
p2221
aS'Flanker'
p2222
aS'Naivicula'
p2223
aS'26'
p2224
aS'19'
p2225
aS'3'
aS'15'
p2226
aa(lp2227
S'Timoci Wainiqolo'
p2228
aS'1990'
p2229
aS'Flanker'
p2230
aS'1964'
p2231
aS'5'
aS'4'
aS'1'
aS'4'
aa(lp2232
S'Sunia Banuve'
p2233
aS'1990'
p2234
aS'Centre'
p2235
aS'date unknown'
p2236
aS'1'
aS'1'
aS'0'
aS'0'
aa(lp2237
S'Epeli Naituivau'
p2238
aS'1990'
p2239
aS'Prop'
p2240
aS'1962'
p2241
aS'22'
p2242
aS'9'
aS'2'
aS'9'
aa(lp2243
S'Fili Seru'
p2244
aS'1990'
p2245
aS'Wing'
p2246
aS'1970'
p2247
aS'10'
p2248
aS'4'
aS'4'
aS'16'
p2249
aa(lp2250
S'Vesito Rauluni'
p2251
aS'1990'
p2252
aS'Centre, Wing'
p2253
aS'1965'
p2254
aS'4'
aS'1'
aS'2'
aS'8'
aa(lp2255
S'Dranivesi Baleiwei'
p2256
aS'1990'
p2257
aS'Hooker'
p2258
aS'1964'
p2259
aS'5'
aS'2'
aS'0'
aS'0'
aa(lp2260
S'Sam Domoni'
p2261
aS'1990'
p2262
aS'Lock'
p2263
aS'1968'
p2264
aS'6'
aS'3'
aS'0'
aS'0'
aa(lp2265
S'Niumaia Korovata'
p2266
aS'1990'
p2267
aS'Wing'
p2268
aS'date unknown'
p2269
aS'3'
aS'2'
aS'4'
aS'16'
p2270
aa(lp2271
S'Waisea Suka'
p2272
aS'1990'
p2273
aS'Scrum-half'
p2274
aS'date unknown'
p2275
aS'3'
aS'1'
aS'1'
aS'14'
p2276
aa(lp2277
S'Opeti Turuva'
p2278
aS'1990'
p2279
aS'Fullback'
p2280
aS'1967'
p2281
aS'11'
p2282
aS'4'
aS'1'
aS'58'
p2283
aa(lp2284
S'Pio Kubuwai'
p2285
aS'1991'
p2286
aS'Flanker'
p2287
aS'date unknown'
p2288
aS'2'
aS'1'
aS'1'
aS'4'
aa(lp2289
S'Kalaveti Naisoro'
p2290
aS'1991'
p2291
aS'Centre'
p2292
aS'1969'
p2293
aS'5'
aS'2'
aS'2'
aS'8'
aa(lp2294
S'Tomasi Rabaka'
p2295
aS'1991'
p2296
aS'Fly-half'
p2297
aS'1965'
p2298
aS'4'
aS'2'
aS'1'
aS'24'
p2299
aa(lp2300
S'Sekove Sadria'
p2301
aS'1991'
p2302
aS'Prop'
p2303
aS'1965'
p2304
aS'7'
aS'1'
aS'0'
aS'0'
aa(lp2305
S'Pita Dau'
p2306
aS'1991'
p2307
aS'Fly-half'
p2308
aS'date unknown'
p2309
aS'3'
aS'1'
aS'0'
aS'12'
p2310
aa(lp2311
S'Laisenia Katonawale'
p2312
aS'1991'
p2313
aS'Flanker'
p2314
aS'1966'
p2315
aS'4'
aS'2'
aS'0'
aS'0'
aa(lp2316
S'Joeli Taqaiwai'
p2317
aS'1991'
p2318
aS'Wing, Centre'
p2319
aS'1964'
p2320
aS'2'
aS'1'
aS'1'
aS'4'
aa(lp2321
S'Mosese Vosanibole'
p2322
aS'1991'
p2323
aS'Scrum-half'
p2324
aS'1962'
p2325
aS'2'
aS'1'
aS'0'
aS'0'
aa(lp2326
S'Naibuka Vuli'
p2327
aS'1991'
p2328
aS'Prop'
p2329
aS'1960'
p2330
aS'5'
aS'1'
aS'0'
aS'0'
aa(lp2331
S'Lemeki Koroi'
p2332
aS'1992'
p2333
aS'Centre'
p2334
aS'1969'
p2335
aS'4'
aS'1'
aS'0'
aS'0'
aa(lp2336
S'Sami Rabaka Nasagavesi'
p2337
aS'1992'
p2338
aS'Scrum-half'
p2339
aS'Nadi'
p2340
aS'29'
p2341
aS'15'
p2342
aS'3'
aS'14'
p2343
aa(lp2344
S'Isaia Rasila'
p2345
aS'1992'
p2346
aS'Prop, Hooker'
p2347
aS'Vunavutu'
p2348
aS'34'
p2349
aS'18'
p2350
aS'2'
aS'10'
p2351
aa(lp2352
S'Viliame Rauluni'
p2353
aS'1992'
p2354
aS'Centre'
p2355
aS'date unknown'
p2356
aS'3'
aS'1'
aS'0'
aS'0'
aa(lp2357
S'Viliame Sovalevu'
p2358
aS'1992'
p2359
aS'Wing'
p2360
aS'date unknown'
p2361
aS'2'
aS'0'
aS'0'
aS'0'
aa(lp2362
S'Seta Tawake Naivaluwaqa'
p2363
aS'1992'
p2364
aS'Flanker'
p2365
aS'1969'
p2366
aS'22'
p2367
aS'11'
p2368
aS'2'
aS'10'
p2369
aa(lp2370
S'Mesake Navugona'
p2371
aS'1992'
p2372
aS'Wing'
p2373
aS'date unknown'
p2374
aS'2'
aS'0'
aS'0'
aS'0'
aa(lp2375
S'Sakeasi Verevuni'
p2376
aS'1992'
p2377
aS'Prop'
p2378
aS'date unknown'
p2379
aS'2'
aS'0'
aS'0'
aS'0'
aa(lp2380
S'Anasa Koroitamana'
p2381
aS'1992'
p2382
aS'Scrum-half'
p2383
aS'date unknown'
p2384
aS'1'
aS'0'
aS'0'
aS'0'
aa(lp2385
S'Gabirieli Naborisi'
p2386
aS'1992'
p2387
aS'Flanker'
p2388
aS'date unknown'
p2389
aS'1'
aS'0'
aS'0'
aS'0'
aa(lp2390
S'Eliki Tikodraubuta'
p2391
aS'1992'
p2392
aS'Utility back'
p2393
aS'date unknown'
p2394
aS'1'
aS'0'
aS'0'
aS'6'
aa(lp2395
S'Jioji Vatubua'
p2396
aS'1992'
p2397
aS'Centre'
p2398
aS'date unknown'
p2399
aS'1'
aS'0'
aS'0'
aS'0'
aa(lp2400
S'Aisea Komaitai'
p2401
aS'1992'
p2402
aS'Wing'
p2403
aS'date unknown'
p2404
aS'3'
aS'0'
aS'0'
aS'0'
aa(lp2405
S'Esala Nauga'
p2406
aS'1992'
p2407
aS'Centre'
p2408
aS'1967'
p2409
aS'8'
aS'1'
aS'0'
aS'0'
aa(lp2410
S'Eparama Tuivunivono'
p2411
aS'1992'
p2412
aS'Flanker'
p2413
aS'1967'
p2414
aS'5'
aS'1'
aS'0'
aS'0'
aa(lp2415
S'Joeli Matanatabu'
p2416
aS'1993'
p2417
aS'Flanker'
p2418
aS'date unknown'
p2419
aS'2'
aS'0'
aS'0'
aS'0'
aa(lp2420
S'Waisea Mateiwai'
p2421
aS'1993'
p2422
aS'Centre'
p2423
aS'date unknown'
p2424
aS'3'
aS'1'
aS'0'
aS'0'
aa(lp2425
S'Apenisa Sassen'
p2426
aS'1993'
p2427
aS'Hooker'
p2428
aS'date unknown'
p2429
aS'1'
aS'1'
aS'0'
aS'0'
aa(lp2430
S'Eminoni Batimala'
p2431
aS'1994'
p2432
aS'Hooker'
p2433
aS'1970'
p2434
aS'12'
p2435
aS'4'
aS'1'
aS'5'
aa(lp2436
S'Jonas Campbell'
p2437
aS'1994'
p2438
aS'Flanker'
p2439
aS'date unknown'
p2440
aS'6'
aS'1'
aS'0'
aS'0'
aa(lp2441
S'Maka Kafoa'
p2442
aS'1994'
p2443
aS'Lock'
p2444
aS'date unknown'
p2445
aS'2'
aS'0'
aS'0'
aS'0'
aa(lp2446
S'Alfi Mocelutu Vuivau'
p2447
aS'1994'
p2448
aS'No. 8'
p2449
aS'1971'
p2450
aS'36'
p2451
aS'17'
p2452
aS'4'
aS'20'
p2453
aa(lp2454
S'Apisai Mucunabitu'
p2455
aS'1994'
p2456
aS'Centre'
p2457
aS'date unknown'
p2458
aS'2'
aS'0'
aS'0'
aS'0'
aa(lp2459
S'Gabrieli Penjueli'
p2460
aS'1994'
p2461
aS'Hooker'
p2462
aS'date unknown'
p2463
aS'1'
aS'0'
aS'0'
aS'0'
aa(lp2464
S'Ilaisa Saukuru'
p2465
aS'1994'
p2466
aS'Fullback'
p2467
aS'date unknown'
p2468
aS'3'
aS'0'
aS'0'
aS'8'
aa(lp2469
S'Manasa Sisiwa'
p2470
aS'1994'
p2471
aS'Wing'
p2472
aS'date unknown'
p2473
aS'1'
aS'0'
aS'1'
aS'5'
aa(lp2474
S'Pat Tuidraki'
p2475
aS'1994'
p2476
aS'Wing'
p2477
aS'Lautoka'
p2478
aS'25'
p2479
aS'8'
aS'10'
p2480
aS'50'
p2481
aa(lp2482
S'Isikeli Basiyalo'
p2483
aS'1994'
p2484
aS'Lock'
p2485
aS'date unknown'
p2486
aS'6'
aS'0'
aS'0'
aS'0'
aa(lp2487
S'Aloesi Elder'
p2488
aS'1994'
p2489
aS'Fly-half'
p2490
aS'date unknown'
p2491
aS'1'
aS'0'
aS'0'
aS'0'
aa(lp2492
S'Livai Rasala'
p2493
aS'1994'
p2494
aS'Prop'
p2495
aS'date unknown'
p2496
aS'2'
aS'0'
aS'0'
aS'0'
aa(lp2497
S'Joeli Vidiri'
p2498
aS'1994'
p2499
aS'Wing'
p2500
aS'Nausori Highland'
p2501
aS'9'
aS'2'
aS'6'
aS'30'
p2502
aa(lp2503
S'Napolini Vitau'
p2504
aS'1994'
p2505
aS'Scrum-half'
p2506
aS'date unknown'
p2507
aS'2'
aS'0'
aS'0'
aS'0'
aa(lp2508
S'Rasolosolo Bogisa'
p2509
aS'1994'
p2510
aS'Prop'
p2511
aS'Nadi'
p2512
aS'4'
aS'0'
aS'0'
aS'3'
aa(lp2513
S'Jason McLennan'
p2514
aS'1994'
p2515
aS'Scrum-half'
p2516
aS'1973'
p2517
aS'9'
aS'4'
aS'0'
aS'0'
aa(lp2518
S'Sitaveni Matalulu'
p2519
aS'1994'
p2520
aS'Flanker'
p2521
aS'date unknown'
p2522
aS'3'
aS'1'
aS'0'
aS'0'
aa(lp2523
S'Filipe Rayasi'
p2524
aS'1994'
p2525
aS'Fullback'
p2526
aS'1969'
p2527
aS'13'
p2528
aS'4'
aS'4'
aS'20'
p2529
aa(lp2530
S'Joni Toloi'
p2531
aS'1994'
p2532
aS'Centre'
p2533
aS'date unknown'
p2534
aS'4'
aS'1'
aS'0'
aS'0'
aa(lp2535
S'Joeli Veitayaki'
p2536
aS'1994'
p2537
aS'Prop'
p2538
aS'Matuku'
p2539
aS'49'
p2540
aS'26'
p2541
aS'3'
aS'15'
p2542
aa(lp2543
S'Ron Williams'
p2544
aS'1994'
p2545
aS'Prop'
p2546
aS'date unknown'
p2547
aS'4'
aS'1'
aS'0'
aS'0'
aa(lp2548
S'Marika Korovou'
p2549
aS'1994'
p2550
aS'Flanker'
p2551
aS'1971'
p2552
aS'4'
aS'1'
aS'0'
aS'0'
aa(lp2553
S'Paula Bale'
p2554
aS'1995'
p2555
aS'Wing'
p2556
aS'1965'
p2557
aS'5'
aS'1'
aS'1'
aS'5'
aa(lp2558
S'Lawrence Little'
p2559
aS'1995'
p2560
aS'Centre'
p2561
aS'Tokoroa'
p2562
aS'16'
p2563
aS'8'
aS'1'
aS'5'
aa(lp2564
S'Dan Rouse'
p2565
aS'1995'
p2566
aS'Prop'
p2567
aS'Suva'
p2568
aS'28'
p2569
aS'15'
p2570
aS'1'
aS'5'
aa(lp2571
S'Sale Sorovaki'
p2572
aS'1995'
p2573
aS'Centre'
p2574
aS'Kadavu'
p2575
aS'19'
p2576
aS'8'
aS'2'
aS'10'
p2577
aa(lp2578
S'Emori Katalau'
p2579
aS'1995'
p2580
aS'Lock'
p2581
aS'Rakiraki'
p2582
aS'48'
p2583
aS'25'
p2584
aS'4'
aS'20'
p2585
aa(lp2586
S'Jacob Rauluni'
p2587
aS'1995'
p2588
aS'Scrum-half'
p2589
aS'Suva'
p2590
aS'49'
p2591
aS'26'
p2592
aS'6'
aS'30'
p2593
aa(lp2594
S'Manasa Bari'
p2595
aS'1995'
p2596
aS'Wing'
p2597
aS'1974'
p2598
aS'18'
p2599
aS'9'
aS'12'
p2600
aS'60'
p2601
aa(lp2602
S'Billy Cavubati'
p2603
aS'1995'
p2604
aS'Prop'
p2605
aS'Ba'
p2606
aS'27'
p2607
aS'13'
p2608
aS'0'
aS'0'
aa(lp2609
S'Waisiki Masirewa Loco'
p2610
aS'1995'
p2611
aS'Flanker'
p2612
aS'1966'
p2613
aS'5'
aS'1'
aS'1'
aS'5'
aa(lp2614
S'Greg Smith'
p2615
aS'1995'
p2616
aS'Hooker'
p2617
aS'Hamilton'
p2618
aS'44'
p2619
aS'24'
p2620
aS'1'
aS'5'
aa(lp2621
S'Tomasi Tamanivalu'
p2622
aS'1995'
p2623
aS'Flanker'
p2624
aS'date unknown'
p2625
aS'8'
aS'3'
aS'0'
aS'0'
aa(lp2626
S'Jone Waqabitu'
p2627
aS'1995'
p2628
aS'Fullback'
p2629
aS'Sigatoka'
p2630
aS'17'
p2631
aS'8'
aS'4'
aS'28'
p2632
aa(lp2633
S'Mark Black'
p2634
aS'1996'
p2635
aS'Lock'
p2636
aS'date unknown'
p2637
aS'4'
aS'2'
aS'1'
aS'5'
aa(lp2638
S'Nicky Little'
p2639
aS'1996'
p2640
aS'Fly-half'
p2641
aS'Tokoroa'
p2642
aS'71'
p2643
aS'37'
p2644
aS'2'
aS'670'
p2645
aa(lp2646
S'Aisea Tuilevu Kurimudu'
p2647
aS'1996'
p2648
aS'Wing'
p2649
aS'Sigatoka'
p2650
aS'19'
p2651
aS'10'
p2652
aS'13'
p2653
aS'65'
p2654
aa(lp2655
S'Alfie Uluinayau'
p2656
aS'1996'
p2657
aS'Fullback, Centre'
p2658
aS'Suva'
p2659
aS'30'
p2660
aS'17'
p2661
aS'6'
aS'32'
p2662
aa(lp2663
S'Sunia Nasilasila'
p2664
aS'1996'
p2665
aS'Wing'
p2666
aS'date unknown'
p2667
aS'2'
aS'2'
aS'1'
aS'5'
aa(lp2668
S'Apenisa Naevo'
p2669
aS'1996'
p2670
aS'Lock, Flanker'
p2671
aS'Nadi'
p2672
aS'34'
p2673
aS'20'
p2674
aS'6'
aS'30'
p2675
aa(lp2676
S'Niko Qoro'
p2677
aS'1996'
p2678
aS'Prop'
p2679
aS'Tavua'
p2680
aS'10'
p2681
aS'6'
aS'0'
aS'0'
aa(lp2682
S'A. Naqicu'
p2683
aS'1996'
p2684
aS''
aS'date unknown'
p2685
aS'2'
aS'2'
aS'1'
aS'5'
aa(lp2686
S'Setoki Niqara'
p2687
aS'1996'
p2688
aS'Lock'
p2689
aS'1971'
p2690
aS'2'
aS'1'
aS'1'
aS'5'
aa(lp2691
S'Jone Vakaloloma'
p2692
aS'1996'
p2693
aS'Scrum-half'
p2694
aS'1968'
p2695
aS'1'
aS'1'
aS'0'
aS'0'
aa(lp2696
S'Ilaitia Vuiyasawa'
p2697
aS'1996'
p2698
aS'Fly-half'
p2699
aS'date unknown'
p2700
aS'1'
aS'1'
aS'0'
aS'0'
aa(lp2701
S'Moses Rauluni'
p2702
aS'1996'
p2703
aS'Scrum-half'
p2704
aS'Suva'
p2705
aS'53'
p2706
aS'24'
p2707
aS'4'
aS'20'
p2708
aa(lp2709
S'Fero Lasagavibau'
p2710
aS'1997'
p2711
aS'Wing'
p2712
aS'1976'
p2713
aS'23'
p2714
aS'11'
p2715
aS'16'
p2716
aS'80'
p2717
aa(lp2718
S'Aminiasi Naituyaga'
p2719
aS'1997'
p2720
aS'Flanker'
p2721
aS'1973'
p2722
aS'4'
aS'2'
aS'0'
aS'0'
aa(lp2723
S'Simon Raiwalui'
p2724
aS'1997'
p2725
aS'Lock'
p2726
aS'Auckland'
p2727
aS'46'
p2728
aS'26'
p2729
aS'4'
aS'20'
p2730
aa(lp2731
S'Meli Tamanitoakula'
p2732
aS'1998'
p2733
aS'Flanker'
p2734
aS'date unknown'
p2735
aS'3'
aS'1'
aS'0'
aS'0'
aa(lp2736
S'Sikeli Nasau'
p2737
aS'1998'
p2738
aS'Hooker, Prop'
p2739
aS'Lautoka'
p2740
aS'1'
aS'1'
aS'0'
aS'0'
aa(lp2741
S'Samu Saumaisue'
p2742
aS'1998'
p2743
aS'Flanker'
p2744
aS'date unknown'
p2745
aS'3'
aS'2'
aS'0'
aS'0'
aa(lp2746
S'Meli Nakauta'
p2747
aS'1998'
p2748
aS'Centre'
p2749
aS'1969'
p2750
aS'9'
aS'6'
aS'1'
aS'5'
aa(lp2751
S'Inoke Male'
p2752
aS'1998'
p2753
aS'No. 8'
p2754
aS'1965'
p2755
aS'15'
p2756
aS'10'
p2757
aS'1'
aS'5'
aa(lp2758
S'Aparama Bosekora'
p2759
aS'1998'
p2760
aS'Wing'
p2761
aS'1968'
p2762
aS'1'
aS'1'
aS'0'
aS'0'
aa(lp2763
S'Viliame Satala'
p2764
aS'1999'
p2765
aS'Centre'
p2766
aS'Lautoka'
p2767
aS'29'
p2768
aS'14'
p2769
aS'16'
p2770
aS'80'
p2771
aa(lp2772
S'Koli Sewabu'
p2773
aS'1999'
p2774
aS'Back-row'
p2775
aS'Suva'
p2776
aS'24'
p2777
aS'14'
p2778
aS'3'
aS'15'
p2779
aa(lp2780
S'Waisake Sotutu'
p2781
aS'1999'
p2782
aS'Wing, Centre'
p2783
aS'Suva'
p2784
aS'12'
p2785
aS'8'
aS'2'
aS'10'
p2786
aa(lp2787
S'Marika Vunibaka'
p2788
aS'1999'
p2789
aS'Wing'
p2790
aS'Suva'
p2791
aS'17'
p2792
aS'11'
p2793
aS'8'
aS'40'
p2794
aa(lp2795
S'Manu Tikomaimakogai'
p2796
aS'1999'
p2797
aS'Wing'
p2798
aS'Nausori'
p2799
aS'11'
p2800
aS'7'
aS'9'
aS'45'
p2801
aa(lp2802
S'Jope Tuikabe'
p2803
aS'1999'
p2804
aS'Back-row'
p2805
aS'1966'
p2806
aS'17'
p2807
aS'10'
p2808
aS'3'
aS'15'
p2809
aa(lp2810
S'Sikeli Qauqau'
p2811
aS'1999'
p2812
aS'Utility back'
p2813
aS'1973'
p2814
aS'1'
aS'0'
aS'1'
aS'5'
aa(lp2815
S'Tabai Matson'
p2816
aS'1999'
p2817
aS'Centre'
p2818
aS'Nausori'
p2819
aS'2'
aS'1'
aS'0'
aS'0'
aa(lp2820
S'Paula Biutanaseva'
p2821
aS'1999'
p2822
aS'Prop'
p2823
aS'1972'
p2824
aS'13'
p2825
aS'8'
aS'0'
aS'0'
aa(lp2826
S'Alifereti Doviverata'
p2827
aS'1999'
p2828
aS'No. 8'
p2829
aS'Suva'
p2830
aS'42'
p2831
aS'22'
p2832
aS'5'
aS'25'
p2833
aa(lp2834
S'Sirilo Lala Ragata'
p2835
aS'1999'
p2836
aS'Utility back'
p2837
aS'1972'
p2838
aS'5'
aS'4'
aS'1'
aS'5'
aa(lp2839
S'Sailosi Naiteqe'
p2840
aS'2000'
p2841
aS'Flanker'
p2842
aS'Nausori'
p2843
aS'6'
aS'4'
aS'0'
aS'0'
aa(lp2844
S'Saimoni Rokini'
p2845
aS'2000'
p2846
aS'Wing, Centre'
p2847
aS'1972'
p2848
aS'10'
p2849
aS'8'
aS'1'
aS'5'
aa(lp2850
S'Kameli Tilalati'
p2851
aS'2000'
p2852
aS'Centre'
p2853
aS'1971'
p2854
aS'2'
aS'1'
aS'0'
aS'0'
aa(lp2855
S'Seremaia Baikeinuku'
p2856
aS'2000'
p2857
aS'Centre, Fly-half'
p2858
aS'Nausori'
p2859
aS'57'
p2860
aS'26'
p2861
aS'5'
aS'330'
p2862
aa(lp2863
S'Peniasi Damu'
p2864
aS'2000'
p2865
aS'Hooker, Prop'
p2866
aS'1967'
p2867
aS'10'
p2868
aS'7'
aS'0'
aS'0'
aa(lp2869
S'Bill Gadolo'
p2870
aS'2000'
p2871
aS'Hooker'
p2872
aS'Suva'
p2873
aS'20'
p2874
aS'10'
p2875
aS'1'
aS'5'
aa(lp2876
S'Alipate Naqaya'
p2877
aS'2000'
p2878
aS'Wing'
p2879
aS'Sigatoka'
p2880
aS'2'
aS'2'
aS'0'
aS'0'
aa(lp2881
S'Seru Rabeni'
p2882
aS'2000'
p2883
aS'Centre'
p2884
aS'Bua'
p2885
aS'39'
p2886
aS'18'
p2887
aS'5'
aS'29'
p2888
aa(lp2889
S'Ilaitia Tuisese'
p2890
aS'2000'
p2891
aS'Back-row'
p2892
aS'Nausori'
p2893
aS'2'
aS'1'
aS'0'
aS'0'
aa(lp2894
S'Norman Ligairi'
p2895
aS'2000'
p2896
aS'Wing'
p2897
aS'Nadi'
p2898
aS'52'
p2899
aS'25'
p2900
aS'16'
p2901
aS'80'
p2902
aa(lp2903
S'Jolame Nadolo'
p2904
aS'2000'
p2905
aS'Wing'
p2906
aS'1974'
p2907
aS'5'
aS'4'
aS'0'
aS'0'
aa(lp2908
S'Vilimoni Delasau'
p2909
aS'2000'
p2910
aS'Wing'
p2911
aS'Ba'
p2912
aS'32'
p2913
aS'16'
p2914
aS'13'
p2915
aS'65'
p2916
aa(lp2917
S'Kameli Natoba'
p2918
aS'2000'
p2919
aS'Fullback'
p2920
aS'1974'
p2921
aS'6'
aS'5'
aS'3'
aS'15'
p2922
aa(lp2923
S'Henry Qiodravu'
p2924
aS'2000'
p2925
aS'Prop'
p2926
aS'Suva'
p2927
aS'18'
p2928
aS'10'
p2929
aS'0'
aS'0'
aa(lp2930
S'Semisi Dakuiyaco'
p2931
aS'2000'
p2932
aS'Lock'
p2933
aS'Suva'
p2934
aS'1'
aS'1'
aS'0'
aS'0'
aa(lp2935
S'Dan Baleinadogo'
p2936
aS'2001'
p2937
aS'Centre'
p2938
aS'Suva'
p2939
aS'10'
p2940
aS'7'
aS'0'
aS'0'
aa(lp2941
S'Joseph Koroiadi'
p2942
aS'2001'
p2943
aS'No. 8'
p2944
aS'date unknown'
p2945
aS'1'
aS'0'
aS'0'
aS'0'
aa(lp2946
S'Epeli Ratuniata'
p2947
aS'2001'
p2948
aS'Prop'
p2949
aS'1976'
p2950
aS'4'
aS'2'
aS'0'
aS'0'
aa(lp2951
S'Sisa Koyamaibole'
p2952
aS'2001'
p2953
aS'No. 8'
p2954
aS'Suva'
p2955
aS'53'
p2956
aS'22'
p2957
aS'3'
aS'15'
p2958
aa(lp2959
S'Adriu Rinakama'
p2960
aS'2001'
p2961
aS'Wing'
p2962
aS'Tavua'
p2963
aS'3'
aS'3'
aS'0'
aS'0'
aa(lp2964
S'Pita Bolea'
p2965
aS'2001'
p2966
aS'Wing'
p2967
aS'1972'
p2968
aS'1'
aS'1'
aS'0'
aS'0'
aa(lp2969
S'Sunia Sevu'
p2970
aS'2001'
p2971
aS'Flanker'
p2972
aS'Nausori'
p2973
aS'1'
aS'1'
aS'0'
aS'0'
aa(lp2974
S'Mesake Davu'
p2975
aS'2001'
p2976
aS'No. 8'
p2977
aS'Nadi'
p2978
aS'2'
aS'0'
aS'0'
aS'0'
aa(lp2979
S'Isoa Domolailai'
p2980
aS'2001'
p2981
aS'Lock'
p2982
aS'Sigatoka'
p2983
aS'13'
p2984
aS'5'
aS'0'
aS'0'
aa(lp2985
S'Apisai Nagi Mavua'
p2986
aS'2001'
p2987
aS'Prop'
p2988
aS'Navua'
p2989
aS'11'
p2990
aS'6'
aS'0'
aS'0'
aa(lp2991
S'Ilai Derenalagi'
p2992
aS'2001'
p2993
aS'Wing'
p2994
aS'1976'
p2995
aS'1'
aS'0'
aS'0'
aS'0'
aa(lp2996
S'Richard Nyholt'
p2997
aS'2001'
p2998
aS'Prop'
p2999
aS'Lautoka'
p3000
aS'13'
p3001
aS'6'
aS'0'
aS'0'
aa(lp3002
S'Emori Tuisese'
p3003
aS'2001'
p3004
aS'Centre'
p3005
aS'date unknown'
p3006
aS'1'
aS'0'
aS'0'
aS'0'
aa(lp3007
S'Tevita Latianara'
p3008
aS'2002'
p3009
aS'Wing'
p3010
aS'Suva'
p3011
aS'2'
aS'2'
aS'1'
aS'5'
aa(lp3012
S'Isaac Mow'
p3013
aS'2002'
p3014
aS'Centre'
p3015
aS'Korovou'
p3016
aS'5'
aS'3'
aS'2'
aS'10'
p3017
aa(lp3018
S'Joseph Narruhn'
p3019
aS'2002'
p3020
aS'Fly-half, Wing'
p3021
aS'1974'
p3022
aS'8'
aS'3'
aS'3'
aS'39'
p3023
aa(lp3024
S'Ifereimi Rawaqa'
p3025
aS'2002'
p3026
aS'Lock'
p3027
aS'Lautoka'
p3028
aS'42'
p3029
aS'18'
p3030
aS'3'
aS'15'
p3031
aa(lp3032
S'Senirusi Seruvakula'
p3033
aS'2002'
p3034
aS'Flanker'
p3035
aS'Suva'
p3036
aS'1'
aS'1'
aS'0'
aS'0'
aa(lp3037
S'Epeli Ruivadra'
p3038
aS'2002'
p3039
aS'Wing, Centre'
p3040
aS'Nausori'
p3041
aS'17'
p3042
aS'8'
aS'1'
aS'5'
aa(lp3043
S'Timoci Yacabula'
p3044
aS'2002'
p3045
aS'Lock'
p3046
aS'1976'
p3047
aS'3'
aS'2'
aS'0'
aS'0'
aa(lp3048
S'Atonio Nariva'
p3049
aS'2002'
p3050
aS'Fullback'
p3051
aS'Namosi'
p3052
aS'3'
aS'1'
aS'0'
aS'0'
aa(lp3053
S'Kele Leawere'
p3054
aS'2002'
p3055
aS'Lock'
p3056
aS'Sigatoka'
p3057
aS'28'
p3058
aS'14'
p3059
aS'5'
aS'25'
p3060
aa(lp3061
S'Kitione Salawa'
p3062
aS'2003'
p3063
aS'Flanker'
p3064
aS'Lautoka'
p3065
aS'6'
aS'2'
aS'0'
aS'0'
aa(lp3066
S'Sekove Leawere'
p3067
aS'2003'
p3068
aS'Wing, Centre'
p3069
aS'Nukuilai'
p3070
aS'5'
aS'2'
aS'2'
aS'10'
p3071
aa(lp3072
S'Rupeni Caucaunibuca'
p3073
aS'2003'
p3074
aS'Centre'
p3075
aS'Nabouwalu'
p3076
aS'8'
aS'3'
aS'10'
p3077
aS'50'
p3078
aa(lp3079
S'Vula Maimuri'
p3080
aS'2003'
p3081
aS'Lock'
p3082
aS'Auckland'
p3083
aS'5'
aS'2'
aS'0'
aS'0'
aa(lp3084
S'Naka Seru'
p3085
aS'2003'
p3086
aS'Prop'
p3087
aS'Nawaikama'
p3088
aS'6'
aS'3'
aS'0'
aS'0'
aa(lp3089
S'Isa Nacewa'
p3090
aS'2003'
p3091
aS'Fullback, Fly-half'
p3092
aS'Auckland'
p3093
aS'1'
aS'0'
aS'0'
aS'0'
aa(lp3094
S'Josese Baleikasavu'
p3095
aS'2004'
p3096
aS'Prop'
p3097
aS'Waiyevo'
p3098
aS'14'
p3099
aS'8'
aS'0'
aS'0'
aa(lp3100
S'Kalivati Baleisawani'
p3101
aS'2004'
p3102
aS'Flanker'
p3103
aS'Lautoka'
p3104
aS'2'
aS'2'
aS'0'
aS'0'
aa(lp3105
S'Sireli Bobo'
p3106
aS'2004'
p3107
aS'Wing'
p3108
aS'Rakiraki'
p3109
aS'19'
p3110
aS'10'
p3111
aS'11'
p3112
aS'55'
p3113
aa(lp3114
S'Joeli Lotawa'
p3115
aS'2004'
p3116
aS'Hooker'
p3117
aS'Nadi'
p3118
aS'5'
aS'3'
aS'0'
aS'0'
aa(lp3119
S'Jack Prasad'
p3120
aS'2004'
p3121
aS'Fly-half'
p3122
aS'Suva'
p3123
aS'9'
aS'7'
aS'0'
aS'4'
aa(lp3124
S'Seva Rokobaro'
p3125
aS'2004'
p3126
aS'Lock'
p3127
aS'Suva'
p3128
aS'4'
aS'2'
aS'0'
aS'0'
aa(lp3129
S'Netava Tagi'
p3130
aS'2004'
p3131
aS'Flanker'
p3132
aS'Nausori'
p3133
aS'2'
aS'2'
aS'0'
aS'0'
aa(lp3134
S'Julian Vulakoro'
p3135
aS'2004'
p3136
aS'Centre'
p3137
aS'Suva'
p3138
aS'4'
aS'3'
aS'1'
aS'9'
aa(lp3139
S'Maikeli Nadridri Sego'
p3140
aS'2004'
p3141
aS'Wing'
p3142
aS'Sigatoka'
p3143
aS'3'
aS'2'
aS'2'
aS'10'
p3144
aa(lp3145
S'Saiasi Fuli'
p3146
aS'2004'
p3147
aS'Scrum-half'
p3148
aS'Suva'
p3149
aS'1'
aS'1'
aS'0'
aS'0'
aa(lp3150
S'Apisai Turukawa'
p3151
aS'2004'
p3152
aS'Prop, Hooker'
p3153
aS'Sigatoka'
p3154
aS'6'
aS'3'
aS'0'
aS'0'
aa(lp3155
S'Marika Vakacegu'
p3156
aS'2004'
p3157
aS'Fullback'
p3158
aS'Suva'
p3159
aS'6'
aS'3'
aS'0'
aS'0'
aa(lp3160
S'Akuila Matanibukaca'
p3161
aS'2005'
p3162
aS'Lock'
p3163
aS'Nadi'
p3164
aS'4'
aS'2'
aS'0'
aS'0'
aa(lp3165
S'Aca Ratuva'
p3166
aS'2005'
p3167
aS'Flanker'
p3168
aS'Sigatoka'
p3169
aS'19'
p3170
aS'9'
aS'1'
aS'5'
aa(lp3171
S'Sunia Koto Vuli'
p3172
aS'2005'
p3173
aS'Hooker'
p3174
aS'Suva'
p3175
aS'40'
p3176
aS'19'
p3177
aS'1'
aS'5'
aa(lp3178
S'Jone Qovu Nailiko'
p3179
aS'2005'
p3180
aS'Lock'
p3181
aS'Sigatoka'
p3182
aS'13'
p3183
aS'4'
aS'1'
aS'5'
aa(lp3184
S'Sam Tabua'
p3185
aS'2005'
p3186
aS'Flanker'
p3187
aS'Lautoka'
p3188
aS'2'
aS'0'
aS'0'
aS'0'
aa(lp3189
S'Jone Railomo Taginayaviusa'
p3190
aS'2005'
p3191
aS'Prop'
p3192
aS'Suva'
p3193
aS'10'
p3194
aS'5'
aS'0'
aS'0'
aa(lp3195
S'Ravuama Samo'
p3196
aS'2005'
p3197
aS'Prop'
p3198
aS'Nadi'
p3199
aS'6'
aS'5'
aS'0'
aS'0'
aa(lp3200
S'Apo Satala'
p3201
aS'2005'
p3202
aS'Lock, Back-row'
p3203
aS'Lautoka'
p3204
aS'6'
aS'3'
aS'0'
aS'0'
aa(lp3205
S'Jo Tora'
p3206
aS'2005'
p3207
aS'Utility back'
p3208
aS'Nadi'
p3209
aS'7'
aS'5'
aS'0'
aS'2'
aa(lp3210
S'Mosese Luveitasau Yabakitini'
p3211
aS'2005'
p3212
aS'Wing'
p3213
aS'Suva'
p3214
aS'9'
aS'4'
aS'4'
aS'20'
p3215
aa(lp3216
S'Akapusi Qera'
p3217
aS'2005'
p3218
aS'Back-row'
p3219
aS'Suva'
p3220
aS'42'
p3221
aS'20'
p3222
aS'7'
aS'35'
p3223
aa(lp3224
S'Langi Peters'
p3225
aS'2005'
p3226
aS'Lock'
p3227
aS'Suva'
p3228
aS'5'
aS'3'
aS'0'
aS'0'
aa(lp3229
S'Maleli Kunavore'
p3230
aS'2005'
p3231
aS'Wing, Centre'
p3232
aS'Sigatoka'
p3233
aS'7'
aS'5'
aS'2'
aS'10'
p3234
aa(lp3235
S'Kameli Ratuvou'
p3236
aS'2005'
p3237
aS'Centre'
p3238
aS'Naroi'
p3239
aS'24'
p3240
aS'11'
p3241
aS'9'
aS'45'
p3242
aa(lp3243
S'Kini Salabogi'
p3244
aS'2005'
p3245
aS'Back-row'
p3246
aS'Lautoka'
p3247
aS'4'
aS'2'
aS'1'
aS'5'
aa(lp3248
S'Mo Volavola'
p3249
aS'2005'
p3250
aS'Back-row'
p3251
aS'Lautoka'
p3252
aS'5'
aS'2'
aS'0'
aS'0'
aa(lp3253
S'Tiko Matawalu'
p3254
aS'2005'
p3255
aS'Prop'
p3256
aS'Suva'
p3257
aS'3'
aS'2'
aS'0'
aS'0'
aa(lp3258
S'Neumi Nanuku'
p3259
aS'2005'
p3260
aS'Wing'
p3261
aS'Ra'
p3262
aS'1'
aS'1'
aS'0'
aS'0'
aa(lp3263
S'Sikeli Gavidi Tubuvanere'
p3264
aS'2005'
p3265
aS'Prop, Hooker'
p3266
aS'Lautoka'
p3267
aS'2'
aS'1'
aS'0'
aS'0'
aa(lp3268
S'Aporosa Vata Tuinasau'
p3269
aS'2005'
p3270
aS'Scrum-half'
p3271
aS'Yasawa'
p3272
aS'4'
aS'2'
aS'0'
aS'0'
aa(lp3273
S'Masi Matadigo'
p3274
aS'2006'
p3275
aS'No. 8'
p3276
aS'Suva'
p3277
aS'15'
p3278
aS'7'
aS'1'
aS'5'
aa(lp3279
S'Seveci Takamaiwai Sauradu'
p3280
aS'2006'
p3281
aS'Scrum-half'
p3282
aS'Sigatoka'
p3283
aS'5'
aS'1'
aS'0'
aS'0'
aa(lp3284
S'Netani Talei'
p3285
aS'2006'
p3286
aS'Back-row'
p3287
aS'Suva'
p3288
aS'28'
p3289
aS'17'
p3290
aS'4'
aS'20'
p3291
aa(lp3292
S'Emosi Vucago'
p3293
aS'2006'
p3294
aS'Scrum-half'
p3295
aS'Sigatoka'
p3296
aS'3'
aS'1'
aS'0'
aS'0'
aa(lp3297
S'Semisi Saukawa'
p3298
aS'2006'
p3299
aS'Flanker'
p3300
aS'Nadi'
p3301
aS'16'
p3302
aS'10'
p3303
aS'0'
aS'0'
aa(lp3304
S'Vereniki Goneva'
p3305
aS'2007'
p3306
aS'Wing, Centre'
p3307
aS'Lautoka'
p3308
aS'31'
p3309
aS'12'
p3310
aS'14'
p3311
aS'70'
p3312
aa(lp3313
S'Isoa Coalala Neivua'
p3314
aS'2007'
p3315
aS'Wing'
p3316
aS'Mosimosi'
p3317
aS'8'
aS'4'
aS'2'
aS'10'
p3318
aa(lp3319
S'Vesi Rauluni'
p3320
aS'2007'
p3321
aS'Wing'
p3322
aS'Nairai'
p3323
aS'3'
aS'1'
aS'0'
aS'0'
aa(lp3324
S'Dan Rawaqa Maravunawasawasa'
p3325
aS'2007'
p3326
aS'Fullback, Wing'
p3327
aS'Lautoka'
p3328
aS'17'
p3329
aS'8'
aS'4'
aS'103'
p3330
aa(lp3331
S'Tomasi Soqeta'
p3332
aS'2007'
p3333
aS'No. 8'
p3334
aS'Sigatoka'
p3335
aS'3'
aS'1'
aS'0'
aS'0'
aa(lp3336
S'Alefoso Yalayalatabua'
p3337
aS'2007'
p3338
aS'Prop'
p3339
aS'Suva'
p3340
aS'10'
p3341
aS'6'
aS'0'
aS'0'
aa(lp3342
S'Vitori Buatava'
p3343
aS'2007'
p3344
aS'Scrum-half'
p3345
aS'VIC'
p3346
aS'14'
p3347
aS'4'
aS'0'
aS'0'
aa(lp3348
S'Wame Lewaravu'
p3349
aS'2007'
p3350
aS'Lock'
p3351
aS'Lautoka'
p3352
aS'26'
p3353
aS'11'
p3354
aS'0'
aS'0'
aa(lp3355
S'Graham Dewes'
p3356
aS'2007'
p3357
aS'Prop'
p3358
aS'Suva'
p3359
aS'26'
p3360
aS'13'
p3361
aS'1'
aS'5'
aa(lp3362
S'Gaby Lovobalavu'
p3363
aS'2007'
p3364
aS'Centre'
p3365
aS'Savusavu'
p3366
aS'16'
p3367
aS'3'
aS'1'
aS'5'
aa(lp3368
S'Waisea Luveniyali'
p3369
aS'2007'
p3370
aS'Centre, Fly-half'
p3371
aS'Suva'
p3372
aS'17'
p3373
aS'8'
aS'0'
aS'21'
p3374
aa(lp3375
S'Michael Tagicakibau'
p3376
aS'2007'
p3377
aS'Wing'
p3378
aS'South Auckland'
p3379
aS'5'
aS'1'
aS'0'
aS'0'
aa(lp3380
S'Deryck Thomas'
p3381
aS'2007'
p3382
aS'Lock'
p3383
aS'Suva'
p3384
aS'3'
aS'0'
aS'0'
aS'0'
aa(lp3385
S'Vereniki Sauturaga Racagi'
p3386
aS'2007'
p3387
aS'Hooker'
p3388
aS'Suva'
p3389
aS'8'
aS'5'
aS'0'
aS'0'
aa(lp3390
S'Dale Tonawai Mataluvu'
p3391
aS'2007'
p3392
aS'Back-row'
p3393
aS'Suva'
p3394
aS'3'
aS'1'
aS'0'
aS'0'
aa(lp3395
S'Jone Daunivucu'
p3396
aS'2007'
p3397
aS'Wing'
p3398
aS'Lautoka'
p3399
aS'4'
aS'3'
aS'0'
aS'0'
aa(lp3400
S'Timoci Nagusa'
p3401
aS'2008'
p3402
aS'Wing'
p3403
aS'Nadi'
p3404
aS'22'
p3405
aS'13'
p3406
aS'14'
p3407
aS'70'
p3408
aa(lp3409
S'Sireli Naqelevuki'
p3410
aS'2008'
p3411
aS'Wing, Centre'
p3412
aS'Suva'
p3413
aS'8'
aS'3'
aS'2'
aS'10'
p3414
aa(lp3415
S'Jonetani Ralulu'
p3416
aS'2008'
p3417
aS'Fly-half'
p3418
aS'Sigatoka'
p3419
aS'15'
p3420
aS'9'
aS'0'
aS'44'
p3421
aa(lp3422
S'Viliame Seuseu'
p3423
aS'2008'
p3424
aS'Prop'
p3425
aS'Lautoka'
p3426
aS'8'
aS'5'
aS'1'
aS'5'
aa(lp3427
S'Saula Radidi'
p3428
aS'2008'
p3429
aS'Wing'
p3430
aS'Suva'
p3431
aS'6'
aS'2'
aS'1'
aS'5'
aa(lp3432
S'Nemia Kenatale Ranuku'
p3433
aS'2008'
p3434
aS'Scrum-half'
p3435
aS'Tavua'
p3436
aS'29'
p3437
aS'15'
p3438
aS'5'
aS'25'
p3439
aa(lp3440
S'Sailasa Rabonaqica'
p3441
aS'2008'
p3442
aS'No. 8'
p3443
aS'Sigatoka'
p3444
aS'2'
aS'1'
aS'0'
aS'0'
aa(lp3445
S'Jovili Domolailai'
p3446
aS'2008'
p3447
aS'Flanker'
p3448
aS'Sigatoka'
p3449
aS'14'
p3450
aS'7'
aS'2'
aS'10'
p3451
aa(lp3452
S'Jeremaiya Tuilevu'
p3453
aS'2008'
p3454
aS'Wing'
p3455
aS'Sigatoka'
p3456
aS'1'
aS'0'
aS'0'
aS'0'
aa(lp3457
S'Iliesa Keresoni'
p3458
aS'2008'
p3459
aS'Fullback'
p3460
aS'Nausori'
p3461
aS'11'
p3462
aS'5'
aS'1'
aS'5'
aa(lp3463
S'Rupeni Nasiga'
p3464
aS'2008'
p3465
aS'Lock'
p3466
aS'Sigatoka'
p3467
aS'15'
p3468
aS'7'
aS'2'
aS'10'
p3469
aa(lp3470
S'Malakai Bolatagane Volau'
p3471
aS'2009'
p3472
aS'Flanker'
p3473
aS'Suva'
p3474
aS'16'
p3475
aS'10'
p3476
aS'0'
aS'0'
aa(lp3477
S'Filimoni Bolavucu'
p3478
aS'2009'
p3479
aS'Wing'
p3480
aS'Suva'
p3481
aS'2'
aS'2'
aS'0'
aS'0'
aa(lp3482
S'Alipate Noilea'
p3483
aS'2009'
p3484
aS'Outside back'
p3485
aS'1983'
p3486
aS'1'
aS'1'
aS'1'
aS'5'
aa(lp3487
S'Waisale Sukanaveita'
p3488
aS'2009'
p3489
aS'Centre'
p3490
aS'1984'
p3491
aS'2'
aS'2'
aS'0'
aS'0'
aa(lp3492
S'Sireli Ledua'
p3493
aS'2009'
p3494
aS'Hooker'
p3495
aS'Suva'
p3496
aS'6'
aS'4'
aS'1'
aS'5'
aa(lp3497
S'Leone Nakarawa'
p3498
aS'2009'
p3499
aS'Lock'
p3500
aS'Tavua'
p3501
aS'25'
p3502
aS'11'
p3503
aS'2'
aS'10'
p3504
aa(lp3505
S'Ilikena Bolakoro'
p3506
aS'2009'
p3507
aS'Wing'
p3508
aS'Suva'
p3509
aS'2'
aS'2'
aS'0'
aS'0'
aa(lp3510
S'Ropate Ratu'
p3511
aS'2009'
p3512
aS'Wing'
p3513
aS'Lautoka'
p3514
aS'7'
aS'4'
aS'0'
aS'0'
aa(lp3515
S'Sean Morrell'
p3516
aS'2009'
p3517
aS'Flanker'
p3518
aS'1986'
p3519
aS'1'
aS'1'
aS'0'
aS'0'
aa(lp3520
S'Ravai Fatiaki'
p3521
aS'2009'
p3522
aS'Centre'
p3523
aS'Nausori'
p3524
aS'10'
p3525
aS'3'
aS'1'
aS'5'
aa(lp3526
S'Aisake Tarogi'
p3527
aS'2009'
p3528
aS'Prop'
p3529
aS'Labasa'
p3530
aS'3'
aS'2'
aS'0'
aS'0'
aa(lp3531
S'Anthony Wise'
p3532
aS'2009'
p3533
aS'Lock'
p3534
aS'Suva'
p3535
aS'3'
aS'2'
aS'0'
aS'0'
aa(lp3536
S'Asaeli Boko'
p3537
aS'2009'
p3538
aS'No. 8'
p3539
aS'Nadi'
p3540
aS'3'
aS'1'
aS'0'
aS'0'
aa(lp3541
S'Deacon Manu'
p3542
aS'2009'
p3543
aS'Prop'
p3544
aS'New Plymouth'
p3545
aS'14'
p3546
aS'3'
aS'0'
aS'0'
aa(lp3547
S'Josh Matavesi'
p3548
aS'2009'
p3549
aS'Centre, Fullback'
p3550
aS'Camborne'
p3551
aS'8'
aS'2'
aS'0'
aS'14'
p3552
aa(lp3553
S'Napolioni Nalaga'
p3554
aS'2008'
p3555
aS'Wing'
p3556
aS'Sigatoka'
p3557
aS'17'
p3558
aS'7'
aS'9'
aS'45'
p3559
aa(lp3560
S'Vili Veikoso'
p3561
aS'2009'
p3562
aS'Hooker'
p3563
aS'Suva'
p3564
aS'29'
p3565
aS'14'
p3566
aS'0'
aS'0'
aa(lp3567
S'Jonetani Ratu Nagado'
p3568
aS'2009'
p3569
aS'Centre'
p3570
aS'Sigatoka'
p3571
aS'2'
aS'1'
aS'1'
aS'5'
aa(lp3572
S'Nasoni Rokobiau'
p3573
aS'2009'
p3574
aS'Wing'
p3575
aS'Vunidawa'
p3576
aS'3'
aS'1'
aS'0'
aS'0'
aa(lp3577
S'Waisale Vatuvoka'
p3578
aS'2009'
p3579
aS'Scrum-half'
p3580
aS'Suva'
p3581
aS'4'
aS'2'
aS'0'
aS'0'
aa(lp3582
S'Jimilai Naikadawa'
p3583
aS'2009'
p3584
aS'No. 8'
p3585
aS'Vunidawa'
p3586
aS'5'
aS'2'
aS'1'
aS'5'
aa(lp3587
S'Semi Tadulala'
p3588
aS'2009'
p3589
aS'Wing'
p3590
aS'Suva'
p3591
aS'1'
aS'1'
aS'0'
aS'0'
aa(lp3592
S'Kele Bolatagane'
p3593
aS'2009'
p3594
aS'Scrum-half'
p3595
aS'Suva'
p3596
aS'9'
aS'5'
aS'1'
aS'5'
aa(lp3597
S'Seko Kalou Qaraniqio'
p3598
aS'2010'
p3599
aS'Lock'
p3600
aS'Sigatoka'
p3601
aS'13'
p3602
aS'4'
aS'4'
aS'20'
p3603
aa(lp3604
S"Campese Ma'afu"
p3605
aS'2010'
p3606
aS'Prop'
p3607
aS'NSW'
p3608
aS'28'
p3609
aS'14'
p3610
aS'2'
aS'10'
p3611
aa(lp3612
S'Tua Tuapati'
p3613
aS'2010'
p3614
aS'Hooker'
p3615
aS'Suva'
p3616
aS'26'
p3617
aS'12'
p3618
aS'2'
aS'10'
p3619
aa(lp3620
S'Dominiko Waqaniburotukula'
p3621
aS'2010'
p3622
aS'Flanker'
p3623
aS'Suva'
p3624
aS'19'
p3625
aS'9'
aS'4'
aS'20'
p3626
aa(lp3627
S'Nemani Nadolo Nasiganiyavi'
p3628
aS'2010'
p3629
aS'Wing'
p3630
aS'Sigatoka'
p3631
aS'18'
p3632
aS'12'
p3633
aS'14'
p3634
aS'123'
p3635
aa(lp3636
S'Jaoji Dakuvula'
p3637
aS'2010'
p3638
aS'Fullback'
p3639
aS'Savusavu'
p3640
aS'1'
aS'1'
aS'0'
aS'7'
aa(lp3641
S'Kelepi Ketedromo'
p3642
aS'2010'
p3643
aS'Flanker'
p3644
aS'Ra'
p3645
aS'5'
aS'4'
aS'0'
aS'0'
aa(lp3646
S'Nikola Matawalu'
p3647
aS'2010'
p3648
aS'Scrum-half'
p3649
aS'Suva'
p3650
aS'21'
p3651
aS'13'
p3652
aS'5'
aS'25'
p3653
aa(lp3654
S'Malakai Bakaniceva Radikedike'
p3655
aS'2010'
p3656
aS'Wing'
p3657
aS'Nausori'
p3658
aS'3'
aS'3'
aS'1'
aS'5'
aa(lp3659
S'Epeli Ruivadra'
p3660
aS'2010'
p3661
aS'Utility back'
p3662
aS'Suva'
p3663
aS'3'
aS'2'
aS'0'
aS'0'
aa(lp3664
S'Jo Naisilisili'
p3665
aS'2010'
p3666
aS'Centre'
p3667
aS'Suva'
p3668
aS'2'
aS'1'
aS'0'
aS'0'
aa(lp3669
S'William Saukuru'
p3670
aS'2010'
p3671
aS'Utility back'
p3672
aS'Suva'
p3673
aS'1'
aS'0'
aS'0'
aS'0'
aa(lp3674
S'Albert Vulivuli'
p3675
aS'2010'
p3676
aS'Centre'
p3677
aS'Savusavu'
p3678
aS'11'
p3679
aS'3'
aS'1'
aS'5'
aa(lp3680
S'Mala Ravulo'
p3681
aS'2010'
p3682
aS'Back-row'
p3683
aS'Korovou'
p3684
aS'30'
p3685
aS'15'
p3686
aS'2'
aS'10'
p3687
aa(lp3688
S'Vesi Rarawa'
p3689
aS'2010'
p3690
aS'Prop'
p3691
aS'Suva'
p3692
aS'1'
aS'0'
aS'0'
aS'0'
aa(lp3693
S'Tevita Cavubati'
p3694
aS'2011'
p3695
aS'Lock'
p3696
aS'Suva'
p3697
aS'4'
aS'1'
aS'0'
aS'0'
aa(lp3698
S'Kini Murimurivalu'
p3699
aS'2011'
p3700
aS'Fullback'
p3701
aS'Suva'
p3702
aS'6'
aS'2'
aS'1'
aS'5'
aa(lp3703
S'Adriu Delai'
p3704
aS'2011'
p3705
aS'Centre'
p3706
aS'Levuka-i-gau'
p3707
aS'11'
p3708
aS'8'
aS'2'
aS'10'
p3709
aa(lp3710
S'Pen Makutu'
p3711
aS'2011'
p3712
aS'Utility forward'
p3713
aS'Sigatoka'
p3714
aS'4'
aS'1'
aS'0'
aS'0'
aa(lp3715
S'Setefano Somoca'
p3716
aS'2011'
p3717
aS'Prop'
p3718
aS'Savusavu'
p3719
aS'20'
p3720
aS'9'
aS'1'
aS'5'
aa(lp3721
S'Waisea Nailago'
p3722
aS'2011'
p3723
aS'Prop'
p3724
aS'Suva'
p3725
aS'9'
aS'3'
aS'0'
aS'0'
aa(lp3726
S'Isake Katonibau'
p3727
aS'2012'
p3728
aS'Centre'
p3729
aS'1983'
p3730
aS'3'
aS'2'
aS'1'
aS'5'
aa(lp3731
S'Simeli Koniferedi'
p3732
aS'2012'
p3733
aS'Fullback'
p3734
aS'Sigatoka'
p3735
aS'8'
aS'4'
aS'0'
aS'0'
aa(lp3736
S'Setareki Koroilagilagi'
p3737
aS'2012'
p3738
aS'Wing'
p3739
aS'Labasa'
p3740
aS'6'
aS'4'
aS'0'
aS'29'
p3741
aa(lp3742
S'Api Naikatini'
p3743
aS'2012'
p3744
aS'Lock'
p3745
aS'Nadi'
p3746
aS'18'
p3747
aS'12'
p3748
aS'1'
aS'5'
aa(lp3749
S'Waisea Nayacalevu Vuidravuwalu'
p3750
aS'2012'
p3751
aS'Wing'
p3752
aS'Navua'
p3753
aS'7'
aS'4'
aS'2'
aS'10'
p3754
aa(lp3755
S'Iliesa Ratuva'
p3756
aS'2012'
p3757
aS'Flanker'
p3758
aS'Sigatoka'
p3759
aS'9'
aS'4'
aS'1'
aS'5'
aa(lp3760
S'Watisoni Votu'
p3761
aS'2012'
p3762
aS'Wing'
p3763
aS'Lautoka'
p3764
aS'13'
p3765
aS'7'
aS'5'
aS'25'
p3766
aa(lp3767
S'Alusio Butonidualevu'
p3768
aS'2012'
p3769
aS'Centre'
p3770
aS'Suva'
p3771
aS'3'
aS'1'
aS'0'
aS'0'
aa(lp3772
S'Benedito Koroi'
p3773
aS'2012'
p3774
aS'Centre'
p3775
aS'1984'
p3776
aS'2'
aS'2'
aS'0'
aS'0'
aa(lp3777
S'Seremaia Naureure Namaraevu'
p3778
aS'2012'
p3779
aS'Prop'
p3780
aS'Vunidawa'
p3781
aS'8'
aS'5'
aS'0'
aS'0'
aa(lp3782
S'Jerry Yanuyanutawa'
p3783
aS'2012'
p3784
aS'Prop'
p3785
aS'Suva'
p3786
aS'19'
p3787
aS'11'
p3788
aS'0'
aS'0'
aa(lp3789
S'Iliesa Salusalu'
p3790
aS'2012'
p3791
aS'Centre'
p3792
aS'Naviti'
p3793
aS'2'
aS'0'
aS'0'
aS'0'
aa(lp3794
S'Metuisela Talebula Maijaina'
p3795
aS'2012'
p3796
aS'Wing'
p3797
aS'Lautoka'
p3798
aS'13'
p3799
aS'6'
aS'7'
aS'43'
p3800
aa(lp3801
S'Maikeli Mocetadra'
p3802
aS'2012'
p3803
aS'Wing'
p3804
aS'1985'
p3805
aS'1'
aS'1'
aS'1'
aS'5'
aa(lp3806
S'Apakuki Vuaviri'
p3807
aS'2012'
p3808
aS'Back-row'
p3809
aS'1987'
p3810
aS'1'
aS'1'
aS'0'
aS'0'
aa(lp3811
S'Api Ratuniyarawa'
p3812
aS'2012'
p3813
aS'Lock'
p3814
aS'Sigatoka'
p3815
aS'14'
p3816
aS'9'
aS'0'
aS'0'
aa(lp3817
S'Samu Wara'
p3818
aS'2012'
p3819
aS'Wing'
p3820
aS'NSW'
p3821
aS'2'
aS'1'
aS'0'
aS'0'
aa(lp3822
S'Manasa Saulo Ramumu'
p3823
aS'2012'
p3824
aS'Prop'
p3825
aS'Suva'
p3826
aS'17'
p3827
aS'11'
p3828
aS'0'
aS'0'
aa(lp3829
S'Nemani Nagusa'
p3830
aS'2012'
p3831
aS'No. 8'
p3832
aS'1988'
p3833
aS'6'
aS'4'
aS'0'
aS'0'
aa(lp3834
S'Timoci Matanavou'
p3835
aS'2012'
p3836
aS'Wing'
p3837
aS'Lautoka'
p3838
aS'1'
aS'0'
aS'0'
aS'0'
aa(lp3839
S'Aisea Natoga'
p3840
aS'2012'
p3841
aS'Wing'
p3842
aS'1990'
p3843
aS'5'
aS'4'
aS'1'
aS'5'
aa(lp3844
S'Leone Tubuarua'
p3845
aS'2013'
p3846
aS'Centre'
p3847
aS'1986'
p3848
aS'3'
aS'2'
aS'0'
aS'0'
aa(lp3849
S'Juita Lutumailagi'
p3850
aS'2013'
p3851
aS'Fly-half'
p3852
aS'1984'
p3853
aS'3'
aS'2'
aS'0'
aS'2'
aa(lp3854
S'Aporosa Kenatale'
p3855
aS'2013'
p3856
aS'Scrum-half'
p3857
aS'Tavua'
p3858
aS'2'
aS'1'
aS'1'
aS'5'
aa(lp3859
S'Sam Matavesi'
p3860
aS'2013'
p3861
aS'Hooker'
p3862
aS'Truro'
p3863
aS'2'
aS'1'
aS'0'
aS'0'
aa(lp3864
S'Asaeli Tikoirotuma'
p3865
aS'2013'
p3866
aS'Wing, Centre'
p3867
aS'Suva'
p3868
aS'9'
aS'5'
aS'2'
aS'10'
p3869
aa(lp3870
S'Levani Botia Veivuke'
p3871
aS'2013'
p3872
aS'Centre'
p3873
aS'1988'
p3874
aS'2'
aS'1'
aS'1'
aS'5'
aa(lp3875
S'Alex Rokobaro'
p3876
aS'2013'
p3877
aS'Fullback'
p3878
aS'SA'
p3879
aS'2'
aS'2'
aS'0'
aS'0'
aa(lp3880
S'Peni Ravai Kovekalou'
p3881
aS'2013'
p3882
aS'Prop'
p3883
aS'Nadroga'
p3884
aS'2'
aS'2'
aS'0'
aS'0'
aa(lp3885
S'Henry Seniloli'
p3886
aS'2013'
p3887
aS'Scrum-half'
p3888
aS'Tabua'
p3889
aS'4'
aS'2'
aS'0'
aS'0'
aa(lp3890
S'Isei Colati'
p3891
aS'2014'
p3892
aS'Prop'
p3893
aS'Suva'
p3894
aS'5'
aS'3'
aS'0'
aS'0'
aa(lp3895
S'Lee-Roy Eliki Atalifo'
p3896
aS'2014'
p3897
aS'Prop'
p3898
aS'1988'
p3899
aS'1'
aS'1'
aS'1'
aS'5'
aa(lp3900
S'Alipate Ratini'
p3901
aS'2014'
p3902
aS'Wing'
p3903
aS'Namosi'
p3904
aS'1'
aS'0'
aS'1'
aS'5'
aa(lp3905
S'Nemia Soqeta'
p3906
aS'2014'
p3907
aS'Lock, Flanker'
p3908
aS'1985'
p3909
aS'3'
aS'1'
aS'0'
aS'0'
aa(lp3910
S'Taniela Koroi'
p3911
aS'2014'
p3912
aS'Prop'
p3913
aS'1990'
p3914
aS'1'
aS'1'
aS'0'
aS'0'
aa.