(lp1
Vdate unknown
p2
aVdate unknown
p3
aVdate unknown
p4
aVdate unknown
p5
aVdate unknown
p6
aVdate unknown
p7
aVdate unknown
p8
aVdate unknown
p9
aVdate unknown
p10
aVdate unknown
p11
aVdate unknown
p12
aVdate unknown
p13
aVdate unknown
p14
aVdate unknown
p15
aVdate unknown
p16
aVdate unknown
p17
aVdate unknown
p18
aVdate unknown
p19
aVMarch 9, 1908, London
p20
aVdate unknown
p21
aVdate unknown
p22
aVdate unknown
p23
aVdate unknown
p24
aVdate unknown
p25
aVdate unknown
p26
aVdate unknown
p27
aVdate unknown
p28
aVdate unknown
p29
aVdate unknown
p30
aVdate unknown
p31
aVdate unknown
p32
aVdate unknown
p33
aVdate unknown
p34
aVdate unknown
p35
aVdate unknown
p36
aVdate unknown
p37
aVdate unknown
p38
aVdate unknown
p39
aVdate unknown
p40
aVdate unknown
p41
aVdate unknown
p42
aVdate unknown
p43
aVdate unknown
p44
aVdate unknown
p45
aVdate unknown
p46
aVdate unknown
p47
aVdate unknown
p48
aVdate unknown
p49
aVdate unknown
p50
aVdate unknown
p51
aVdate unknown
p52
aVdate unknown
p53
aVdate unknown
p54
aVdate unknown
p55
aVdate unknown
p56
aVdate unknown
p57
aVdate unknown
p58
aVdate unknown
p59
aVdate unknown
p60
aVdate unknown
p61
aVdate unknown
p62
aVdate unknown
p63
aVdate unknown
p64
aVdate unknown
p65
aVdate unknown
p66
aVdate unknown
p67
aVcirca 1949
p68
aVdate unknown
p69
aVdate unknown
p70
aVdate unknown
p71
aVdate unknown
p72
aVdate unknown
p73
aVdate unknown
p74
aVdate unknown
p75
aVdate unknown
p76
aVdate unknown
p77
aVdate unknown
p78
aVdate unknown
p79
aVdate unknown
p80
aVdate unknown
p81
aVdate unknown
p82
aVdate unknown
p83
aVdate unknown
p84
aVdate unknown
p85
aVdate unknown
p86
aVdate unknown
p87
aVdate unknown
p88
aVMay 23, 1951, Durban
p89
aVdate unknown
p90
aVdate unknown
p91
aVdate unknown
p92
aVFebruary 13, 1954, Vancouver, BC
p93
aVFebruary 13, 1953, Amsterdam, Netherland
p94
aVdate unknown
p95
aVdate unknown
p96
aVdate unknown
p97
aVdate unknown
p98
aVOctober 10, 1946, Cornwall
p99
aVdate unknown
p100
aVdate unknown
p101
aVdate unknown
p102
aVdate unknown
p103
aVdate unknown
p104
aVdate unknown
p105
aVdate unknown
p106
aVdate unknown
p107
aVdate unknown
p108
aVdate unknown
p109
aVdate unknown
p110
aVdate unknown
p111
aVdate unknown
p112
aVdate unknown
p113
aVdate unknown
p114
aVdate unknown
p115
aVJuly 3, 1954, Vancouver, BC
p116
aVAugust 6, 1954, Vancouver, BC
p117
aVdate unknown
p118
aVMay 30, 1956, Winnipeg, MB
p119
aVdate unknown
p120
aVdate unknown
p121
aVdate unknown
p122
aVdate unknown
p123
aVMay 4, 1951, Trail, BC
p124
aVdate unknown
p125
aVdate unknown
p126
aVdate unknown
p127
aVOctober 4, 1954, Vancouver, BC
p128
aVdate unknown
p129
aVdate unknown
p130
aVApril 24, 1957, Barnet
p131
aVdate unknown
p132
aVJuly 10, 1953, Saskatoon, SK
p133
aVdate unknown
p134
aVAugust 4, 1955, New Westminster
p135
aVSeptember 15, 1956, Terrace, BC
p136
aVApril 23, 1961, Dawson Creek, BC
p137
aVJanuary 10, 1953, Victoria, BC
p138
aVApril 16, 1952, Red Deer, AB
p139
aVOctober 12, 1954, Corner Brook, NL
p140
aVdate unknown
p141
aVJuly 6, 1956, Toronto, ON
p142
aVMay 19, 1953, Bournemouth
p143
aVdate unknown
p144
aVSeptember 18, 1956, Vancouver, BC
p145
aVdate unknown
p146
aVDecember 27, 1957, Victoria, BC
p147
aVApril 12, 1961
p148
aVJanuary 20, 1956, Oakville, ON
p149
aVFebruary 15, 1960, Winnipeg, MB
p150
aVdate unknown
p151
aVdate unknown
p152
aVdate unknown
p153
aVdate unknown
p154
aVcirca 1957
p155
aVdate unknown
p156
aVdate unknown
p157
aVdate unknown
p158
aVdate unknown
p159
aVNovember 6, 1962, Vancouver, BC
p160
aVdate unknown
p161
aVdate unknown
p162
aVJuly 19, 1963, Ottawa, ON
p163
aVdate unknown
p164
aVdate unknown
p165
aVOctober 8, 1961, Vancouver, BC
p166
aVOctober 29, 1962, Victoria, BC
p167
aVApril 4, 1960
p168
aVdate unknown
p169
aVdate unknown
p170
aVcirca 1955
p171
aVdate unknown
p172
aVcirca 1962
p173
aVJune 28, 1958, East London
p174
aVMarch 23, 1962, Belleville, ON
p175
aVcirca 1962
p176
aVSeptember 11, 1963, Burnaby, BC
p177
aVdate unknown
p178
aVdate unknown
p179
aVAugust 27, 1958, Glasgow
p180
aVcirca 1959
p181
aVMay 19, 1964, Vancouver, BC
p182
aVcirca 1962
p183
aVcirca 1958
p184
aVSeptember 15, 1964, Terrace, BC
p185
aVJune 30, 1967, Duncan, BC
p186
aVSeptember 30, 1962, Maple Ridge, BC
p187
aVOctober 13, 1961, Lethbridge, AB
p188
aVMay 5, 1961, Victoria, BC
p189
aVDecember 2, 1964, Winnipeg, MB
p190
aVdate unknown
p191
aVJuly 11, 1966, Vancouver, BC
p192
aVdate unknown
p193
aVdate unknown
p194
aVdate unknown
p195
aVdate unknown
p196
aVJune 14, 1961, Toronto, ON
p197
aVDecember 2, 1967
p198
aVDecember 3, 1968, Vancouver, BC
p199
aVAugust 29, 1969, Victoria, BC
p200
aVSeptember 12, 1962, New Westminster
p201
aVJanuary 16, 1969, Vancouver, BC
p202
aVJuly 27, 1966, Ottawa, ON
p203
aVApril 11, 1968, Toronto, ON
p204
aVMay 4, 1962, Natal, BC
p205
aVOctober 17, 1966, Toronto, ON
p206
aVMarch 12, 1968, Vancouver, BC
p207
aVNovember 24, 1964, Vancouver, BC
p208
aVJanuary 11, 1966, Scarborough, ON
p209
aVApril 28, 1964, New Mexico, United States
p210
aVdate unknown
p211
aVDecember 2, 1962, Port Alberni, BC
p212
aVMarch 26, 1963
p213
aVApril 24, 1969, Toronto, ON
p214
aVSeptember 12, 1971, Victoria, BC
p215
aVdate unknown
p216
aVFebruary 19, 1962, Dawson Creek, BC
p217
aVApril 28, 1969, Winnipeg, MB
p218
aVSeptember 4, 1969, Vancouver, BC
p219
aVJuly 21, 1973, Vancouver, BC
p220
aVJuly 17, 1974, Victoria, BC
p221
aVOctober 9, 1967, Sept-Iles, QC
p222
aVAugust 12, 1969, Bandar Seri Begawan
p223
aVdate unknown
p224
aVAugust 6, 1968, Tokyo
p225
aVdate unknown
p226
aVApril 14, 1971, Kingston
p227
aVAugust 23, 1972, Vancouver, BC
p228
aVMarch 12, 1971, Cardiff
p229
aVMay 1, 1970, Bonavista, NL
p230
aVSeptember 23, 1969
p231
aVJune 11, 1970, Kelowna, BC
p232
aVJune 4, 1970, St John's, NL
p233
aVAugust 26, 1970, Lachine, QC
p234
aVAugust 7, 1975
p235
aVdate unknown
p236
aVMarch 1, 1968, Vancouver, BC
p237
aVOctober 24, 1968
p238
aVJuly 17, 1969, Nanaimo, BC
p239
aVSeptember 20, 1968, Montreal, QC
p240
aVNovember 1, 1969, Toronto, ON
p241
aVJune 10, 1969, Toronto, ON
p242
aVFebruary 13, 1975, N Vancouver, BC
p243
aVDecember 29, 1969, Paisley
p244
aVFebruary 9, 1966
p245
aVFebruary 3, 1975, Scarborough
p246
aVNovember 28, 1969, New Westminster
p247
aVOctober 11, 1973, Winnipeg, MB
p248
aVSeptember 15, 1969, Brockville, ON
p249
aVAugust 14, 1973, Orangeville, ON
p250
aVDecember 31, 1974, Toronto, ON
p251
aVdate unknown
p252
aVApril 16, 1965
p253
aVJanuary 4, 1975
p254
aVMay 28, 1972, Toronto, ON
p255
aVSeptember 10, 1974, Regina, SK
p256
aVSeptember 18, 1972, Cardiff
p257
aVAugust 7, 1971, Alberta
p258
aVdate unknown
p259
aVDecember 16, 1967, Victoria, BC
p260
aVJune 2, 1976, London
p261
aVMay 31, 1975, Victoria, BC
p262
aVOctober 24, 1972, Cardiff
p263
aVApril 16, 1968
p264
aVFebruary 2, 1972, Vancouver, BC
p265
aVOctober 31, 1973, Montreal, QC
p266
aVApril 17, 1976, Kingston, ON
p267
aVFebruary 15, 1972, Christchurch
p268
aVJanuary 10, 1975, Edmonton, AB
p269
aVApril 18, 1977, Grandforks, BC
p270
aVFebruary 8, 1975, Calgary, AL
p271
aVJuly 20, 1973
p272
aVDecember 4, 1976, Saint John, NB
p273
aVSeptember 11, 1976, Thompson, MB
p274
aVSeptember 28, 1975, Pickering, ON
p275
aVJuly 17, 1975
p276
aVNovember 23, 1974
p277
aVNovember 4, 1972
p278
aVSeptember 5, 1975
p279
aVAugust 18, 1980, Abbotsford, BC
p280
aVMay 7, 1979, Regina, SK
p281
aVJuly 17, 1974
p282
aVAugust 24, 1969, London, ON
p283
aVMay 9, 1977, Toronto, ON
p284
aVDecember 21, 1977
p285
aVOctober 9, 1969, Toronto, ON
p286
aVOctober 23, 1979, Edmonton, AB
p287
aVdate unknown
p288
aVJuly 20, 1973
p289
aVJune 14, 1980, Victoria, BC
p290
aVMarch 17, 1980, Vancouver, BC
p291
aVSeptember 6, 1978, Winnipeg, MB
p292
aVApril 7, 1980, Woodstock, NB
p293
aVAugust 19, 1973
p294
aVFebruary 15, 1972, Gosford, NSW
p295
aVAugust 9, 1979, Whitby, ON
p296
aVMay 2, 1977
p297
aVSeptember 30, 1979, London, ON
p298
aVSeptember 13, 1979, Kitchener, ON
p299
aVJuly 9, 1979, London, ON
p300
aVJuly 21, 1979, Parks, NSW
p301
aVMarch 7, 1977, Duncan, BC
p302
aVAugust 15, 1974, Sydney, NSW
p303
aVOctober 2, 1980, Fergus, ON
p304
aVSeptember 27, 1978
p305
aVApril 15, 1979, Edmonton
p306
aVApril 9, 1982, Vancouver, BC
p307
aVAugust 5, 1979
p308
aVJune 7, 1973
p309
aVMarch 24, 1984, Victoria, BC
p310
aVJune 19, 1979, N Vancouver, BC
p311
aVMarch 3, 1980
p312
aVOctober 9, 1980, Vancouver, BC
p313
aVAugust 10, 1980
p314
aVOctober 20, 1979
p315
aVApril 19, 1983
p316
aVOctober 30, 1976
p317
aVApril 12, 1983, Lucan, ON
p318
aVJune 26, 1982, Williams Lake, BC
p319
aVdate unknown
p320
aVNovember 17, 1980
p321
aVJune 14, 1979, N Vancouver, BC
p322
aVFebruary 20, 1978, London, ON
p323
aVMay 31, 1985, Victoria, BC
p324
aVJanuary 9, 1983, Hamilton, ON
p325
aVDecember 23, 1977, Devon
p326
aVOctober 26, 1981, Barrie, ON
p327
aVNovember 7, 1975
p328
aVSeptember 20, 1980
p329
aVDecember 12, 1983, N Vancouver, BC
p330
aVApril 19, 1983, Port Perry, ON
p331
aVJuly 24, 1981
p332
aVNovember 21, 1974
p333
aVJune 13, 1982, Warsaw
p334
aVSeptember 28, 1976
p335
aVJune 18, 1980, Calgary, AL
p336
aVApril 9, 1979
p337
aVOctober 27, 1982, Oakville, ON
p338
aVMay 1, 1978
p339
aVMay 31, 1978, Surrey, BC
p340
aVApril 12, 1983, Lucan, ON
p341
aVMarch 2, 1984, Elk Point, AB
p342
aVJanuary 28, 1978, Abbotsford, BC
p343
aVdate unknown
p344
aVdate unknown
p345
aVNovember 18, 1983, Vancouver, BC
p346
aVMay 5, 1978
p347
aVAugust 10, 1985, Vancouver, BC
p348
aVDecember 15, 1980
p349
aVJuly 7, 1978, Toronto, ON
p350
aVSeptember 6, 1981, North York, ON
p351
aVJanuary 4, 1982, Saskatoon, SK
p352
aVMay 17, 1982, Vancouver, BC
p353
aVApril 28, 1986, Worcester
p354
aVDecember 17, 1981
p355
aVAugust 23, 1980, Regina, SK
p356
aVJune 18, 1984, Jos
p357
aVApril 7, 1987, Randburg
p358
aVSeptember 5, 1984, Vancouver, BC
p359
aVMay 30, 1985, Vancouver, BC
p360
aVAugust 29, 1985
p361
aVOctober 30, 1985
p362
aVApril 3, 1984
p363
aVFebruary 25, 1987, Oakville, ON
p364
aVMarch 23, 1988, Richmond, BC
p365
aVAugust 4, 1986, Red Deer, AB
p366
aVDecember 30, 1985, St John's, NL
p367
aVJanuary 2, 1988, Salisbury
p368
aVSeptember 5, 1976, St John's, NL
p369
aVMay 7, 1988
p370
aVFebruary 5, 1985, N Vancouver, BC
p371
aVFebruary 22, 1986, Bellisle, NB
p372
aVSeptember 18, 1985, Victoria, BC
p373
aVDecember 19, 1985, Lindsay, ON
p374
aVJuly 21, 1988, St Albert, AB
p375
aVJuly 2, 1987, Scarborough, ON
p376
aVNovember 11, 1988, Edmonton, AB
p377
aVJune 28, 1988, Victoria, BC
p378
aVAugust 13, 1984
p379
aVAugust 18, 1977, Winnipeg, MB
p380
aVApril 11, 1986
p381
aVAugust 6, 1988, London, ON
p382
aVApril 9, 1988, Edmonton
p383
aVMay 2, 1983, Wellington
p384
aVOctober 6, 1992, Barrie, ON
p385
aVMay 31, 1990, Victoria, BC
p386
aVApril 27, 1986
p387
aVFebruary 28, 1989, Troon
p388
aVJanuary 20, 1986
p389
aVDecember 5, 1989, Vancouver, BC
p390
aVAugust 13, 1990, Lindsay, ON
p391
aVJune 16, 1991, Peterborough, ON
p392
aVAugust 21, 1991, Okotoks, AB
p393
aVAugust 26, 1980, Niagara Falls, ON
p394
aVApril 27, 1983
p395
aVAugust 26, 1989, Vancouver, BC
p396
aVNovember 1, 1991
p397
aVJune 3, 1991, Toronto, ON
p398
aVJune 16, 1989
p399
aVMarch 20, 1992
p400
aVOctober 26, 1991
p401
aVFebruary 24, 1992, Williams Lake, BC
p402
aVMay 21, 1987, Montreal, QC
p403
aVJanuary 26, 1988, Fort McMurray, AB
p404
aVMay 24, 1994
p405
aVMay 12, 1988
p406
aVJanuary 17, 1989
p407
aVNovember 1, 1984, Beckenham
p408
aVJune 24, 1988
p409
aVNovember 28, 1985
p410
aVFebruary 21, 1991, N Vancouver, BC
p411
aVAugust 27, 1992
p412
aVOctober 28, 1995
p413
aVJuly 24, 1990
p414
aVJanuary 1, 1985
p415
aVOctober 28, 1995
p416
aVSeptember 1, 1985
p417
aVJuly 4, 1987
p418
aVApril 7, 1988
p419
aVApril 7, 1991
p420
aVMay 1, 1992
p421
aVJanuary 2, 1989
p422
aVMarch 24, 1992
p423
aVDecember 10, 1982
p424
aVdate unknown
p425
aVMarch 6, 1988
p426
aVSeptember 5, 1993
p427
aVAugust 6, 1994
p428
aVJune 3, 1988
p429
a.