(lp1
VJapan v Canada at Osaka, Jan 31, 1932
p2
aVJapan v Canada at Osaka, Jan 31, 1932
p3
aVJapan v Canada at Osaka, Jan 31, 1932
p4
aVJapan v Canada at Osaka, Jan 31, 1932
p5
aVJapan v Canada at Osaka, Jan 31, 1932
p6
aVJapan v Canada at Osaka, Jan 31, 1932
p7
aVJapan v Canada at Osaka, Jan 31, 1932
p8
aVJapan v Canada at Osaka, Jan 31, 1932
p9
aVJapan v Canada at Osaka, Jan 31, 1932
p10
aVJapan v Canada at Osaka, Jan 31, 1932
p11
aVJapan v Canada at Osaka, Jan 31, 1932
p12
aVJapan v Canada at Osaka, Jan 31, 1932
p13
aVJapan v Canada at Osaka, Jan 31, 1932
p14
aVJapan v Canada at Osaka, Jan 31, 1932
p15
aVJapan v Canada at Osaka, Jan 31, 1932
p16
aVJapan v Canada at Tokyo, Feb 11, 1932
p17
aVJapan v Canada at Tokyo, Feb 11, 1932
p18
aVJapan v Canada at Tokyo, Feb 11, 1932
p19
aVJapan v Canada at Tokyo, Feb 11, 1932
p20
aVBarbarians v Canada at Gosforth, Nov 17, 1962
p21
aVBarbarians v Canada at Gosforth, Nov 17, 1962
p22
aVBarbarians v Canada at Gosforth, Nov 17, 1962
p23
aVBarbarians v Canada at Gosforth, Nov 17, 1962
p24
aVBarbarians v Canada at Gosforth, Nov 17, 1962
p25
aVBarbarians v Canada at Gosforth, Nov 17, 1962
p26
aVBarbarians v Canada at Gosforth, Nov 17, 1962
p27
aVBarbarians v Canada at Gosforth, Nov 17, 1962
p28
aVBarbarians v Canada at Gosforth, Nov 17, 1962
p29
aVBarbarians v Canada at Gosforth, Nov 17, 1962
p30
aVBarbarians v Canada at Gosforth, Nov 17, 1962
p31
aVBarbarians v Canada at Gosforth, Nov 17, 1962
p32
aVBarbarians v Canada at Gosforth, Nov 17, 1962
p33
aVBarbarians v Canada at Gosforth, Nov 17, 1962
p34
aVBarbarians v Canada at Gosforth, Nov 17, 1962
p35
aVWales Under-23s v Canada at Cardiff, Dec 1, 1962
p36
aVWales Under-23s v Canada at Cardiff, Dec 1, 1962
p37
aVWales Under-23s v Canada at Cardiff, Dec 1, 1962
p38
aVWales Under-23s v Canada at Cardiff, Dec 1, 1962
p39
aVWales Under-23s v Canada at Cardiff, Dec 1, 1962
p40
aVCanada v British and Irish Lions XV at Toronto, Sep 17, 1966
p41
aVCanada v British and Irish Lions XV at Toronto, Sep 17, 1966
p42
aVCanada v British and Irish Lions XV at Toronto, Sep 17, 1966
p43
aVCanada v British and Irish Lions XV at Toronto, Sep 17, 1966
p44
aVCanada v British and Irish Lions XV at Toronto, Sep 17, 1966
p45
aVCanada v British and Irish Lions XV at Toronto, Sep 17, 1966
p46
aVCanada v British and Irish Lions XV at Toronto, Sep 17, 1966
p47
aVCanada v British and Irish Lions XV at Toronto, Sep 17, 1966
p48
aVCanada v British and Irish Lions XV at Toronto, Sep 17, 1966
p49
aVCanada v British and Irish Lions XV at Toronto, Sep 17, 1966
p50
aVCanada v British and Irish Lions XV at Toronto, Sep 17, 1966
p51
aVCanada v British and Irish Lions XV at Toronto, Sep 17, 1966
p52
aVCanada v British and Irish Lions XV at Toronto, Sep 17, 1966
p53
aVCanada v England XV at Vancouver, Sep 30, 1967
p54
aVCanada v England XV at Vancouver, Sep 30, 1967
p55
aVCanada v England XV at Vancouver, Sep 30, 1967
p56
aVCanada v England XV at Vancouver, Sep 30, 1967
p57
aVCanada v England XV at Vancouver, Sep 30, 1967
p58
aVCanada v England XV at Vancouver, Sep 30, 1967
p59
aVCanada v England XV at Vancouver, Sep 30, 1967
p60
aVCanada v England XV at Vancouver, Sep 30, 1967
p61
aVCanada v England XV at Vancouver, Sep 30, 1967
p62
aVCanada v Fiji at Burnaby Lake, Nov 28, 1970
p63
aVCanada v Fiji at Burnaby Lake, Nov 28, 1970
p64
aVCanada v Fiji at Burnaby Lake, Nov 28, 1970
p65
aVCanada v Fiji at Burnaby Lake, Nov 28, 1970
p66
aVCanada v Fiji at Burnaby Lake, Nov 28, 1970
p67
aVCanada v Fiji at Burnaby Lake, Nov 28, 1970
p68
aVCanada v Fiji at Burnaby Lake, Nov 28, 1970
p69
aVCanada v Fiji at Burnaby Lake, Nov 28, 1970
p70
aVCanada v Fiji at Burnaby Lake, Nov 28, 1970
p71
aVWales XV v Canada at Cardiff, Oct 2, 1971
p72
aVWales XV v Canada at Cardiff, Oct 2, 1971
p73
aVWales XV v Canada at Cardiff, Oct 2, 1971
p74
aVWales XV v Canada at Cardiff, Oct 2, 1971
p75
aVWales XV v Canada at Cardiff, Oct 2, 1971
p76
aVWales XV v Canada at Cardiff, Oct 2, 1971
p77
aVWales XV v Canada at Cardiff, Oct 2, 1971
p78
aVWales XV v Canada at Cardiff, Oct 2, 1971
p79
aVCanada v Wales XV at Toronto, Jun 9, 1973
p80
aVCanada v Wales XV at Toronto, Jun 9, 1973
p81
aVCanada v Wales XV at Toronto, Jun 9, 1973
p82
aVCanada v Wales XV at Toronto, Jun 9, 1973
p83
aVCanada v Wales XV at Toronto, Jun 9, 1973
p84
aVCanada v Wales XV at Toronto, Jun 9, 1973
p85
aVCanada v Wales XV at Toronto, Jun 9, 1973
p86
aVCanada v Wales XV at Toronto, Jun 9, 1973
p87
aVCanada v Wales XV at Toronto, Jun 9, 1973
p88
aVCanada v Wales XV at Toronto, Jun 9, 1973
p89
aVCanada v Wales XV at Toronto, Jun 9, 1973
p90
aVCanada v Wales XV at Toronto, Jun 9, 1973
p91
aVCanada v Wales XV at Toronto, Jun 9, 1973
p92
aVCanada v Tonga at Vancouver, Oct 25, 1974
p93
aVCanada v Tonga at Vancouver, Oct 25, 1974
p94
aVCanada v Tonga at Vancouver, Oct 25, 1974
p95
aVCanada v Tonga at Vancouver, Oct 25, 1974
p96
aVCanada v Tonga at Vancouver, Oct 25, 1974
p97
aVCanada v Tonga at Vancouver, Oct 25, 1974
p98
aVCanada v Tonga at Vancouver, Oct 25, 1974
p99
aVCanada v Tonga at Vancouver, Oct 25, 1974
p100
aVCanada v Tonga at Vancouver, Oct 25, 1974
p101
aVCanada v Tonga at Vancouver, Oct 25, 1974
p102
aVCanada v Tonga at Vancouver, Oct 25, 1974
p103
aVCanada v Barbarians at Toronto, Jun 12, 1976
p104
aVCanada v Barbarians at Toronto, Jun 12, 1976
p105
aVCanada v Barbarians at Toronto, Jun 12, 1976
p106
aVCanada v Barbarians at Toronto, Jun 12, 1976
p107
aVCanada v Barbarians at Toronto, Jun 12, 1976
p108
aVCanada v Barbarians at Toronto, Jun 12, 1976
p109
aVCanada v Barbarians at Toronto, Jun 12, 1976
p110
aVCanada v United States of America at Burnaby Lake, May 21, 1977
p111
aVCanada v United States of America at Burnaby Lake, May 21, 1977
p112
aVCanada v United States of America at Burnaby Lake, May 21, 1977
p113
aVCanada v United States of America at Burnaby Lake, May 21, 1977
p114
aVCanada v United States of America at Burnaby Lake, May 21, 1977
p115
aVCanada v United States of America at Burnaby Lake, May 21, 1977
p116
aVCanada v United States of America at Burnaby Lake, May 21, 1977
p117
aVCanada v England Under-23s at Ottawa, Jun 4, 1977
p118
aVCanada v England Under-23s at Ottawa, Jun 4, 1977
p119
aVCanada v England Under-23s at Ottawa, Jun 4, 1977
p120
aVCanada v England Under-23s at Ottawa, Jun 4, 1977
p121
aVUnited States of America v Canada at Baltimore, May 28, 1978
p122
aVUnited States of America v Canada at Baltimore, May 28, 1978
p123
aVCanada v France XV at Calgary, Sep 30, 1978
p124
aVCanada v France XV at Calgary, Sep 30, 1978
p125
aVCanada v France XV at Calgary, Sep 30, 1978
p126
aVCanada v France XV at Calgary, Sep 30, 1978
p127
aVCanada v France XV at Calgary, Sep 30, 1978
p128
aVCanada v France XV at Calgary, Sep 30, 1978
p129
aVCanada v France XV at Calgary, Sep 30, 1978
p130
aVCanada v United States of America at Toronto, Jun 9, 1979
p131
aVCanada v United States of America at Toronto, Jun 9, 1979
p132
aVFrance A v Canada at Paris, Sep 29, 1979
p133
aVFrance A v Canada at Paris, Sep 29, 1979
p134
aVCanada v Wales XV at Burnaby Lake, May 24, 1980
p135
aVCanada v Wales XV at Burnaby Lake, May 24, 1980
p136
aVUnited States of America v Canada at Saranac Lake, Jun 8, 1980
p137
aVUnited States of America v Canada at Saranac Lake, Jun 8, 1980
p138
aVCanada v New Zealand XV at Burnaby Lake, Oct 11, 1980
p139
aVArgentina v Canada at Buenos Aires, Oct 3, 1981
p140
aVArgentina v Canada at Buenos Aires, Oct 3, 1981
p141
aVArgentina v Canada at Buenos Aires, Oct 3, 1981
p142
aVArgentina v Canada at Buenos Aires, Oct 3, 1981
p143
aVArgentina v Canada at Buenos Aires, Oct 3, 1981
p144
aVJapan v Canada at Osaka, Apr 11, 1982
p145
aVJapan v Canada at Osaka, Apr 11, 1982
p146
aVJapan v Canada at Osaka, Apr 11, 1982
p147
aVJapan v Canada at Osaka, Apr 11, 1982
p148
aVJapan v Canada at Tokyo, Apr 18, 1982
p149
aVJapan v Canada at Tokyo, Apr 18, 1982
p150
aVCanada v United States of America at Burnaby Lake, Jun 11, 1983
p151
aVCanada v United States of America at Burnaby Lake, Jun 11, 1983
p152
aVCanada v United States of America at Burnaby Lake, Jun 11, 1983
p153
aVCanada v Italy at Burnaby Lake, Jun 25, 1983
p154
aVEngland XV v Canada at Twickenham, Oct 15, 1983
p155
aVEngland XV v Canada at Twickenham, Oct 15, 1983
p156
aVEngland XV v Canada at Twickenham, Oct 15, 1983
p157
aVEngland XV v Canada at Twickenham, Oct 15, 1983
p158
aVEngland XV v Canada at Twickenham, Oct 15, 1983
p159
aVEngland XV v Canada at Twickenham, Oct 15, 1983
p160
aVEngland XV v Canada at Twickenham, Oct 15, 1983
p161
aVEngland XV v Canada at Twickenham, Oct 15, 1983
p162
aVUnited States of America v Canada at Chicago, Jun 9, 1984
p163
aVUnited States of America v Canada at Chicago, Jun 9, 1984
p164
aVUnited States of America v Canada at Chicago, Jun 9, 1984
p165
aVUnited States of America v Canada at Chicago, Jun 9, 1984
p166
aVUnited States of America v Canada at Chicago, Jun 9, 1984
p167
aVAustralia v Canada at Sydney, Jun 15, 1985
p168
aVAustralia v Canada at Sydney, Jun 15, 1985
p169
aVAustralia v Canada at Sydney, Jun 15, 1985
p170
aVAustralia v Canada at Sydney, Jun 15, 1985
p171
aVAustralia v Canada at Sydney, Jun 15, 1985
p172
aVAustralia v Canada at Sydney, Jun 15, 1985
p173
aVAustralia v Canada at Sydney, Jun 15, 1985
p174
aVAustralia v Canada at Sydney, Jun 15, 1985
p175
aVAustralia v Canada at Sydney, Jun 15, 1985
p176
aVAustralia v Canada at Brisbane, Jun 23, 1985
p177
aVCanada v United States of America at Vancouver, Nov 16, 1985
p178
aVCanada v United States of America at Vancouver, Nov 16, 1985
p179
aVCanada v United States of America at Vancouver, Nov 16, 1985
p180
aVCanada v United States of America at Vancouver, Nov 16, 1985
p181
aVCanada v Japan at Burnaby Lake, Jun 7, 1986
p182
aVCanada v Japan at Burnaby Lake, Jun 7, 1986
p183
aVCanada v Japan at Burnaby Lake, Jun 7, 1986
p184
aVUnited States of America v Canada at Tucson, Nov 8, 1986
p185
aVUnited States of America v Canada at Tucson, Nov 8, 1986
p186
aVUnited States of America v Canada at Tucson, Nov 8, 1986
p187
aVUnited States of America v Canada at Tucson, Nov 8, 1986
p188
aVUnited States of America v Canada at Tucson, Nov 8, 1986
p189
aVCanada v United States of America at Victoria, Nov 14, 1987
p190
aVCanada v United States of America at Victoria, Nov 14, 1987
p191
aVCanada v United States of America at Victoria, Nov 14, 1987
p192
aVUnited States of America v Canada at Saranac Lake, Jun 11, 1988
p193
aVUnited States of America v Canada at Saranac Lake, Jun 11, 1988
p194
aVUnited States of America v Canada at Saranac Lake, Jun 11, 1988
p195
aVUnited States of America v Canada at Saranac Lake, Jun 11, 1988
p196
aVUnited States of America v Canada at Saranac Lake, Jun 11, 1988
p197
aVCanada v Ireland XV at Victoria, Sep 2, 1989
p198
aVCanada v Ireland XV at Victoria, Sep 2, 1989
p199
aVCanada v Ireland XV at Victoria, Sep 2, 1989
p200
aVCanada v Ireland XV at Victoria, Sep 2, 1989
p201
aVCanada v United States of America at Toronto, Sep 23, 1989
p202
aVCanada v Argentina at Burnaby Lake, Mar 30, 1990
p203
aVArgentina v Canada at Buenos Aires, Jun 16, 1990
p204
aVCanada v Japan at Vancouver, May 11, 1991
p205
aVCanada v Scotland XV at Saint John, May 25, 1991
p206
aVCanada v Scotland XV at Saint John, May 25, 1991
p207
aVUnited States of America v Canada at Denver, Jun 13, 1992
p208
aVUnited States of America v Canada at Denver, Jun 13, 1992
p209
aVEngland v Canada at Wembley, Oct 17, 1992
p210
aVEngland v Canada at Wembley, Oct 17, 1992
p211
aVEngland v Canada at Wembley, Oct 17, 1992
p212
aVCanada v England XV at Burnaby Lake, May 29, 1993
p213
aVCanada v England XV at Nepean, Jun 5, 1993
p214
aVCanada v United States of America at Winnipeg, Jun 19, 1993
p215
aVCanada v Australia at Calgary, Oct 9, 1993
p216
aVCanada v Australia at Calgary, Oct 9, 1993
p217
aVWales v Canada at Cardiff, Nov 10, 1993
p218
aVWales v Canada at Cardiff, Nov 10, 1993
p219
aVUnited States of America v Canada at Long Beach, May 21, 1994
p220
aVUnited States of America v Canada at Long Beach, May 21, 1994
p221
aVFrance v Canada at Besancon, Dec 17, 1994
p222
aVScotland v Canada at Murrayfield, Jan 21, 1995
p223
aVUruguay v Canada at Montevideo, Mar 7, 1995
p224
aVUruguay v Canada at Montevideo, Mar 7, 1995
p225
aVUruguay v Canada at Montevideo, Mar 7, 1995
p226
aVUruguay v Canada at Montevideo, Mar 7, 1995
p227
aVUruguay v Canada at Montevideo, Mar 7, 1995
p228
aVArgentina v Canada at Buenos Aires, Mar 10, 1995
p229
aVArgentina v Canada at Buenos Aires, Mar 10, 1995
p230
aVNew Zealand v Canada at Auckland, Apr 22, 1995
p231
aVSouth Africa v Canada at Port Elizabeth, Jun 3, 1995
p232
aVCanada v United States of America at Markham, Sep 9, 1995
p233
aVCanada v United States of America at Markham, Sep 9, 1995
p234
aVUnited States of America v Canada at San Francisco, May 11, 1996
p235
aVUnited States of America v Canada at San Francisco, May 11, 1996
p236
aVCanada v United States of America at Vancouver, May 18, 1996
p237
aVCanada v United States of America at Vancouver, May 18, 1996
p238
aVHong Kong v Canada at Hong Kong, Jun 1, 1996
p239
aVAustralia v Canada at Brisbane, Jun 29, 1996
p240
aVAustralia v Canada at Brisbane, Jun 29, 1996
p241
aVCanada v Uruguay at Nepean, Sep 14, 1996
p242
aVCanada v Uruguay at Nepean, Sep 14, 1996
p243
aVCanada v Uruguay at Nepean, Sep 14, 1996
p244
aVCanada v Uruguay at Nepean, Sep 14, 1996
p245
aVCanada v Uruguay at Nepean, Sep 14, 1996
p246
aVCanada v Uruguay at Nepean, Sep 14, 1996
p247
aVCanada v Uruguay at Nepean, Sep 14, 1996
p248
aVCanada v United States of America at Hamilton, Sep 18, 1996
p249
aVCanada v United States of America at Vancouver, May 10, 1997
p250
aVJapan v Canada at Tokyo, May 18, 1997
p251
aVJapan v Canada at Tokyo, May 18, 1997
p252
aVHong Kong v Canada at Hong Kong, May 24, 1997
p253
aVHong Kong v Canada at Hong Kong, May 24, 1997
p254
aVIreland v Canada at Lansdowne Road, Nov 30, 1997
p255
aVJapan v Canada at Tokyo, May 3, 1998
p256
aVJapan v Canada at Tokyo, May 3, 1998
p257
aVJapan v Canada at Tokyo, May 3, 1998
p258
aVHong Kong v Canada at Hong Kong, May 9, 1998
p259
aVHong Kong v Canada at Hong Kong, May 9, 1998
p260
aVUnited States of America v Canada at Burlington, Jun 6, 1998
p261
aVCanada v Hong Kong at Shawnigan Lake, Jun 13, 1998
p262
aVCanada v Hong Kong at Shawnigan Lake, Jun 13, 1998
p263
aVCanada v Hong Kong at Shawnigan Lake, Jun 13, 1998
p264
aVJapan v Canada at Tokyo, May 1, 1999
p265
aVCanada v Fiji at Vancouver, May 15, 1999
p266
aVTonga v Canada at Nuku A'lofa, Jul 3, 1999
p267
aVEngland v Canada at Twickenham, Aug 28, 1999
p268
aVCanada v Tonga at Vancouver, May 20, 2000
p269
aVCanada v Tonga at Vancouver, May 20, 2000
p270
aVCanada v Tonga at Vancouver, May 20, 2000
p271
aVCanada v Tonga at Vancouver, May 20, 2000
p272
aVCanada v Tonga at Vancouver, May 20, 2000
p273
aVCanada v Tonga at Vancouver, May 20, 2000
p274
aVCanada v Tonga at Vancouver, May 20, 2000
p275
aVCanada v Tonga at Vancouver, May 20, 2000
p276
aVUnited States of America v Canada at Manchester, Jun 3, 2000
p277
aVUnited States of America v Canada at Manchester, Jun 3, 2000
p278
aVUnited States of America v Canada at Manchester, Jun 3, 2000
p279
aVCanada v United States of America at Kingston, May 19, 2001
p280
aVCanada v United States of America at Kingston, May 19, 2001
p281
aVCanada v United States of America at Kingston, May 19, 2001
p282
aVCanada v United States of America at Kingston, May 19, 2001
p283
aVCanada v United States of America at Kingston, May 19, 2001
p284
aVCanada v United States of America at Kingston, May 19, 2001
p285
aVCanada v Uruguay at Hamilton, May 23, 2001
p286
aVCanada v Uruguay at Hamilton, May 23, 2001
p287
aVCanada v Fiji at Tokyo, Jul 3, 2001
p288
aVCanada v Fiji at Tokyo, Jul 3, 2001
p289
aVJapan v Canada at Tokyo, Jul 8, 2001
p290
aVCanada v United States of America at Markham, Jun 29, 2002
p291
aVUnited States of America v Canada at Chicago, Jul 13, 2002
p292
aVUnited States of America v Canada at Chicago, Jul 13, 2002
p293
aVUruguay v Canada at Montevideo, Aug 24, 2002
p294
aVCanada v England A at Vancouver, Jun 14, 2003
p295
aVCanada v England A at Vancouver, Jun 14, 2003
p296
aVCanada v England A at Vancouver, Jun 14, 2003
p297
aVCanada v England A at Vancouver, Jun 14, 2003
p298
aVCanada v England A at Vancouver, Jun 14, 2003
p299
aVCanada v United States of America at Vancouver, Jun 18, 2003
p300
aVCanada v New Zealand Maori at Calgary, Jul 26, 2003
p301
aVCanada v New Zealand Maori at Calgary, Jul 26, 2003
p302
aVCanada v New Zealand Maori at Calgary, Jul 26, 2003
p303
aVCanada v Uruguay at Buenos Aires, Aug 23, 2003
p304
aVCanada v United States of America at Tokyo, May 27, 2004
p305
aVCanada v United States of America at Tokyo, May 27, 2004
p306
aVCanada v United States of America at Tokyo, May 27, 2004
p307
aVCanada v United States of America at Tokyo, May 27, 2004
p308
aVCanada v United States of America at Tokyo, May 27, 2004
p309
aVCanada v United States of America at Tokyo, May 27, 2004
p310
aVCanada v United States of America at Tokyo, May 27, 2004
p311
aVCanada v United States of America at Tokyo, May 27, 2004
p312
aVCanada v United States of America at Tokyo, May 27, 2004
p313
aVCanada v United States of America at Tokyo, May 27, 2004
p314
aVCanada v United States of America at Tokyo, May 27, 2004
p315
aVCanada v United States of America at Tokyo, May 27, 2004
p316
aVCanada v United States of America at Tokyo, May 27, 2004
p317
aVCanada v United States of America at Tokyo, May 27, 2004
p318
aVJapan v Canada at Tokyo, May 30, 2004
p319
aVCanada v England A at Calgary, Jun 13, 2004
p320
aVCanada v England A at Calgary, Jun 13, 2004
p321
aVCanada v England A at Calgary, Jun 13, 2004
p322
aVCanada v England A at Calgary, Jun 13, 2004
p323
aVEngland v Canada at Twickenham, Nov 13, 2004
p324
aVCanada v United States of America at Tokyo, May 25, 2005
p325
aVCanada v United States of America at Tokyo, May 25, 2005
p326
aVCanada v United States of America at Tokyo, May 25, 2005
p327
aVCanada v United States of America at Tokyo, May 25, 2005
p328
aVJapan v Canada at Tokyo, May 29, 2005
p329
aVJapan v Canada at Tokyo, May 29, 2005
p330
aVJapan v Canada at Tokyo, May 29, 2005
p331
aVJapan v Canada at Tokyo, May 29, 2005
p332
aVCanada v Wales at Toronto, Jun 11, 2005
p333
aVCanada v England XV at Edmonton, Jun 19, 2005
p334
aVCanada v England XV at Edmonton, Jun 19, 2005
p335
aVCanada v England XV at Edmonton, Jun 19, 2005
p336
aVCanada v England XV at Edmonton, Jun 19, 2005
p337
aVCanada v England XV at Edmonton, Jun 19, 2005
p338
aVCanada v United States of America at Edmonton, Jun 26, 2005
p339
aVCanada v Argentina at Calgary, Jul 2, 2005
p340
aVCanada v Argentina at Calgary, Jul 2, 2005
p341
aVFrance v Canada at Nantes, Nov 12, 2005
p342
aVFrance v Canada at Nantes, Nov 12, 2005
p343
aVRomania v Canada at Bucharest, Nov 19, 2005
p344
aVRomania v Canada at Bucharest, Nov 19, 2005
p345
aVCanada v Scotland A at Nepean, Jun 7, 2006
p346
aVCanada v Scotland A at Nepean, Jun 7, 2006
p347
aVCanada v Scotland A at Nepean, Jun 7, 2006
p348
aVCanada v Scotland A at Nepean, Jun 7, 2006
p349
aVCanada v England A at Toronto, Jun 10, 2006
p350
aVCanada v England A at Toronto, Jun 10, 2006
p351
aVCanada v England A at Toronto, Jun 10, 2006
p352
aVCanada v England A at Toronto, Jun 10, 2006
p353
aVBarbados v Canada at Bridgetown, Jun 24, 2006
p354
aVWales v Canada at Millennium Stadium, Nov 17, 2006
p355
aVCanada v United States of America at Twickenham, Jun 2, 2007
p356
aVCanada v United States of America at Twickenham, Jun 2, 2007
p357
aVAustralia v Canada at Bordeaux, Sep 29, 2007
p358
aVUnited States of America v Canada at Chicago, Jun 21, 2008
p359
aVUnited States of America v Canada at Chicago, Jun 21, 2008
p360
aVUnited States of America v Canada at Chicago, Jun 21, 2008
p361
aVUnited States of America v Canada at Chicago, Jun 21, 2008
p362
aVPortugal v Canada at Lisbon, Nov 1, 2008
p363
aVPortugal v Canada at Lisbon, Nov 1, 2008
p364
aVPortugal v Canada at Lisbon, Nov 1, 2008
p365
aVPortugal v Canada at Lisbon, Nov 1, 2008
p366
aVIreland v Canada at Limerick, Nov 8, 2008
p367
aVIreland v Canada at Limerick, Nov 8, 2008
p368
aVIreland v Canada at Limerick, Nov 8, 2008
p369
aVScotland v Canada at Aberdeen, Nov 22, 2008
p370
aVScotland v Canada at Aberdeen, Nov 22, 2008
p371
aVCanada v Ireland at Vancouver, May 23, 2009
p372
aVCanada v Ireland at Vancouver, May 23, 2009
p373
aVCanada v Ireland at Vancouver, May 23, 2009
p374
aVCanada v Wales at Toronto, May 30, 2009
p375
aVCanada v Georgia at Glendale, Jun 6, 2009
p376
aVJapan v Canada at Miyagi, Nov 15, 2009
p377
aVJapan v Canada at Miyagi, Nov 15, 2009
p378
aVCanada v Russia at Vancouver, Nov 28, 2009
p379
aVCanada v Russia at Vancouver, Nov 28, 2009
p380
aVCanada v Russia at Vancouver, Nov 28, 2009
p381
aVCanada v Russia at Vancouver, Nov 28, 2009
p382
aVCanada v Uruguay at Glendale, Jun 5, 2010
p383
aVBelgium v Canada at Brussels, Nov 6, 2010
p384
aVBelgium v Canada at Brussels, Nov 6, 2010
p385
aVBelgium v Canada at Brussels, Nov 6, 2010
p386
aVBelgium v Canada at Brussels, Nov 6, 2010
p387
aVBelgium v Canada at Brussels, Nov 6, 2010
p388
aVBelgium v Canada at Brussels, Nov 6, 2010
p389
aVCanada v Russia at Esher, Jun 8, 2011
p390
aVCanada v United States of America at Kingston, Jun 9, 2012
p391
aVCanada v United States of America at Kingston, Jun 9, 2012
p392
aVCanada v United States of America at Kingston, Jun 9, 2012
p393
aVCanada v Samoa at Colwyn Bay, Nov 9, 2012
p394
aVCanada v Samoa at Colwyn Bay, Nov 9, 2012
p395
aVCanada v Russia at Colwyn Bay, Nov 17, 2012
p396
aVCanada v United States of America at Edmonton, May 25, 2013
p397
aVCanada v United States of America at Edmonton, May 25, 2013
p398
aVJapan v Canada at Nagoya, Jun 19, 2013
p399
aVJapan v Canada at Nagoya, Jun 19, 2013
p400
aVJapan v Canada at Nagoya, Jun 19, 2013
p401
aVGeorgia v Canada at Tbilisi, Nov 9, 2013
p402
aVGeorgia v Canada at Tbilisi, Nov 9, 2013
p403
aVPortugal v Canada at Lisbon, Nov 23, 2013
p404
aVPortugal v Canada at Lisbon, Nov 23, 2013
p405
aVCanada v Japan at Vancouver, Jun 7, 2014
p406
aVCanada v Namibia at Colwyn Bay, Nov 7, 2014
p407
aVCanada v Samoa at Vannes, Nov 14, 2014
p408
aVCanada v Japan at San Jose, Jul 18, 2015
p409
aVCanada v Japan at San Jose, Jul 18, 2015
p410
aVCanada v Samoa at Toronto, Jul 29, 2015
p411
aVCanada v Uruguay at Langford, Feb 6, 2016
p412
aVCanada v Uruguay at Langford, Feb 6, 2016
p413
aVCanada v Uruguay at Langford, Feb 6, 2016
p414
aVCanada v Uruguay at Langford, Feb 6, 2016
p415
aVCanada v Uruguay at Langford, Feb 6, 2016
p416
aVCanada v Uruguay at Langford, Feb 6, 2016
p417
aVCanada v Uruguay at Langford, Feb 6, 2016
p418
aVUnited States of America v Canada at TX, Feb 13, 2016
p419
aVUnited States of America v Canada at TX, Feb 13, 2016
p420
aVUnited States of America v Canada at TX, Feb 13, 2016
p421
aVUnited States of America v Canada at TX, Feb 13, 2016
p422
aVCanada v Brazil at Langford, Feb 20, 2016
p423
aVCanada v Brazil at Langford, Feb 20, 2016
p424
aVCanada v Brazil at Langford, Feb 20, 2016
p425
aVCanada v Brazil at Langford, Feb 20, 2016
p426
aVCanada v Brazil at Langford, Feb 20, 2016
p427
aVCanada v Brazil at Langford, Feb 20, 2016
p428
aVCanada v Brazil at Langford, Feb 20, 2016
p429
a.