(lp1
S'Jerry Boone'
p2
aS'Eric Cameron'
p3
aS'Albert du Temple'
p4
aS'Campbell Forbes'
p5
aS'Brian Hunnings'
p6
aS'A.B. Mitchell'
p7
aS'Bud Murray'
p8
aS'George Niblo'
p9
aS'Johnny Rowland'
p10
aS'Ivor Saundry'
p11
aS'Sydney Selkirk'
p12
aS'Frank Skillings'
p13
aS'Tubby Suter'
p14
aS'William Wharton'
p15
aS'Pete Wilson'
p16
aS'Jack Bain'
p17
aS'G.E.R. Cox'
p18
aS'Len Leroy'
p19
aS'Ernest Pinkham'
p20
aS'Greg Bjarnason'
p21
aS'Don Burgess'
p22
aS'Mike Chambers'
p23
aS'R.M. Clark'
p24
aS'P. Frize'
p25
aS'Peter Grantham'
p26
aS'J.M.S. Lecky'
p27
aS'R. McKee'
p28
aS'Buzz Moore'
p29
aS'V.J.P. Moroney'
p30
aS'George Puil'
p31
aS'W.G. Stover'
p32
aS'J.D.B. Stubbs'
p33
aS'D.N. Ure'
p34
aS'R.S. Wilson'
p35
aS'W. Granleese'
p36
aS'John Newton'
p37
aS'J.M. Ward'
p38
aS'G.J.M. Wessels'
p39
aS'B.N. Williams'
p40
aS'Brian Barker'
p41
aS'Al Bianco'
p42
aS'Barrie Burnham'
p43
aS'Tim Cummings'
p44
aS'Ted Hunt'
p45
aS'Jerry Lorenz'
p46
aS'Ross McDonald'
p47
aS'Brian McKee'
p48
aS'Dave Milne'
p49
aS'Geoff Robinson'
p50
aS'Jim Ryan'
p51
aS'D. Steen'
p52
aS'R.W. Wickland'
p53
aS'Tom Bourne'
p54
aS'R. Brewer'
p55
aS'Ieuan Edwards'
p56
aS'Tommy Fraine'
p57
aS'Gary Fumano'
p58
aS'T.K. Kariya'
p59
aS'M.G. McKenna'
p60
aS'L.W. Whitty'
p61
aS'Tony Wooler'
p62
aS'C. Burford'
p63
aS'A.E. Foster'
p64
aS'R.O. Jackson'
p65
aS'O. Johnson'
p66
aS'G. MacDonald'
p67
aS'Spence McTavish'
p68
aS'K. Myhre'
p69
aS'Doug Schick'
p70
aS'W. Thomson'
p71
aS'Jordan Allers'
p72
aS'Mike Ashton'
p73
aS'G. Henrikson'
p74
aS'D.V. Pahl'
p75
aS'Dave Slater'
p76
aS'Andy Stanton'
p77
aS'F.J. Sturrock'
p78
aS'Ken Wilke'
p79
aS'S. Barber'
p80
aS'Tim Blackwell'
p81
aS'N. Browne'
p82
aS'F. Deacy'
p83
aS'Dave Docherty'
p84
aS'G. Ellwand'
p85
aS'G. Greig'
p86
aS'G. Gudmunseth'
p87
aS'L. Hillier'
p88
aS'Ro Hindson'
p89
aS'Barry Legh'
p90
aS'H. Wyndham'
p91
aS'R. McGeein'
p92
aS'John Billingsley'
p93
aS'Hans de Goede'
p94
aS'Alan Douglas'
p95
aS'M.A. Eckardt'
p96
aS'P. Howlett'
p97
aS'A. Kingham'
p98
aS'Mike Luke'
p99
aS'J. McDonald'
p100
aS'Peter Mason'
p101
aS'Geoff Relph'
p102
aS'David Whyte'
p103
aS'Mike Alder'
p104
aS'I. Fleming'
p105
aS'C.E. le Fevre'
p106
aS'D.L.J. Quigley'
p107
aS'A. Scott'
p108
aS'C. Walt'
p109
aS'Keith Wilkinson'
p110
aS'A. Bauer'
p111
aS'Bill Collins'
p112
aS'M.J.W. Dandy'
p113
aS'D.C. Eburne'
p114
aS'G.G. Gonis'
p115
aS'Robbie Greig'
p116
aS'Preston Wiley'
p117
aS'F. Carson'
p118
aS'Garry Hirayama'
p119
aS'Gary Grant'
p120
aS'S. Wood'
p121
aS'E.R. Stapleton'
p122
aS'Michael Williams'
p123
aS'Jim Donaldson'
p124
aS'G.R. Johnston'
p125
aS'K.J. Peace'
p126
aS'J.D. Shaw'
p127
aS'Graham Taylor'
p128
aS'Larry Chung'
p129
aS'D.G. van Eeuwen'
p130
aS'Andrew Bibby'
p131
aS'Robin Russell'
p132
aS'Ron McInnes'
p133
aS'Dave Sinnott'
p134
aS'Don Carson'
p135
aS'Gary Dukelow'
p136
aS'Mark Schiefler'
p137
aS'Chuck Shergold'
p138
aS'John Phelan'
p139
aS'Garland Jennings'
p140
aS'Charlie MacLaghlan'
p141
aS'Ian MacMillan'
p142
aS'Jim Moyes'
p143
aS'Bill Spofford'
p144
aS'Jamie Hawthorn'
p145
aS'Evan Jones'
p146
aS'Paul Monaghan'
p147
aS'Mark Wyatt'
p148
aS'Tony Godziek'
p149
aS'John Lecky'
p150
aS'Bernie Bonenberg'
p151
aS'F. Forster'
p152
aS'P.J. MacLean'
p153
aS'McLean'
p154
aS'Ross Breen'
p155
aS'Z. Cvitak'
p156
aS'Jim Delaney'
p157
aS'G. Fraser'
p158
aS'Cliff Jones'
p159
aS'Pat Palmer'
p160
aS'R. Strang'
p161
aS'John Vivian'
p162
aS'Steve Gray'
p163
aS'Matt Kokan'
p164
aS'P.A. Kyle'
p165
aS'Ian Stuart'
p166
aS'Tom Woods'
p167
aS'Norman Carr'
p168
aS'Mike Clarkin'
p169
aS'Marius Felix'
p170
aS'Bill Handson'
p171
aS'A.C. McGann'
p172
aS'Randy McKellar'
p173
aS'John Robertsen'
p174
aS'Karl Svoboda'
p175
aS'Dave Tucker'
p176
aS'Roy Radu'
p177
aS'J.D.O. Devlin'
p178
aS'E.D. Kettleson'
p179
aS'Gord MacKinnon'
p180
aS'Paul Vaesen'
p181
aS'Glen Ennis'
p182
aS'Rob Frame'
p183
aS'Ian Hyde-Lay'
p184
aS'Eddie Evans'
p185
aS'Gareth Rees'
p186
aS'Ron van den Brink'
p187
aS'Bruce Breen'
p188
aS'Mark Cardinal'
p189
aS'Norm Hadley'
p190
aS'Mark Holmes'
p191
aS'Chris Tynan'
p192
aS'Tony Arthurs'
p193
aS'Stuart Creagh'
p194
aS'Chris Fowler'
p195
aS'A.R. Heaman'
p196
aS'David Speirs'
p197
aS'Shayne Brown'
p198
aS'John Graf'
p199
aS'Bobby Ross'
p200
aS'Paul Szabo'
p201
aS'Scott Stewart'
p202
aS'Alan Charron'
p203
aS'Dave Lougheed'
p204
aS'Dan Jackart'
p205
aS'Christian Stewart'
p206
aS'Ian Gordon'
p207
aS'Colin McKenzie'
p208
aS'Scott MacKinnon'
p209
aS'Jeff Knauer'
p210
aS'M. Williams'
p211
aS'Kevin Wirachowski'
p212
aS'Julian Loveday'
p213
aS'John Hutchinson'
p214
aS'Chris Whittaker'
p215
aS'Ian Kennedy'
p216
aS'Ian MacKay'
p217
aS'Ron Toews'
p218
aS'Ian Cooper'
p219
aS'Mike James'
p220
aS'Winston Stanley'
p221
aS'Paul LeBlanc'
p222
aS'Kevin Whitley'
p223
aS'Jeff Grout'
p224
aS'Shawn Lytton'
p225
aS'Danny Nikas'
p226
aS'Courtney Smith'
p227
aS'Alan Tynan'
p228
aS'Gareth Rowlands'
p229
aS'Rod Snow'
p230
aS'Barry Ebl'
p231
aS'Chris Michaluk'
p232
aS'David Penney'
p233
aS'Nick Clapinson'
p234
aS'Rob Card'
p235
aS'Jim Yeganegi'
p236
aS'Richard Bice'
p237
aS'Jason Hall'
p238
aS'Tony Healy'
p239
aS'Dennis Clarke'
p240
aS'Jeff Tomlinson'
p241
aS'Scott Bryan'
p242
aS'Joe Haley'
p243
aS'Scott Hendry'
p244
aS'Brian Mosychuck'
p245
aS'Kyle Nichols'
p246
aS'Mike Schmid'
p247
aS'Jason Penaluna'
p248
aS'Brian McCarthy'
p249
aS'John Tait'
p250
aS'Adam Marshall'
p251
aS'C. Smythe'
p252
aS'Kevin Morgan'
p253
aS'Colin Robertson'
p254
aS'Joe Pagano'
p255
aS'Dan Baugh'
p256
aS'Pat Dunkley'
p257
aS'Harry Toews'
p258
aS'Troy MacDonald'
p259
aS'Rob Robson'
p260
aS'Nik Witkowski'
p261
aS'Jon Thiel'
p262
aS'Jeremy Cordle'
p263
aS'Roger Robinson'
p264
aS'Ryan Banks'
p265
aS'Fred Asselin'
p266
aS'Morgan Williams'
p267
aS'Duane Major'
p268
aS'Jared Barker'
p269
aS'Garth Cooke'
p270
aS'Sean Fauth'
p271
aS'Ed Knaggs'
p272
aS'Phil Murphy'
p273
aS'Kevin Tkachuk'
p274
aS'Adam van Staveren'
p275
aS'Mark Irvine'
p276
aS'Nick Milau'
p277
aS'Gregor Dixon'
p278
aS'Jason Verstraten'
p279
aS'John Cannon'
p280
aS'Ed Fairhurst'
p281
aS'Jeff Williams'
p282
aS'Dale Burleigh'
p283
aS'Marco di Girolomo'
p284
aS'Ron Johnstone'
p285
aS'Boris Stoikos'
p286
aS'Colin Yukes'
p287
aS'Brad Major'
p288
aS'Shane Thompson'
p289
aS'Mike Danskin'
p290
aS'Mark Lawson'
p291
aS'Jamie Cudmore'
p292
aS'Matt King'
p293
aS'Leif Carlson'
p294
aS'Quentin Fyffe'
p295
aS'David Moonlight'
p296
aS'Chad Plater'
p297
aS'Pat Riordan'
p298
aS'Ryan Smith'
p299
aS'Aaron Abrams'
p300
aS'James Pritchard'
p301
aS'Jim Douglas'
p302
aS'Jeff Reid'
p303
aS'Josh Jackson'
p304
aS'Pat Bickerton'
p305
aS'Forrest Gainer'
p306
aS'Stan McKeen'
p307
aS"Sean O'Leary"
p308
aS'Alby Pasutto'
p309
aS'Mike Pyke'
p310
aS'Mike Webb'
p311
aS'Tyler Wish'
p312
aS'Mike Burak'
p313
aS'Brian Collins'
p314
aS'Pat Fleck'
p315
aS'Tony LaCarte'
p316
aS'Barkley Luke'
p317
aS'Dan Pletch'
p318
aS'Matt Weingart'
p319
aS'Mike Langley'
p320
aS'Stirling Richmond'
p321
aS'Christoph Strubin'
p322
aS'Derek Daypuck'
p323
aS'Dave Spicer'
p324
aS'Aaron Carpenter'
p325
aS'Dave Ramsay'
p326
aS'Luke Tait'
p327
aS'Ken Goodland'
p328
aS'Ollie Atkinson'
p329
aS'Brodie Henderson'
p330
aS'Dean van Camp'
p331
aS'Kevin Parfrey'
p332
aS'Simon Pacey'
p333
aS'Kris Witkowski'
p334
aS'Peter Densmore'
p335
aS'Casey Dunning'
p336
aS'Iain Exner'
p337
aS'Sean-Michael Stephen'
p338
aS'Simon Rodgers'
p339
aS'Akio Tyler'
p340
aS'Mike Pletch'
p341
aS'Adam Kleeberger'
p342
aS'Ryan McWhinney'
p343
aS'Scott Hunter'
p344
aS'Ryan Stewart'
p345
aS'Justin Mensah-Coker'
p346
aS'Chris Pack'
p347
aS'Dave Biddle'
p348
aS'Matt Phinney'
p349
aS'Mike Barbieri'
p350
aS'Ander Monro'
p351
aS'Hubert Buydens'
p352
aS'Craig Culpan'
p353
aS'DTH van der Merwe'
p354
aS'Stu Ault'
p355
aS'Scott Franklin'
p356
aS'Nanyak Dala'
p357
aS'Nick Trenkel'
p358
aS'Luke Cudmore'
p359
aS'Tyler Hotson'
p360
aS'Bryn Keys'
p361
aS'Andy Wilson'
p362
aS'Andrew Fagan'
p363
aS'Phil MacKenzie'
p364
aS'Nathan Hirayama'
p365
aS'Jebb Sinclair'
p366
aS'Ciaran Hearn'
p367
aS'Matt Evans'
p368
aS'Frank Walsh'
p369
aS'Sean Duke'
p370
aS'Jason Marshall'
p371
aS"Chauncey O'Toole"
p372
aS'Phil Mack'
p373
aS'Doug Wooldridge'
p374
aS'Andrew Tiedemann'
p375
aS'John Moonlight'
p376
aS'Nick Blevins'
p377
aS'Sean White'
p378
aS'Tom Dolezel'
p379
aS'Brian Erichsen'
p380
aS'Mark MacSween'
p381
aS'Mike Scholz'
p382
aS'Ryan Hamilton'
p383
aS'Jeremy Kyne'
p384
aS'Taylor Paris'
p385
aS'Connor Braid'
p386
aS'Mitch Gudgeon'
p387
aS'Jamie Mackenzie'
p388
aS'Jon Phelan'
p389
aS'Conor Trainor'
p390
aS'Brett Beukeboom'
p391
aS'Tyler Ardron'
p392
aS'Jeff Hassler'
p393
aS'Ray Barkwill'
p394
aS'Eric Wilson'
p395
aS'Harry Jones'
p396
aS'Pat Parfrey'
p397
aS'Liam Underwood'
p398
aS'Aaron Flagg'
p399
aS'Michael Fuailefau'
p400
aS'Cam Pierce'
p401
aS'Jake Ilnicki'
p402
aS'Benoit Piffero'
p403
aS'Kyle Gilmour'
p404
aS'Djustice Sears-Duru'
p405
aS'Gordon McRorie'
p406
aS'Jordan Wilson-Ross'
p407
aS'Richard Thorpe'
p408
a.