(lp1
VLock
p2
aVFullback
p3
aVFlanker
p4
aVNo. 8
p5
aVWing
p6
aVFlanker
p7
aVHooker
p8
aVCentre
p9
aVLock
p10
aVScrum-half
p11
aVProp
p12
aVWing
p13
aVCentre
p14
aVProp
p15
aVFly-half
p16
aVFlanker
p17
aVProp
p18
aVCentre
p19
aVWing
p20
aVFlanker
p21
aVFullback
p22
aVWing
p23
aV
aV
aVProp
p24
aV
aV
aVProp
p25
aV
aVWing
p26
aV
aV
aV
aV
aV
aVWing
p27
aVScrum-half
p28
aV
aV
aVProp
p29
aVFlanker
p30
aVFullback
p31
aVCentre
p32
aVFly-half
p33
aVCentre
p34
aVScrum-half
p35
aVWing
p36
aVLock
p37
aVHooker
p38
aVWing
p39
aVLock
p40
aVNo. 8
p41
aV
aV
aV
aV
aVHooker
p42
aVFly-half
p43
aV
aV
aVProp
p44
aV
aVFlanker
p45
aVLock
p46
aV
aV
aVCentre
p47
aV
aVCentre
p48
aV
aVLock
p49
aVNo. 8
p50
aVProp
p51
aVFlanker
p52
aVScrum-half
p53
aVWing
p54
aVFlanker
p55
aVNo. 8
p56
aVCentre
p57
aVWing
p58
aVNo. 8
p59
aVScrum-half
p60
aVHooker
p61
aVLock
p62
aVFly-half
p63
aVProp
p64
aVFlanker
p65
aVLock
p66
aVFullback
p67
aVProp
p68
aV
aVFly-half
p69
aVLock
p70
aVProp
p71
aVProp
p72
aVFlanker
p73
aVScrum-half
p74
aVHooker
p75
aVFlanker
p76
aVFullback
p77
aVCentre
p78
aVWing
p79
aVFly-half
p80
aV
aV
aVScrum-half
p81
aV
aVProp
p82
aVCentre
p83
aVCentre
p84
aVLock
p85
aVWing
p86
aVLock
p87
aVFullback
p88
aVCentre
p89
aVScrum-half
p90
aV
aVFly-half
p91
aVLock
p92
aV
aVWing
p93
aVCentre
p94
aVNo. 8
p95
aVNo. 8
p96
aVProp
p97
aVLock
p98
aVFullback
p99
aV
aVProp
p100
aVCentre
p101
aVFlanker
p102
aVProp
p103
aVFlanker
p104
aVFlanker
p105
aVProp
p106
aVCentre
p107
aVWing
p108
aVFlanker
p109
aVLock
p110
aVHooker
p111
aVScrum-half
p112
aVCentre
p113
aVProp
p114
aVWing
p115
aVNo. 8
p116
aVCentre
p117
aVFullback
p118
aVFlanker
p119
aVCentre
p120
aVHooker
p121
aVWing
p122
aVFly-half
p123
aVFly-half
p124
aVProp
p125
aVFlanker
p126
aVCentre
p127
aVCentre
p128
aVWing
p129
aVWing
p130
aVLock
p131
aVHooker
p132
aVCentre
p133
aVLock
p134
aVReplacement
p135
aVCentre
p136
aVCentre
p137
aVCentre
p138
aVWing
p139
aVLock
p140
aVProp
p141
aVFullback
p142
aVProp
p143
aVLock
p144
aVHooker
p145
aVScrum-half
p146
aVFlanker
p147
aVWing
p148
aV
aVFlanker
p149
aVCentre
p150
aVNo. 8
p151
aVFlanker
p152
aVFly-half
p153
aVProp
p154
aVFullback
p155
aVLock
p156
aVFlanker
p157
aVHooker
p158
aVLock
p159
aVLock
p160
aVScrum-half
p161
aVProp
p162
aVProp
p163
aVLock
p164
aVWing
p165
aVHooker
p166
aVCentre
p167
aVScrum-half
p168
aVFly-half
p169
aVProp
p170
aVFullback
p171
aVBack-row
p172
aVCentre, Wing
p173
aVProp
p174
aVCentre
p175
aVFlanker
p176
aVNo. 8
p177
aVWing
p178
aVLock
p179
aVCentre
p180
aVProp
p181
aVWing
p182
aVFlanker
p183
aVLock
p184
aVHooker
p185
aVScrum-half
p186
aVWing
p187
aV
aVLock
p188
aVWing
p189
aVProp
p190
aVLock
p191
aVLock
p192
aVWing
p193
aVHooker
p194
aVWing
p195
aVScrum-half
p196
aVLock
p197
aVProp
p198
aVWing
p199
aVNo. 8
p200
aVProp
p201
aVProp
p202
aVScrum-half
p203
aVFlanker
p204
aVProp
p205
aVCentre
p206
aVLock
p207
aVCentre
p208
aVBack-row
p209
aVCentre
p210
aVFullback
p211
aVHooker
p212
aVProp
p213
aVCentre
p214
aVNo. 8
p215
aVFly-half
p216
aVLock
p217
aVLock
p218
aVProp, Hooker
p219
aVWing
p220
aVHooker
p221
aVCentre
p222
aVWing
p223
aVBack-row
p224
aVHooker
p225
aVProp
p226
aVFly-half, Scrum-half
p227
aVFlanker
p228
aVCentre
p229
aVProp
p230
aVWing
p231
aVCentre
p232
aVBack-row
p233
aVWing
p234
aVScrum-half
p235
aVProp
p236
aVFly-half
p237
aVProp
p238
aVWing
p239
aVLock
p240
aVNo. 8
p241
aVProp
p242
aVFlanker
p243
aVCentre, Flanker
p244
aVFullback, Scrum-half
p245
aVFlanker
p246
aVCentre, Wing
p247
aVCentre
p248
aVScrum-half
p249
aVFullback, Wing
p250
aVHooker
p251
aVScrum-half
p252
aVLock
p253
aVProp
p254
aVLock, Flanker
p255
aVFlanker
p256
aVCentre, Scrum-half
p257
aVFly-half
p258
aVHooker
p259
aVLock
p260
aVWing, Flanker
p261
aVFlanker
p262
aVFullback
p263
aVWing
p264
aVProp
p265
aVHooker
p266
aVCentre
p267
aVHooker
p268
aVFullback, Wing
p269
aVFlanker
p270
aVNo. 8
p271
aVLock
p272
aVBack-row
p273
aVProp
p274
aVBack-row
p275
aVLock
p276
aVProp
p277
aVWing, Fullback
p278
aVFlanker
p279
aVWing
p280
aVLock
p281
aVFlanker
p282
aVScrum-half
p283
aVWing
p284
aVCentre
p285
aVProp
p286
aVScrum-half
p287
aVFlanker
p288
aVWing
p289
aVProp
p290
aVCentre, Fly-half
p291
aVFly-half, Centre
p292
aVBack-row, Hooker
p293
aVFlanker
p294
aVLock
p295
aVBack-row
p296
aVFlanker, Lock
p297
aVWing
p298
aVWing, Centre
p299
aVFlanker
p300
aVWing
p301
aVCentre
p302
aVHooker
p303
aVProp
p304
aVProp
p305
aVLock, Back-row
p306
aVFly-half
p307
aVCentre
p308
aVHooker, Prop
p309
aVFlanker
p310
aVCentre
p311
aVLock
p312
aVWing
p313
aVWing
p314
aVCentre
p315
aVFlanker
p316
aVLock, Back-row
p317
aVProp
p318
aVFly-half
p319
aVProp
p320
aVCentre
p321
aVWing
p322
aVLock, Back-row
p323
aVProp
p324
aVFlanker
p325
aVCentre
p326
aVLock
p327
aVLock
p328
aVCentre
p329
aVLock
p330
aVFlanker
p331
aVWing
p332
aVFly-half
p333
aVLock
p334
aVFullback, Centre
p335
aVWing
p336
aVProp
p337
aVWing
p338
aVProp
p339
aVFlanker
p340
aVScrum-half
p341
aVProp
p342
aVProp
p343
aVBack-row
p344
aVCentre
p345
aVScrum-half
p346
aVProp
p347
aVLock
p348
aVFlanker
p349
aVCentre
p350
aVHooker
p351
aVFlanker
p352
aVWing
p353
aVFly-half, Centre
p354
aVLock
p355
aVScrum-half
p356
aVLock
p357
aVCentre
p358
aVLock
p359
aVFlanker
p360
aVWing
p361
aVHooker
p362
aVFullback
p363
aVFly-half, Fullback
p364
aVCentre
p365
aVFly-half
p366
aVLock
p367
aVCentre
p368
aVLock
p369
aVProp
p370
aVHooker
p371
aVFlanker
p372
aVProp
p373
aVScrum-half
p374
aVFullback, Wing
p375
aVFlanker
p376
aVFlanker
p377
aVFlanker
p378
aVFlanker
p379
aVCentre
p380
aVLock
p381
aVWing
p382
aVCentre
p383
aVBack-row
p384
aVFullback
p385
aVFlanker
p386
aVLock
p387
aVLock
p388
aVScrum-half
p389
aVWing
p390
aVCentre
p391
aVLock
p392
aVWing
p393
aVNo. 8
p394
aVHooker
p395
aVWing
p396
aVWing
p397
a.