(lp1
(dp2
S'Pens'
p3
S'0'
sS'Sub'
p4
S'0'
sS'Lost'
p5
S'2'
sS'Drop'
p6
S'0'
sS'Start'
p7
S'2'
sS'Won'
p8
S'0'
sS'GfM'
p9
S'0'
sS'Draw'
p10
S'0'
sS'Mat'
p11
S'2'
sS'Conv'
p12
S'0'
sS'Tries'
p13
S'1'
sS'Pts'
p14
S'3'
sa(dp15
S'Pens'
p16
S'0'
sS'Sub'
p17
S'0'
sS'Lost'
p18
S'1'
sS'Drop'
p19
S'0'
sS'Start'
p20
S'1'
sS'Won'
p21
S'0'
sS'GfM'
p22
S'0'
sS'Draw'
p23
S'0'
sS'Mat'
p24
S'1'
sS'Conv'
p25
S'0'
sS'Tries'
p26
S'0'
sS'Pts'
p27
S'0'
sa(dp28
S'Pens'
p29
S'0'
sS'Sub'
p30
S'0'
sS'Lost'
p31
S'2'
sS'Drop'
p32
S'0'
sS'Start'
p33
S'2'
sS'Won'
p34
S'0'
sS'GfM'
p35
S'0'
sS'Draw'
p36
S'0'
sS'Mat'
p37
S'2'
sS'Conv'
p38
S'0'
sS'Tries'
p39
S'0'
sS'Pts'
p40
S'0'
sa(dp41
S'Pens'
p42
S'0'
sS'Sub'
p43
S'0'
sS'Lost'
p44
S'2'
sS'Drop'
p45
S'0'
sS'Start'
p46
S'2'
sS'Won'
p47
S'0'
sS'GfM'
p48
S'0'
sS'Draw'
p49
S'0'
sS'Mat'
p50
S'2'
sS'Conv'
p51
S'1'
sS'Tries'
p52
S'1'
sS'Pts'
p53
S'5'
sa(dp54
S'Pens'
p55
S'0'
sS'Sub'
p56
S'0'
sS'Lost'
p57
S'2'
sS'Drop'
p58
S'0'
sS'Start'
p59
S'2'
sS'Won'
p60
S'0'
sS'GfM'
p61
S'0'
sS'Draw'
p62
S'0'
sS'Mat'
p63
S'2'
sS'Conv'
p64
S'0'
sS'Tries'
p65
S'0'
sS'Pts'
p66
S'0'
sa(dp67
S'Pens'
p68
S'0'
sS'Sub'
p69
S'0'
sS'Lost'
p70
S'2'
sS'Drop'
p71
S'0'
sS'Start'
p72
S'2'
sS'Won'
p73
S'0'
sS'GfM'
p74
S'0'
sS'Draw'
p75
S'0'
sS'Mat'
p76
S'2'
sS'Conv'
p77
S'0'
sS'Tries'
p78
S'0'
sS'Pts'
p79
S'0'
sa(dp80
S'Pens'
p81
S'0'
sS'Sub'
p82
S'0'
sS'Lost'
p83
S'1'
sS'Drop'
p84
S'0'
sS'Start'
p85
S'1'
sS'Won'
p86
S'0'
sS'GfM'
p87
S'0'
sS'Draw'
p88
S'0'
sS'Mat'
p89
S'1'
sS'Conv'
p90
S'0'
sS'Tries'
p91
S'0'
sS'Pts'
p92
S'0'
sa(dp93
S'Pens'
p94
S'0'
sS'Sub'
p95
S'0'
sS'Lost'
p96
S'2'
sS'Drop'
p97
S'0'
sS'Start'
p98
S'2'
sS'Won'
p99
S'0'
sS'GfM'
p100
S'0'
sS'Draw'
p101
S'0'
sS'Mat'
p102
S'2'
sS'Conv'
p103
S'0'
sS'Tries'
p104
S'1'
sS'Pts'
p105
S'3'
sa(dp106
S'Pens'
p107
S'0'
sS'Sub'
p108
S'0'
sS'Lost'
p109
S'2'
sS'Drop'
p110
S'0'
sS'Start'
p111
S'2'
sS'Won'
p112
S'0'
sS'GfM'
p113
S'0'
sS'Draw'
p114
S'0'
sS'Mat'
p115
S'2'
sS'Conv'
p116
S'0'
sS'Tries'
p117
S'0'
sS'Pts'
p118
S'0'
sa(dp119
S'Pens'
p120
S'0'
sS'Sub'
p121
S'0'
sS'Lost'
p122
S'2'
sS'Drop'
p123
S'0'
sS'Start'
p124
S'2'
sS'Won'
p125
S'0'
sS'GfM'
p126
S'0'
sS'Draw'
p127
S'0'
sS'Mat'
p128
S'2'
sS'Conv'
p129
S'0'
sS'Tries'
p130
S'0'
sS'Pts'
p131
S'0'
sa(dp132
S'Pens'
p133
S'0'
sS'Sub'
p134
S'0'
sS'Lost'
p135
S'1'
sS'Drop'
p136
S'0'
sS'Start'
p137
S'1'
sS'Won'
p138
S'0'
sS'GfM'
p139
S'0'
sS'Draw'
p140
S'0'
sS'Mat'
p141
S'1'
sS'Conv'
p142
S'0'
sS'Tries'
p143
S'0'
sS'Pts'
p144
S'0'
sa(dp145
S'Pens'
p146
S'0'
sS'Sub'
p147
S'0'
sS'Lost'
p148
S'2'
sS'Drop'
p149
S'0'
sS'Start'
p150
S'2'
sS'Won'
p151
S'0'
sS'GfM'
p152
S'0'
sS'Draw'
p153
S'0'
sS'Mat'
p154
S'2'
sS'Conv'
p155
S'0'
sS'Tries'
p156
S'0'
sS'Pts'
p157
S'0'
sa(dp158
S'Pens'
p159
S'0'
sS'Sub'
p160
S'0'
sS'Lost'
p161
S'1'
sS'Drop'
p162
S'0'
sS'Start'
p163
S'1'
sS'Won'
p164
S'0'
sS'GfM'
p165
S'0'
sS'Draw'
p166
S'0'
sS'Mat'
p167
S'1'
sS'Conv'
p168
S'0'
sS'Tries'
p169
S'0'
sS'Pts'
p170
S'0'
sa(dp171
S'Pens'
p172
S'0'
sS'Sub'
p173
S'0'
sS'Lost'
p174
S'2'
sS'Drop'
p175
S'0'
sS'Start'
p176
S'2'
sS'Won'
p177
S'0'
sS'GfM'
p178
S'0'
sS'Draw'
p179
S'0'
sS'Mat'
p180
S'2'
sS'Conv'
p181
S'0'
sS'Tries'
p182
S'0'
sS'Pts'
p183
S'0'
sa(dp184
S'Pens'
p185
S'0'
sS'Sub'
p186
S'0'
sS'Lost'
p187
S'2'
sS'Drop'
p188
S'0'
sS'Start'
p189
S'2'
sS'Won'
p190
S'0'
sS'GfM'
p191
S'0'
sS'Draw'
p192
S'0'
sS'Mat'
p193
S'2'
sS'Conv'
p194
S'0'
sS'Tries'
p195
S'0'
sS'Pts'
p196
S'0'
sa(dp197
S'Pens'
p198
S'0'
sS'Sub'
p199
S'0'
sS'Lost'
p200
S'1'
sS'Drop'
p201
S'0'
sS'Start'
p202
S'1'
sS'Won'
p203
S'0'
sS'GfM'
p204
S'0'
sS'Draw'
p205
S'0'
sS'Mat'
p206
S'1'
sS'Conv'
p207
S'0'
sS'Tries'
p208
S'0'
sS'Pts'
p209
S'0'
sa(dp210
S'Pens'
p211
S'0'
sS'Sub'
p212
S'0'
sS'Lost'
p213
S'1'
sS'Drop'
p214
S'0'
sS'Start'
p215
S'1'
sS'Won'
p216
S'0'
sS'GfM'
p217
S'0'
sS'Draw'
p218
S'0'
sS'Mat'
p219
S'1'
sS'Conv'
p220
S'0'
sS'Tries'
p221
S'0'
sS'Pts'
p222
S'0'
sa(dp223
S'Pens'
p224
S'0'
sS'Sub'
p225
S'0'
sS'Lost'
p226
S'1'
sS'Drop'
p227
S'0'
sS'Start'
p228
S'1'
sS'Won'
p229
S'0'
sS'GfM'
p230
S'0'
sS'Draw'
p231
S'0'
sS'Mat'
p232
S'1'
sS'Conv'
p233
S'1'
sS'Tries'
p234
S'0'
sS'Pts'
p235
S'2'
sa(dp236
S'Pens'
p237
S'0'
sS'Sub'
p238
S'0'
sS'Lost'
p239
S'1'
sS'Drop'
p240
S'0'
sS'Start'
p241
S'1'
sS'Won'
p242
S'0'
sS'GfM'
p243
S'0'
sS'Draw'
p244
S'0'
sS'Mat'
p245
S'1'
sS'Conv'
p246
S'0'
sS'Tries'
p247
S'0'
sS'Pts'
p248
S'0'
sa(dp249
S'Pens'
p250
S'0'
sS'Sub'
p251
S'0'
sS'Lost'
p252
S'0'
sS'Drop'
p253
S'0'
sS'Start'
p254
S'1'
sS'Won'
p255
S'0'
sS'GfM'
p256
S'0'
sS'Draw'
p257
S'1'
sS'Mat'
p258
S'1'
sS'Conv'
p259
S'0'
sS'Tries'
p260
S'0'
sS'Pts'
p261
S'0'
sa(dp262
S'Pens'
p263
S'1'
sS'Sub'
p264
S'0'
sS'Lost'
p265
S'1'
sS'Drop'
p266
S'0'
sS'Start'
p267
S'2'
sS'Won'
p268
S'0'
sS'GfM'
p269
S'0'
sS'Draw'
p270
S'1'
sS'Mat'
p271
S'2'
sS'Conv'
p272
S'0'
sS'Tries'
p273
S'0'
sS'Pts'
p274
S'3'
sa(dp275
S'Pens'
p276
S'0'
sS'Sub'
p277
S'0'
sS'Lost'
p278
S'2'
sS'Drop'
p279
S'0'
sS'Start'
p280
S'3'
sS'Won'
p281
S'0'
sS'GfM'
p282
S'0'
sS'Draw'
p283
S'1'
sS'Mat'
p284
S'3'
sS'Conv'
p285
S'0'
sS'Tries'
p286
S'1'
sS'Pts'
p287
S'3'
sa(dp288
S'Pens'
p289
S'0'
sS'Sub'
p290
S'0'
sS'Lost'
p291
S'0'
sS'Drop'
p292
S'0'
sS'Start'
p293
S'1'
sS'Won'
p294
S'0'
sS'GfM'
p295
S'0'
sS'Draw'
p296
S'1'
sS'Mat'
p297
S'1'
sS'Conv'
p298
S'0'
sS'Tries'
p299
S'0'
sS'Pts'
p300
S'0'
sa(dp301
S'Pens'
p302
S'0'
sS'Sub'
p303
S'0'
sS'Lost'
p304
S'1'
sS'Drop'
p305
S'0'
sS'Start'
p306
S'2'
sS'Won'
p307
S'0'
sS'GfM'
p308
S'0'
sS'Draw'
p309
S'1'
sS'Mat'
p310
S'2'
sS'Conv'
p311
S'0'
sS'Tries'
p312
S'0'
sS'Pts'
p313
S'0'
sa(dp314
S'Pens'
p315
S'0'
sS'Sub'
p316
S'0'
sS'Lost'
p317
S'2'
sS'Drop'
p318
S'0'
sS'Start'
p319
S'3'
sS'Won'
p320
S'0'
sS'GfM'
p321
S'0'
sS'Draw'
p322
S'1'
sS'Mat'
p323
S'3'
sS'Conv'
p324
S'0'
sS'Tries'
p325
S'0'
sS'Pts'
p326
S'0'
sa(dp327
S'Pens'
p328
S'0'
sS'Sub'
p329
S'0'
sS'Lost'
p330
S'1'
sS'Drop'
p331
S'0'
sS'Start'
p332
S'2'
sS'Won'
p333
S'0'
sS'GfM'
p334
S'0'
sS'Draw'
p335
S'1'
sS'Mat'
p336
S'2'
sS'Conv'
p337
S'0'
sS'Tries'
p338
S'0'
sS'Pts'
p339
S'0'
sa(dp340
S'Pens'
p341
S'0'
sS'Sub'
p342
S'0'
sS'Lost'
p343
S'1'
sS'Drop'
p344
S'0'
sS'Start'
p345
S'2'
sS'Won'
p346
S'0'
sS'GfM'
p347
S'0'
sS'Draw'
p348
S'1'
sS'Mat'
p349
S'2'
sS'Conv'
p350
S'0'
sS'Tries'
p351
S'0'
sS'Pts'
p352
S'0'
sa(dp353
S'Pens'
p354
S'0'
sS'Sub'
p355
S'0'
sS'Lost'
p356
S'1'
sS'Drop'
p357
S'0'
sS'Start'
p358
S'2'
sS'Won'
p359
S'0'
sS'GfM'
p360
S'0'
sS'Draw'
p361
S'1'
sS'Mat'
p362
S'2'
sS'Conv'
p363
S'0'
sS'Tries'
p364
S'0'
sS'Pts'
p365
S'0'
sa(dp366
S'Pens'
p367
S'0'
sS'Sub'
p368
S'0'
sS'Lost'
p369
S'0'
sS'Drop'
p370
S'0'
sS'Start'
p371
S'1'
sS'Won'
p372
S'0'
sS'GfM'
p373
S'0'
sS'Draw'
p374
S'1'
sS'Mat'
p375
S'1'
sS'Conv'
p376
S'0'
sS'Tries'
p377
S'0'
sS'Pts'
p378
S'0'
sa(dp379
S'Pens'
p380
S'0'
sS'Sub'
p381
S'0'
sS'Lost'
p382
S'1'
sS'Drop'
p383
S'0'
sS'Start'
p384
S'2'
sS'Won'
p385
S'0'
sS'GfM'
p386
S'0'
sS'Draw'
p387
S'1'
sS'Mat'
p388
S'2'
sS'Conv'
p389
S'0'
sS'Tries'
p390
S'0'
sS'Pts'
p391
S'0'
sa(dp392
S'Pens'
p393
S'0'
sS'Sub'
p394
S'0'
sS'Lost'
p395
S'0'
sS'Drop'
p396
S'0'
sS'Start'
p397
S'1'
sS'Won'
p398
S'0'
sS'GfM'
p399
S'0'
sS'Draw'
p400
S'1'
sS'Mat'
p401
S'1'
sS'Conv'
p402
S'0'
sS'Tries'
p403
S'0'
sS'Pts'
p404
S'0'
sa(dp405
S'Pens'
p406
S'0'
sS'Sub'
p407
S'0'
sS'Lost'
p408
S'1'
sS'Drop'
p409
S'0'
sS'Start'
p410
S'2'
sS'Won'
p411
S'0'
sS'GfM'
p412
S'0'
sS'Draw'
p413
S'1'
sS'Mat'
p414
S'2'
sS'Conv'
p415
S'0'
sS'Tries'
p416
S'0'
sS'Pts'
p417
S'0'
sa(dp418
S'Pens'
p419
S'0'
sS'Sub'
p420
S'0'
sS'Lost'
p421
S'1'
sS'Drop'
p422
S'0'
sS'Start'
p423
S'2'
sS'Won'
p424
S'0'
sS'GfM'
p425
S'0'
sS'Draw'
p426
S'1'
sS'Mat'
p427
S'2'
sS'Conv'
p428
S'0'
sS'Tries'
p429
S'0'
sS'Pts'
p430
S'0'
sa(dp431
S'Pens'
p432
S'0'
sS'Sub'
p433
S'0'
sS'Lost'
p434
S'0'
sS'Drop'
p435
S'0'
sS'Start'
p436
S'1'
sS'Won'
p437
S'0'
sS'GfM'
p438
S'0'
sS'Draw'
p439
S'1'
sS'Mat'
p440
S'1'
sS'Conv'
p441
S'0'
sS'Tries'
p442
S'0'
sS'Pts'
p443
S'0'
sa(dp444
S'Pens'
p445
S'0'
sS'Sub'
p446
S'0'
sS'Lost'
p447
S'1'
sS'Drop'
p448
S'0'
sS'Start'
p449
S'1'
sS'Won'
p450
S'0'
sS'GfM'
p451
S'0'
sS'Draw'
p452
S'0'
sS'Mat'
p453
S'1'
sS'Conv'
p454
S'0'
sS'Tries'
p455
S'0'
sS'Pts'
p456
S'0'
sa(dp457
S'Pens'
p458
S'0'
sS'Sub'
p459
S'0'
sS'Lost'
p460
S'1'
sS'Drop'
p461
S'0'
sS'Start'
p462
S'1'
sS'Won'
p463
S'0'
sS'GfM'
p464
S'0'
sS'Draw'
p465
S'0'
sS'Mat'
p466
S'1'
sS'Conv'
p467
S'0'
sS'Tries'
p468
S'0'
sS'Pts'
p469
S'0'
sa(dp470
S'Pens'
p471
S'0'
sS'Sub'
p472
S'0'
sS'Lost'
p473
S'1'
sS'Drop'
p474
S'0'
sS'Start'
p475
S'1'
sS'Won'
p476
S'0'
sS'GfM'
p477
S'0'
sS'Draw'
p478
S'0'
sS'Mat'
p479
S'1'
sS'Conv'
p480
S'0'
sS'Tries'
p481
S'0'
sS'Pts'
p482
S'0'
sa(dp483
S'Pens'
p484
S'0'
sS'Sub'
p485
S'0'
sS'Lost'
p486
S'1'
sS'Drop'
p487
S'0'
sS'Start'
p488
S'1'
sS'Won'
p489
S'0'
sS'GfM'
p490
S'0'
sS'Draw'
p491
S'0'
sS'Mat'
p492
S'1'
sS'Conv'
p493
S'0'
sS'Tries'
p494
S'0'
sS'Pts'
p495
S'0'
sa(dp496
S'Pens'
p497
S'0'
sS'Sub'
p498
S'0'
sS'Lost'
p499
S'1'
sS'Drop'
p500
S'0'
sS'Start'
p501
S'1'
sS'Won'
p502
S'0'
sS'GfM'
p503
S'0'
sS'Draw'
p504
S'0'
sS'Mat'
p505
S'1'
sS'Conv'
p506
S'0'
sS'Tries'
p507
S'0'
sS'Pts'
p508
S'0'
sa(dp509
S'Pens'
p510
S'0'
sS'Sub'
p511
S'0'
sS'Lost'
p512
S'2'
sS'Drop'
p513
S'0'
sS'Start'
p514
S'2'
sS'Won'
p515
S'0'
sS'GfM'
p516
S'0'
sS'Draw'
p517
S'0'
sS'Mat'
p518
S'2'
sS'Conv'
p519
S'0'
sS'Tries'
p520
S'0'
sS'Pts'
p521
S'0'
sa(dp522
S'Pens'
p523
S'0'
sS'Sub'
p524
S'0'
sS'Lost'
p525
S'1'
sS'Drop'
p526
S'0'
sS'Start'
p527
S'1'
sS'Won'
p528
S'0'
sS'GfM'
p529
S'0'
sS'Draw'
p530
S'0'
sS'Mat'
p531
S'1'
sS'Conv'
p532
S'0'
sS'Tries'
p533
S'0'
sS'Pts'
p534
S'0'
sa(dp535
S'Pens'
p536
S'0'
sS'Sub'
p537
S'0'
sS'Lost'
p538
S'4'
sS'Drop'
p539
S'0'
sS'Start'
p540
S'4'
sS'Won'
p541
S'0'
sS'GfM'
p542
S'0'
sS'Draw'
p543
S'0'
sS'Mat'
p544
S'4'
sS'Conv'
p545
S'2'
sS'Tries'
p546
S'0'
sS'Pts'
p547
S'4'
sa(dp548
S'Pens'
p549
S'0'
sS'Sub'
p550
S'0'
sS'Lost'
p551
S'2'
sS'Drop'
p552
S'0'
sS'Start'
p553
S'2'
sS'Won'
p554
S'0'
sS'GfM'
p555
S'0'
sS'Draw'
p556
S'0'
sS'Mat'
p557
S'2'
sS'Conv'
p558
S'0'
sS'Tries'
p559
S'0'
sS'Pts'
p560
S'0'
sa(dp561
S'Pens'
p562
S'0'
sS'Sub'
p563
S'0'
sS'Lost'
p564
S'2'
sS'Drop'
p565
S'0'
sS'Start'
p566
S'2'
sS'Won'
p567
S'0'
sS'GfM'
p568
S'0'
sS'Draw'
p569
S'0'
sS'Mat'
p570
S'2'
sS'Conv'
p571
S'0'
sS'Tries'
p572
S'0'
sS'Pts'
p573
S'0'
sa(dp574
S'Pens'
p575
S'0'
sS'Sub'
p576
S'0'
sS'Lost'
p577
S'3'
sS'Drop'
p578
S'0'
sS'Start'
p579
S'3'
sS'Won'
p580
S'0'
sS'GfM'
p581
S'0'
sS'Draw'
p582
S'0'
sS'Mat'
p583
S'3'
sS'Conv'
p584
S'0'
sS'Tries'
p585
S'0'
sS'Pts'
p586
S'0'
sa(dp587
S'Pens'
p588
S'0'
sS'Sub'
p589
S'0'
sS'Lost'
p590
S'3'
sS'Drop'
p591
S'0'
sS'Start'
p592
S'3'
sS'Won'
p593
S'0'
sS'GfM'
p594
S'0'
sS'Draw'
p595
S'0'
sS'Mat'
p596
S'3'
sS'Conv'
p597
S'0'
sS'Tries'
p598
S'0'
sS'Pts'
p599
S'0'
sa(dp600
S'Pens'
p601
S'0'
sS'Sub'
p602
S'0'
sS'Lost'
p603
S'2'
sS'Drop'
p604
S'0'
sS'Start'
p605
S'2'
sS'Won'
p606
S'0'
sS'GfM'
p607
S'0'
sS'Draw'
p608
S'0'
sS'Mat'
p609
S'2'
sS'Conv'
p610
S'0'
sS'Tries'
p611
S'0'
sS'Pts'
p612
S'0'
sa(dp613
S'Pens'
p614
S'0'
sS'Sub'
p615
S'0'
sS'Lost'
p616
S'2'
sS'Drop'
p617
S'0'
sS'Start'
p618
S'2'
sS'Won'
p619
S'0'
sS'GfM'
p620
S'0'
sS'Draw'
p621
S'0'
sS'Mat'
p622
S'2'
sS'Conv'
p623
S'0'
sS'Tries'
p624
S'0'
sS'Pts'
p625
S'0'
sa(dp626
S'Pens'
p627
S'0'
sS'Sub'
p628
S'0'
sS'Lost'
p629
S'1'
sS'Drop'
p630
S'0'
sS'Start'
p631
S'1'
sS'Won'
p632
S'0'
sS'GfM'
p633
S'0'
sS'Draw'
p634
S'0'
sS'Mat'
p635
S'1'
sS'Conv'
p636
S'0'
sS'Tries'
p637
S'0'
sS'Pts'
p638
S'0'
sa(dp639
S'Pens'
p640
S'0'
sS'Sub'
p641
S'0'
sS'Lost'
p642
S'2'
sS'Drop'
p643
S'0'
sS'Start'
p644
S'2'
sS'Won'
p645
S'0'
sS'GfM'
p646
S'0'
sS'Draw'
p647
S'0'
sS'Mat'
p648
S'2'
sS'Conv'
p649
S'0'
sS'Tries'
p650
S'1'
sS'Pts'
p651
S'3'
sa(dp652
S'Pens'
p653
S'0'
sS'Sub'
p654
S'0'
sS'Lost'
p655
S'1'
sS'Drop'
p656
S'0'
sS'Start'
p657
S'1'
sS'Won'
p658
S'0'
sS'GfM'
p659
S'0'
sS'Draw'
p660
S'0'
sS'Mat'
p661
S'1'
sS'Conv'
p662
S'0'
sS'Tries'
p663
S'0'
sS'Pts'
p664
S'0'
sa(dp665
S'Pens'
p666
S'0'
sS'Sub'
p667
S'0'
sS'Lost'
p668
S'2'
sS'Drop'
p669
S'0'
sS'Start'
p670
S'2'
sS'Won'
p671
S'0'
sS'GfM'
p672
S'0'
sS'Draw'
p673
S'0'
sS'Mat'
p674
S'2'
sS'Conv'
p675
S'0'
sS'Tries'
p676
S'0'
sS'Pts'
p677
S'0'
sa(dp678
S'Pens'
p679
S'0'
sS'Sub'
p680
S'0'
sS'Lost'
p681
S'1'
sS'Drop'
p682
S'0'
sS'Start'
p683
S'1'
sS'Won'
p684
S'0'
sS'GfM'
p685
S'0'
sS'Draw'
p686
S'0'
sS'Mat'
p687
S'1'
sS'Conv'
p688
S'0'
sS'Tries'
p689
S'0'
sS'Pts'
p690
S'0'
sa(dp691
S'Pens'
p692
S'0'
sS'Sub'
p693
S'0'
sS'Lost'
p694
S'1'
sS'Drop'
p695
S'0'
sS'Start'
p696
S'1'
sS'Won'
p697
S'0'
sS'GfM'
p698
S'0'
sS'Draw'
p699
S'0'
sS'Mat'
p700
S'1'
sS'Conv'
p701
S'0'
sS'Tries'
p702
S'0'
sS'Pts'
p703
S'0'
sa(dp704
S'Pens'
p705
S'0'
sS'Sub'
p706
S'0'
sS'Lost'
p707
S'1'
sS'Drop'
p708
S'0'
sS'Start'
p709
S'1'
sS'Won'
p710
S'0'
sS'GfM'
p711
S'0'
sS'Draw'
p712
S'0'
sS'Mat'
p713
S'1'
sS'Conv'
p714
S'0'
sS'Tries'
p715
S'0'
sS'Pts'
p716
S'0'
sa(dp717
S'Pens'
p718
S'0'
sS'Sub'
p719
S'0'
sS'Lost'
p720
S'1'
sS'Drop'
p721
S'0'
sS'Start'
p722
S'1'
sS'Won'
p723
S'0'
sS'GfM'
p724
S'0'
sS'Draw'
p725
S'0'
sS'Mat'
p726
S'1'
sS'Conv'
p727
S'0'
sS'Tries'
p728
S'0'
sS'Pts'
p729
S'0'
sa(dp730
S'Pens'
p731
S'0'
sS'Sub'
p732
S'0'
sS'Lost'
p733
S'2'
sS'Drop'
p734
S'0'
sS'Start'
p735
S'2'
sS'Won'
p736
S'0'
sS'GfM'
p737
S'0'
sS'Draw'
p738
S'0'
sS'Mat'
p739
S'2'
sS'Conv'
p740
S'0'
sS'Tries'
p741
S'0'
sS'Pts'
p742
S'0'
sa(dp743
S'Pens'
p744
S'0'
sS'Sub'
p745
S'0'
sS'Lost'
p746
S'3'
sS'Drop'
p747
S'0'
sS'Start'
p748
S'3'
sS'Won'
p749
S'0'
sS'GfM'
p750
S'0'
sS'Draw'
p751
S'0'
sS'Mat'
p752
S'3'
sS'Conv'
p753
S'0'
sS'Tries'
p754
S'0'
sS'Pts'
p755
S'0'
sa(dp756
S'Pens'
p757
S'0'
sS'Sub'
p758
S'0'
sS'Lost'
p759
S'1'
sS'Drop'
p760
S'0'
sS'Start'
p761
S'1'
sS'Won'
p762
S'0'
sS'GfM'
p763
S'0'
sS'Draw'
p764
S'0'
sS'Mat'
p765
S'1'
sS'Conv'
p766
S'0'
sS'Tries'
p767
S'0'
sS'Pts'
p768
S'0'
sa(dp769
S'Pens'
p770
S'0'
sS'Sub'
p771
S'0'
sS'Lost'
p772
S'1'
sS'Drop'
p773
S'0'
sS'Start'
p774
S'1'
sS'Won'
p775
S'0'
sS'GfM'
p776
S'0'
sS'Draw'
p777
S'0'
sS'Mat'
p778
S'1'
sS'Conv'
p779
S'0'
sS'Tries'
p780
S'0'
sS'Pts'
p781
S'0'
sa(dp782
S'Pens'
p783
S'0'
sS'Sub'
p784
S'0'
sS'Lost'
p785
S'1'
sS'Drop'
p786
S'0'
sS'Start'
p787
S'1'
sS'Won'
p788
S'0'
sS'GfM'
p789
S'0'
sS'Draw'
p790
S'0'
sS'Mat'
p791
S'1'
sS'Conv'
p792
S'0'
sS'Tries'
p793
S'0'
sS'Pts'
p794
S'0'
sa(dp795
S'Pens'
p796
S'0'
sS'Sub'
p797
S'0'
sS'Lost'
p798
S'1'
sS'Drop'
p799
S'0'
sS'Start'
p800
S'1'
sS'Won'
p801
S'0'
sS'GfM'
p802
S'0'
sS'Draw'
p803
S'0'
sS'Mat'
p804
S'1'
sS'Conv'
p805
S'0'
sS'Tries'
p806
S'0'
sS'Pts'
p807
S'0'
sa(dp808
S'Pens'
p809
S'0'
sS'Sub'
p810
S'0'
sS'Lost'
p811
S'4'
sS'Drop'
p812
S'0'
sS'Start'
p813
S'5'
sS'Won'
p814
S'1'
sS'GfM'
p815
S'0'
sS'Draw'
p816
S'0'
sS'Mat'
p817
S'5'
sS'Conv'
p818
S'0'
sS'Tries'
p819
S'0'
sS'Pts'
p820
S'0'
sa(dp821
S'Pens'
p822
S'0'
sS'Sub'
p823
S'0'
sS'Lost'
p824
S'2'
sS'Drop'
p825
S'0'
sS'Start'
p826
S'2'
sS'Won'
p827
S'0'
sS'GfM'
p828
S'0'
sS'Draw'
p829
S'0'
sS'Mat'
p830
S'2'
sS'Conv'
p831
S'0'
sS'Tries'
p832
S'0'
sS'Pts'
p833
S'0'
sa(dp834
S'Pens'
p835
S'0'
sS'Sub'
p836
S'0'
sS'Lost'
p837
S'1'
sS'Drop'
p838
S'0'
sS'Start'
p839
S'1'
sS'Won'
p840
S'0'
sS'GfM'
p841
S'0'
sS'Draw'
p842
S'0'
sS'Mat'
p843
S'1'
sS'Conv'
p844
S'0'
sS'Tries'
p845
S'0'
sS'Pts'
p846
S'0'
sa(dp847
S'Pens'
p848
S'0'
sS'Sub'
p849
S'0'
sS'Lost'
p850
S'1'
sS'Drop'
p851
S'0'
sS'Start'
p852
S'1'
sS'Won'
p853
S'0'
sS'GfM'
p854
S'0'
sS'Draw'
p855
S'0'
sS'Mat'
p856
S'1'
sS'Conv'
p857
S'0'
sS'Tries'
p858
S'0'
sS'Pts'
p859
S'0'
sa(dp860
S'Pens'
p861
S'0'
sS'Sub'
p862
S'0'
sS'Lost'
p863
S'14'
p864
sS'Drop'
p865
S'0'
sS'Start'
p866
S'22'
p867
sS'Won'
p868
S'7'
sS'GfM'
p869
S'0'
sS'Draw'
p870
S'1'
sS'Mat'
p871
S'22'
p872
sS'Conv'
p873
S'0'
sS'Tries'
p874
S'5'
sS'Pts'
p875
S'20'
p876
sa(dp877
S'Pens'
p878
S'0'
sS'Sub'
p879
S'0'
sS'Lost'
p880
S'1'
sS'Drop'
p881
S'0'
sS'Start'
p882
S'1'
sS'Won'
p883
S'0'
sS'GfM'
p884
S'0'
sS'Draw'
p885
S'0'
sS'Mat'
p886
S'1'
sS'Conv'
p887
S'0'
sS'Tries'
p888
S'0'
sS'Pts'
p889
S'0'
sa(dp890
S'Pens'
p891
S'0'
sS'Sub'
p892
S'0'
sS'Lost'
p893
S'2'
sS'Drop'
p894
S'0'
sS'Start'
p895
S'2'
sS'Won'
p896
S'0'
sS'GfM'
p897
S'0'
sS'Draw'
p898
S'0'
sS'Mat'
p899
S'2'
sS'Conv'
p900
S'0'
sS'Tries'
p901
S'0'
sS'Pts'
p902
S'0'
sa(dp903
S'Pens'
p904
S'0'
sS'Sub'
p905
S'0'
sS'Lost'
p906
S'1'
sS'Drop'
p907
S'0'
sS'Start'
p908
S'1'
sS'Won'
p909
S'0'
sS'GfM'
p910
S'0'
sS'Draw'
p911
S'0'
sS'Mat'
p912
S'1'
sS'Conv'
p913
S'0'
sS'Tries'
p914
S'0'
sS'Pts'
p915
S'0'
sa(dp916
S'Pens'
p917
S'0'
sS'Sub'
p918
S'0'
sS'Lost'
p919
S'1'
sS'Drop'
p920
S'0'
sS'Start'
p921
S'1'
sS'Won'
p922
S'0'
sS'GfM'
p923
S'0'
sS'Draw'
p924
S'0'
sS'Mat'
p925
S'1'
sS'Conv'
p926
S'0'
sS'Tries'
p927
S'0'
sS'Pts'
p928
S'0'
sa(dp929
S'Pens'
p930
S'0'
sS'Sub'
p931
S'0'
sS'Lost'
p932
S'1'
sS'Drop'
p933
S'0'
sS'Start'
p934
S'1'
sS'Won'
p935
S'0'
sS'GfM'
p936
S'0'
sS'Draw'
p937
S'0'
sS'Mat'
p938
S'1'
sS'Conv'
p939
S'0'
sS'Tries'
p940
S'0'
sS'Pts'
p941
S'0'
sa(dp942
S'Pens'
p943
S'0'
sS'Sub'
p944
S'0'
sS'Lost'
p945
S'1'
sS'Drop'
p946
S'0'
sS'Start'
p947
S'1'
sS'Won'
p948
S'0'
sS'GfM'
p949
S'0'
sS'Draw'
p950
S'0'
sS'Mat'
p951
S'1'
sS'Conv'
p952
S'0'
sS'Tries'
p953
S'0'
sS'Pts'
p954
S'0'
sa(dp955
S'Pens'
p956
S'0'
sS'Sub'
p957
S'0'
sS'Lost'
p958
S'1'
sS'Drop'
p959
S'0'
sS'Start'
p960
S'1'
sS'Won'
p961
S'0'
sS'GfM'
p962
S'0'
sS'Draw'
p963
S'0'
sS'Mat'
p964
S'1'
sS'Conv'
p965
S'0'
sS'Tries'
p966
S'0'
sS'Pts'
p967
S'0'
sa(dp968
S'Pens'
p969
S'0'
sS'Sub'
p970
S'0'
sS'Lost'
p971
S'1'
sS'Drop'
p972
S'0'
sS'Start'
p973
S'1'
sS'Won'
p974
S'0'
sS'GfM'
p975
S'0'
sS'Draw'
p976
S'0'
sS'Mat'
p977
S'1'
sS'Conv'
p978
S'0'
sS'Tries'
p979
S'0'
sS'Pts'
p980
S'0'
sa(dp981
S'Pens'
p982
S'0'
sS'Sub'
p983
S'0'
sS'Lost'
p984
S'3'
sS'Drop'
p985
S'0'
sS'Start'
p986
S'3'
sS'Won'
p987
S'0'
sS'GfM'
p988
S'0'
sS'Draw'
p989
S'0'
sS'Mat'
p990
S'3'
sS'Conv'
p991
S'0'
sS'Tries'
p992
S'1'
sS'Pts'
p993
S'4'
sa(dp994
S'Pens'
p995
S'0'
sS'Sub'
p996
S'0'
sS'Lost'
p997
S'1'
sS'Drop'
p998
S'0'
sS'Start'
p999
S'1'
sS'Won'
p1000
S'0'
sS'GfM'
p1001
S'0'
sS'Draw'
p1002
S'0'
sS'Mat'
p1003
S'1'
sS'Conv'
p1004
S'0'
sS'Tries'
p1005
S'0'
sS'Pts'
p1006
S'0'
sa(dp1007
S'Pens'
p1008
S'0'
sS'Sub'
p1009
S'0'
sS'Lost'
p1010
S'4'
sS'Drop'
p1011
S'0'
sS'Start'
p1012
S'4'
sS'Won'
p1013
S'0'
sS'GfM'
p1014
S'0'
sS'Draw'
p1015
S'0'
sS'Mat'
p1016
S'4'
sS'Conv'
p1017
S'0'
sS'Tries'
p1018
S'0'
sS'Pts'
p1019
S'0'
sa(dp1020
S'Pens'
p1021
S'0'
sS'Sub'
p1022
S'0'
sS'Lost'
p1023
S'2'
sS'Drop'
p1024
S'0'
sS'Start'
p1025
S'2'
sS'Won'
p1026
S'0'
sS'GfM'
p1027
S'0'
sS'Draw'
p1028
S'0'
sS'Mat'
p1029
S'2'
sS'Conv'
p1030
S'0'
sS'Tries'
p1031
S'0'
sS'Pts'
p1032
S'0'
sa(dp1033
S'Pens'
p1034
S'0'
sS'Sub'
p1035
S'0'
sS'Lost'
p1036
S'1'
sS'Drop'
p1037
S'0'
sS'Start'
p1038
S'1'
sS'Won'
p1039
S'0'
sS'GfM'
p1040
S'0'
sS'Draw'
p1041
S'0'
sS'Mat'
p1042
S'1'
sS'Conv'
p1043
S'0'
sS'Tries'
p1044
S'0'
sS'Pts'
p1045
S'0'
sa(dp1046
S'Pens'
p1047
S'0'
sS'Sub'
p1048
S'0'
sS'Lost'
p1049
S'2'
sS'Drop'
p1050
S'0'
sS'Start'
p1051
S'2'
sS'Won'
p1052
S'0'
sS'GfM'
p1053
S'0'
sS'Draw'
p1054
S'0'
sS'Mat'
p1055
S'2'
sS'Conv'
p1056
S'0'
sS'Tries'
p1057
S'0'
sS'Pts'
p1058
S'0'
sa(dp1059
S'Pens'
p1060
S'2'
sS'Sub'
p1061
S'0'
sS'Lost'
p1062
S'1'
sS'Drop'
p1063
S'0'
sS'Start'
p1064
S'1'
sS'Won'
p1065
S'0'
sS'GfM'
p1066
S'0'
sS'Draw'
p1067
S'0'
sS'Mat'
p1068
S'1'
sS'Conv'
p1069
S'1'
sS'Tries'
p1070
S'0'
sS'Pts'
p1071
S'8'
sa(dp1072
S'Pens'
p1073
S'0'
sS'Sub'
p1074
S'0'
sS'Lost'
p1075
S'1'
sS'Drop'
p1076
S'0'
sS'Start'
p1077
S'1'
sS'Won'
p1078
S'0'
sS'GfM'
p1079
S'0'
sS'Draw'
p1080
S'0'
sS'Mat'
p1081
S'1'
sS'Conv'
p1082
S'0'
sS'Tries'
p1083
S'1'
sS'Pts'
p1084
S'4'
sa(dp1085
S'Pens'
p1086
S'0'
sS'Sub'
p1087
S'0'
sS'Lost'
p1088
S'1'
sS'Drop'
p1089
S'0'
sS'Start'
p1090
S'1'
sS'Won'
p1091
S'0'
sS'GfM'
p1092
S'0'
sS'Draw'
p1093
S'0'
sS'Mat'
p1094
S'1'
sS'Conv'
p1095
S'0'
sS'Tries'
p1096
S'0'
sS'Pts'
p1097
S'0'
sa(dp1098
S'Pens'
p1099
S'0'
sS'Sub'
p1100
S'0'
sS'Lost'
p1101
S'1'
sS'Drop'
p1102
S'0'
sS'Start'
p1103
S'1'
sS'Won'
p1104
S'0'
sS'GfM'
p1105
S'0'
sS'Draw'
p1106
S'0'
sS'Mat'
p1107
S'1'
sS'Conv'
p1108
S'0'
sS'Tries'
p1109
S'0'
sS'Pts'
p1110
S'0'
sa(dp1111
S'Pens'
p1112
S'0'
sS'Sub'
p1113
S'0'
sS'Lost'
p1114
S'1'
sS'Drop'
p1115
S'0'
sS'Start'
p1116
S'1'
sS'Won'
p1117
S'0'
sS'GfM'
p1118
S'0'
sS'Draw'
p1119
S'0'
sS'Mat'
p1120
S'1'
sS'Conv'
p1121
S'0'
sS'Tries'
p1122
S'0'
sS'Pts'
p1123
S'0'
sa(dp1124
S'Pens'
p1125
S'0'
sS'Sub'
p1126
S'0'
sS'Lost'
p1127
S'1'
sS'Drop'
p1128
S'0'
sS'Start'
p1129
S'1'
sS'Won'
p1130
S'0'
sS'GfM'
p1131
S'0'
sS'Draw'
p1132
S'0'
sS'Mat'
p1133
S'1'
sS'Conv'
p1134
S'0'
sS'Tries'
p1135
S'0'
sS'Pts'
p1136
S'0'
sa(dp1137
S'Pens'
p1138
S'3'
sS'Sub'
p1139
S'0'
sS'Lost'
p1140
S'21'
p1141
sS'Drop'
p1142
S'0'
sS'Start'
p1143
S'31'
p1144
sS'Won'
p1145
S'9'
sS'GfM'
p1146
S'0'
sS'Draw'
p1147
S'1'
sS'Mat'
p1148
S'31'
p1149
sS'Conv'
p1150
S'0'
sS'Tries'
p1151
S'0'
sS'Pts'
p1152
S'9'
sa(dp1153
S'Pens'
p1154
S'0'
sS'Sub'
p1155
S'0'
sS'Lost'
p1156
S'3'
sS'Drop'
p1157
S'0'
sS'Start'
p1158
S'3'
sS'Won'
p1159
S'0'
sS'GfM'
p1160
S'0'
sS'Draw'
p1161
S'0'
sS'Mat'
p1162
S'3'
sS'Conv'
p1163
S'0'
sS'Tries'
p1164
S'0'
sS'Pts'
p1165
S'0'
sa(dp1166
S'Pens'
p1167
S'0'
sS'Sub'
p1168
S'0'
sS'Lost'
p1169
S'1'
sS'Drop'
p1170
S'0'
sS'Start'
p1171
S'1'
sS'Won'
p1172
S'0'
sS'GfM'
p1173
S'0'
sS'Draw'
p1174
S'0'
sS'Mat'
p1175
S'1'
sS'Conv'
p1176
S'0'
sS'Tries'
p1177
S'2'
sS'Pts'
p1178
S'8'
sa(dp1179
S'Pens'
p1180
S'0'
sS'Sub'
p1181
S'1'
sS'Lost'
p1182
S'1'
sS'Drop'
p1183
S'0'
sS'Start'
p1184
S'0'
sS'Won'
p1185
S'0'
sS'GfM'
p1186
S'0'
sS'Draw'
p1187
S'0'
sS'Mat'
p1188
S'1'
sS'Conv'
p1189
S'0'
sS'Tries'
p1190
S'0'
sS'Pts'
p1191
S'0'
sa(dp1192
S'Pens'
p1193
S'0'
sS'Sub'
p1194
S'1'
sS'Lost'
p1195
S'5'
sS'Drop'
p1196
S'0'
sS'Start'
p1197
S'8'
sS'Won'
p1198
S'4'
sS'GfM'
p1199
S'0'
sS'Draw'
p1200
S'0'
sS'Mat'
p1201
S'9'
sS'Conv'
p1202
S'0'
sS'Tries'
p1203
S'0'
sS'Pts'
p1204
S'0'
sa(dp1205
S'Pens'
p1206
S'0'
sS'Sub'
p1207
S'0'
sS'Lost'
p1208
S'15'
p1209
sS'Drop'
p1210
S'0'
sS'Start'
p1211
S'24'
p1212
sS'Won'
p1213
S'8'
sS'GfM'
p1214
S'0'
sS'Draw'
p1215
S'1'
sS'Mat'
p1216
S'24'
p1217
sS'Conv'
p1218
S'0'
sS'Tries'
p1219
S'2'
sS'Pts'
p1220
S'8'
sa(dp1221
S'Pens'
p1222
S'0'
sS'Sub'
p1223
S'0'
sS'Lost'
p1224
S'1'
sS'Drop'
p1225
S'0'
sS'Start'
p1226
S'1'
sS'Won'
p1227
S'0'
sS'GfM'
p1228
S'0'
sS'Draw'
p1229
S'0'
sS'Mat'
p1230
S'1'
sS'Conv'
p1231
S'0'
sS'Tries'
p1232
S'1'
sS'Pts'
p1233
S'4'
sa(dp1234
S'Pens'
p1235
S'0'
sS'Sub'
p1236
S'0'
sS'Lost'
p1237
S'4'
sS'Drop'
p1238
S'0'
sS'Start'
p1239
S'5'
sS'Won'
p1240
S'1'
sS'GfM'
p1241
S'0'
sS'Draw'
p1242
S'0'
sS'Mat'
p1243
S'5'
sS'Conv'
p1244
S'0'
sS'Tries'
p1245
S'0'
sS'Pts'
p1246
S'0'
sa(dp1247
S'Pens'
p1248
S'0'
sS'Sub'
p1249
S'0'
sS'Lost'
p1250
S'1'
sS'Drop'
p1251
S'0'
sS'Start'
p1252
S'1'
sS'Won'
p1253
S'0'
sS'GfM'
p1254
S'0'
sS'Draw'
p1255
S'0'
sS'Mat'
p1256
S'1'
sS'Conv'
p1257
S'0'
sS'Tries'
p1258
S'0'
sS'Pts'
p1259
S'0'
sa(dp1260
S'Pens'
p1261
S'0'
sS'Sub'
p1262
S'0'
sS'Lost'
p1263
S'1'
sS'Drop'
p1264
S'0'
sS'Start'
p1265
S'1'
sS'Won'
p1266
S'0'
sS'GfM'
p1267
S'0'
sS'Draw'
p1268
S'0'
sS'Mat'
p1269
S'1'
sS'Conv'
p1270
S'0'
sS'Tries'
p1271
S'0'
sS'Pts'
p1272
S'0'
sa(dp1273
S'Pens'
p1274
S'0'
sS'Sub'
p1275
S'0'
sS'Lost'
p1276
S'11'
p1277
sS'Drop'
p1278
S'0'
sS'Start'
p1279
S'16'
p1280
sS'Won'
p1281
S'4'
sS'GfM'
p1282
S'0'
sS'Draw'
p1283
S'1'
sS'Mat'
p1284
S'16'
p1285
sS'Conv'
p1286
S'0'
sS'Tries'
p1287
S'0'
sS'Pts'
p1288
S'0'
sa(dp1289
S'Pens'
p1290
S'0'
sS'Sub'
p1291
S'0'
sS'Lost'
p1292
S'1'
sS'Drop'
p1293
S'0'
sS'Start'
p1294
S'1'
sS'Won'
p1295
S'0'
sS'GfM'
p1296
S'0'
sS'Draw'
p1297
S'0'
sS'Mat'
p1298
S'1'
sS'Conv'
p1299
S'0'
sS'Tries'
p1300
S'0'
sS'Pts'
p1301
S'0'
sa(dp1302
S'Pens'
p1303
S'0'
sS'Sub'
p1304
S'0'
sS'Lost'
p1305
S'1'
sS'Drop'
p1306
S'0'
sS'Start'
p1307
S'1'
sS'Won'
p1308
S'0'
sS'GfM'
p1309
S'0'
sS'Draw'
p1310
S'0'
sS'Mat'
p1311
S'1'
sS'Conv'
p1312
S'0'
sS'Tries'
p1313
S'0'
sS'Pts'
p1314
S'0'
sa(dp1315
S'Pens'
p1316
S'0'
sS'Sub'
p1317
S'0'
sS'Lost'
p1318
S'2'
sS'Drop'
p1319
S'0'
sS'Start'
p1320
S'4'
sS'Won'
p1321
S'2'
sS'GfM'
p1322
S'0'
sS'Draw'
p1323
S'0'
sS'Mat'
p1324
S'4'
sS'Conv'
p1325
S'0'
sS'Tries'
p1326
S'1'
sS'Pts'
p1327
S'4'
sa(dp1328
S'Pens'
p1329
S'0'
sS'Sub'
p1330
S'0'
sS'Lost'
p1331
S'3'
sS'Drop'
p1332
S'1'
sS'Start'
p1333
S'3'
sS'Won'
p1334
S'0'
sS'GfM'
p1335
S'0'
sS'Draw'
p1336
S'0'
sS'Mat'
p1337
S'3'
sS'Conv'
p1338
S'1'
sS'Tries'
p1339
S'1'
sS'Pts'
p1340
S'9'
sa(dp1341
S'Pens'
p1342
S'0'
sS'Sub'
p1343
S'0'
sS'Lost'
p1344
S'1'
sS'Drop'
p1345
S'0'
sS'Start'
p1346
S'1'
sS'Won'
p1347
S'0'
sS'GfM'
p1348
S'0'
sS'Draw'
p1349
S'0'
sS'Mat'
p1350
S'1'
sS'Conv'
p1351
S'0'
sS'Tries'
p1352
S'0'
sS'Pts'
p1353
S'0'
sa(dp1354
S'Pens'
p1355
S'0'
sS'Sub'
p1356
S'0'
sS'Lost'
p1357
S'1'
sS'Drop'
p1358
S'0'
sS'Start'
p1359
S'1'
sS'Won'
p1360
S'0'
sS'GfM'
p1361
S'0'
sS'Draw'
p1362
S'0'
sS'Mat'
p1363
S'1'
sS'Conv'
p1364
S'0'
sS'Tries'
p1365
S'0'
sS'Pts'
p1366
S'0'
sa(dp1367
S'Pens'
p1368
S'0'
sS'Sub'
p1369
S'0'
sS'Lost'
p1370
S'1'
sS'Drop'
p1371
S'0'
sS'Start'
p1372
S'1'
sS'Won'
p1373
S'0'
sS'GfM'
p1374
S'0'
sS'Draw'
p1375
S'0'
sS'Mat'
p1376
S'1'
sS'Conv'
p1377
S'0'
sS'Tries'
p1378
S'0'
sS'Pts'
p1379
S'0'
sa(dp1380
S'Pens'
p1381
S'0'
sS'Sub'
p1382
S'0'
sS'Lost'
p1383
S'2'
sS'Drop'
p1384
S'0'
sS'Start'
p1385
S'2'
sS'Won'
p1386
S'0'
sS'GfM'
p1387
S'0'
sS'Draw'
p1388
S'0'
sS'Mat'
p1389
S'2'
sS'Conv'
p1390
S'0'
sS'Tries'
p1391
S'0'
sS'Pts'
p1392
S'0'
sa(dp1393
S'Pens'
p1394
S'0'
sS'Sub'
p1395
S'0'
sS'Lost'
p1396
S'1'
sS'Drop'
p1397
S'0'
sS'Start'
p1398
S'1'
sS'Won'
p1399
S'0'
sS'GfM'
p1400
S'0'
sS'Draw'
p1401
S'0'
sS'Mat'
p1402
S'1'
sS'Conv'
p1403
S'0'
sS'Tries'
p1404
S'0'
sS'Pts'
p1405
S'0'
sa(dp1406
S'Pens'
p1407
S'0'
sS'Sub'
p1408
S'0'
sS'Lost'
p1409
S'5'
sS'Drop'
p1410
S'0'
sS'Start'
p1411
S'6'
sS'Won'
p1412
S'1'
sS'GfM'
p1413
S'0'
sS'Draw'
p1414
S'0'
sS'Mat'
p1415
S'6'
sS'Conv'
p1416
S'0'
sS'Tries'
p1417
S'0'
sS'Pts'
p1418
S'0'
sa(dp1419
S'Pens'
p1420
S'0'
sS'Sub'
p1421
S'0'
sS'Lost'
p1422
S'3'
sS'Drop'
p1423
S'0'
sS'Start'
p1424
S'3'
sS'Won'
p1425
S'0'
sS'GfM'
p1426
S'0'
sS'Draw'
p1427
S'0'
sS'Mat'
p1428
S'3'
sS'Conv'
p1429
S'0'
sS'Tries'
p1430
S'0'
sS'Pts'
p1431
S'0'
sa(dp1432
S'Pens'
p1433
S'0'
sS'Sub'
p1434
S'0'
sS'Lost'
p1435
S'3'
sS'Drop'
p1436
S'0'
sS'Start'
p1437
S'5'
sS'Won'
p1438
S'2'
sS'GfM'
p1439
S'0'
sS'Draw'
p1440
S'0'
sS'Mat'
p1441
S'5'
sS'Conv'
p1442
S'0'
sS'Tries'
p1443
S'1'
sS'Pts'
p1444
S'4'
sa(dp1445
S'Pens'
p1446
S'0'
sS'Sub'
p1447
S'0'
sS'Lost'
p1448
S'1'
sS'Drop'
p1449
S'0'
sS'Start'
p1450
S'2'
sS'Won'
p1451
S'1'
sS'GfM'
p1452
S'0'
sS'Draw'
p1453
S'0'
sS'Mat'
p1454
S'2'
sS'Conv'
p1455
S'0'
sS'Tries'
p1456
S'0'
sS'Pts'
p1457
S'0'
sa(dp1458
S'Pens'
p1459
S'0'
sS'Sub'
p1460
S'0'
sS'Lost'
p1461
S'2'
sS'Drop'
p1462
S'0'
sS'Start'
p1463
S'3'
sS'Won'
p1464
S'1'
sS'GfM'
p1465
S'0'
sS'Draw'
p1466
S'0'
sS'Mat'
p1467
S'3'
sS'Conv'
p1468
S'0'
sS'Tries'
p1469
S'0'
sS'Pts'
p1470
S'0'
sa(dp1471
S'Pens'
p1472
S'0'
sS'Sub'
p1473
S'0'
sS'Lost'
p1474
S'2'
sS'Drop'
p1475
S'0'
sS'Start'
p1476
S'3'
sS'Won'
p1477
S'1'
sS'GfM'
p1478
S'0'
sS'Draw'
p1479
S'0'
sS'Mat'
p1480
S'3'
sS'Conv'
p1481
S'0'
sS'Tries'
p1482
S'0'
sS'Pts'
p1483
S'0'
sa(dp1484
S'Pens'
p1485
S'1'
sS'Sub'
p1486
S'0'
sS'Lost'
p1487
S'3'
sS'Drop'
p1488
S'0'
sS'Start'
p1489
S'4'
sS'Won'
p1490
S'1'
sS'GfM'
p1491
S'0'
sS'Draw'
p1492
S'0'
sS'Mat'
p1493
S'4'
sS'Conv'
p1494
S'1'
sS'Tries'
p1495
S'1'
sS'Pts'
p1496
S'9'
sa(dp1497
S'Pens'
p1498
S'0'
sS'Sub'
p1499
S'0'
sS'Lost'
p1500
S'6'
sS'Drop'
p1501
S'0'
sS'Start'
p1502
S'10'
p1503
sS'Won'
p1504
S'4'
sS'GfM'
p1505
S'0'
sS'Draw'
p1506
S'0'
sS'Mat'
p1507
S'10'
p1508
sS'Conv'
p1509
S'0'
sS'Tries'
p1510
S'2'
sS'Pts'
p1511
S'8'
sa(dp1512
S'Pens'
p1513
S'6'
sS'Sub'
p1514
S'0'
sS'Lost'
p1515
S'6'
sS'Drop'
p1516
S'0'
sS'Start'
p1517
S'10'
p1518
sS'Won'
p1519
S'4'
sS'GfM'
p1520
S'0'
sS'Draw'
p1521
S'0'
sS'Mat'
p1522
S'10'
p1523
sS'Conv'
p1524
S'2'
sS'Tries'
p1525
S'0'
sS'Pts'
p1526
S'22'
p1527
sa(dp1528
S'Pens'
p1529
S'0'
sS'Sub'
p1530
S'0'
sS'Lost'
p1531
S'1'
sS'Drop'
p1532
S'0'
sS'Start'
p1533
S'1'
sS'Won'
p1534
S'0'
sS'GfM'
p1535
S'0'
sS'Draw'
p1536
S'0'
sS'Mat'
p1537
S'1'
sS'Conv'
p1538
S'0'
sS'Tries'
p1539
S'0'
sS'Pts'
p1540
S'0'
sa(dp1541
S'Pens'
p1542
S'0'
sS'Sub'
p1543
S'0'
sS'Lost'
p1544
S'8'
sS'Drop'
p1545
S'0'
sS'Start'
p1546
S'12'
p1547
sS'Won'
p1548
S'3'
sS'GfM'
p1549
S'0'
sS'Draw'
p1550
S'1'
sS'Mat'
p1551
S'12'
p1552
sS'Conv'
p1553
S'0'
sS'Tries'
p1554
S'0'
sS'Pts'
p1555
S'0'
sa(dp1556
S'Pens'
p1557
S'0'
sS'Sub'
p1558
S'1'
sS'Lost'
p1559
S'5'
sS'Drop'
p1560
S'0'
sS'Start'
p1561
S'5'
sS'Won'
p1562
S'1'
sS'GfM'
p1563
S'0'
sS'Draw'
p1564
S'0'
sS'Mat'
p1565
S'6'
sS'Conv'
p1566
S'0'
sS'Tries'
p1567
S'0'
sS'Pts'
p1568
S'0'
sa(dp1569
S'Pens'
p1570
S'0'
sS'Sub'
p1571
S'1'
sS'Lost'
p1572
S'1'
sS'Drop'
p1573
S'0'
sS'Start'
p1574
S'0'
sS'Won'
p1575
S'0'
sS'GfM'
p1576
S'0'
sS'Draw'
p1577
S'0'
sS'Mat'
p1578
S'1'
sS'Conv'
p1579
S'0'
sS'Tries'
p1580
S'0'
sS'Pts'
p1581
S'0'
sa(dp1582
S'Pens'
p1583
S'0'
sS'Sub'
p1584
S'0'
sS'Lost'
p1585
S'2'
sS'Drop'
p1586
S'0'
sS'Start'
p1587
S'2'
sS'Won'
p1588
S'0'
sS'Draw'
p1589
S'0'
sS'%'
S'0.00'
p1590
sS'Mat'
p1591
S'2'
sS'Conv'
p1592
S'0'
sS'Tries'
p1593
S'1'
sS'Pts'
p1594
S'4'
sa(dp1595
S'Pens'
p1596
S'0'
sS'Sub'
p1597
S'0'
sS'Lost'
p1598
S'3'
sS'Drop'
p1599
S'0'
sS'Start'
p1600
S'4'
sS'Won'
p1601
S'1'
sS'Draw'
p1602
S'0'
sS'%'
S'25.00'
p1603
sS'Mat'
p1604
S'4'
sS'Conv'
p1605
S'0'
sS'Tries'
p1606
S'0'
sS'Pts'
p1607
S'0'
sa(dp1608
S'Pens'
p1609
S'1'
sS'Sub'
p1610
S'0'
sS'Lost'
p1611
S'7'
sS'Drop'
p1612
S'0'
sS'Start'
p1613
S'13'
p1614
sS'Won'
p1615
S'5'
sS'Draw'
p1616
S'1'
sS'%'
S'42.30'
p1617
sS'Mat'
p1618
S'13'
p1619
sS'Conv'
p1620
S'0'
sS'Tries'
p1621
S'1'
sS'Pts'
p1622
S'7'
sa(dp1623
S'Pens'
p1624
S'0'
sS'Sub'
p1625
S'0'
sS'Lost'
p1626
S'1'
sS'Drop'
p1627
S'0'
sS'Start'
p1628
S'1'
sS'Won'
p1629
S'0'
sS'Draw'
p1630
S'0'
sS'%'
S'0.00'
p1631
sS'Mat'
p1632
S'1'
sS'Conv'
p1633
S'0'
sS'Tries'
p1634
S'0'
sS'Pts'
p1635
S'0'
sa(dp1636
S'Pens'
p1637
S'0'
sS'Sub'
p1638
S'0'
sS'Lost'
p1639
S'3'
sS'Drop'
p1640
S'0'
sS'Start'
p1641
S'5'
sS'Won'
p1642
S'2'
sS'Draw'
p1643
S'0'
sS'%'
S'40.00'
p1644
sS'Mat'
p1645
S'5'
sS'Conv'
p1646
S'0'
sS'Tries'
p1647
S'1'
sS'Pts'
p1648
S'4'
sa(dp1649
S'Pens'
p1650
S'0'
sS'Sub'
p1651
S'0'
sS'Lost'
p1652
S'1'
sS'Drop'
p1653
S'0'
sS'Start'
p1654
S'1'
sS'Won'
p1655
S'0'
sS'Draw'
p1656
S'0'
sS'%'
S'0.00'
p1657
sS'Mat'
p1658
S'1'
sS'Conv'
p1659
S'0'
sS'Tries'
p1660
S'0'
sS'Pts'
p1661
S'0'
sa(dp1662
S'Pens'
p1663
S'2'
sS'Sub'
p1664
S'2'
sS'Lost'
p1665
S'5'
sS'Drop'
p1666
S'0'
sS'Start'
p1667
S'8'
sS'Won'
p1668
S'5'
sS'Draw'
p1669
S'0'
sS'%'
S'50.00'
p1670
sS'Mat'
p1671
S'10'
p1672
sS'Conv'
p1673
S'1'
sS'Tries'
p1674
S'0'
sS'Pts'
p1675
S'8'
sa(dp1676
S'Pens'
p1677
S'0'
sS'Sub'
p1678
S'1'
sS'Lost'
p1679
S'1'
sS'Drop'
p1680
S'0'
sS'Start'
p1681
S'0'
sS'Won'
p1682
S'0'
sS'Draw'
p1683
S'0'
sS'%'
S'0.00'
p1684
sS'Mat'
p1685
S'1'
sS'Conv'
p1686
S'0'
sS'Tries'
p1687
S'0'
sS'Pts'
p1688
S'0'
sa(dp1689
S'Pens'
p1690
S'0'
sS'Sub'
p1691
S'1'
sS'Lost'
p1692
S'1'
sS'Drop'
p1693
S'0'
sS'Start'
p1694
S'1'
sS'Won'
p1695
S'1'
sS'Draw'
p1696
S'0'
sS'%'
S'50.00'
p1697
sS'Mat'
p1698
S'2'
sS'Conv'
p1699
S'0'
sS'Tries'
p1700
S'0'
sS'Pts'
p1701
S'0'
sa(dp1702
S'Pens'
p1703
S'0'
sS'Sub'
p1704
S'2'
sS'Lost'
p1705
S'6'
sS'Drop'
p1706
S'1'
sS'Start'
p1707
S'7'
sS'Won'
p1708
S'3'
sS'Draw'
p1709
S'0'
sS'%'
S'33.33'
p1710
sS'Mat'
p1711
S'9'
sS'Conv'
p1712
S'0'
sS'Tries'
p1713
S'1'
sS'Pts'
p1714
S'7'
sa(dp1715
S'Pens'
p1716
S'0'
sS'Sub'
p1717
S'1'
sS'Lost'
p1718
S'3'
sS'Drop'
p1719
S'0'
sS'Start'
p1720
S'3'
sS'Won'
p1721
S'1'
sS'Draw'
p1722
S'0'
sS'%'
S'25.00'
p1723
sS'Mat'
p1724
S'4'
sS'Conv'
p1725
S'0'
sS'Tries'
p1726
S'0'
sS'Pts'
p1727
S'0'
sa(dp1728
S'Pens'
p1729
S'0'
sS'Sub'
p1730
S'0'
sS'Lost'
p1731
S'8'
sS'Drop'
p1732
S'0'
sS'Start'
p1733
S'13'
p1734
sS'Won'
p1735
S'4'
sS'Draw'
p1736
S'1'
sS'%'
S'34.61'
p1737
sS'Mat'
p1738
S'13'
p1739
sS'Conv'
p1740
S'0'
sS'Tries'
p1741
S'0'
sS'Pts'
p1742
S'0'
sa(dp1743
S'Pens'
p1744
S'0'
sS'Sub'
p1745
S'0'
sS'Lost'
p1746
S'2'
sS'Drop'
p1747
S'0'
sS'Start'
p1748
S'3'
sS'Won'
p1749
S'1'
sS'Draw'
p1750
S'0'
sS'%'
S'33.33'
p1751
sS'Mat'
p1752
S'3'
sS'Conv'
p1753
S'0'
sS'Tries'
p1754
S'0'
sS'Pts'
p1755
S'0'
sa(dp1756
S'Pens'
p1757
S'0'
sS'Sub'
p1758
S'0'
sS'Lost'
p1759
S'6'
sS'Drop'
p1760
S'0'
sS'Start'
p1761
S'10'
p1762
sS'Won'
p1763
S'3'
sS'Draw'
p1764
S'1'
sS'%'
S'35.00'
p1765
sS'Mat'
p1766
S'10'
p1767
sS'Conv'
p1768
S'0'
sS'Tries'
p1769
S'0'
sS'Pts'
p1770
S'0'
sa(dp1771
S'Pens'
p1772
S'0'
sS'Sub'
p1773
S'0'
sS'Lost'
p1774
S'9'
sS'Drop'
p1775
S'0'
sS'Start'
p1776
S'14'
p1777
sS'Won'
p1778
S'4'
sS'Draw'
p1779
S'1'
sS'%'
S'32.14'
p1780
sS'Mat'
p1781
S'14'
p1782
sS'Conv'
p1783
S'0'
sS'Tries'
p1784
S'0'
sS'Pts'
p1785
S'0'
sa(dp1786
S'Pens'
p1787
S'4'
sS'Sub'
p1788
S'0'
sS'Lost'
p1789
S'5'
sS'Drop'
p1790
S'0'
sS'Start'
p1791
S'9'
sS'Won'
p1792
S'3'
sS'Draw'
p1793
S'1'
sS'%'
S'38.88'
p1794
sS'Mat'
p1795
S'9'
sS'Conv'
p1796
S'0'
sS'Tries'
p1797
S'0'
sS'Pts'
p1798
S'12'
p1799
sa(dp1800
S'Pens'
p1801
S'0'
sS'Sub'
p1802
S'1'
sS'Lost'
p1803
S'1'
sS'Drop'
p1804
S'0'
sS'Start'
p1805
S'2'
sS'Won'
p1806
S'2'
sS'Draw'
p1807
S'0'
sS'%'
S'66.66'
p1808
sS'Mat'
p1809
S'3'
sS'Conv'
p1810
S'0'
sS'Tries'
p1811
S'0'
sS'Pts'
p1812
S'0'
sa(dp1813
S'Pens'
p1814
S'0'
sS'Sub'
p1815
S'0'
sS'Lost'
p1816
S'5'
sS'Drop'
p1817
S'0'
sS'Start'
p1818
S'5'
sS'Won'
p1819
S'0'
sS'Draw'
p1820
S'0'
sS'%'
S'0.00'
p1821
sS'Mat'
p1822
S'5'
sS'Conv'
p1823
S'0'
sS'Tries'
p1824
S'0'
sS'Pts'
p1825
S'0'
sa(dp1826
S'Pens'
p1827
S'0'
sS'Sub'
p1828
S'0'
sS'Lost'
p1829
S'3'
sS'Drop'
p1830
S'0'
sS'Start'
p1831
S'5'
sS'Won'
p1832
S'2'
sS'Draw'
p1833
S'0'
sS'%'
S'40.00'
p1834
sS'Mat'
p1835
S'5'
sS'Conv'
p1836
S'0'
sS'Tries'
p1837
S'0'
sS'Pts'
p1838
S'0'
sa(dp1839
S'Pens'
p1840
S'0'
sS'Sub'
p1841
S'0'
sS'Lost'
p1842
S'3'
sS'Drop'
p1843
S'0'
sS'Start'
p1844
S'3'
sS'Won'
p1845
S'0'
sS'Draw'
p1846
S'0'
sS'%'
S'0.00'
p1847
sS'Mat'
p1848
S'3'
sS'Conv'
p1849
S'0'
sS'Tries'
p1850
S'0'
sS'Pts'
p1851
S'0'
sa(dp1852
S'Pens'
p1853
S'0'
sS'Sub'
p1854
S'0'
sS'Lost'
p1855
S'6'
sS'Drop'
p1856
S'0'
sS'Start'
p1857
S'9'
sS'Won'
p1858
S'2'
sS'Draw'
p1859
S'1'
sS'%'
S'27.77'
p1860
sS'Mat'
p1861
S'9'
sS'Conv'
p1862
S'0'
sS'Tries'
p1863
S'0'
sS'Pts'
p1864
S'0'
sa(dp1865
S'Pens'
p1866
S'0'
sS'Sub'
p1867
S'0'
sS'Lost'
p1868
S'4'
sS'Drop'
p1869
S'0'
sS'Start'
p1870
S'5'
sS'Won'
p1871
S'0'
sS'Draw'
p1872
S'1'
sS'%'
S'10.00'
p1873
sS'Mat'
p1874
S'5'
sS'Conv'
p1875
S'0'
sS'Tries'
p1876
S'0'
sS'Pts'
p1877
S'0'
sa(dp1878
S'Pens'
p1879
S'0'
sS'Sub'
p1880
S'0'
sS'Lost'
p1881
S'1'
sS'Drop'
p1882
S'0'
sS'Start'
p1883
S'1'
sS'Won'
p1884
S'0'
sS'Draw'
p1885
S'0'
sS'%'
S'0.00'
p1886
sS'Mat'
p1887
S'1'
sS'Conv'
p1888
S'0'
sS'Tries'
p1889
S'0'
sS'Pts'
p1890
S'0'
sa(dp1891
S'Pens'
p1892
S'0'
sS'Sub'
p1893
S'0'
sS'Lost'
p1894
S'4'
sS'Drop'
p1895
S'0'
sS'Start'
p1896
S'6'
sS'Won'
p1897
S'2'
sS'Draw'
p1898
S'0'
sS'%'
S'33.33'
p1899
sS'Mat'
p1900
S'6'
sS'Conv'
p1901
S'0'
sS'Tries'
p1902
S'0'
sS'Pts'
p1903
S'0'
sa(dp1904
S'Pens'
p1905
S'0'
sS'Sub'
p1906
S'0'
sS'Lost'
p1907
S'2'
sS'Drop'
p1908
S'0'
sS'Start'
p1909
S'3'
sS'Won'
p1910
S'1'
sS'Draw'
p1911
S'0'
sS'%'
S'33.33'
p1912
sS'Mat'
p1913
S'3'
sS'Conv'
p1914
S'0'
sS'Tries'
p1915
S'0'
sS'Pts'
p1916
S'0'
sa(dp1917
S'Pens'
p1918
S'0'
sS'Sub'
p1919
S'0'
sS'Lost'
p1920
S'1'
sS'Drop'
p1921
S'0'
sS'Start'
p1922
S'1'
sS'Won'
p1923
S'0'
sS'Draw'
p1924
S'0'
sS'%'
S'0.00'
p1925
sS'Mat'
p1926
S'1'
sS'Conv'
p1927
S'0'
sS'Tries'
p1928
S'0'
sS'Pts'
p1929
S'0'
sa(dp1930
S'Pens'
p1931
S'56'
p1932
sS'Sub'
p1933
S'0'
sS'Lost'
p1934
S'15'
p1935
sS'Drop'
p1936
S'4'
sS'Start'
p1937
S'29'
p1938
sS'Won'
p1939
S'13'
p1940
sS'Draw'
p1941
S'1'
sS'%'
S'46.55'
p1942
sS'Mat'
p1943
S'29'
p1944
sS'Conv'
p1945
S'23'
p1946
sS'Tries'
p1947
S'2'
sS'Pts'
p1948
S'234'
p1949
sa(dp1950
S'Pens'
p1951
S'0'
sS'Sub'
p1952
S'0'
sS'Lost'
p1953
S'5'
sS'Drop'
p1954
S'0'
sS'Start'
p1955
S'8'
sS'Won'
p1956
S'2'
sS'Draw'
p1957
S'1'
sS'%'
S'31.25'
p1958
sS'Mat'
p1959
S'8'
sS'Conv'
p1960
S'0'
sS'Tries'
p1961
S'0'
sS'Pts'
p1962
S'0'
sa(dp1963
S'Pens'
p1964
S'0'
sS'Sub'
p1965
S'1'
sS'Lost'
p1966
S'8'
sS'Drop'
p1967
S'0'
sS'Start'
p1968
S'17'
p1969
sS'Won'
p1970
S'9'
sS'Draw'
p1971
S'1'
sS'%'
S'52.77'
p1972
sS'Mat'
p1973
S'18'
p1974
sS'Conv'
p1975
S'0'
sS'Tries'
p1976
S'1'
sS'Pts'
p1977
S'4'
sa(dp1978
S'Pens'
p1979
S'0'
sS'Sub'
p1980
S'0'
sS'Lost'
p1981
S'1'
sS'Drop'
p1982
S'0'
sS'Start'
p1983
S'3'
sS'Won'
p1984
S'2'
sS'Draw'
p1985
S'0'
sS'%'
S'66.66'
p1986
sS'Mat'
p1987
S'3'
sS'Conv'
p1988
S'0'
sS'Tries'
p1989
S'0'
sS'Pts'
p1990
S'0'
sa(dp1991
S'Pens'
p1992
S'0'
sS'Sub'
p1993
S'0'
sS'Lost'
p1994
S'1'
sS'Drop'
p1995
S'0'
sS'Start'
p1996
S'3'
sS'Won'
p1997
S'2'
sS'Draw'
p1998
S'0'
sS'%'
S'66.66'
p1999
sS'Mat'
p2000
S'3'
sS'Conv'
p2001
S'0'
sS'Tries'
p2002
S'0'
sS'Pts'
p2003
S'0'
sa(dp2004
S'Pens'
p2005
S'0'
sS'Sub'
p2006
S'0'
sS'Lost'
p2007
S'2'
sS'Drop'
p2008
S'0'
sS'Start'
p2009
S'4'
sS'Won'
p2010
S'2'
sS'Draw'
p2011
S'0'
sS'%'
S'50.00'
p2012
sS'Mat'
p2013
S'4'
sS'Conv'
p2014
S'0'
sS'Tries'
p2015
S'0'
sS'Pts'
p2016
S'0'
sa(dp2017
S'Pens'
p2018
S'1'
sS'Sub'
p2019
S'0'
sS'Lost'
p2020
S'0'
sS'Drop'
p2021
S'0'
sS'Start'
p2022
S'1'
sS'Won'
p2023
S'1'
sS'Draw'
p2024
S'0'
sS'%'
S'100.00'
p2025
sS'Mat'
p2026
S'1'
sS'Conv'
p2027
S'0'
sS'Tries'
p2028
S'0'
sS'Pts'
p2029
S'3'
sa(dp2030
S'Pens'
p2031
S'0'
sS'Sub'
p2032
S'0'
sS'Lost'
p2033
S'1'
sS'Drop'
p2034
S'0'
sS'Start'
p2035
S'2'
sS'Won'
p2036
S'1'
sS'Draw'
p2037
S'0'
sS'%'
S'50.00'
p2038
sS'Mat'
p2039
S'2'
sS'Conv'
p2040
S'0'
sS'Tries'
p2041
S'0'
sS'Pts'
p2042
S'0'
sa(dp2043
S'Pens'
p2044
S'0'
sS'Sub'
p2045
S'0'
sS'Lost'
p2046
S'1'
sS'Drop'
p2047
S'0'
sS'Start'
p2048
S'1'
sS'Won'
p2049
S'0'
sS'Draw'
p2050
S'0'
sS'%'
S'0.00'
p2051
sS'Mat'
p2052
S'1'
sS'Conv'
p2053
S'0'
sS'Tries'
p2054
S'0'
sS'Pts'
p2055
S'0'
sa(dp2056
S'Pens'
p2057
S'0'
sS'Sub'
p2058
S'0'
sS'Lost'
p2059
S'1'
sS'Drop'
p2060
S'0'
sS'Start'
p2061
S'1'
sS'Won'
p2062
S'0'
sS'Draw'
p2063
S'0'
sS'%'
S'0.00'
p2064
sS'Mat'
p2065
S'1'
sS'Conv'
p2066
S'0'
sS'Tries'
p2067
S'0'
sS'Pts'
p2068
S'0'
sa(dp2069
S'Pens'
p2070
S'0'
sS'Sub'
p2071
S'0'
sS'Lost'
p2072
S'1'
sS'Drop'
p2073
S'0'
sS'Start'
p2074
S'1'
sS'Won'
p2075
S'0'
sS'Draw'
p2076
S'0'
sS'%'
S'0.00'
p2077
sS'Mat'
p2078
S'1'
sS'Conv'
p2079
S'0'
sS'Tries'
p2080
S'0'
sS'Pts'
p2081
S'0'
sa(dp2082
S'Pens'
p2083
S'0'
sS'Sub'
p2084
S'1'
sS'Lost'
p2085
S'1'
sS'Drop'
p2086
S'0'
sS'Start'
p2087
S'1'
sS'Won'
p2088
S'1'
sS'Draw'
p2089
S'0'
sS'%'
S'50.00'
p2090
sS'Mat'
p2091
S'2'
sS'Conv'
p2092
S'0'
sS'Tries'
p2093
S'0'
sS'Pts'
p2094
S'0'
sa(dp2095
S'Pens'
p2096
S'0'
sS'Sub'
p2097
S'0'
sS'Lost'
p2098
S'9'
sS'Drop'
p2099
S'0'
sS'Start'
p2100
S'17'
p2101
sS'Won'
p2102
S'8'
sS'Draw'
p2103
S'0'
sS'%'
S'47.05'
p2104
sS'Mat'
p2105
S'17'
p2106
sS'Conv'
p2107
S'0'
sS'Tries'
p2108
S'9'
sS'Pts'
p2109
S'36'
p2110
sa(dp2111
S'Pens'
p2112
S'0'
sS'Sub'
p2113
S'0'
sS'Lost'
p2114
S'1'
sS'Drop'
p2115
S'0'
sS'Start'
p2116
S'1'
sS'Won'
p2117
S'0'
sS'Draw'
p2118
S'0'
sS'%'
S'0.00'
p2119
sS'Mat'
p2120
S'1'
sS'Conv'
p2121
S'0'
sS'Tries'
p2122
S'0'
sS'Pts'
p2123
S'0'
sa(dp2124
S'Pens'
p2125
S'0'
sS'Sub'
p2126
S'0'
sS'Lost'
p2127
S'2'
sS'Drop'
p2128
S'0'
sS'Start'
p2129
S'2'
sS'Won'
p2130
S'0'
sS'Draw'
p2131
S'0'
sS'%'
S'0.00'
p2132
sS'Mat'
p2133
S'2'
sS'Conv'
p2134
S'0'
sS'Tries'
p2135
S'0'
sS'Pts'
p2136
S'0'
sa(dp2137
S'Pens'
p2138
S'0'
sS'Sub'
p2139
S'2'
sS'Lost'
p2140
S'22'
p2141
sS'Drop'
p2142
S'0'
sS'Start'
p2143
S'45'
p2144
sS'Won'
p2145
S'25'
p2146
sS'Draw'
p2147
S'0'
sS'%'
S'53.19'
p2148
sS'Mat'
p2149
S'47'
p2150
sS'Conv'
p2151
S'0'
sS'Tries'
p2152
S'6'
sS'Pts'
p2153
S'26'
p2154
sa(dp2155
S'Pens'
p2156
S'0'
sS'Sub'
p2157
S'0'
sS'Lost'
p2158
S'2'
sS'Drop'
p2159
S'0'
sS'Start'
p2160
S'3'
sS'Won'
p2161
S'1'
sS'Draw'
p2162
S'0'
sS'%'
S'33.33'
p2163
sS'Mat'
p2164
S'3'
sS'Conv'
p2165
S'0'
sS'Tries'
p2166
S'0'
sS'Pts'
p2167
S'0'
sa(dp2168
S'Pens'
p2169
S'0'
sS'Sub'
p2170
S'0'
sS'Lost'
p2171
S'1'
sS'Drop'
p2172
S'0'
sS'Start'
p2173
S'1'
sS'Won'
p2174
S'0'
sS'Draw'
p2175
S'0'
sS'%'
S'0.00'
p2176
sS'Mat'
p2177
S'1'
sS'Conv'
p2178
S'0'
sS'Tries'
p2179
S'0'
sS'Pts'
p2180
S'0'
sa(dp2181
S'Pens'
p2182
S'0'
sS'Sub'
p2183
S'1'
sS'Lost'
p2184
S'12'
p2185
sS'Drop'
p2186
S'0'
sS'Start'
p2187
S'20'
p2188
sS'Won'
p2189
S'9'
sS'Draw'
p2190
S'0'
sS'%'
S'42.85'
p2191
sS'Mat'
p2192
S'21'
p2193
sS'Conv'
p2194
S'0'
sS'Tries'
p2195
S'3'
sS'Pts'
p2196
S'13'
p2197
sa(dp2198
S'Pens'
p2199
S'0'
sS'Sub'
p2200
S'0'
sS'Lost'
p2201
S'11'
p2202
sS'Drop'
p2203
S'0'
sS'Start'
p2204
S'19'
p2205
sS'Won'
p2206
S'8'
sS'Draw'
p2207
S'0'
sS'%'
S'42.10'
p2208
sS'Mat'
p2209
S'19'
p2210
sS'Conv'
p2211
S'0'
sS'Tries'
p2212
S'1'
sS'Pts'
p2213
S'5'
sa(dp2214
S'Pens'
p2215
S'0'
sS'Sub'
p2216
S'0'
sS'Lost'
p2217
S'2'
sS'Drop'
p2218
S'0'
sS'Start'
p2219
S'2'
sS'Won'
p2220
S'0'
sS'Draw'
p2221
S'0'
sS'%'
S'0.00'
p2222
sS'Mat'
p2223
S'2'
sS'Conv'
p2224
S'0'
sS'Tries'
p2225
S'0'
sS'Pts'
p2226
S'0'
sa(dp2227
S'Pens'
p2228
S'0'
sS'Sub'
p2229
S'0'
sS'Lost'
p2230
S'2'
sS'Drop'
p2231
S'0'
sS'Start'
p2232
S'2'
sS'Won'
p2233
S'0'
sS'Draw'
p2234
S'0'
sS'%'
S'0.00'
p2235
sS'Mat'
p2236
S'2'
sS'Conv'
p2237
S'0'
sS'Tries'
p2238
S'0'
sS'Pts'
p2239
S'0'
sa(dp2240
S'Pens'
p2241
S'0'
sS'Sub'
p2242
S'0'
sS'Lost'
p2243
S'2'
sS'Drop'
p2244
S'0'
sS'Start'
p2245
S'4'
sS'Won'
p2246
S'2'
sS'Draw'
p2247
S'0'
sS'%'
S'50.00'
p2248
sS'Mat'
p2249
S'4'
sS'Conv'
p2250
S'0'
sS'Tries'
p2251
S'0'
sS'Pts'
p2252
S'0'
sa(dp2253
S'Pens'
p2254
S'0'
sS'Sub'
p2255
S'0'
sS'Lost'
p2256
S'5'
sS'Drop'
p2257
S'0'
sS'Start'
p2258
S'9'
sS'Won'
p2259
S'4'
sS'Draw'
p2260
S'0'
sS'%'
S'44.44'
p2261
sS'Mat'
p2262
S'9'
sS'Conv'
p2263
S'0'
sS'Tries'
p2264
S'0'
sS'Pts'
p2265
S'0'
sa(dp2266
S'Pens'
p2267
S'0'
sS'Sub'
p2268
S'0'
sS'Lost'
p2269
S'2'
sS'Drop'
p2270
S'0'
sS'Start'
p2271
S'2'
sS'Won'
p2272
S'0'
sS'Draw'
p2273
S'0'
sS'%'
S'0.00'
p2274
sS'Mat'
p2275
S'2'
sS'Conv'
p2276
S'0'
sS'Tries'
p2277
S'0'
sS'Pts'
p2278
S'0'
sa(dp2279
S'Pens'
p2280
S'0'
sS'Sub'
p2281
S'0'
sS'Lost'
p2282
S'4'
sS'Drop'
p2283
S'0'
sS'Start'
p2284
S'4'
sS'Won'
p2285
S'0'
sS'Draw'
p2286
S'0'
sS'%'
S'0.00'
p2287
sS'Mat'
p2288
S'4'
sS'Conv'
p2289
S'0'
sS'Tries'
p2290
S'0'
sS'Pts'
p2291
S'0'
sa(dp2292
S'Pens'
p2293
S'0'
sS'Sub'
p2294
S'0'
sS'Lost'
p2295
S'4'
sS'Drop'
p2296
S'0'
sS'Start'
p2297
S'9'
sS'Won'
p2298
S'5'
sS'Draw'
p2299
S'0'
sS'%'
S'55.55'
p2300
sS'Mat'
p2301
S'9'
sS'Conv'
p2302
S'0'
sS'Tries'
p2303
S'0'
sS'Pts'
p2304
S'0'
sa(dp2305
S'Pens'
p2306
S'0'
sS'Sub'
p2307
S'1'
sS'Lost'
p2308
S'12'
p2309
sS'Drop'
p2310
S'0'
sS'Start'
p2311
S'23'
p2312
sS'Won'
p2313
S'12'
p2314
sS'Draw'
p2315
S'0'
sS'%'
S'50.00'
p2316
sS'Mat'
p2317
S'24'
p2318
sS'Conv'
p2319
S'0'
sS'Tries'
p2320
S'0'
sS'Pts'
p2321
S'0'
sa(dp2322
S'Pens'
p2323
S'0'
sS'Sub'
p2324
S'1'
sS'Lost'
p2325
S'3'
sS'Drop'
p2326
S'0'
sS'Start'
p2327
S'5'
sS'Won'
p2328
S'3'
sS'Draw'
p2329
S'0'
sS'%'
S'50.00'
p2330
sS'Mat'
p2331
S'6'
sS'Conv'
p2332
S'0'
sS'Tries'
p2333
S'1'
sS'Pts'
p2334
S'4'
sa(dp2335
S'Pens'
p2336
S'0'
sS'Sub'
p2337
S'1'
sS'Lost'
p2338
S'4'
sS'Drop'
p2339
S'0'
sS'Start'
p2340
S'11'
p2341
sS'Won'
p2342
S'8'
sS'Draw'
p2343
S'0'
sS'%'
S'66.66'
p2344
sS'Mat'
p2345
S'12'
p2346
sS'Conv'
p2347
S'0'
sS'Tries'
p2348
S'0'
sS'Pts'
p2349
S'0'
sa(dp2350
S'Pens'
p2351
S'0'
sS'Sub'
p2352
S'0'
sS'Lost'
p2353
S'0'
sS'Drop'
p2354
S'0'
sS'Start'
p2355
S'2'
sS'Won'
p2356
S'2'
sS'Draw'
p2357
S'0'
sS'%'
S'100.00'
p2358
sS'Mat'
p2359
S'2'
sS'Conv'
p2360
S'0'
sS'Tries'
p2361
S'0'
sS'Pts'
p2362
S'0'
sa(dp2363
S'Pens'
p2364
S'0'
sS'Sub'
p2365
S'0'
sS'Lost'
p2366
S'0'
sS'Drop'
p2367
S'0'
sS'Start'
p2368
S'1'
sS'Won'
p2369
S'1'
sS'Draw'
p2370
S'0'
sS'%'
S'100.00'
p2371
sS'Mat'
p2372
S'1'
sS'Conv'
p2373
S'0'
sS'Tries'
p2374
S'0'
sS'Pts'
p2375
S'0'
sa(dp2376
S'Pens'
p2377
S'0'
sS'Sub'
p2378
S'0'
sS'Lost'
p2379
S'15'
p2380
sS'Drop'
p2381
S'0'
sS'Start'
p2382
S'28'
p2383
sS'Won'
p2384
S'13'
p2385
sS'Draw'
p2386
S'0'
sS'%'
S'46.42'
p2387
sS'Mat'
p2388
S'28'
p2389
sS'Conv'
p2390
S'0'
sS'Tries'
p2391
S'4'
sS'Pts'
p2392
S'18'
p2393
sa(dp2394
S'Pens'
p2395
S'0'
sS'Sub'
p2396
S'0'
sS'Lost'
p2397
S'1'
sS'Drop'
p2398
S'0'
sS'Start'
p2399
S'5'
sS'Won'
p2400
S'4'
sS'Draw'
p2401
S'0'
sS'%'
S'80.00'
p2402
sS'Mat'
p2403
S'5'
sS'Conv'
p2404
S'0'
sS'Tries'
p2405
S'2'
sS'Pts'
p2406
S'8'
sa(dp2407
S'Pens'
p2408
S'0'
sS'Sub'
p2409
S'3'
sS'Lost'
p2410
S'14'
p2411
sS'Drop'
p2412
S'0'
sS'Start'
p2413
S'29'
p2414
sS'Won'
p2415
S'18'
p2416
sS'Draw'
p2417
S'0'
sS'%'
S'56.25'
p2418
sS'Mat'
p2419
S'32'
p2420
sS'Conv'
p2421
S'0'
sS'Tries'
p2422
S'7'
sS'Pts'
p2423
S'28'
p2424
sa(dp2425
S'Pens'
p2426
S'0'
sS'Sub'
p2427
S'0'
sS'Lost'
p2428
S'3'
sS'Drop'
p2429
S'0'
sS'Start'
p2430
S'6'
sS'Won'
p2431
S'3'
sS'Draw'
p2432
S'0'
sS'%'
S'50.00'
p2433
sS'Mat'
p2434
S'6'
sS'Conv'
p2435
S'0'
sS'Tries'
p2436
S'2'
sS'Pts'
p2437
S'8'
sa(dp2438
S'Pens'
p2439
S'0'
sS'Sub'
p2440
S'1'
sS'Lost'
p2441
S'2'
sS'Drop'
p2442
S'1'
sS'Start'
p2443
S'2'
sS'Won'
p2444
S'1'
sS'Draw'
p2445
S'0'
sS'%'
S'33.33'
p2446
sS'Mat'
p2447
S'3'
sS'Conv'
p2448
S'0'
sS'Tries'
p2449
S'1'
sS'Pts'
p2450
S'7'
sa(dp2451
S'Pens'
p2452
S'0'
sS'Sub'
p2453
S'2'
sS'Lost'
p2454
S'19'
p2455
sS'Drop'
p2456
S'0'
sS'Start'
p2457
S'47'
p2458
sS'Won'
p2459
S'30'
p2460
sS'Draw'
p2461
S'0'
sS'%'
S'61.22'
p2462
sS'Mat'
p2463
S'49'
p2464
sS'Conv'
p2465
S'0'
sS'Tries'
p2466
S'3'
sS'Pts'
p2467
S'14'
p2468
sa(dp2469
S'Pens'
p2470
S'110'
p2471
sS'Sub'
p2472
S'1'
sS'Lost'
p2473
S'24'
p2474
sS'Drop'
p2475
S'9'
sS'Start'
p2476
S'54'
p2477
sS'Won'
p2478
S'31'
p2479
sS'Draw'
p2480
S'0'
sS'%'
S'56.36'
p2481
sS'Mat'
p2482
S'55'
p2483
sS'Conv'
p2484
S'51'
p2485
sS'Tries'
p2486
S'7'
sS'Pts'
p2487
S'491'
p2488
sa(dp2489
S'Pens'
p2490
S'0'
sS'Sub'
p2491
S'1'
sS'Lost'
p2492
S'3'
sS'Drop'
p2493
S'0'
sS'Start'
p2494
S'7'
sS'Won'
p2495
S'5'
sS'Draw'
p2496
S'0'
sS'%'
S'62.50'
p2497
sS'Mat'
p2498
S'8'
sS'Conv'
p2499
S'0'
sS'Tries'
p2500
S'1'
sS'Pts'
p2501
S'4'
sa(dp2502
S'Pens'
p2503
S'0'
sS'Sub'
p2504
S'1'
sS'Lost'
p2505
S'2'
sS'Drop'
p2506
S'0'
sS'Start'
p2507
S'8'
sS'Won'
p2508
S'7'
sS'Draw'
p2509
S'0'
sS'%'
S'77.77'
p2510
sS'Mat'
p2511
S'9'
sS'Conv'
p2512
S'0'
sS'Tries'
p2513
S'1'
sS'Pts'
p2514
S'4'
sa(dp2515
S'Pens'
p2516
S'0'
sS'Sub'
p2517
S'8'
sS'Lost'
p2518
S'16'
p2519
sS'Drop'
p2520
S'0'
sS'Start'
p2521
S'27'
p2522
sS'Won'
p2523
S'19'
p2524
sS'Draw'
p2525
S'0'
sS'%'
S'54.28'
p2526
sS'Mat'
p2527
S'35'
p2528
sS'Conv'
p2529
S'0'
sS'Tries'
p2530
S'3'
sS'Pts'
p2531
S'14'
p2532
sa(dp2533
S'Pens'
p2534
S'0'
sS'Sub'
p2535
S'0'
sS'Lost'
p2536
S'7'
sS'Drop'
p2537
S'0'
sS'Start'
p2538
S'15'
p2539
sS'Won'
p2540
S'8'
sS'Draw'
p2541
S'0'
sS'%'
S'53.33'
p2542
sS'Mat'
p2543
S'15'
p2544
sS'Conv'
p2545
S'0'
sS'Tries'
p2546
S'0'
sS'Pts'
p2547
S'0'
sa(dp2548
S'Pens'
p2549
S'0'
sS'Sub'
p2550
S'0'
sS'Lost'
p2551
S'0'
sS'Drop'
p2552
S'0'
sS'Start'
p2553
S'1'
sS'Won'
p2554
S'1'
sS'Draw'
p2555
S'0'
sS'%'
S'100.00'
p2556
sS'Mat'
p2557
S'1'
sS'Conv'
p2558
S'0'
sS'Tries'
p2559
S'0'
sS'Pts'
p2560
S'0'
sa(dp2561
S'Pens'
p2562
S'0'
sS'Sub'
p2563
S'0'
sS'Lost'
p2564
S'5'
sS'Drop'
p2565
S'0'
sS'Start'
p2566
S'20'
p2567
sS'Won'
p2568
S'15'
p2569
sS'Draw'
p2570
S'0'
sS'%'
S'75.00'
p2571
sS'Mat'
p2572
S'20'
p2573
sS'Conv'
p2574
S'1'
sS'Tries'
p2575
S'4'
sS'Pts'
p2576
S'18'
p2577
sa(dp2578
S'Pens'
p2579
S'0'
sS'Sub'
p2580
S'0'
sS'Lost'
p2581
S'1'
sS'Drop'
p2582
S'0'
sS'Start'
p2583
S'1'
sS'Won'
p2584
S'0'
sS'Draw'
p2585
S'0'
sS'%'
S'0.00'
p2586
sS'Mat'
p2587
S'1'
sS'Conv'
p2588
S'0'
sS'Tries'
p2589
S'0'
sS'Pts'
p2590
S'0'
sa(dp2591
S'Pens'
p2592
S'0'
sS'Sub'
p2593
S'0'
sS'Lost'
p2594
S'1'
sS'Drop'
p2595
S'0'
sS'Start'
p2596
S'1'
sS'Won'
p2597
S'0'
sS'Draw'
p2598
S'0'
sS'%'
S'0.00'
p2599
sS'Mat'
p2600
S'1'
sS'Conv'
p2601
S'0'
sS'Tries'
p2602
S'0'
sS'Pts'
p2603
S'0'
sa(dp2604
S'Pens'
p2605
S'0'
sS'Sub'
p2606
S'0'
sS'Lost'
p2607
S'2'
sS'Drop'
p2608
S'0'
sS'Start'
p2609
S'2'
sS'Won'
p2610
S'0'
sS'Draw'
p2611
S'0'
sS'%'
S'0.00'
p2612
sS'Mat'
p2613
S'2'
sS'Conv'
p2614
S'0'
sS'Tries'
p2615
S'0'
sS'Pts'
p2616
S'0'
sa(dp2617
S'Pens'
p2618
S'0'
sS'Sub'
p2619
S'0'
sS'Lost'
p2620
S'1'
sS'Drop'
p2621
S'0'
sS'Start'
p2622
S'1'
sS'Won'
p2623
S'0'
sS'Draw'
p2624
S'0'
sS'%'
S'0.00'
p2625
sS'Mat'
p2626
S'1'
sS'Conv'
p2627
S'0'
sS'Tries'
p2628
S'0'
sS'Pts'
p2629
S'0'
sa(dp2630
S'Pens'
p2631
S'0'
sS'Sub'
p2632
S'0'
sS'Lost'
p2633
S'3'
sS'Drop'
p2634
S'0'
sS'Start'
p2635
S'5'
sS'Won'
p2636
S'2'
sS'Draw'
p2637
S'0'
sS'%'
S'40.00'
p2638
sS'Mat'
p2639
S'5'
sS'Conv'
p2640
S'0'
sS'Tries'
p2641
S'0'
sS'Pts'
p2642
S'0'
sa(dp2643
S'Pens'
p2644
S'0'
sS'Sub'
p2645
S'0'
sS'Lost'
p2646
S'1'
sS'Drop'
p2647
S'0'
sS'Start'
p2648
S'2'
sS'Won'
p2649
S'1'
sS'Draw'
p2650
S'0'
sS'%'
S'50.00'
p2651
sS'Mat'
p2652
S'2'
sS'Conv'
p2653
S'0'
sS'Tries'
p2654
S'1'
sS'Pts'
p2655
S'4'
sa(dp2656
S'Pens'
p2657
S'9'
sS'Sub'
p2658
S'3'
sS'Lost'
p2659
S'25'
p2660
sS'Drop'
p2661
S'1'
sS'Start'
p2662
S'51'
p2663
sS'Won'
p2664
S'29'
p2665
sS'Draw'
p2666
S'0'
sS'%'
S'53.70'
p2667
sS'Mat'
p2668
S'54'
p2669
sS'Conv'
p2670
S'7'
sS'Tries'
p2671
S'9'
sS'Pts'
p2672
S'89'
p2673
sa(dp2674
S'Pens'
p2675
S'84'
p2676
sS'Sub'
p2677
S'18'
p2678
sS'Lost'
p2679
S'28'
p2680
sS'Drop'
p2681
S'10'
p2682
sS'Start'
p2683
S'40'
p2684
sS'Won'
p2685
S'30'
p2686
sS'Draw'
p2687
S'0'
sS'%'
S'51.72'
p2688
sS'Mat'
p2689
S'58'
p2690
sS'Conv'
p2691
S'51'
p2692
sS'Tries'
p2693
S'7'
sS'Pts'
p2694
S'419'
p2695
sa(dp2696
S'Pens'
p2697
S'0'
sS'Sub'
p2698
S'1'
sS'Lost'
p2699
S'4'
sS'Drop'
p2700
S'0'
sS'Start'
p2701
S'8'
sS'Won'
p2702
S'5'
sS'Draw'
p2703
S'0'
sS'%'
S'55.55'
p2704
sS'Mat'
p2705
S'9'
sS'Conv'
p2706
S'0'
sS'Tries'
p2707
S'0'
sS'Pts'
p2708
S'0'
sa(dp2709
S'Pens'
p2710
S'14'
p2711
sS'Sub'
p2712
S'2'
sS'Lost'
p2713
S'34'
p2714
sS'Drop'
p2715
S'0'
sS'Start'
p2716
S'62'
p2717
sS'Won'
p2718
S'29'
p2719
sS'Draw'
p2720
S'1'
sS'%'
S'46.09'
p2721
sS'Mat'
p2722
S'64'
p2723
sS'Conv'
p2724
S'9'
sS'Tries'
p2725
S'5'
sS'Pts'
p2726
S'84'
p2727
sa(dp2728
S'Pens'
p2729
S'0'
sS'Sub'
p2730
S'0'
sS'Lost'
p2731
S'36'
p2732
sS'Drop'
p2733
S'0'
sS'Start'
p2734
S'76'
p2735
sS'Won'
p2736
S'40'
p2737
sS'Draw'
p2738
S'0'
sS'%'
S'52.63'
p2739
sS'Mat'
p2740
S'76'
p2741
sS'Conv'
p2742
S'0'
sS'Tries'
p2743
S'9'
sS'Pts'
p2744
S'44'
p2745
sa(dp2746
S'Pens'
p2747
S'0'
sS'Sub'
p2748
S'0'
sS'Lost'
p2749
S'20'
p2750
sS'Drop'
p2751
S'0'
sS'Start'
p2752
S'34'
p2753
sS'Won'
p2754
S'14'
p2755
sS'Draw'
p2756
S'0'
sS'%'
S'41.17'
p2757
sS'Mat'
p2758
S'34'
p2759
sS'Conv'
p2760
S'0'
sS'Tries'
p2761
S'7'
sS'Pts'
p2762
S'35'
p2763
sa(dp2764
S'Pens'
p2765
S'0'
sS'Sub'
p2766
S'0'
sS'Lost'
p2767
S'9'
sS'Drop'
p2768
S'0'
sS'Start'
p2769
S'21'
p2770
sS'Won'
p2771
S'12'
p2772
sS'Draw'
p2773
S'0'
sS'%'
S'57.14'
p2774
sS'Mat'
p2775
S'21'
p2776
sS'Conv'
p2777
S'0'
sS'Tries'
p2778
S'3'
sS'Pts'
p2779
S'15'
p2780
sa(dp2781
S'Pens'
p2782
S'0'
sS'Sub'
p2783
S'1'
sS'Lost'
p2784
S'9'
sS'Drop'
p2785
S'0'
sS'Start'
p2786
S'16'
p2787
sS'Won'
p2788
S'8'
sS'Draw'
p2789
S'0'
sS'%'
S'47.05'
p2790
sS'Mat'
p2791
S'17'
p2792
sS'Conv'
p2793
S'0'
sS'Tries'
p2794
S'2'
sS'Pts'
p2795
S'10'
p2796
sa(dp2797
S'Pens'
p2798
S'0'
sS'Sub'
p2799
S'5'
sS'Lost'
p2800
S'13'
p2801
sS'Drop'
p2802
S'0'
sS'Start'
p2803
S'22'
p2804
sS'Won'
p2805
S'14'
p2806
sS'Draw'
p2807
S'0'
sS'%'
S'51.85'
p2808
sS'Mat'
p2809
S'27'
p2810
sS'Conv'
p2811
S'0'
sS'Tries'
p2812
S'0'
sS'Pts'
p2813
S'0'
sa(dp2814
S'Pens'
p2815
S'0'
sS'Sub'
p2816
S'1'
sS'Lost'
p2817
S'11'
p2818
sS'Drop'
p2819
S'0'
sS'Start'
p2820
S'24'
p2821
sS'Won'
p2822
S'14'
p2823
sS'Draw'
p2824
S'0'
sS'%'
S'56.00'
p2825
sS'Mat'
p2826
S'25'
p2827
sS'Conv'
p2828
S'0'
sS'Tries'
p2829
S'2'
sS'Pts'
p2830
S'10'
p2831
sa(dp2832
S'Pens'
p2833
S'0'
sS'Sub'
p2834
S'1'
sS'Lost'
p2835
S'1'
sS'Drop'
p2836
S'0'
sS'Start'
p2837
S'3'
sS'Won'
p2838
S'3'
sS'Draw'
p2839
S'0'
sS'%'
S'75.00'
p2840
sS'Mat'
p2841
S'4'
sS'Conv'
p2842
S'0'
sS'Tries'
p2843
S'1'
sS'Pts'
p2844
S'5'
sa(dp2845
S'Pens'
p2846
S'0'
sS'Sub'
p2847
S'0'
sS'Lost'
p2848
S'2'
sS'Drop'
p2849
S'0'
sS'Start'
p2850
S'5'
sS'Won'
p2851
S'3'
sS'Draw'
p2852
S'0'
sS'%'
S'60.00'
p2853
sS'Mat'
p2854
S'5'
sS'Conv'
p2855
S'0'
sS'Tries'
p2856
S'0'
sS'Pts'
p2857
S'0'
sa(dp2858
S'Pens'
p2859
S'0'
sS'Sub'
p2860
S'0'
sS'Lost'
p2861
S'2'
sS'Drop'
p2862
S'0'
sS'Start'
p2863
S'3'
sS'Won'
p2864
S'1'
sS'Draw'
p2865
S'0'
sS'%'
S'33.33'
p2866
sS'Mat'
p2867
S'3'
sS'Conv'
p2868
S'0'
sS'Tries'
p2869
S'0'
sS'Pts'
p2870
S'0'
sa(dp2871
S'Pens'
p2872
S'0'
sS'Sub'
p2873
S'10'
p2874
sS'Lost'
p2875
S'7'
sS'Drop'
p2876
S'0'
sS'Start'
p2877
S'9'
sS'Won'
p2878
S'12'
p2879
sS'Draw'
p2880
S'0'
sS'%'
S'63.15'
p2881
sS'Mat'
p2882
S'19'
p2883
sS'Conv'
p2884
S'0'
sS'Tries'
p2885
S'3'
sS'Pts'
p2886
S'15'
p2887
sa(dp2888
S'Pens'
p2889
S'0'
sS'Sub'
p2890
S'4'
sS'Lost'
p2891
S'5'
sS'Drop'
p2892
S'0'
sS'Start'
p2893
S'6'
sS'Won'
p2894
S'5'
sS'Draw'
p2895
S'0'
sS'%'
S'50.00'
p2896
sS'Mat'
p2897
S'10'
p2898
sS'Conv'
p2899
S'0'
sS'Tries'
p2900
S'1'
sS'Pts'
p2901
S'5'
sa(dp2902
S'Pens'
p2903
S'0'
sS'Sub'
p2904
S'7'
sS'Lost'
p2905
S'27'
p2906
sS'Drop'
p2907
S'0'
sS'Start'
p2908
S'43'
p2909
sS'Won'
p2910
S'23'
p2911
sS'Draw'
p2912
S'0'
sS'%'
S'46.00'
p2913
sS'Mat'
p2914
S'50'
p2915
sS'Conv'
p2916
S'0'
sS'Tries'
p2917
S'8'
sS'Pts'
p2918
S'40'
p2919
sa(dp2920
S'Pens'
p2921
S'0'
sS'Sub'
p2922
S'7'
sS'Lost'
p2923
S'7'
sS'Drop'
p2924
S'0'
sS'Start'
p2925
S'9'
sS'Won'
p2926
S'9'
sS'Draw'
p2927
S'0'
sS'%'
S'56.25'
p2928
sS'Mat'
p2929
S'16'
p2930
sS'Conv'
p2931
S'0'
sS'Tries'
p2932
S'1'
sS'Pts'
p2933
S'5'
sa(dp2934
S'Pens'
p2935
S'0'
sS'Sub'
p2936
S'0'
sS'Lost'
p2937
S'1'
sS'Drop'
p2938
S'0'
sS'Start'
p2939
S'2'
sS'Won'
p2940
S'1'
sS'Draw'
p2941
S'0'
sS'%'
S'50.00'
p2942
sS'Mat'
p2943
S'2'
sS'Conv'
p2944
S'0'
sS'Tries'
p2945
S'1'
sS'Pts'
p2946
S'5'
sa(dp2947
S'Pens'
p2948
S'0'
sS'Sub'
p2949
S'1'
sS'Lost'
p2950
S'1'
sS'Drop'
p2951
S'0'
sS'Start'
p2952
S'1'
sS'Won'
p2953
S'1'
sS'Draw'
p2954
S'0'
sS'%'
S'50.00'
p2955
sS'Mat'
p2956
S'2'
sS'Conv'
p2957
S'0'
sS'Tries'
p2958
S'0'
sS'Pts'
p2959
S'0'
sa(dp2960
S'Pens'
p2961
S'0'
sS'Sub'
p2962
S'1'
sS'Lost'
p2963
S'7'
sS'Drop'
p2964
S'0'
sS'Start'
p2965
S'15'
p2966
sS'Won'
p2967
S'9'
sS'Draw'
p2968
S'0'
sS'%'
S'56.25'
p2969
sS'Mat'
p2970
S'16'
p2971
sS'Conv'
p2972
S'0'
sS'Tries'
p2973
S'0'
sS'Pts'
p2974
S'0'
sa(dp2975
S'Pens'
p2976
S'0'
sS'Sub'
p2977
S'1'
sS'Lost'
p2978
S'0'
sS'Drop'
p2979
S'0'
sS'Start'
p2980
S'0'
sS'Won'
p2981
S'1'
sS'Draw'
p2982
S'0'
sS'%'
S'100.00'
p2983
sS'Mat'
p2984
S'1'
sS'Conv'
p2985
S'0'
sS'Tries'
p2986
S'0'
sS'Pts'
p2987
S'0'
sa(dp2988
S'Pens'
p2989
S'0'
sS'Sub'
p2990
S'0'
sS'Lost'
p2991
S'29'
p2992
sS'Drop'
p2993
S'0'
sS'Start'
p2994
S'56'
p2995
sS'Won'
p2996
S'26'
p2997
sS'Draw'
p2998
S'1'
sS'%'
S'47.32'
p2999
sS'Mat'
p3000
S'56'
p3001
sS'Conv'
p3002
S'0'
sS'Tries'
p3003
S'4'
sS'Pts'
p3004
S'20'
p3005
sa(dp3006
S'Pens'
p3007
S'0'
sS'Sub'
p3008
S'2'
sS'Lost'
p3009
S'38'
p3010
sS'Drop'
p3011
S'1'
sS'Start'
p3012
S'64'
p3013
sS'Won'
p3014
S'27'
p3015
sS'Draw'
p3016
S'1'
sS'%'
S'41.66'
p3017
sS'Mat'
p3018
S'66'
p3019
sS'Conv'
p3020
S'0'
sS'Tries'
p3021
S'24'
p3022
sS'Pts'
p3023
S'123'
p3024
sa(dp3025
S'Pens'
p3026
S'0'
sS'Sub'
p3027
S'2'
sS'Lost'
p3028
S'2'
sS'Drop'
p3029
S'0'
sS'Start'
p3030
S'2'
sS'Won'
p3031
S'2'
sS'Draw'
p3032
S'0'
sS'%'
S'50.00'
p3033
sS'Mat'
p3034
S'4'
sS'Conv'
p3035
S'0'
sS'Tries'
p3036
S'0'
sS'Pts'
p3037
S'0'
sa(dp3038
S'Pens'
p3039
S'0'
sS'Sub'
p3040
S'0'
sS'Lost'
p3041
S'1'
sS'Drop'
p3042
S'0'
sS'Start'
p3043
S'1'
sS'Won'
p3044
S'0'
sS'Draw'
p3045
S'0'
sS'%'
S'0.00'
p3046
sS'Mat'
p3047
S'1'
sS'Conv'
p3048
S'0'
sS'Tries'
p3049
S'0'
sS'Pts'
p3050
S'0'
sa(dp3051
S'Pens'
p3052
S'0'
sS'Sub'
p3053
S'0'
sS'Lost'
p3054
S'0'
sS'Drop'
p3055
S'0'
sS'Start'
p3056
S'1'
sS'Won'
p3057
S'1'
sS'Draw'
p3058
S'0'
sS'%'
S'100.00'
p3059
sS'Mat'
p3060
S'1'
sS'Conv'
p3061
S'0'
sS'Tries'
p3062
S'0'
sS'Pts'
p3063
S'0'
sa(dp3064
S'Pens'
p3065
S'0'
sS'Sub'
p3066
S'1'
sS'Lost'
p3067
S'3'
sS'Drop'
p3068
S'0'
sS'Start'
p3069
S'8'
sS'Won'
p3070
S'6'
sS'Draw'
p3071
S'0'
sS'%'
S'66.66'
p3072
sS'Mat'
p3073
S'9'
sS'Conv'
p3074
S'0'
sS'Tries'
p3075
S'1'
sS'Pts'
p3076
S'5'
sa(dp3077
S'Pens'
p3078
S'0'
sS'Sub'
p3079
S'1'
sS'Lost'
p3080
S'1'
sS'Drop'
p3081
S'0'
sS'Start'
p3082
S'1'
sS'Won'
p3083
S'1'
sS'Draw'
p3084
S'0'
sS'%'
S'50.00'
p3085
sS'Mat'
p3086
S'2'
sS'Conv'
p3087
S'0'
sS'Tries'
p3088
S'0'
sS'Pts'
p3089
S'0'
sa(dp3090
S'Pens'
p3091
S'0'
sS'Sub'
p3092
S'0'
sS'Lost'
p3093
S'11'
p3094
sS'Drop'
p3095
S'0'
sS'Start'
p3096
S'21'
p3097
sS'Won'
p3098
S'10'
p3099
sS'Draw'
p3100
S'0'
sS'%'
S'47.61'
p3101
sS'Mat'
p3102
S'21'
p3103
sS'Conv'
p3104
S'0'
sS'Tries'
p3105
S'8'
sS'Pts'
p3106
S'40'
p3107
sa(dp3108
S'Pens'
p3109
S'0'
sS'Sub'
p3110
S'2'
sS'Lost'
p3111
S'3'
sS'Drop'
p3112
S'0'
sS'Start'
p3113
S'3'
sS'Won'
p3114
S'2'
sS'Draw'
p3115
S'0'
sS'%'
S'40.00'
p3116
sS'Mat'
p3117
S'5'
sS'Conv'
p3118
S'0'
sS'Tries'
p3119
S'2'
sS'Pts'
p3120
S'10'
p3121
sa(dp3122
S'Pens'
p3123
S'0'
sS'Sub'
p3124
S'1'
sS'Lost'
p3125
S'5'
sS'Drop'
p3126
S'0'
sS'Start'
p3127
S'5'
sS'Won'
p3128
S'1'
sS'Draw'
p3129
S'0'
sS'%'
S'16.66'
p3130
sS'Mat'
p3131
S'6'
sS'Conv'
p3132
S'0'
sS'Tries'
p3133
S'0'
sS'Pts'
p3134
S'0'
sa(dp3135
S'Pens'
p3136
S'0'
sS'Sub'
p3137
S'3'
sS'Lost'
p3138
S'33'
p3139
sS'Drop'
p3140
S'0'
sS'Start'
p3141
S'59'
p3142
sS'Won'
p3143
S'27'
p3144
sS'Draw'
p3145
S'2'
sS'%'
S'45.16'
p3146
sS'Mat'
p3147
S'62'
p3148
sS'Conv'
p3149
S'0'
sS'Tries'
p3150
S'8'
sS'Pts'
p3151
S'40'
p3152
sa(dp3153
S'Pens'
p3154
S'0'
sS'Sub'
p3155
S'0'
sS'Lost'
p3156
S'2'
sS'Drop'
p3157
S'0'
sS'Start'
p3158
S'3'
sS'Won'
p3159
S'1'
sS'Draw'
p3160
S'0'
sS'%'
S'33.33'
p3161
sS'Mat'
p3162
S'3'
sS'Conv'
p3163
S'0'
sS'Tries'
p3164
S'0'
sS'Pts'
p3165
S'0'
sa(dp3166
S'Pens'
p3167
S'0'
sS'Sub'
p3168
S'2'
sS'Lost'
p3169
S'1'
sS'Drop'
p3170
S'0'
sS'Start'
p3171
S'2'
sS'Won'
p3172
S'3'
sS'Draw'
p3173
S'0'
sS'%'
S'75.00'
p3174
sS'Mat'
p3175
S'4'
sS'Conv'
p3176
S'0'
sS'Tries'
p3177
S'0'
sS'Pts'
p3178
S'0'
sa(dp3179
S'Pens'
p3180
S'0'
sS'Sub'
p3181
S'2'
sS'Lost'
p3182
S'5'
sS'Drop'
p3183
S'0'
sS'Start'
p3184
S'5'
sS'Won'
p3185
S'2'
sS'Draw'
p3186
S'0'
sS'%'
S'28.57'
p3187
sS'Mat'
p3188
S'7'
sS'Conv'
p3189
S'0'
sS'Tries'
p3190
S'0'
sS'Pts'
p3191
S'0'
sa(dp3192
S'Pens'
p3193
S'0'
sS'Sub'
p3194
S'1'
sS'Lost'
p3195
S'2'
sS'Drop'
p3196
S'0'
sS'Start'
p3197
S'1'
sS'Won'
p3198
S'0'
sS'Draw'
p3199
S'0'
sS'%'
S'0.00'
p3200
sS'Mat'
p3201
S'2'
sS'Conv'
p3202
S'0'
sS'Tries'
p3203
S'0'
sS'Pts'
p3204
S'0'
sa(dp3205
S'Pens'
p3206
S'0'
sS'Sub'
p3207
S'3'
sS'Lost'
p3208
S'4'
sS'Drop'
p3209
S'0'
sS'Start'
p3210
S'5'
sS'Won'
p3211
S'4'
sS'Draw'
p3212
S'0'
sS'%'
S'50.00'
p3213
sS'Mat'
p3214
S'8'
sS'Conv'
p3215
S'0'
sS'Tries'
p3216
S'0'
sS'Pts'
p3217
S'0'
sa(dp3218
S'Pens'
p3219
S'0'
sS'Sub'
p3220
S'2'
sS'Lost'
p3221
S'1'
sS'Drop'
p3222
S'0'
sS'Start'
p3223
S'0'
sS'Won'
p3224
S'1'
sS'Draw'
p3225
S'0'
sS'%'
S'50.00'
p3226
sS'Mat'
p3227
S'2'
sS'Conv'
p3228
S'0'
sS'Tries'
p3229
S'0'
sS'Pts'
p3230
S'0'
sa(dp3231
S'Pens'
p3232
S'0'
sS'Sub'
p3233
S'6'
sS'Lost'
p3234
S'12'
p3235
sS'Drop'
p3236
S'0'
sS'Start'
p3237
S'16'
p3238
sS'Won'
p3239
S'10'
p3240
sS'Draw'
p3241
S'0'
sS'%'
S'45.45'
p3242
sS'Mat'
p3243
S'22'
p3244
sS'Conv'
p3245
S'0'
sS'Tries'
p3246
S'0'
sS'Pts'
p3247
S'0'
sa(dp3248
S'Pens'
p3249
S'0'
sS'Sub'
p3250
S'2'
sS'Lost'
p3251
S'2'
sS'Drop'
p3252
S'0'
sS'Start'
p3253
S'5'
sS'Won'
p3254
S'5'
sS'Draw'
p3255
S'0'
sS'%'
S'71.42'
p3256
sS'Mat'
p3257
S'7'
sS'Conv'
p3258
S'0'
sS'Tries'
p3259
S'1'
sS'Pts'
p3260
S'5'
sa(dp3261
S'Pens'
p3262
S'0'
sS'Sub'
p3263
S'1'
sS'Lost'
p3264
S'3'
sS'Drop'
p3265
S'0'
sS'Start'
p3266
S'14'
p3267
sS'Won'
p3268
S'12'
p3269
sS'Draw'
p3270
S'0'
sS'%'
S'80.00'
p3271
sS'Mat'
p3272
S'15'
p3273
sS'Conv'
p3274
S'0'
sS'Tries'
p3275
S'0'
sS'Pts'
p3276
S'0'
sa(dp3277
S'Pens'
p3278
S'0'
sS'Sub'
p3279
S'0'
sS'Lost'
p3280
S'1'
sS'Drop'
p3281
S'0'
sS'Start'
p3282
S'1'
sS'Won'
p3283
S'0'
sS'Draw'
p3284
S'0'
sS'%'
S'0.00'
p3285
sS'Mat'
p3286
S'1'
sS'Conv'
p3287
S'0'
sS'Tries'
p3288
S'0'
sS'Pts'
p3289
S'0'
sa(dp3290
S'Pens'
p3291
S'0'
sS'Sub'
p3292
S'2'
sS'Lost'
p3293
S'1'
sS'Drop'
p3294
S'0'
sS'Start'
p3295
S'1'
sS'Won'
p3296
S'2'
sS'Draw'
p3297
S'0'
sS'%'
S'66.66'
p3298
sS'Mat'
p3299
S'3'
sS'Conv'
p3300
S'0'
sS'Tries'
p3301
S'0'
sS'Pts'
p3302
S'0'
sa(dp3303
S'Pens'
p3304
S'0'
sS'Sub'
p3305
S'2'
sS'Lost'
p3306
S'11'
p3307
sS'Drop'
p3308
S'0'
sS'Start'
p3309
S'18'
p3310
sS'Won'
p3311
S'9'
sS'Draw'
p3312
S'0'
sS'%'
S'45.00'
p3313
sS'Mat'
p3314
S'20'
p3315
sS'Conv'
p3316
S'0'
sS'Tries'
p3317
S'3'
sS'Pts'
p3318
S'15'
p3319
sa(dp3320
S'Pens'
p3321
S'0'
sS'Sub'
p3322
S'0'
sS'Lost'
p3323
S'0'
sS'Drop'
p3324
S'0'
sS'Start'
p3325
S'1'
sS'Won'
p3326
S'1'
sS'Draw'
p3327
S'0'
sS'%'
S'100.00'
p3328
sS'Mat'
p3329
S'1'
sS'Conv'
p3330
S'0'
sS'Tries'
p3331
S'0'
sS'Pts'
p3332
S'0'
sa(dp3333
S'Pens'
p3334
S'0'
sS'Sub'
p3335
S'0'
sS'Lost'
p3336
S'1'
sS'Drop'
p3337
S'0'
sS'Start'
p3338
S'3'
sS'Won'
p3339
S'2'
sS'Draw'
p3340
S'0'
sS'%'
S'66.66'
p3341
sS'Mat'
p3342
S'3'
sS'Conv'
p3343
S'0'
sS'Tries'
p3344
S'1'
sS'Pts'
p3345
S'5'
sa(dp3346
S'Pens'
p3347
S'0'
sS'Sub'
p3348
S'1'
sS'Lost'
p3349
S'1'
sS'Drop'
p3350
S'0'
sS'Start'
p3351
S'1'
sS'Won'
p3352
S'1'
sS'Draw'
p3353
S'0'
sS'%'
S'50.00'
p3354
sS'Mat'
p3355
S'2'
sS'Conv'
p3356
S'0'
sS'Tries'
p3357
S'0'
sS'Pts'
p3358
S'0'
sa(dp3359
S'Pens'
p3360
S'3'
sS'Sub'
p3361
S'3'
sS'Lost'
p3362
S'13'
p3363
sS'Drop'
p3364
S'0'
sS'Start'
p3365
S'22'
p3366
sS'Won'
p3367
S'11'
p3368
sS'Draw'
p3369
S'1'
sS'%'
S'46.00'
p3370
sS'Mat'
p3371
S'25'
p3372
sS'Conv'
p3373
S'1'
sS'Tries'
p3374
S'10'
p3375
sS'Pts'
p3376
S'61'
p3377
sa(dp3378
S'Pens'
p3379
S'0'
sS'Sub'
p3380
S'8'
sS'Lost'
p3381
S'12'
p3382
sS'Drop'
p3383
S'0'
sS'Start'
p3384
S'16'
p3385
sS'Won'
p3386
S'12'
p3387
sS'Draw'
p3388
S'0'
sS'%'
S'50.00'
p3389
sS'Mat'
p3390
S'24'
p3391
sS'Conv'
p3392
S'0'
sS'Tries'
p3393
S'2'
sS'Pts'
p3394
S'10'
p3395
sa(dp3396
S'Pens'
p3397
S'0'
sS'Sub'
p3398
S'1'
sS'Lost'
p3399
S'0'
sS'Drop'
p3400
S'0'
sS'Start'
p3401
S'0'
sS'Won'
p3402
S'1'
sS'Draw'
p3403
S'0'
sS'%'
S'100.00'
p3404
sS'Mat'
p3405
S'1'
sS'Conv'
p3406
S'0'
sS'Tries'
p3407
S'1'
sS'Pts'
p3408
S'5'
sa(dp3409
S'Pens'
p3410
S'0'
sS'Sub'
p3411
S'4'
sS'Lost'
p3412
S'2'
sS'Drop'
p3413
S'0'
sS'Start'
p3414
S'1'
sS'Won'
p3415
S'3'
sS'Draw'
p3416
S'0'
sS'%'
S'60.00'
p3417
sS'Mat'
p3418
S'5'
sS'Conv'
p3419
S'0'
sS'Tries'
p3420
S'0'
sS'Pts'
p3421
S'0'
sa(dp3422
S'Pens'
p3423
S'0'
sS'Sub'
p3424
S'3'
sS'Lost'
p3425
S'22'
p3426
sS'Drop'
p3427
S'0'
sS'Start'
p3428
S'34'
p3429
sS'Won'
p3430
S'14'
p3431
sS'Draw'
p3432
S'1'
sS'%'
S'39.18'
p3433
sS'Mat'
p3434
S'37'
p3435
sS'Conv'
p3436
S'0'
sS'Tries'
p3437
S'1'
sS'Pts'
p3438
S'5'
sa(dp3439
S'Pens'
p3440
S'0'
sS'Sub'
p3441
S'0'
sS'Lost'
p3442
S'1'
sS'Drop'
p3443
S'0'
sS'Start'
p3444
S'2'
sS'Won'
p3445
S'1'
sS'Draw'
p3446
S'0'
sS'%'
S'50.00'
p3447
sS'Mat'
p3448
S'2'
sS'Conv'
p3449
S'0'
sS'Tries'
p3450
S'0'
sS'Pts'
p3451
S'0'
sa(dp3452
S'Pens'
p3453
S'0'
sS'Sub'
p3454
S'0'
sS'Lost'
p3455
S'1'
sS'Drop'
p3456
S'0'
sS'Start'
p3457
S'2'
sS'Won'
p3458
S'1'
sS'Draw'
p3459
S'0'
sS'%'
S'50.00'
p3460
sS'Mat'
p3461
S'2'
sS'Conv'
p3462
S'0'
sS'Tries'
p3463
S'0'
sS'Pts'
p3464
S'0'
sa(dp3465
S'Pens'
p3466
S'0'
sS'Sub'
p3467
S'0'
sS'Lost'
p3468
S'1'
sS'Drop'
p3469
S'0'
sS'Start'
p3470
S'4'
sS'Won'
p3471
S'3'
sS'Draw'
p3472
S'0'
sS'%'
S'75.00'
p3473
sS'Mat'
p3474
S'4'
sS'Conv'
p3475
S'0'
sS'Tries'
p3476
S'0'
sS'Pts'
p3477
S'0'
sa(dp3478
S'Pens'
p3479
S'0'
sS'Sub'
p3480
S'1'
sS'Lost'
p3481
S'0'
sS'Drop'
p3482
S'0'
sS'Start'
p3483
S'6'
sS'Won'
p3484
S'7'
sS'Draw'
p3485
S'0'
sS'%'
S'100.00'
p3486
sS'Mat'
p3487
S'7'
sS'Conv'
p3488
S'0'
sS'Tries'
p3489
S'3'
sS'Pts'
p3490
S'15'
p3491
sa(dp3492
S'Pens'
p3493
S'0'
sS'Sub'
p3494
S'0'
sS'Lost'
p3495
S'4'
sS'Drop'
p3496
S'0'
sS'Start'
p3497
S'10'
p3498
sS'Won'
p3499
S'6'
sS'Draw'
p3500
S'0'
sS'%'
S'60.00'
p3501
sS'Mat'
p3502
S'10'
p3503
sS'Conv'
p3504
S'0'
sS'Tries'
p3505
S'3'
sS'Pts'
p3506
S'15'
p3507
sa(dp3508
S'Pens'
p3509
S'0'
sS'Sub'
p3510
S'4'
sS'Lost'
p3511
S'15'
p3512
sS'Drop'
p3513
S'0'
sS'Start'
p3514
S'23'
p3515
sS'Won'
p3516
S'11'
p3517
sS'Draw'
p3518
S'1'
sS'%'
S'42.59'
p3519
sS'Mat'
p3520
S'27'
p3521
sS'Conv'
p3522
S'0'
sS'Tries'
p3523
S'5'
sS'Pts'
p3524
S'25'
p3525
sa(dp3526
S'Pens'
p3527
S'0'
sS'Sub'
p3528
S'7'
sS'Lost'
p3529
S'23'
p3530
sS'Drop'
p3531
S'0'
sS'Start'
p3532
S'31'
p3533
sS'Won'
p3534
S'14'
p3535
sS'Draw'
p3536
S'1'
sS'%'
S'38.15'
p3537
sS'Mat'
p3538
S'38'
p3539
sS'Conv'
p3540
S'0'
sS'Tries'
p3541
S'3'
sS'Pts'
p3542
S'15'
p3543
sa(dp3544
S'Pens'
p3545
S'0'
sS'Sub'
p3546
S'4'
sS'Lost'
p3547
S'6'
sS'Drop'
p3548
S'0'
sS'Start'
p3549
S'7'
sS'Won'
p3550
S'5'
sS'Draw'
p3551
S'0'
sS'%'
S'45.45'
p3552
sS'Mat'
p3553
S'11'
p3554
sS'Conv'
p3555
S'0'
sS'Tries'
p3556
S'1'
sS'Pts'
p3557
S'5'
sa(dp3558
S'Pens'
p3559
S'0'
sS'Sub'
p3560
S'1'
sS'Lost'
p3561
S'1'
sS'Drop'
p3562
S'0'
sS'Start'
p3563
S'0'
sS'Won'
p3564
S'0'
sS'Draw'
p3565
S'0'
sS'%'
S'0.00'
p3566
sS'Mat'
p3567
S'1'
sS'Conv'
p3568
S'0'
sS'Tries'
p3569
S'0'
sS'Pts'
p3570
S'0'
sa(dp3571
S'Pens'
p3572
S'0'
sS'Sub'
p3573
S'3'
sS'Lost'
p3574
S'3'
sS'Drop'
p3575
S'0'
sS'Start'
p3576
S'0'
sS'Won'
p3577
S'0'
sS'Draw'
p3578
S'0'
sS'%'
S'0.00'
p3579
sS'Mat'
p3580
S'3'
sS'Conv'
p3581
S'0'
sS'Tries'
p3582
S'0'
sS'Pts'
p3583
S'0'
sa(dp3584
S'Pens'
p3585
S'0'
sS'Sub'
p3586
S'5'
sS'Lost'
p3587
S'19'
p3588
sS'Drop'
p3589
S'0'
sS'Start'
p3590
S'29'
p3591
sS'Won'
p3592
S'14'
p3593
sS'Draw'
p3594
S'1'
sS'%'
S'42.64'
p3595
sS'Mat'
p3596
S'34'
p3597
sS'Conv'
p3598
S'0'
sS'Tries'
p3599
S'6'
sS'Pts'
p3600
S'30'
p3601
sa(dp3602
S'Pens'
p3603
S'0'
sS'Sub'
p3604
S'8'
sS'Lost'
p3605
S'28'
p3606
sS'Drop'
p3607
S'0'
sS'Start'
p3608
S'36'
p3609
sS'Won'
p3610
S'14'
p3611
sS'Draw'
p3612
S'2'
sS'%'
S'34.09'
p3613
sS'Mat'
p3614
S'44'
p3615
sS'Conv'
p3616
S'0'
sS'Tries'
p3617
S'4'
sS'Pts'
p3618
S'20'
p3619
sa(dp3620
S'Pens'
p3621
S'0'
sS'Sub'
p3622
S'2'
sS'Lost'
p3623
S'4'
sS'Drop'
p3624
S'0'
sS'Start'
p3625
S'4'
sS'Won'
p3626
S'2'
sS'Draw'
p3627
S'0'
sS'%'
S'33.33'
p3628
sS'Mat'
p3629
S'6'
sS'Conv'
p3630
S'0'
sS'Tries'
p3631
S'1'
sS'Pts'
p3632
S'5'
sa(dp3633
S'Pens'
p3634
S'0'
sS'Sub'
p3635
S'1'
sS'Lost'
p3636
S'0'
sS'Drop'
p3637
S'0'
sS'Start'
p3638
S'0'
sS'Won'
p3639
S'1'
sS'Draw'
p3640
S'0'
sS'%'
S'100.00'
p3641
sS'Mat'
p3642
S'1'
sS'Conv'
p3643
S'0'
sS'Tries'
p3644
S'0'
sS'Pts'
p3645
S'0'
sa(dp3646
S'Pens'
p3647
S'0'
sS'Sub'
p3648
S'6'
sS'Lost'
p3649
S'23'
p3650
sS'Drop'
p3651
S'0'
sS'Start'
p3652
S'30'
p3653
sS'Won'
p3654
S'12'
p3655
sS'Draw'
p3656
S'1'
sS'%'
S'34.72'
p3657
sS'Mat'
p3658
S'36'
p3659
sS'Conv'
p3660
S'0'
sS'Tries'
p3661
S'3'
sS'Pts'
p3662
S'15'
p3663
sa(dp3664
S'Pens'
p3665
S'0'
sS'Sub'
p3666
S'1'
sS'Lost'
p3667
S'8'
sS'Drop'
p3668
S'0'
sS'Start'
p3669
S'14'
p3670
sS'Won'
p3671
S'7'
sS'Draw'
p3672
S'0'
sS'%'
S'46.66'
p3673
sS'Mat'
p3674
S'15'
p3675
sS'Conv'
p3676
S'0'
sS'Tries'
p3677
S'3'
sS'Pts'
p3678
S'15'
p3679
sa(dp3680
S'Pens'
p3681
S'0'
sS'Sub'
p3682
S'4'
sS'Lost'
p3683
S'36'
p3684
sS'Drop'
p3685
S'1'
sS'Start'
p3686
S'52'
p3687
sS'Won'
p3688
S'18'
p3689
sS'Draw'
p3690
S'2'
sS'%'
S'33.92'
p3691
sS'Mat'
p3692
S'56'
p3693
sS'Conv'
p3694
S'0'
sS'Tries'
p3695
S'13'
p3696
sS'Pts'
p3697
S'68'
p3698
sa(dp3699
S'Pens'
p3700
S'0'
sS'Sub'
p3701
S'10'
p3702
sS'Lost'
p3703
S'7'
sS'Drop'
p3704
S'0'
sS'Start'
p3705
S'2'
sS'Won'
p3706
S'4'
sS'Draw'
p3707
S'1'
sS'%'
S'37.50'
p3708
sS'Mat'
p3709
S'12'
p3710
sS'Conv'
p3711
S'0'
sS'Tries'
p3712
S'0'
sS'Pts'
p3713
S'0'
sa(dp3714
S'Pens'
p3715
S'55'
p3716
sS'Sub'
p3717
S'1'
sS'Lost'
p3718
S'8'
sS'Drop'
p3719
S'1'
sS'Start'
p3720
S'17'
p3721
sS'Won'
p3722
S'10'
p3723
sS'Draw'
p3724
S'0'
sS'%'
S'55.55'
p3725
sS'Mat'
p3726
S'18'
p3727
sS'Conv'
p3728
S'24'
p3729
sS'Tries'
p3730
S'2'
sS'Pts'
p3731
S'226'
p3732
sa(dp3733
S'Pens'
p3734
S'0'
sS'Sub'
p3735
S'7'
sS'Lost'
p3736
S'17'
p3737
sS'Drop'
p3738
S'0'
sS'Start'
p3739
S'18'
p3740
sS'Won'
p3741
S'8'
sS'Draw'
p3742
S'0'
sS'%'
S'32.00'
p3743
sS'Mat'
p3744
S'25'
p3745
sS'Conv'
p3746
S'0'
sS'Tries'
p3747
S'0'
sS'Pts'
p3748
S'0'
sa(dp3749
S'Pens'
p3750
S'0'
sS'Sub'
p3751
S'1'
sS'Lost'
p3752
S'16'
p3753
sS'Drop'
p3754
S'0'
sS'Start'
p3755
S'28'
p3756
sS'Won'
p3757
S'12'
p3758
sS'Draw'
p3759
S'1'
sS'%'
S'43.10'
p3760
sS'Mat'
p3761
S'29'
p3762
sS'Conv'
p3763
S'0'
sS'Tries'
p3764
S'7'
sS'Pts'
p3765
S'35'
p3766
sa(dp3767
S'Pens'
p3768
S'0'
sS'Sub'
p3769
S'8'
sS'Lost'
p3770
S'12'
p3771
sS'Drop'
p3772
S'0'
sS'Start'
p3773
S'11'
p3774
sS'Won'
p3775
S'6'
sS'Draw'
p3776
S'1'
sS'%'
S'34.21'
p3777
sS'Mat'
p3778
S'19'
p3779
sS'Conv'
p3780
S'0'
sS'Tries'
p3781
S'0'
sS'Pts'
p3782
S'0'
sa(dp3783
S'Pens'
p3784
S'0'
sS'Sub'
p3785
S'6'
sS'Lost'
p3786
S'12'
p3787
sS'Drop'
p3788
S'0'
sS'Start'
p3789
S'14'
p3790
sS'Won'
p3791
S'7'
sS'Draw'
p3792
S'1'
sS'%'
S'37.50'
p3793
sS'Mat'
p3794
S'20'
p3795
sS'Conv'
p3796
S'0'
sS'Tries'
p3797
S'5'
sS'Pts'
p3798
S'25'
p3799
sa(dp3800
S'Pens'
p3801
S'0'
sS'Sub'
p3802
S'16'
p3803
sS'Lost'
p3804
S'37'
p3805
sS'Drop'
p3806
S'0'
sS'Start'
p3807
S'39'
p3808
sS'Won'
p3809
S'18'
p3810
sS'Draw'
p3811
S'0'
sS'%'
S'32.72'
p3812
sS'Mat'
p3813
S'55'
p3814
sS'Conv'
p3815
S'0'
sS'Tries'
p3816
S'5'
sS'Pts'
p3817
S'25'
p3818
sa(dp3819
S'Pens'
p3820
S'0'
sS'Sub'
p3821
S'8'
sS'Lost'
p3822
S'12'
p3823
sS'Drop'
p3824
S'0'
sS'Start'
p3825
S'12'
p3826
sS'Won'
p3827
S'8'
sS'Draw'
p3828
S'0'
sS'%'
S'40.00'
p3829
sS'Mat'
p3830
S'20'
p3831
sS'Conv'
p3832
S'0'
sS'Tries'
p3833
S'0'
sS'Pts'
p3834
S'0'
sa(dp3835
S'Pens'
p3836
S'0'
sS'Sub'
p3837
S'3'
sS'Lost'
p3838
S'4'
sS'Drop'
p3839
S'0'
sS'Start'
p3840
S'5'
sS'Won'
p3841
S'3'
sS'Draw'
p3842
S'1'
sS'%'
S'43.75'
p3843
sS'Mat'
p3844
S'8'
sS'Conv'
p3845
S'0'
sS'Tries'
p3846
S'0'
sS'Pts'
p3847
S'0'
sa(dp3848
S'Pens'
p3849
S'0'
sS'Sub'
p3850
S'1'
sS'Lost'
p3851
S'1'
sS'Drop'
p3852
S'0'
sS'Start'
p3853
S'1'
sS'Won'
p3854
S'1'
sS'Draw'
p3855
S'0'
sS'%'
S'50.00'
p3856
sS'Mat'
p3857
S'2'
sS'Conv'
p3858
S'0'
sS'Tries'
p3859
S'0'
sS'Pts'
p3860
S'0'
sa(dp3861
S'Pens'
p3862
S'0'
sS'Sub'
p3863
S'2'
sS'Lost'
p3864
S'6'
sS'Drop'
p3865
S'0'
sS'Start'
p3866
S'8'
sS'Won'
p3867
S'3'
sS'Draw'
p3868
S'1'
sS'%'
S'35.00'
p3869
sS'Mat'
p3870
S'10'
p3871
sS'Conv'
p3872
S'0'
sS'Tries'
p3873
S'0'
sS'Pts'
p3874
S'0'
sa(dp3875
S'Pens'
p3876
S'0'
sS'Sub'
p3877
S'2'
sS'Lost'
p3878
S'2'
sS'Drop'
p3879
S'0'
sS'Start'
p3880
S'1'
sS'Won'
p3881
S'1'
sS'Draw'
p3882
S'0'
sS'%'
S'33.33'
p3883
sS'Mat'
p3884
S'3'
sS'Conv'
p3885
S'0'
sS'Tries'
p3886
S'1'
sS'Pts'
p3887
S'5'
sa(dp3888
S'Pens'
p3889
S'0'
sS'Sub'
p3890
S'2'
sS'Lost'
p3891
S'23'
p3892
sS'Drop'
p3893
S'0'
sS'Start'
p3894
S'29'
p3895
sS'Won'
p3896
S'8'
sS'Draw'
p3897
S'0'
sS'%'
S'25.80'
p3898
sS'Mat'
p3899
S'31'
p3900
sS'Conv'
p3901
S'0'
sS'Tries'
p3902
S'0'
sS'Pts'
p3903
S'0'
sa(dp3904
S'Pens'
p3905
S'6'
sS'Sub'
p3906
S'22'
p3907
sS'Lost'
p3908
S'34'
p3909
sS'Drop'
p3910
S'0'
sS'Start'
p3911
S'35'
p3912
sS'Won'
p3913
S'22'
p3914
sS'Draw'
p3915
S'1'
sS'%'
S'39.47'
p3916
sS'Mat'
p3917
S'57'
p3918
sS'Conv'
p3919
S'4'
sS'Tries'
p3920
S'4'
sS'Pts'
p3921
S'46'
p3922
sa(dp3923
S'Pens'
p3924
S'0'
sS'Sub'
p3925
S'0'
sS'Lost'
p3926
S'3'
sS'Drop'
p3927
S'0'
sS'Start'
p3928
S'5'
sS'Won'
p3929
S'2'
sS'Draw'
p3930
S'0'
sS'%'
S'40.00'
p3931
sS'Mat'
p3932
S'5'
sS'Conv'
p3933
S'0'
sS'Tries'
p3934
S'0'
sS'Pts'
p3935
S'0'
sa(dp3936
S'Pens'
p3937
S'0'
sS'Sub'
p3938
S'3'
sS'Lost'
p3939
S'3'
sS'Drop'
p3940
S'0'
sS'Start'
p3941
S'2'
sS'Won'
p3942
S'2'
sS'Draw'
p3943
S'0'
sS'%'
S'40.00'
p3944
sS'Mat'
p3945
S'5'
sS'Conv'
p3946
S'0'
sS'Tries'
p3947
S'1'
sS'Pts'
p3948
S'5'
sa(dp3949
S'Pens'
p3950
S'0'
sS'Sub'
p3951
S'6'
sS'Lost'
p3952
S'14'
p3953
sS'Drop'
p3954
S'0'
sS'Start'
p3955
S'16'
p3956
sS'Won'
p3957
S'8'
sS'Draw'
p3958
S'0'
sS'%'
S'36.36'
p3959
sS'Mat'
p3960
S'22'
p3961
sS'Conv'
p3962
S'0'
sS'Tries'
p3963
S'3'
sS'Pts'
p3964
S'15'
p3965
sa(dp3966
S'Pens'
p3967
S'0'
sS'Sub'
p3968
S'1'
sS'Lost'
p3969
S'4'
sS'Drop'
p3970
S'0'
sS'Start'
p3971
S'7'
sS'Won'
p3972
S'4'
sS'Draw'
p3973
S'0'
sS'%'
S'50.00'
p3974
sS'Mat'
p3975
S'8'
sS'Conv'
p3976
S'0'
sS'Tries'
p3977
S'0'
sS'Pts'
p3978
S'0'
sa(dp3979
S'Pens'
p3980
S'0'
sS'Sub'
p3981
S'0'
sS'Lost'
p3982
S'0'
sS'Drop'
p3983
S'0'
sS'Start'
p3984
S'1'
sS'Won'
p3985
S'1'
sS'Draw'
p3986
S'0'
sS'%'
S'100.00'
p3987
sS'Mat'
p3988
S'1'
sS'Conv'
p3989
S'0'
sS'Tries'
p3990
S'0'
sS'Pts'
p3991
S'0'
sa(dp3992
S'Pens'
p3993
S'0'
sS'Sub'
p3994
S'10'
p3995
sS'Lost'
p3996
S'24'
p3997
sS'Drop'
p3998
S'0'
sS'Start'
p3999
S'26'
p4000
sS'Won'
p4001
S'11'
p4002
sS'Draw'
p4003
S'1'
sS'%'
S'31.94'
p4004
sS'Mat'
p4005
S'36'
p4006
sS'Conv'
p4007
S'0'
sS'Tries'
p4008
S'0'
sS'Pts'
p4009
S'0'
sa(dp4010
S'Pens'
p4011
S'0'
sS'Sub'
p4012
S'1'
sS'Lost'
p4013
S'2'
sS'Drop'
p4014
S'0'
sS'Start'
p4015
S'1'
sS'Won'
p4016
S'0'
sS'Draw'
p4017
S'0'
sS'%'
S'0.00'
p4018
sS'Mat'
p4019
S'2'
sS'Conv'
p4020
S'0'
sS'Tries'
p4021
S'0'
sS'Pts'
p4022
S'0'
sa(dp4023
S'Pens'
p4024
S'0'
sS'Sub'
p4025
S'1'
sS'Lost'
p4026
S'2'
sS'Drop'
p4027
S'0'
sS'Start'
p4028
S'1'
sS'Won'
p4029
S'0'
sS'Draw'
p4030
S'0'
sS'%'
S'0.00'
p4031
sS'Mat'
p4032
S'2'
sS'Conv'
p4033
S'0'
sS'Tries'
p4034
S'0'
sS'Pts'
p4035
S'0'
sa(dp4036
S'Pens'
p4037
S'2'
sS'Sub'
p4038
S'2'
sS'Lost'
p4039
S'3'
sS'Drop'
p4040
S'0'
sS'Start'
p4041
S'1'
sS'Won'
p4042
S'0'
sS'Draw'
p4043
S'0'
sS'%'
S'0.00'
p4044
sS'Mat'
p4045
S'3'
sS'Conv'
p4046
S'1'
sS'Tries'
p4047
S'0'
sS'Pts'
p4048
S'8'
sa(dp4049
S'Pens'
p4050
S'0'
sS'Sub'
p4051
S'12'
p4052
sS'Lost'
p4053
S'16'
p4054
sS'Drop'
p4055
S'0'
sS'Start'
p4056
S'14'
p4057
sS'Won'
p4058
S'10'
p4059
sS'Draw'
p4060
S'0'
sS'%'
S'38.46'
p4061
sS'Mat'
p4062
S'26'
p4063
sS'Conv'
p4064
S'0'
sS'Tries'
p4065
S'1'
sS'Pts'
p4066
S'5'
sa(dp4067
S'Pens'
p4068
S'0'
sS'Sub'
p4069
S'4'
sS'Lost'
p4070
S'21'
p4071
sS'Drop'
p4072
S'0'
sS'Start'
p4073
S'29'
p4074
sS'Won'
p4075
S'11'
p4076
sS'Draw'
p4077
S'1'
sS'%'
S'34.84'
p4078
sS'Mat'
p4079
S'33'
p4080
sS'Conv'
p4081
S'0'
sS'Tries'
p4082
S'2'
sS'Pts'
p4083
S'10'
p4084
sa(dp4085
S'Pens'
p4086
S'0'
sS'Sub'
p4087
S'2'
sS'Lost'
p4088
S'7'
sS'Drop'
p4089
S'0'
sS'Start'
p4090
S'9'
sS'Won'
p4091
S'4'
sS'Draw'
p4092
S'0'
sS'%'
S'36.36'
p4093
sS'Mat'
p4094
S'11'
p4095
sS'Conv'
p4096
S'0'
sS'Tries'
p4097
S'0'
sS'Pts'
p4098
S'0'
sa(dp4099
S'Pens'
p4100
S'0'
sS'Sub'
p4101
S'3'
sS'Lost'
p4102
S'3'
sS'Drop'
p4103
S'0'
sS'Start'
p4104
S'0'
sS'Won'
p4105
S'0'
sS'Draw'
p4106
S'0'
sS'%'
S'0.00'
p4107
sS'Mat'
p4108
S'3'
sS'Conv'
p4109
S'0'
sS'Tries'
p4110
S'0'
sS'Pts'
p4111
S'0'
sa(dp4112
S'Pens'
p4113
S'0'
sS'Sub'
p4114
S'0'
sS'Lost'
p4115
S'9'
sS'Drop'
p4116
S'0'
sS'Start'
p4117
S'15'
p4118
sS'Won'
p4119
S'6'
sS'Draw'
p4120
S'0'
sS'%'
S'40.00'
p4121
sS'Mat'
p4122
S'15'
p4123
sS'Conv'
p4124
S'0'
sS'Tries'
p4125
S'5'
sS'Pts'
p4126
S'25'
p4127
sa(dp4128
S'Pens'
p4129
S'0'
sS'Sub'
p4130
S'0'
sS'Lost'
p4131
S'4'
sS'Drop'
p4132
S'0'
sS'Start'
p4133
S'4'
sS'Won'
p4134
S'0'
sS'Draw'
p4135
S'0'
sS'%'
S'0.00'
p4136
sS'Mat'
p4137
S'4'
sS'Conv'
p4138
S'0'
sS'Tries'
p4139
S'0'
sS'Pts'
p4140
S'0'
sa(dp4141
S'Pens'
p4142
S'0'
sS'Sub'
p4143
S'1'
sS'Lost'
p4144
S'1'
sS'Drop'
p4145
S'0'
sS'Start'
p4146
S'0'
sS'Won'
p4147
S'0'
sS'Draw'
p4148
S'0'
sS'%'
S'0.00'
p4149
sS'Mat'
p4150
S'1'
sS'Conv'
p4151
S'0'
sS'Tries'
p4152
S'0'
sS'Pts'
p4153
S'0'
sa(dp4154
S'Pens'
p4155
S'0'
sS'Sub'
p4156
S'8'
sS'Lost'
p4157
S'21'
p4158
sS'Drop'
p4159
S'0'
sS'Start'
p4160
S'35'
p4161
sS'Won'
p4162
S'20'
p4163
sS'Draw'
p4164
S'2'
sS'%'
S'48.83'
p4165
sS'Mat'
p4166
S'43'
p4167
sS'Conv'
p4168
S'0'
sS'Tries'
p4169
S'4'
sS'Pts'
p4170
S'20'
p4171
sa(dp4172
S'Pens'
p4173
S'0'
sS'Sub'
p4174
S'13'
p4175
sS'Lost'
p4176
S'31'
p4177
sS'Drop'
p4178
S'0'
sS'Start'
p4179
S'38'
p4180
sS'Won'
p4181
S'18'
p4182
sS'Draw'
p4183
S'2'
sS'%'
S'37.25'
p4184
sS'Mat'
p4185
S'51'
p4186
sS'Conv'
p4187
S'0'
sS'Tries'
p4188
S'9'
sS'Pts'
p4189
S'45'
p4190
sa(dp4191
S'Pens'
p4192
S'0'
sS'Sub'
p4193
S'8'
sS'Lost'
p4194
S'15'
p4195
sS'Drop'
p4196
S'0'
sS'Start'
p4197
S'14'
p4198
sS'Won'
p4199
S'7'
sS'Draw'
p4200
S'0'
sS'%'
S'31.81'
p4201
sS'Mat'
p4202
S'22'
p4203
sS'Conv'
p4204
S'0'
sS'Tries'
p4205
S'2'
sS'Pts'
p4206
S'10'
p4207
sa(dp4208
S'Pens'
p4209
S'101'
p4210
sS'Sub'
p4211
S'2'
sS'Lost'
p4212
S'31'
p4213
sS'Drop'
p4214
S'0'
sS'Start'
p4215
S'57'
p4216
sS'Won'
p4217
S'26'
p4218
sS'Draw'
p4219
S'2'
sS'%'
S'45.76'
p4220
sS'Mat'
p4221
S'59'
p4222
sS'Conv'
p4223
S'102'
p4224
sS'Tries'
p4225
S'18'
p4226
sS'Pts'
p4227
S'597'
p4228
sa(dp4229
S'Pens'
p4230
S'0'
sS'Sub'
p4231
S'3'
sS'Lost'
p4232
S'7'
sS'Drop'
p4233
S'0'
sS'Start'
p4234
S'6'
sS'Won'
p4235
S'2'
sS'Draw'
p4236
S'0'
sS'%'
S'22.22'
p4237
sS'Mat'
p4238
S'9'
sS'Conv'
p4239
S'0'
sS'Tries'
p4240
S'0'
sS'Pts'
p4241
S'0'
sa(dp4242
S'Pens'
p4243
S'0'
sS'Sub'
p4244
S'2'
sS'Lost'
p4245
S'4'
sS'Drop'
p4246
S'0'
sS'Start'
p4247
S'3'
sS'Won'
p4248
S'1'
sS'Draw'
p4249
S'0'
sS'%'
S'20.00'
p4250
sS'Mat'
p4251
S'5'
sS'Conv'
p4252
S'0'
sS'Tries'
p4253
S'0'
sS'Pts'
p4254
S'0'
sa(dp4255
S'Pens'
p4256
S'0'
sS'Sub'
p4257
S'7'
sS'Lost'
p4258
S'17'
p4259
sS'Drop'
p4260
S'0'
sS'Start'
p4261
S'17'
p4262
sS'Won'
p4263
S'6'
sS'Draw'
p4264
S'1'
sS'%'
S'27.08'
p4265
sS'Mat'
p4266
S'24'
p4267
sS'Conv'
p4268
S'0'
sS'Tries'
p4269
S'0'
sS'Pts'
p4270
S'0'
sa(dp4271
S'Pens'
p4272
S'0'
sS'Sub'
p4273
S'0'
sS'Lost'
p4274
S'1'
sS'Drop'
p4275
S'0'
sS'Start'
p4276
S'2'
sS'Won'
p4277
S'1'
sS'Draw'
p4278
S'0'
sS'%'
S'50.00'
p4279
sS'Mat'
p4280
S'2'
sS'Conv'
p4281
S'0'
sS'Tries'
p4282
S'0'
sS'Pts'
p4283
S'0'
sa(dp4284
S'Pens'
p4285
S'0'
sS'Sub'
p4286
S'7'
sS'Lost'
p4287
S'12'
p4288
sS'Drop'
p4289
S'0'
sS'Start'
p4290
S'9'
sS'Won'
p4291
S'4'
sS'Draw'
p4292
S'0'
sS'%'
S'25.00'
p4293
sS'Mat'
p4294
S'16'
p4295
sS'Conv'
p4296
S'0'
sS'Tries'
p4297
S'0'
sS'Pts'
p4298
S'0'
sa(dp4299
S'Pens'
p4300
S'0'
sS'Sub'
p4301
S'1'
sS'Lost'
p4302
S'13'
p4303
sS'Drop'
p4304
S'0'
sS'Start'
p4305
S'19'
p4306
sS'Won'
p4307
S'7'
sS'Draw'
p4308
S'0'
sS'%'
S'35.00'
p4309
sS'Mat'
p4310
S'20'
p4311
sS'Conv'
p4312
S'0'
sS'Tries'
p4313
S'0'
sS'Pts'
p4314
S'0'
sa(dp4315
S'Pens'
p4316
S'0'
sS'Sub'
p4317
S'3'
sS'Lost'
p4318
S'3'
sS'Drop'
p4319
S'0'
sS'Start'
p4320
S'3'
sS'Won'
p4321
S'3'
sS'Draw'
p4322
S'0'
sS'%'
S'50.00'
p4323
sS'Mat'
p4324
S'6'
sS'Conv'
p4325
S'0'
sS'Tries'
p4326
S'0'
sS'Pts'
p4327
S'0'
sa(dp4328
S'Pens'
p4329
S'0'
sS'Sub'
p4330
S'1'
sS'Lost'
p4331
S'1'
sS'Drop'
p4332
S'0'
sS'Start'
p4333
S'1'
sS'Won'
p4334
S'1'
sS'Draw'
p4335
S'0'
sS'%'
S'50.00'
p4336
sS'Mat'
p4337
S'2'
sS'Conv'
p4338
S'0'
sS'Tries'
p4339
S'0'
sS'Pts'
p4340
S'0'
sa(dp4341
S'Pens'
p4342
S'2'
sS'Sub'
p4343
S'0'
sS'Lost'
p4344
S'12'
p4345
sS'Drop'
p4346
S'0'
sS'Start'
p4347
S'22'
p4348
sS'Won'
p4349
S'9'
sS'Draw'
p4350
S'1'
sS'%'
S'43.18'
p4351
sS'Mat'
p4352
S'22'
p4353
sS'Conv'
p4354
S'2'
sS'Tries'
p4355
S'6'
sS'Pts'
p4356
S'40'
p4357
sa(dp4358
S'Pens'
p4359
S'0'
sS'Sub'
p4360
S'5'
sS'Lost'
p4361
S'10'
p4362
sS'Drop'
p4363
S'0'
sS'Start'
p4364
S'13'
p4365
sS'Won'
p4366
S'7'
sS'Draw'
p4367
S'1'
sS'%'
S'41.66'
p4368
sS'Mat'
p4369
S'18'
p4370
sS'Conv'
p4371
S'0'
sS'Tries'
p4372
S'0'
sS'Pts'
p4373
S'0'
sa(dp4374
S'Pens'
p4375
S'0'
sS'Sub'
p4376
S'0'
sS'Lost'
p4377
S'1'
sS'Drop'
p4378
S'0'
sS'Start'
p4379
S'2'
sS'Won'
p4380
S'1'
sS'Draw'
p4381
S'0'
sS'%'
S'50.00'
p4382
sS'Mat'
p4383
S'2'
sS'Conv'
p4384
S'0'
sS'Tries'
p4385
S'1'
sS'Pts'
p4386
S'5'
sa(dp4387
S'Pens'
p4388
S'0'
sS'Sub'
p4389
S'11'
p4390
sS'Lost'
p4391
S'20'
p4392
sS'Drop'
p4393
S'0'
sS'Start'
p4394
S'18'
p4395
sS'Won'
p4396
S'8'
sS'Draw'
p4397
S'1'
sS'%'
S'29.31'
p4398
sS'Mat'
p4399
S'29'
p4400
sS'Conv'
p4401
S'0'
sS'Tries'
p4402
S'0'
sS'Pts'
p4403
S'0'
sa(dp4404
S'Pens'
p4405
S'0'
sS'Sub'
p4406
S'2'
sS'Lost'
p4407
S'1'
sS'Drop'
p4408
S'0'
sS'Start'
p4409
S'0'
sS'Won'
p4410
S'1'
sS'Draw'
p4411
S'0'
sS'%'
S'50.00'
p4412
sS'Mat'
p4413
S'2'
sS'Conv'
p4414
S'0'
sS'Tries'
p4415
S'0'
sS'Pts'
p4416
S'0'
sa(dp4417
S'Pens'
p4418
S'0'
sS'Sub'
p4419
S'4'
sS'Lost'
p4420
S'4'
sS'Drop'
p4421
S'0'
sS'Start'
p4422
S'3'
sS'Won'
p4423
S'3'
sS'Draw'
p4424
S'0'
sS'%'
S'42.85'
p4425
sS'Mat'
p4426
S'7'
sS'Conv'
p4427
S'0'
sS'Tries'
p4428
S'0'
sS'Pts'
p4429
S'0'
sa(dp4430
S'Pens'
p4431
S'0'
sS'Sub'
p4432
S'2'
sS'Lost'
p4433
S'1'
sS'Drop'
p4434
S'0'
sS'Start'
p4435
S'0'
sS'Won'
p4436
S'1'
sS'Draw'
p4437
S'0'
sS'%'
S'50.00'
p4438
sS'Mat'
p4439
S'2'
sS'Conv'
p4440
S'0'
sS'Tries'
p4441
S'0'
sS'Pts'
p4442
S'0'
sa(dp4443
S'Pens'
p4444
S'0'
sS'Sub'
p4445
S'2'
sS'Lost'
p4446
S'1'
sS'Drop'
p4447
S'0'
sS'Start'
p4448
S'0'
sS'Won'
p4449
S'1'
sS'Draw'
p4450
S'0'
sS'%'
S'50.00'
p4451
sS'Mat'
p4452
S'2'
sS'Conv'
p4453
S'0'
sS'Tries'
p4454
S'0'
sS'Pts'
p4455
S'0'
sa(dp4456
S'Pens'
p4457
S'0'
sS'Sub'
p4458
S'19'
p4459
sS'Lost'
p4460
S'17'
p4461
sS'Drop'
p4462
S'0'
sS'Start'
p4463
S'12'
p4464
sS'Won'
p4465
S'13'
p4466
sS'Draw'
p4467
S'1'
sS'%'
S'43.54'
p4468
sS'Mat'
p4469
S'31'
p4470
sS'Conv'
p4471
S'0'
sS'Tries'
p4472
S'2'
sS'Pts'
p4473
S'10'
p4474
sa(dp4475
S'Pens'
p4476
S'0'
sS'Sub'
p4477
S'4'
sS'Lost'
p4478
S'4'
sS'Drop'
p4479
S'0'
sS'Start'
p4480
S'3'
sS'Won'
p4481
S'3'
sS'Draw'
p4482
S'0'
sS'%'
S'42.85'
p4483
sS'Mat'
p4484
S'7'
sS'Conv'
p4485
S'0'
sS'Tries'
p4486
S'0'
sS'Pts'
p4487
S'0'
sa(dp4488
S'Pens'
p4489
S'0'
sS'Sub'
p4490
S'0'
sS'Lost'
p4491
S'1'
sS'Drop'
p4492
S'0'
sS'Start'
p4493
S'2'
sS'Won'
p4494
S'1'
sS'Draw'
p4495
S'0'
sS'%'
S'50.00'
p4496
sS'Mat'
p4497
S'2'
sS'Conv'
p4498
S'0'
sS'Tries'
p4499
S'0'
sS'Pts'
p4500
S'0'
sa(dp4501
S'Pens'
p4502
S'0'
sS'Sub'
p4503
S'0'
sS'Lost'
p4504
S'7'
sS'Drop'
p4505
S'0'
sS'Start'
p4506
S'8'
sS'Won'
p4507
S'1'
sS'Draw'
p4508
S'0'
sS'%'
S'12.50'
p4509
sS'Mat'
p4510
S'8'
sS'Conv'
p4511
S'0'
sS'Tries'
p4512
S'3'
sS'Pts'
p4513
S'15'
p4514
sa(dp4515
S'Pens'
p4516
S'0'
sS'Sub'
p4517
S'1'
sS'Lost'
p4518
S'2'
sS'Drop'
p4519
S'0'
sS'Start'
p4520
S'1'
sS'Won'
p4521
S'0'
sS'Draw'
p4522
S'0'
sS'%'
S'0.00'
p4523
sS'Mat'
p4524
S'2'
sS'Conv'
p4525
S'0'
sS'Tries'
p4526
S'0'
sS'Pts'
p4527
S'0'
sa(dp4528
S'Pens'
p4529
S'12'
p4530
sS'Sub'
p4531
S'6'
sS'Lost'
p4532
S'11'
p4533
sS'Drop'
p4534
S'1'
sS'Start'
p4535
S'11'
p4536
sS'Won'
p4537
S'6'
sS'Draw'
p4538
S'0'
sS'%'
S'35.29'
p4539
sS'Mat'
p4540
S'17'
p4541
sS'Conv'
p4542
S'5'
sS'Tries'
p4543
S'1'
sS'Pts'
p4544
S'54'
p4545
sa(dp4546
S'Pens'
p4547
S'0'
sS'Sub'
p4548
S'4'
sS'Lost'
p4549
S'10'
p4550
sS'Drop'
p4551
S'0'
sS'Start'
p4552
S'13'
p4553
sS'Won'
p4554
S'6'
sS'Draw'
p4555
S'1'
sS'%'
S'38.23'
p4556
sS'Mat'
p4557
S'17'
p4558
sS'Conv'
p4559
S'0'
sS'Tries'
p4560
S'2'
sS'Pts'
p4561
S'10'
p4562
sa(dp4563
S'Pens'
p4564
S'0'
sS'Sub'
p4565
S'12'
p4566
sS'Lost'
p4567
S'32'
p4568
sS'Drop'
p4569
S'0'
sS'Start'
p4570
S'48'
p4571
sS'Won'
p4572
S'26'
p4573
sS'Draw'
p4574
S'2'
sS'%'
S'45.00'
p4575
sS'Mat'
p4576
S'60'
p4577
sS'Conv'
p4578
S'0'
sS'Tries'
p4579
S'11'
p4580
sS'Pts'
p4581
S'55'
p4582
sa(dp4583
S'Pens'
p4584
S'0'
sS'Sub'
p4585
S'0'
sS'Lost'
p4586
S'0'
sS'Drop'
p4587
S'0'
sS'Start'
p4588
S'1'
sS'Won'
p4589
S'1'
sS'Draw'
p4590
S'0'
sS'%'
S'100.00'
p4591
sS'Mat'
p4592
S'1'
sS'Conv'
p4593
S'0'
sS'Tries'
p4594
S'0'
sS'Pts'
p4595
S'0'
sa(dp4596
S'Pens'
p4597
S'0'
sS'Sub'
p4598
S'2'
sS'Lost'
p4599
S'12'
p4600
sS'Drop'
p4601
S'0'
sS'Start'
p4602
S'18'
p4603
sS'Won'
p4604
S'8'
sS'Draw'
p4605
S'0'
sS'%'
S'40.00'
p4606
sS'Mat'
p4607
S'20'
p4608
sS'Conv'
p4609
S'0'
sS'Tries'
p4610
S'1'
sS'Pts'
p4611
S'5'
sa(dp4612
S'Pens'
p4613
S'0'
sS'Sub'
p4614
S'1'
sS'Lost'
p4615
S'0'
sS'Drop'
p4616
S'0'
sS'Start'
p4617
S'0'
sS'Won'
p4618
S'1'
sS'Draw'
p4619
S'0'
sS'%'
S'100.00'
p4620
sS'Mat'
p4621
S'1'
sS'Conv'
p4622
S'0'
sS'Tries'
p4623
S'0'
sS'Pts'
p4624
S'0'
sa(dp4625
S'Pens'
p4626
S'0'
sS'Sub'
p4627
S'3'
sS'Lost'
p4628
S'2'
sS'Drop'
p4629
S'0'
sS'Start'
p4630
S'2'
sS'Won'
p4631
S'3'
sS'Draw'
p4632
S'0'
sS'%'
S'60.00'
p4633
sS'Mat'
p4634
S'5'
sS'Conv'
p4635
S'0'
sS'Tries'
p4636
S'0'
sS'Pts'
p4637
S'0'
sa(dp4638
S'Pens'
p4639
S'0'
sS'Sub'
p4640
S'0'
sS'Lost'
p4641
S'2'
sS'Drop'
p4642
S'0'
sS'Start'
p4643
S'3'
sS'Won'
p4644
S'1'
sS'Draw'
p4645
S'0'
sS'%'
S'33.33'
p4646
sS'Mat'
p4647
S'3'
sS'Conv'
p4648
S'0'
sS'Tries'
p4649
S'2'
sS'Pts'
p4650
S'10'
p4651
sa(dp4652
S'Pens'
p4653
S'0'
sS'Sub'
p4654
S'5'
sS'Lost'
p4655
S'5'
sS'Drop'
p4656
S'0'
sS'Start'
p4657
S'4'
sS'Won'
p4658
S'4'
sS'Draw'
p4659
S'0'
sS'%'
S'44.44'
p4660
sS'Mat'
p4661
S'9'
sS'Conv'
p4662
S'0'
sS'Tries'
p4663
S'1'
sS'Pts'
p4664
S'5'
sa(dp4665
S'Pens'
p4666
S'0'
sS'Sub'
p4667
S'1'
sS'Lost'
p4668
S'0'
sS'Drop'
p4669
S'0'
sS'Start'
p4670
S'0'
sS'Won'
p4671
S'1'
sS'Draw'
p4672
S'0'
sS'%'
S'100.00'
p4673
sS'Mat'
p4674
S'1'
sS'Conv'
p4675
S'0'
sS'Tries'
p4676
S'0'
sS'Pts'
p4677
S'0'
sa(dp4678
S'Pens'
p4679
S'0'
sS'Sub'
p4680
S'1'
sS'Lost'
p4681
S'1'
sS'Drop'
p4682
S'0'
sS'Start'
p4683
S'0'
sS'Won'
p4684
S'0'
sS'Draw'
p4685
S'0'
sS'%'
S'0.00'
p4686
sS'Mat'
p4687
S'1'
sS'Conv'
p4688
S'0'
sS'Tries'
p4689
S'0'
sS'Pts'
p4690
S'0'
sa(dp4691
S'Pens'
p4692
S'0'
sS'Sub'
p4693
S'1'
sS'Lost'
p4694
S'2'
sS'Drop'
p4695
S'0'
sS'Start'
p4696
S'2'
sS'Won'
p4697
S'1'
sS'Draw'
p4698
S'0'
sS'%'
S'33.33'
p4699
sS'Mat'
p4700
S'3'
sS'Conv'
p4701
S'0'
sS'Tries'
p4702
S'0'
sS'Pts'
p4703
S'0'
sa(dp4704
S'Pens'
p4705
S'0'
sS'Sub'
p4706
S'1'
sS'Lost'
p4707
S'1'
sS'Drop'
p4708
S'0'
sS'Start'
p4709
S'0'
sS'Won'
p4710
S'0'
sS'Draw'
p4711
S'0'
sS'%'
S'0.00'
p4712
sS'Mat'
p4713
S'1'
sS'Conv'
p4714
S'0'
sS'Tries'
p4715
S'0'
sS'Pts'
p4716
S'0'
sa(dp4717
S'Pens'
p4718
S'0'
sS'Sub'
p4719
S'4'
sS'Lost'
p4720
S'4'
sS'Drop'
p4721
S'0'
sS'Start'
p4722
S'1'
sS'Won'
p4723
S'1'
sS'Draw'
p4724
S'0'
sS'%'
S'20.00'
p4725
sS'Mat'
p4726
S'5'
sS'Conv'
p4727
S'0'
sS'Tries'
p4728
S'0'
sS'Pts'
p4729
S'0'
sa(dp4730
S'Pens'
p4731
S'0'
sS'Sub'
p4732
S'2'
sS'Lost'
p4733
S'2'
sS'Drop'
p4734
S'0'
sS'Start'
p4735
S'0'
sS'Won'
p4736
S'0'
sS'Draw'
p4737
S'0'
sS'%'
S'0.00'
p4738
sS'Mat'
p4739
S'2'
sS'Conv'
p4740
S'0'
sS'Tries'
p4741
S'0'
sS'Pts'
p4742
S'0'
sa(dp4743
S'Pens'
p4744
S'0'
sS'Sub'
p4745
S'8'
sS'Lost'
p4746
S'15'
p4747
sS'Drop'
p4748
S'0'
sS'Start'
p4749
S'14'
p4750
sS'Won'
p4751
S'7'
sS'Draw'
p4752
S'0'
sS'%'
S'31.81'
p4753
sS'Mat'
p4754
S'22'
p4755
sS'Conv'
p4756
S'0'
sS'Tries'
p4757
S'5'
sS'Pts'
p4758
S'25'
p4759
sa(dp4760
S'Pens'
p4761
S'0'
sS'Sub'
p4762
S'1'
sS'Lost'
p4763
S'1'
sS'Drop'
p4764
S'0'
sS'Start'
p4765
S'0'
sS'Won'
p4766
S'0'
sS'Draw'
p4767
S'0'
sS'%'
S'0.00'
p4768
sS'Mat'
p4769
S'1'
sS'Conv'
p4770
S'0'
sS'Tries'
p4771
S'0'
sS'Pts'
p4772
S'0'
sa(dp4773
S'Pens'
p4774
S'0'
sS'Sub'
p4775
S'0'
sS'Lost'
p4776
S'0'
sS'Drop'
p4777
S'0'
sS'Start'
p4778
S'1'
sS'Won'
p4779
S'1'
sS'Draw'
p4780
S'0'
sS'%'
S'100.00'
p4781
sS'Mat'
p4782
S'1'
sS'Conv'
p4783
S'0'
sS'Tries'
p4784
S'0'
sS'Pts'
p4785
S'0'
sa(dp4786
S'Pens'
p4787
S'0'
sS'Sub'
p4788
S'21'
p4789
sS'Lost'
p4790
S'14'
p4791
sS'Drop'
p4792
S'0'
sS'Start'
p4793
S'5'
sS'Won'
p4794
S'11'
p4795
sS'Draw'
p4796
S'1'
sS'%'
S'44.23'
p4797
sS'Mat'
p4798
S'26'
p4799
sS'Conv'
p4800
S'0'
sS'Tries'
p4801
S'0'
sS'Pts'
p4802
S'0'
sa(dp4803
S'Pens'
p4804
S'0'
sS'Sub'
p4805
S'7'
sS'Lost'
p4806
S'19'
p4807
sS'Drop'
p4808
S'0'
sS'Start'
p4809
S'31'
p4810
sS'Won'
p4811
S'17'
p4812
sS'Draw'
p4813
S'2'
sS'%'
S'47.36'
p4814
sS'Mat'
p4815
S'38'
p4816
sS'Conv'
p4817
S'0'
sS'Tries'
p4818
S'4'
sS'Pts'
p4819
S'20'
p4820
sa(dp4821
S'Pens'
p4822
S'0'
sS'Sub'
p4823
S'1'
sS'Lost'
p4824
S'2'
sS'Drop'
p4825
S'0'
sS'Start'
p4826
S'1'
sS'Won'
p4827
S'0'
sS'Draw'
p4828
S'0'
sS'%'
S'0.00'
p4829
sS'Mat'
p4830
S'2'
sS'Conv'
p4831
S'0'
sS'Tries'
p4832
S'0'
sS'Pts'
p4833
S'0'
sa(dp4834
S'Pens'
p4835
S'0'
sS'Sub'
p4836
S'0'
sS'Lost'
p4837
S'1'
sS'Drop'
p4838
S'0'
sS'Start'
p4839
S'1'
sS'Won'
p4840
S'0'
sS'Draw'
p4841
S'0'
sS'%'
S'0.00'
p4842
sS'Mat'
p4843
S'1'
sS'Conv'
p4844
S'0'
sS'Tries'
p4845
S'0'
sS'Pts'
p4846
S'0'
sa(dp4847
S'Pens'
p4848
S'0'
sS'Sub'
p4849
S'0'
sS'Lost'
p4850
S'1'
sS'Drop'
p4851
S'0'
sS'Start'
p4852
S'1'
sS'Won'
p4853
S'0'
sS'Draw'
p4854
S'0'
sS'%'
S'0.00'
p4855
sS'Mat'
p4856
S'1'
sS'Conv'
p4857
S'0'
sS'Tries'
p4858
S'0'
sS'Pts'
p4859
S'0'
sa(dp4860
S'Pens'
p4861
S'0'
sS'Sub'
p4862
S'3'
sS'Lost'
p4863
S'13'
p4864
sS'Drop'
p4865
S'0'
sS'Start'
p4866
S'23'
p4867
sS'Won'
p4868
S'12'
p4869
sS'Draw'
p4870
S'1'
sS'%'
S'48.07'
p4871
sS'Mat'
p4872
S'26'
p4873
sS'Conv'
p4874
S'0'
sS'Tries'
p4875
S'7'
sS'Pts'
p4876
S'35'
p4877
sa(dp4878
S'Pens'
p4879
S'0'
sS'Sub'
p4880
S'0'
sS'Lost'
p4881
S'1'
sS'Drop'
p4882
S'0'
sS'Start'
p4883
S'2'
sS'Won'
p4884
S'1'
sS'Draw'
p4885
S'0'
sS'%'
S'50.00'
p4886
sS'Mat'
p4887
S'2'
sS'Conv'
p4888
S'0'
sS'Tries'
p4889
S'0'
sS'Pts'
p4890
S'0'
sa(dp4891
S'Pens'
p4892
S'0'
sS'Sub'
p4893
S'2'
sS'Lost'
p4894
S'5'
sS'Drop'
p4895
S'0'
sS'Start'
p4896
S'4'
sS'Won'
p4897
S'1'
sS'Draw'
p4898
S'0'
sS'%'
S'16.66'
p4899
sS'Mat'
p4900
S'6'
sS'Conv'
p4901
S'0'
sS'Tries'
p4902
S'0'
sS'Pts'
p4903
S'0'
sa(dp4904
S'Pens'
p4905
S'0'
sS'Sub'
p4906
S'1'
sS'Lost'
p4907
S'2'
sS'Drop'
p4908
S'0'
sS'Start'
p4909
S'1'
sS'Won'
p4910
S'0'
sS'Draw'
p4911
S'0'
sS'%'
S'0.00'
p4912
sS'Mat'
p4913
S'2'
sS'Conv'
p4914
S'0'
sS'Tries'
p4915
S'0'
sS'Pts'
p4916
S'0'
sa(dp4917
S'Pens'
p4918
S'0'
sS'Sub'
p4919
S'1'
sS'Lost'
p4920
S'1'
sS'Drop'
p4921
S'0'
sS'Start'
p4922
S'1'
sS'Won'
p4923
S'1'
sS'Draw'
p4924
S'0'
sS'%'
S'50.00'
p4925
sS'Mat'
p4926
S'2'
sS'Conv'
p4927
S'0'
sS'Tries'
p4928
S'0'
sS'Pts'
p4929
S'0'
sa(dp4930
S'Pens'
p4931
S'9'
sS'Sub'
p4932
S'3'
sS'Lost'
p4933
S'14'
p4934
sS'Drop'
p4935
S'3'
sS'Start'
p4936
S'27'
p4937
sS'Won'
p4938
S'15'
p4939
sS'Draw'
p4940
S'1'
sS'%'
S'51.66'
p4941
sS'Mat'
p4942
S'30'
p4943
sS'Conv'
p4944
S'7'
sS'Tries'
p4945
S'3'
sS'Pts'
p4946
S'65'
p4947
sa(dp4948
S'Pens'
p4949
S'0'
sS'Sub'
p4950
S'7'
sS'Lost'
p4951
S'14'
p4952
sS'Drop'
p4953
S'0'
sS'Start'
p4954
S'21'
p4955
sS'Won'
p4956
S'13'
p4957
sS'Draw'
p4958
S'1'
sS'%'
S'48.21'
p4959
sS'Mat'
p4960
S'28'
p4961
sS'Conv'
p4962
S'0'
sS'Tries'
p4963
S'0'
sS'Pts'
p4964
S'0'
sa(dp4965
S'Pens'
p4966
S'0'
sS'Sub'
p4967
S'1'
sS'Lost'
p4968
S'4'
sS'Drop'
p4969
S'0'
sS'Start'
p4970
S'6'
sS'Won'
p4971
S'2'
sS'Draw'
p4972
S'1'
sS'%'
S'35.71'
p4973
sS'Mat'
p4974
S'7'
sS'Conv'
p4975
S'0'
sS'Tries'
p4976
S'1'
sS'Pts'
p4977
S'5'
sa(dp4978
S'Pens'
p4979
S'0'
sS'Sub'
p4980
S'4'
sS'Lost'
p4981
S'16'
p4982
sS'Drop'
p4983
S'0'
sS'Start'
p4984
S'28'
p4985
sS'Won'
p4986
S'14'
p4987
sS'Draw'
p4988
S'2'
sS'%'
S'46.87'
p4989
sS'Mat'
p4990
S'32'
p4991
sS'Conv'
p4992
S'0'
sS'Tries'
p4993
S'14'
p4994
sS'Pts'
p4995
S'70'
p4996
sa(dp4997
S'Pens'
p4998
S'0'
sS'Sub'
p4999
S'6'
sS'Lost'
p5000
S'3'
sS'Drop'
p5001
S'0'
sS'Start'
p5002
S'1'
sS'Won'
p5003
S'4'
sS'Draw'
p5004
S'0'
sS'%'
S'57.14'
p5005
sS'Mat'
p5006
S'7'
sS'Conv'
p5007
S'0'
sS'Tries'
p5008
S'0'
sS'Pts'
p5009
S'0'
sa(dp5010
S'Pens'
p5011
S'0'
sS'Sub'
p5012
S'6'
sS'Lost'
p5013
S'5'
sS'Drop'
p5014
S'0'
sS'Start'
p5015
S'6'
sS'Won'
p5016
S'5'
sS'Draw'
p5017
S'2'
sS'%'
S'50.00'
p5018
sS'Mat'
p5019
S'12'
p5020
sS'Conv'
p5021
S'0'
sS'Tries'
p5022
S'0'
sS'Pts'
p5023
S'0'
sa(dp5024
S'Pens'
p5025
S'0'
sS'Sub'
p5026
S'17'
p5027
sS'Lost'
p5028
S'14'
p5029
sS'Drop'
p5030
S'0'
sS'Start'
p5031
S'14'
p5032
sS'Won'
p5033
S'17'
p5034
sS'Draw'
p5035
S'0'
sS'%'
S'54.83'
p5036
sS'Mat'
p5037
S'31'
p5038
sS'Conv'
p5039
S'0'
sS'Tries'
p5040
S'4'
sS'Pts'
p5041
S'20'
p5042
sa(dp5043
S'Pens'
p5044
S'0'
sS'Sub'
p5045
S'1'
sS'Lost'
p5046
S'1'
sS'Drop'
p5047
S'0'
sS'Start'
p5048
S'0'
sS'Won'
p5049
S'0'
sS'Draw'
p5050
S'0'
sS'%'
S'0.00'
p5051
sS'Mat'
p5052
S'1'
sS'Conv'
p5053
S'0'
sS'Tries'
p5054
S'0'
sS'Pts'
p5055
S'0'
sa(dp5056
S'Pens'
p5057
S'0'
sS'Sub'
p5058
S'0'
sS'Lost'
p5059
S'0'
sS'Drop'
p5060
S'0'
sS'Start'
p5061
S'1'
sS'Won'
p5062
S'1'
sS'Draw'
p5063
S'0'
sS'%'
S'100.00'
p5064
sS'Mat'
p5065
S'1'
sS'Conv'
p5066
S'0'
sS'Tries'
p5067
S'0'
sS'Pts'
p5068
S'0'
sa(dp5069
S'Pens'
p5070
S'0'
sS'Sub'
p5071
S'11'
p5072
sS'Lost'
p5073
S'19'
p5074
sS'Drop'
p5075
S'0'
sS'Start'
p5076
S'31'
p5077
sS'Won'
p5078
S'22'
p5079
sS'Draw'
p5080
S'1'
sS'%'
S'53.57'
p5081
sS'Mat'
p5082
S'42'
p5083
sS'Conv'
p5084
S'0'
sS'Tries'
p5085
S'0'
sS'Pts'
p5086
S'0'
sa(dp5087
S'Pens'
p5088
S'0'
sS'Sub'
p5089
S'3'
sS'Lost'
p5090
S'4'
sS'Drop'
p5091
S'0'
sS'Start'
p5092
S'5'
sS'Won'
p5093
S'4'
sS'Draw'
p5094
S'0'
sS'%'
S'50.00'
p5095
sS'Mat'
p5096
S'8'
sS'Conv'
p5097
S'0'
sS'Tries'
p5098
S'0'
sS'Pts'
p5099
S'0'
sa(dp5100
S'Pens'
p5101
S'0'
sS'Sub'
p5102
S'1'
sS'Lost'
p5103
S'0'
sS'Drop'
p5104
S'0'
sS'Start'
p5105
S'0'
sS'Won'
p5106
S'1'
sS'Draw'
p5107
S'0'
sS'%'
S'100.00'
p5108
sS'Mat'
p5109
S'1'
sS'Conv'
p5110
S'0'
sS'Tries'
p5111
S'0'
sS'Pts'
p5112
S'0'
sa(dp5113
S'Pens'
p5114
S'0'
sS'Sub'
p5115
S'0'
sS'Lost'
p5116
S'0'
sS'Drop'
p5117
S'0'
sS'Start'
p5118
S'1'
sS'Won'
p5119
S'1'
sS'Draw'
p5120
S'0'
sS'%'
S'100.00'
p5121
sS'Mat'
p5122
S'1'
sS'Conv'
p5123
S'0'
sS'Tries'
p5124
S'0'
sS'Pts'
p5125
S'0'
sa(dp5126
S'Pens'
p5127
S'0'
sS'Sub'
p5128
S'5'
sS'Lost'
p5129
S'8'
sS'Drop'
p5130
S'0'
sS'Start'
p5131
S'16'
p5132
sS'Won'
p5133
S'12'
p5134
sS'Draw'
p5135
S'1'
sS'%'
S'59.52'
p5136
sS'Mat'
p5137
S'21'
p5138
sS'Conv'
p5139
S'0'
sS'Tries'
p5140
S'4'
sS'Pts'
p5141
S'20'
p5142
sa(dp5143
S'Pens'
p5144
S'0'
sS'Sub'
p5145
S'10'
p5146
sS'Lost'
p5147
S'7'
sS'Drop'
p5148
S'0'
sS'Start'
p5149
S'4'
sS'Won'
p5150
S'7'
sS'Draw'
p5151
S'0'
sS'%'
S'50.00'
p5152
sS'Mat'
p5153
S'14'
p5154
sS'Conv'
p5155
S'3'
sS'Tries'
p5156
S'1'
sS'Pts'
p5157
S'11'
p5158
sa(dp5159
S'Pens'
p5160
S'0'
sS'Sub'
p5161
S'7'
sS'Lost'
p5162
S'18'
p5163
sS'Drop'
p5164
S'0'
sS'Start'
p5165
S'30'
p5166
sS'Won'
p5167
S'18'
p5168
sS'Draw'
p5169
S'1'
sS'%'
S'50.00'
p5170
sS'Mat'
p5171
S'37'
p5172
sS'Conv'
p5173
S'0'
sS'Tries'
p5174
S'2'
sS'Pts'
p5175
S'10'
p5176
sa(dp5177
S'Pens'
p5178
S'1'
sS'Sub'
p5179
S'5'
sS'Lost'
p5180
S'20'
p5181
sS'Drop'
p5182
S'0'
sS'Start'
p5183
S'34'
p5184
sS'Won'
p5185
S'19'
p5186
sS'Draw'
p5187
S'0'
sS'%'
S'48.71'
p5188
sS'Mat'
p5189
S'39'
p5190
sS'Conv'
p5191
S'1'
sS'Tries'
p5192
S'6'
sS'Pts'
p5193
S'35'
p5194
sa(dp5195
S'Pens'
p5196
S'0'
sS'Sub'
p5197
S'5'
sS'Lost'
p5198
S'11'
p5199
sS'Drop'
p5200
S'0'
sS'Start'
p5201
S'19'
p5202
sS'Won'
p5203
S'12'
p5204
sS'Draw'
p5205
S'1'
sS'%'
S'52.08'
p5206
sS'Mat'
p5207
S'24'
p5208
sS'Conv'
p5209
S'0'
sS'Tries'
p5210
S'7'
sS'Pts'
p5211
S'35'
p5212
sa(dp5213
S'Pens'
p5214
S'0'
sS'Sub'
p5215
S'4'
sS'Lost'
p5216
S'4'
sS'Drop'
p5217
S'0'
sS'Start'
p5218
S'0'
sS'Won'
p5219
S'0'
sS'Draw'
p5220
S'0'
sS'%'
S'0.00'
p5221
sS'Mat'
p5222
S'4'
sS'Conv'
p5223
S'0'
sS'Tries'
p5224
S'0'
sS'Pts'
p5225
S'0'
sa(dp5226
S'Pens'
p5227
S'0'
sS'Sub'
p5228
S'1'
sS'Lost'
p5229
S'4'
sS'Drop'
p5230
S'0'
sS'Start'
p5231
S'10'
p5232
sS'Won'
p5233
S'7'
sS'Draw'
p5234
S'0'
sS'%'
S'63.63'
p5235
sS'Mat'
p5236
S'11'
p5237
sS'Conv'
p5238
S'0'
sS'Tries'
p5239
S'4'
sS'Pts'
p5240
S'20'
p5241
sa(dp5242
S'Pens'
p5243
S'0'
sS'Sub'
p5244
S'6'
sS'Lost'
p5245
S'13'
p5246
sS'Drop'
p5247
S'0'
sS'Start'
p5248
S'24'
p5249
sS'Won'
p5250
S'16'
p5251
sS'Draw'
p5252
S'1'
sS'%'
S'55.00'
p5253
sS'Mat'
p5254
S'30'
p5255
sS'Conv'
p5256
S'0'
sS'Tries'
p5257
S'3'
sS'Pts'
p5258
S'15'
p5259
sa(dp5260
S'Pens'
p5261
S'0'
sS'Sub'
p5262
S'3'
sS'Lost'
p5263
S'8'
sS'Drop'
p5264
S'0'
sS'Start'
p5265
S'18'
p5266
sS'Won'
p5267
S'12'
p5268
sS'Draw'
p5269
S'1'
sS'%'
S'59.52'
p5270
sS'Mat'
p5271
S'21'
p5272
sS'Conv'
p5273
S'0'
sS'Tries'
p5274
S'3'
sS'Pts'
p5275
S'15'
p5276
sa(dp5277
S'Pens'
p5278
S'0'
sS'Sub'
p5279
S'11'
p5280
sS'Lost'
p5281
S'11'
p5282
sS'Drop'
p5283
S'0'
sS'Start'
p5284
S'10'
p5285
sS'Won'
p5286
S'10'
p5287
sS'Draw'
p5288
S'0'
sS'%'
S'47.61'
p5289
sS'Mat'
p5290
S'21'
p5291
sS'Conv'
p5292
S'0'
sS'Tries'
p5293
S'1'
sS'Pts'
p5294
S'5'
sa(dp5295
S'Pens'
p5296
S'0'
sS'Sub'
p5297
S'10'
p5298
sS'Lost'
p5299
S'6'
sS'Drop'
p5300
S'0'
sS'Start'
p5301
S'4'
sS'Won'
p5302
S'8'
sS'Draw'
p5303
S'0'
sS'%'
S'57.14'
p5304
sS'Mat'
p5305
S'14'
p5306
sS'Conv'
p5307
S'0'
sS'Tries'
p5308
S'0'
sS'Pts'
p5309
S'0'
sa(dp5310
S'Pens'
p5311
S'0'
sS'Sub'
p5312
S'16'
p5313
sS'Lost'
p5314
S'15'
p5315
sS'Drop'
p5316
S'0'
sS'Start'
p5317
S'14'
p5318
sS'Won'
p5319
S'15'
p5320
sS'Draw'
p5321
S'0'
sS'%'
S'50.00'
p5322
sS'Mat'
p5323
S'30'
p5324
sS'Conv'
p5325
S'0'
sS'Tries'
p5326
S'0'
sS'Pts'
p5327
S'0'
sa(dp5328
S'Pens'
p5329
S'0'
sS'Sub'
p5330
S'4'
sS'Lost'
p5331
S'6'
sS'Drop'
p5332
S'0'
sS'Start'
p5333
S'11'
p5334
sS'Won'
p5335
S'9'
sS'Draw'
p5336
S'0'
sS'%'
S'60.00'
p5337
sS'Mat'
p5338
S'15'
p5339
sS'Conv'
p5340
S'0'
sS'Tries'
p5341
S'3'
sS'Pts'
p5342
S'15'
p5343
sa(dp5344
S'Pens'
p5345
S'0'
sS'Sub'
p5346
S'7'
sS'Lost'
p5347
S'10'
p5348
sS'Drop'
p5349
S'0'
sS'Start'
p5350
S'13'
p5351
sS'Won'
p5352
S'10'
p5353
sS'Draw'
p5354
S'0'
sS'%'
S'50.00'
p5355
sS'Mat'
p5356
S'20'
p5357
sS'Conv'
p5358
S'0'
sS'Tries'
p5359
S'2'
sS'Pts'
p5360
S'10'
p5361
sa(dp5362
S'Pens'
p5363
S'0'
sS'Sub'
p5364
S'13'
p5365
sS'Lost'
p5366
S'11'
p5367
sS'Drop'
p5368
S'0'
sS'Start'
p5369
S'14'
p5370
sS'Won'
p5371
S'15'
p5372
sS'Draw'
p5373
S'1'
sS'%'
S'57.40'
p5374
sS'Mat'
p5375
S'27'
p5376
sS'Conv'
p5377
S'0'
sS'Tries'
p5378
S'2'
sS'Pts'
p5379
S'10'
p5380
sa(dp5381
S'Pens'
p5382
S'0'
sS'Sub'
p5383
S'9'
sS'Lost'
p5384
S'3'
sS'Drop'
p5385
S'0'
sS'Start'
p5386
S'4'
sS'Won'
p5387
S'10'
p5388
sS'Draw'
p5389
S'0'
sS'%'
S'76.92'
p5390
sS'Mat'
p5391
S'13'
p5392
sS'Conv'
p5393
S'0'
sS'Tries'
p5394
S'1'
sS'Pts'
p5395
S'5'
sa(dp5396
S'Pens'
p5397
S'0'
sS'Sub'
p5398
S'3'
sS'Lost'
p5399
S'0'
sS'Drop'
p5400
S'0'
sS'Start'
p5401
S'2'
sS'Won'
p5402
S'5'
sS'Draw'
p5403
S'0'
sS'%'
S'100.00'
p5404
sS'Mat'
p5405
S'5'
sS'Conv'
p5406
S'0'
sS'Tries'
p5407
S'0'
sS'Pts'
p5408
S'0'
sa(dp5409
S'Pens'
p5410
S'0'
sS'Sub'
p5411
S'1'
sS'Lost'
p5412
S'0'
sS'Drop'
p5413
S'0'
sS'Start'
p5414
S'0'
sS'Won'
p5415
S'1'
sS'Draw'
p5416
S'0'
sS'%'
S'100.00'
p5417
sS'Mat'
p5418
S'1'
sS'Conv'
p5419
S'0'
sS'Tries'
p5420
S'0'
sS'Pts'
p5421
S'0'
sa(dp5422
S'Pens'
p5423
S'0'
sS'Sub'
p5424
S'1'
sS'Lost'
p5425
S'1'
sS'Drop'
p5426
S'0'
sS'Start'
p5427
S'5'
sS'Won'
p5428
S'5'
sS'Draw'
p5429
S'0'
sS'%'
S'83.33'
p5430
sS'Mat'
p5431
S'6'
sS'Conv'
p5432
S'0'
sS'Tries'
p5433
S'0'
sS'Pts'
p5434
S'0'
sa(dp5435
S'Pens'
p5436
S'0'
sS'Sub'
p5437
S'11'
p5438
sS'Lost'
p5439
S'5'
sS'Drop'
p5440
S'0'
sS'Start'
p5441
S'6'
sS'Won'
p5442
S'11'
p5443
sS'Draw'
p5444
S'1'
sS'%'
S'67.64'
p5445
sS'Mat'
p5446
S'17'
p5447
sS'Conv'
p5448
S'0'
sS'Tries'
p5449
S'0'
sS'Pts'
p5450
S'0'
sa(dp5451
S'Pens'
p5452
S'0'
sS'Sub'
p5453
S'1'
sS'Lost'
p5454
S'0'
sS'Drop'
p5455
S'0'
sS'Start'
p5456
S'1'
sS'Won'
p5457
S'1'
sS'Draw'
p5458
S'1'
sS'%'
S'75.00'
p5459
sS'Mat'
p5460
S'2'
sS'Conv'
p5461
S'0'
sS'Tries'
p5462
S'0'
sS'Pts'
p5463
S'0'
sa(dp5464
S'Pens'
p5465
S'0'
sS'Sub'
p5466
S'1'
sS'Lost'
p5467
S'5'
sS'Drop'
p5468
S'0'
sS'Start'
p5469
S'11'
p5470
sS'Won'
p5471
S'7'
sS'Draw'
p5472
S'0'
sS'%'
S'58.33'
p5473
sS'Mat'
p5474
S'12'
p5475
sS'Conv'
p5476
S'0'
sS'Tries'
p5477
S'5'
sS'Pts'
p5478
S'25'
p5479
sa(dp5480
S'Pens'
p5481
S'4'
sS'Sub'
p5482
S'5'
sS'Lost'
p5483
S'8'
sS'Drop'
p5484
S'0'
sS'Start'
p5485
S'9'
sS'Won'
p5486
S'6'
sS'Draw'
p5487
S'0'
sS'%'
S'42.85'
p5488
sS'Mat'
p5489
S'14'
p5490
sS'Conv'
p5491
S'2'
sS'Tries'
p5492
S'2'
sS'Pts'
p5493
S'26'
p5494
sa(dp5495
S'Pens'
p5496
S'0'
sS'Sub'
p5497
S'2'
sS'Lost'
p5498
S'0'
sS'Drop'
p5499
S'0'
sS'Start'
p5500
S'0'
sS'Won'
p5501
S'2'
sS'Draw'
p5502
S'0'
sS'%'
S'100.00'
p5503
sS'Mat'
p5504
S'2'
sS'Conv'
p5505
S'0'
sS'Tries'
p5506
S'0'
sS'Pts'
p5507
S'0'
sa(dp5508
S'Pens'
p5509
S'0'
sS'Sub'
p5510
S'5'
sS'Lost'
p5511
S'1'
sS'Drop'
p5512
S'0'
sS'Start'
p5513
S'0'
sS'Won'
p5514
S'4'
sS'Draw'
p5515
S'0'
sS'%'
S'80.00'
p5516
sS'Mat'
p5517
S'5'
sS'Conv'
p5518
S'0'
sS'Tries'
p5519
S'0'
sS'Pts'
p5520
S'0'
sa(dp5521
S'Pens'
p5522
S'0'
sS'Sub'
p5523
S'12'
p5524
sS'Lost'
p5525
S'10'
p5526
sS'Drop'
p5527
S'0'
sS'Start'
p5528
S'7'
sS'Won'
p5529
S'9'
sS'Draw'
p5530
S'0'
sS'%'
S'47.36'
p5531
sS'Mat'
p5532
S'19'
p5533
sS'Conv'
p5534
S'0'
sS'Tries'
p5535
S'0'
sS'Pts'
p5536
S'0'
sa(dp5537
S'Pens'
p5538
S'0'
sS'Sub'
p5539
S'4'
sS'Lost'
p5540
S'7'
sS'Drop'
p5541
S'0'
sS'Start'
p5542
S'9'
sS'Won'
p5543
S'5'
sS'Draw'
p5544
S'1'
sS'%'
S'42.30'
p5545
sS'Mat'
p5546
S'13'
p5547
sS'Conv'
p5548
S'0'
sS'Tries'
p5549
S'5'
sS'Pts'
p5550
S'25'
p5551
sa(dp5552
S'Pens'
p5553
S'0'
sS'Sub'
p5554
S'4'
sS'Lost'
p5555
S'5'
sS'Drop'
p5556
S'0'
sS'Start'
p5557
S'7'
sS'Won'
p5558
S'6'
sS'Draw'
p5559
S'0'
sS'%'
S'54.54'
p5560
sS'Mat'
p5561
S'11'
p5562
sS'Conv'
p5563
S'0'
sS'Tries'
p5564
S'0'
sS'Pts'
p5565
S'0'
sa(dp5566
S'Pens'
p5567
S'0'
sS'Sub'
p5568
S'2'
sS'Lost'
p5569
S'10'
p5570
sS'Drop'
p5571
S'0'
sS'Start'
p5572
S'15'
p5573
sS'Won'
p5574
S'7'
sS'Draw'
p5575
S'0'
sS'%'
S'41.17'
p5576
sS'Mat'
p5577
S'17'
p5578
sS'Conv'
p5579
S'0'
sS'Tries'
p5580
S'2'
sS'Pts'
p5581
S'10'
p5582
sa(dp5583
S'Pens'
p5584
S'0'
sS'Sub'
p5585
S'3'
sS'Lost'
p5586
S'8'
sS'Drop'
p5587
S'0'
sS'Start'
p5588
S'8'
sS'Won'
p5589
S'3'
sS'Draw'
p5590
S'0'
sS'%'
S'27.27'
p5591
sS'Mat'
p5592
S'11'
p5593
sS'Conv'
p5594
S'0'
sS'Tries'
p5595
S'3'
sS'Pts'
p5596
S'15'
p5597
sa(dp5598
S'Pens'
p5599
S'0'
sS'Sub'
p5600
S'8'
sS'Lost'
p5601
S'9'
sS'Drop'
p5602
S'0'
sS'Start'
p5603
S'9'
sS'Won'
p5604
S'8'
sS'Draw'
p5605
S'0'
sS'%'
S'47.05'
p5606
sS'Mat'
p5607
S'17'
p5608
sS'Conv'
p5609
S'0'
sS'Tries'
p5610
S'1'
sS'Pts'
p5611
S'5'
sa(dp5612
S'Pens'
p5613
S'0'
sS'Sub'
p5614
S'1'
sS'Lost'
p5615
S'1'
sS'Drop'
p5616
S'0'
sS'Start'
p5617
S'1'
sS'Won'
p5618
S'1'
sS'Draw'
p5619
S'0'
sS'%'
S'50.00'
p5620
sS'Mat'
p5621
S'2'
sS'Conv'
p5622
S'0'
sS'Tries'
p5623
S'0'
sS'Pts'
p5624
S'0'
sa(dp5625
S'Pens'
p5626
S'3'
sS'Sub'
p5627
S'0'
sS'Lost'
p5628
S'6'
sS'Drop'
p5629
S'0'
sS'Start'
p5630
S'12'
p5631
sS'Won'
p5632
S'6'
sS'Draw'
p5633
S'0'
sS'%'
S'50.00'
p5634
sS'Mat'
p5635
S'12'
p5636
sS'Conv'
p5637
S'2'
sS'Tries'
p5638
S'5'
sS'Pts'
p5639
S'38'
p5640
sa(dp5641
S'Pens'
p5642
S'0'
sS'Sub'
p5643
S'5'
sS'Lost'
p5644
S'4'
sS'Drop'
p5645
S'0'
sS'Start'
p5646
S'2'
sS'Won'
p5647
S'3'
sS'Draw'
p5648
S'0'
sS'%'
S'42.85'
p5649
sS'Mat'
p5650
S'7'
sS'Conv'
p5651
S'0'
sS'Tries'
p5652
S'0'
sS'Pts'
p5653
S'0'
sa(dp5654
S'Pens'
p5655
S'3'
sS'Sub'
p5656
S'3'
sS'Lost'
p5657
S'3'
sS'Drop'
p5658
S'0'
sS'Start'
p5659
S'3'
sS'Won'
p5660
S'3'
sS'Draw'
p5661
S'0'
sS'%'
S'50.00'
p5662
sS'Mat'
p5663
S'6'
sS'Conv'
p5664
S'0'
sS'Tries'
p5665
S'0'
sS'Pts'
p5666
S'9'
sa(dp5667
S'Pens'
p5668
S'0'
sS'Sub'
p5669
S'1'
sS'Lost'
p5670
S'1'
sS'Drop'
p5671
S'0'
sS'Start'
p5672
S'0'
sS'Won'
p5673
S'0'
sS'Draw'
p5674
S'0'
sS'%'
S'0.00'
p5675
sS'Mat'
p5676
S'1'
sS'Conv'
p5677
S'0'
sS'Tries'
p5678
S'0'
sS'Pts'
p5679
S'0'
sa(dp5680
S'Pens'
p5681
S'0'
sS'Sub'
p5682
S'1'
sS'Lost'
p5683
S'1'
sS'Drop'
p5684
S'0'
sS'Start'
p5685
S'0'
sS'Won'
p5686
S'0'
sS'Draw'
p5687
S'0'
sS'%'
S'0.00'
p5688
sS'Mat'
p5689
S'1'
sS'Conv'
p5690
S'0'
sS'Tries'
p5691
S'0'
sS'Pts'
p5692
S'0'
sa(dp5693
S'Pens'
p5694
S'0'
sS'Sub'
p5695
S'1'
sS'Lost'
p5696
S'1'
sS'Drop'
p5697
S'0'
sS'Start'
p5698
S'0'
sS'Won'
p5699
S'0'
sS'Draw'
p5700
S'0'
sS'%'
S'0.00'
p5701
sS'Mat'
p5702
S'1'
sS'Conv'
p5703
S'0'
sS'Tries'
p5704
S'0'
sS'Pts'
p5705
S'0'
sa(dp5706
S'Pens'
p5707
S'0'
sS'Sub'
p5708
S'5'
sS'Lost'
p5709
S'5'
sS'Drop'
p5710
S'0'
sS'Start'
p5711
S'1'
sS'Won'
p5712
S'1'
sS'Draw'
p5713
S'0'
sS'%'
S'16.66'
p5714
sS'Mat'
p5715
S'6'
sS'Conv'
p5716
S'0'
sS'Tries'
p5717
S'0'
sS'Pts'
p5718
S'0'
sa(dp5719
S'Pens'
p5720
S'0'
sS'Sub'
p5721
S'3'
sS'Lost'
p5722
S'3'
sS'Drop'
p5723
S'0'
sS'Start'
p5724
S'1'
sS'Won'
p5725
S'1'
sS'Draw'
p5726
S'0'
sS'%'
S'25.00'
p5727
sS'Mat'
p5728
S'4'
sS'Conv'
p5729
S'0'
sS'Tries'
p5730
S'0'
sS'Pts'
p5731
S'0'
sa(dp5732
S'Pens'
p5733
S'0'
sS'Sub'
p5734
S'3'
sS'Lost'
p5735
S'3'
sS'Drop'
p5736
S'0'
sS'Start'
p5737
S'2'
sS'Won'
p5738
S'2'
sS'Draw'
p5739
S'0'
sS'%'
S'40.00'
p5740
sS'Mat'
p5741
S'5'
sS'Conv'
p5742
S'0'
sS'Tries'
p5743
S'0'
sS'Pts'
p5744
S'0'
sa(dp5745
S'Pens'
p5746
S'0'
sS'Sub'
p5747
S'1'
sS'Lost'
p5748
S'0'
sS'Drop'
p5749
S'0'
sS'Start'
p5750
S'0'
sS'Won'
p5751
S'1'
sS'Draw'
p5752
S'0'
sS'%'
S'100.00'
p5753
sS'Mat'
p5754
S'1'
sS'Conv'
p5755
S'0'
sS'Tries'
p5756
S'0'
sS'Pts'
p5757
S'0'
sa(dp5758
S'Pens'
p5759
S'7'
sS'Sub'
p5760
S'2'
sS'Lost'
p5761
S'5'
sS'Drop'
p5762
S'0'
sS'Start'
p5763
S'4'
sS'Won'
p5764
S'1'
sS'Draw'
p5765
S'0'
sS'%'
S'16.66'
p5766
sS'Mat'
p5767
S'6'
sS'Conv'
p5768
S'0'
sS'Tries'
p5769
S'0'
sS'Pts'
p5770
S'21'
p5771
sa(dp5772
S'Pens'
p5773
S'0'
sS'Sub'
p5774
S'2'
sS'Lost'
p5775
S'2'
sS'Drop'
p5776
S'0'
sS'Start'
p5777
S'1'
sS'Won'
p5778
S'1'
sS'Draw'
p5779
S'0'
sS'%'
S'33.33'
p5780
sS'Mat'
p5781
S'3'
sS'Conv'
p5782
S'0'
sS'Tries'
p5783
S'0'
sS'Pts'
p5784
S'0'
sa(dp5785
S'Pens'
p5786
S'0'
sS'Sub'
p5787
S'2'
sS'Lost'
p5788
S'2'
sS'Drop'
p5789
S'0'
sS'Start'
p5790
S'0'
sS'Won'
p5791
S'0'
sS'Draw'
p5792
S'0'
sS'%'
S'0.00'
p5793
sS'Mat'
p5794
S'2'
sS'Conv'
p5795
S'0'
sS'Tries'
p5796
S'0'
sS'Pts'
p5797
S'0'
sa.