(lp1
VProp
p2
aVProp
p3
aVNo. 8
p4
aVLock
p5
aVLock
p6
aVWing
p7
aVScrum-half
p8
aVFlanker
p9
aVFullback
p10
aVLock
p11
aVCentre
p12
aVCentre
p13
aVProp
p14
aVFly-half
p15
aVWing
p16
aVNo. 8
p17
aVFlanker
p18
aVScrum-half
p19
aVHooker
p20
aVCentre
p21
aVFlanker
p22
aVWing
p23
aVFlanker
p24
aVFlanker
p25
aVHooker
p26
aVScrum-half
p27
aVFullback
p28
aVWing
p29
aVFly-half
p30
aVProp
p31
aVFlanker
p32
aVHooker
p33
aVNo. 8
p34
aVProp
p35
aVFly-half
p36
aVLock
p37
aVFlanker
p38
aVHooker
p39
aVLock
p40
aVFullback
p41
aVProp
p42
aVWing
p43
aVCentre
p44
aVCentre
p45
aVScrum-half
p46
aVFlanker
p47
aVHooker
p48
aVCentre
p49
aVLock
p50
aVFullback
p51
aVBack-row
p52
aVFullback
p53
aVLock
p54
aVWing
p55
aVFly-half
p56
aVProp
p57
aVHooker
p58
aVLock
p59
aVScrum-half
p60
aVCentre
p61
aVProp
p62
aVWing
p63
aVFlanker
p64
aVFly-half
p65
aVProp
p66
aVScrum-half
p67
aVFlanker
p68
aVFlanker
p69
aVFullback
p70
aVCentre
p71
aVCentre
p72
aVForward
p73
aVProp
p74
aVLock
p75
aVFullback
p76
aVFlanker
p77
aVHooker
p78
aVFlanker
p79
aVLock
p80
aVFly-half
p81
aVProp
p82
aVFlanker
p83
aVWing
p84
aVWing
p85
aVScrum-half
p86
aV
aVLock
p87
aVFlanker
p88
aVFly-half
p89
aVWing
p90
aVWing
p91
aVLock
p92
aVFly-half, Centre
p93
aVHooker
p94
aVLock
p95
aVCentre
p96
aVFlanker
p97
aVCentre
p98
aVForward
p99
aVProp
p100
aVFlanker
p101
aVFly-half
p102
aVNo. 8
p103
aVCentre
p104
aVWing
p105
aVFullback
p106
aVFlanker
p107
aVProp
p108
aVWing
p109
aVFly-half
p110
aVLock
p111
aVLock
p112
aVFlanker
p113
aVLock
p114
aVProp
p115
aVWing
p116
aVLock
p117
aVFlanker
p118
aVWing
p119
aVNo. 8
p120
aVLock
p121
aVScrum-half
p122
aVProp
p123
aVWing
p124
aVFlanker
p125
aVCentre
p126
aVFullback
p127
aVHooker
p128
aVWing
p129
aVFly-half
p130
aVNo. 8
p131
aVLock
p132
aVCentre
p133
aVProp
p134
aVFlanker
p135
aVFullback
p136
aVHooker
p137
aVFlanker
p138
aVCentre
p139
aVWing
p140
aVFlanker
p141
aVNo. 8
p142
aVProp
p143
aVProp
p144
aVFullback
p145
aVWing
p146
aVProp
p147
aVHooker
p148
aVCentre
p149
aVProp
p150
aVNo. 8
p151
aVFlanker
p152
aVLock
p153
aVFly-half
p154
aVHooker
p155
aVWing
p156
aVFlanker
p157
aVWing
p158
aVCentre
p159
aVNo. 8
p160
aVLock
p161
aVLock
p162
aVFly-half
p163
aVScrum-half
p164
aVWing
p165
aVWing
p166
aVHooker
p167
aVLock
p168
aVWing
p169
aVFullback
p170
aVFly-half
p171
aVProp
p172
aVFlanker
p173
aVFlanker
p174
aVCentre
p175
aVWing
p176
aVHooker
p177
aVFly-half
p178
aVProp
p179
aVCentre
p180
aVLock
p181
aV
aVLock
p182
aVWing
p183
aVFlanker
p184
aVNo. 8
p185
aVWing
p186
aV
aVProp
p187
aVFly-half
p188
aVWing
p189
aVNo. 8
p190
aVWing
p191
aVWing
p192
aVCentre
p193
aVFlanker
p194
aVNo. 8
p195
aVWing
p196
aVLock
p197
aVCentre
p198
aVFlanker
p199
aVFullback
p200
aVScrum-half
p201
aVNo. 8
p202
aVProp
p203
aVWing
p204
aVCentre
p205
aVNo. 8
p206
aVProp
p207
aVFly-half
p208
aVFullback
p209
aVCentre
p210
aVCentre
p211
aVWing
p212
aVFlanker
p213
aVCentre
p214
aVCentre
p215
aVFlanker
p216
aVLock
p217
aVScrum-half
p218
aVHooker
p219
aVFlanker
p220
aV
aVNo. 8
p221
aVProp
p222
aVProp
p223
aVLock
p224
aVLock
p225
aVCentre
p226
aVCentre
p227
aVProp
p228
aVLock
p229
aVLock
p230
aVProp
p231
aVScrum-half
p232
aVFullback
p233
aVWing
p234
aVLock
p235
aV
aVWing
p236
aVFlanker
p237
aVScrum-half
p238
aVProp
p239
aVFlanker
p240
aVCentre
p241
aVProp
p242
aVLock
p243
aVLock
p244
aVHooker
p245
aVFlanker
p246
aVWing
p247
aVFullback
p248
aVWing
p249
aVWing
p250
aVFlanker
p251
aVHooker
p252
aVLock
p253
aVCentre
p254
aVCentre
p255
aVWing
p256
aVHooker
p257
aVWing
p258
aVLock
p259
aVFlanker
p260
aVProp
p261
aV
aVWing
p262
aVCentre
p263
aVScrum-half
p264
aVFlanker
p265
aVFlanker
p266
aVCentre
p267
aVNo. 8
p268
aVFullback
p269
aVWing
p270
aVProp
p271
aVCentre
p272
aVLock
p273
aVProp
p274
aVNo. 8
p275
aVWing
p276
aVFly-half
p277
aVWing
p278
aVNo. 8
p279
aVWing
p280
aVLock
p281
aVNo. 8
p282
aVProp
p283
aVCentre
p284
aVProp
p285
aVFly-half
p286
aVProp
p287
aVScrum-half
p288
aVLock
p289
aVNo. 8
p290
aVCentre
p291
aVProp
p292
aVCentre
p293
aVFullback
p294
aVFly-half
p295
aVFullback
p296
aVWing
p297
aVNo. 8
p298
aVLock
p299
aVScrum-half
p300
aVProp
p301
aVFlanker
p302
aVFly-half
p303
aVCentre
p304
aVWing
p305
aVHooker
p306
aVWing
p307
aVWing
p308
aVNo. 8
p309
aVFlanker
p310
aVScrum-half
p311
aVCentre
p312
aVProp
p313
aVFlanker
p314
aVLock
p315
aVScrum-half
p316
aVFullback
p317
aVCentre
p318
aVNo. 8
p319
aVFly-half
p320
aVHooker
p321
aVWing
p322
aVLock
p323
aVCentre
p324
aVFlanker
p325
aVWing
p326
aVFlanker
p327
aVProp
p328
aVFullback
p329
aVScrum-half
p330
aVProp
p331
aVFlanker
p332
aVProp
p333
aVCentre
p334
aVFly-half
p335
aVHooker
p336
aVLock
p337
aVWing
p338
aVScrum-half
p339
aVLock
p340
aVHooker
p341
aVFlanker
p342
aVCentre
p343
aVCentre
p344
aVFly-half
p345
aVLock
p346
aVProp
p347
aVFullback
p348
aVProp
p349
aVWing
p350
aVProp
p351
aVCentre
p352
aVFly-half
p353
aVFullback
p354
aVHooker
p355
aVFlanker
p356
aVNo. 8
p357
aVWing
p358
aVFlanker
p359
aVWing
p360
aVCentre
p361
aVWing
p362
aVWing
p363
aVLock
p364
aVProp
p365
aVFullback
p366
aVProp
p367
aVWing
p368
aVProp
p369
aVFlanker
p370
aVWing
p371
aVFullback
p372
aVLock
p373
aVCentre
p374
aVLock
p375
aVFullback
p376
aVWing
p377
aVFly-half
p378
aVFlanker
p379
aVProp
p380
aVFly-half
p381
aVCentre
p382
aVScrum-half
p383
aVProp
p384
aVProp
p385
aVNo. 8
p386
aVWing
p387
aVProp
p388
aVFullback
p389
aVFullback
p390
aVScrum-half
p391
aVNo. 8
p392
aVNo. 8
p393
aVCentre
p394
aVFullback
p395
aVHooker
p396
aVFly-half
p397
aVProp
p398
aVFlanker
p399
aVHooker
p400
aVFlanker
p401
aVWing
p402
aVProp
p403
aVHooker
p404
aVFlanker
p405
aVFly-half
p406
aVWing
p407
aVProp
p408
aVHooker
p409
aVFly-half
p410
aVCentre
p411
aVWing
p412
aVFullback
p413
aVWing
p414
aVProp
p415
aVFlanker
p416
aVWing
p417
aVCentre
p418
aVFlanker
p419
aVLock
p420
aVWing
p421
aVNo. 8
p422
aVLock
p423
aVScrum-half
p424
aVFullback
p425
aVFly-half
p426
aVNo. 8
p427
aVProp
p428
aVFlanker
p429
aVWing
p430
aVFly-half
p431
aVFlanker
p432
aVWing
p433
aVScrum-half
p434
aVHooker
p435
aVFly-half
p436
aVLock
p437
aVCentre
p438
aVProp
p439
aVProp
p440
aVProp
p441
aVCentre
p442
aVFlanker
p443
aVProp
p444
aVCentre
p445
aVCentre
p446
aVCentre
p447
aVHooker
p448
aVNo. 8
p449
aVScrum-half
p450
aVWing
p451
aVFly-half
p452
aVFlanker
p453
aVCentre
p454
aVLock
p455
aVWing
p456
aVNo. 8
p457
aVFlanker
p458
aVFly-half
p459
aVLock
p460
aVLock
p461
aVWing
p462
aVWing
p463
aVWing
p464
aVWing
p465
aVProp
p466
aVLock
p467
aVCentre
p468
aVFly-half
p469
aVWing
p470
aVFlanker
p471
aVWing
p472
aVProp
p473
aVFly-half
p474
aVScrum-half
p475
aVWing
p476
aVLock
p477
aVCentre
p478
aVProp
p479
aVFlanker
p480
aVCentre
p481
aVFullback
p482
aVWing
p483
aVFullback
p484
aVFlanker
p485
aVCentre
p486
aVCentre
p487
aVNo. 8
p488
aVWing
p489
aVNo. 8
p490
aVWing
p491
aVWing
p492
aVCentre
p493
aVCentre
p494
aVFlanker
p495
aVLock
p496
aVFly-half
p497
aVProp
p498
aVWing
p499
aVFlanker
p500
aVLock
p501
aVWing
p502
aVFullback
p503
aVWing
p504
aVFlanker
p505
aVCentre
p506
aVFly-half
p507
aVWing
p508
aVFullback
p509
aVLock
p510
aVProp
p511
aVNo. 8
p512
aVScrum-half
p513
aVCentre
p514
aVLock
p515
aVCentre
p516
aVWing
p517
aVProp
p518
aVProp
p519
aVHooker
p520
aVCentre
p521
aVLock
p522
aVLock
p523
aVFly-half
p524
aVHooker
p525
aVFlanker
p526
aVCentre
p527
aVFlanker
p528
aVProp
p529
aVNo. 8
p530
aVFly-half
p531
aVLock
p532
aVFlanker
p533
aVWing
p534
aVLock
p535
aVWing
p536
aVScrum-half
p537
aVProp
p538
aVHooker
p539
aVProp
p540
aVFly-half
p541
aVCentre
p542
aVCentre
p543
aVNo. 8
p544
aVCentre
p545
aVScrum-half
p546
aVProp
p547
aVHooker
p548
aVNo. 8
p549
aVLock
p550
aVScrum-half
p551
aVFly-half
p552
aVLock
p553
aVProp
p554
aVNo. 8
p555
aVCentre
p556
aVWing
p557
aVHooker
p558
aVScrum-half
p559
aVFlanker
p560
aVFlanker
p561
aVWing
p562
aVLock
p563
aVHooker
p564
aVNo. 8
p565
aVFly-half
p566
aVProp
p567
aVFlanker
p568
aVFlanker
p569
aVFullback
p570
aVProp
p571
aVWing
p572
aVCentre
p573
aVFly-half
p574
aVWing
p575
aVScrum-half
p576
aVFullback
p577
aVLock
p578
aVWing
p579
aVWing
p580
aVCentre
p581
aVLock
p582
aVFlanker
p583
aVCentre
p584
aVCentre
p585
aV
aVWing
p586
aVCentre
p587
aVProp
p588
aVCentre
p589
aVLock
p590
aVWing
p591
aVWing
p592
aVFullback
p593
aVProp
p594
aVFly-half
p595
aVFullback
p596
aVHooker
p597
aVLock
p598
aVScrum-half
p599
aVFlanker
p600
aVScrum-half
p601
aVCentre
p602
aVProp
p603
aVLock
p604
aVCentre
p605
aVWing
p606
aVLock
p607
aVFlanker
p608
aVLock
p609
aVFly-half
p610
aVFullback
p611
aVProp
p612
aVWing
p613
aVWing
p614
aVFullback
p615
aVFlanker
p616
aVWing
p617
aVProp
p618
aVCentre
p619
aVNo. 8
p620
aVProp
p621
aVHooker
p622
aVHooker
p623
aVLock
p624
aVLock
p625
aVScrum-half
p626
aVWing
p627
aVFlanker
p628
aVScrum-half
p629
aVProp
p630
aVHooker
p631
aVNo. 8
p632
aVHooker
p633
aVLock
p634
aVLock
p635
aVFly-half
p636
aVNo. 8
p637
aVProp
p638
aVScrum-half
p639
aVWing
p640
aVFullback
p641
aVFlanker
p642
aVCentre
p643
aVCentre
p644
aVFly-half
p645
aVCentre
p646
aVProp
p647
aVCentre
p648
aVLock
p649
aVProp
p650
aVFlanker
p651
aVFullback
p652
aVScrum-half
p653
aVCentre
p654
aVFly-half
p655
aVNo. 8
p656
aVNo. 8
p657
aVWing
p658
aVFlanker
p659
aVNo. 8
p660
aVCentre
p661
aVProp
p662
aVProp
p663
aVNo. 8
p664
aVCentre
p665
aVCentre
p666
aVFlanker
p667
aVWing
p668
aVScrum-half
p669
aVProp
p670
aVCentre
p671
aVFullback
p672
aVProp
p673
aVCentre, Fly-half
p674
aVHooker
p675
aVLock
p676
aVCentre
p677
aVLock
p678
aVFlanker
p679
aVFullback
p680
aVWing
p681
aVProp
p682
aVCentre
p683
aVNo. 8
p684
aVWing
p685
aVScrum-half
p686
aVFlanker
p687
aVLock
p688
aVWing
p689
aVFullback
p690
aVHooker
p691
aVCentre
p692
aVFlanker
p693
aVCentre
p694
aVFullback
p695
aVLock
p696
aVFly-half
p697
aVScrum-half
p698
aVCentre
p699
aVFly-half
p700
aVWing
p701
aVLock
p702
aVFlanker
p703
aVFullback
p704
aVCentre
p705
aVBack-row
p706
aVCentre
p707
aVFullback
p708
aVCentre
p709
aVCentre
p710
aVScrum-half
p711
aVFly-half
p712
aVFullback, Wing
p713
aVHooker
p714
aVFlanker
p715
aVScrum-half
p716
aVHooker
p717
aVLock, Back-row
p718
aVProp
p719
aVScrum-half
p720
aVCentre
p721
aVFullback, Fly-half
p722
aVHooker
p723
aVProp
p724
aVLock
p725
aVFlanker
p726
aVProp
p727
aVLock
p728
aVWing
p729
aVLock, Flanker
p730
aVCentre
p731
aVProp
p732
aVFlanker
p733
aVLock
p734
aVNo. 8
p735
aVFly-half
p736
aVLock
p737
aVHooker
p738
aVCentre
p739
aVProp
p740
aVScrum-half
p741
aVUtility back
p742
aVFullback
p743
aVProp
p744
aVFly-half
p745
aVNo. 8
p746
aVFlanker
p747
aVLock, Flanker
p748
aVCentre
p749
aVProp
p750
aVFullback, Wing
p751
aVProp
p752
aVCentre
p753
aVScrum-half
p754
aVNo. 8
p755
aVBack-row
p756
aVFullback, Wing
p757
aVBack-row
p758
aVProp
p759
aVFlanker
p760
aVProp
p761
aVProp
p762
aVHooker
p763
aVLock
p764
aVCentre, Wing
p765
aVCentre
p766
aVOutside back
p767
aVLock
p768
aVUtility back
p769
aVHooker
p770
aVLock
p771
aVFlanker
p772
aVHooker
p773
aVCentre
p774
aVUtility back
p775
aVCentre
p776
aVOutside back
p777
aVFlanker, Lock
p778
aVProp
p779
aVProp
p780
aVNo. 8
p781
aVCentre
p782
aVNo. 8
p783
aVScrum-half
p784
aVProp
p785
aVLock
p786
aVBack-row
p787
aVFlanker
p788
aVLock
p789
aVHooker
p790
aVUtility back
p791
aVLock
p792
aVWing
p793
aVCentre
p794
aVCentre
p795
aVFlanker, Lock
p796
aVFly-half, Centre
p797
aVProp
p798
aVNo. 8
p799
aVHooker
p800
aVProp
p801
aVProp
p802
aVHooker
p803
aVFullback, Wing
p804
aVScrum-half
p805
aVNo. 8
p806
aVProp
p807
aVProp
p808
aVScrum-half
p809
aVFly-half, Fullback
p810
aVFly-half, Centre
p811
aVWing
p812
aVLock
p813
aVFly-half, Centre
p814
aVScrum-half
p815
aVFullback, Wing
p816
aVLock
p817
aVProp
p818
aVCentre
p819
aVWing
p820
aVOutside back
p821
aVBack-row
p822
aVFlanker
p823
aVFly-half
p824
aVProp
p825
aVWing
p826
aVLock
p827
aVProp
p828
aVScrum-half
p829
aVFullback
p830
aVHooker
p831
aVCentre
p832
aVProp
p833
aVHooker
p834
aVBack-row
p835
aVProp
p836
aVProp
p837
aVBack-row
p838
aVLock
p839
aVCentre
p840
aVCentre
p841
aVNo. 8
p842
aVWing
p843
aVScrum-half
p844
aVLock
p845
aVFlanker
p846
aVCentre
p847
aVFlanker
p848
aVCentre
p849
aVFullback
p850
aVProp
p851
aVWing
p852
aVFlanker
p853
aVWing, Centre
p854
aVFlanker
p855
aVWing
p856
aVLock
p857
aVWing
p858
aVHooker
p859
aVProp
p860
aVFullback
p861
aVFly-half
p862
aVNo. 8
p863
aVFullback
p864
aVFly-half
p865
aVFlanker
p866
aVCentre
p867
aVProp
p868
aVScrum-half
p869
aVWing
p870
aVFly-half
p871
aVWing
p872
aVLock
p873
aVHooker
p874
aVLock
p875
aVProp
p876
aVLock
p877
aVHooker
p878
aVNo. 8
p879
aVFlanker
p880
aVProp
p881
aVWing
p882
a.