(lp1
Vdate unknown
p2
aVdate unknown
p3
aVdate unknown
p4
aVdate unknown
p5
aVMarch 27, 1892, Beamont City, OH, United States
p6
aVdate unknown
p7
aVdate unknown
p8
aVdate unknown
p9
aVdate unknown
p10
aVdate unknown
p11
aVdate unknown
p12
aVdate unknown
p13
aVdate unknown
p14
aVdate unknown
p15
aVdate unknown
p16
aVdate unknown
p17
aVNovember 17, 1888, Melbourne, VIC
p18
aVdate unknown
p19
aVdate unknown
p20
aVdate unknown
p21
aVdate unknown
p22
aVdate unknown
p23
aVdate unknown
p24
aVdate unknown
p25
aVdate unknown
p26
aVdate unknown
p27
aVdate unknown
p28
aVSeptember 4, 1889, San Francisco, CA, United States
p29
aVApril 4, 1895, Los Angeles, CA, United States
p30
aVJune 2, 1892, Los Angeles, CA, United States
p31
aVOctober 4, 1899, Louisville, KY, United States
p32
aVSeptember 13, 1895, Waxahachie, TX, United States
p33
aVMay 15, 1896
p34
aVMarch 2, 1896, Ione, CA, United States
p35
aVOctober 4, 1898, Faulkton, SD, United States
p36
aVNovember 25, 1898, Palo Alto, CA, United States
p37
aVMarch 7, 1897, Campbell, CA, United States
p38
aVJune 17, 1896, Kewanee, IL, United States
p39
aVMay 27, 1897, Helena, MO, United States
p40
aVJune 4, 1894, Alameda, CA, United States
p41
aVJanuary 18, 1900, San Francisco, CA, United States
p42
aVdate unknown
p43
aVApril 30, 1896, Berkeley, CA, United States
p44
aVdate unknown
p45
aVdate unknown
p46
aVdate unknown
p47
aVdate unknown
p48
aVSeptember 18, 1898, San Francisco, CA, United States
p49
aVApril 4, 1901, Oakland, CA, United States
p50
aVAugust 24, 1897, Cheshire, OH, United States
p51
aVApril 10, 1901, Vallejo, CA, United States
p52
aVAugust 20, 1897, San Francisco, CA, United States
p53
aVJuly 26, 1900, San Francisco, CA, United States
p54
aVJuly 7, 1897, Forli
p55
aVJanuary 23, 1894, San Francisco, CA, United States
p56
aVJanuary 10, 1899, San Francisco, CA, United States
p57
aVFebruary 23, 1901, Glen Cove, NY, United States
p58
aVOctober 7, 1893, West Orange, NJ, United States
p59
aVNovember 10, 1899, Chicago, IL, United States
p60
aVOctober 3, 1901, Rumsey, CA, United States
p61
aVFebruary 6, 1902, Ventura, CA, United States
p62
aVdate unknown
p63
aVdate unknown
p64
aVdate unknown
p65
aVdate unknown
p66
aVdate unknown
p67
aVdate unknown
p68
aVJune 23, 1947
p69
aVdate unknown
p70
aVdate unknown
p71
aVcirca 1949, Long Beach, CA, United States
p72
aVdate unknown
p73
aVdate unknown
p74
aVdate unknown
p75
aVdate unknown
p76
aVdate unknown
p77
aVdate unknown
p78
aVdate unknown
p79
aVdate unknown
p80
aVdate unknown
p81
aVdate unknown
p82
aVdate unknown
p83
aVdate unknown
p84
aVdate unknown
p85
aVdate unknown
p86
aVcirca 1953
p87
aVdate unknown
p88
aVdate unknown
p89
aVdate unknown
p90
aVdate unknown
p91
aVdate unknown
p92
aVdate unknown
p93
aVdate unknown
p94
aVdate unknown
p95
aVdate unknown
p96
aVdate unknown
p97
aVdate unknown
p98
aVdate unknown
p99
aVdate unknown
p100
aVdate unknown
p101
aVDecember 12, 1947, Fort Worth, IN, United States
p102
aVdate unknown
p103
aVJune 25, 1954
p104
aVDecember 25, 1952
p105
aVdate unknown
p106
aVJuly 3, 1951
p107
aVNovember 12, 1951
p108
aVOctober 2, 1949
p109
aVdate unknown
p110
aVFebruary 14, 1956
p111
aVdate unknown
p112
aVAugust 30, 1953
p113
aVdate unknown
p114
aVDecember 6, 1951, Erie, PA, United States
p115
aVJuly 23, 1952
p116
aVdate unknown
p117
aVdate unknown
p118
aVJanuary 14, 1946
p119
aVcirca 1952
p120
aVOctober 11, 1957
p121
aVdate unknown
p122
aVOctober 17, 1956
p123
aVDecember 1, 1950
p124
aVcirca 1953
p125
aVcirca 1959
p126
aVcirca 1953
p127
aVdate unknown
p128
aVdate unknown
p129
aVdate unknown
p130
aVdate unknown
p131
aVdate unknown
p132
aVdate unknown
p133
aVdate unknown
p134
aVFebruary 18, 1954, Paradise Valley, AZ, United States
p135
aVdate unknown
p136
aVJune 11, 1961, Glasgow
p137
aVdate unknown
p138
aVdate unknown
p139
aVcirca 1952
p140
aVdate unknown
p141
aVcirca 1955
p142
aVcirca 1955
p143
aVdate unknown
p144
aVdate unknown
p145
aVdate unknown
p146
aVcirca 1960
p147
aVcirca 1957
p148
aVcirca 1961
p149
aVdate unknown
p150
aVdate unknown
p151
aVNovember 8, 1962, Buffalo, NY, United States
p152
aVdate unknown
p153
aVSeptember 16, 1957, Los Angeles, CA, United States
p154
aVJuly 1, 1960, Chicago, IL, United States
p155
aVdate unknown
p156
aVcirca 1957
p157
aVcirca 1960
p158
aVJuly 20, 1956, Philadelphia, PA, United States
p159
aVJuly 4, 1959, California, United States
p160
aVcirca 1955
p161
aVdate unknown
p162
aVcirca 1957
p163
aVdate unknown
p164
aVdate unknown
p165
aVMarch 26, 1965, Los Angeles, CA, United States
p166
aVcirca 1959
p167
aVMarch 17, 1960, La Grange, GA, United States
p168
aVJanuary 1, 1961, New York, NY, United States
p169
aVdate unknown
p170
aVdate unknown
p171
aVcirca 1962
p172
aVJune 26, 1961, Ellsbury
p173
aVdate unknown
p174
aVdate unknown
p175
aVSeptember 25, 1964, Johannesburg
p176
aVAugust 5, 1964, Palo Alto, CA, United States
p177
aVdate unknown
p178
aVdate unknown
p179
aVJune 2, 1964, Van Nuys, CA, United States
p180
aVdate unknown
p181
aVDecember 29, 1962, New London, CT, United States
p182
aVJune 2, 1961
p183
aVdate unknown
p184
aVdate unknown
p185
aVMarch 31, 1963, California, United States
p186
aVdate unknown
p187
aVMarch 15, 1962, Sanson
p188
aVdate unknown
p189
aVdate unknown
p190
aVJune 30, 1959, Glasgow
p191
aVOctober 26, 1962, Chicago, IL, United States
p192
aVFebruary 9, 1961, Albany, NY, United States
p193
aVDecember 16, 1962, Pretoria
p194
aVSeptember 26, 1964
p195
aVdate unknown
p196
aVdate unknown
p197
aVdate unknown
p198
aVJanuary 15, 1964, Rotorua
p199
aVSeptember 24, 1966, Portland, OR, United States
p200
aVdate unknown
p201
aVdate unknown
p202
aVdate unknown
p203
aVOctober 31, 1961, Great Falls, MT, United States
p204
aVdate unknown
p205
aVJune 10, 1964, Indianapolis, IN, United States
p206
aVAugust 14, 1963, Washington, United States
p207
aVJanuary 25, 1966, Lakewood, CO, United States
p208
aVJuly 17, 1956, Durban
p209
aVdate unknown
p210
aVdate unknown
p211
aVApril 19, 1963
p212
aVdate unknown
p213
aVdate unknown
p214
aVdate unknown
p215
aVdate unknown
p216
aVdate unknown
p217
aVdate unknown
p218
aVSeptember 20, 1970
p219
aVdate unknown
p220
aVMarch 11, 1970
p221
aVDecember 26, 1964, Iowa, United States
p222
aVFebruary 16, 1968
p223
aVdate unknown
p224
aVdate unknown
p225
aVdate unknown
p226
aVSeptember 17, 1969
p227
aVNovember 6, 1967
p228
aVApril 8, 1967
p229
aVApril 30, 1969
p230
aVSeptember 28, 1968
p231
aVJuly 30, 1965
p232
aVSeptember 11, 1968
p233
aVAugust 3, 1970, Trinidad
p234
aVOctober 15, 1969
p235
aVJuly 3, 1968
p236
aVNovember 11, 1972
p237
aVSeptember 28, 1970, San Diego, CA, United States
p238
aVDecember 5, 1966
p239
aVFebruary 26, 1966
p240
aVAugust 23, 1973
p241
aVMay 15, 1971, San Diego, CA, United States
p242
aVMarch 13, 1972, Sacramento, CA, United States
p243
aVJanuary 31, 1968
p244
aVOctober 1, 1970
p245
aVSeptember 30, 1968
p246
aVNovember 21, 1969, Decateur, IN, United States
p247
aVNovember 6, 1966
p248
aVOctober 5, 1969
p249
aVJanuary 4, 1969, Karlsruhe
p250
aVApril 10, 1974, Aspen, CO, United States
p251
aVMay 3, 1966, California, United States
p252
aVJanuary 10, 1968
p253
aVMarch 28, 1969
p254
aVdate unknown
p255
aVSeptember 20, 1961, Whangarei
p256
aVJuly 7, 1973
p257
aVdate unknown
p258
aVJanuary 25, 1974, Durban
p259
aVSeptember 15, 1968, Long Beach, CA, United States
p260
aVSeptember 15, 1970, Baltimore, MD, United States
p261
aVApril 25, 1972
p262
aVSeptember 22, 1968, Vava'u
p263
aVdate unknown
p264
aVNovember 10, 1969, New Orleans, LA, United States
p265
aVJanuary 5, 1974, Philadelphia, PA, United States
p266
aVSeptember 12, 1966, Honolulu, HI, United States
p267
aVdate unknown
p268
aVdate unknown
p269
aVOctober 15, 1969, Flint, MI, United States
p270
aVApril 26, 1969, St Louis, MO, United States
p271
aVJune 4, 1970, George
p272
aVAugust 10, 1971
p273
aVdate unknown
p274
aVAugust 22, 1973, Bellingham, WA, United States
p275
aVMarch 5, 1973, Ha'asini
p276
aVNovember 16, 1977
p277
aVMarch 6, 1969, Philadelphia, PA, United States
p278
aVdate unknown
p279
aVSeptember 14, 1969
p280
aVSeptember 22, 1966, Yass, NSW
p281
aVApril 27, 1977, Sacramento, CA, United States
p282
aVSeptember 8, 1967, Whangarei
p283
aVFebruary 18, 1967
p284
aVJanuary 9, 1970, Dar-es-Salaam
p285
aVJanuary 3, 1966, Sydney, NSW
p286
aVNovember 24, 1973
p287
aVSeptember 26, 1971
p288
aVJanuary 6, 1977, Auckland
p289
aVJune 14, 1975
p290
aVSeptember 17, 1978, Thabazimbi
p291
aVAugust 17, 1977, Seattle, WA, United States
p292
aVJuly 24, 1979, Sacramento, CA, United States
p293
aVAugust 23, 1971, Christchurch
p294
aVJune 1, 1977
p295
aVJanuary 21, 1969
p296
aVMarch 31, 1972
p297
aVJune 15, 1973
p298
aVJuly 5, 1979, Denver, CO, United States
p299
aVDecember 6, 1968
p300
aVNovember 27, 1980, Berkeley, CA, United States
p301
aVJune 26, 1970, Dublin, GA, United States
p302
aVdate unknown
p303
aVSeptember 7, 1976, Pago Pago
p304
aVMarch 19, 1978
p305
aVNovember 11, 1970, Berkeley, CA, United States
p306
aVDecember 20, 1973, Port Elizabeth
p307
aVFebruary 19, 1978, Salt Lake City, UT, United States
p308
aVFebruary 26, 1979, Santa Rosa, CA, United States
p309
aVMarch 23, 1978, Provo, UT, United States
p310
aVMarch 26, 1980, Suva
p311
aVJanuary 18, 1976, Inglewood, CA, United States
p312
aVApril 6, 1978
p313
aVJune 5, 1979, Falls Church, VI, United States
p314
aVSeptember 16, 1973
p315
aVMarch 21, 1972
p316
aVApril 4, 1978
p317
aVJuly 9, 1971, Dayton, OH, United States
p318
aVApril 5, 1980, St Louis, MO, United States
p319
aVDecember 15, 1976, Chicago, IL, United States
p320
aVSeptember 24, 1977, Belem
p321
aVNovember 30, 1978
p322
aVOctober 7, 1976, Lincoln
p323
aVFebruary 4, 1974, Dubbo, NSW
p324
aVJuly 9, 1972, Stellenbosch
p325
aVJanuary 24, 1980, Emmetsburg, IA, United States
p326
aVApril 6, 1975, Oakham
p327
aVSeptember 2, 1976
p328
aVOctober 18, 1978, Pasadena, CA, United States
p329
aVApril 4, 1973, Durban
p330
aVOctober 29, 1978, San Francisco, CA, United States
p331
aVDecember 6, 1975, Pretoria
p332
aVDecember 30, 1978, Stoke-on-Trent
p333
aVJanuary 16, 1983, Palm Springs, CA, United States
p334
aVMarch 4, 1978, Southampton, PA, United States
p335
aVJuly 7, 1980, Haveluloto
p336
aVFebruary 27, 1979, San Mateo, CA, United States
p337
aVNovember 26, 1978, Bristol
p338
aVMay 16, 1981, Oakland, CA, United States
p339
aVSeptember 9, 1982
p340
aVFebruary 26, 1975, Des Moines, IA, United States
p341
aVApril 20, 1977, New Hyde Park, NY, United States
p342
aVSeptember 10, 1981, Kahuki, HI, United States
p343
aVMarch 8, 1981
p344
aVMay 30, 1985, Sacramento, CA, United States
p345
aVSeptember 30, 1981, St Louis, MO, United States
p346
aVNovember 3, 1975, Chicago, IL, United States
p347
aVJanuary 24, 1979
p348
aVJuly 30, 1976
p349
aVNovember 19, 1975, Anchorage, AK, United States
p350
aVJanuary 2, 1978, Murray, KT, United States
p351
aVApril 25, 1983, New Orleans, LA, United States
p352
aVJanuary 25, 1976
p353
aVNovember 28, 1979, Nieafu, Vava'u
p354
aVDecember 11, 1980, San Clemente, CA, United States
p355
aVJanuary 24, 1980, King William's Town
p356
aVApril 21, 1980, Plano, TX, United States
p357
aVJuly 11, 1980, Suva
p358
aVNovember 1, 1978, San Angelo, TX, United States
p359
aVNovember 3, 1980
p360
aVJuly 13, 1976, Pietermaritzburg
p361
aVMarch 22, 1978
p362
aVFebruary 8, 1978, Timaru
p363
aVdate unknown
p364
aVOctober 8, 1975
p365
aVMarch 10, 1979, Whakatane
p366
aVSeptember 9, 1979, Fort Collins, CO, United States
p367
aVJanuary 8, 1980, Pietermaritzburg
p368
aVFebruary 12, 1972, Washington DC, United States
p369
aVNovember 3, 1981, Canton, OH, United States
p370
aVJanuary 19, 1980, Minneapolis, MN, United States
p371
aVJune 21, 1983, Anaheim, CA, United States
p372
aVJanuary 27, 1975, Dubbo, NSW
p373
aVSeptember 10, 1985, Pago Pago
p374
aVMay 17, 1981, Hartford, CT, United States
p375
aVSeptember 13, 1983, Stamford, CT, United States
p376
aVMarch 4, 1981, Suva
p377
aVFebruary 13, 1981, Philadelphia, PA, United States
p378
aVOctober 10, 1984, Monterrey
p379
aVSeptember 12, 1972, Victor, NY, United States
p380
aVJanuary 4, 1973, Los Angeles, CA, United States
p381
aVJuly 22, 1985, Harare
p382
aVMay 16, 1978, Vaini
p383
aVSeptember 22, 1988, Woodland, CA, United States
p384
aVAugust 16, 1984, Brooklyn, NY, United States
p385
aVMarch 29, 1982, Sydney, NSW
p386
aVMay 6, 1982, Jerome, ID, United States
p387
aVFebruary 28, 1984, Rockland Co, NY, United States
p388
aVdate unknown
p389
aVApril 28, 1976, Wairoa
p390
aVdate unknown
p391
aVMarch 26, 1986
p392
aVJuly 24, 1983, Taplow, Bucks
p393
aVMarch 24, 1983, Faga'alu
p394
aVApril 10, 1985, Penrith, NSW
p395
aVAugust 14, 1985, Cape Town
p396
aVJanuary 22, 1988, Bellingham, WA, United States
p397
aVMay 1, 1982, Pago Pago
p398
aVOctober 30, 1984, Sacramento, CA, United States
p399
aVMay 26, 1983, St Paul, MN, United States
p400
aVApril 22, 1983
p401
aVOctober 11, 1985, California, United States
p402
aVNovember 11, 1984, Christchurch
p403
aVOctober 4, 1989, Salt Lake City, UT, United States
p404
aVMay 29, 1984, California, United States
p405
aVDecember 17, 1986, Pago Pago
p406
aVDecember 16, 1984, San Jose, CA, United States
p407
aVSeptember 10, 1985, Pago Pago
p408
aVJune 21, 1983, Brisbane, QLD
p409
aVJune 12, 1982, Mountain View, CA, United States
p410
aVApril 10, 1987, Phoenix, AZ, United States
p411
aVOctober 29, 1984, Traverse City, MI, United States
p412
aVDecember 27, 1984
p413
aVMarch 7, 1985, Baltimore, MD, United States
p414
aVMarch 30, 1983, Durban
p415
aVJuly 4, 1988, Olympia, WA, United States
p416
aVNovember 11, 1986, Lawrence, MA, United States
p417
aVDecember 6, 1983, Boca Raton, FL, United States
p418
aVOctober 27, 1981
p419
aVMarch 5, 1985, Concord, CA, United States
p420
aVJune 3, 1989, Faga'alu
p421
aVSeptember 14, 1987, Davis, CA, United States
p422
aVFebruary 16, 1982, Portland, OR, United States
p423
aVFebruary 29, 1988, Sacramento, CA, United States
p424
aVApril 11, 1987, Christchurch
p425
aVJuly 4, 1984
p426
aVOctober 25, 1987, New York, NY, United States
p427
aVMarch 19, 1991, Frankfurt
p428
aVJanuary 26, 1988, Sydney, NSW
p429
aVMarch 4, 1988, Arlington, TX, United States
p430
aVSeptember 16, 1988, Bakersfield, CA, United States
p431
aVAugust 13, 1984
p432
aVdate unknown
p433
aVSeptember 2, 1988, Berkeley, CA, United States
p434
aVMarch 10, 1990, Youghal, Cork
p435
aVJuly 29, 1989, Denver, CO, United States
p436
aVJune 16, 1988, Hagatna
p437
aVFebruary 23, 1987
p438
aVJuly 27, 1988
p439
aVMay 30, 1991, New York, NY, United States
p440
aVJuly 11, 1988
p441
aVOctober 16, 1989, Bellingham, WA, United States
p442
aVMarch 7, 1990, Fort Myers, FL, United States
p443
aVFebruary 11, 1995, Bellingham, WA, United States
p444
aVJanuary 27, 1985, East Palo Alto, CA, United States
p445
aVMarch 23, 1989, Danville, CA, United States
p446
aVSeptember 28, 1986, Seattle, WA, United States
p447
aVAugust 28, 1980, San Diego, CA, United States
p448
aVJune 20, 1989
p449
aVAugust 26, 1988, Cleveland, OH, United States
p450
aVJanuary 24, 1990, American Fork, UT, United States
p451
aVJune 5, 1988, Pago Pago
p452
aVMarch 23, 1990, Pacifica, CA, United States
p453
aVSeptember 27, 1988, Johannesburg
p454
aVAugust 17, 1990, Tempe, AZ, United States
p455
aVApril 7, 1989, Vancouver, WA, United States
p456
aVSeptember 6, 1986, Darlinghurst, NSW
p457
aVMay 16, 1990, La Mirada, CA, United States
p458
aVMarch 26, 1991, Sydney, NSW
p459
aVMarch 17, 1994, Indianapolis, IN, United States
p460
aVJune 5, 1985, Burbank, CA, United States
p461
aVFebruary 26, 1990, Dublin
p462
aVOctober 13, 1989, Redwood City, CA, United States
p463
aVJune 2, 1989, Paddington, NSW
p464
aVMay 18, 1987, Steamboat Springs, C, United States
p465
aVOctober 9, 1991, Pretoria
p466
aVOctober 4, 1992
p467
aVJanuary 22, 1992, Tiburon, CA, United States
p468
aVJanuary 4, 1989, Cardiff
p469
aVAugust 31, 1989
p470
aVMay 25, 1993
p471
aVMarch 26, 1991
p472
aVDecember 18, 1992, St Thomas, TX, United States
p473
aVdate unknown
p474
aVApril 17, 1993
p475
aVJanuary 22, 1990
p476
aVJuly 23, 1993, Long Beach, CA, United States
p477
aVMay 28, 1991, Pretoria
p478
aVJanuary 11, 1989, Centennial, CO, United States
p479
aVOctober 10, 1991, Los Gatos, CA, United States
p480
aVMay 21, 1989, Adelaide, SA
p481
aVMarch 12, 1993, New York City, NY, United States
p482
aVFebruary 24, 1984, Sydney, NSW
p483
aVJanuary 22, 1997
p484
aVDecember 28, 1987
p485
aVJanuary 27, 1990, Tacoma, WA, United States
p486
aVDecember 24, 1990
p487
aVMarch 16, 1987, Pukekohe
p488
aVDecember 31, 1992, North Bend, WA, United States
p489
aVAugust 24, 1996
p490
a.