(lp1
VUnited States of America v Australia at Berkeley, Nov 16, 1912
p2
aVUnited States of America v Australia at Berkeley, Nov 16, 1912
p3
aVUnited States of America v Australia at Berkeley, Nov 16, 1912
p4
aVUnited States of America v Australia at Berkeley, Nov 16, 1912
p5
aVUnited States of America v Australia at Berkeley, Nov 16, 1912
p6
aVUnited States of America v Australia at Berkeley, Nov 16, 1912
p7
aVUnited States of America v Australia at Berkeley, Nov 16, 1912
p8
aVUnited States of America v Australia at Berkeley, Nov 16, 1912
p9
aVUnited States of America v Australia at Berkeley, Nov 16, 1912
p10
aVUnited States of America v Australia at Berkeley, Nov 16, 1912
p11
aVUnited States of America v Australia at Berkeley, Nov 16, 1912
p12
aVUnited States of America v Australia at Berkeley, Nov 16, 1912
p13
aVUnited States of America v Australia at Berkeley, Nov 16, 1912
p14
aVUnited States of America v Australia at Berkeley, Nov 16, 1912
p15
aVUnited States of America v Australia at Berkeley, Nov 16, 1912
p16
aVUnited States of America v New Zealand at Berkeley, Nov 15, 1913
p17
aVWales v Australia at Cardiff, Dec 12, 1908
p18
aVUnited States of America v New Zealand at Berkeley, Nov 15, 1913
p19
aVUnited States of America v New Zealand at Berkeley, Nov 15, 1913
p20
aVUnited States of America v New Zealand at Berkeley, Nov 15, 1913
p21
aVUnited States of America v New Zealand at Berkeley, Nov 15, 1913
p22
aVUnited States of America v New Zealand at Berkeley, Nov 15, 1913
p23
aVUnited States of America v New Zealand at Berkeley, Nov 15, 1913
p24
aVUnited States of America v New Zealand at Berkeley, Nov 15, 1913
p25
aVUnited States of America v New Zealand at Berkeley, Nov 15, 1913
p26
aVUnited States of America v New Zealand at Berkeley, Nov 15, 1913
p27
aVUnited States of America v New Zealand at Berkeley, Nov 15, 1913
p28
aVFrance XV v United States of America at Antwerp, Sep 5, 1920
p29
aVFrance XV v United States of America at Antwerp, Sep 5, 1920
p30
aVFrance XV v United States of America at Antwerp, Sep 5, 1920
p31
aVFrance XV v United States of America at Antwerp, Sep 5, 1920
p32
aVFrance XV v United States of America at Antwerp, Sep 5, 1920
p33
aVFrance XV v United States of America at Antwerp, Sep 5, 1920
p34
aVFrance XV v United States of America at Antwerp, Sep 5, 1920
p35
aVFrance XV v United States of America at Antwerp, Sep 5, 1920
p36
aVFrance XV v United States of America at Antwerp, Sep 5, 1920
p37
aVFrance XV v United States of America at Antwerp, Sep 5, 1920
p38
aVFrance XV v United States of America at Antwerp, Sep 5, 1920
p39
aVFrance XV v United States of America at Antwerp, Sep 5, 1920
p40
aVFrance XV v United States of America at Antwerp, Sep 5, 1920
p41
aVFrance XV v United States of America at Antwerp, Sep 5, 1920
p42
aVFrance v United States of America at Colombes, Oct 10, 1920
p43
aVFrance v United States of America at Colombes, Oct 10, 1920
p44
aVFrance v United States of America at Colombes, Oct 10, 1920
p45
aVFrance v United States of America at Colombes, Oct 10, 1920
p46
aVFrance v United States of America at Colombes, Oct 10, 1920
p47
aVFrance v United States of America at Colombes, Oct 10, 1920
p48
aVRomania v United States of America at Colombes, May 11, 1924
p49
aVRomania v United States of America at Colombes, May 11, 1924
p50
aVRomania v United States of America at Colombes, May 11, 1924
p51
aVRomania v United States of America at Colombes, May 11, 1924
p52
aVRomania v United States of America at Colombes, May 11, 1924
p53
aVRomania v United States of America at Colombes, May 11, 1924
p54
aVRomania v United States of America at Colombes, May 11, 1924
p55
aVRomania v United States of America at Colombes, May 11, 1924
p56
aVRomania v United States of America at Colombes, May 11, 1924
p57
aVRomania v United States of America at Colombes, May 11, 1924
p58
aVRomania v United States of America at Colombes, May 11, 1924
p59
aVFrance v United States of America at Colombes, May 18, 1924
p60
aVFrance v United States of America at Colombes, May 18, 1924
p61
aVFrance v United States of America at Colombes, May 18, 1924
p62
aVUnited States of America v Australia at Los Angeles, Jan 31, 1976
p63
aVUnited States of America v Australia at Los Angeles, Jan 31, 1976
p64
aVUnited States of America v Australia at Los Angeles, Jan 31, 1976
p65
aVUnited States of America v Australia at Los Angeles, Jan 31, 1976
p66
aVUnited States of America v Australia at Los Angeles, Jan 31, 1976
p67
aVUnited States of America v Australia at Los Angeles, Jan 31, 1976
p68
aVUnited States of America v Australia at Los Angeles, Jan 31, 1976
p69
aVUnited States of America v Australia at Los Angeles, Jan 31, 1976
p70
aVUnited States of America v Australia at Los Angeles, Jan 31, 1976
p71
aVUnited States of America v Australia at Los Angeles, Jan 31, 1976
p72
aVUnited States of America v Australia at Los Angeles, Jan 31, 1976
p73
aVUnited States of America v Australia at Los Angeles, Jan 31, 1976
p74
aVUnited States of America v Australia at Los Angeles, Jan 31, 1976
p75
aVUnited States of America v Australia at Los Angeles, Jan 31, 1976
p76
aVUnited States of America v Australia at Los Angeles, Jan 31, 1976
p77
aVUnited States of America v France at Chicago, Jun 12, 1976
p78
aVUnited States of America v France at Chicago, Jun 12, 1976
p79
aVUnited States of America v France at Chicago, Jun 12, 1976
p80
aVUnited States of America v France at Chicago, Jun 12, 1976
p81
aVUnited States of America v France at Chicago, Jun 12, 1976
p82
aVUnited States of America v France at Chicago, Jun 12, 1976
p83
aVUnited States of America v France at Chicago, Jun 12, 1976
p84
aVUnited States of America v France at Chicago, Jun 12, 1976
p85
aVUnited States of America v France at Chicago, Jun 12, 1976
p86
aVCanada v United States of America at Burnaby Lake, May 21, 1977
p87
aVCanada v United States of America at Burnaby Lake, May 21, 1977
p88
aVCanada v United States of America at Burnaby Lake, May 21, 1977
p89
aVCanada v United States of America at Burnaby Lake, May 21, 1977
p90
aVCanada v United States of America at Burnaby Lake, May 21, 1977
p91
aVCanada v United States of America at Burnaby Lake, May 21, 1977
p92
aVCanada v United States of America at Burnaby Lake, May 21, 1977
p93
aVCanada v United States of America at Burnaby Lake, May 21, 1977
p94
aVEngland XV v United States of America at Twickenham, Oct 15, 1977
p95
aVEngland XV v United States of America at Twickenham, Oct 15, 1977
p96
aVEngland XV v United States of America at Twickenham, Oct 15, 1977
p97
aVEngland XV v United States of America at Twickenham, Oct 15, 1977
p98
aVUnited States of America v Canada at Baltimore, May 28, 1978
p99
aVUnited States of America v Canada at Baltimore, May 28, 1978
p100
aVUnited States of America v Canada at Baltimore, May 28, 1978
p101
aVUnited States of America v Canada at Baltimore, May 28, 1978
p102
aVUnited States of America v Canada at Baltimore, May 28, 1978
p103
aVCanada v United States of America at Toronto, Jun 9, 1979
p104
aVCanada v United States of America at Toronto, Jun 9, 1979
p105
aVCanada v United States of America at Toronto, Jun 9, 1979
p106
aVCanada v United States of America at Toronto, Jun 9, 1979
p107
aVCanada v United States of America at Toronto, Jun 9, 1979
p108
aVCanada v United States of America at Toronto, Jun 9, 1979
p109
aVCanada v United States of America at Toronto, Jun 9, 1979
p110
aVCanada v United States of America at Toronto, Jun 9, 1979
p111
aVCanada v United States of America at Toronto, Jun 9, 1979
p112
aVUnited States of America v Wales XV at Long Beach, May 10, 1980
p113
aVUnited States of America v Wales XV at Long Beach, May 10, 1980
p114
aVUnited States of America v Wales XV at Long Beach, May 10, 1980
p115
aVUnited States of America v Wales XV at Long Beach, May 10, 1980
p116
aVUnited States of America v Canada at Saranac Lake, Jun 8, 1980
p117
aVUnited States of America v Canada at Saranac Lake, Jun 8, 1980
p118
aVUnited States of America v Canada at Saranac Lake, Jun 8, 1980
p119
aVUnited States of America v New Zealand XV at San Diego, Oct 8, 1980
p120
aVUnited States of America v New Zealand XV at San Diego, Oct 8, 1980
p121
aVUnited States of America v New Zealand XV at San Diego, Oct 8, 1980
p122
aVUnited States of America v New Zealand XV at San Diego, Oct 8, 1980
p123
aVUnited States of America v New Zealand XV at San Diego, Oct 8, 1980
p124
aVCanada v United States of America at Calgary, Jun 6, 1981
p125
aVCanada v United States of America at Calgary, Jun 6, 1981
p126
aVCanada v United States of America at Calgary, Jun 6, 1981
p127
aVUnited States of America v South Africa at Glenville, Sep 25, 1981
p128
aVUnited States of America v Canada at Albany, Jun 12, 1982
p129
aVUnited States of America v Canada at Albany, Jun 12, 1982
p130
aVUnited States of America v Canada at Albany, Jun 12, 1982
p131
aVUnited States of America v Canada at Albany, Jun 12, 1982
p132
aVUnited States of America v England XV at Hartford, Jun 19, 1982
p133
aVUnited States of America v England XV at Hartford, Jun 19, 1982
p134
aVUnited States of America v England XV at Hartford, Jun 19, 1982
p135
aVCanada v United States of America at Burnaby Lake, Jun 11, 1983
p136
aVCanada v United States of America at Burnaby Lake, Jun 11, 1983
p137
aVCanada v United States of America at Burnaby Lake, Jun 11, 1983
p138
aVCanada v United States of America at Burnaby Lake, Jun 11, 1983
p139
aVCanada v United States of America at Burnaby Lake, Jun 11, 1983
p140
aVCanada v United States of America at Burnaby Lake, Jun 11, 1983
p141
aVCanada v United States of America at Burnaby Lake, Jun 11, 1983
p142
aVAustralia v United States of America at Sydney, Jul 9, 1983
p143
aVAustralia v United States of America at Sydney, Jul 9, 1983
p144
aVAustralia v United States of America at Sydney, Jul 9, 1983
p145
aVAustralia v United States of America at Sydney, Jul 9, 1983
p146
aVUnited States of America v Canada at Chicago, Jun 9, 1984
p147
aVUnited States of America v Canada at Chicago, Jun 9, 1984
p148
aVUnited States of America v Canada at Chicago, Jun 9, 1984
p149
aVUnited States of America v Canada at Chicago, Jun 9, 1984
p150
aVJapan v United States of America at Tokyo, Apr 21, 1985
p151
aVJapan v United States of America at Tokyo, Apr 21, 1985
p152
aVJapan v United States of America at Tokyo, Apr 21, 1985
p153
aVJapan v United States of America at Tokyo, Apr 21, 1985
p154
aVJapan v United States of America at Tokyo, Apr 21, 1985
p155
aVCanada v United States of America at Vancouver, Nov 16, 1985
p156
aVUnited States of America v Japan at Torrance, May 31, 1986
p157
aVUnited States of America v Japan at Torrance, May 31, 1986
p158
aVUnited States of America v Japan at Torrance, May 31, 1986
p159
aVUnited States of America v Japan at Torrance, May 31, 1986
p160
aVUnited States of America v Canada at Tucson, Nov 8, 1986
p161
aVUnited States of America v Canada at Tucson, Nov 8, 1986
p162
aVUnited States of America v Canada at Tucson, Nov 8, 1986
p163
aVUnited States of America v Canada at Tucson, Nov 8, 1986
p164
aVUnited States of America v Tunisia at Pebble Beach, May 3, 1987
p165
aVUnited States of America v Tunisia at Pebble Beach, May 3, 1987
p166
aVUnited States of America v Tunisia at Pebble Beach, May 3, 1987
p167
aVCanada v United States of America at Vancouver, May 10, 1987
p168
aVAustralia v United States of America at Brisbane, May 31, 1987
p169
aVWales v United States of America at Cardiff, Nov 7, 1987
p170
aVWales v United States of America at Cardiff, Nov 7, 1987
p171
aVWales v United States of America at Cardiff, Nov 7, 1987
p172
aVWales v United States of America at Cardiff, Nov 7, 1987
p173
aVWales v United States of America at Cardiff, Nov 7, 1987
p174
aVCanada v United States of America at Victoria, Nov 14, 1987
p175
aVUnited States of America v Canada at Saranac Lake, Jun 11, 1988
p176
aVUnited States of America v Canada at Saranac Lake, Jun 11, 1988
p177
aVUnited States of America v Canada at Saranac Lake, Jun 11, 1988
p178
aVUnited States of America v Canada at Saranac Lake, Jun 11, 1988
p179
aVRomania v United States of America at Moscow, Sep 17, 1988
p180
aVSoviet Union v United States of America at Moscow, Sep 25, 1988
p181
aVUnited States of America v Ireland XV at New York, Sep 9, 1989
p182
aVUnited States of America v Ireland XV at New York, Sep 9, 1989
p183
aVUnited States of America v Ireland XV at New York, Sep 9, 1989
p184
aVCanada v United States of America at Toronto, Sep 23, 1989
p185
aVCanada v United States of America at Toronto, Sep 23, 1989
p186
aVUruguay v United States of America at Montevideo, Nov 7, 1989
p187
aVUruguay v United States of America at Montevideo, Nov 7, 1989
p188
aVUruguay v United States of America at Montevideo, Nov 7, 1989
p189
aVUruguay v United States of America at Montevideo, Nov 7, 1989
p190
aVUnited States of America v Argentina at Santa Barbara, Apr 7, 1990
p191
aVUnited States of America v Argentina at Santa Barbara, Apr 7, 1990
p192
aVUnited States of America v Canada at Seattle, Jun 9, 1990
p193
aVUnited States of America v Canada at Seattle, Jun 9, 1990
p194
aVUnited States of America v Canada at Seattle, Jun 9, 1990
p195
aVUnited States of America v Canada at Seattle, Jun 9, 1990
p196
aVUnited States of America v Canada at Seattle, Jun 9, 1990
p197
aVAustralia v United States of America at Brisbane, Jul 8, 1990
p198
aVJapan v United States of America at Tokyo, Sep 23, 1990
p199
aVJapan v United States of America at Tokyo, Sep 23, 1990
p200
aVUnited States of America v Japan at Chicago, May 4, 1991
p201
aVCanada v United States of America at Calgary, Jun 8, 1991
p202
aVCanada v United States of America at Calgary, Jun 8, 1991
p203
aVCanada v United States of America at Calgary, Jun 8, 1991
p204
aVCanada v United States of America at Calgary, Jun 8, 1991
p205
aVUnited States of America v France at Colorado Springs, Jul 20, 1991
p206
aVNew Zealand v United States of America at Gloucester, Oct 8, 1991
p207
aVEngland v United States of America at Twickenham, Oct 11, 1991
p208
aVUnited States of America v Hong Kong at San Francisco, Apr 18, 1992
p209
aVUnited States of America v Hong Kong at San Francisco, Apr 18, 1992
p210
aVUnited States of America v Hong Kong at San Francisco, Apr 18, 1992
p211
aVUnited States of America v Hong Kong at San Francisco, Apr 18, 1992
p212
aVUnited States of America v Canada at Denver, Jun 13, 1992
p213
aVUnited States of America v Canada at Denver, Jun 13, 1992
p214
aVUnited States of America v Canada at Denver, Jun 13, 1992
p215
aVUnited States of America v Canada at Denver, Jun 13, 1992
p216
aVUnited States of America v Canada at Denver, Jun 13, 1992
p217
aVUnited States of America v Canada at Denver, Jun 13, 1992
p218
aVSamoa v Tonga at Tokyo, Apr 11, 1990
p219
aVUnited States of America v Canada at Denver, Jun 13, 1992
p220
aVCanada v United States of America at Winnipeg, Jun 19, 1993
p221
aVCanada v United States of America at Winnipeg, Jun 19, 1993
p222
aVCanada v United States of America at Winnipeg, Jun 19, 1993
p223
aVCanada v United States of America at Winnipeg, Jun 19, 1993
p224
aVCanada v United States of America at Winnipeg, Jun 19, 1993
p225
aVCanada v United States of America at Winnipeg, Jun 19, 1993
p226
aVCanada v United States of America at Winnipeg, Jun 19, 1993
p227
aVCanada v United States of America at Winnipeg, Jun 19, 1993
p228
aVUnited States of America v Australia XV at Riverside, Oct 2, 1993
p229
aVUnited States of America v Australia XV at Riverside, Oct 2, 1993
p230
aVUnited States of America v Australia XV at Riverside, Oct 2, 1993
p231
aVUnited States of America v Australia XV at Riverside, Oct 2, 1993
p232
aVUnited States of America v Australia XV at Riverside, Oct 2, 1993
p233
aVBermuda v United States of America at Hamilton, Mar 12, 1994
p234
aVUnited States of America v Argentina at Long Beach, May 28, 1994
p235
aVUnited States of America v Argentina at Long Beach, May 28, 1994
p236
aVIreland v United States of America at Lansdowne Road, Nov 5, 1994
p237
aVIreland v United States of America at Lansdowne Road, Nov 5, 1994
p238
aVCanada v United States of America at Markham, Sep 9, 1995
p239
aVCanada v United States of America at Markham, Sep 9, 1995
p240
aVCanada v United States of America at Markham, Sep 9, 1995
p241
aVCanada v United States of America at Markham, Sep 9, 1995
p242
aVCanada v United States of America at Markham, Sep 9, 1995
p243
aVCanada v United States of America at Markham, Sep 9, 1995
p244
aVCanada v United States of America at Markham, Sep 9, 1995
p245
aVUnited States of America v Ireland at Atlanta, Jan 6, 1996
p246
aVUnited States of America v Ireland at Atlanta, Jan 6, 1996
p247
aVUnited States of America v Ireland at Atlanta, Jan 6, 1996
p248
aVUnited States of America v Ireland at Atlanta, Jan 6, 1996
p249
aVUnited States of America v Canada at San Francisco, May 11, 1996
p250
aVHong Kong v United States of America at Hong Kong, Jun 8, 1996
p251
aVJapan v United States of America at Tokyo, Jun 16, 1996
p252
aVJapan v United States of America at Tokyo, Jun 16, 1996
p253
aVJapan v United States of America at Tokyo, Jun 16, 1996
p254
aVUnited States of America v Hong Kong at San Francisco, Jun 29, 1996
p255
aVUnited States of America v Hong Kong at San Francisco, Jun 29, 1996
p256
aVArgentina v United States of America at Nepean, Sep 14, 1996
p257
aVCanada v United States of America at Hamilton, Sep 18, 1996
p258
aVUnited States of America v Uruguay at Markham, Sep 21, 1996
p259
aVUnited States of America v Uruguay at Markham, Sep 21, 1996
p260
aVWales v United States of America at Cardiff, Jan 11, 1997
p261
aVWales v United States of America at Cardiff, Jan 11, 1997
p262
aVCanada v United States of America at Vancouver, May 10, 1997
p263
aVCanada v United States of America at Vancouver, May 10, 1997
p264
aVCanada v United States of America at Vancouver, May 10, 1997
p265
aVHong Kong v United States of America at Hong Kong, May 17, 1997
p266
aVUnited States of America v Japan at San Francisco, Jun 7, 1997
p267
aVUnited States of America v Hong Kong at San Francisco, Jun 14, 1997
p268
aVUnited States of America v Hong Kong at San Francisco, Jun 14, 1997
p269
aVPortugal v United States of America at Lisbon, Apr 8, 1998
p270
aVPortugal v United States of America at Lisbon, Apr 8, 1998
p271
aVSpain v United States of America at El Puerto de Santa Maria, Apr 12, 1998
p272
aVCanada v United States of America at Vancouver, May 23, 1998
p273
aVCanada v United States of America at Vancouver, May 23, 1998
p274
aVUnited States of America v Canada at Burlington, Jun 6, 1998
p275
aVUnited States of America v Canada at Burlington, Jun 6, 1998
p276
aVUnited States of America v Canada at Burlington, Jun 6, 1998
p277
aVUnited States of America v Canada at Burlington, Jun 6, 1998
p278
aVUnited States of America v Hong Kong at San Francisco, Jun 20, 1998
p279
aVUnited States of America v Hong Kong at San Francisco, Jun 20, 1998
p280
aVArgentina v United States of America at Buenos Aires, Aug 15, 1998
p281
aVArgentina v United States of America at Buenos Aires, Aug 15, 1998
p282
aVCanada v United States of America at Buenos Aires, Aug 18, 1998
p283
aVCanada v United States of America at Buenos Aires, Aug 18, 1998
p284
aVUnited States of America v Tonga at San Francisco, May 15, 1999
p285
aVUnited States of America v Tonga at San Francisco, May 15, 1999
p286
aVCanada v United States of America at Toronto, Jun 19, 1999
p287
aVEngland v United States of America at Twickenham, Aug 21, 1999
p288
aVAustralia v United States of America at Limerick, Oct 14, 1999
p289
aVAustralia v United States of America at Limerick, Oct 14, 1999
p290
aVJapan v United States of America at Osaka, May 27, 2000
p291
aVJapan v United States of America at Osaka, May 27, 2000
p292
aVJapan v United States of America at Osaka, May 27, 2000
p293
aVJapan v United States of America at Osaka, May 27, 2000
p294
aVJapan v United States of America at Osaka, May 27, 2000
p295
aVUnited States of America v Canada at Manchester, Jun 3, 2000
p296
aVUnited States of America v Canada at Manchester, Jun 3, 2000
p297
aVUnited States of America v Canada at Manchester, Jun 3, 2000
p298
aVUnited States of America v Ireland at Manchester, Jun 10, 2000
p299
aVFiji v United States of America at Apia, Jun 30, 2000
p300
aVFiji v United States of America at Apia, Jun 30, 2000
p301
aVTonga v United States of America at Nuku A'lofa, Jul 7, 2000
p302
aVTonga v United States of America at Nuku A'lofa, Jul 7, 2000
p303
aVTonga v United States of America at Nuku A'lofa, Jul 7, 2000
p304
aVUnited States of America v Samoa at San Francisco, Jul 15, 2000
p305
aVScotland v United States of America at Murrayfield, Nov 4, 2000
p306
aVWales v United States of America at Millennium Stadium, Nov 18, 2000
p307
aVWales v United States of America at Millennium Stadium, Nov 18, 2000
p308
aVCanada v United States of America at Kingston, May 19, 2001
p309
aVArgentina v United States of America at Hamilton, May 23, 2001
p310
aVUnited States of America v England at San Francisco, Jun 16, 2001
p311
aVUnited States of America v South Africa at Houston, Dec 1, 2001
p312
aVUnited States of America v South Africa at Houston, Dec 1, 2001
p313
aVUnited States of America v Scotland at San Francisco, Jun 22, 2002
p314
aVUnited States of America v Scotland at San Francisco, Jun 22, 2002
p315
aVUnited States of America v Scotland at San Francisco, Jun 22, 2002
p316
aVUnited States of America v Scotland at San Francisco, Jun 22, 2002
p317
aVUnited States of America v Scotland at San Francisco, Jun 22, 2002
p318
aVUnited States of America v Scotland at San Francisco, Jun 22, 2002
p319
aVCanada v United States of America at Markham, Jun 29, 2002
p320
aVCanada v United States of America at Markham, Jun 29, 2002
p321
aVUnited States of America v Chile at Salt Lake City, Aug 10, 2002
p322
aVChile v United States of America at Santiago, Aug 24, 2002
p323
aVSpain v United States of America at Madrid, Apr 12, 2003
p324
aVSpain v United States of America at Madrid, Apr 12, 2003
p325
aVUnited States of America v Spain at Fort Lauderdale, Apr 27, 2003
p326
aVUnited States of America v Spain at Fort Lauderdale, Apr 27, 2003
p327
aVUnited States of America v Spain at Fort Lauderdale, Apr 27, 2003
p328
aVUnited States of America v Japan at San Francisco, May 17, 2003
p329
aVEngland A v United States of America at Vancouver, Jun 21, 2003
p330
aVEngland A v United States of America at Vancouver, Jun 28, 2003
p331
aVArgentina v United States of America at Buenos Aires, Aug 23, 2003
p332
aVArgentina v United States of America at Buenos Aires, Aug 23, 2003
p333
aVArgentina v United States of America at Buenos Aires, Aug 23, 2003
p334
aVArgentina v United States of America at Buenos Aires, Aug 23, 2003
p335
aVFiji v United States of America at Brisbane, Oct 15, 2003
p336
aVCanada v United States of America at Tokyo, May 27, 2004
p337
aVCanada v United States of America at Tokyo, May 27, 2004
p338
aVRussia v United States of America at Tokyo, May 30, 2004
p339
aVCanada v United States of America at Edmonton, Jun 19, 2004
p340
aVItaly v United States of America at Biella-in-Piedmont, Nov 27, 2004
p341
aVCanada v United States of America at Tokyo, May 25, 2005
p342
aVCanada v United States of America at Tokyo, May 25, 2005
p343
aVCanada v United States of America at Tokyo, May 25, 2005
p344
aVCanada v United States of America at Tokyo, May 25, 2005
p345
aVCanada v United States of America at Tokyo, May 25, 2005
p346
aVCanada v United States of America at Tokyo, May 25, 2005
p347
aVRomania v United States of America at Tokyo, May 29, 2005
p348
aVRomania v United States of America at Tokyo, May 29, 2005
p349
aVUnited States of America v Wales at Hartford, Jun 4, 2005
p350
aVArgentina Jaguares v United States of America at Edmonton, Jun 19, 2005
p351
aVArgentina Jaguares v United States of America at Edmonton, Jun 19, 2005
p352
aVCanada v United States of America at Edmonton, Jun 26, 2005
p353
aVUnited States of America v Ireland A at Santa Clara, Jun 3, 2006
p354
aVUnited States of America v Ireland A at Santa Clara, Jun 3, 2006
p355
aVUnited States of America v Ireland A at Santa Clara, Jun 3, 2006
p356
aVUnited States of America v Ireland A at Santa Clara, Jun 3, 2006
p357
aVUnited States of America v Ireland A at Santa Clara, Jun 3, 2006
p358
aVUnited States of America v Ireland A at Santa Clara, Jun 3, 2006
p359
aVUnited States of America v Ireland A at Santa Clara, Jun 3, 2006
p360
aVUnited States of America v Ireland A at Santa Clara, Jun 3, 2006
p361
aVUnited States of America v Ireland A at Santa Clara, Jun 3, 2006
p362
aVUnited States of America v New Zealand Maori at Santa Clara, Jun 7, 2006
p363
aVUnited States of America v New Zealand Maori at Santa Clara, Jun 7, 2006
p364
aVCanada v United States of America at Edmonton, Jun 17, 2006
p365
aVUnited States of America v Barbados at Santa Clara, Jul 1, 2006
p366
aVCanada v United States of America at St John's, Aug 12, 2006
p367
aVCanada v United States of America at St John's, Aug 12, 2006
p368
aVCanada v United States of America at St John's, Aug 12, 2006
p369
aVCanada v United States of America at St John's, Aug 12, 2006
p370
aVUruguay v United States of America at Montevideo, Sep 30, 2006
p371
aVUruguay v United States of America at Montevideo, Sep 30, 2006
p372
aVEngland A v United States of America at Stockport, May 18, 2007
p373
aVEngland A v United States of America at Stockport, May 18, 2007
p374
aVEngland A v United States of America at Stockport, May 18, 2007
p375
aVEngland A v United States of America at Stockport, May 18, 2007
p376
aVEngland A v United States of America at Stockport, May 18, 2007
p377
aVEngland A v United States of America at Stockport, May 18, 2007
p378
aVScotland A v United States of America at Henley, May 23, 2007
p379
aVScotland A v United States of America at Henley, May 23, 2007
p380
aVEngland v United States of America at Lens, Sep 8, 2007
p381
aVEngland v United States of America at Lens, Sep 8, 2007
p382
aVEngland v United States of America at Lens, Sep 8, 2007
p383
aVSouth Africa v United States of America at Montpellier, Sep 30, 2007
p384
aVSouth Africa v United States of America at Montpellier, Sep 30, 2007
p385
aVEngland A v United States of America at Ottawa, Jun 7, 2008
p386
aVEngland A v United States of America at Ottawa, Jun 7, 2008
p387
aVEngland A v United States of America at Ottawa, Jun 7, 2008
p388
aVEngland A v United States of America at Ottawa, Jun 7, 2008
p389
aVEngland A v United States of America at Ottawa, Jun 7, 2008
p390
aVEngland A v United States of America at Ottawa, Jun 7, 2008
p391
aVIreland A v United States of America at Kingston, Jun 11, 2008
p392
aVIreland A v United States of America at Kingston, Jun 11, 2008
p393
aVUnited States of America v Uruguay at Sandy, Nov 8, 2008
p394
aVUnited States of America v Uruguay at Sandy, Nov 8, 2008
p395
aVUnited States of America v Uruguay at Sandy, Nov 8, 2008
p396
aVUnited States of America v Uruguay at Sandy, Nov 8, 2008
p397
aVJapan v United States of America at Nagoya, Nov 16, 2008
p398
aVJapan v United States of America at Nagoya, Nov 16, 2008
p399
aVJapan v United States of America at Tokyo, Nov 22, 2008
p400
aVJapan v United States of America at Tokyo, Nov 22, 2008
p401
aVUnited States of America v Ireland at Santa Clara, May 31, 2009
p402
aVUnited States of America v Ireland at Santa Clara, May 31, 2009
p403
aVUnited States of America v Ireland at Santa Clara, May 31, 2009
p404
aVUnited States of America v Ireland at Santa Clara, May 31, 2009
p405
aVUnited States of America v Ireland at Santa Clara, May 31, 2009
p406
aVUnited States of America v Ireland at Santa Clara, May 31, 2009
p407
aVUnited States of America v Ireland at Santa Clara, May 31, 2009
p408
aVUnited States of America v Ireland at Santa Clara, May 31, 2009
p409
aVUnited States of America v Wales at Chicago, Jun 6, 2009
p410
aVUnited States of America v Georgia at Commerce City, Jun 21, 2009
p411
aVUruguay v United States of America at Montevideo, Nov 14, 2009
p412
aVUruguay v United States of America at Montevideo, Nov 14, 2009
p413
aVUnited States of America v Uruguay at Lauderhill, Nov 21, 2009
p414
aVUnited States of America v Russia at Glendale, Jun 5, 2010
p415
aVUnited States of America v Russia at Glendale, Jun 5, 2010
p416
aVUnited States of America v Russia at Glendale, Jun 5, 2010
p417
aVUnited States of America v Russia at Glendale, Jun 5, 2010
p418
aVPortugal v United States of America at Lisbon, Nov 13, 2010
p419
aVGeorgia v United States of America at Tbilisi, Nov 27, 2010
p420
aVTonga v United States of America at Esher, Jun 8, 2011
p421
aVTonga v United States of America at Esher, Jun 8, 2011
p422
aVTonga v United States of America at Esher, Jun 8, 2011
p423
aVRussia v United States of America at Worcester, Jun 18, 2011
p424
aVJapan v United States of America at Tokyo, Aug 21, 2011
p425
aVJapan v United States of America at Tokyo, Aug 21, 2011
p426
aVCanada v United States of America at Kingston, Jun 9, 2012
p427
aVCanada v United States of America at Kingston, Jun 9, 2012
p428
aVCanada v United States of America at Kingston, Jun 9, 2012
p429
aVCanada v United States of America at Kingston, Jun 9, 2012
p430
aVUnited States of America v Georgia at Glendale, Jun 16, 2012
p431
aVUnited States of America v Georgia at Glendale, Jun 16, 2012
p432
aVRussia v United States of America at Colwyn Bay, Nov 9, 2012
p433
aVRussia v United States of America at Colwyn Bay, Nov 9, 2012
p434
aVRussia v United States of America at Colwyn Bay, Nov 9, 2012
p435
aVRussia v United States of America at Colwyn Bay, Nov 9, 2012
p436
aVTonga v United States of America at Colwyn Bay, Nov 17, 2012
p437
aVRomania v United States of America at Bucharest, Nov 24, 2012
p438
aVCanada v United States of America at Edmonton, May 25, 2013
p439
aVCanada v United States of America at Edmonton, May 25, 2013
p440
aVCanada v United States of America at Edmonton, May 25, 2013
p441
aVUnited States of America v Tonga at Carson, Jun 14, 2013
p442
aVFiji v United States of America at Nagoya, Jun 19, 2013
p443
aVUnited States of America v Canada at Charleston, Aug 17, 2013
p444
aVUnited States of America v Canada at Charleston, Aug 17, 2013
p445
aVGeorgia v United States of America at Rustavi, Nov 16, 2013
p446
aVGeorgia v United States of America at Rustavi, Nov 16, 2013
p447
aVRussia v United States of America at Barnet, Nov 23, 2013
p448
aVRussia v United States of America at Barnet, Nov 23, 2013
p449
aVUruguay v United States of America at Montevideo, Mar 22, 2014
p450
aVUruguay v United States of America at Montevideo, Mar 22, 2014
p451
aVUruguay v United States of America at Montevideo, Mar 22, 2014
p452
aVUnited States of America v Scotland at Houston, Jun 7, 2014
p453
aVUnited States of America v Scotland at Houston, Jun 7, 2014
p454
aVUnited States of America v Canada at Sacramento, Jun 21, 2014
p455
aVUnited States of America v New Zealand at Chicago, Nov 1, 2014
p456
aVRomania v United States of America at Bucharest, Nov 8, 2014
p457
aVRomania v United States of America at Bucharest, Nov 8, 2014
p458
aVRomania v United States of America at Bucharest, Nov 8, 2014
p459
aVRomania v United States of America at Bucharest, Nov 8, 2014
p460
aVFiji v United States of America at Vannes, Nov 21, 2014
p461
aVUnited States of America v Samoa at San Jose, Jul 18, 2015
p462
aVUnited States of America v Samoa at San Jose, Jul 18, 2015
p463
aVUnited States of America v Japan at Sacramento, Jul 24, 2015
p464
aVTonga v United States of America at Toronto, Jul 29, 2015
p465
aVCanada v United States of America at Nepean, Aug 22, 2015
p466
aVSouth Africa v United States of America at London, Oct 7, 2015
p467
aVUnited States of America v Canada at TX, Feb 13, 2016
p468
a.