(lp1
S'A.E. Allen'
p2
aS'J. Arrell'
p3
aS'Charlie Austin'
p4
aS'Ben Erb'
p5
aS'Deke Gard'
p6
aS'P.R. Harrigan'
p7
aS'W.N. King'
p8
aS'J.L. McKim'
p9
aS'E. Momson'
p10
aS'L.M. Morris'
p11
aS'R.M. Noble'
p12
aS'S.B. Peart'
p13
aS'A.M. Sanborn'
p14
aS'K.L. Schaupp'
p15
aS'W.L. Smith'
p16
aS'R.R. Blase'
p17
aS'Danny Carroll'
p18
aS'Louis Cass'
p19
aS'W.P. Darsie'
p20
aS'G. Glasscock'
p21
aS'E.B. Hall'
p22
aS'Mow Mitchell'
p23
aS'J.A. Ramage'
p24
aS'J.C. Urban'
p25
aS'G. Voight'
p26
aS'A. Knowles'
p27
aS'H.R. Stolz'
p28
aS'Charlie Doe'
p29
aS'George Fish'
p30
aS'Jim Fitzpatrick'
p31
aS'Lou Hunter'
p32
aS'Morris Kirksey'
p33
aS'Charles Mehan'
p34
aS'John Muldoon'
p35
aS"John O'Neil"
p36
aS'Jack Patrick'
p37
aS'Cornelius Righter'
p38
aS'Rudy Scholz'
p39
aS'Dink Templeton'
p40
aS'Charles Tilden'
p41
aS'Heaton Wrenn'
p42
aS'G.W. Davis'
p43
aS'Colby Slater'
p44
aS'Vidal'
p45
aS'H. von Schmidt'
p46
aS'D. Wallace'
p47
aS'J. Winston'
p48
aS'Phil Clark'
p49
aS'Norman Cleaveland'
p50
aS'Bob Devereaux'
p51
aS'George Dixon'
p52
aS'Ed Graff'
p53
aS'Dick Hyland'
p54
aS'Caesar Mannelli'
p55
aS'Norm Slater'
p56
aS'Ed Turkington'
p57
aS'Alan Valentine'
p58
aS'Alan Williams'
p59
aS'Dudley de Groot'
p60
aS'Linn Farrish'
p61
aS'William Rogers'
p62
aS'Steve Auerbach'
p63
aS'Robbie Bordley'
p64
aS'Gary Brackett'
p65
aS'Del Chipman'
p66
aS'Fred Khasigian'
p67
aS'Tom Klein'
p68
aS'Skip Niebauer'
p69
aS'Mickey Ording'
p70
aS'Kip Oxman'
p71
aS'Greg Schneeweis'
p72
aS'Tom Selfridge'
p73
aS'David Stephenson'
p74
aS'Eric Swanson'
p75
aS'Craig Sweeney'
p76
aS'Mike Swiderski'
p77
aS'Bill Fraumann'
p78
aS'Steve Gray'
p79
aS'Don Guest'
p80
aS'Dennis Murphy'
p81
aS"Morris O'Donnell"
p82
aS'Terry Scott'
p83
aS'Woody Stone'
p84
aS'Danny Wack'
p85
aS'Barry Waite'
p86
aS'Bob Causey'
p87
aS'Jay Hanson'
p88
aS'Bruce Henderson'
p89
aS'Dennis Jablonski'
p90
aS'Scott Kelso'
p91
aS'Mike Liscovitz'
p92
aS'Jeff Lombard'
p93
aS'Mike Sherlock'
p94
aS'Clarence Culpepper'
p95
aS'Rob Duncanson'
p96
aS'Mike Halliday'
p97
aS'Eric Parthmore'
p98
aS'Tom Altemeier'
p99
aS'Brad Andrews'
p100
aS'Gerry Kelleher'
p101
aS'Jessie Lopez'
p102
aS'Gary Wilson'
p103
aS'Rick Bailey'
p104
aS'Dave Briley'
p105
aS'Jack Clark'
p106
aS'Dick Cooke'
p107
aS'Mike Fanucchi'
p108
aS'Jeff Hollings'
p109
aS'Boyd Morrison'
p110
aS'Chimere Okezie'
p111
aS'Joe Sheitlin'
p112
aS'John Fowler'
p113
aS'Tim Moser'
p114
aS'Mike Purcell'
p115
aS'Brian Swords'
p116
aS'Douglas Parks'
p117
aS'Tom Smith'
p118
aS'Lin Walton'
p119
aS'Ed Burlingham'
p120
aS'Chip Howard'
p121
aS"Tim O'Brien"
p122
aS'Denis Shanagher'
p123
aS'Art Ward'
p124
aS'Roy Helu'
p125
aS'Gary Lambert'
p126
aS'Steve Finkel'
p127
aS'Jamie Grant'
p128
aS'Dave Bateman'
p129
aS'John Jelaco'
p130
aS'Bo Meyersieck'
p131
aS'Kirk Miles'
p132
aS'Ian Gunn'
p133
aS'Terry Whelan'
p134
aS'Fred Paoli'
p135
aS'Rick Crivellone'
p136
aS'Ray Nelson'
p137
aS'Mark Ormsby'
p138
aS'Doug Straehley'
p139
aS'Blane Warhurst'
p140
aS'Jake Burkhardt'
p141
aS'Bill Shiflet'
p142
aS'Neal Brendel'
p143
aS'Mark Deaton'
p144
aS'Jon Hartman'
p145
aS'Ian Loveseth'
p146
aS'Mike Caulder'
p147
aS'John Everett'
p148
aS'Butch Horwath'
p149
aS'Dave Jenkinson'
p150
aS'Whit Everett'
p151
aS'Kevin Higgins'
p152
aS'Mike Inns'
p153
aS'Willie Jefferson'
p154
aS'Kevin Swords'
p155
aS'Bruce Monroe'
p156
aS'Joe Clarkson'
p157
aS'Dave Dickson'
p158
aS'Lance Manga'
p159
aS'Brian Vizard'
p160
aS'Dave Horton'
p161
aS'John Mickel'
p162
aS'Tommy Vinick'
p163
aS'Alec Montgomery'
p164
aS'Bill Bernhard'
p165
aS'Gary Hein'
p166
aS'Mike Saunders'
p167
aS'Pat Johnson'
p168
aS'Tony Ridnell'
p169
aS'Mark Carlson'
p170
aS'Chris Doherty'
p171
aS'Jeff Peter'
p172
aS'Mark Williams'
p173
aS'Ron Zenker'
p174
aS'Sam Vaka'
p175
aS'Shawn Lipman'
p176
aS"Chris O'Brien"
p177
aS'Mike Smith'
p178
aS'Barry Williams'
p179
aS'Bill Leversee'
p180
aS'Knutson'
p181
aS'Rob Farley'
p182
aS'Gerry McDonald'
p183
aS'Mike Siano'
p184
aS'Russ Isaac'
p185
aS'Chris Lippert'
p186
aS'Brian Corcoran'
p187
aS'Barry Daily'
p188
aS'Tom McCormack'
p189
aS'Steve LaPorta'
p190
aS'Norm Mottram'
p191
aS'Mark Sawicki'
p192
aS'Joe Burke'
p193
aS'Mike de Jong'
p194
aS'Don James'
p195
aS'Rory Lewis'
p196
aS'Chris Williams'
p197
aS'Dennis Gonzalez'
p198
aS'Tony Flay'
p199
aS'Eric Whitaker'
p200
aS'Bill Hayward'
p201
aS'Ben Hough'
p202
aS'Glenn Judge'
p203
aS'Mark Pidcock'
p204
aS'Jeff Schraml'
p205
aS'Chuck Tunnacliffe'
p206
aS'Paul Sheehy'
p207
aS'Jay Wilkerson'
p208
aS'Graham Downes'
p209
aS'James Keller'
p210
aS'Ramon Samaniego'
p211
aS'Rich Schurfield'
p212
aS'Mark Gale'
p213
aS'Greg Goodman'
p214
aS'Brannen Smoot'
p215
aS'David Steinbauer'
p216
aS'B. Tofaeono'
p217
aS'Mike Waterman'
p218
aS'Vaea Anitoni'
p219
aS'Mark Vandermolen'
p220
aS'Andre Bachelet'
p221
aS'Tom Billups'
p222
aS'Chris Campbell'
p223
aS'Wayne Chai'
p224
aS'Brian Geraghty'
p225
aS'Tim Petersen'
p226
aS'Chris Schlereth'
p227
aS'Maika Sika'
p228
aS'Rob Randell'
p229
aS'Mark Scharrenberg'
p230
aS'Ed Schram'
p231
aS'Richard Tardits'
p232
aS'Steve Hiatt'
p233
aS'Rob Lumkong'
p234
aS'Tomasi Takau'
p235
aS'Scott Bracken'
p236
aS'Ray Green'
p237
aS'Dan Lyle'
p238
aS'Matt Alexander'
p239
aS'Mike Fabling'
p240
aS'Aaron Freeman'
p241
aS'Jon Holtzman'
p242
aS'Ray Lehner'
p243
aS'Joe Santos'
p244
aS'Pat Malloy'
p245
aS'Malakai Delai'
p246
aS'Luke Gross'
p247
aS'Joe Rissone'
p248
aS'Jason Walker'
p249
aS'Cliff Vogl'
p250
aS'Alec Parker'
p251
aS'Sean Allen'
p252
aS'Tim Kluempers'
p253
aS'Lenny Sanft'
p254
aS'Jared Hopkins'
p255
aS'Bill LeClerc'
p256
aS'Juan Grobler'
p257
aS'Bob Lockrem'
p258
aS'Kevin Dalzell'
p259
aS'Dave Hodges'
p260
aS'Brian Hightower'
p261
aS'Chris Morrow'
p262
aS'Tini Saulala'
p263
aS'Mike Stanaway'
p264
aS'Chip Curtis'
p265
aS'Kurt Shuman'
p266
aS'Mika McLeod'
p267
aS'Dan Kennedy'
p268
aS'Scott Yungling'
p269
aS'David Care'
p270
aS'John McBride'
p271
aS'Andre Blom'
p272
aS'Jason Raven'
p273
aS'Bart Furrow'
p274
aS'C.D. Labounty'
p275
aS"Tasi Mo'unga"
p276
aS'Shaun Paga'
p277
aS'George Sucher'
p278
aS'Malakai Tabuvuya'
p279
aS'Britt Howard'
p280
aS'Doug Gillies'
p281
aS'Kirk Khasigian'
p282
aS'Bob LeClerc'
p283
aS'Ian Stevens'
p284
aS'Philippe Farner'
p285
aS'David Niu'
p286
aS'Joe Clayton'
p287
aS"Marc l'Huillier"
p288
aS'Jesse Coulson'
p289
aS'Eric Reed'
p290
aS'Phillip Eloff'
p291
aS'Matt Kane'
p292
aS'Kort Schubert'
p293
aS'Grant Wells'
p294
aS'Don Younger'
p295
aS'Tom Kelleher'
p296
aS'John Burke'
p297
aS'Robbie Flynn'
p298
aS'Link Wilfley'
p299
aS'Olo Fifita'
p300
aS'Mike MacDonald'
p301
aS'Roger Grant'
p302
aS'Jason Gillam'
p303
aS'Mose Timoteo'
p304
aS'Jovesa Naivalu'
p305
aS'Paul Still'
p306
aS'Jason Keyter'
p307
aS'Alex Magleby'
p308
aS'John Buchholz'
p309
aS'Kimball Kjar'
p310
aS'Jone Naqica'
p311
aS'Dan Dorsey'
p312
aS'Brian Surgener'
p313
aS'Mike Hercus'
p314
aS'Aaron Satchwell'
p315
aS'Dan Anderson'
p316
aS'Conrad Hodgson'
p317
aS'Andy McGarry'
p318
aS'John Tarpoff'
p319
aS'David Fee'
p320
aS'Cayo Nicolau'
p321
aS'Chris Miller'
p322
aS'Al Lakomskis'
p323
aS'Kain Cross'
p324
aS'Riaan van Zyl'
p325
aS'Paul Emerick'
p326
aS'Mark Griffin'
p327
aS'Christian Long'
p328
aS'Jacob Waasdorp'
p329
aS'Jurie Gouws'
p330
aS'Matt Sherman'
p331
aS'Gerhard Klerck'
p332
aS'Richard Liddington'
p333
aS'Todd Clever'
p334
aS'Matt Wyatt'
p335
aS'Salesi Sika'
p336
aS'Albert Tuipulotu'
p337
aS'David Williams'
p338
aS'Francois Viljoen'
p339
aS'Tony Petruzzella'
p340
aS'Chris Osentowski'
p341
aS'James Lik'
p342
aS'Mike Palefau'
p343
aS'Andrew Ryland'
p344
aS'Louis Stanfill'
p345
aS'John Hartman'
p346
aS'Mike Mangan'
p347
aS'Mike Hobson'
p348
aS'Doug Rowe'
p349
aS'Mike French'
p350
aS'Scott Jones'
p351
aS'Jason Pye'
p352
aS'Carl Hansen'
p353
aS'Vaha Esikia'
p354
aS'Jeff Hullinger'
p355
aS'Owen Lentz'
p356
aS'Tyson Meek'
p357
aS'Pate Tuilevuka'
p358
aS'Mark Aylor'
p359
aS'Brian Barnard'
p360
aS'Patrick Bell'
p361
aS'Brian Schoener'
p362
aS'Jason Kelly'
p363
aS'Jeremy Nash'
p364
aS'Scott Lawrence'
p365
aS'Hayden Mexted'
p366
aS'Justin Stencel'
p367
aS'Chad Erskine'
p368
aS'Adam Russell'
p369
aS'Jon Vitale'
p370
aS'Blake Burdette'
p371
aS'Ron Rosser'
p372
aS'Mark Crick'
p373
aS'Nese Malifa'
p374
aS'Pat Quinn'
p375
aS'Chris Wyles'
p376
aS'Tui Osborne'
p377
aS'Ben Wiedemer'
p378
aS'Inaki Basauri Flores'
p379
aS'Dan Payne'
p380
aS'Henry Bloomfield'
p381
aS'Taku Ngwenya'
p382
aS'Mate Moeakiola'
p383
aS'Thretton Palamo'
p384
aS'Mike Petri'
p385
aS'Gavin DeBartolo'
p386
aS'John van der Giessen'
p387
aS'Brian Doyle'
p388
aS'Saimone Laulaupeaalu'
p389
aS'Jason Lett'
p390
aS'Chad Slaby'
p391
aS'Justin Boyd'
p392
aS'Robbie Shaw'
p393
aS'Junior Sifa'
p394
aS'Hayden Smith'
p395
aS'JJ Gagiano'
p396
aS'Shawn Pittman'
p397
aS'Andrew Suniula'
p398
aS'Joe Welch'
p399
aS'Brian Lemay'
p400
aS'Courtney McKay'
p401
aS'Chris Biller'
p402
aS'Peter Dahl'
p403
aS'Nic Johnson'
p404
aS'Will Johnson'
p405
aS'Roland Suniula'
p406
aS'Kevin Swiryn'
p407
aS'Ata Malifa'
p408
aS'Tim Usasz'
p409
aS'Brian McClenahan'
p410
aS'Colin Hawley'
p411
aS'Phil Thiel'
p412
aS'Jake Sprague'
p413
aS'Pat Danahy'
p414
aS'Matt Hawkins'
p415
aS'Scott LaValla'
p416
aS'Tony Purpura'
p417
aS'Volney Rouse'
p418
aS'Seta Tuilevuka'
p419
aS'Samu Manoa'
p420
aS'Tai Enosa'
p421
aS'Eric Fry'
p422
aS'Troy Hall'
p423
aS'Blaine Scully'
p424
aS'James Paterson'
p425
aS'Ryan Chapman'
p426
aS'Drew Durutalo'
p427
aS'Will Holder'
p428
aS'Luke Hume'
p429
aS'Taylor Mokate'
p430
aS'Derek Asbun'
p431
aS'Dre Liufau'
p432
aS'Cornelius Dirksen'
p433
aS"Toby L'Estrange"
p434
aS'John Quill'
p435
aS'Zach Fenoglio'
p436
aS'Zach Pangelinan'
p437
aS'Graham Harriman'
p438
aS'Adam Siddall'
p439
aS'Seamus Kelly'
p440
aS'Liam Murphy'
p441
aS'Nick Wallace'
p442
aS'Cam Dolan'
p443
aS'Titi Lamositele'
p444
aS'Folau Niua'
p445
aS'Tim Maupin'
p446
aS'Olive Kilifi'
p447
aS'Tai Tuisamoa'
p448
aS'Shaun Davies'
p449
aS'Tom Coolican'
p450
aS'Kyle Sumsion'
p451
aS'Shalom Suniula'
p452
aS'Danny Barrett'
p453
aS'Chad London'
p454
aS'Brett Thompson'
p455
aS'Tim Stanfill'
p456
aS'Matt Trouville'
p457
aS'John Cullen'
p458
aS'Greg Peterson'
p459
aS'Ben Tarr'
p460
aS'Ronnie McLean-Dents'
p461
a.