(lp1
S'http://www.espnscrum.com/other/rugby/player/2298.html'
p2
aS'http://www.espnscrum.com/other/rugby/player/2299.html'
p3
aS'http://www.espnscrum.com/other/rugby/player/2300.html'
p4
aS'http://www.espnscrum.com/other/rugby/player/2301.html'
p5
aS'http://www.espnscrum.com/other/rugby/player/2303.html'
p6
aS'http://www.espnscrum.com/other/rugby/player/2304.html'
p7
aS'http://www.espnscrum.com/other/rugby/player/2306.html'
p8
aS'http://www.espnscrum.com/other/rugby/player/2307.html'
p9
aS'http://www.espnscrum.com/other/rugby/player/2309.html'
p10
aS'http://www.espnscrum.com/other/rugby/player/2310.html'
p11
aS'http://www.espnscrum.com/other/rugby/player/2312.html'
p12
aS'http://www.espnscrum.com/other/rugby/player/2313.html'
p13
aS'http://www.espnscrum.com/other/rugby/player/2316.html'
p14
aS'http://www.espnscrum.com/other/rugby/player/2317.html'
p15
aS'http://www.espnscrum.com/other/rugby/player/2318.html'
p16
aS'http://www.espnscrum.com/other/rugby/player/2447.html'
p17
aS'http://www.espnscrum.com/other/rugby/player/1987.html'
p18
aS'http://www.espnscrum.com/other/rugby/player/2449.html'
p19
aS'http://www.espnscrum.com/other/rugby/player/2450.html'
p20
aS'http://www.espnscrum.com/other/rugby/player/2451.html'
p21
aS'http://www.espnscrum.com/other/rugby/player/2453.html'
p22
aS'http://www.espnscrum.com/other/rugby/player/2456.html'
p23
aS'http://www.espnscrum.com/other/rugby/player/2457.html'
p24
aS'http://www.espnscrum.com/other/rugby/player/2459.html'
p25
aS'http://www.espnscrum.com/other/rugby/player/2460.html'
p26
aS'http://www.espnscrum.com/other/rugby/player/2455.html'
p27
aS'http://www.espnscrum.com/other/rugby/player/2458.html'
p28
aS'http://www.espnscrum.com/other/rugby/player/2711.html'
p29
aS'http://www.espnscrum.com/other/rugby/player/87455.html'
p30
aS'http://www.espnscrum.com/other/rugby/player/2712.html'
p31
aS'http://www.espnscrum.com/other/rugby/player/87456.html'
p32
aS'http://www.espnscrum.com/other/rugby/player/87457.html'
p33
aS'http://www.espnscrum.com/other/rugby/player/2714.html'
p34
aS'http://www.espnscrum.com/other/rugby/player/2715.html'
p35
aS'http://www.espnscrum.com/other/rugby/player/2716.html'
p36
aS'http://www.espnscrum.com/other/rugby/player/3127.html'
p37
aS'http://www.espnscrum.com/other/rugby/player/87458.html'
p38
aS'http://www.espnscrum.com/other/rugby/player/2717.html'
p39
aS'http://www.espnscrum.com/other/rugby/player/87459.html'
p40
aS'http://www.espnscrum.com/other/rugby/player/2719.html'
p41
aS'http://www.espnscrum.com/other/rugby/player/2724.html'
p42
aS'http://www.espnscrum.com/other/rugby/player/2710.html'
p43
aS'http://www.espnscrum.com/other/rugby/player/2718.html'
p44
aS'http://www.espnscrum.com/other/rugby/player/2720.html'
p45
aS'http://www.espnscrum.com/other/rugby/player/2721.html'
p46
aS'http://www.espnscrum.com/other/rugby/player/2722.html'
p47
aS'http://www.espnscrum.com/other/rugby/player/2723.html'
p48
aS'http://www.espnscrum.com/other/rugby/player/87460.html'
p49
aS'http://www.espnscrum.com/other/rugby/player/3119.html'
p50
aS'http://www.espnscrum.com/other/rugby/player/3121.html'
p51
aS'http://www.espnscrum.com/other/rugby/player/3122.html'
p52
aS'http://www.espnscrum.com/other/rugby/player/3124.html'
p53
aS'http://www.espnscrum.com/other/rugby/player/3125.html'
p54
aS'http://www.espnscrum.com/other/rugby/player/3126.html'
p55
aS'http://www.espnscrum.com/other/rugby/player/87461.html'
p56
aS'http://www.espnscrum.com/other/rugby/player/87462.html'
p57
aS'http://www.espnscrum.com/other/rugby/player/3129.html'
p58
aS'http://www.espnscrum.com/other/rugby/player/87463.html'
p59
aS'http://www.espnscrum.com/other/rugby/player/3120.html'
p60
aS'http://www.espnscrum.com/other/rugby/player/3123.html'
p61
aS'http://www.espnscrum.com/other/rugby/player/3128.html'
p62
aS'http://www.espnscrum.com/other/rugby/player/8473.html'
p63
aS'http://www.espnscrum.com/other/rugby/player/8474.html'
p64
aS'http://www.espnscrum.com/other/rugby/player/8475.html'
p65
aS'http://www.espnscrum.com/other/rugby/player/8476.html'
p66
aS'http://www.espnscrum.com/other/rugby/player/8477.html'
p67
aS'http://www.espnscrum.com/other/rugby/player/8478.html'
p68
aS'http://www.espnscrum.com/other/rugby/player/8479.html'
p69
aS'http://www.espnscrum.com/other/rugby/player/8480.html'
p70
aS'http://www.espnscrum.com/other/rugby/player/8481.html'
p71
aS'http://www.espnscrum.com/other/rugby/player/8483.html'
p72
aS'http://www.espnscrum.com/other/rugby/player/8484.html'
p73
aS'http://www.espnscrum.com/other/rugby/player/8485.html'
p74
aS'http://www.espnscrum.com/other/rugby/player/8486.html'
p75
aS'http://www.espnscrum.com/other/rugby/player/8487.html'
p76
aS'http://www.espnscrum.com/other/rugby/player/8488.html'
p77
aS'http://www.espnscrum.com/other/rugby/player/8546.html'
p78
aS'http://www.espnscrum.com/other/rugby/player/8547.html'
p79
aS'http://www.espnscrum.com/other/rugby/player/8548.html'
p80
aS'http://www.espnscrum.com/other/rugby/player/8552.html'
p81
aS'http://www.espnscrum.com/other/rugby/player/8553.html'
p82
aS'http://www.espnscrum.com/other/rugby/player/8557.html'
p83
aS'http://www.espnscrum.com/other/rugby/player/8558.html'
p84
aS'http://www.espnscrum.com/other/rugby/player/8560.html'
p85
aS'http://www.espnscrum.com/other/rugby/player/8562.html'
p86
aS'http://www.espnscrum.com/other/rugby/player/8703.html'
p87
aS'http://www.espnscrum.com/other/rugby/player/8709.html'
p88
aS'http://www.espnscrum.com/other/rugby/player/8710.html'
p89
aS'http://www.espnscrum.com/other/rugby/player/8711.html'
p90
aS'http://www.espnscrum.com/other/rugby/player/8712.html'
p91
aS'http://www.espnscrum.com/other/rugby/player/8713.html'
p92
aS'http://www.espnscrum.com/other/rugby/player/8714.html'
p93
aS'http://www.espnscrum.com/other/rugby/player/8715.html'
p94
aS'http://www.espnscrum.com/other/rugby/player/8762.html'
p95
aS'http://www.espnscrum.com/other/rugby/player/8763.html'
p96
aS'http://www.espnscrum.com/other/rugby/player/8764.html'
p97
aS'http://www.espnscrum.com/other/rugby/player/8765.html'
p98
aS'http://www.espnscrum.com/other/rugby/player/8840.html'
p99
aS'http://www.espnscrum.com/other/rugby/player/8841.html'
p100
aS'http://www.espnscrum.com/other/rugby/player/8842.html'
p101
aS'http://www.espnscrum.com/other/rugby/player/8843.html'
p102
aS'http://www.espnscrum.com/other/rugby/player/8846.html'
p103
aS'http://www.espnscrum.com/other/rugby/player/8985.html'
p104
aS'http://www.espnscrum.com/other/rugby/player/8987.html'
p105
aS'http://www.espnscrum.com/other/rugby/player/8988.html'
p106
aS'http://www.espnscrum.com/other/rugby/player/8989.html'
p107
aS'http://www.espnscrum.com/other/rugby/player/8990.html'
p108
aS'http://www.espnscrum.com/other/rugby/player/8991.html'
p109
aS'http://www.espnscrum.com/other/rugby/player/8992.html'
p110
aS'http://www.espnscrum.com/other/rugby/player/8993.html'
p111
aS'http://www.espnscrum.com/other/rugby/player/8995.html'
p112
aS'http://www.espnscrum.com/other/rugby/player/9156.html'
p113
aS'http://www.espnscrum.com/other/rugby/player/9158.html'
p114
aS'http://www.espnscrum.com/other/rugby/player/9159.html'
p115
aS'http://www.espnscrum.com/other/rugby/player/9160.html'
p116
aS'http://www.espnscrum.com/other/rugby/player/9199.html'
p117
aS'http://www.espnscrum.com/other/rugby/player/9202.html'
p118
aS'http://www.espnscrum.com/other/rugby/player/9203.html'
p119
aS'http://www.espnscrum.com/other/rugby/player/9262.html'
p120
aS'http://www.espnscrum.com/other/rugby/player/9263.html'
p121
aS'http://www.espnscrum.com/other/rugby/player/9265.html'
p122
aS'http://www.espnscrum.com/other/rugby/player/9266.html'
p123
aS'http://www.espnscrum.com/other/rugby/player/9267.html'
p124
aS'http://www.espnscrum.com/other/rugby/player/9336.html'
p125
aS'http://www.espnscrum.com/other/rugby/player/9337.html'
p126
aS'http://www.espnscrum.com/other/rugby/player/9335.html'
p127
aS'http://www.espnscrum.com/other/rugby/player/9367.html'
p128
aS'http://www.espnscrum.com/other/rugby/player/9465.html'
p129
aS'http://www.espnscrum.com/other/rugby/player/9467.html'
p130
aS'http://www.espnscrum.com/other/rugby/player/9468.html'
p131
aS'http://www.espnscrum.com/other/rugby/player/9469.html'
p132
aS'http://www.espnscrum.com/other/rugby/player/9471.html'
p133
aS'http://www.espnscrum.com/other/rugby/player/9474.html'
p134
aS'http://www.espnscrum.com/other/rugby/player/9473.html'
p135
aS'http://www.espnscrum.com/other/rugby/player/9584.html'
p136
aS'http://www.espnscrum.com/other/rugby/player/9587.html'
p137
aS'http://www.espnscrum.com/other/rugby/player/9588.html'
p138
aS'http://www.espnscrum.com/other/rugby/player/9590.html'
p139
aS'http://www.espnscrum.com/other/rugby/player/9591.html'
p140
aS'http://www.espnscrum.com/other/rugby/player/9583.html'
p141
aS'http://www.espnscrum.com/other/rugby/player/9589.html'
p142
aS'http://www.espnscrum.com/other/rugby/player/9611.html'
p143
aS'http://www.espnscrum.com/other/rugby/player/9612.html'
p144
aS'http://www.espnscrum.com/other/rugby/player/9614.html'
p145
aS'http://www.espnscrum.com/other/rugby/player/9615.html'
p146
aS'http://www.espnscrum.com/other/rugby/player/9758.html'
p147
aS'http://www.espnscrum.com/other/rugby/player/9759.html'
p148
aS'http://www.espnscrum.com/other/rugby/player/9762.html'
p149
aS'http://www.espnscrum.com/other/rugby/player/9763.html'
p150
aS'http://www.espnscrum.com/other/rugby/player/9879.html'
p151
aS'http://www.espnscrum.com/other/rugby/player/9881.html'
p152
aS'http://www.espnscrum.com/other/rugby/player/9882.html'
p153
aS'http://www.espnscrum.com/other/rugby/player/9883.html'
p154
aS'http://www.espnscrum.com/other/rugby/player/9885.html'
p155
aS'http://www.espnscrum.com/other/rugby/player/9977.html'
p156
aS'http://www.espnscrum.com/other/rugby/player/10033.html'
p157
aS'http://www.espnscrum.com/other/rugby/player/10035.html'
p158
aS'http://www.espnscrum.com/other/rugby/player/10039.html'
p159
aS'http://www.espnscrum.com/other/rugby/player/10044.html'
p160
aS'http://www.espnscrum.com/other/rugby/player/10133.html'
p161
aS'http://www.espnscrum.com/other/rugby/player/10135.html'
p162
aS'http://www.espnscrum.com/other/rugby/player/10139.html'
p163
aS'http://www.espnscrum.com/other/rugby/player/10136.html'
p164
aS'http://www.espnscrum.com/other/rugby/player/10177.html'
p165
aS'http://www.espnscrum.com/other/rugby/player/10178.html'
p166
aS'http://www.espnscrum.com/other/rugby/player/10182.html'
p167
aS'http://www.espnscrum.com/other/rugby/player/10184.html'
p168
aS'http://www.espnscrum.com/other/rugby/player/10233.html'
p169
aS'http://www.espnscrum.com/other/rugby/player/10301.html'
p170
aS'http://www.espnscrum.com/other/rugby/player/10303.html'
p171
aS'http://www.espnscrum.com/other/rugby/player/10308.html'
p172
aS'http://www.espnscrum.com/other/rugby/player/10317.html'
p173
aS'http://www.espnscrum.com/other/rugby/player/10318.html'
p174
aS'http://www.espnscrum.com/other/rugby/player/10327.html'
p175
aS'http://www.espnscrum.com/other/rugby/player/10403.html'
p176
aS'http://www.espnscrum.com/other/rugby/player/10406.html'
p177
aS'http://www.espnscrum.com/other/rugby/player/10407.html'
p178
aS'http://www.espnscrum.com/other/rugby/player/10409.html'
p179
aS'http://www.espnscrum.com/other/rugby/player/10428.html'
p180
aS'http://www.espnscrum.com/other/rugby/player/10432.html'
p181
aS'http://www.espnscrum.com/other/rugby/player/10611.html'
p182
aS'http://www.espnscrum.com/other/rugby/player/10612.html'
p183
aS'http://www.espnscrum.com/other/rugby/player/10613.html'
p184
aS'http://www.espnscrum.com/other/rugby/player/10632.html'
p185
aS'http://www.espnscrum.com/other/rugby/player/10633.html'
p186
aS'http://www.espnscrum.com/other/rugby/player/10684.html'
p187
aS'http://www.espnscrum.com/other/rugby/player/10685.html'
p188
aS'http://www.espnscrum.com/other/rugby/player/10687.html'
p189
aS'http://www.espnscrum.com/other/rugby/player/10686.html'
p190
aS'http://www.espnscrum.com/other/rugby/player/10738.html'
p191
aS'http://www.espnscrum.com/other/rugby/player/10739.html'
p192
aS'http://www.espnscrum.com/other/rugby/player/10853.html'
p193
aS'http://www.espnscrum.com/other/rugby/player/10857.html'
p194
aS'http://www.espnscrum.com/other/rugby/player/10858.html'
p195
aS'http://www.espnscrum.com/other/rugby/player/10859.html'
p196
aS'http://www.espnscrum.com/other/rugby/player/10861.html'
p197
aS'http://www.espnscrum.com/other/rugby/player/10874.html'
p198
aS'http://www.espnscrum.com/other/rugby/player/10887.html'
p199
aS'http://www.espnscrum.com/other/rugby/player/10892.html'
p200
aS'http://www.espnscrum.com/other/rugby/player/10978.html'
p201
aS'http://www.espnscrum.com/other/rugby/player/11009.html'
p202
aS'http://www.espnscrum.com/other/rugby/player/11010.html'
p203
aS'http://www.espnscrum.com/other/rugby/player/11012.html'
p204
aS'http://www.espnscrum.com/other/rugby/player/11013.html'
p205
aS'http://www.espnscrum.com/other/rugby/player/11039.html'
p206
aS'http://www.espnscrum.com/other/rugby/player/11074.html'
p207
aS'http://www.espnscrum.com/other/rugby/player/11100.html'
p208
aS'http://www.espnscrum.com/other/rugby/player/11163.html'
p209
aS'http://www.espnscrum.com/other/rugby/player/10889.html'
p210
aS'http://www.espnscrum.com/other/rugby/player/11167.html'
p211
aS'http://www.espnscrum.com/other/rugby/player/11168.html'
p212
aS'http://www.espnscrum.com/other/rugby/player/11211.html'
p213
aS'http://www.espnscrum.com/other/rugby/player/11212.html'
p214
aS'http://www.espnscrum.com/other/rugby/player/11217.html'
p215
aS'http://www.espnscrum.com/other/rugby/player/11218.html'
p216
aS'http://www.espnscrum.com/other/rugby/player/11219.html'
p217
aS'http://www.espnscrum.com/other/rugby/player/11222.html'
p218
aS'http://www.espnscrum.com/other/rugby/player/11210.html'
p219
aS'http://www.espnscrum.com/other/rugby/player/11221.html'
p220
aS'http://www.espnscrum.com/other/rugby/player/11523.html'
p221
aS'http://www.espnscrum.com/other/rugby/player/11524.html'
p222
aS'http://www.espnscrum.com/other/rugby/player/11525.html'
p223
aS'http://www.espnscrum.com/other/rugby/player/11526.html'
p224
aS'http://www.espnscrum.com/other/rugby/player/11527.html'
p225
aS'http://www.espnscrum.com/other/rugby/player/11528.html'
p226
aS'http://www.espnscrum.com/other/rugby/player/11530.html'
p227
aS'http://www.espnscrum.com/other/rugby/player/11531.html'
p228
aS'http://www.espnscrum.com/other/rugby/player/11600.html'
p229
aS'http://www.espnscrum.com/other/rugby/player/11601.html'
p230
aS'http://www.espnscrum.com/other/rugby/player/11602.html'
p231
aS'http://www.espnscrum.com/other/rugby/player/11604.html'
p232
aS'http://www.espnscrum.com/other/rugby/player/11586.html'
p233
aS'http://www.espnscrum.com/other/rugby/player/11704.html'
p234
aS'http://www.espnscrum.com/other/rugby/player/11770.html'
p235
aS'http://www.espnscrum.com/other/rugby/player/11766.html'
p236
aS'http://www.espnscrum.com/other/rugby/player/11908.html'
p237
aS'http://www.espnscrum.com/other/rugby/player/11909.html'
p238
aS'http://www.espnscrum.com/other/rugby/player/12076.html'
p239
aS'http://www.espnscrum.com/other/rugby/player/12078.html'
p240
aS'http://www.espnscrum.com/other/rugby/player/12079.html'
p241
aS'http://www.espnscrum.com/other/rugby/player/12080.html'
p242
aS'http://www.espnscrum.com/other/rugby/player/12081.html'
p243
aS'http://www.espnscrum.com/other/rugby/player/12084.html'
p244
aS'http://www.espnscrum.com/other/rugby/player/12082.html'
p245
aS'http://www.espnscrum.com/other/rugby/player/12147.html'
p246
aS'http://www.espnscrum.com/other/rugby/player/12148.html'
p247
aS'http://www.espnscrum.com/other/rugby/player/12150.html'
p248
aS'http://www.espnscrum.com/other/rugby/player/12151.html'
p249
aS'http://www.espnscrum.com/other/rugby/player/12223.html'
p250
aS'http://www.espnscrum.com/other/rugby/player/12257.html'
p251
aS'http://www.espnscrum.com/other/rugby/player/10885.html'
p252
aS'http://www.espnscrum.com/other/rugby/player/12270.html'
p253
aS'http://www.espnscrum.com/other/rugby/player/12271.html'
p254
aS'http://www.espnscrum.com/other/rugby/player/12284.html'
p255
aS'http://www.espnscrum.com/other/rugby/player/12285.html'
p256
aS'http://www.espnscrum.com/other/rugby/player/12322.html'
p257
aS'http://www.espnscrum.com/other/rugby/player/12336.html'
p258
aS'http://www.espnscrum.com/other/rugby/player/12269.html'
p259
aS'http://www.espnscrum.com/other/rugby/player/12340.html'
p260
aS'http://www.espnscrum.com/other/rugby/player/12424.html'
p261
aS'http://www.espnscrum.com/other/rugby/player/12426.html'
p262
aS'http://www.espnscrum.com/other/rugby/player/12487.html'
p263
aS'http://www.espnscrum.com/other/rugby/player/12488.html'
p264
aS'http://www.espnscrum.com/other/rugby/player/12484.html'
p265
aS'http://www.espnscrum.com/other/rugby/player/12496.html'
p266
aS'http://www.espnscrum.com/other/rugby/player/12520.html'
p267
aS'http://www.espnscrum.com/other/rugby/player/12519.html'
p268
aS'http://www.espnscrum.com/other/rugby/player/12556.html'
p269
aS'http://www.espnscrum.com/other/rugby/player/12778.html'
p270
aS'http://www.espnscrum.com/other/rugby/player/12780.html'
p271
aS'http://www.espnscrum.com/other/rugby/player/12785.html'
p272
aS'http://www.espnscrum.com/other/rugby/player/12845.html'
p273
aS'http://www.espnscrum.com/other/rugby/player/12843.html'
p274
aS'http://www.espnscrum.com/other/rugby/player/12868.html'
p275
aS'http://www.espnscrum.com/other/rugby/player/12871.html'
p276
aS'http://www.espnscrum.com/other/rugby/player/12874.html'
p277
aS'http://www.espnscrum.com/other/rugby/player/12882.html'
p278
aS'http://www.espnscrum.com/other/rugby/player/12918.html'
p279
aS'http://www.espnscrum.com/other/rugby/player/12502.html'
p280
aS'http://www.espnscrum.com/other/rugby/player/12942.html'
p281
aS'http://www.espnscrum.com/other/rugby/player/12504.html'
p282
aS'http://www.espnscrum.com/other/rugby/player/12945.html'
p283
aS'http://www.espnscrum.com/other/rugby/player/12946.html'
p284
aS'http://www.espnscrum.com/other/rugby/player/13138.html'
p285
aS'http://www.espnscrum.com/other/rugby/player/13140.html'
p286
aS'http://www.espnscrum.com/other/rugby/player/13183.html'
p287
aS'http://www.espnscrum.com/other/rugby/player/13218.html'
p288
aS'http://www.espnscrum.com/other/rugby/player/13249.html'
p289
aS'http://www.espnscrum.com/other/rugby/player/13260.html'
p290
aS'http://www.espnscrum.com/other/rugby/player/13392.html'
p291
aS'http://www.espnscrum.com/other/rugby/player/13396.html'
p292
aS'http://www.espnscrum.com/other/rugby/player/13402.html'
p293
aS'http://www.espnscrum.com/other/rugby/player/13403.html'
p294
aS'http://www.espnscrum.com/other/rugby/player/13405.html'
p295
aS'http://www.espnscrum.com/other/rugby/player/13398.html'
p296
aS'http://www.espnscrum.com/other/rugby/player/13391.html'
p297
aS'http://www.espnscrum.com/other/rugby/player/13393.html'
p298
aS'http://www.espnscrum.com/other/rugby/player/13404.html'
p299
aS'http://www.espnscrum.com/other/rugby/player/13456.html'
p300
aS'http://www.espnscrum.com/other/rugby/player/13457.html'
p301
aS'http://www.espnscrum.com/other/rugby/player/13469.html'
p302
aS'http://www.espnscrum.com/other/rugby/player/13468.html'
p303
aS'http://www.espnscrum.com/other/rugby/player/117560.html'
p304
aS'http://www.espnscrum.com/other/rugby/player/13400.html'
p305
aS'http://www.espnscrum.com/other/rugby/player/13505.html'
p306
aS'http://www.espnscrum.com/other/rugby/player/13545.html'
p307
aS'http://www.espnscrum.com/other/rugby/player/13546.html'
p308
aS'http://www.espnscrum.com/other/rugby/player/13614.html'
p309
aS'http://www.espnscrum.com/other/rugby/player/13619.html'
p310
aS'http://www.espnscrum.com/other/rugby/player/13681.html'
p311
aS'http://www.espnscrum.com/other/rugby/player/13835.html'
p312
aS'http://www.espnscrum.com/other/rugby/player/13839.html'
p313
aS'http://www.espnscrum.com/other/rugby/player/13987.html'
p314
aS'http://www.espnscrum.com/other/rugby/player/13995.html'
p315
aS'http://www.espnscrum.com/other/rugby/player/13834.html'
p316
aS'http://www.espnscrum.com/other/rugby/player/13988.html'
p317
aS'http://www.espnscrum.com/other/rugby/player/13836.html'
p318
aS'http://www.espnscrum.com/other/rugby/player/13998.html'
p319
aS'http://www.espnscrum.com/other/rugby/player/14004.html'
p320
aS'http://www.espnscrum.com/other/rugby/player/14009.html'
p321
aS'http://www.espnscrum.com/other/rugby/player/14008.html'
p322
aS'http://www.espnscrum.com/other/rugby/player/14025.html'
p323
aS'http://www.espnscrum.com/other/rugby/player/14155.html'
p324
aS'http://www.espnscrum.com/other/rugby/player/14157.html'
p325
aS'http://www.espnscrum.com/other/rugby/player/14163.html'
p326
aS'http://www.espnscrum.com/other/rugby/player/14156.html'
p327
aS'http://www.espnscrum.com/other/rugby/player/14022.html'
p328
aS'http://www.espnscrum.com/other/rugby/player/14180.html'
p329
aS'http://www.espnscrum.com/other/rugby/player/14255.html'
p330
aS'http://www.espnscrum.com/other/rugby/player/14272.html'
p331
aS'http://www.espnscrum.com/other/rugby/player/14310.html'
p332
aS'http://www.espnscrum.com/other/rugby/player/14311.html'
p333
aS'http://www.espnscrum.com/other/rugby/player/14306.html'
p334
aS'http://www.espnscrum.com/other/rugby/player/14316.html'
p335
aS'http://www.espnscrum.com/other/rugby/player/14349.html'
p336
aS'http://www.espnscrum.com/other/rugby/player/14488.html'
p337
aS'http://www.espnscrum.com/other/rugby/player/14492.html'
p338
aS'http://www.espnscrum.com/other/rugby/player/14502.html'
p339
aS'http://www.espnscrum.com/other/rugby/player/14546.html'
p340
aS'http://www.espnscrum.com/other/rugby/player/14543.html'
p341
aS'http://www.espnscrum.com/other/rugby/player/14824.html'
p342
aS'http://www.espnscrum.com/other/rugby/player/14826.html'
p343
aS'http://www.espnscrum.com/other/rugby/player/14829.html'
p344
aS'http://www.espnscrum.com/other/rugby/player/14830.html'
p345
aS'http://www.espnscrum.com/other/rugby/player/14822.html'
p346
aS'http://www.espnscrum.com/other/rugby/player/14825.html'
p347
aS'http://www.espnscrum.com/other/rugby/player/14661.html'
p348
aS'http://www.espnscrum.com/other/rugby/player/14828.html'
p349
aS'http://www.espnscrum.com/other/rugby/player/14835.html'
p350
aS'http://www.espnscrum.com/other/rugby/player/14823.html'
p351
aS'http://www.espnscrum.com/other/rugby/player/14954.html'
p352
aS'http://www.espnscrum.com/other/rugby/player/14971.html'
p353
aS'http://www.espnscrum.com/other/rugby/player/15198.html'
p354
aS'http://www.espnscrum.com/other/rugby/player/15205.html'
p355
aS'http://www.espnscrum.com/other/rugby/player/15210.html'
p356
aS'http://www.espnscrum.com/other/rugby/player/15216.html'
p357
aS'http://www.espnscrum.com/other/rugby/player/15221.html'
p358
aS'http://www.espnscrum.com/other/rugby/player/15190.html'
p359
aS'http://www.espnscrum.com/other/rugby/player/15191.html'
p360
aS'http://www.espnscrum.com/other/rugby/player/15192.html'
p361
aS'http://www.espnscrum.com/other/rugby/player/14838.html'
p362
aS'http://www.espnscrum.com/other/rugby/player/15237.html'
p363
aS'http://www.espnscrum.com/other/rugby/player/15241.html'
p364
aS'http://www.espnscrum.com/other/rugby/player/15306.html'
p365
aS'http://www.espnscrum.com/other/rugby/player/15339.html'
p366
aS'http://www.espnscrum.com/other/rugby/player/15353.html'
p367
aS'http://www.espnscrum.com/other/rugby/player/15351.html'
p368
aS'http://www.espnscrum.com/other/rugby/player/15352.html'
p369
aS'http://www.espnscrum.com/other/rugby/player/15354.html'
p370
aS'http://www.espnscrum.com/other/rugby/player/15372.html'
p371
aS'http://www.espnscrum.com/other/rugby/player/15376.html'
p372
aS'http://www.espnscrum.com/other/rugby/player/15525.html'
p373
aS'http://www.espnscrum.com/other/rugby/player/15532.html'
p374
aS'http://www.espnscrum.com/other/rugby/player/15539.html'
p375
aS'http://www.espnscrum.com/other/rugby/player/14945.html'
p376
aS'http://www.espnscrum.com/other/rugby/player/15536.html'
p377
aS'http://www.espnscrum.com/other/rugby/player/15542.html'
p378
aS'http://www.espnscrum.com/other/rugby/player/15579.html'
p379
aS'http://www.espnscrum.com/other/rugby/player/15586.html'
p380
aS'http://www.espnscrum.com/other/rugby/player/15744.html'
p381
aS'http://www.espnscrum.com/other/rugby/player/15747.html'
p382
aS'http://www.espnscrum.com/other/rugby/player/15746.html'
p383
aS'http://www.espnscrum.com/other/rugby/player/15757.html'
p384
aS'http://www.espnscrum.com/other/rugby/player/15748.html'
p385
aS'http://www.espnscrum.com/other/rugby/player/15896.html'
p386
aS'http://www.espnscrum.com/other/rugby/player/15939.html'
p387
aS'http://www.espnscrum.com/other/rugby/player/15898.html'
p388
aS'http://www.espnscrum.com/other/rugby/player/15910.html'
p389
aS'http://www.espnscrum.com/other/rugby/player/15911.html'
p390
aS'http://www.espnscrum.com/other/rugby/player/15931.html'
p391
aS'http://www.espnscrum.com/other/rugby/player/15957.html'
p392
aS'http://www.espnscrum.com/other/rugby/player/15929.html'
p393
aS'http://www.espnscrum.com/other/rugby/player/85502.html'
p394
aS'http://www.espnscrum.com/other/rugby/player/82091.html'
p395
aS'http://www.espnscrum.com/other/rugby/player/85488.html'
p396
aS'http://www.espnscrum.com/other/rugby/player/85500.html'
p397
aS'http://www.espnscrum.com/other/rugby/player/87464.html'
p398
aS'http://www.espnscrum.com/other/rugby/player/85504.html'
p399
aS'http://www.espnscrum.com/other/rugby/player/86894.html'
p400
aS'http://www.espnscrum.com/other/rugby/player/86895.html'
p401
aS'http://www.espnscrum.com/other/rugby/player/97467.html'
p402
aS'http://www.espnscrum.com/other/rugby/player/97468.html'
p403
aS'http://www.espnscrum.com/other/rugby/player/97469.html'
p404
aS'http://www.espnscrum.com/other/rugby/player/97470.html'
p405
aS'http://www.espnscrum.com/other/rugby/player/97472.html'
p406
aS'http://www.espnscrum.com/other/rugby/player/97473.html'
p407
aS'http://www.espnscrum.com/other/rugby/player/97471.html'
p408
aS'http://www.espnscrum.com/other/rugby/player/97474.html'
p409
aS'http://www.espnscrum.com/other/rugby/player/97873.html'
p410
aS'http://www.espnscrum.com/other/rugby/player/98672.html'
p411
aS'http://www.espnscrum.com/other/rugby/player/105784.html'
p412
aS'http://www.espnscrum.com/other/rugby/player/105783.html'
p413
aS'http://www.espnscrum.com/other/rugby/player/106191.html'
p414
aS'http://www.espnscrum.com/other/rugby/player/117540.html'
p415
aS'http://www.espnscrum.com/other/rugby/player/117543.html'
p416
aS'http://www.espnscrum.com/other/rugby/player/117547.html'
p417
aS'http://www.espnscrum.com/other/rugby/player/117548.html'
p418
aS'http://www.espnscrum.com/other/rugby/player/121246.html'
p419
aS'http://www.espnscrum.com/other/rugby/player/130242.html'
p420
aS'http://www.espnscrum.com/other/rugby/player/129185.html'
p421
aS'http://www.espnscrum.com/other/rugby/player/140899.html'
p422
aS'http://www.espnscrum.com/other/rugby/player/140898.html'
p423
aS'http://www.espnscrum.com/other/rugby/player/117478.html'
p424
aS'http://www.espnscrum.com/other/rugby/player/110293.html'
p425
aS'http://www.espnscrum.com/other/rugby/player/146777.html'
p426
aS'http://www.espnscrum.com/other/rugby/player/165559.html'
p427
aS'http://www.espnscrum.com/other/rugby/player/165562.html'
p428
aS'http://www.espnscrum.com/other/rugby/player/165563.html'
p429
aS'http://www.espnscrum.com/other/rugby/player/165566.html'
p430
aS'http://www.espnscrum.com/other/rugby/player/165555.html'
p431
aS'http://www.espnscrum.com/other/rugby/player/165877.html'
p432
aS'http://www.espnscrum.com/other/rugby/player/172473.html'
p433
aS'http://www.espnscrum.com/other/rugby/player/172340.html'
p434
aS'http://www.espnscrum.com/other/rugby/player/172341.html'
p435
aS'http://www.espnscrum.com/other/rugby/player/172475.html'
p436
aS'http://www.espnscrum.com/other/rugby/player/172484.html'
p437
aS'http://www.espnscrum.com/other/rugby/player/172478.html'
p438
aS'http://www.espnscrum.com/other/rugby/player/183457.html'
p439
aS'http://www.espnscrum.com/other/rugby/player/183452.html'
p440
aS'http://www.espnscrum.com/other/rugby/player/183454.html'
p441
aS'http://www.espnscrum.com/other/rugby/player/172487.html'
p442
aS'http://www.espnscrum.com/other/rugby/player/186707.html'
p443
aS'http://www.espnscrum.com/other/rugby/player/195313.html'
p444
aS'http://www.espnscrum.com/other/rugby/player/195315.html'
p445
aS'http://www.espnscrum.com/other/rugby/player/205331.html'
p446
aS'http://www.espnscrum.com/other/rugby/player/205335.html'
p447
aS'http://www.espnscrum.com/other/rugby/player/205333.html'
p448
aS'http://www.espnscrum.com/other/rugby/player/165558.html'
p449
aS'http://www.espnscrum.com/other/rugby/player/183449.html'
p450
aS'http://www.espnscrum.com/other/rugby/player/205337.html'
p451
aS'http://www.espnscrum.com/other/rugby/player/219443.html'
p452
aS'http://www.espnscrum.com/other/rugby/player/228945.html'
p453
aS'http://www.espnscrum.com/other/rugby/player/228701.html'
p454
aS'http://www.espnscrum.com/other/rugby/player/230629.html'
p455
aS'http://www.espnscrum.com/other/rugby/player/246777.html'
p456
aS'http://www.espnscrum.com/other/rugby/player/246843.html'
p457
aS'http://www.espnscrum.com/other/rugby/player/246845.html'
p458
aS'http://www.espnscrum.com/other/rugby/player/247193.html'
p459
aS'http://www.espnscrum.com/other/rugby/player/247199.html'
p460
aS'http://www.espnscrum.com/other/rugby/player/248003.html'
p461
a.