(lp1
VCentre
p2
aVProp
p3
aVCentre
p4
aVFullback
p5
aVFlanker
p6
aVFly-half
p7
aVNo. 8
p8
aVProp
p9
aVNo. 8
p10
aVScrum-half
p11
aVWing
p12
aVWing
p13
aVHooker
p14
aVLock
p15
aVLock
p16
aVLock
p17
aVCentre, Fly-half
p18
aVScrum-half
p19
aVFlanker
p20
aVProp
p21
aVHooker
p22
aVFly-half
p23
aVFullback
p24
aVWing
p25
aVLock
p26
aV
aV
aVScrum-half
p27
aVNo. 8
p28
aVCentre
p29
aVLock
p30
aVLock
p31
aVFront-row
p32
aVSecond-row
p33
aVFront-row
p34
aVLock
p35
aVWing
p36
aVWing
p37
aVFullback
p38
aVSecond-row
p39
aVBack-row
p40
aVFullback
p41
aVSecond-row
p42
aVWing
p43
aVFive-eighth
p44
aVBack-row
p45
aVWing-forward
p46
aVFlanker
p47
aVFive-eighth
p48
aVFive-eighth
p49
aVWing
p50
aVHooker
p51
aVCentre
p52
aVProp
p53
aVFlanker
p54
aVFive-eighth
p55
aVFlanker
p56
aVNo. 8
p57
aVBack-row
p58
aVNo. 8
p59
aVWing
p60
aVWing
p61
aVFly-half
p62
aVLock
p63
aVWing
p64
aVHooker
p65
aVFlanker
p66
aVFlanker
p67
aVProp
p68
aVFullback
p69
aVCentre
p70
aVNo. 8
p71
aVCentre
p72
aVProp
p73
aVLock
p74
aVScrum-half
p75
aVNo. 8
p76
aVFly-half
p77
aVWing
p78
aVProp
p79
aVHooker
p80
aVScrum-half
p81
aVWing
p82
aVCentre
p83
aVFlanker
p84
aVLock
p85
aVHooker
p86
aVProp
p87
aVFullback
p88
aVScrum-half
p89
aVWing
p90
aVFlanker
p91
aVProp
p92
aVFlanker
p93
aVWing
p94
aVCentre
p95
aVProp
p96
aVLock
p97
aVNo. 8
p98
aVLock
p99
aVHooker
p100
aVProp
p101
aVProp
p102
aVProp
p103
aVLock
p104
aVScrum-half
p105
aVCentre
p106
aVHooker
p107
aVCentre
p108
aVWing
p109
aVWing
p110
aVFlanker
p111
aVLock
p112
aVWing
p113
aVLock
p114
aVFullback
p115
aVFly-half
p116
aVWing
p117
aVLock
p118
aVFullback
p119
aVCentre
p120
aVCentre
p121
aVNo. 8
p122
aVCentre
p123
aVFlanker
p124
aVFlanker
p125
aVHooker
p126
aVScrum-half
p127
aVProp
p128
aVFly-half
p129
aVHooker
p130
aVFullback
p131
aVProp
p132
aVProp
p133
aVLock
p134
aVFullback
p135
aVWing
p136
aVScrum-half
p137
aVFlanker
p138
aVFlanker
p139
aVLock
p140
aVProp
p141
aVNo. 8
p142
aVWing
p143
aV
aVFly-half
p144
aVHooker
p145
aVProp
p146
aVCentre
p147
aVFlanker
p148
aVCentre
p149
aVFullback
p150
aVWing
p151
aVLock
p152
aVHooker
p153
aVFly-half
p154
aVScrum-half
p155
aVProp
p156
aVNo. 8
p157
aVFly-half
p158
aVScrum-half
p159
aVCentre
p160
aVFullback
p161
aVFullback
p162
aVWing
p163
aVScrum-half
p164
aVHooker
p165
aVNo. 8
p166
aVFlanker
p167
aVHooker
p168
aVFlanker
p169
aVCentre
p170
aVLock
p171
aVCentre
p172
aVFlanker
p173
aVFly-half
p174
aVWing
p175
aVWing
p176
aVLock
p177
aV
aVFlanker
p178
aVProp
p179
aVFlanker
p180
aVLock
p181
aVProp
p182
aVWing
p183
aVScrum-half
p184
aVHooker
p185
aV
aVProp
p186
aVFlanker
p187
aVCentre
p188
aVFly-half
p189
aVProp
p190
aVWing
p191
aVWing
p192
aVFlanker
p193
aVHooker
p194
aVWing
p195
aVFullback
p196
aVFlanker
p197
aVFly-half
p198
aVScrum-half
p199
aVHooker
p200
aVLock
p201
aVFullback
p202
aVFlanker
p203
aVProp
p204
aVLock
p205
aVScrum-half
p206
aVWing
p207
aVFly-half
p208
aVScrum-half
p209
aVNo. 8
p210
aVNo. 8
p211
aVWing
p212
aVCentre
p213
aVWing
p214
aV
aVScrum-half
p215
aVHooker
p216
aVFlanker
p217
aVCentre
p218
aVCentre
p219
aVProp
p220
aVWing
p221
aVFullback
p222
aVLock
p223
aVCentre
p224
aVCentre
p225
aVFlanker
p226
aVFullback
p227
aVNo. 8
p228
aVCentre
p229
aVProp
p230
aVCentre
p231
aVNo. 8
p232
aVFly-half
p233
aVFullback
p234
aVLock
p235
aVFlanker
p236
aVProp
p237
aVWing
p238
aV
aVWing
p239
aVLock
p240
aVProp
p241
aVFlanker
p242
aVLock
p243
aVLock
p244
aVHooker
p245
aVProp
p246
aV
aVFlanker
p247
aVProp
p248
aVCentre
p249
aVWing
p250
aVScrum-half
p251
aVBack-row
p252
aVWing
p253
aVFullback
p254
aVCentre
p255
aVProp
p256
aVWing
p257
aVFullback
p258
aVFlanker
p259
aVFullback
p260
aVFlanker
p261
aVFlanker
p262
aVProp
p263
aVWing
p264
aVWing
p265
aVProp
p266
aVWing
p267
aVBack-row
p268
aVFlanker
p269
aVHooker, Prop
p270
aVWing
p271
aVScrum-half
p272
aVNo. 8
p273
aVHooker
p274
aVLock
p275
aVFly-half
p276
aVLock
p277
aVFly-half
p278
aVProp
p279
aVProp
p280
aVScrum-half
p281
aVLock
p282
aVCentre
p283
aVLock
p284
aVBack-row
p285
aVFly-half
p286
aVFlanker
p287
aVLock
p288
aVFlanker
p289
aVHooker
p290
aVFly-half
p291
aVFlanker
p292
aVProp
p293
aVWing
p294
aVFlanker
p295
aVScrum-half
p296
aVWing
p297
aVProp
p298
aVWing
p299
aVFlanker
p300
aVFullback
p301
aVScrum-half
p302
aVFullback, Wing
p303
aVProp
p304
aVLock
p305
aVFly-half
p306
aVNo. 8
p307
aVHooker
p308
aVFlanker
p309
aVProp
p310
aVProp
p311
aVWing
p312
aVCentre
p313
aVHooker
p314
aVFullback
p315
aVCentre
p316
aVWing
p317
aVFullback, Centre
p318
aVHooker
p319
aVLock
p320
aVProp
p321
aVFlanker
p322
aVFly-half
p323
aVLock
p324
aVProp
p325
aVFlanker
p326
aVHooker
p327
aVWing, Centre
p328
aVCentre
p329
aVScrum-half
p330
aVFullback
p331
aVFlanker
p332
aVProp
p333
aVLock
p334
aVWing
p335
aVFlanker
p336
aVLock
p337
aVWing
p338
aVNo. 8
p339
aVHooker
p340
aVScrum-half
p341
aVProp
p342
aVWing, Centre
p343
aVWing, Fullback
p344
aVLock
p345
aVCentre
p346
aVWing
p347
aVHooker, Flanker
p348
aVScrum-half
p349
aVCentre, Fly-half
p350
aVBack-row
p351
aVWing
p352
aVProp, Hooker
p353
aVLock
p354
aVFly-half
p355
aVWing
p356
aVFlanker
p357
aVLock
p358
aVFlanker
p359
aVScrum-half
p360
aVLock
p361
aVProp
p362
aVProp
p363
aVBack-row
p364
aVHooker
p365
aVFly-half
p366
aVBack-row
p367
aVWing, Fullback
p368
aVFullback, Wing
p369
aVLock
p370
aVBack-row
p371
aVBack-row
p372
aVNo. 8
p373
aVWing
p374
aVProp
p375
aVWing
p376
aVScrum-half
p377
aVFullback, Wing
p378
aVLock
p379
aVLock
p380
aVHooker
p381
aVFlanker
p382
aVProp
p383
aVWing
p384
aVScrum-half
p385
aVCentre
p386
aVLock
p387
aVBack-row
p388
aVProp
p389
aVCentre
p390
aVHooker
p391
aVProp
p392
aVLock
p393
aVHooker
p394
aVFlanker
p395
aVBack-row
p396
aVProp
p397
aVCentre, Fly-half
p398
aVWing
p399
aVFly-half
p400
aVScrum-half
p401
aVHooker
p402
aVWing
p403
aVHooker, Prop
p404
aVProp
p405
aVLock
p406
aVNo. 8
p407
aVLock
p408
aVProp
p409
aVFly-half
p410
aVCentre
p411
aVLock, Back-row
p412
aVCentre, Fly-half
p413
aVProp
p414
aVCentre
p415
aVWing, Fullback
p416
aVWing
p417
aVBack-row
p418
aVHooker
p419
aVFly-half
p420
aVWing
p421
aVNo. 8
p422
aVHooker
p423
aVProp
p424
aVWing
p425
aVFullback
p426
aVBack-row
p427
aVProp
p428
aVWing
p429
aVLock
p430
aVFly-half
p431
aVCentre
p432
aVFlanker
p433
aVProp
p434
aVLock, No. 8
p435
aVProp
p436
aVCentre
p437
aVWing
p438
aVProp
p439
aVLock
p440
aVScrum-half
p441
aVHooker
p442
aVFlanker
p443
aVHalfback
p444
aVFlanker
p445
aVCentre
p446
aVWing
p447
aVWing
p448
aVFlanker
p449
aVLock
p450
aVLock
p451
aVProp
p452
aVCentre
p453
aVFly-half
p454
aVWing
p455
aVFlanker
p456
aVHooker
p457
aVScrum-half
p458
aVProp
p459
aVFullback
p460
aVFly-half
p461
aVLock
p462
aVCentre
p463
aVLock
p464
aVCentre
p465
aVLock
p466
aVHooker
p467
aVLock
p468
aVScrum-half
p469
aVFullback, Fly-half
p470
aVCentre
p471
aVFlanker
p472
aVHooker
p473
aVScrum-half
p474
aVFullback
p475
aVCentre
p476
aVProp
p477
aVBack-row
p478
aVFly-half
p479
aVFlanker, Lock
p480
aVBack-row
p481
aVBack-row
p482
a.