(lp1
Vdate unknown
p2
aVdate unknown
p3
aVdate unknown
p4
aVdate unknown
p5
aVdate unknown
p6
aVdate unknown
p7
aVdate unknown
p8
aVdate unknown
p9
aVdate unknown
p10
aVdate unknown
p11
aVdate unknown
p12
aVdate unknown
p13
aVdate unknown
p14
aVdate unknown
p15
aVdate unknown
p16
aVdate unknown
p17
aVdate unknown
p18
aVdate unknown
p19
aVdate unknown
p20
aVdate unknown
p21
aVdate unknown
p22
aVdate unknown
p23
aVdate unknown
p24
aVdate unknown
p25
aVdate unknown
p26
aVdate unknown
p27
aVdate unknown
p28
aVdate unknown
p29
aVdate unknown
p30
aVdate unknown
p31
aVdate unknown
p32
aVdate unknown
p33
aVdate unknown
p34
aVdate unknown
p35
aVdate unknown
p36
aVdate unknown
p37
aVdate unknown
p38
aVdate unknown
p39
aVdate unknown
p40
aVdate unknown
p41
aVdate unknown
p42
aVdate unknown
p43
aVdate unknown
p44
aVdate unknown
p45
aVdate unknown
p46
aVdate unknown
p47
aVdate unknown
p48
aVdate unknown
p49
aVdate unknown
p50
aVdate unknown
p51
aVdate unknown
p52
aVdate unknown
p53
aVdate unknown
p54
aVdate unknown
p55
aVdate unknown
p56
aVdate unknown
p57
aVdate unknown
p58
aVdate unknown
p59
aVdate unknown
p60
aVdate unknown
p61
aVdate unknown
p62
aVdate unknown
p63
aVdate unknown
p64
aVdate unknown
p65
aVdate unknown
p66
aVdate unknown
p67
aVdate unknown
p68
aVdate unknown
p69
aVdate unknown
p70
aVdate unknown
p71
aVdate unknown
p72
aVdate unknown
p73
aVdate unknown
p74
aVdate unknown
p75
aVdate unknown
p76
aVdate unknown
p77
aVdate unknown
p78
aVdate unknown
p79
aVdate unknown
p80
aVdate unknown
p81
aVdate unknown
p82
aVdate unknown
p83
aVdate unknown
p84
aVdate unknown
p85
aVdate unknown
p86
aVdate unknown
p87
aVdate unknown
p88
aVdate unknown
p89
aVdate unknown
p90
aVdate unknown
p91
aVdate unknown
p92
aVdate unknown
p93
aVdate unknown
p94
aVdate unknown
p95
aVdate unknown
p96
aVdate unknown
p97
aVAugust 1, 1993
p98
aVdate unknown
p99
aVdate unknown
p100
aVdate unknown
p101
aVdate unknown
p102
aVdate unknown
p103
aVdate unknown
p104
aVdate unknown
p105
aVdate unknown
p106
aVdate unknown
p107
aVdate unknown
p108
aVdate unknown
p109
aVdate unknown
p110
aVdate unknown
p111
aVdate unknown
p112
aVdate unknown
p113
aVdate unknown
p114
aVdate unknown
p115
aVdate unknown
p116
aVdate unknown
p117
aVdate unknown
p118
aVdate unknown
p119
aVdate unknown
p120
aVdate unknown
p121
aVdate unknown
p122
aVdate unknown
p123
aVdate unknown
p124
aVdate unknown
p125
aVdate unknown
p126
aVdate unknown
p127
aVdate unknown
p128
aVdate unknown
p129
aVdate unknown
p130
aVdate unknown
p131
aVdate unknown
p132
aVdate unknown
p133
aVdate unknown
p134
aVdate unknown
p135
aVdate unknown
p136
aVdate unknown
p137
aVdate unknown
p138
aVdate unknown
p139
aVdate unknown
p140
aVdate unknown
p141
aVdate unknown
p142
aVdate unknown
p143
aVdate unknown
p144
aVdate unknown
p145
aVdate unknown
p146
aVdate unknown
p147
aVdate unknown
p148
aVdate unknown
p149
aVdate unknown
p150
aVdate unknown
p151
aVdate unknown
p152
aVdate unknown
p153
aVdate unknown
p154
aVdate unknown
p155
aVdate unknown
p156
aVdate unknown
p157
aVdate unknown
p158
aVdate unknown
p159
aVdate unknown
p160
aVdate unknown
p161
aVdate unknown
p162
aVdate unknown
p163
aVdate unknown
p164
aVdate unknown
p165
aVdate unknown
p166
aVdate unknown
p167
aVdate unknown
p168
aVdate unknown
p169
aVdate unknown
p170
aVdate unknown
p171
aVFebruary 18, 1962
p172
aVdate unknown
p173
aVdate unknown
p174
aVdate unknown
p175
aVdate unknown
p176
aVFebruary 25, 1958
p177
aVdate unknown
p178
aVdate unknown
p179
aVdate unknown
p180
aVdate unknown
p181
aVdate unknown
p182
aVdate unknown
p183
aVdate unknown
p184
aVJanuary 17, 1963, Apia, Western Samoa
p185
aVdate unknown
p186
aVdate unknown
p187
aVdate unknown
p188
aVdate unknown
p189
aVdate unknown
p190
aVdate unknown
p191
aVdate unknown
p192
aVdate unknown
p193
aVdate unknown
p194
aVdate unknown
p195
aVdate unknown
p196
aVdate unknown
p197
aVdate unknown
p198
aVdate unknown
p199
aVdate unknown
p200
aVDecember 13, 1962, Apia, Western Samoa
p201
aVdate unknown
p202
aVdate unknown
p203
aVdate unknown
p204
aVdate unknown
p205
aVdate unknown
p206
aVdate unknown
p207
aVdate unknown
p208
aVApril 8, 1965, Auckland
p209
aVdate unknown
p210
aVJuly 8, 1961
p211
aVAugust 17, 1965, Moto'otua, Western Samoa
p212
aVdate unknown
p213
aVdate unknown
p214
aVdate unknown
p215
aVdate unknown
p216
aVJuly 14, 1957
p217
aVdate unknown
p218
aVMay 8, 1963, Western Samoa
p219
aVJanuary 2, 1962, Auckland
p220
aVdate unknown
p221
aVdate unknown
p222
aVdate unknown
p223
aVdate unknown
p224
aVdate unknown
p225
aVdate unknown
p226
aVdate unknown
p227
aVNovember 23, 1965, Apia, Western Samoa
p228
aVdate unknown
p229
aVMarch 6, 1966, Apia, Western Samoa
p230
aVApril 3, 1964, Apia, Western Samoa
p231
aVdate unknown
p232
aVdate unknown
p233
aVdate unknown
p234
aVdate unknown
p235
aVAugust 9, 1962
p236
aVApril 26, 1959, Apia, Western Samoa
p237
aVJuly 14, 1964, Apia, Western Samoa
p238
aVSeptember 30, 1964, Auckland
p239
aVdate unknown
p240
aVdate unknown
p241
aVApril 13, 1966, Apia, Western Samoa
p242
aVdate unknown
p243
aVdate unknown
p244
aVdate unknown
p245
aVdate unknown
p246
aVdate unknown
p247
aVdate unknown
p248
aVdate unknown
p249
aVdate unknown
p250
aVdate unknown
p251
aVJuly 5, 1967, Lepea, Western Samoa
p252
aVdate unknown
p253
aVMay 3, 1966
p254
aVdate unknown
p255
aVOctober 17, 1964, Auckland
p256
aVJune 21, 1962, Apia, Western Samoa
p257
aVdate unknown
p258
aVdate unknown
p259
aVSeptember 17, 1970, Apia, Western Samoa
p260
aVAugust 22, 1960, Apia, Western Samoa
p261
aVJune 2, 1966, Apia, Western Samoa
p262
aVMay 11, 1967, Western Samoa
p263
aVFebruary 18, 1968, N Harbour
p264
aVApril 2, 1966, Lyttelton
p265
aVJanuary 25, 1972, Apia, Western Samoa
p266
aVNovember 18, 1968, Apia, Western Samoa
p267
aVJuly 16, 1969, Auckland
p268
aVSeptember 12, 1966, Moto'otua, Western Samoa
p269
aVOctober 17, 1962, Auckland
p270
aVFebruary 4, 1962, Auckland
p271
aVOctober 26, 1960, Rarotonsa, Western Samoa
p272
aVSeptember 29, 1968, Auckland
p273
aVOctober 27, 1970, Apia, Western Samoa
p274
aVNovember 1, 1963
p275
aVJune 9, 1971, Apia, Western Samoa
p276
aVFebruary 3, 1970, Wellington
p277
aVSeptember 27, 1972, Auckland
p278
aVNovember 27, 1971, Apia, Western Samoa
p279
aVJune 12, 1967
p280
aVdate unknown
p281
aVJanuary 1, 1965, Apia, Western Samoa
p282
aVJune 22, 1966, Auckland
p283
aVMarch 9, 1966
p284
aVFebruary 25, 1969
p285
aVMarch 20, 1973
p286
aVDecember 4, 1970, Apia, Western Samoa
p287
aVApril 17, 1972, Auckland
p288
aVJune 22, 1974, Moto'otua, Western Samoa
p289
aVApril 27, 1975, Apia, Western Samoa
p290
aVJuly 24, 1968, Lower Hutt
p291
aVNovember 15, 1975
p292
aVFebruary 19, 1966, Auckland
p293
aVDecember 24, 1966
p294
aVSeptember 13, 1968, Wellington
p295
aVJuly 16, 1974
p296
aVJune 23, 1967
p297
aVMarch 25, 1972, Lower Hutt
p298
aVMarch 25, 1973
p299
aVJuly 3, 1974, Moto'otua, Western Samoa
p300
aVOctober 21, 1973, Johnsonville
p301
aVAugust 18, 1974
p302
aVNovember 9, 1975
p303
aVSeptember 3, 1973
p304
aVJuly 23, 1973, Wellington
p305
aVJanuary 5, 1974, Apia, Western Samoa
p306
aVSeptember 4, 1969, Faleasiu, Western Samoa
p307
aVMay 1, 1972, Wellington
p308
aVSeptember 4, 1973
p309
aVMay 31, 1975, Lower Hutt
p310
aVJune 24, 1973, Apia, Western Samoa
p311
aVMarch 8, 1975, Auckland
p312
aVFebruary 7, 1975
p313
aVMay 27, 1977
p314
aVApril 19, 1970, Wellington
p315
aVAugust 23, 1976, Murupara
p316
aVDecember 2, 1975, Apia, Western Samoa
p317
aVMay 11, 1977, Moto'otua, Western Samoa
p318
aVMay 26, 1971, Apia, Western Samoa
p319
aVJanuary 24, 1971, Auckland
p320
aVAugust 18, 1976, Western Samoa
p321
aVdate unknown
p322
aVdate unknown
p323
aVJanuary 12, 1973, Otahuhu
p324
aVFebruary 9, 1974, Pago Pago, American Samoa
p325
aVNovember 16, 1971
p326
aVOctober 7, 1975
p327
aVMarch 6, 1974, Moto'otua, Western Samoa
p328
aVMay 13, 1976, Auckland
p329
aVMay 8, 1977
p330
aVJanuary 17, 1964, Apia, Western Samoa
p331
aVJuly 14, 1973, Apia, Western Samoa
p332
aVSeptember 30, 1975
p333
aVJune 29, 1973
p334
aVOctober 23, 1975, Wellington
p335
aVDecember 15, 1976, Wellington, Western Samoa
p336
aVJune 20, 1978, Wellington
p337
aVAugust 19, 1977
p338
aVMay 9, 1976, Moto'otua, Western Samoa
p339
aVFebruary 12, 1978, Tokoroa
p340
aVJune 25, 1974, Otahuhu
p341
aVNovember 16, 1978, Porirua
p342
aVMarch 11, 1978
p343
aVdate unknown
p344
aVJune 12, 1977
p345
aVdate unknown
p346
aVdate unknown
p347
aVJanuary 30, 1980, Faga, Western Samoa
p348
aVdate unknown
p349
aVSeptember 18, 1979, Western Samoa
p350
aVdate unknown
p351
aVSeptember 15, 1978, Apia, Western Samoa
p352
aVdate unknown
p353
aVMarch 12, 1979, Apia, Western Samoa
p354
aVNovember 25, 1974
p355
aVDecember 12, 1980
p356
aVFebruary 21, 1974, Auckland
p357
aVJanuary 30, 1974, Auckland
p358
aVSeptember 21, 1980, Auckland
p359
aVJune 18, 1976, Wellington
p360
aVdate unknown
p361
aVDecember 7, 1980, Auckland
p362
aVJuly 9, 1978, Apia, Western Samoa
p363
aVFebruary 14, 1979, Moto'otua, Western Samoa
p364
aVOctober 13, 1971
p365
aVSeptember 7, 1977, Apia, Western Samoa
p366
aVSeptember 27, 1980, Wellington
p367
aVdate unknown
p368
aVApril 3, 1983, Christchurch
p369
aVAugust 12, 1976, Fatausi-Fogapoa, Western Samoa
p370
aVFebruary 24, 1981, Fatausi-Fogapoa, Western Samoa
p371
aVJanuary 12, 1980, Apia, Western Samoa
p372
aVAugust 13, 1979
p373
aVJuly 7, 1982, Apia, Western Samoa
p374
aVAugust 31, 1981, Wellington
p375
aVJuly 5, 1977, Auckland
p376
aVJune 26, 1977
p377
aVJanuary 14, 1970, Apia, Western Samoa
p378
aVJune 14, 1978, Wellington
p379
aVNovember 14, 1982, Auckland
p380
aVAugust 24, 1978
p381
aVJuly 4, 1977
p382
aVJanuary 23, 1981
p383
aVJune 20, 1976, Auckland
p384
aVFebruary 10, 1982, Apia, Western Samoa
p385
aVJune 13, 1980, Apia, Western Samoa
p386
aVOctober 19, 1979, Western Samoa
p387
aVFebruary 16, 1979
p388
aVSeptember 10, 1982
p389
aVSeptember 19, 1980
p390
aVJune 21, 1978, Auckland
p391
aVMay 11, 1983
p392
aVJanuary 4, 1982, Apia, Western Samoa
p393
aVMay 9, 1978
p394
aVMay 6, 1981, Auckland
p395
aVDecember 2, 1979, Wellington
p396
aVJuly 26, 1978, Lower Hutt
p397
aVNovember 28, 1980
p398
aVOctober 2, 1982, Palmerston North
p399
aVApril 24, 1977
p400
aVJanuary 3, 1981
p401
aVJanuary 27, 1982
p402
aVSeptember 16, 1974, Rotorua
p403
aVdate unknown
p404
aVAugust 6, 1980, Christchurch
p405
aVAugust 16, 1980, Apia, Western Samoa
p406
aVOctober 9, 1977
p407
aVJune 5, 1986, Apia, Western Samoa
p408
aVMarch 14, 1977, Wellington
p409
aVSeptember 28, 1981, Dunedin
p410
aVApril 23, 1982, Rotorua
p411
aVDecember 29, 1983
p412
aVOctober 31, 1980, Apia, Western Samoa
p413
aVJune 25, 1979
p414
aVAugust 26, 1984, Western Samoa
p415
aVSeptember 17, 1986
p416
aVFebruary 27, 1980, Moto'otua, Western Samoa
p417
aVApril 17, 1982, Western Samoa
p418
aVOctober 28, 1985, Afega, Western Samoa
p419
aVdate unknown
p420
aVJanuary 8, 1982, Matuatua, Western Samoa
p421
aVMarch 14, 1976, Moata'a, Western Samoa
p422
aVJuly 21, 1973
p423
aVSeptember 6, 1979, Huntly
p424
aVMay 13, 1981, Wellington
p425
aVJanuary 9, 1982, Paraparaumu
p426
aVJune 10, 1983, Auckland
p427
aVdate unknown
p428
aVNovember 20, 1987, Apia, Western Samoa
p429
aVFebruary 5, 1981, Otahuhu
p430
aVDecember 17, 1983, Apia, Western Samoa
p431
aVApril 22, 1982, Apia, Western Samoa
p432
aVJanuary 15, 1979, Apia, Western Samoa
p433
aVMay 30, 1980, Moto'otua, Western Samoa
p434
aVJanuary 28, 1986
p435
aVFebruary 21, 1984
p436
aVJuly 2, 1986, Auckland
p437
aVdate unknown
p438
aVOctober 7, 1982
p439
aVMay 20, 1984
p440
aVMay 7, 1980
p441
aVMarch 24, 1985, Western Samoa
p442
aVMarch 6, 1986, Auckland
p443
aVJuly 20, 1978
p444
aVdate unknown
p445
aVOctober 9, 1980
p446
aVJanuary 8, 1983
p447
aVApril 21, 1988
p448
aVdate unknown
p449
aVJune 21, 1988
p450
aVDecember 7, 1988
p451
aVJune 19, 1980
p452
aVMay 28, 1977
p453
aVMarch 31, 1984, Moto'otua, Western Samoa
p454
aVJune 20, 1985
p455
aVApril 12, 1987
p456
aVNovember 26, 1988
p457
aVDecember 13, 1988
p458
aVApril 2, 1984, Vailelev, Upolu, Western Samoa
p459
aVSeptember 8, 1988
p460
aVMarch 25, 1981
p461
aVAugust 9, 1985
p462
aVJanuary 21, 1985
p463
aVMarch 11, 1987, Manono, Western Samoa
p464
aVJanuary 29, 1983, Moto'otua, Western Samoa
p465
aVMay 28, 1983, Moto'otua, Western Samoa
p466
aVApril 26, 1984
p467
aVDecember 12, 1988
p468
aVNovember 21, 1983, Auckland
p469
aVOctober 18, 1982, Wellington
p470
aVJune 29, 1986, Apia, Western Samoa
p471
aVFebruary 28, 1989
p472
aVApril 22, 1983, Auckland
p473
aVDecember 6, 1981, Auckland
p474
aVJuly 23, 1985
p475
aVMarch 26, 1986, Moto'otua, Western Samoa
p476
aVFebruary 22, 1987, Western Samoa
p477
aVSeptember 29, 1982
p478
aVMay 22, 1982, Auckland
p479
aVJanuary 7, 1988, Western Samoa
p480
aVSeptember 9, 1985, Wellington
p481
aVNovember 6, 1986, Christchurch
p482
aVFebruary 10, 1988
p483
aVMarch 4, 1987
p484
aVJanuary 10, 1980, South Auckland
p485
aVJanuary 13, 1983, Christchurch
p486
aVJune 18, 1982, Apia, Western Samoa
p487
aVMarch 2, 1989, Wellington
p488
aVApril 6, 1983, Brisbane, QLD
p489
aVAugust 20, 1984, Moto'otua, Western Samoa
p490
aVJune 13, 1983, Wellington
p491
aVJanuary 21, 1984, Palmerston North
p492
aVFebruary 13, 1986, Auckland
p493
aVMarch 22, 1980, Western Samoa
p494
aVSeptember 18, 1986, Western Samoa
p495
aVNovember 10, 1988, Wellington
p496
aVSeptember 18, 1988, Vailoa Palauli, Western Samoa
p497
aVOctober 22, 1985, Wellington
p498
aVAugust 3, 1983
p499
aVApril 17, 1989, Otahuhu
p500
aVMarch 9, 1986
p501
aVFebruary 24, 1989, Auckland
p502
aVApril 11, 1987
p503
aVFebruary 11, 1989
p504
aVMay 24, 1990
p505
aVJuly 26, 1986, Moto'otua, Western Samoa
p506
aVMay 26, 1985
p507
aVMarch 28, 1992, Moto'otua, Western Samoa
p508
aVNovember 6, 1987, Wellington
p509
aVSeptember 14, 1987, Western Samoa
p510
aVMarch 13, 1992
p511
aVNovember 18, 1987, Hamilton
p512
aVSeptember 21, 1988, Malie, Western Samoa
p513
aVDecember 26, 1986, Wellington
p514
aVMay 3, 1987, Auckland
p515
aVJanuary 22, 1988, Porirua
p516
aVJanuary 15, 1986, Porirua
p517
aVAugust 24, 1987
p518
aVFebruary 18, 1992
p519
aVJune 2, 1992
p520
aVMarch 5, 1991
p521
aVFebruary 17, 1984
p522
aVSeptember 1, 1992, Moto'otua, Western Samoa
p523
aVJanuary 25, 1991
p524
aVApril 7, 1989, Western Samoa
p525
aVDecember 22, 1989
p526
aVMarch 16, 1991
p527
aVdate unknown
p528
aVApril 16, 1993
p529
aVDecember 29, 1989, Auckland
p530
aVFebruary 11, 1989, Brisbane, QLD
p531
aVMarch 14, 1984
p532
aVMarch 12, 1991, Auckland
p533
aVMay 9, 1989, Moto'otua, Western Samoa
p534
aVMarch 1, 1986, Apia, Western Samoa
p535
aVOctober 23, 1989, Western Samoa
p536
a.