(lp1
(lp2
S'O. Faupula'
p3
aS'1924'
p4
aS''
aS'date unknown'
p5
aS'3'
aS'1'
aS'0'
aS'0'
aa(lp6
S'Te. Fifita'
p7
aS'1924'
p8
aS''
aS'date unknown'
p9
aS'3'
aS'1'
aS'0'
aS'0'
aa(lp10
S'Afu Fifita'
p11
aS'1924'
p12
aS''
aS'date unknown'
p13
aS'3'
aS'1'
aS'0'
aS'0'
aa(lp14
S'Sione Finau'
p15
aS'1924'
p16
aS'Flanker'
p17
aS'date unknown'
p18
aS'6'
aS'3'
aS'1'
aS'13'
p19
aa(lp20
S'Tevita Finau'
p21
aS'1924'
p22
aS''
aS'date unknown'
p23
aS'3'
aS'1'
aS'0'
aS'0'
aa(lp24
S'L. Fineanganofo'
p25
aS'1924'
p26
aS''
aS'date unknown'
p27
aS'3'
aS'1'
aS'0'
aS'0'
aa(lp28
S'S. Halahingalo'
p29
aS'1924'
p30
aS''
aS'date unknown'
p31
aS'3'
aS'1'
aS'0'
aS'0'
aa(lp32
S'S. Halaholo'
p33
aS'1924'
p34
aS''
aS'date unknown'
p35
aS'3'
aS'1'
aS'0'
aS'0'
aa(lp36
S'Taniela Haumono'
p37
aS'1924'
p38
aS'Lock'
p39
aS'date unknown'
p40
aS'12'
p41
aS'5'
aS'2'
aS'12'
p42
aa(lp43
S'T. Havea'
p44
aS'1924'
p45
aS''
aS'date unknown'
p46
aS'3'
aS'1'
aS'0'
aS'0'
aa(lp47
S'Peni Katoa'
p48
aS'1924'
p49
aS''
aS'date unknown'
p50
aS'3'
aS'1'
aS'0'
aS'3'
aa(lp51
S'M. Liongitau'
p52
aS'1924'
p53
aS''
aS'date unknown'
p54
aS'3'
aS'1'
aS'0'
aS'0'
aa(lp55
S"E. Mo'ungaloa"
p56
aS'1924'
p57
aS''
aS'date unknown'
p58
aS'3'
aS'1'
aS'0'
aS'0'
aa(lp59
S'P. Palavi'
p60
aS'1924'
p61
aS''
aS'date unknown'
p62
aS'3'
aS'1'
aS'0'
aS'0'
aa(lp63
S'S. Pifalati'
p64
aS'1924'
p65
aS''
aS'date unknown'
p66
aS'2'
aS'1'
aS'0'
aS'0'
aa(lp67
S'Sione Selupe'
p68
aS'1924'
p69
aS'Prop'
p70
aS'date unknown'
p71
aS'6'
aS'3'
aS'1'
aS'3'
aa(lp72
S'Peni Sikalu'
p73
aS'1924'
p74
aS''
aS'date unknown'
p75
aS'3'
aS'1'
aS'0'
aS'0'
aa(lp76
S'Sione Simiki'
p77
aS'1924'
p78
aS'No. 8'
p79
aS'date unknown'
p80
aS'6'
aS'3'
aS'1'
aS'3'
aa(lp81
S'Tevita Tofua'
p82
aS'1924'
p83
aS'Hooker'
p84
aS'date unknown'
p85
aS'6'
aS'3'
aS'0'
aS'0'
aa(lp86
S"Na'a Tovo"
p87
aS'1924'
p88
aS''
aS'date unknown'
p89
aS'3'
aS'1'
aS'0'
aS'0'
aa(lp90
S'Aisea Tupou'
p91
aS'1924'
p92
aS''
aS'date unknown'
p93
aS'3'
aS'1'
aS'0'
aS'0'
aa(lp94
S"S. Vaka'uta"
p95
aS'1924'
p96
aS''
aS'date unknown'
p97
aS'3'
aS'1'
aS'0'
aS'0'
aa(lp98
S'Sione Kuila'
p99
aS'1924'
p100
aS''
aS'date unknown'
p101
aS'1'
aS'0'
aS'0'
aS'0'
aa(lp102
S"Peni 'Ake"
p103
aS'1926'
p104
aS'Prop'
p105
aS'date unknown'
p106
aS'3'
aS'2'
aS'0'
aS'0'
aa(lp107
S'J. Fakalolo'
p108
aS'1926'
p109
aS'Lock'
p110
aS'date unknown'
p111
aS'3'
aS'2'
aS'0'
aS'0'
aa(lp112
S'J. Fukofuka'
p113
aS'1926'
p114
aS'Wing'
p115
aS'date unknown'
p116
aS'4'
aS'3'
aS'0'
aS'0'
aa(lp117
S'Aminiasi Kefu'
p118
aS'1926'
p119
aS'Wing'
p120
aS'date unknown'
p121
aS'5'
aS'3'
aS'1'
aS'3'
aa(lp122
S'Moahegi Latunipulu'
p123
aS'1926'
p124
aS'Prop'
p125
aS'date unknown'
p126
aS'3'
aS'2'
aS'0'
aS'0'
aa(lp127
S'Amone Lino'
p128
aS'1926'
p129
aS'Fullback'
p130
aS'date unknown'
p131
aS'3'
aS'2'
aS'0'
aS'0'
aa(lp132
S'Sione Misa'
p133
aS'1926'
p134
aS'Fly-half'
p135
aS'date unknown'
p136
aS'3'
aS'2'
aS'1'
aS'3'
aa(lp137
S'Tevita Sitanilei'
p138
aS'1926'
p139
aS'Scrum-half'
p140
aS'date unknown'
p141
aS'7'
aS'4'
aS'0'
aS'0'
aa(lp142
S'Viliami Taufatofua'
p143
aS'1926'
p144
aS'No. 8'
p145
aS'date unknown'
p146
aS'3'
aS'2'
aS'0'
aS'0'
aa(lp147
S'Simione Tufui'
p148
aS'1926'
p149
aS'Wing'
p150
aS'date unknown'
p151
aS'12'
p152
aS'5'
aS'2'
aS'6'
aa(lp153
S"Esei Tu'ipolotu"
p154
aS'1926'
p155
aS'Centre'
p156
aS'date unknown'
p157
aS'5'
aS'3'
aS'0'
aS'0'
aa(lp158
S"S. Akau'ola"
p159
aS'1928'
p160
aS''
aS'date unknown'
p161
aS'2'
aS'1'
aS'0'
aS'0'
aa(lp162
S'Samiuela Fonua'
p163
aS'1928'
p164
aS''
aS'date unknown'
p165
aS'3'
aS'2'
aS'0'
aS'0'
aa(lp166
S'Tevita Fuataimi'
p167
aS'1928'
p168
aS'No. 8'
p169
aS'date unknown'
p170
aS'6'
aS'2'
aS'2'
aS'6'
aa(lp171
S"Fa'aitu Hafoka"
p172
aS'1928'
p173
aS'No. 8'
p174
aS'date unknown'
p175
aS'5'
aS'1'
aS'0'
aS'0'
aa(lp176
S'Isitolo Hafoka'
p177
aS'1928'
p178
aS'Fly-half'
p179
aS'date unknown'
p180
aS'8'
aS'2'
aS'0'
aS'11'
p181
aa(lp182
S'L. Kainga'
p183
aS'1928'
p184
aS''
aS'date unknown'
p185
aS'3'
aS'2'
aS'0'
aS'0'
aa(lp186
S'T. Langi'
p187
aS'1928'
p188
aS''
aS'date unknown'
p189
aS'1'
aS'1'
aS'0'
aS'0'
aa(lp190
S'Sione Leba'
p191
aS'1928'
p192
aS'Hooker'
p193
aS'date unknown'
p194
aS'5'
aS'1'
aS'0'
aS'0'
aa(lp195
S'F. Mailangi'
p196
aS'1928'
p197
aS''
aS'date unknown'
p198
aS'2'
aS'1'
aS'0'
aS'0'
aa(lp199
S'S. Mateaki'
p200
aS'1928'
p201
aS''
aS'date unknown'
p202
aS'2'
aS'1'
aS'0'
aS'0'
aa(lp203
S'Suli Moa'
p204
aS'1928'
p205
aS''
aS'date unknown'
p206
aS'2'
aS'2'
aS'0'
aS'0'
aa(lp207
S'Osaisai Pepa Koloamatangii'
p208
aS'1928'
p209
aS''
aS'date unknown'
p210
aS'3'
aS'2'
aS'1'
aS'3'
aa(lp211
S'Sione T. Puloka'
p212
aS'1928'
p213
aS''
aS'date unknown'
p214
aS'5'
aS'2'
aS'0'
aS'0'
aa(lp215
S'Pauli Taumoepeau'
p216
aS'1928'
p217
aS''
aS'date unknown'
p218
aS'3'
aS'2'
aS'0'
aS'0'
aa(lp219
S"L. Tu'uta"
p220
aS'1928'
p221
aS''
aS'date unknown'
p222
aS'2'
aS'1'
aS'0'
aS'8'
aa(lp223
S'Saia Vaea'
p224
aS'1928'
p225
aS''
aS'date unknown'
p226
aS'3'
aS'2'
aS'1'
aS'3'
aa(lp227
S'Sione Finisi Heleta'
p228
aS'1928'
p229
aS'Prop'
p230
aS'date unknown'
p231
aS'5'
aS'1'
aS'0'
aS'0'
aa(lp232
S'Ilaikimi Omani'
p233
aS'1928'
p234
aS'Lock'
p235
aS'date unknown'
p236
aS'5'
aS'1'
aS'0'
aS'0'
aa(lp237
S'Sefesi Ata'
p238
aS'1928'
p239
aS'Wing'
p240
aS'date unknown'
p241
aS'1'
aS'1'
aS'0'
aS'0'
aa(lp242
S'Tevita Alatini'
p243
aS'1932'
p244
aS'Scrum-half'
p245
aS'date unknown'
p246
aS'1'
aS'0'
aS'0'
aS'0'
aa(lp247
S'Osaiasi Beba'
p248
aS'1932'
p249
aS'Centre'
p250
aS'date unknown'
p251
aS'3'
aS'0'
aS'0'
aS'2'
aa(lp252
S'Tomasi Soaiti'
p253
aS'1932'
p254
aS''
aS'date unknown'
p255
aS'3'
aS'0'
aS'0'
aS'0'
aa(lp256
S"Siosi Tu'itavake"
p257
aS'1932'
p258
aS'Lock'
p259
aS'date unknown'
p260
aS'1'
aS'0'
aS'0'
aS'0'
aa(lp261
S'Visa Vaka'
p262
aS'1932'
p263
aS'Prop'
p264
aS'date unknown'
p265
aS'1'
aS'0'
aS'0'
aS'0'
aa(lp266
S'Viliami Vuni'
p267
aS'1932'
p268
aS'Wing'
p269
aS'date unknown'
p270
aS'6'
aS'1'
aS'0'
aS'0'
aa(lp271
S'Sione Buloka'
p272
aS'1932'
p273
aS'Centre'
p274
aS'date unknown'
p275
aS'2'
aS'0'
aS'0'
aS'0'
aa(lp276
S'Joasina Kaihau'
p277
aS'1932'
p278
aS'Wing'
p279
aS'date unknown'
p280
aS'2'
aS'0'
aS'0'
aS'0'
aa(lp281
S'Sione Laiseni'
p282
aS'1932'
p283
aS'Flanker'
p284
aS'date unknown'
p285
aS'2'
aS'0'
aS'0'
aS'0'
aa(lp286
S'Sione Vikilani'
p287
aS'1932'
p288
aS'Flanker'
p289
aS'date unknown'
p290
aS'2'
aS'0'
aS'1'
aS'3'
aa(lp291
S'Siu Aisake'
p292
aS'1934'
p293
aS''
aS'date unknown'
p294
aS'3'
aS'1'
aS'0'
aS'0'
aa(lp295
S"Masiu Akau'ola"
p296
aS'1934'
p297
aS''
aS'date unknown'
p298
aS'3'
aS'1'
aS'0'
aS'0'
aa(lp299
S'Tonga Faleola'
p300
aS'1934'
p301
aS'Wing'
p302
aS'date unknown'
p303
aS'3'
aS'1'
aS'0'
aS'0'
aa(lp304
S'Simione Fangupo'
p305
aS'1934'
p306
aS''
aS'date unknown'
p307
aS'3'
aS'1'
aS'0'
aS'0'
aa(lp308
S'Fine Fifita'
p309
aS'1934'
p310
aS''
aS'date unknown'
p311
aS'3'
aS'1'
aS'0'
aS'0'
aa(lp312
S'Lisala Fifita'
p313
aS'1934'
p314
aS''
aS'date unknown'
p315
aS'3'
aS'1'
aS'0'
aS'0'
aa(lp316
S'Siua Kaihau'
p317
aS'1934'
p318
aS''
aS'date unknown'
p319
aS'3'
aS'1'
aS'0'
aS'0'
aa(lp320
S'Timote Mafi'
p321
aS'1934'
p322
aS''
aS'date unknown'
p323
aS'3'
aS'1'
aS'0'
aS'0'
aa(lp324
S'Viliami Moeaki'
p325
aS'1934'
p326
aS'Centre'
p327
aS'date unknown'
p328
aS'3'
aS'1'
aS'0'
aS'0'
aa(lp329
S"Sione Napa'a"
p330
aS'1934'
p331
aS''
aS'date unknown'
p332
aS'3'
aS'1'
aS'1'
aS'3'
aa(lp333
S'Tevita Piukala'
p334
aS'1934'
p335
aS''
aS'date unknown'
p336
aS'3'
aS'1'
aS'1'
aS'3'
aa(lp337
S'Henele Taliai'
p338
aS'1934'
p339
aS''
aS'date unknown'
p340
aS'3'
aS'1'
aS'0'
aS'0'
aa(lp341
S"Sione Tunufa'i"
p342
aS'1934'
p343
aS''
aS'date unknown'
p344
aS'3'
aS'1'
aS'0'
aS'0'
aa(lp345
S'Tevita Unga'
p346
aS'1934'
p347
aS''
aS'date unknown'
p348
aS'3'
aS'1'
aS'0'
aS'0'
aa(lp349
S'Tevita Apitani'
p350
aS'1947'
p351
aS'Centre'
p352
aS'date unknown'
p353
aS'2'
aS'0'
aS'0'
aS'0'
aa(lp354
S'Samiuela Fotu'
p355
aS'1947'
p356
aS'Centre'
p357
aS'date unknown'
p358
aS'1'
aS'0'
aS'0'
aS'0'
aa(lp359
S'Mesiu Ilolahia'
p360
aS'1947'
p361
aS'Prop'
p362
aS'date unknown'
p363
aS'1'
aS'0'
aS'0'
aS'0'
aa(lp364
S'Tevita Kaufana'
p365
aS'1947'
p366
aS''
aS'date unknown'
p367
aS'1'
aS'0'
aS'0'
aS'0'
aa(lp368
S'Valita Likio'
p369
aS'1947'
p370
aS'Flanker'
p371
aS'date unknown'
p372
aS'2'
aS'0'
aS'0'
aS'0'
aa(lp373
S"Tongatoutei Ma'u"
p374
aS'1947'
p375
aS'No. 8'
p376
aS'date unknown'
p377
aS'2'
aS'0'
aS'0'
aS'3'
aa(lp378
S"Valeti Ma'u"
p379
aS'1947'
p380
aS'Fullback'
p381
aS'date unknown'
p382
aS'1'
aS'0'
aS'0'
aS'0'
aa(lp383
S"Sione Mo'ungalo"
p384
aS'1947'
p385
aS'Fly-half'
p386
aS'date unknown'
p387
aS'1'
aS'0'
aS'0'
aS'0'
aa(lp388
S'Sini Pouanga'
p389
aS'1947'
p390
aS'Lock'
p391
aS'date unknown'
p392
aS'2'
aS'0'
aS'0'
aS'0'
aa(lp393
S'Tevita Samiu'
p394
aS'1947'
p395
aS''
aS'date unknown'
p396
aS'1'
aS'0'
aS'0'
aS'0'
aa(lp397
S'Makoni Sifa'
p398
aS'1947'
p399
aS'Hooker'
p400
aS'date unknown'
p401
aS'1'
aS'0'
aS'0'
aS'0'
aa(lp402
S'Kuli Tonga'
p403
aS'1947'
p404
aS'Scrum-half'
p405
aS'date unknown'
p406
aS'2'
aS'0'
aS'0'
aS'0'
aa(lp407
S'Malakai Tonga'
p408
aS'1947'
p409
aS'Wing'
p410
aS'date unknown'
p411
aS'2'
aS'0'
aS'0'
aS'0'
aa(lp412
S"Soane Tu'ipulotu"
p413
aS'1947'
p414
aS'Lock'
p415
aS'date unknown'
p416
aS'2'
aS'0'
aS'1'
aS'3'
aa(lp417
S'Sione Valeli'
p418
aS'1947'
p419
aS'Prop'
p420
aS'date unknown'
p421
aS'1'
aS'0'
aS'0'
aS'4'
aa(lp422
S'Inoke'
p423
aS'1947'
p424
aS''
aS'date unknown'
p425
aS'1'
aS'0'
aS'1'
aS'3'
aa(lp426
S'Malu'
p427
aS'1947'
p428
aS''
aS'date unknown'
p429
aS'1'
aS'0'
aS'0'
aS'0'
aa(lp430
S'Tuifio Taufa Aloua'
p431
aS'1958'
p432
aS''
aS'date unknown'
p433
aS'3'
aS'1'
aS'0'
aS'0'
aa(lp434
S'Kisione Fifita'
p435
aS'1958'
p436
aS'Flanker'
p437
aS'date unknown'
p438
aS'3'
aS'1'
aS'0'
aS'0'
aa(lp439
S"Samiu Hala'unga"
p440
aS'1958'
p441
aS'Centre'
p442
aS'date unknown'
p443
aS'3'
aS'1'
aS'0'
aS'0'
aa(lp444
S"Mafile'o Kefu"
p445
aS'1958'
p446
aS'Centre'
p447
aS'date unknown'
p448
aS'7'
aS'3'
aS'0'
aS'7'
aa(lp449
S'Sele Latukefu'
p450
aS'1958'
p451
aS'Lock'
p452
aS'date unknown'
p453
aS'9'
aS'4'
aS'0'
aS'0'
aa(lp454
S'Samiuela Mafana'
p455
aS'1958'
p456
aS'Flanker'
p457
aS'date unknown'
p458
aS'7'
aS'3'
aS'1'
aS'3'
aa(lp459
S'Lutu Mailangi'
p460
aS'1958'
p461
aS'Flanker'
p462
aS'date unknown'
p463
aS'7'
aS'3'
aS'0'
aS'0'
aa(lp464
S'Tevita Moli'
p465
aS'1958'
p466
aS'Prop'
p467
aS'date unknown'
p468
aS'3'
aS'1'
aS'0'
aS'0'
aa(lp469
S'Sione Nauvai'
p470
aS'1958'
p471
aS'Wing'
p472
aS'date unknown'
p473
aS'4'
aS'2'
aS'1'
aS'3'
aa(lp474
S'Tevita Sika'
p475
aS'1958'
p476
aS'Fullback'
p477
aS'date unknown'
p478
aS'3'
aS'1'
aS'0'
aS'0'
aa(lp479
S'Sione Tavo'
p480
aS'1958'
p481
aS'Prop'
p482
aS'date unknown'
p483
aS'13'
p484
aS'5'
aS'1'
aS'3'
aa(lp485
S'Talaiasi Teu'
p486
aS'1958'
p487
aS'Centre'
p488
aS'date unknown'
p489
aS'3'
aS'1'
aS'0'
aS'0'
aa(lp490
S'Paula Tevi'
p491
aS'1958'
p492
aS'Wing'
p493
aS'date unknown'
p494
aS'3'
aS'1'
aS'0'
aS'0'
aa(lp495
S"Isikeli Vaka'uta"
p496
aS'1958'
p497
aS''
aS'date unknown'
p498
aS'6'
aS'2'
aS'0'
aS'5'
aa(lp499
S'Sione Vunipola'
p500
aS'1958'
p501
aS'Prop'
p502
aS'date unknown'
p503
aS'5'
aS'2'
aS'0'
aS'0'
aa(lp504
S'Finau Otutoa'
p505
aS'1958'
p506
aS'Prop'
p507
aS'date unknown'
p508
aS'2'
aS'1'
aS'0'
aS'0'
aa(lp509
S"Pauli Ma'afu"
p510
aS'1959'
p511
aS'Flanker'
p512
aS'date unknown'
p513
aS'3'
aS'2'
aS'0'
aS'0'
aa(lp514
S'Kalisi Moala'
p515
aS'1959'
p516
aS'Prop'
p517
aS'date unknown'
p518
aS'6'
aS'2'
aS'0'
aS'0'
aa(lp519
S"Lausi'i Tu'itavake"
p520
aS'1959'
p521
aS'Hooker'
p522
aS'date unknown'
p523
aS'4'
aS'2'
aS'0'
aS'0'
aa(lp524
S'Samiuela Ula'
p525
aS'1959'
p526
aS'Scrum-half'
p527
aS'date unknown'
p528
aS'4'
aS'2'
aS'1'
aS'3'
aa(lp529
S"Viliami Vaka'uta"
p530
aS'1959'
p531
aS'Wing'
p532
aS'date unknown'
p533
aS'2'
aS'2'
aS'0'
aS'2'
aa(lp534
S'Kakalosi Kioa'
p535
aS'1959'
p536
aS'No. 8'
p537
aS'date unknown'
p538
aS'2'
aS'2'
aS'0'
aS'0'
aa(lp539
S"Lausi'i Fililava"
p540
aS'1960'
p541
aS'Centre'
p542
aS'date unknown'
p543
aS'1'
aS'1'
aS'2'
aS'6'
aa(lp544
S'Uatesoni Palavi'
p545
aS'1960'
p546
aS'Fly-half'
p547
aS'date unknown'
p548
aS'3'
aS'1'
aS'1'
aS'3'
aa(lp549
S"Petelo Fa'apoi"
p550
aS'1963'
p551
aS'Wing'
p552
aS'date unknown'
p553
aS'1'
aS'0'
aS'0'
aS'0'
aa(lp554
S"Panuve Faka'ua"
p555
aS'1963'
p556
aS'Centre'
p557
aS'date unknown'
p558
aS'11'
p559
aS'3'
aS'0'
aS'0'
aa(lp560
S'Siaosi Selupe'
p561
aS'1963'
p562
aS'Lock'
p563
aS'date unknown'
p564
aS'10'
p565
aS'4'
aS'2'
aS'6'
aa(lp566
S'Ngalumoetutula Kalaniuvalu'
p567
aS'1963'
p568
aS'No. 8'
p569
aS'date unknown'
p570
aS'1'
aS'0'
aS'0'
aS'0'
aa(lp571
S'Foua Moala'
p572
aS'1963'
p573
aS'Prop'
p574
aS'date unknown'
p575
aS'4'
aS'1'
aS'1'
aS'3'
aa(lp576
S'Takai Sime'
p577
aS'1963'
p578
aS'Wing'
p579
aS'date unknown'
p580
aS'1'
aS'0'
aS'0'
aS'0'
aa(lp581
S"Tamata'ane Tatafu"
p582
aS'1963'
p583
aS'Wing'
p584
aS'date unknown'
p585
aS'1'
aS'0'
aS'0'
aS'0'
aa(lp586
S"Fetu'ulele"
p587
aS'1967'
p588
aS''
aS'date unknown'
p589
aS'1'
aS'0'
aS'0'
aS'0'
aa(lp590
S'Taniela Finau'
p591
aS'1967'
p592
aS'Prop'
p593
aS'date unknown'
p594
aS'1'
aS'0'
aS'0'
aS'0'
aa(lp595
S'Talitaufa Helu'
p596
aS'1967'
p597
aS'Scrum-half'
p598
aS'date unknown'
p599
aS'2'
aS'0'
aS'1'
aS'3'
aa(lp600
S"Kimpu 'Inoke"
p601
aS'1967'
p602
aS'Flanker'
p603
aS'date unknown'
p604
aS'11'
p605
aS'3'
aS'3'
aS'10'
p606
aa(lp607
S"Kei 'Iongi"
p608
aS'1967'
p609
aS'Wing'
p610
aS'date unknown'
p611
aS'12'
p612
aS'4'
aS'2'
aS'10'
p613
aa(lp614
S'Etuini Kelemeni'
p615
aS'1967'
p616
aS'Wing'
p617
aS'date unknown'
p618
aS'3'
aS'0'
aS'0'
aS'0'
aa(lp619
S'Tali Latukefu'
p620
aS'1967'
p621
aS'Fly-half'
p622
aS'date unknown'
p623
aS'6'
aS'1'
aS'0'
aS'0'
aa(lp624
S'Tevita Leger'
p625
aS'1967'
p626
aS'Flanker'
p627
aS'1939'
p628
aS'2'
aS'0'
aS'0'
aS'0'
aa(lp629
S'Tuilipe Mapa'
p630
aS'1967'
p631
aS'Scrum-half'
p632
aS'date unknown'
p633
aS'2'
aS'0'
aS'0'
aS'0'
aa(lp634
S'Viliami Pahulu'
p635
aS'1967'
p636
aS'Hooker'
p637
aS'date unknown'
p638
aS'9'
aS'4'
aS'0'
aS'16'
p639
aa(lp640
S'Samiuela Tatafu'
p641
aS'1967'
p642
aS''
aS'date unknown'
p643
aS'1'
aS'0'
aS'0'
aS'0'
aa(lp644
S'Kalani Hafoka'
p645
aS'1967'
p646
aS'Fullback'
p647
aS'date unknown'
p648
aS'5'
aS'1'
aS'2'
aS'6'
aa(lp649
S'Viliami Hosea'
p650
aS'1967'
p651
aS'Prop'
p652
aS'date unknown'
p653
aS'2'
aS'0'
aS'0'
aS'0'
aa(lp654
S'Sione Kava'
p655
aS'1967'
p656
aS'Flanker'
p657
aS'date unknown'
p658
aS'1'
aS'0'
aS'0'
aS'0'
aa(lp659
S'Sione Motuliki'
p660
aS'1967'
p661
aS'Lock'
p662
aS'date unknown'
p663
aS'1'
aS'0'
aS'0'
aS'0'
aa(lp664
S'Freddie Muller'
p665
aS'1967'
p666
aS'Scrum-half'
p667
aS'date unknown'
p668
aS'8'
aS'3'
aS'1'
aS'3'
aa(lp669
S"Viliami 'Alipate"
p670
aS'1967'
p671
aS'No. 8'
p672
aS'date unknown'
p673
aS'5'
aS'2'
aS'0'
aS'0'
aa(lp674
S'Tali Kavapalu'
p675
aS'1967'
p676
aS'Centre'
p677
aS'date unknown'
p678
aS'14'
p679
aS'6'
aS'3'
aS'10'
p680
aa(lp681
S'George Selupe'
p682
aS'1967'
p683
aS'Flanker'
p684
aS'date unknown'
p685
aS'3'
aS'1'
aS'0'
aS'0'
aa(lp686
S'Telanisi'
p687
aS'1967'
p688
aS''
aS'date unknown'
p689
aS'1'
aS'0'
aS'0'
aS'0'
aa(lp690
S'Supileo Fotu'
p691
aS'1968'
p692
aS'Flanker'
p693
aS'date unknown'
p694
aS'5'
aS'3'
aS'2'
aS'6'
aa(lp695
S"Fetu'ulele Mailangi"
p696
aS'1968'
p697
aS'Lock'
p698
aS'date unknown'
p699
aS'4'
aS'2'
aS'1'
aS'3'
aa(lp700
S'Sione Sika'
p701
aS'1968'
p702
aS'Fullback'
p703
aS'date unknown'
p704
aS'5'
aS'3'
aS'0'
aS'23'
p705
aa(lp706
S'Molou Filimoehala'
p707
aS'1968'
p708
aS'Hooker'
p709
aS'date unknown'
p710
aS'5'
aS'1'
aS'0'
aS'0'
aa(lp711
S'Taniela Tonga'
p712
aS'1968'
p713
aS'Wing'
p714
aS'date unknown'
p715
aS'1'
aS'0'
aS'0'
aS'0'
aa(lp716
S'Sione Mafi Pahulu'
p717
aS'1969'
p718
aS'No. 8'
p719
aS'date unknown'
p720
aS'14'
p721
aS'5'
aS'3'
aS'29'
p722
aa(lp723
S"Sio Motu'apuaka"
p724
aS'1969'
p725
aS'Prop'
p726
aS'date unknown'
p727
aS'3'
aS'2'
aS'0'
aS'0'
aa(lp728
S"'Uhila Tai"
p729
aS'1969'
p730
aS'Fly-half'
p731
aS'date unknown'
p732
aS'2'
aS'1'
aS'0'
aS'0'
aa(lp733
S'Vainikolo Vanisi'
p734
aS'1969'
p735
aS'Wing'
p736
aS'date unknown'
p737
aS'2'
aS'2'
aS'0'
aS'0'
aa(lp738
S"'Inoke Lupina"
p739
aS'1969'
p740
aS'Hooker'
p741
aS'date unknown'
p742
aS'2'
aS'1'
aS'0'
aS'0'
aa(lp743
S"Malakai 'Alatini"
p744
aS'1969'
p745
aS'Fly-half'
p746
aS'date unknown'
p747
aS'12'
p748
aS'4'
aS'4'
aS'14'
p749
aa(lp750
S'Sami Latu'
p751
aS'1972'
p752
aS'Centre'
p753
aS'date unknown'
p754
aS'10'
p755
aS'3'
aS'3'
aS'12'
p756
aa(lp757
S"Taufu'i Moala"
p758
aS'1972'
p759
aS'Wing'
p760
aS'date unknown'
p761
aS'1'
aS'0'
aS'0'
aS'0'
aa(lp762
S"Kulini Motu'apuaka"
p763
aS'1972'
p764
aS'Prop'
p765
aS'date unknown'
p766
aS'1'
aS'0'
aS'0'
aS'0'
aa(lp767
S'Ilavalu Taufa'
p768
aS'1972'
p769
aS'Fullback'
p770
aS'date unknown'
p771
aS'1'
aS'0'
aS'0'
aS'2'
aa(lp772
S'Polutele Tuihalamaka'
p773
aS'1972'
p774
aS'Lock'
p775
aS'circa 1949'
p776
aS'14'
p777
aS'3'
aS'1'
aS'4'
aa(lp778
S'Fatai Kefu'
p779
aS'1972'
p780
aS'Fullback'
p781
aS'date unknown'
p782
aS'6'
aS'1'
aS'0'
aS'0'
aa(lp783
S'Eukaliti Hehepoto'
p784
aS'1972'
p785
aS'Hooker'
p786
aS'date unknown'
p787
aS'5'
aS'2'
aS'1'
aS'4'
aa(lp788
S'Tevita Bloomfield'
p789
aS'1973'
p790
aS'Prop'
p791
aS'date unknown'
p792
aS'5'
aS'2'
aS'0'
aS'0'
aa(lp793
S"Ha'unga Fonua"
p794
aS'1973'
p795
aS'Scrum-half'
p796
aS'date unknown'
p797
aS'7'
aS'3'
aS'1'
aS'4'
aa(lp798
S'F. Hufanga'
p799
aS'1973'
p800
aS''
aS'date unknown'
p801
aS'1'
aS'1'
aS'0'
aS'0'
aa(lp802
S"Valita Ma'ake"
p803
aS'1973'
p804
aS'Fullback'
p805
aS'date unknown'
p806
aS'17'
p807
aS'6'
aS'0'
aS'47'
p808
aa(lp809
S'Siope Matapule'
p810
aS'1973'
p811
aS'Wing'
p812
aS'date unknown'
p813
aS'2'
aS'1'
aS'0'
aS'0'
aa(lp814
S'Fakahau Valu'
p815
aS'1973'
p816
aS'Flanker'
p817
aS'circa 1950'
p818
aS'25'
p819
aS'7'
aS'6'
aS'24'
p820
aa(lp821
S'Sione Foliaki'
p822
aS'1973'
p823
aS'Fly-half'
p824
aS'date unknown'
p825
aS'3'
aS'1'
aS'0'
aS'0'
aa(lp826
S'Pasifiki Tonga'
p827
aS'1973'
p828
aS'Prop'
p829
aS'date unknown'
p830
aS'1'
aS'0'
aS'0'
aS'0'
aa(lp831
S"Fa'aleo Tupi"
p832
aS'1973'
p833
aS'Lock'
p834
aS'date unknown'
p835
aS'8'
aS'2'
aS'1'
aS'4'
aa(lp836
S"'Isikeli Vave"
p837
aS'1973'
p838
aS'Wing'
p839
aS'date unknown'
p840
aS'5'
aS'2'
aS'4'
aS'16'
p841
aa(lp842
S'Tuli Kaho'
p843
aS'1973'
p844
aS'Lock'
p845
aS'date unknown'
p846
aS'1'
aS'0'
aS'0'
aS'0'
aa(lp847
S'Ualeni Pahulu'
p848
aS'1973'
p849
aS'Prop'
p850
aS'date unknown'
p851
aS'3'
aS'1'
aS'0'
aS'0'
aa(lp852
S"Sitafooti 'Aho"
p853
aS'1974'
p854
aS'Centre'
p855
aS'date unknown'
p856
aS'3'
aS'1'
aS'1'
aS'4'
aa(lp857
S'Saia Fifita'
p858
aS'1974'
p859
aS'Prop'
p860
aS'date unknown'
p861
aS'4'
aS'1'
aS'3'
aS'12'
p862
aa(lp863
S'Talilotu Ngaluafe'
p864
aS'1974'
p865
aS'Wing'
p866
aS'date unknown'
p867
aS'5'
aS'1'
aS'4'
aS'16'
p868
aa(lp869
S'Tevita Pulumufita'
p870
aS'1974'
p871
aS'Hooker'
p872
aS'date unknown'
p873
aS'3'
aS'1'
aS'0'
aS'0'
aa(lp874
S'Saimone Vaea'
p875
aS'1974'
p876
aS'Flanker'
p877
aS'date unknown'
p878
aS'6'
aS'1'
aS'2'
aS'8'
aa(lp879
S'Peni Kaihau'
p880
aS'1975'
p881
aS'Scrum-half'
p882
aS'date unknown'
p883
aS'4'
aS'0'
aS'0'
aS'0'
aa(lp884
S'Sosaia Makalo'
p885
aS'1975'
p886
aS'Centre'
p887
aS'date unknown'
p888
aS'1'
aS'0'
aS'0'
aS'0'
aa(lp889
S"Hala Maka'ohi"
p890
aS'1975'
p891
aS'Fly-half'
p892
aS'date unknown'
p893
aS'8'
aS'3'
aS'0'
aS'0'
aa(lp894
S'Vainga Fakatulolo'
p895
aS'1975'
p896
aS'Prop'
p897
aS'date unknown'
p898
aS'1'
aS'0'
aS'0'
aS'0'
aa(lp899
S'Sateki Tupou'
p900
aS'1975'
p901
aS'Scrum-half'
p902
aS'date unknown'
p903
aS'1'
aS'0'
aS'0'
aS'0'
aa(lp904
S'Alele Vaihu'
p905
aS'1975'
p906
aS'Flanker'
p907
aS'date unknown'
p908
aS'1'
aS'0'
aS'0'
aS'0'
aa(lp909
S'Niuselau Tofa Fakauho'
p910
aS'1977'
p911
aS'Wing'
p912
aS'date unknown'
p913
aS'3'
aS'0'
aS'0'
aS'0'
aa(lp914
S'Mana Hafoka'
p915
aS'1977'
p916
aS'Lock'
p917
aS'date unknown'
p918
aS'4'
aS'1'
aS'0'
aS'0'
aa(lp919
S'Pangia Katoa'
p920
aS'1977'
p921
aS'Hooker'
p922
aS'date unknown'
p923
aS'10'
p924
aS'3'
aS'0'
aS'0'
aa(lp925
S'Peni Kiole'
p926
aS'1977'
p927
aS'Prop'
p928
aS'date unknown'
p929
aS'7'
aS'2'
aS'0'
aS'5'
aa(lp930
S'Pasuka Mapakaitolo,Snr'
p931
aS'1977'
p932
aS'No. 8'
p933
aS'date unknown'
p934
aS'2'
aS'0'
aS'0'
aS'0'
aa(lp935
S"Viliami Moala'eua"
p936
aS'1977'
p937
aS'Centre'
p938
aS'date unknown'
p939
aS'9'
aS'4'
aS'1'
aS'4'
aa(lp940
S"Mosese Tu'ipulotu"
p941
aS'1977'
p942
aS'Wing'
p943
aS'date unknown'
p944
aS'3'
aS'0'
aS'1'
aS'4'
aa(lp945
S"Viliami Tu'ipulotu"
p946
aS'1977'
p947
aS'No. 8'
p948
aS'date unknown'
p949
aS'6'
aS'1'
aS'1'
aS'6'
aa(lp950
S'Folafala Vuna'
p951
aS'1977'
p952
aS'Prop'
p953
aS'date unknown'
p954
aS'6'
aS'1'
aS'0'
aS'0'
aa(lp955
S'Nunu Vahe'
p956
aS'1977'
p957
aS'Centre'
p958
aS'date unknown'
p959
aS'1'
aS'0'
aS'0'
aS'0'
aa(lp960
S"Sitani Hala'ufia"
p961
aS'1977'
p962
aS'Flanker'
p963
aS'date unknown'
p964
aS'5'
aS'1'
aS'0'
aS'0'
aa(lp965
S'Sione Alatini'
p966
aS'1977'
p967
aS'Fly-half'
p968
aS'date unknown'
p969
aS'3'
aS'0'
aS'0'
aS'0'
aa(lp970
S'Satisi Vunipola'
p971
aS'1977'
p972
aS'Scrum-half'
p973
aS'date unknown'
p974
aS'4'
aS'0'
aS'0'
aS'0'
aa(lp975
S'Molitoni Finau'
p976
aS'1979'
p977
aS'Centre'
p978
aS'date unknown'
p979
aS'5'
aS'3'
aS'2'
aS'8'
aa(lp980
S'Rocky Fotu'
p981
aS'1979'
p982
aS'Wing'
p983
aS'date unknown'
p984
aS'4'
aS'1'
aS'2'
aS'13'
p985
aa(lp986
S"Siai Liava'a"
p987
aS'1979'
p988
aS'Lock'
p989
aS'date unknown'
p990
aS'4'
aS'1'
aS'0'
aS'0'
aa(lp991
S"Peseti Ma'afu"
p992
aS'1979'
p993
aS'Scrum-half'
p994
aS'date unknown'
p995
aS'10'
p996
aS'4'
aS'1'
aS'4'
aa(lp997
S"Tui'pulotu Viliame"
p998
aS'1979'
p999
aS''
aS'date unknown'
p1000
aS'1'
aS'0'
aS'0'
aS'0'
aa(lp1001
S'Ofa Hiko'
p1002
aS'1979'
p1003
aS'Prop'
p1004
aS'date unknown'
p1005
aS'1'
aS'0'
aS'0'
aS'0'
aa(lp1006
S"Alamoni Liava'a"
p1007
aS'1979'
p1008
aS'Centre'
p1009
aS'circa 1959'
p1010
aS'14'
p1011
aS'4'
aS'3'
aS'31'
p1012
aa(lp1013
S'Prince Mailefihi'
p1014
aS'1979'
p1015
aS''
aS'date unknown'
p1016
aS'2'
aS'0'
aS'0'
aS'0'
aa(lp1017
S'Nofomuli Taumoefolau'
p1018
aS'1979'
p1019
aS'Wing'
p1020
aS'1956'
p1021
aS'18'
p1022
aS'4'
aS'5'
aS'20'
p1023
aa(lp1024
S"Tui'pulotu Maka"
p1025
aS'1979'
p1026
aS'Wing'
p1027
aS'date unknown'
p1028
aS'3'
aS'2'
aS'1'
aS'4'
aa(lp1029
S'M. Malu'
p1030
aS'1979'
p1031
aS'Flanker'
p1032
aS'date unknown'
p1033
aS'1'
aS'1'
aS'0'
aS'0'
aa(lp1034
S'Malakai Pulumu'
p1035
aS'1979'
p1036
aS'Flanker'
p1037
aS'date unknown'
p1038
aS'6'
aS'4'
aS'0'
aS'0'
aa(lp1039
S"Puniani Tu'ipulotu"
p1040
aS'1979'
p1041
aS'Hooker'
p1042
aS'date unknown'
p1043
aS'2'
aS'2'
aS'0'
aS'7'
aa(lp1044
S"Mailefihi Tuku'aho"
p1045
aS'1979'
p1046
aS'Lock'
p1047
aS"Nuku'alofa"
p1048
aS'4'
aS'3'
aS'0'
aS'0'
aa(lp1049
S'Soane Hola'
p1050
aS'1979'
p1051
aS'Lock'
p1052
aS'date unknown'
p1053
aS'1'
aS'1'
aS'0'
aS'0'
aa(lp1054
S"Talanoa Kitekei'aho"
p1055
aS'1979'
p1056
aS'Centre'
p1057
aS'circa 1958'
p1058
aS'4'
aS'1'
aS'0'
aS'0'
aa(lp1059
S'Kulikefu Lomu'
p1060
aS'1979'
p1061
aS'Centre'
p1062
aS'date unknown'
p1063
aS'1'
aS'1'
aS'0'
aS'0'
aa(lp1064
S"Soakai Motu'apuaka"
p1065
aS'1979'
p1066
aS'Prop'
p1067
aS'circa 1953'
p1068
aS'3'
aS'2'
aS'0'
aS'0'
aa(lp1069
S'Semisi Faleafa'
p1070
aS'1980'
p1071
aS'Centre'
p1072
aS'date unknown'
p1073
aS'1'
aS'1'
aS'0'
aS'0'
aa(lp1074
S"Fou Ma'afu"
p1075
aS'1980'
p1076
aS'Wing'
p1077
aS'date unknown'
p1078
aS'9'
aS'3'
aS'3'
aS'12'
p1079
aa(lp1080
S'Fili Moala'
p1081
aS'1980'
p1082
aS'Hooker'
p1083
aS'date unknown'
p1084
aS'12'
p1085
aS'5'
aS'1'
aS'4'
aa(lp1086
S'Sione Vai'
p1087
aS'1980'
p1088
aS'Centre'
p1089
aS'date unknown'
p1090
aS'1'
aS'1'
aS'1'
aS'4'
aa(lp1091
S'Sweet Leilani Fekau'
p1092
aS'1981'
p1093
aS'Centre'
p1094
aS'date unknown'
p1095
aS'5'
aS'1'
aS'0'
aS'0'
aa(lp1096
S'Poseisei Havili'
p1097
aS'1981'
p1098
aS'Flanker'
p1099
aS'date unknown'
p1100
aS'3'
aS'1'
aS'0'
aS'0'
aa(lp1101
S'Viliami Lutua'
p1102
aS'1981'
p1103
aS'Prop'
p1104
aS'circa 1956'
p1105
aS'7'
aS'1'
aS'0'
aS'0'
aa(lp1106
S'Sitini Mahe'
p1107
aS'1981'
p1108
aS'Lock'
p1109
aS'date unknown'
p1110
aS'3'
aS'1'
aS'0'
aS'0'
aa(lp1111
S'Paea Moala'
p1112
aS'1981'
p1113
aS'Wing'
p1114
aS'date unknown'
p1115
aS'3'
aS'1'
aS'1'
aS'4'
aa(lp1116
S'Soape Nuku'
p1117
aS'1981'
p1118
aS'Centre'
p1119
aS'date unknown'
p1120
aS'5'
aS'2'
aS'1'
aS'14'
p1121
aa(lp1122
S"Sisi Tu'ipulotu"
p1123
aS'1981'
p1124
aS'Prop'
p1125
aS'date unknown'
p1126
aS'1'
aS'0'
aS'0'
aS'0'
aa(lp1127
S'Pohahau Palu'
p1128
aS'1981'
p1129
aS'Flanker'
p1130
aS'date unknown'
p1131
aS'1'
aS'1'
aS'0'
aS'0'
aa(lp1132
S'Siale Vai'
p1133
aS'1981'
p1134
aS'Fullback'
p1135
aS'date unknown'
p1136
aS'4'
aS'1'
aS'0'
aS'9'
aa(lp1137
S'Sanilaita'
p1138
aS'1981'
p1139
aS'Wing'
p1140
aS'date unknown'
p1141
aS'1'
aS'1'
aS'0'
aS'0'
aa(lp1142
S'Amone Fungavaka'
p1143
aS'1982'
p1144
aS'Hooker'
p1145
aS'circa 1957'
p1146
aS'13'
p1147
aS'3'
aS'1'
aS'4'
aa(lp1148
S"Tu'ikolovatu Halafihi"
p1149
aS'1982'
p1150
aS'Fullback'
p1151
aS'date unknown'
p1152
aS'5'
aS'2'
aS'0'
aS'3'
aa(lp1153
S'Liapo Halavatau'
p1154
aS'1982'
p1155
aS'Lock'
p1156
aS'date unknown'
p1157
aS'2'
aS'0'
aS'0'
aS'0'
aa(lp1158
S'T. Kapeli'
p1159
aS'1982'
p1160
aS''
aS'date unknown'
p1161
aS'1'
aS'0'
aS'0'
aS'0'
aa(lp1162
S'Tomasi Lovo'
p1163
aS'1982'
p1164
aS'Fly-half'
p1165
aS'date unknown'
p1166
aS'9'
aS'2'
aS'0'
aS'40'
p1167
aa(lp1168
S'Laupo Mafileo'
p1169
aS'1982'
p1170
aS'Wing'
p1171
aS'date unknown'
p1172
aS'1'
aS'0'
aS'0'
aS'0'
aa(lp1173
S'Feleti Moala'
p1174
aS'1982'
p1175
aS'Scrum-half'
p1176
aS'date unknown'
p1177
aS'4'
aS'2'
aS'0'
aS'0'
aa(lp1178
S'Pule Moala'
p1179
aS'1982'
p1180
aS'Centre'
p1181
aS'date unknown'
p1182
aS'6'
aS'1'
aS'0'
aS'0'
aa(lp1183
S'Tevita Soane'
p1184
aS'1982'
p1185
aS'Lock'
p1186
aS'date unknown'
p1187
aS'7'
aS'3'
aS'0'
aS'0'
aa(lp1188
S'Poese Taukolo'
p1189
aS'1982'
p1190
aS'Flanker'
p1191
aS'date unknown'
p1192
aS'2'
aS'0'
aS'0'
aS'0'
aa(lp1193
S'Hakatoa Tupou'
p1194
aS'1982'
p1195
aS'Prop'
p1196
aS'circa 1959'
p1197
aS'9'
aS'1'
aS'1'
aS'4'
aa(lp1198
S'Kapelilei Vunipola'
p1199
aS'1982'
p1200
aS'Fly-half'
p1201
aS'date unknown'
p1202
aS'6'
aS'1'
aS'0'
aS'0'
aa(lp1203
S"Mesui Fanga'uta"
p1204
aS'1982'
p1205
aS'Wing'
p1206
aS'date unknown'
p1207
aS'1'
aS'0'
aS'0'
aS'0'
aa(lp1208
S'Vatuniloka Fifita'
p1209
aS'1982'
p1210
aS'No. 8'
p1211
aS'date unknown'
p1212
aS'1'
aS'0'
aS'0'
aS'0'
aa(lp1213
S"Ha'unga Petelo"
p1214
aS'1982'
p1215
aS'Fullback'
p1216
aS'date unknown'
p1217
aS'1'
aS'0'
aS'0'
aS'0'
aa(lp1218
S'Feleti Taniela'
p1219
aS'1982'
p1220
aS'Wing'
p1221
aS'date unknown'
p1222
aS'1'
aS'0'
aS'0'
aS'0'
aa(lp1223
S'Viliami Vunipola'
p1224
aS'1982'
p1225
aS'Centre'
p1226
aS'date unknown'
p1227
aS'1'
aS'0'
aS'0'
aS'0'
aa(lp1228
S'Pau Afeaki'
p1229
aS'1983'
p1230
aS'Flanker'
p1231
aS'date unknown'
p1232
aS'2'
aS'1'
aS'0'
aS'0'
aa(lp1233
S'Talai Fifita'
p1234
aS'1983'
p1235
aS'Scrum-half'
p1236
aS'1962'
p1237
aS'11'
p1238
aS'2'
aS'4'
aS'16'
p1239
aa(lp1240
S'Viliami Maka'
p1241
aS'1983'
p1242
aS'Lock'
p1243
aS'date unknown'
p1244
aS'4'
aS'2'
aS'0'
aS'0'
aa(lp1245
S"Kouliti Ma'u"
p1246
aS'1983'
p1247
aS'Prop'
p1248
aS'date unknown'
p1249
aS'5'
aS'2'
aS'2'
aS'8'
aa(lp1250
S'Laukau Ofa'
p1251
aS'1983'
p1252
aS'Wing'
p1253
aS'date unknown'
p1254
aS'5'
aS'1'
aS'0'
aS'0'
aa(lp1255
S"Heneli Pau'u"
p1256
aS'1983'
p1257
aS'Prop'
p1258
aS'date unknown'
p1259
aS'2'
aS'1'
aS'0'
aS'0'
aa(lp1260
S"'Otenili Pifeleti"
p1261
aS'1983'
p1262
aS'No. 8'
p1263
aS'date unknown'
p1264
aS'14'
p1265
aS'4'
aS'1'
aS'4'
aa(lp1266
S"'Ofa Blake"
p1267
aS'1983'
p1268
aS'Hooker'
p1269
aS'date unknown'
p1270
aS'8'
aS'0'
aS'0'
aS'0'
aa(lp1271
S'Tohi Leha'
p1272
aS'1983'
p1273
aS'Flanker'
p1274
aS'date unknown'
p1275
aS'2'
aS'0'
aS'0'
aS'0'
aa(lp1276
S"Pau'u Lolohea"
p1277
aS'1983'
p1278
aS''
aS'date unknown'
p1279
aS'2'
aS'0'
aS'0'
aS'0'
aa(lp1280
S"Tu'ihalafatai Ma'afu"
p1281
aS'1983'
p1282
aS''
aS'date unknown'
p1283
aS'2'
aS'0'
aS'1'
aS'4'
aa(lp1284
S'Takai Makisi'
p1285
aS'1983'
p1286
aS'Prop'
p1287
aS'circa 1962'
p1288
aS'4'
aS'1'
aS'0'
aS'0'
aa(lp1289
S"Mo'unga Taufateau"
p1290
aS'1983'
p1291
aS'Fullback'
p1292
aS'date unknown'
p1293
aS'4'
aS'1'
aS'1'
aS'4'
aa(lp1294
S'Paula Taholo'
p1295
aS'1983'
p1296
aS'Prop'
p1297
aS'date unknown'
p1298
aS'1'
aS'0'
aS'0'
aS'0'
aa(lp1299
S'Sinali-Tui Latu'
p1300
aS'1984'
p1301
aS'No. 8'
p1302
aS"Ha'apai"
p1303
aS'34'
p1304
aS'11'
p1305
aS'4'
aS'18'
p1306
aa(lp1307
S'Feao Lavemai'
p1308
aS'1984'
p1309
aS'Centre'
p1310
aS'date unknown'
p1311
aS'4'
aS'2'
aS'1'
aS'4'
aa(lp1312
S'Sekona Taufa'
p1313
aS'1984'
p1314
aS'Wing'
p1315
aS'date unknown'
p1316
aS'1'
aS'1'
aS'0'
aS'0'
aa(lp1317
S"Tali Ete'aki"
p1318
aS'1984'
p1319
aS'Fullback'
p1320
aS'circa 1963'
p1321
aS'13'
p1322
aS'2'
aS'0'
aS'0'
aa(lp1323
S'Paula Tupou'
p1324
aS'1984'
p1325
aS'No. 8'
p1326
aS'date unknown'
p1327
aS'3'
aS'0'
aS'0'
aS'0'
aa(lp1328
S"Laifai'i Kauhalaniua"
p1329
aS'1984'
p1330
aS'Fly-half'
p1331
aS'date unknown'
p1332
aS'1'
aS'0'
aS'0'
aS'0'
aa(lp1333
S'Peni Fakava'
p1334
aS'1985'
p1335
aS'Wing'
p1336
aS'date unknown'
p1337
aS'2'
aS'1'
aS'0'
aS'0'
aa(lp1338
S'Manisela Hekeheke'
p1339
aS'1985'
p1340
aS'Flanker'
p1341
aS'date unknown'
p1342
aS'4'
aS'2'
aS'0'
aS'0'
aa(lp1343
S'Fetaiaki Langi'
p1344
aS'1985'
p1345
aS'Flanker'
p1346
aS'date unknown'
p1347
aS'6'
aS'2'
aS'1'
aS'4'
aa(lp1348
S'Pila Maka'
p1349
aS'1985'
p1350
aS''
aS'date unknown'
p1351
aS'1'
aS'1'
aS'0'
aS'0'
aa(lp1352
S'Lui Stanley'
p1353
aS'1985'
p1354
aS'Centre'
p1355
aS'date unknown'
p1356
aS'1'
aS'1'
aS'0'
aS'0'
aa(lp1357
S'Latu Vaeno'
p1358
aS'1985'
p1359
aS'Prop'
p1360
aS'circa 1959'
p1361
aS'4'
aS'2'
aS'0'
aS'0'
aa(lp1362
S'Lausii Hopoate'
p1363
aS'1986'
p1364
aS'Wing'
p1365
aS'date unknown'
p1366
aS'1'
aS'0'
aS'0'
aS'0'
aa(lp1367
S'Emosi Koloto'
p1368
aS'1986'
p1369
aS'Flanker'
p1370
aS'1965'
p1371
aS'1'
aS'0'
aS'0'
aS'0'
aa(lp1372
S'Funa Moala'
p1373
aS'1986'
p1374
aS'Prop'
p1375
aS'date unknown'
p1376
aS'1'
aS'0'
aS'0'
aS'0'
aa(lp1377
S'Samiu Mohi'
p1378
aS'1986'
p1379
aS'Centre'
p1380
aS'circa 1962'
p1381
aS'6'
aS'1'
aS'0'
aS'0'
aa(lp1382
S"Mofuike Tu'ungafasi"
p1383
aS'1986'
p1384
aS'Lock'
p1385
aS'circa 1963'
p1386
aS'5'
aS'1'
aS'0'
aS'0'
aa(lp1387
S"Vaivao Fa'aumu"
p1388
aS'1986'
p1389
aS'Centre'
p1390
aS'date unknown'
p1391
aS'4'
aS'1'
aS'0'
aS'0'
aa(lp1392
S'Maliu Filise'
p1393
aS'1986'
p1394
aS'No. 8'
p1395
aS'circa 1958'
p1396
aS'4'
aS'1'
aS'0'
aS'0'
aa(lp1397
S"Popolini Ta'univao"
p1398
aS'1986'
p1399
aS'Flanker'
p1400
aS'date unknown'
p1401
aS'1'
aS'1'
aS'0'
aS'0'
aa(lp1402
S'Totilini Tuavao'
p1403
aS'1986'
p1404
aS''
aS'date unknown'
p1405
aS'1'
aS'0'
aS'0'
aS'0'
aa(lp1406
S"Soane 'Asi"
p1407
aS'1987'
p1408
aS'Wing'
p1409
aS'circa 1963'
p1410
aS'1'
aS'0'
aS'0'
aS'0'
aa(lp1411
S'Quddus Fielea'
p1412
aS'1987'
p1413
aS'Wing'
p1414
aS'1966'
p1415
aS'12'
p1416
aS'1'
aS'2'
aS'8'
aa(lp1417
S'Kasi Fine'
p1418
aS'1987'
p1419
aS'Lock'
p1420
aS'circa 1964'
p1421
aS'4'
aS'0'
aS'0'
aS'0'
aa(lp1422
S'Kini Fotu'
p1423
aS'1987'
p1424
aS'No. 8'
p1425
aS'circa 1965'
p1426
aS'8'
aS'1'
aS'1'
aS'4'
aa(lp1427
S"Taipaleti Tu'uta"
p1428
aS'1987'
p1429
aS'Flanker'
p1430
aS'circa 1964'
p1431
aS'8'
aS'2'
aS'0'
aS'0'
aa(lp1432
S'Sione Tahaafe'
p1433
aS'1987'
p1434
aS'No. 8'
p1435
aS'circa 1958'
p1436
aS'1'
aS'0'
aS'0'
aS'0'
aa(lp1437
S'Lemeki Vaipulu'
p1438
aS'1987'
p1439
aS'Fly-half'
p1440
aS'circa 1961'
p1441
aS'1'
aS'0'
aS'0'
aS'0'
aa(lp1442
S'Asa Amone'
p1443
aS'1987'
p1444
aS'Fly-half'
p1445
aS'1966'
p1446
aS'5'
aS'0'
aS'0'
aS'12'
p1447
aa(lp1448
S'Manu Vunipola'
p1449
aS'1987'
p1450
aS'Scrum-half'
p1451
aS'circa 1967'
p1452
aS'36'
p1453
aS'12'
p1454
aS'2'
aS'9'
aa(lp1455
S"Siaosi 'Atiola"
p1456
aS'1987'
p1457
aS'No. 8'
p1458
aS'date unknown'
p1459
aS'8'
aS'1'
aS'1'
aS'4'
aa(lp1460
S'Inoke Finau'
p1461
aS'1987'
p1462
aS'Prop'
p1463
aS'date unknown'
p1464
aS'5'
aS'0'
aS'0'
aS'0'
aa(lp1465
S'Maimoa Havili'
p1466
aS'1987'
p1467
aS'Lock'
p1468
aS'date unknown'
p1469
aS'2'
aS'0'
aS'0'
aS'8'
aa(lp1470
S"Teutau Loto'ahea"
p1471
aS'1987'
p1472
aS'Lock'
p1473
aS'date unknown'
p1474
aS'18'
p1475
aS'4'
aS'0'
aS'0'
aa(lp1476
S'Kite Tuivailala'
p1477
aS'1987'
p1478
aS'Fly-half'
p1479
aS'date unknown'
p1480
aS'12'
p1481
aS'2'
aS'0'
aS'21'
p1482
aa(lp1483
S'Lopeti Uhatafe'
p1484
aS'1987'
p1485
aS'Fly-half'
p1486
aS'date unknown'
p1487
aS'2'
aS'0'
aS'0'
aS'5'
aa(lp1488
S"Semi Ve'ehala"
p1489
aS'1987'
p1490
aS'Back-row'
p1491
aS'date unknown'
p1492
aS'9'
aS'2'
aS'0'
aS'0'
aa(lp1493
S'Chris Manu'
p1494
aS'1987'
p1495
aS'Scrum-half'
p1496
aS'date unknown'
p1497
aS'4'
aS'1'
aS'0'
aS'0'
aa(lp1498
S'Liueli Fusimalohi'
p1499
aS'1987'
p1500
aS'Fullback'
p1501
aS'circa 1966'
p1502
aS'5'
aS'0'
aS'0'
aS'0'
aa(lp1503
S'Tevita Hafoka'
p1504
aS'1987'
p1505
aS'Lock'
p1506
aS'date unknown'
p1507
aS'1'
aS'0'
aS'0'
aS'0'
aa(lp1508
S'Kolona Latu'
p1509
aS'1987'
p1510
aS''
aS'date unknown'
p1511
aS'1'
aS'0'
aS'1'
aS'4'
aa(lp1512
S"Fa'onelua Fakaua"
p1513
aS'1988'
p1514
aS'Fly-half'
p1515
aS'date unknown'
p1516
aS'1'
aS'0'
aS'0'
aS'0'
aa(lp1517
S'Kuli Faletau'
p1518
aS'1988'
p1519
aS'Lock'
p1520
aS'1963'
p1521
aS'20'
p1522
aS'7'
aS'2'
aS'9'
aa(lp1523
S'Fatai Ika'
p1524
aS'1988'
p1525
aS'Centre'
p1526
aS'date unknown'
p1527
aS'6'
aS'1'
aS'0'
aS'0'
aa(lp1528
S'Maliepo Toma'
p1529
aS'1988'
p1530
aS'No. 8'
p1531
aS'date unknown'
p1532
aS'6'
aS'0'
aS'1'
aS'4'
aa(lp1533
S'Soane Finau'
p1534
aS'1988'
p1535
aS'Prop'
p1536
aS'date unknown'
p1537
aS'8'
aS'2'
aS'0'
aS'0'
aa(lp1538
S'Taitusi Halasika'
p1539
aS'1988'
p1540
aS'Prop'
p1541
aS'date unknown'
p1542
aS'2'
aS'0'
aS'1'
aS'4'
aa(lp1543
S'Sione Palenapa'
p1544
aS'1988'
p1545
aS'Lock'
p1546
aS'date unknown'
p1547
aS'8'
aS'2'
aS'2'
aS'10'
p1548
aa(lp1549
S"Hikifo'ou Vaingolo"
p1550
aS'1988'
p1551
aS'Centre'
p1552
aS'date unknown'
p1553
aS'1'
aS'0'
aS'0'
aS'0'
aa(lp1554
S"'Asisi Pou'uhila"
p1555
aS'1988'
p1556
aS'Centre'
p1557
aS'date unknown'
p1558
aS'1'
aS'0'
aS'0'
aS'0'
aa(lp1559
S'Takitoa Taumoepeau'
p1560
aS'1988'
p1561
aS'Wing'
p1562
aS'date unknown'
p1563
aS'1'
aS'0'
aS'0'
aS'0'
aa(lp1564
S'Koloni Tuivailala'
p1565
aS'1988'
p1566
aS'Lock'
p1567
aS'date unknown'
p1568
aS'1'
aS'0'
aS'1'
aS'4'
aa(lp1569
S"Fe'ao Vunipola"
p1570
aS'1988'
p1571
aS'Hooker'
p1572
aS'1969'
p1573
aS'34'
p1574
aS'13'
p1575
aS'3'
aS'15'
p1576
aa(lp1577
S'Koliniata Feke'
p1578
aS'1988'
p1579
aS'Wing'
p1580
aS'date unknown'
p1581
aS'6'
aS'1'
aS'0'
aS'0'
aa(lp1582
S'Samiu Mafi'
p1583
aS'1988'
p1584
aS'Wing'
p1585
aS'date unknown'
p1586
aS'6'
aS'2'
aS'0'
aS'0'
aa(lp1587
S'Tinitale Makalea'
p1588
aS'1988'
p1589
aS'No. 8'
p1590
aS'1968'
p1591
aS'1'
aS'0'
aS'0'
aS'0'
aa(lp1592
S'Liueli Susimalofi'
p1593
aS'1989'
p1594
aS''
aS'date unknown'
p1595
aS'1'
aS'0'
aS'0'
aS'0'
aa(lp1596
S'Moimoi Halatanu'
p1597
aS'1989'
p1598
aS'Fullback'
p1599
aS'date unknown'
p1600
aS'1'
aS'1'
aS'0'
aS'0'
aa(lp1601
S'Feao Filikitonga'
p1602
aS'1990'
p1603
aS'Prop'
p1604
aS'date unknown'
p1605
aS'2'
aS'0'
aS'0'
aS'0'
aa(lp1606
S'Isi Tapueluelu'
p1607
aS'1990'
p1608
aS'Fullback'
p1609
aS'1970'
p1610
aS'13'
p1611
aS'3'
aS'5'
aS'25'
p1612
aa(lp1613
S'Ikani Taufa'
p1614
aS'1990'
p1615
aS'Scrum-half'
p1616
aS'date unknown'
p1617
aS'1'
aS'0'
aS'0'
aS'0'
aa(lp1618
S'Nafe Tufui'
p1619
aS'1990'
p1620
aS'Scrum-half'
p1621
aS'date unknown'
p1622
aS'8'
aS'3'
aS'0'
aS'12'
p1623
aa(lp1624
S'Elisi Vunipola'
p1625
aS'1990'
p1626
aS'Fly-half'
p1627
aS'1972'
p1628
aS'41'
p1629
aS'15'
p1630
aS'8'
aS'50'
p1631
aa(lp1632
S'Tevita Lavaki'
p1633
aS'1990'
p1634
aS'Prop'
p1635
aS'date unknown'
p1636
aS'3'
aS'1'
aS'0'
aS'0'
aa(lp1637
S"Amanaki Vaha'akolo"
p1638
aS'1990'
p1639
aS'Centre'
p1640
aS'date unknown'
p1641
aS'2'
aS'1'
aS'0'
aS'0'
aa(lp1642
S'Fololisi Masila'
p1643
aS'1990'
p1644
aS'Hooker'
p1645
aS'date unknown'
p1646
aS'11'
p1647
aS'0'
aS'3'
aS'14'
p1648
aa(lp1649
S'Peniola Ahofono'
p1650
aS'1990'
p1651
aS'Scrum-half'
p1652
aS'date unknown'
p1653
aS'1'
aS'0'
aS'0'
aS'0'
aa(lp1654
S'Vaea Anitoni'
p1655
aS'1990'
p1656
aS'Wing'
p1657
aS'1970'
p1658
aS'47'
p1659
aS'14'
p1660
aS'26'
p1661
aS'130'
p1662
aa(lp1663
S'Feleti Faotusa'
p1664
aS'1990'
p1665
aS'Prop'
p1666
aS'date unknown'
p1667
aS'1'
aS'0'
aS'0'
aS'0'
aa(lp1668
S'Takau Lutua'
p1669
aS'1990'
p1670
aS'Prop'
p1671
aS'date unknown'
p1672
aS'9'
aS'6'
aS'0'
aS'0'
aa(lp1673
S'Uafe Niuila'
p1674
aS'1990'
p1675
aS'Centre'
p1676
aS'date unknown'
p1677
aS'1'
aS'0'
aS'0'
aS'0'
aa(lp1678
S'Sitiveni Pongi'
p1679
aS'1990'
p1680
aS'Flanker'
p1681
aS'date unknown'
p1682
aS'1'
aS'0'
aS'0'
aS'0'
aa(lp1683
S'Tukua Tonga'
p1684
aS'1990'
p1685
aS'Wing'
p1686
aS'date unknown'
p1687
aS'2'
aS'0'
aS'0'
aS'0'
aa(lp1688
S'Fifita Faletau'
p1689
aS'1991'
p1690
aS'Prop'
p1691
aS'date unknown'
p1692
aS'2'
aS'0'
aS'0'
aS'0'
aa(lp1693
S"Leha'uli Fotu"
p1694
aS'1991'
p1695
aS'Fullback'
p1696
aS'date unknown'
p1697
aS'5'
aS'2'
aS'0'
aS'2'
aa(lp1698
S'Okalani Kanatea'
p1699
aS'1991'
p1700
aS'Fly-half'
p1701
aS'date unknown'
p1702
aS'1'
aS'0'
aS'0'
aS'0'
aa(lp1703
S'Lopeti Samiu'
p1704
aS'1991'
p1705
aS'Prop'
p1706
aS'date unknown'
p1707
aS'1'
aS'0'
aS'0'
aS'0'
aa(lp1708
S'Sione Vaeno'
p1709
aS'1991'
p1710
aS'Wing'
p1711
aS'date unknown'
p1712
aS'1'
aS'0'
aS'0'
aS'0'
aa(lp1713
S"Tevita Va'enuku"
p1714
aS'1991'
p1715
aS'Wing'
p1716
aS'date unknown'
p1717
aS'15'
p1718
aS'4'
aS'5'
aS'24'
p1719
aa(lp1720
S'Soane Hiko'
p1721
aS'1991'
p1722
aS'Wing'
p1723
aS'date unknown'
p1724
aS'1'
aS'0'
aS'0'
aS'0'
aa(lp1725
S'Alatini Saulala'
p1726
aS'1991'
p1727
aS'Centre'
p1728
aS'1968'
p1729
aS'2'
aS'0'
aS'0'
aS'0'
aa(lp1730
S'Fatui Lagilagi'
p1731
aS'1991'
p1732
aS'Prop'
p1733
aS'date unknown'
p1734
aS'1'
aS'0'
aS'0'
aS'0'
aa(lp1735
S'Huihahau Nisa'
p1736
aS'1991'
p1737
aS'Fly-half'
p1738
aS'date unknown'
p1739
aS'3'
aS'1'
aS'0'
aS'6'
aa(lp1740
S'Semi Taupeaafe'
p1741
aS'1991'
p1742
aS'Wing, Centre'
p1743
aS"Nuku'alofa"
p1744
aS'15'
p1745
aS'4'
aS'0'
aS'0'
aa(lp1746
S"Pelimani Fisi'iahi"
p1747
aS'1992'
p1748
aS'Lock'
p1749
aS'date unknown'
p1750
aS'1'
aS'0'
aS'1'
aS'5'
aa(lp1751
S'Rudi Kapeli'
p1752
aS'1992'
p1753
aS'Hooker'
p1754
aS'1957'
p1755
aS'4'
aS'2'
aS'0'
aS'0'
aa(lp1756
S'Dave Latailakepa'
p1757
aS'1992'
p1758
aS'No. 8'
p1759
aS'date unknown'
p1760
aS'3'
aS'1'
aS'0'
aS'0'
aa(lp1761
S'Holani Pohiva'
p1762
aS'1992'
p1763
aS'No. 8'
p1764
aS'1972'
p1765
aS'4'
aS'0'
aS'0'
aS'0'
aa(lp1766
S'Chris Schaumkel'
p1767
aS'1992'
p1768
aS'Fly-half'
p1769
aS'date unknown'
p1770
aS'4'
aS'1'
aS'0'
aS'8'
aa(lp1771
S"Isi Tu'ivai"
p1772
aS'1992'
p1773
aS'Wing'
p1774
aS'1970'
p1775
aS'15'
p1776
aS'6'
aS'6'
aS'38'
p1777
aa(lp1778
S'Mistana Vea'
p1779
aS'1992'
p1780
aS'Wing'
p1781
aS'date unknown'
p1782
aS'2'
aS'1'
aS'0'
aS'3'
aa(lp1783
S'Tasi Vikilani'
p1784
aS'1992'
p1785
aS'No. 8'
p1786
aS'1965'
p1787
aS'4'
aS'1'
aS'0'
aS'0'
aa(lp1788
S'Isi Fatani'
p1789
aS'1992'
p1790
aS'Lock'
p1791
aS"Nuku'alofa"
p1792
aS'25'
p1793
aS'11'
p1794
aS'5'
aS'25'
p1795
aa(lp1796
S'Siaosi Latu'
p1797
aS'1992'
p1798
aS'Prop'
p1799
aS'date unknown'
p1800
aS'3'
aS'2'
aS'0'
aS'0'
aa(lp1801
S"Tevita Pau'u"
p1802
aS'1992'
p1803
aS'Wing'
p1804
aS'date unknown'
p1805
aS'1'
aS'1'
aS'0'
aS'0'
aa(lp1806
S'Tavake Tuineau'
p1807
aS'1992'
p1808
aS'Wing'
p1809
aS'date unknown'
p1810
aS'6'
aS'2'
aS'0'
aS'0'
aa(lp1811
S'Ipolito Fenukitau'
p1812
aS'1993'
p1813
aS'Flanker'
p1814
aS'1972'
p1815
aS'18'
p1816
aS'5'
aS'3'
aS'15'
p1817
aa(lp1818
S'Samisoni Lolo'
p1819
aS'1993'
p1820
aS'Flanker'
p1821
aS'date unknown'
p1822
aS'1'
aS'0'
aS'0'
aS'0'
aa(lp1823
S'Feleti Mahoni'
p1824
aS'1993'
p1825
aS'Flanker'
p1826
aS'Maufanga'
p1827
aS'13'
p1828
aS'5'
aS'3'
aS'15'
p1829
aa(lp1830
S'Valita Moa'
p1831
aS'1993'
p1832
aS'Prop'
p1833
aS'date unknown'
p1834
aS'2'
aS'0'
aS'0'
aS'0'
aa(lp1835
S'Edwin Talakai'
p1836
aS'1993'
p1837
aS'Prop'
p1838
aS'1971'
p1839
aS'8'
aS'3'
aS'0'
aS'0'
aa(lp1840
S'Pauliasi Vakamalolo'
p1841
aS'1993'
p1842
aS'Centre'
p1843
aS'date unknown'
p1844
aS'1'
aS'0'
aS'0'
aS'0'
aa(lp1845
S'Martin Manukia'
p1846
aS'1993'
p1847
aS'No. 8'
p1848
aS'date unknown'
p1849
aS'6'
aS'2'
aS'1'
aS'5'
aa(lp1850
S'Feleti Fakaongo'
p1851
aS'1993'
p1852
aS'Lock, Flanker'
p1853
aS'1970'
p1854
aS'14'
p1855
aS'6'
aS'0'
aS'0'
aa(lp1856
S'Manu Lavaka'
p1857
aS'1993'
p1858
aS'Centre'
p1859
aS'date unknown'
p1860
aS'4'
aS'1'
aS'1'
aS'5'
aa(lp1861
S'A. Tulikaki'
p1862
aS'1993'
p1863
aS'Scrum-half'
p1864
aS'date unknown'
p1865
aS'1'
aS'0'
aS'0'
aS'0'
aa(lp1866
S'Afu Uasi'
p1867
aS'1993'
p1868
aS'Wing'
p1869
aS'date unknown'
p1870
aS'4'
aS'2'
aS'1'
aS'5'
aa(lp1871
S"Finau Ma'afu"
p1872
aS'1993'
p1873
aS'Wing'
p1874
aS'circa 1954'
p1875
aS'1'
aS'1'
aS'0'
aS'0'
aa(lp1876
S'Semisi Tongia'
p1877
aS'1993'
p1878
aS'Hooker'
p1879
aS'date unknown'
p1880
aS'1'
aS'1'
aS'0'
aS'0'
aa(lp1881
S'Falamani Mafi'
p1882
aS'1993'
p1883
aS'Lock'
p1884
aS'Kanokupolu'
p1885
aS'22'
p1886
aS'8'
aS'2'
aS'10'
p1887
aa(lp1888
S'Alaska Taufa'
p1889
aS'1993'
p1890
aS'Wing'
p1891
aS'1970'
p1892
aS'5'
aS'2'
aS'1'
aS'5'
aa(lp1893
S'Taipe Vave'
p1894
aS'1993'
p1895
aS'Fullback'
p1896
aS'date unknown'
p1897
aS'1'
aS'0'
aS'0'
aS'4'
aa(lp1898
S"Tu'ihakavalu Kolo"
p1899
aS'1993'
p1900
aS'Fly-half'
p1901
aS'date unknown'
p1902
aS'3'
aS'1'
aS'1'
aS'5'
aa(lp1903
S'Falanisi Manukia'
p1904
aS'1993'
p1905
aS'Fly-half'
p1906
aS'date unknown'
p1907
aS'7'
aS'3'
aS'2'
aS'10'
p1908
aa(lp1909
S'Kolau Fokofuka'
p1910
aS'1993'
p1911
aS'Prop'
p1912
aS'date unknown'
p1913
aS'8'
aS'4'
aS'0'
aS'0'
aa(lp1914
S'Sateki Tuipulotu'
p1915
aS'1993'
p1916
aS'Fullback'
p1917
aS'Auckland'
p1918
aS'20'
p1919
aS'9'
aS'5'
aS'190'
p1920
aa(lp1921
S'Unaloto Fa'
p1922
aS'1994'
p1923
aS'Prop'
p1924
aS'date unknown'
p1925
aS'6'
aS'1'
aS'1'
aS'5'
aa(lp1926
S'Peneili Latu'
p1927
aS'1994'
p1928
aS'Centre'
p1929
aS'date unknown'
p1930
aS'9'
aS'4'
aS'0'
aS'0'
aa(lp1931
S'Valai Taumoepeau'
p1932
aS'1994'
p1933
aS'Flanker'
p1934
aS'1970'
p1935
aS'4'
aS'1'
aS'0'
aS'0'
aa(lp1936
S'Sam Alatini'
p1937
aS'1994'
p1938
aS'Centre'
p1939
aS'1972'
p1940
aS'6'
aS'2'
aS'0'
aS'0'
aa(lp1941
S"Kati Tu'ipulotu"
p1942
aS'1994'
p1943
aS'Flanker'
p1944
aS'1967'
p1945
aS'16'
p1946
aS'5'
aS'1'
aS'5'
aa(lp1947
S'Kilioni Tuipulotu'
p1948
aS'1994'
p1949
aS'No. 8'
p1950
aS'1971'
p1951
aS'4'
aS'2'
aS'0'
aS'0'
aa(lp1952
S'Jonathan Tupou'
p1953
aS'1994'
p1954
aS'Prop'
p1955
aS'date unknown'
p1956
aS'1'
aS'1'
aS'0'
aS'0'
aa(lp1957
S'Pouvalu Latukefu'
p1958
aS'1995'
p1959
aS'Lock'
p1960
aS'date unknown'
p1961
aS'8'
aS'4'
aS'1'
aS'5'
aa(lp1962
S'David Manako'
p1963
aS'1995'
p1964
aS'Centre'
p1965
aS'1971'
p1966
aS'4'
aS'4'
aS'3'
aS'15'
p1967
aa(lp1968
S"Mana 'Otai"
p1969
aS'1995'
p1970
aS'No. 8'
p1971
aS'1968'
p1972
aS'5'
aS'3'
aS'1'
aS'5'
aa(lp1973
S'Taholo Anitoni'
p1974
aS'1995'
p1975
aS'Centre'
p1976
aS'date unknown'
p1977
aS'5'
aS'3'
aS'1'
aS'5'
aa(lp1978
S"Va'a Toloke"
p1979
aS'1995'
p1980
aS'No. 8'
p1981
aS'1974'
p1982
aS'19'
p1983
aS'9'
aS'2'
aS'10'
p1984
aa(lp1985
S"Saili Fe'ao"
p1986
aS'1995'
p1987
aS'Hooker'
p1988
aS'date unknown'
p1989
aS'2'
aS'0'
aS'0'
aS'0'
aa(lp1990
S'Willie Lose'
p1991
aS'1995'
p1992
aS'Lock'
p1993
aS'1967'
p1994
aS'3'
aS'1'
aS'0'
aS'0'
aa(lp1995
S"Unuoi Va'enuku"
p1996
aS'1995'
p1997
aS'Centre'
p1998
aS'1976'
p1999
aS'3'
aS'1'
aS'0'
aS'0'
aa(lp2000
S'Inoke Afeaki'
p2001
aS'1995'
p2002
aS'Flanker, Lock'
p2003
aS'Tofoa'
p2004
aS'27'
p2005
aS'6'
aS'3'
aS'15'
p2006
aa(lp2007
S"Simana Mafile'o"
p2008
aS'1995'
p2009
aS'Centre'
p2010
aS'1969'
p2011
aS'12'
p2012
aS'7'
aS'3'
aS'15'
p2013
aa(lp2014
S'Taipe Isitolo'
p2015
aS'1995'
p2016
aS'Fullback'
p2017
aS'date unknown'
p2018
aS'3'
aS'2'
aS'0'
aS'10'
p2019
aa(lp2020
S'Akuila Mafi'
p2021
aS'1995'
p2022
aS'Fly-half'
p2023
aS'date unknown'
p2024
aS'1'
aS'1'
aS'0'
aS'0'
aa(lp2025
S'Pita Alatini'
p2026
aS'1995'
p2027
aS'Centre'
p2028
aS"Nuku'alofa"
p2029
aS'18'
p2030
aS'13'
p2031
aS'6'
aS'30'
p2032
aa(lp2033
S'Pita Tanginoa'
p2034
aS'1995'
p2035
aS'Centre'
p2036
aS"Vava'u"
p2037
aS'5'
aS'1'
aS'0'
aS'0'
aa(lp2038
S'Paula Tuitavake'
p2039
aS'1995'
p2040
aS'Centre'
p2041
aS'date unknown'
p2042
aS'1'
aS'0'
aS'0'
aS'0'
aa(lp2043
S'Tevita Asi'
p2044
aS'1996'
p2045
aS'Wing'
p2046
aS'date unknown'
p2047
aS'1'
aS'0'
aS'0'
aS'0'
aa(lp2048
S'Paula Kalanivalu'
p2049
aS'1996'
p2050
aS'Centre'
p2051
aS'date unknown'
p2052
aS'1'
aS'0'
aS'0'
aS'0'
aa(lp2053
S'Lani Katoa'
p2054
aS'1996'
p2055
aS'Flanker'
p2056
aS'date unknown'
p2057
aS'8'
aS'3'
aS'0'
aS'0'
aa(lp2058
S'Hemani Lavaka'
p2059
aS'1996'
p2060
aS'Prop'
p2061
aS'1969'
p2062
aS'15'
p2063
aS'2'
aS'2'
aS'10'
p2064
aa(lp2065
S'Etu Manu'
p2066
aS'1996'
p2067
aS'Centre'
p2068
aS'1967'
p2069
aS'6'
aS'2'
aS'1'
aS'5'
aa(lp2070
S"Ngalu Taufo'ou"
p2071
aS'1996'
p2072
aS'Prop'
p2073
aS"Ha'apai"
p2074
aS'23'
p2075
aS'10'
p2076
aS'3'
aS'15'
p2077
aa(lp2078
S'Josh Taumalolo'
p2079
aS'1996'
p2080
aS'Centre'
p2081
aS"Nuku'alofa"
p2082
aS'26'
p2083
aS'12'
p2084
aS'14'
p2085
aS'118'
p2086
aa(lp2087
S'Maikolo Kaihea'
p2088
aS'1996'
p2089
aS'Hooker'
p2090
aS'1972'
p2091
aS'7'
aS'4'
aS'0'
aS'0'
aa(lp2092
S'Fepikou Tatafu'
p2093
aS'1996'
p2094
aS'Wing'
p2095
aS'1975'
p2096
aS'23'
p2097
aS'10'
p2098
aS'10'
p2099
aS'50'
p2100
aa(lp2101
S'Gustavo Tonga'
p2102
aS'1996'
p2103
aS'Fullback'
p2104
aS'1973'
p2105
aS'13'
p2106
aS'7'
aS'1'
aS'114'
p2107
aa(lp2108
S"Ma'ama Molitika"
p2109
aS'1996'
p2110
aS'Back-row'
p2111
aS"Ha'apai"
p2112
aS'21'
p2113
aS'7'
aS'1'
aS'5'
aa(lp2114
S'Viliami Uhi'
p2115
aS'1996'
p2116
aS'Centre'
p2117
aS'1970'
p2118
aS'7'
aS'3'
aS'1'
aS'5'
aa(lp2119
S"Semisi Faka'osi'folau"
p2120
aS'1996'
p2121
aS'Centre'
p2122
aS'1976'
p2123
aS'13'
p2124
aS'4'
aS'5'
aS'25'
p2125
aa(lp2126
S'Damien Penesini'
p2127
aS'1997'
p2128
aS'Prop'
p2129
aS'1971'
p2130
aS'6'
aS'5'
aS'0'
aS'0'
aa(lp2131
S'Tau Siale'
p2132
aS'1997'
p2133
aS'Hooker'
p2134
aS'1970'
p2135
aS'3'
aS'2'
aS'0'
aS'0'
aa(lp2136
S"Alipate Ta'ufo'ou"
p2137
aS'1997'
p2138
aS'Lock'
p2139
aS'date unknown'
p2140
aS'6'
aS'3'
aS'1'
aS'5'
aa(lp2141
S'Talanoa Tohi'
p2142
aS'1997'
p2143
aS'Lock'
p2144
aS'date unknown'
p2145
aS'3'
aS'2'
aS'0'
aS'0'
aa(lp2146
S'Latiume Maka'
p2147
aS'1997'
p2148
aS'Prop, Hooker'
p2149
aS'1970'
p2150
aS'20'
p2151
aS'9'
aS'2'
aS'10'
p2152
aa(lp2153
S'Semi Tulikifanga'
p2154
aS'1997'
p2155
aS'Scrum-half'
p2156
aS'date unknown'
p2157
aS'4'
aS'1'
aS'0'
aS'0'
aa(lp2158
S'Dave Tiueti'
p2159
aS'1997'
p2160
aS'Centre'
p2161
aS'Tofoa'
p2162
aS'21'
p2163
aS'8'
aS'6'
aS'33'
p2164
aa(lp2165
S'Vikilani Afeaki'
p2166
aS'1997'
p2167
aS'Fullback'
p2168
aS'1975'
p2169
aS'3'
aS'0'
aS'0'
aS'0'
aa(lp2170
S'Johnny Ngauamo'
p2171
aS'1997'
p2172
aS'Centre'
p2173
aS"Nuku'alofa"
p2174
aS'6'
aS'1'
aS'1'
aS'5'
aa(lp2175
S'David Briggs'
p2176
aS'1997'
p2177
aS'Prop'
p2178
aS'Auckland'
p2179
aS'1'
aS'0'
aS'0'
aS'0'
aa(lp2180
S'Saia Latu'
p2181
aS'1997'
p2182
aS'Flanker'
p2183
aS'1978'
p2184
aS'12'
p2185
aS'4'
aS'0'
aS'0'
aa(lp2186
S"Vili Ma'asi"
p2187
aS'1997'
p2188
aS'Hooker'
p2189
aS'Tofoa'
p2190
aS'32'
p2191
aS'7'
aS'3'
aS'15'
p2192
aa(lp2193
S'Tom Matakiongo'
p2194
aS'1997'
p2195
aS'Flanker'
p2196
aS'date unknown'
p2197
aS'1'
aS'0'
aS'0'
aS'0'
aa(lp2198
S'Sione Tuipulotu'
p2199
aS'1997'
p2200
aS'Scrum-half'
p2201
aS"Ha'apai"
p2202
aS'29'
p2203
aS'9'
aS'2'
aS'13'
p2204
aa(lp2205
S'Simon Hafoka'
p2206
aS'1997'
p2207
aS'Hooker'
p2208
aS'1974'
p2209
aS'1'
aS'0'
aS'0'
aS'0'
aa(lp2210
S'Sione Tai'
p2211
aS'1997'
p2212
aS'Fly-half'
p2213
aS'date unknown'
p2214
aS'2'
aS'0'
aS'1'
aS'5'
aa(lp2215
S'Salesi Finau'
p2216
aS'1998'
p2217
aS'Centre'
p2218
aS'Neiafu'
p2219
aS'13'
p2220
aS'4'
aS'1'
aS'5'
aa(lp2221
S'Pierre Hola'
p2222
aS'1998'
p2223
aS'Wing, Fly-half'
p2224
aS'Longolongo'
p2225
aS'40'
p2226
aS'13'
p2227
aS'11'
p2228
aS'322'
p2229
aa(lp2230
S'Benhur Kivalu'
p2231
aS'1998'
p2232
aS'No. 8, Lock'
p2233
aS'Western Samoa'
p2234
aS'39'
p2235
aS'14'
p2236
aS'8'
aS'40'
p2237
aa(lp2238
S'Jonathan Koloi'
p2239
aS'1998'
p2240
aS'Flanker'
p2241
aS"Nuku'alofa"
p2242
aS'15'
p2243
aS'6'
aS'6'
aS'30'
p2244
aa(lp2245
S"Tauna'holo Taufahema"
p2246
aS'1998'
p2247
aS'Wing'
p2248
aS'Nautoka'
p2249
aS'17'
p2250
aS'5'
aS'5'
aS'41'
p2251
aa(lp2252
S'Brian Wooley'
p2253
aS'1998'
p2254
aS'Fly-half'
p2255
aS'Wellington'
p2256
aS'9'
aS'3'
aS'0'
aS'3'
aa(lp2257
S'Hainga Fakatou'
p2258
aS'1998'
p2259
aS'Back-row'
p2260
aS"Kolofo'ou"
p2261
aS'5'
aS'1'
aS'0'
aS'0'
aa(lp2262
S'Uiniati Moa'
p2263
aS'1998'
p2264
aS'Prop'
p2265
aS'1976'
p2266
aS'3'
aS'0'
aS'0'
aS'0'
aa(lp2267
S"Ma'afu Pale"
p2268
aS'1998'
p2269
aS'Hooker, Prop'
p2270
aS'1974'
p2271
aS'7'
aS'3'
aS'1'
aS'5'
aa(lp2272
S'Matt te Pou'
p2273
aS'1998'
p2274
aS'Flanker'
p2275
aS'1974'
p2276
aS'13'
p2277
aS'4'
aS'1'
aS'5'
aa(lp2278
S'David Edwards'
p2279
aS'1998'
p2280
aS'Flanker'
p2281
aS'Auckland'
p2282
aS'10'
p2283
aS'4'
aS'0'
aS'0'
aa(lp2284
S'Sililo Martens'
p2285
aS'1998'
p2286
aS'Scrum-half'
p2287
aS'Auckland'
p2288
aS'32'
p2289
aS'9'
aS'3'
aS'15'
p2290
aa(lp2291
S'Jeff Sitoa'
p2292
aS'1998'
p2293
aS'Lock'
p2294
aS'date unknown'
p2295
aS'1'
aS'0'
aS'0'
aS'0'
aa(lp2296
S'Sam Hala'
p2297
aS'1999'
p2298
aS'Wing'
p2299
aS'1975'
p2300
aS'9'
aS'4'
aS'4'
aS'20'
p2301
aa(lp2302
S'Puke Faletau'
p2303
aS'1999'
p2304
aS'Prop'
p2305
aS'Neiafu'
p2306
aS'9'
aS'4'
aS'0'
aS'0'
aa(lp2307
S"'Aleki Lutui"
p2308
aS'1999'
p2309
aS'Hooker'
p2310
aS'Tofoa'
p2311
aS'43'
p2312
aS'11'
p2313
aS'5'
aS'25'
p2314
aa(lp2315
S'Tevita Taumoepeau'
p2316
aS'1999'
p2317
aS'Prop'
p2318
aS'Haapai'
p2319
aS'35'
p2320
aS'12'
p2321
aS'2'
aS'12'
p2322
aa(lp2323
S'Sengili Tuihalamaka'
p2324
aS'1999'
p2325
aS'Wing'
p2326
aS'1977'
p2327
aS'5'
aS'1'
aS'1'
aS'32'
p2328
aa(lp2329
S'Keni Fisilau'
p2330
aS'1999'
p2331
aS'Centre'
p2332
aS'1976'
p2333
aS'6'
aS'0'
aS'0'
aS'0'
aa(lp2334
S"Kisione Ahota'eiloa"
p2335
aS'1999'
p2336
aS'Flanker'
p2337
aS'1977'
p2338
aS'6'
aS'2'
aS'2'
aS'10'
p2339
aa(lp2340
S"Ta'u Fainga'anuku"
p2341
aS'1999'
p2342
aS'Prop'
p2343
aS'Kiltifo Haapai'
p2344
aS'12'
p2345
aS'3'
aS'1'
aS'5'
aa(lp2346
S'Epi Taione'
p2347
aS'1999'
p2348
aS'Centre'
p2349
aS"Vauai'i"
p2350
aS'24'
p2351
aS'7'
aS'3'
aS'15'
p2352
aa(lp2353
S"Hotili 'Asi"
p2354
aS'2000'
p2355
aS'Prop'
p2356
aS'date unknown'
p2357
aS'1'
aS'0'
aS'0'
aS'0'
aa(lp2358
S"Chris Hala'ufia"
p2359
aS'2000'
p2360
aS'No. 8'
p2361
aS'Neiafu'
p2362
aS'24'
p2363
aS'7'
aS'5'
aS'25'
p2364
aa(lp2365
S'Aisea Havili Kaufusi'
p2366
aS'2000'
p2367
aS'Wing'
p2368
aS"Ha'ateiho"
p2369
aS'13'
p2370
aS'5'
aS'4'
aS'20'
p2371
aa(lp2372
S"Apai Kaitu'u"
p2373
aS'2000'
p2374
aS'No. 8'
p2375
aS'date unknown'
p2376
aS'1'
aS'0'
aS'0'
aS'0'
aa(lp2377
S"Epafasi Ta'ufo'ou"
p2378
aS'2000'
p2379
aS'Centre'
p2380
aS'date unknown'
p2381
aS'6'
aS'3'
aS'1'
aS'5'
aa(lp2382
S'Lotu Filipine'
p2383
aS'2000'
p2384
aS'Back-row'
p2385
aS'1980'
p2386
aS'8'
aS'4'
aS'4'
aS'20'
p2387
aa(lp2388
S'Fakataha Molitika'
p2389
aS'2000'
p2390
aS'Lock'
p2391
aS'1977'
p2392
aS'7'
aS'1'
aS'0'
aS'0'
aa(lp2393
S'Sioeli Nau'
p2394
aS'2000'
p2395
aS'Scrum-half'
p2396
aS'1976'
p2397
aS'9'
aS'3'
aS'2'
aS'10'
p2398
aa(lp2399
S"Movete 'Oto'ota"
p2400
aS'2000'
p2401
aS'Fly-half'
p2402
aS'date unknown'
p2403
aS'4'
aS'0'
aS'0'
aS'0'
aa(lp2404
S'Solomone Matangi'
p2405
aS'2000'
p2406
aS'Wing'
p2407
aS'1976'
p2408
aS'8'
aS'3'
aS'5'
aS'25'
p2409
aa(lp2410
S'Soane Havea'
p2411
aS'2000'
p2412
aS'Fly-half'
p2413
aS'1981'
p2414
aS'28'
p2415
aS'11'
p2416
aS'0'
aS'0'
aa(lp2417
S'Henry Saafi'
p2418
aS'2000'
p2419
aS'Flanker'
p2420
aS'date unknown'
p2421
aS'1'
aS'0'
aS'0'
aS'0'
aa(lp2422
S'Loni Manako'
p2423
aS'2000'
p2424
aS'Centre'
p2425
aS'date unknown'
p2426
aS'2'
aS'1'
aS'0'
aS'0'
aa(lp2427
S'Tevita Fifita'
p2428
aS'2001'
p2429
aS'No. 8'
p2430
aS'1978'
p2431
aS'5'
aS'3'
aS'3'
aS'15'
p2432
aa(lp2433
S'Nisifolo Naufahu'
p2434
aS'2001'
p2435
aS'No. 8'
p2436
aS'Auckland'
p2437
aS'16'
p2438
aS'6'
aS'2'
aS'10'
p2439
aa(lp2440
S'Manako Tonga'
p2441
aS'2001'
p2442
aS'No. 8'
p2443
aS'1976'
p2444
aS'6'
aS'3'
aS'0'
aS'0'
aa(lp2445
S'Viliami Vaki'
p2446
aS'2001'
p2447
aS'Back-row'
p2448
aS"Vava'u"
p2449
aS'36'
p2450
aS'10'
p2451
aS'7'
aS'35'
p2452
aa(lp2453
S"Taufa'ao Filise"
p2454
aS'2001'
p2455
aS'Prop'
p2456
aS'Malapo'
p2457
aS'22'
p2458
aS'3'
aS'1'
aS'5'
aa(lp2459
S'Gus Leger'
p2460
aS'2001'
p2461
aS'Centre'
p2462
aS'Tokoroa'
p2463
aS'15'
p2464
aS'3'
aS'0'
aS'0'
aa(lp2465
S'John Pale'
p2466
aS'2001'
p2467
aS'Prop'
p2468
aS'1976'
p2469
aS'9'
aS'1'
aS'0'
aS'0'
aa(lp2470
S'Toni Alatini'
p2471
aS'2001'
p2472
aS'Scrum-half'
p2473
aS'1970'
p2474
aS'8'
aS'1'
aS'0'
aS'0'
aa(lp2475
S'Lua Lokotui'
p2476
aS'2001'
p2477
aS'Lock, Flanker'
p2478
aS'Auckland'
p2479
aS'21'
p2480
aS'9'
aS'3'
aS'15'
p2481
aa(lp2482
S'Salesi Moimoi'
p2483
aS'2001'
p2484
aS'Wing'
p2485
aS'1978'
p2486
aS'1'
aS'0'
aS'0'
aS'0'
aa(lp2487
S"Mo'unga Kafatolu"
p2488
aS'2002'
p2489
aS'Fullback'
p2490
aS'date unknown'
p2491
aS'3'
aS'1'
aS'1'
aS'5'
aa(lp2492
S'Andrew Mailei'
p2493
aS'2002'
p2494
aS'Centre'
p2495
aS'Auckland'
p2496
aS'22'
p2497
aS'9'
aS'5'
aS'40'
p2498
aa(lp2499
S'Stanley Afeaki'
p2500
aS'2002'
p2501
aS'Flanker'
p2502
aS'Lower Hutt'
p2503
aS'13'
p2504
aS'4'
aS'7'
aS'35'
p2505
aa(lp2506
S'Nick Hau'
p2507
aS'2002'
p2508
aS'Centre'
p2509
aS'1979'
p2510
aS'2'
aS'0'
aS'0'
aS'0'
aa(lp2511
S'Sione Fonua'
p2512
aS'2002'
p2513
aS'Wing'
p2514
aS'1982'
p2515
aS'12'
p2516
aS'2'
aS'3'
aS'15'
p2517
aa(lp2518
S'Emosi Kauhenga'
p2519
aS'2002'
p2520
aS'Lock, Flanker'
p2521
aS'Folaha'
p2522
aS'14'
p2523
aS'6'
aS'0'
aS'0'
aa(lp2524
S'Laukau Lile'
p2525
aS'2002'
p2526
aS'Centre'
p2527
aS'1976'
p2528
aS'3'
aS'1'
aS'0'
aS'0'
aa(lp2529
S'Kisi Pulu'
p2530
aS'2002'
p2531
aS'Prop'
p2532
aS"Leimatu'a"
p2533
aS'32'
p2534
aS'12'
p2535
aS'3'
aS'15'
p2536
aa(lp2537
S'Kilioni Bakewa'
p2538
aS'2002'
p2539
aS'Wing'
p2540
aS'date unknown'
p2541
aS'3'
aS'2'
aS'0'
aS'0'
aa(lp2542
S"Tonga Lea'aetoa"
p2543
aS'2002'
p2544
aS'Prop'
p2545
aS'Auckland'
p2546
aS'26'
p2547
aS'13'
p2548
aS'1'
aS'5'
aa(lp2549
S'Milton Ngauamo'
p2550
aS'2002'
p2551
aS'Lock'
p2552
aS'Auckland'
p2553
aS'17'
p2554
aS'6'
aS'1'
aS'5'
aa(lp2555
S'David Palu'
p2556
aS'2002'
p2557
aS'Scrum-half'
p2558
aS'Wellington'
p2559
aS'14'
p2560
aS'6'
aS'7'
aS'39'
p2561
aa(lp2562
S'John Payne'
p2563
aS'2002'
p2564
aS'Centre'
p2565
aS'Manly'
p2566
aS'11'
p2567
aS'4'
aS'1'
aS'5'
aa(lp2568
S'Ephraim Taukafa'
p2569
aS'2002'
p2570
aS'Hooker'
p2571
aS'Auckland'
p2572
aS'33'
p2573
aS'14'
p2574
aS'6'
aS'30'
p2575
aa(lp2576
S"Lisiate 'Ulufonua"
p2577
aS'2002'
p2578
aS'Fullback'
p2579
aS'1976'
p2580
aS'4'
aS'4'
aS'2'
aS'10'
p2581
aa(lp2582
S'Willie Gibbons'
p2583
aS'2002'
p2584
aS'Fly-half'
p2585
aS'date unknown'
p2586
aS'4'
aS'2'
aS'0'
aS'0'
aa(lp2587
S'Taniela Tulia'
p2588
aS'2002'
p2589
aS'Wing'
p2590
aS'date unknown'
p2591
aS'10'
p2592
aS'4'
aS'7'
aS'35'
p2593
aa(lp2594
S'Feki Latusalu'
p2595
aS'2003'
p2596
aS'Hooker'
p2597
aS'date unknown'
p2598
aS'2'
aS'2'
aS'0'
aS'0'
aa(lp2599
S"Tevita Tu'ifua"
p2600
aS'2003'
p2601
aS'Wing, Centre'
p2602
aS'Nomuka'
p2603
aS'15'
p2604
aS'6'
aS'4'
aS'20'
p2605
aa(lp2606
S"Johnny Tu'amoheloa"
p2607
aS'2003'
p2608
aS'Back-row'
p2609
aS'1980'
p2610
aS'4'
aS'1'
aS'0'
aS'0'
aa(lp2611
S'Suka Hufanga'
p2612
aS'2003'
p2613
aS'Wing'
p2614
aS'Hourna'
p2615
aS'28'
p2616
aS'14'
p2617
aS'5'
aS'25'
p2618
aa(lp2619
S'Kafalosi Tonga'
p2620
aS'2003'
p2621
aS'Prop'
p2622
aS'Auckland'
p2623
aS'6'
aS'1'
aS'0'
aS'0'
aa(lp2624
S"Sila Va'enuku"
p2625
aS'2003'
p2626
aS'Wing'
p2627
aS'1978'
p2628
aS'12'
p2629
aS'1'
aS'3'
aS'15'
p2630
aa(lp2631
S'Edward Langi'
p2632
aS'2003'
p2633
aS'Back-row'
p2634
aS'1975'
p2635
aS'1'
aS'0'
aS'0'
aS'0'
aa(lp2636
S'Pila Fifita'
p2637
aS'2003'
p2638
aS'Wing, Centre'
p2639
aS'1975'
p2640
aS'2'
aS'0'
aS'0'
aS'0'
aa(lp2641
S"Fangatapu 'Apikotoa"
p2642
aS'2004'
p2643
aS'Utility back'
p2644
aS'Fasi-moe-afi'
p2645
aS'30'
p2646
aS'8'
aS'2'
aS'147'
p2647
aa(lp2648
S"Lisiate Fa'aoso"
p2649
aS'2004'
p2650
aS'Lock'
p2651
aS'Kolonga'
p2652
aS'16'
p2653
aS'6'
aS'1'
aS'5'
aa(lp2654
S'Ofa Misa'
p2655
aS'2004'
p2656
aS'Back-row'
p2657
aS'1979'
p2658
aS'2'
aS'0'
aS'0'
aS'0'
aa(lp2659
S'Mosese Moala'
p2660
aS'2004'
p2661
aS'Prop'
p2662
aS'1978'
p2663
aS'2'
aS'0'
aS'0'
aS'0'
aa(lp2664
S'Seti Filo'
p2665
aS'2004'
p2666
aS'Back-row'
p2667
aS'1982'
p2668
aS'2'
aS'0'
aS'0'
aS'0'
aa(lp2669
S'Sefa Vaka'
p2670
aS'2004'
p2671
aS'Centre'
p2672
aS"Kolofo'ou"
p2673
aS'13'
p2674
aS'3'
aS'2'
aS'10'
p2675
aa(lp2676
S'Sikuti Vunipola'
p2677
aS'2004'
p2678
aS'Scrum-half'
p2679
aS'1979'
p2680
aS'3'
aS'0'
aS'0'
aS'0'
aa(lp2681
S'Seti Kiole'
p2682
aS'2005'
p2683
aS'Wing'
p2684
aS'Holopeka'
p2685
aS'9'
aS'2'
aS'2'
aS'10'
p2686
aa(lp2687
S'Mosese Makasini'
p2688
aS'2005'
p2689
aS'Lock'
p2690
aS'date unknown'
p2691
aS'4'
aS'0'
aS'1'
aS'5'
aa(lp2692
S'Matini Tupou'
p2693
aS'2005'
p2694
aS'No. 8'
p2695
aS'1982'
p2696
aS'4'
aS'1'
aS'0'
aS'0'
aa(lp2697
S'Siaosi Taufa'
p2698
aS'2005'
p2699
aS'Scrum-half'
p2700
aS'date unknown'
p2701
aS'4'
aS'0'
aS'0'
aS'0'
aa(lp2702
S"Hudson Tonga'uiha"
p2703
aS'2005'
p2704
aS'Centre'
p2705
aS'Tofoa'
p2706
aS'24'
p2707
aS'8'
aS'6'
aS'30'
p2708
aa(lp2709
S'Ueleni Fono'
p2710
aS'2005'
p2711
aS'No. 8'
p2712
aS'Holopeka'
p2713
aS'4'
aS'0'
aS'0'
aS'0'
aa(lp2714
S'Siope Kapeli'
p2715
aS'2005'
p2716
aS'Back-row'
p2717
aS'1983'
p2718
aS'1'
aS'0'
aS'0'
aS'0'
aa(lp2719
S'Samuela Lisala'
p2720
aS'2005'
p2721
aS'Centre, Wing'
p2722
aS'1977'
p2723
aS'2'
aS'0'
aS'0'
aS'0'
aa(lp2724
S'Kana Fakava'
p2725
aS'2005'
p2726
aS'Prop'
p2727
aS'1981'
p2728
aS'1'
aS'0'
aS'0'
aS'0'
aa(lp2729
S'Sione Niu Tonga'
p2730
aS'2005'
p2731
aS'Outside back'
p2732
aS'date unknown'
p2733
aS'3'
aS'0'
aS'1'
aS'5'
aa(lp2734
S'Sione Masima'
p2735
aS'2005'
p2736
aS'Centre'
p2737
aS'date unknown'
p2738
aS'1'
aS'0'
aS'0'
aS'0'
aa(lp2739
S'Rodney Mahe'
p2740
aS'2005'
p2741
aS'Back-row'
p2742
aS'1983'
p2743
aS'8'
aS'4'
aS'0'
aS'0'
aa(lp2744
S"Fotu'aika Naitoko"
p2745
aS'2005'
p2746
aS'Prop'
p2747
aS'date unknown'
p2748
aS'1'
aS'0'
aS'0'
aS'0'
aa(lp2749
S'Sione Taukapo'
p2750
aS'2005'
p2751
aS'Centre'
p2752
aS'date unknown'
p2753
aS'1'
aS'0'
aS'0'
aS'0'
aa(lp2754
S"Soane Tonga'uiha"
p2755
aS'2004'
p2756
aS'Prop'
p2757
aS'Houma'
p2758
aS'16'
p2759
aS'5'
aS'0'
aS'0'
aa(lp2760
S'Peni Fakalelu'
p2761
aS'2005'
p2762
aS'Prop'
p2763
aS'1984'
p2764
aS'6'
aS'3'
aS'2'
aS'10'
p2765
aa(lp2766
S'Alani Maka'
p2767
aS'2005'
p2768
aS'Prop'
p2769
aS'Longoteme'
p2770
aS'1'
aS'0'
aS'0'
aS'0'
aa(lp2771
S'Talite Vaioleti'
p2772
aS'2005'
p2773
aS'Lock'
p2774
aS'1980'
p2775
aS'2'
aS'1'
aS'0'
aS'0'
aa(lp2776
S'Kele Hehea'
p2777
aS'2006'
p2778
aS'Lock'
p2779
aS'Vaini'
p2780
aS'21'
p2781
aS'13'
p2782
aS'2'
aS'10'
p2783
aa(lp2784
S'Nili Latu Langilangi'
p2785
aS'2006'
p2786
aS'No. 8'
p2787
aS'Tongatapu'
p2788
aS'42'
p2789
aS'16'
p2790
aS'4'
aS'23'
p2791
aa(lp2792
S"Tatafu Na'aniumotu"
p2793
aS'2006'
p2794
aS'Centre'
p2795
aS'1984'
p2796
aS'6'
aS'4'
aS'0'
aS'0'
aa(lp2797
S'Tevita Vaikona'
p2798
aS'2006'
p2799
aS'Wing, Centre'
p2800
aS'1974'
p2801
aS'4'
aS'3'
aS'5'
aS'25'
p2802
aa(lp2803
S'Viliami Hakalo'
p2804
aS'2006'
p2805
aS'Fullback, Centre'
p2806
aS'1987'
p2807
aS'6'
aS'4'
aS'3'
aS'22'
p2808
aa(lp2809
S'Kaiongo Tupou'
p2810
aS'2006'
p2811
aS'Centre'
p2812
aS'Tofoa'
p2813
aS'12'
p2814
aS'5'
aS'3'
aS'15'
p2815
aa(lp2816
S'Isieli Fine'
p2817
aS'2007'
p2818
aS'Lock'
p2819
aS'1984'
p2820
aS'4'
aS'1'
aS'0'
aS'0'
aa(lp2821
S'Tevita Fonua'
p2822
aS'2007'
p2823
aS'Prop'
p2824
aS'date unknown'
p2825
aS'1'
aS'1'
aS'0'
aS'0'
aa(lp2826
S"Teu'imuli Kaufusi"
p2827
aS'2007'
p2828
aS'Lock'
p2829
aS'1980'
p2830
aS'8'
aS'2'
aS'2'
aS'10'
p2831
aa(lp2832
S'Vunga Lilo'
p2833
aS'2007'
p2834
aS'Wing'
p2835
aS"Ha'apai"
p2836
aS'33'
p2837
aS'14'
p2838
aS'11'
p2839
aS'70'
p2840
aa(lp2841
S'Sione Poteki'
p2842
aS'2007'
p2843
aS'Hooker'
p2844
aS'date unknown'
p2845
aS'1'
aS'1'
aS'0'
aS'0'
aa(lp2846
S'Vaea Poteki'
p2847
aS'2007'
p2848
aS'Fly-half'
p2849
aS'date unknown'
p2850
aS'1'
aS'1'
aS'2'
aS'10'
p2851
aa(lp2852
S'Toma Toke'
p2853
aS'2007'
p2854
aS'Prop'
p2855
aS"Ha'ateiho"
p2856
aS'12'
p2857
aS'4'
aS'1'
aS'5'
aa(lp2858
S'Hale T-Pole'
p2859
aS'2006'
p2860
aS'Lock, Flanker'
p2861
aS'Longolongo'
p2862
aS'31'
p2863
aS'12'
p2864
aS'2'
aS'10'
p2865
aa(lp2866
S'Atonio Halangahu'
p2867
aS'2007'
p2868
aS'Hooker'
p2869
aS'1981'
p2870
aS'2'
aS'2'
aS'0'
aS'0'
aa(lp2871
S'Sione Kalamafoni'
p2872
aS'2007'
p2873
aS'Back-row'
p2874
aS'Matahau'
p2875
aS'24'
p2876
aS'9'
aS'2'
aS'10'
p2877
aa(lp2878
S'Hemani Paea'
p2879
aS'2007'
p2880
aS'Centre'
p2881
aS'1985'
p2882
aS'4'
aS'3'
aS'1'
aS'5'
aa(lp2883
S"Folauhola Tatua'a"
p2884
aS'2007'
p2885
aS''
aS'date unknown'
p2886
aS'1'
aS'1'
aS'0'
aS'0'
aa(lp2887
S'Makoni Finau'
p2888
aS'2007'
p2889
aS'Prop'
p2890
aS'1983'
p2891
aS'6'
aS'1'
aS'0'
aS'0'
aa(lp2892
S"Tevita 'Ahoafi"
p2893
aS'2007'
p2894
aS'Scrum-half'
p2895
aS'1987'
p2896
aS'2'
aS'0'
aS'0'
aS'0'
aa(lp2897
S"Setaleki Lu'au"
p2898
aS'2007'
p2899
aS'Fullback'
p2900
aS'date unknown'
p2901
aS'1'
aS'0'
aS'0'
aS'0'
aa(lp2902
S"Sateki Mata'u"
p2903
aS'2007'
p2904
aS'Prop'
p2905
aS"Ha'ateiho"
p2906
aS'2'
aS'0'
aS'0'
aS'0'
aa(lp2907
S'Naisa Sikalu'
p2908
aS'2007'
p2909
aS'Flanker'
p2910
aS'1982'
p2911
aS'4'
aS'0'
aS'0'
aS'0'
aa(lp2912
S'Tevita Tanginoa'
p2913
aS'2007'
p2914
aS'Lock'
p2915
aS'1982'
p2916
aS'2'
aS'0'
aS'0'
aS'0'
aa(lp2917
S'Samiu Vahafolau'
p2918
aS'2007'
p2919
aS'No. 8'
p2920
aS'Ovaka'
p2921
aS'14'
p2922
aS'8'
aS'2'
aS'10'
p2923
aa(lp2924
S'Lisiate Tafa'
p2925
aS'2007'
p2926
aS'Centre, Wing'
p2927
aS'1979'
p2928
aS'1'
aS'0'
aS'0'
aS'0'
aa(lp2929
S'Patrick Tamoua'
p2930
aS'2007'
p2931
aS''
aS'date unknown'
p2932
aS'1'
aS'0'
aS'0'
aS'0'
aa(lp2933
S'Lopeti Lolohea'
p2934
aS'2007'
p2935
aS'Flanker'
p2936
aS'date unknown'
p2937
aS'1'
aS'0'
aS'0'
aS'0'
aa(lp2938
S'Mesui Lemoto'
p2939
aS'2007'
p2940
aS'Fullback'
p2941
aS'1986'
p2942
aS'1'
aS'1'
aS'0'
aS'6'
aa(lp2943
S'Finau Maka'
p2944
aS'2007'
p2945
aS'Back-row'
p2946
aS'Longoteme'
p2947
aS'9'
aS'4'
aS'1'
aS'5'
aa(lp2948
S'Enele Taufa'
p2949
aS'2007'
p2950
aS'Scrum-half'
p2951
aS"Ha'ateiho"
p2952
aS'4'
aS'2'
aS'0'
aS'0'
aa(lp2953
S'Josh Afu'
p2954
aS'2008'
p2955
aS'Back-row'
p2956
aS'QLD'
p2957
aS'17'
p2958
aS'6'
aS'1'
aS'5'
aa(lp2959
S'Sione Lavaka'
p2960
aS'2008'
p2961
aS'Wing'
p2962
aS'1985'
p2963
aS'1'
aS'0'
aS'0'
aS'0'
aa(lp2964
S'Tupou Palu'
p2965
aS'2008'
p2966
aS'Wing'
p2967
aS'1985'
p2968
aS'1'
aS'0'
aS'0'
aS'0'
aa(lp2969
S'Semisi Telefoni'
p2970
aS'2008'
p2971
aS'Prop'
p2972
aS'Auckland'
p2973
aS'5'
aS'3'
aS'0'
aS'0'
aa(lp2974
S'Samiuela Ika'
p2975
aS'2008'
p2976
aS'Lock'
p2977
aS'1986'
p2978
aS'3'
aS'0'
aS'0'
aS'0'
aa(lp2979
S'Sione Timani'
p2980
aS'2008'
p2981
aS'Lock'
p2982
aS'Tofoa'
p2983
aS'8'
aS'3'
aS'0'
aS'0'
aa(lp2984
S'Semosoni Pone'
p2985
aS'2008'
p2986
aS'Fullback'
p2987
aS'1980'
p2988
aS'3'
aS'2'
aS'0'
aS'0'
aa(lp2989
S"'Alipate Fatafehi"
p2990
aS'2009'
p2991
aS'Centre'
p2992
aS'Sigatoka'
p2993
aS'17'
p2994
aS'7'
aS'4'
aS'20'
p2995
aa(lp2996
S'David Halaifonua Tonga'
p2997
aS'2009'
p2998
aS'Wing'
p2999
aS"Vava'u"
p3000
aS'12'
p3001
aS'3'
aS'2'
aS'17'
p3002
aa(lp3003
S"Ilaisa Ma'asi"
p3004
aS'2009'
p3005
aS'Hooker'
p3006
aS'Tofoa'
p3007
aS'19'
p3008
aS'8'
aS'1'
aS'5'
aa(lp3009
S"Po'alo'i Taula"
p3010
aS'2009'
p3011
aS'Prop'
p3012
aS'1978'
p3013
aS'5'
aS'1'
aS'0'
aS'0'
aa(lp3014
S'Opeti Fonua'
p3015
aS'2009'
p3016
aS'No. 8'
p3017
aS'Kolonga'
p3018
aS'5'
aS'0'
aS'0'
aS'0'
aa(lp3019
S'Pasuka Mapakaitolo'
p3020
aS'2009'
p3021
aS'Back-row'
p3022
aS'1980'
p3023
aS'5'
aS'1'
aS'1'
aS'5'
aa(lp3024
S'Mateo Malupo'
p3025
aS'2009'
p3026
aS'Wing'
p3027
aS'1988'
p3028
aS'4'
aS'2'
aS'0'
aS'0'
aa(lp3029
S'Mahe Fangupo'
p3030
aS'2009'
p3031
aS'Fly-half, Centre'
p3032
aS'1988'
p3033
aS'4'
aS'1'
aS'0'
aS'0'
aa(lp3034
S'Fou-Ki-Moana Katoa'
p3035
aS'2009'
p3036
aS'Wing'
p3037
aS'date unknown'
p3038
aS'1'
aS'0'
aS'0'
aS'0'
aa(lp3039
S'Siosaia Palei'
p3040
aS'2009'
p3041
aS'Wing'
p3042
aS'date unknown'
p3043
aS'1'
aS'0'
aS'0'
aS'0'
aa(lp3044
S'Kilifi Fangupo'
p3045
aS'2009'
p3046
aS'Scrum-half'
p3047
aS'1985'
p3048
aS'1'
aS'1'
aS'0'
aS'0'
aa(lp3049
S'Paula Kata'
p3050
aS'2009'
p3051
aS'Flanker'
p3052
aS'1988'
p3053
aS'4'
aS'1'
aS'0'
aS'0'
aa(lp3054
S'Etueni Siua'
p3055
aS'2009'
p3056
aS'Wing'
p3057
aS'date unknown'
p3058
aS'3'
aS'3'
aS'0'
aS'0'
aa(lp3059
S'Sione Vaiomounga'
p3060
aS'2009'
p3061
aS'Hooker, Flanker'
p3062
aS'Tefisi'
p3063
aS'13'
p3064
aS'5'
aS'1'
aS'5'
aa(lp3065
S'Mani Vakaloa'
p3066
aS'2009'
p3067
aS'Wing'
p3068
aS'1981'
p3069
aS'1'
aS'1'
aS'1'
aS'5'
aa(lp3070
S'Kurt Morath'
p3071
aS'2009'
p3072
aS'Fly-half'
p3073
aS'Takapuna'
p3074
aS'21'
p3075
aS'11'
p3076
aS'1'
aS'250'
p3077
aa(lp3078
S"Manu Ahota'e'iloa"
p3079
aS'2010'
p3080
aS'Centre'
p3081
aS'Meifu'
p3082
aS'3'
aS'0'
aS'0'
aS'0'
aa(lp3083
S"Akameta Fe'ao"
p3084
aS'2010'
p3085
aS'Lock'
p3086
aS'1986'
p3087
aS'2'
aS'0'
aS'0'
aS'0'
aa(lp3088
S'Saia Fekitoa'
p3089
aS'2010'
p3090
aS'Wing'
p3091
aS'1987'
p3092
aS'2'
aS'0'
aS'0'
aS'0'
aa(lp3093
S'Kelepi Halafihi'
p3094
aS'2010'
p3095
aS'Lock'
p3096
aS'1984'
p3097
aS'2'
aS'0'
aS'0'
aS'0'
aa(lp3098
S'Daniel Morath'
p3099
aS'2010'
p3100
aS'Scrum-half'
p3101
aS'1980'
p3102
aS'3'
aS'1'
aS'0'
aS'0'
aa(lp3103
S'Alapini Olosoni'
p3104
aS'2010'
p3105
aS'Lock, Flanker'
p3106
aS'1979'
p3107
aS'3'
aS'0'
aS'1'
aS'5'
aa(lp3108
S'Alaska Taufa'
p3109
aS'2010'
p3110
aS'Wing'
p3111
aS"Ha'ateiho"
p3112
aS'12'
p3113
aS'2'
aS'4'
aS'20'
p3114
aa(lp3115
S'Samisoni Fisilau'
p3116
aS'2010'
p3117
aS'Scrum-half'
p3118
aS'Tofoa'
p3119
aS'15'
p3120
aS'3'
aS'0'
aS'2'
aa(lp3121
S'Sione Fukofuka'
p3122
aS'2010'
p3123
aS'Prop'
p3124
aS'1984'
p3125
aS'2'
aS'0'
aS'0'
aS'0'
aa(lp3126
S'Steve Mafi'
p3127
aS'2010'
p3128
aS'Flanker'
p3129
aS'Fairfield'
p3130
aS'10'
p3131
aS'3'
aS'0'
aS'0'
aa(lp3132
S'Will Helu'
p3133
aS'2010'
p3134
aS'Wing'
p3135
aS'Auckland'
p3136
aS'19'
p3137
aS'7'
aS'6'
aS'30'
p3138
aa(lp3139
S'Haani Halaeua'
p3140
aS'2010'
p3141
aS'Flanker'
p3142
aS'1986'
p3143
aS'2'
aS'0'
aS'0'
aS'0'
aa(lp3144
S'Viliami Pola'
p3145
aS'2010'
p3146
aS'Prop'
p3147
aS'1988'
p3148
aS'4'
aS'1'
aS'0'
aS'0'
aa(lp3149
S'Aloisio Mailangi'
p3150
aS'2010'
p3151
aS'Flanker'
p3152
aS'1979'
p3153
aS'1'
aS'0'
aS'0'
aS'0'
aa(lp3154
S'Damian Fakafanua'
p3155
aS'2010'
p3156
aS'Wing, Centre'
p3157
aS'1984'
p3158
aS'2'
aS'1'
aS'1'
aS'5'
aa(lp3159
S'Taumei Hikila'
p3160
aS'2010'
p3161
aS'Lock'
p3162
aS'1980'
p3163
aS'1'
aS'1'
aS'1'
aS'5'
aa(lp3164
S'Rutikha Ilolahia'
p3165
aS'2010'
p3166
aS'Back-row'
p3167
aS'date unknown'
p3168
aS'1'
aS'1'
aS'0'
aS'0'
aa(lp3169
S'Petuliki Mateo'
p3170
aS'2010'
p3171
aS'Centre'
p3172
aS'date unknown'
p3173
aS'1'
aS'1'
aS'1'
aS'5'
aa(lp3174
S'Kama Sakalia'
p3175
aS'2010'
p3176
aS'Hooker'
p3177
aS'1985'
p3178
aS'6'
aS'3'
aS'0'
aS'0'
aa(lp3179
S'Paea Siulangapo'
p3180
aS'2010'
p3181
aS'Back-row'
p3182
aS'date unknown'
p3183
aS'1'
aS'1'
aS'0'
aS'0'
aa(lp3184
S'Michael Toloke'
p3185
aS'2010'
p3186
aS'Fullback'
p3187
aS'1990'
p3188
aS'1'
aS'1'
aS'1'
aS'12'
p3189
aa(lp3190
S'Sione Vaioleti'
p3191
aS'2010'
p3192
aS'Flanker'
p3193
aS'date unknown'
p3194
aS'1'
aS'1'
aS'0'
aS'0'
aa(lp3195
S'Sioeli Faupula'
p3196
aS'2010'
p3197
aS''
aS'date unknown'
p3198
aS'1'
aS'1'
aS'0'
aS'0'
aa(lp3199
S'Kuea Kolokihakaufiji'
p3200
aS'2010'
p3201
aS'Flanker'
p3202
aS'date unknown'
p3203
aS'1'
aS'1'
aS'0'
aS'0'
aa(lp3204
S'Viliame Iongi'
p3205
aS'2011'
p3206
aS'Wing'
p3207
aS'Tofoa'
p3208
aS'18'
p3209
aS'9'
aS'8'
aS'40'
p3210
aa(lp3211
S'Pepa Koloamatangi'
p3212
aS'2011'
p3213
aS'Flanker'
p3214
aS'1982'
p3215
aS'3'
aS'2'
aS'0'
aS'0'
aa(lp3216
S"Viliami Ma'afu"
p3217
aS'2011'
p3218
aS'No. 8'
p3219
aS'Longolongo'
p3220
aS'21'
p3221
aS'10'
p3222
aS'3'
aS'15'
p3223
aa(lp3224
S"Ofa Fainga'anuku"
p3225
aS'2011'
p3226
aS'Prop'
p3227
aS'1982'
p3228
aS'3'
aS'1'
aS'0'
aS'0'
aa(lp3229
S'Paula Kaho'
p3230
aS'2011'
p3231
aS'No. 8'
p3232
aS'1984'
p3233
aS'8'
aS'4'
aS'1'
aS'5'
aa(lp3234
S'Eddie Paea'
p3235
aS'2011'
p3236
aS'Halfback'
p3237
aS'NSW'
p3238
aS'2'
aS'1'
aS'0'
aS'0'
aa(lp3239
S'Silivenusi Taumoepeau'
p3240
aS'2011'
p3241
aS'Centre'
p3242
aS'1985'
p3243
aS'1'
aS'1'
aS'0'
aS'0'
aa(lp3244
S'Sona Taumalolo'
p3245
aS'2011'
p3246
aS'Prop'
p3247
aS"Ha'akame"
p3248
aS'13'
p3249
aS'6'
aS'4'
aS'20'
p3250
aa(lp3251
S'Joe Tuineau'
p3252
aS'2011'
p3253
aS'Lock'
p3254
aS'Suva'
p3255
aS'18'
p3256
aS'10'
p3257
aS'1'
aS'5'
aa(lp3258
S'Tevita Ula'
p3259
aS'2011'
p3260
aS'Flanker'
p3261
aS'1985'
p3262
aS'1'
aS'1'
aS'0'
aS'0'
aa(lp3263
S'Sila Puafisi'
p3264
aS'2011'
p3265
aS'Prop'
p3266
aS'Tefisi'
p3267
aS'13'
p3268
aS'3'
aS'0'
aS'0'
aa(lp3269
S'Maleko Latu'
p3270
aS'2011'
p3271
aS'Prop'
p3272
aS'1988'
p3273
aS'1'
aS'0'
aS'0'
aS'0'
aa(lp3274
S'Tomasi Palu'
p3275
aS'2011'
p3276
aS'Scrum-half'
p3277
aS'Wellington'
p3278
aS'11'
p3279
aS'5'
aS'0'
aS'9'
aa(lp3280
S"Halani 'Aulika"
p3281
aS'2011'
p3282
aS'Prop'
p3283
aS'Angahaeua'
p3284
aS'8'
aS'5'
aS'0'
aS'0'
aa(lp3285
S'Taniela Moa'
p3286
aS'2011'
p3287
aS'Scrum-half'
p3288
aS'Tofoa'
p3289
aS'20'
p3290
aS'10'
p3291
aS'3'
aS'15'
p3292
aa(lp3293
S"Fetu'u Vainikolo"
p3294
aS'2011'
p3295
aS'Wing'
p3296
aS"Ha'alalo"
p3297
aS'17'
p3298
aS'7'
aS'12'
p3299
aS'60'
p3300
aa(lp3301
S'Siale Piutau'
p3302
aS'2011'
p3303
aS'Wing, Centre'
p3304
aS'Auckland'
p3305
aS'19'
p3306
aS'7'
aS'2'
aS'10'
p3307
aa(lp3308
S'Mafileo Kefu'
p3309
aS'2012'
p3310
aS'Centre'
p3311
aS'QLD'
p3312
aS'3'
aS'1'
aS'0'
aS'0'
aa(lp3313
S"Viliami Fainga'a"
p3314
aS'2012'
p3315
aS'Prop, Back-row'
p3316
aS'NSW'
p3317
aS'3'
aS'0'
aS'0'
aS'0'
aa(lp3318
S'Tevita Mailau'
p3319
aS'2012'
p3320
aS'Prop'
p3321
aS'Manly'
p3322
aS'13'
p3323
aS'5'
aS'0'
aS'0'
aa(lp3324
S'Sione Piukala'
p3325
aS'2012'
p3326
aS'Centre'
p3327
aS'Futu'
p3328
aS'10'
p3329
aS'4'
aS'3'
aS'15'
p3330
aa(lp3331
S'Elvis Taione'
p3332
aS'2012'
p3333
aS'Hooker'
p3334
aS"Nuku'alofa"
p3335
aS'13'
p3336
aS'6'
aS'0'
aS'0'
aa(lp3337
S'Eddie Aholelei'
p3338
aS'2013'
p3339
aS'Prop'
p3340
aS'Auckland'
p3341
aS'6'
aS'1'
aS'1'
aS'5'
aa(lp3342
S'Taione Vea'
p3343
aS'2013'
p3344
aS'Prop'
p3345
aS'Auckland'
p3346
aS'6'
aS'2'
aS'0'
aS'0'
aa(lp3347
S'Viliami Fihaki'
p3348
aS'2013'
p3349
aS'Back-row'
p3350
aS"Nuku'alofa"
p3351
aS'5'
aS'1'
aS'2'
aS'10'
p3352
aa(lp3353
S'Samisone Masima'
p3354
aS'2013'
p3355
aS'Lock'
p3356
aS'1986'
p3357
aS'2'
aS'1'
aS'0'
aS'0'
aa(lp3358
S'Fraser Anderson'
p3359
aS'2013'
p3360
aS'Centre, Wing'
p3361
aS'Auckland'
p3362
aS'4'
aS'1'
aS'1'
aS'5'
aa(lp3363
S'Siale Fahiua'
p3364
aS'2013'
p3365
aS'Scrum-half'
p3366
aS'1991'
p3367
aS'2'
aS'1'
aS'0'
aS'2'
aa(lp3368
S'Dan Faleafa'
p3369
aS'2013'
p3370
aS'Flanker, Lock'
p3371
aS'1989'
p3372
aS'4'
aS'1'
aS'0'
aS'0'
aa(lp3373
S'Rocky Havili'
p3374
aS'2013'
p3375
aS'Centre, Wing'
p3376
aS'1980'
p3377
aS'1'
aS'0'
aS'0'
aS'0'
aa(lp3378
S"Uili Kolo'ofai"
p3379
aS'2013'
p3380
aS'Lock'
p3381
aS'Auckland'
p3382
aS'1'
aS'0'
aS'0'
aS'0'
aa(lp3383
S'Latiume Fosita'
p3384
aS'2013'
p3385
aS'Fly-half'
p3386
aS'Felemea'
p3387
aS'8'
aS'2'
aS'0'
aS'29'
p3388
aa(lp3389
S'Suliasi Taufalele'
p3390
aS'2013'
p3391
aS'Hooker'
p3392
aS'Tokoroa'
p3393
aS'4'
aS'0'
aS'0'
aS'0'
aa(lp3394
S"Mata'ali Paea"
p3395
aS'2013'
p3396
aS'Centre'
p3397
aS'1990'
p3398
aS'1'
aS'0'
aS'0'
aS'0'
aa(lp3399
S'Otulea Katoa'
p3400
aS'2014'
p3401
aS'Wing'
p3402
aS'Havelu'
p3403
aS'3'
aS'2'
aS'1'
aS'5'
aa(lp3404
S'Paul Ngauamo'
p3405
aS'2014'
p3406
aS'Hooker'
p3407
aS'Christchurch'
p3408
aS'2'
aS'0'
aS'0'
aS'0'
aa(lp3409
S'Tane Takulua'
p3410
aS'2014'
p3411
aS'Scrum-half'
p3412
aS'Lapaha'
p3413
aS'5'
aS'2'
aS'0'
aS'0'
aa(lp3414
S"Paea Fa'anunu"
p3415
aS'2014'
p3416
aS'Prop'
p3417
aS'Auckland'
p3418
aS'3'
aS'2'
aS'0'
aS'0'
aa(lp3419
S'Siua Halanukonuka'
p3420
aS'2014'
p3421
aS'Prop'
p3422
aS'1986'
p3423
aS'1'
aS'1'
aS'0'
aS'0'
aa(lp3424
S'Sione Lea'
p3425
aS'2014'
p3426
aS'Prop'
p3427
aS"Vava'u"
p3428
aS'2'
aS'1'
aS'0'
aS'0'
aa.