(lp1
S'Jim Bevan'
p2
aS'Godfrey Darbishire'
p3
aS'Barry Girling'
p4
aS'George Harding'
p5
aS'Edward Lewis'
p6
aS'Bathurst Mann'
p7
aS'Charlie Newman'
p8
aS'Edward Peake'
p9
aS'William Phillips'
p10
aS'Frank Purdon'
p11
aS'Aneurin Rees'
p12
aS'Richard Summers'
p13
aS'Edward Treharne'
p14
aS'Leonard Watkins'
p15
aS'Richard Williams'
p16
aS'Thomas Baker-Jones'
p17
aS'Ronald Bridie'
p18
aS'Tom Clapp'
p19
aS'Samuel Clark'
p20
aS'Bill Evans'
p21
aS'Bob Gould'
p22
aS'Charles Lewis'
p23
aS'George Morris'
p24
aS'William Norton'
p25
aS'Hugh Vincent'
p26
aS'Tom Williams'
p27
aS'Harry Bowen'
p28
aS'Alfred Cattell'
p29
aS'James Clare'
p30
aS'Dai Gwyn'
p31
aS'Thomas Judson'
p32
aS'John Griffin'
p33
aS'Arthur Jones'
p34
aS'Horace Lyne'
p35
aS'Charles Allen'
p36
aS'Frederick Andrews'
p37
aS'William Gwynn'
p38
aS'Frederick Margrave'
p39
aS'Joe Simpson'
p40
aS'John Smith'
p41
aS'Charles Taylor'
p42
aS'Tom Barlow'
p43
aS'Samuel Goldsworthy'
p44
aS'Frank Hancock'
p45
aS'John Hinton'
p46
aS'Buckley Roderick'
p47
aS'Buller Stadden'
p48
aS'Arthur Gould'
p49
aS'Martyn Jordan'
p50
aS'Evan Richards'
p51
aS'Ernest Rowland'
p52
aS'Lewis Thomas'
p53
aS'Edward Alexander'
p54
aS'Frank Hill'
p55
aS'D. Morgan'
p56
aS'Willie Thomas'
p57
aS'William Bowen'
p58
aS'Billy Douglas'
p59
aS'Dai Lewis'
p60
aS'Evan Roberts'
p61
aS'George Young'
p62
aS'Alfred Mathews'
p63
aS'Alec Bland'
p64
aS'Jem Evans'
p65
aS'Albert Hybart'
p66
aS'Thomas Lockwood'
p67
aS'George Bowen'
p68
aS'Hugh Hughes'
p69
aS'William Williams'
p70
aS'Johnny Lewis'
p71
aS'William Towers'
p72
aS'William Howell'
p73
aS'Price Jenkins-Price'
p74
aS'Dick Kedzlie'
p75
aS'John Meredith'
p76
aS'Dick Powell'
p77
aS'Ned Roberts'
p78
aS'T. Williams'
p79
aS'Charlie Arthur'
p80
aS'Charlie Thomas'
p81
aS'Norman Biggs'
p82
aS'Dickie Garrett'
p83
aS'Dan Griffiths'
p84
aS'Jim Hannan'
p85
aS'Charles Harding'
p86
aS'Syd Nicholls'
p87
aS'George Thomas'
p88
aS'Jim Webb'
p89
aS'Teddy Bishop'
p90
aS'David Evans'
p91
aS'Rosser Evans'
p92
aS'Rowley Thomas'
p93
aS'Abel Davies'
p94
aS'Giotto Griffiths'
p95
aS'Tom Morgan'
p96
aS'Billy Bancroft'
p97
aS'Evan James'
p98
aS'Percy Lloyd'
p99
aS'Walter Rice-Evans'
p100
aS'Stephen Thomas'
p101
aS'Thomas Graham'
p102
aS'Hugh Ingledew'
p103
aS'Percy Bennett'
p104
aS'Harry Packer'
p105
aS'Tom Pearson'
p106
aS'Edward Pegge'
p107
aS'David Daniel'
p108
aS'Billy McCutcheon'
p109
aS'Ralph Sweet-Escott'
p110
aS'Tom Deacon'
p111
aS'David James'
p112
aS'Boomer Nicholl'
p113
aS'David Samuel'
p114
aS'John Samuel'
p115
aS'Arthur Boucher'
p116
aS'Frank Mills'
p117
aS'Percy Phillips'
p118
aS'George Rowles'
p119
aS'Wallace Watts'
p120
aS'Conway Rees'
p121
aS'Harry Day'
p122
aS'Bert Gould'
p123
aS'Frederick Nicholls'
p124
aS'Fred Parfitt'
p125
aS'Dai Fitzgerald'
p126
aS'William Thomas'
p127
aS'Jack Elliot'
p128
aS'Fred Hutchinson'
p129
aS'David Nicholl'
p130
aS'Owen Badger'
p131
aS'Selwyn Biggs'
p132
aS'Ben Davies'
p133
aS'William Elsey'
p134
aS'Tom Jackson'
p135
aS'Ernie George'
p136
aS'Evan Lloyd'
p137
aS'Tom Pook'
p138
aS'Albert Jenkin'
p139
aS'Dai Morgan'
p140
aS'Cliff Bowen'
p141
aS'Bert Dauncey'
p142
aS'Sam Ramsay'
p143
aS'William Cope'
p144
aS'Barry Davies'
p145
aS'David Evans'
p146
aS'Jack Evans'
p147
aS'Bill Morris'
p148
aS'Gwyn Nicholls'
p149
aS'Llewellyn Lloyd'
p150
aS'Fred Miller'
p151
aS'Fred Cornish'
p152
aS'Dick Hellings'
p153
aS'Dan Jones'
p154
aS'Jack Rapps'
p155
aS'Billy Alexander'
p156
aS'Joe Booth'
p157
aS'George Boots'
p158
aS'Hopkin Davies'
p159
aS'Tom Dobson'
p160
aS'Viv Huzzey'
p161
aS'Pussy Jones'
p162
aS'Jere Blake'
p163
aS'Alfred Brice'
p164
aS'Jehoida Hodges'
p165
aS'Willie Llewellyn'
p166
aS'Will Parker'
p167
aS'Fred Scrine'
p168
aS'Reg Skrimshire'
p169
aS'George Davies'
p170
aS'Louis Phillips'
p171
aS'Dan Rees'
p172
aS'Robert Thomas'
p173
aS'Billy Trew'
p174
aS'Buller Williams'
p175
aS'George Dobson'
p176
aS'Bala Jones'
p177
aS'Rusty Gabe'
p178
aS'Bob Jones'
p179
aS'Dick Jones'
p180
aS'Dicky Owen'
p181
aS'Boxer Harding'
p182
aS'Dai Jones'
p183
aS'Strand Jones'
p184
aS'Will Joseph'
p185
aS'Teddy Morgan'
p186
aS'Will Osborne'
p187
aS'Danny Walters'
p188
aS'Harry Jones'
p189
aS'Fred Jowett'
p190
aS'Twyber Travers'
p191
aS'Willie Arnold'
p192
aS'Bert Winfield'
p193
aS'Jack Evans'
p194
aS'David Thomas'
p195
aS'David Davies'
p196
aS"Billy O'Neil"
p197
aS'Cliff Pritchard'
p198
aS'Beddoe Thomas-Maynard'
p199
aS'Harry Watkins'
p200
aS'Sid Bevan'
p201
aS'Howell Jones'
p202
aS'Charlie Pritchard'
p203
aS'Windham Jones'
p204
aS'Jack Williams'
p205
aS'Percy Bush'
p206
aS'Hop Maddock'
p207
aS'Reggie Gibbs'
p208
aS'Tom Evans'
p209
aS'Jack Powell'
p210
aS'Dai Westacott'
p211
aS'John Dyke'
p212
aS'Jack Jenkins'
p213
aS'Dick Thomas'
p214
aS'Johnny Williams'
p215
aS'John Alf Brown'
p216
aS'Bailey Davies'
p217
aS'William Dowell'
p218
aS'Jack Evans'
p219
aS'James Watts'
p220
aS'Jim Webb'
p221
aS'Dickie David'
p222
aS'Ponty Jones'
p223
aS'Tommy Vile'
p224
aS'George Hayward'
p225
aS'Philip Hopkins'
p226
aS'Jack Jones'
p227
aS'Ivor Morgan'
p228
aS'Phil Waller'
p229
aS'Jack Bancroft'
p230
aS'Jake Blackmore'
p231
aS'Mel Baker'
p232
aS'Thomas Lloyd'
p233
aS'Rees Thomas'
p234
aS'Ben Gronow'
p235
aS'Joe Pullman'
p236
aS'Harry Jarman'
p237
aS'Joe Pugsley'
p238
aS'Ernie Jenkins'
p239
aS'Willie Morgan'
p240
aS'Billy Spiller'
p241
aS'Louis Dyke'
p242
aS'Fred Birt'
p243
aS'Percy Coldrick'
p244
aS'Bill Perry'
p245
aS'Jim Birch'
p246
aS'William Evans'
p247
aS'Ewan Davies'
p248
aS'Howell Davies'
p249
aS'Clem Lewis'
p250
aS'Glyn Stephens'
p251
aS'Len Trump'
p252
aS'Harry Uzzell'
p253
aS'William Davies'
p254
aS'George Hirst'
p255
aS'Reggie Plummer'
p256
aS'Frank Hawkins'
p257
aS'Harry Hiam'
p258
aS'Billy Jenkins'
p259
aS'Brin Lewis'
p260
aS'Walter Martin'
p261
aS'Gus Merry'
p262
aS'Tom Williams'
p263
aS'Harold Thomas'
p264
aS'Frank Andrews'
p265
aS'Billy Geen'
p266
aS'Bert Hollingdale'
p267
aS'Percy Jones'
p268
aS'Johnnie Morgan'
p269
aS'Fred Perrett'
p270
aS'Horace Thomas'
p271
aS'Harry Wetter'
p272
aS'Bobbie Williams'
p273
aS'Alban Davies'
p274
aS'Tuan Jones'
p275
aS'Howell Lewis'
p276
aS'Bobby Lloyd'
p277
aS'Rees Richards'
p278
aS'Glyn Gething'
p279
aS'Mark Lewis'
p280
aS'William Evans'
p281
aS'Jack Jones'
p282
aS'Edgar Morgan'
p283
aS'David Watts'
p284
aS'William Watts'
p285
aS'Ivor Davies'
p286
aS'Jack Wetter'
p287
aS'Ianto Davies'
p288
aS'Ike Fowler'
p289
aS'Gwyn Francis'
p290
aS'Bill Havard'
p291
aS'Jim Jones'
p292
aS'Bill Morris'
p293
aS'Trevor Nicholas'
p294
aS'Tom Parker'
p295
aS'Aaron Rees'
p296
aS'Evan Rees'
p297
aS'Jerry Shea'
p298
aS'Melbourne Thomas'
p299
aS'Jack Whitfield'
p300
aS'Ben Beynon'
p301
aS'Brinley Evans'
p302
aS'Albert Jenkins'
p303
aS'Charles Jones'
p304
aS'Steve Morris'
p305
aS'George Oliver'
p306
aS'Wick Powell'
p307
aS'Joe Rees'
p308
aS'Jack Williams'
p309
aS'Brinley Williams'
p310
aS'Dick Huxtable'
p311
aS'Fred Reeves'
p312
aS'Edgar Morgan'
p313
aS'Len Attewell'
p314
aS'Dai Edwards'
p315
aS'Wilf Hodder'
p316
aS'Codger Johnson'
p317
aS'Douglas Marsden-Jones'
p318
aS'Johnny Ring'
p319
aS'Docker Winmill'
p320
aS'Paul Baker-Jones'
p321
aS'William Bowen'
p322
aS'Frankie Evans'
p323
aS'Tom Roberts'
p324
aS'Harry Davies'
p325
aS'Ossie Male'
p326
aS'Tudor Williams'
p327
aS'Ambrose Baker'
p328
aS'Archie Brown'
p329
aS'Daph Davies'
p330
aS'Jack Prosser'
p331
aS'Will Cummings'
p332
aS'Bobby Delahay'
p333
aS'Islwyn Evans'
p334
aS'Dai Hiddlestone'
p335
aS'Tom Jones'
p336
aS'Frank Palmer'
p337
aS'Cliff Richards'
p338
aS'John Stephens'
p339
aS'Fred Samuel'
p340
aS'Arthur Cornish'
p341
aS'Dai Davies'
p342
aS'Rowe Harding'
p343
aS'Gwilym Michael'
p344
aS'Gethin Thomas'
p345
aS'Joe Thompson'
p346
aS'Lew Jenkins'
p347
aS'Dai John'
p348
aS'Dan Pascoe'
p349
aS'Mapson Williams'
p350
aS'Tom Collins'
p351
aS'Stan Davies'
p352
aS'John Davies'
p353
aS'Jack Powell'
p354
aS'William Radford'
p355
aS'Tom Richards'
p356
aS'Hunt Davies'
p357
aS'Candy Evans'
p358
aS'Ivor Jones'
p359
aS'Glyn Morris'
p360
aS'William Ould'
p361
aS'Albert Owen'
p362
aS'Charlie Pugh'
p363
aS'Ivor Thomas'
p364
aS'Edward Watkins'
p365
aS'Harold Davies'
p366
aS'Jack Elwyn Evans'
p367
aS'Vince Griffiths'
p368
aS'Mel Rosser'
p369
aS'Tommy Evans'
p370
aS'Jack Gore'
p371
aS'George Hathway'
p372
aS'William Jones'
p373
aS'Dai Parker'
p374
aS'Bob Randall'
p375
aS'Ernie Finch'
p376
aS'Joe Jones'
p377
aS'Arnold Rickards'
p378
aS'Albert Stock'
p379
aS'Cliff Williams'
p380
aS'Eddie Williams'
p381
aS'Willie Hopkins'
p382
aS'Will James'
p383
aS'Idris Jones'
p384
aS'Bryn Phillips'
p385
aS'Idris Richards'
p386
aS'Cyril Thomas'
p387
aS'Evan Williams'
p388
aS'Ron Herrera'
p389
aS'Steve Lawrence'
p390
aS'Eddie Beynon'
p391
aS'Will Lewis'
p392
aS'Jim Brown'
p393
aS'Sydney Hinam'
p394
aS'Arthur John'
p395
aS'Nathan Rocyn-Jones'
p396
aS'Bernard Turnbull'
p397
aS'George Andrews'
p398
aS'David Evans'
p399
aS'Thomas Hopkins'
p400
aS'Dai Jenkins'
p401
aS'Howell John'
p402
aS'Dai Jones'
p403
aS'Bobby Jones'
p404
aS'Tom Lewis'
p405
aS'Bill Everson'
p406
aS'Wick Powell'
p407
aS'Emlyn Watkins'
p408
aS'Windsor Lewis'
p409
aS'Tommy Rees'
p410
aS'Charles Rowlands'
p411
aS'Harry Phillips'
p412
aS'John Roberts'
p413
aS'Watcyn Thomas'
p414
aS'Billy Williams'
p415
aS'Tom Arthur'
p416
aS'John Bartlett'
p417
aS'Ned Jenkins'
p418
aS'Gwyn Richards'
p419
aS'Jim Burns'
p420
aS'Guy Stewart-Morgan'
p421
aS'Lonza Bowdler'
p422
aS'Gus Broughton'
p423
aS'Tal Harris'
p424
aS'Tom Hollingdale'
p425
aS'David Jenkins'
p426
aS'Dan Jones'
p427
aS'Iorwerth Jones'
p428
aS'Roy Jones'
p429
aS'Cecil Pritchard'
p430
aS'Archie Skym'
p431
aS'Gwyn Davies'
p432
aS'Jack Bassett'
p433
aS'Harold Jones'
p434
aS'Dick Jones'
p435
aS'Jack Morley'
p436
aS'Bill Roberts'
p437
aS'Bob Barrell'
p438
aS'Harry Bowcott'
p439
aS'Harry Peacock'
p440
aS'Frank Williams'
p441
aS'Arthur Lemon'
p442
aS'Arthur Hickman'
p443
aS'Tom Jones-Davies'
p444
aS'David Roberts'
p445
aS'Ocker Thomas'
p446
aS'Ronnie Boon'
p447
aS'Bert Day'
p448
aS'Chick Jones'
p449
aS'Dai Thomas'
p450
aS'Norman Fender'
p451
aS'Howie Jones'
p452
aS'Claud Davey'
p453
aS'Edgar Jones'
p454
aS'Tommy Scourfield'
p455
aS'Tom Day'
p456
aS'David James'
p457
aS'Jim Lang'
p458
aS'Dicky Ralph'
p459
aS'Sgili Davies'
p460
aS'Bryn Evans'
p461
aS'Iorrie Isaacs'
p462
aS'Viv Jenkins'
p463
aS'Arthur Jones'
p464
aS'Raymond Jones'
p465
aS'Maurice Turnbull'
p466
aS'Wilf Wooller'
p467
aS'Gwyn Bayliss'
p468
aS'Bryn Evans'
p469
aS'Ron Morris'
p470
aS'Billy Moore'
p471
aS'Lew Rees'
p472
aS'Bun Cowey'
p473
aS'Cecil Davies'
p474
aS'David Evans'
p475
aS'John Evans'
p476
aS'Bryn Howells'
p477
aS'Gomer Hughes'
p478
aS'Geoffrey Jones'
p479
aS'Ken Jones'
p480
aS'Cliff Jones'
p481
aS'Glyn Prosser'
p482
aS'Arthur Rees'
p483
aS'Idwal Rees'
p484
aS'Harry Truman'
p485
aS'Iorwerth Evans'
p486
aS'Albert Fear'
p487
aS'Bert Jones'
p488
aS'Dai Prosser'
p489
aS'Bill Ward'
p490
aS'Arthur Bassett'
p491
aS'Con Murphy'
p492
aS'Thomas Rees'
p493
aS'Tabber Williams'
p494
aS'Tommy James'
p495
aS'Harry Payne'
p496
aS'Haydn Tanner'
p497
aS'Don Tarr'
p498
aS'Eddie Watkins'
p499
aS'Edgar Long'
p500
aS'Barney McCall'
p501
aS'Harold Thomas'
p502
aS'Griff Williams'
p503
aS'Willy Davies'
p504
aS'Bill Clement'
p505
aS'Emrys Evans'
p506
aS'David Thomas'
p507
aS'Bill Hopkin'
p508
aS'Harry Rees'
p509
aS'Bunner Travers'
p510
aS'Ivor Bennett'
p511
aS'Walter Legge'
p512
aS'Russell Taylor'
p513
aS'Allen McCarley'
p514
aS'Fred Morgan'
p515
aS'Eddie Morgan'
p516
aS'Walter Vickery'
p517
aS'Cyril Challinor'
p518
aS'Idwal Davies'
p519
aS'Wendy Davis'
p520
aS'John Ford'
p521
aS'Syd Williams'
p522
aS'Howard Davies'
p523
aS'Leslie Davies'
p524
aS'Mickey Davies'
p525
aS'Elfed Jones'
p526
aS'Les Manfield'
p527
aS'Ron Price'
p528
aS'Viv Law'
p529
aS'Chris Matthews'
p530
aS'Griff Bevan'
p531
aS'Reg Blakemore'
p532
aS'Billy Cleaver'
p533
aS'Gwyn Evans'
p534
aS'Dai Jones'
p535
aS'Ken Jones'
p536
aS'Jack Matthews'
p537
aS'George Parsons'
p538
aS'Rees Stephens'
p539
aS'Bleddyn Williams'
p540
aS'Ossie Williams'
p541
aS'Stanley Williams'
p542
aS'Les Williams'
p543
aS'Cliff Davies'
p544
aS'Glyn Davies'
p545
aS'Wilf Evans'
p546
aS'Billy Gore'
p547
aS'Bill Tamplin'
p548
aS'Bob Evans'
p549
aS'Peter Rees'
p550
aS'Emlyn Davies'
p551
aS'Handel Greville'
p552
aS'John Gwilliam'
p553
aS'Mal James'
p554
aS'Les Anthony'
p555
aS'Des Jones'
p556
aS'Frank Trott'
p557
aS'Ray Cale'
p558
aS'Ernie Coleman'
p559
aS'Don Hayward'
p560
aS'Alun Meredith'
p561
aS'Terry Cook'
p562
aS'Windsor Major'
p563
aS'Peter Stone'
p564
aS'Malcolm Thomas'
p565
aS'Clem Thomas'
p566
aS'Trevor Brewer'
p567
aS'Dai Davies'
p568
aS'Roy John'
p569
aS'Lewis Jones'
p570
aS'John Robins'
p571
aS'Rex Willis'
p572
aS'Gerwyn Williams'
p573
aS'Peter Evans'
p574
aS'Allen Forward'
p575
aS'Ben Edwards'
p576
aS'Cliff Morgan'
p577
aS'Haydn Morris'
p578
aS'Billy Williams'
p579
aS'Len Blythe'
p580
aS'Alun Thomas'
p581
aS'Billy Williams'
p582
aS'Horace Phillips'
p583
aS'Geoff Beckingham'
p584
aS'Roy Burnett'
p585
aS'Terry Davies'
p586
aS'Gareth Griffiths'
p587
aS'Dill Johnson'
p588
aS'Sid Judd'
p589
aS'Courtenay Meredith'
p590
aS'Russell Robins'
p591
aS'Trevor Lloyd'
p592
aS'Gwyn Rowlands'
p593
aS'Glyn John'
p594
aS'Viv Evans'
p595
aS'Leighton Jenkins'
p596
aS'Bryn Meredith'
p597
aS'Brian Sparks'
p598
aS'Denzil Thomas'
p599
aS'Rhys Williams'
p600
aS'Len Davies'
p601
aS'Ray Williams'
p602
aS'Glyn Davies'
p603
aS'Arthur Edwards'
p604
aS'Gordon Wells'
p605
aS'Garfield Owen'
p606
aS'Derek Williams'
p607
aS'Onllwyn Brace'
p608
aS'Cowboy Davies'
p609
aS'Harry Morgan'
p610
aS'Ray Prosser'
p611
aS'Rex Richards'
p612
aS'Geoff Whitson'
p613
aS'Geoff Howells'
p614
aS'Keith Maddocks'
p615
aS"Rory O'Connor"
p616
aS'Robin Davies'
p617
aS'Lloyd Williams'
p618
aS'Cyril Davies'
p619
aS'John Faull'
p620
aS'Henry Morgan'
p621
aS'Graham Powell'
p622
aS'John Collins'
p623
aS'Don Devereux'
p624
aS'Wynne Evans'
p625
aS'Roddy Evans'
p626
aS'Carwyn James'
p627
aS'Haydn Morgan'
p628
aS'John Evans'
p629
aS'Howard Nicholls'
p630
aS'Alun Priday'
p631
aS'Cyril Roberts'
p632
aS'Cliff Ashton'
p633
aS'Dewi Bebb'
p634
aS'Haydn Davies'
p635
aS'Ian Ford'
p636
aS'John Leleu'
p637
aS'Derrick Main'
p638
aS'Malcolm Price'
p639
aS'Danny Harris'
p640
aS'Glyn Davidge'
p641
aS'Jack Hurrell'
p642
aS'Billy Watkins'
p643
aS'Brian Cresswell'
p644
aS'Len Cunningham'
p645
aS'Colin Evans'
p646
aS'Gareth Payne'
p647
aS'Geoff Windsor-Lewis'
p648
aS'Fenton Coles'
p649
aS'Norman Morgan'
p650
aS'Norman Gale'
p651
aS'Brian Jones'
p652
aS'Bryan Richards'
p653
aS'Denis Evans'
p654
aS'Kingsley Jones'
p655
aS'David Nash'
p656
aS"Tony O'Connor"
p657
aS'Ken Richards'
p658
aS'Meirion Roberts'
p659
aS'Phil Morgan'
p660
aS'Peter Rees'
p661
aS'Gordon Britton'
p662
aS'Brian Price'
p663
aS'Dave Thomas'
p664
aS'Haydn Mainwaring'
p665
aS'Alun Pask'
p666
aS'Billy Thomas'
p667
aS'Kel Coslett'
p668
aS'Ken Jones'
p669
aS'Robert Morgan'
p670
aS'Alan Rees'
p671
aS'Des Greenslade'
p672
aS'Keith Rowlands'
p673
aS'Brian Davies'
p674
aS'John Davies'
p675
aS'Grahame Hodgson'
p676
aS'John Warlow'
p677
aS'David Hayward'
p678
aS'Roger Michaelson'
p679
aS'Clive Rowlands'
p680
aS'Brian Thomas'
p681
aS'David Watkins'
p682
aS'Denzil Williams'
p683
aS'Ron Evans'
p684
aS'Graham Jones'
p685
aS'Bill Morris'
p686
aS'Howard Norris'
p687
aS'Alan Thomas'
p688
aS'Dick Uzzell'
p689
aS'Keith Bradshaw'
p690
aS'John Mantle'
p691
aS'David Weaver'
p692
aS'Gareth Prothero'
p693
aS'Stuart Watkins'
p694
aS'John Dawes'
p695
aS'Terry Price'
p696
aS'Ron Waldron'
p697
aS'Bill Morris'
p698
aS'Lyn Davies'
p699
aS'Allan Lewis'
p700
aS'John Lloyd'
p701
aS'Ken Braddock'
p702
aS'Gerald Davies'
p703
aS'Barry John'
p704
aS'Delme Thomas'
p705
aS'Billy Hullin'
p706
aS'Billy Mainwaring'
p707
aS"John O'Shea"
p708
aS'Billy Raybould'
p709
aS'Brian Rees'
p710
aS'John Taylor'
p711
aS'Gareth Edwards'
p712
aS'Ron Jones'
p713
aS'Dai Morris'
p714
aS'Keith Jarrett'
p715
aS'Ian Hall'
p716
aS'Dennis Hughes'
p717
aS'John Jeffrey'
p718
aS'Keri Jones'
p719
aS'Paul Wheeler'
p720
aS'Max Wiltshire'
p721
aS'Tony Gray'
p722
aS'Boyo James'
p723
aS'Bobby Wanbon'
p724
aS'Doug Rees'
p725
aS'Jeff Young'
p726
aS'Ian Jones'
p727
aS'Maurice Richards'
p728
aS'Mervyn Davies'
p729
aS'JPR Williams'
p730
aS'Phil Bennett'
p731
aS'Geoff Evans'
p732
aS'Barry Llewelyn'
p733
aS'Vic Perrins'
p734
aS'Laurie Daniel'
p735
aS'Ray Hopkins'
p736
aS'Keith Hughes'
p737
aS'Stuart Gallacher'
p738
aS'Arthur Lewis'
p739
aS'Roy Mathias'
p740
aS'Jim Shanklin'
p741
aS'John Bevan'
p742
aS'Mike Roberts'
p743
aS'Roy Bergiers'
p744
aS'Derek Quinnell'
p745
aS'Glyn Shaw'
p746
aS'Phil Llewellyn'
p747
aS'Tommy David'
p748
aS'John Williams'
p749
aS'Allan Martin'
p750
aS'Bobby Windsor'
p751
aS'Clive Shell'
p752
aS'Terry Cobner'
p753
aS'Alex Finlayson'
p754
aS'Clive Rees'
p755
aS'Geoff Wheel'
p756
aS'Walter Williams'
p757
aS'Ian Robinson'
p758
aS'Roger Blyth'
p759
aS'John Bevan'
p760
aS'Trefor Evans'
p761
aS'Charlie Faulkner'
p762
aS'Steve Fenwick'
p763
aS'Ray Gravell'
p764
aS'Graham Price'
p765
aS'Mike Knill'
p766
aS'David Burcher'
p767
aS'Clive Burgess'
p768
aS'Jeff Squire'
p769
aS'Gareth Evans'
p770
aS'Clive Williams'
p771
aS'Gareth Davies'
p772
aS'Brynmor Williams'
p773
aS'Stuart Lane'
p774
aS'Clive Davis'
p775
aS'Alun Donovan'
p776
aS'Terry Holmes'
p777
aS'John Richardson'
p778
aS'Paul Ringer'
p779
aS'Elgan Rees'
p780
aS'Barry Clegg'
p781
aS'David Richards'
p782
aS'Allan Phillips'
p783
aS'Clive Griffiths'
p784
aS'Eddie Butler'
p785
aS'Les Keen'
p786
aS'Peter Morgan'
p787
aS'Rob Ackerman'
p788
aS'Gareth Williams'
p789
aS'Rhodri Lewis'
p790
aS'David Nicholas'
p791
aS'Ian Stephens'
p792
aS'Gwyn Evans'
p793
aS'Gary Pearce'
p794
aS'Gerald Williams'
p795
aS'Pat Daniels'
p796
aS'Mark Davies'
p797
aS'Dick Moriarty'
p798
aS'Steve Sutton'
p799
aS'Bob Norster'
p800
aS'Malcolm Dacey'
p801
aS'Billy James'
p802
aS'Dai Pickering'
p803
aS'Mark Ring'
p804
aS'Mark Wyatt'
p805
aS'Ian Eidman'
p806
aS'Staff Jones'
p807
aS'John Perkins'
p808
aS'Richard Donovan'
p809
aS'Bleddyn Bowen'
p810
aS'Mark Brown'
p811
aS'Ray Giles'
p812
aS'Adrian Hadley'
p813
aS'Terry Shaw'
p814
aS'Mark Titley'
p815
aS'Howell Davies'
p816
aS'Mark Douglas'
p817
aS'Rhys Morgan'
p818
aS'Mike Watkins'
p819
aS'David Bishop'
p820
aS'Alun Davies'
p821
aS'Phil Lewis'
p822
aS'Jeff Whitefoot'
p823
aS'Martyn Morris'
p824
aS'Stuart Evans'
p825
aS'Paul Thorburn'
p826
aS'Gareth Roberts'
p827
aS'Jonathan Davies'
p828
aS'Phil Davies'
p829
aS'Kevin Hopkins'
p830
aS'John Devereux'
p831
aS'Robert Jones'
p832
aS'David Waters'
p833
aS'Paul Moriarty'
p834
aS'Huw Richards'
p835
aS'Glen Webbe'
p836
aS'Ieuan Evans'
p837
aS'Kevin Phillips'
p838
aS'Richie Collins'
p839
aS'Peter Francis'
p840
aS'Mark Jones'
p841
aS'Steven Blackmore'
p842
aS'Anthony Buchanan'
p843
aS'Dai Young'
p844
aS'Richard Webster'
p845
aS'Rowland Phillips'
p846
aS'Jeremy Pugh'
p847
aS'Stuart Russell'
p848
aS'Tony Clement'
p849
aS'Phil May'
p850
aS'Ian Watkins'
p851
aS'David Bryant'
p852
aS'Tim Fauvel'
p853
aS'Mike Hall'
p854
aS'Nigel Davies'
p855
aS'Jonathan Griffiths'
p856
aS'Gary Jones'
p857
aS'Kevin Moseley'
p858
aS'Jonathan Mason'
p859
aS'Carwyn Davies'
p860
aS'Mike Griffiths'
p861
aS'Wayne Hall'
p862
aS'John Wakeford'
p863
aS'Richard Wintle'
p864
aS'Richard Diplock'
p865
aS'Hugh Williams-Jones'
p866
aS'Laurance Delaney'
p867
aS'Paul Turner'
p868
aS'David Evans'
p869
aS'Arthur Jones'
p870
aS'Gareth Llewellyn'
p871
aS'Phil Pugh'
p872
aS'Andy Allen'
p873
aS'Allan Bateman'
p874
aS'Mark Perego'
p875
aS'Brian Williams'
p876
aS'Steve Ford'
p877
aS'Alan Edmunds'
p878
aS'Paul Arnold'
p879
aS'Chris Bridges'
p880
aS'Paul Knight'
p881
aS'Glyn Llewellyn'
p882
aS'Alan Reynolds'
p883
aS'Stuart Parfitt'
p884
aS'Owain Williams'
p885
aS'Aled Williams'
p886
aS'Adrian Davies'
p887
aS'Alun Carter'
p888
aS'Glenn George'
p889
aS'Scott Gibbs'
p890
aS'Neil Jenkins'
p891
aS'John Davies'
p892
aS'Emyr Lewis'
p893
aS'Mark Davis'
p894
aS'Garin Jenkins'
p895
aS'Luc Evans'
p896
aS'Ken Waters'
p897
aS'Mike Rayer'
p898
aS'Tony Copsey'
p899
aS'Stuart Davies'
p900
aS'Colin Stephens'
p901
aS'Roger Bidgood'
p902
aS'Wayne Proctor'
p903
aS'Ricky Evans'
p904
aS'Nigel Meek'
p905
aS'Nigel Walker'
p906
aS'Andrew Lamerton'
p907
aS'Rupert Moon'
p908
aS'Simon Hill'
p909
aS'Lyn Jones'
p910
aS'Neil Boobyer'
p911
aS'Scott Quinnell'
p912
aS'Hemi Taylor'
p913
aS'Robin McBryde'
p914
aS'Ian Buckett'
p915
aS'Paul John'
p916
aS'Gwilym Wilkins'
p917
aS'Steve Williams'
p918
aS'Derwyn Jones'
p919
aS'Mark Taylor'
p920
aS'Matt Back'
p921
aS'Spencer John'
p922
aS'Andrew Gibbs'
p923
aS'Andrew Moore'
p924
aS'Gareth Thomas'
p925
aS'Stuart Roy'
p926
aS'Mark Bennett'
p927
aS'Jonathan Humphreys'
p928
aS'Greg Prosser'
p929
aS'Gareth Jones'
p930
aS'Christian Loader'
p931
aS'Justin Thomas'
p932
aS'Andy Moore'
p933
aS'Lyndon Mustoe'
p934
aS'Craig Quinnell'
p935
aS'Leigh Davies'
p936
aS'Gwyn Jones'
p937
aS'Andrew Lewis'
p938
aS'Arwel Thomas'
p939
aS'Matthew Wintle'
p940
aS'Rob Howley'
p941
aS'Mike Voyle'
p942
aS'Dafydd James'
p943
aS'Kingsley Jones'
p944
aS'Martyn Williams'
p945
aS'Barry Williams'
p946
aS'Colin Charvis'
p947
aS'Dale McIntosh'
p948
aS'Mark Rowley'
p949
aS'Nathan Thomas'
p950
aS'Kevin Morgan'
p951
aS'Chris Anthony'
p952
aS'Rob Appleyard'
p953
aS'Steve Moore'
p954
aS'Lee Jarvis'
p955
aS'Gareth Wyatt'
p956
aS'Chris Stephens'
p957
aS'Darren Morris'
p958
aS'Richard Rees'
p959
aS'David Weatherley'
p960
aS'John Funnell'
p961
aS'Byron Hayward'
p962
aS'Chris Wyatt'
p963
aS'Garan Evans'
p964
aS'Ian Gough'
p965
aS'Stephen Jones'
p966
aS'Geraint Lewis'
p967
aS'David Llewellyn'
p968
aS'Darril Williams'
p969
aS'Shane Howarth'
p970
aS'Ben Evans'
p971
aS'Matthew Robinson'
p972
aS'Peter Rogers'
p973
aS'Brett Sinkinson'
p974
aS'Nick Walne'
p975
aS'Jason Jones-Hughes'
p976
aS'Richard Smith'
p977
aS'Shane Williams'
p978
aS'Nathan Budgett'
p979
aS'Matt Cardey'
p980
aS'Rhys Williams'
p981
aS'Deiniol Jones'
p982
aS'Iestyn Thomas'
p983
aS'James Griffiths'
p984
aS'Mark Jones'
p985
aS'Gareth Cooper'
p986
aS'Adrian Durston'
p987
aS'Andy Lloyd'
p988
aS'Gavin Thomas'
p989
aS'Gavin Henson'
p990
aS'Steve Jones'
p991
aS'Jamie Ringer'
p992
aS'Jamie Robinson'
p993
aS'Tom Shanklin'
p994
aS'Dwayne Peel'
p995
aS'Iestyn Harris'
p996
aS'Anthony Sullivan'
p997
aS'Duncan Jones'
p998
aS'Craig Morgan'
p999
aS'Andy Marinos'
p1000
aS'Michael Owen'
p1001
aS'Martyn Madden'
p1002
aS'Richard Parks'
p1003
aS'Ryan Powell'
p1004
aS'Robert Sidoli'
p1005
aS'Mefin Davies'
p1006
aS'Gethin Jenkins'
p1007
aS'Sonny Parker'
p1008
aS'Dafydd Jones'
p1009
aS'Vernon Cooper'
p1010
aS'Ceri Sweeney'
p1011
aS'Matthew Watkins'
p1012
aS'Gareth Williams'
p1013
aS'Jonathan Thomas'
p1014
aS'Alix Popham'
p1015
aS'Rhys Oakley'
p1016
aS'Nicky Robinson'
p1017
aS'Huw Bennett'
p1018
aS'Adam Jones'
p1019
aS'Nathan Brew'
p1020
aS'Brent Cockbain'
p1021
aS'Paul James'
p1022
aS'Mike Phillips'
p1023
aS'James Bater'
p1024
aS'Jon Bryant'
p1025
aS'Andy Williams'
p1026
aS'Paul Young'
p1027
aS'Hal Luscombe'
p1028
aS'Jason Forster'
p1029
aS'Ryan Jones'
p1030
aS'Luke Charteris'
p1031
aS'John Yapp'
p1032
aS'Robin Sowden-Taylor'
p1033
aS'Matthew Rees'
p1034
aS'Ben Broster'
p1035
aS'Richie Pugh'
p1036
aS'Tal Selley'
p1037
aS'T.Rhys Thomas'
p1038
aS'Chris Czekaj'
p1039
aS'Matt Jones'
p1040
aS'Lee Byrne'
p1041
aS'Chris Horsman'
p1042
aS'Adam Jones'
p1043
aS'Gareth Delve'
p1044
aS'Barry Davies'
p1045
aS'Ian Evans'
p1046
aS'Alun Wyn Jones'
p1047
aS'Richard Hibbard'
p1048
aS'James Hook'
p1049
aS'Rhys M. Thomas'
p1050
aS'Gavin Evans'
p1051
aS'Aled Brew'
p1052
aS'Ceri Jones'
p1053
aS'Scott Morgan'
p1054
aS'Will James'
p1055
aS'Tom James'
p1056
aS'Morgan Stoddart'
p1057
aS'Jamie Roberts'
p1058
aS'Warren Fury'
p1059
aS'Andrew Bishop'
p1060
aS'Leigh Halfpenny'
p1061
aS'Andy Powell'
p1062
aS'Martin Roberts'
p1063
aS'Dan Biggar'
p1064
aS'Eifion Lewis-Roberts'
p1065
aS'Bradley Davies'
p1066
aS'Jonathan Davies'
p1067
aS'Dan Evans'
p1068
aS'Craig Mitchell'
p1069
aS'Jonathan Spratt'
p1070
aS'Sam Warburton'
p1071
aS'Dan Lydiate'
p1072
aS'Richie Rees'
p1073
aS'Rhys Gill'
p1074
aS'Tom Prydie'
p1075
aS'Rob McCusker'
p1076
aS'Tavis Knoyle'
p1077
aS'Will Harries'
p1078
aS'George North'
p1079
aS'Rhys Priestland'
p1080
aS'Josh Turnbull'
p1081
aS'Ryan Bevington'
p1082
aS'Taulupe Faletau'
p1083
aS'Scott Andrews'
p1084
aS'Lloyd Burns'
p1085
aS'Scott Williams'
p1086
aS'Justin Tipuric'
p1087
aS'Lloyd Williams'
p1088
aS'Ken Owens'
p1089
aS'Alex Cuthbert'
p1090
aS'Aaron Shingler'
p1091
aS'Lou Reed'
p1092
aS'Rhys Webb'
p1093
aS'Rhodri Jones'
p1094
aS'Harry Robinson'
p1095
aS'Liam Williams'
p1096
aS'Adam Warren'
p1097
aS'Ashley Beck'
p1098
aS'Aaron Jarvis'
p1099
aS'Andrew Coombs'
p1100
aS'Olly Kohn'
p1101
aS'Dafydd Howells'
p1102
aS'James King'
p1103
aS'Emyr Phillips'
p1104
aS'Owen Williams'
p1105
aS'Dan Baker'
p1106
aS'Rhys Patchell'
p1107
aS'Andries Pretorius'
p1108
aS'Josh Navidi'
p1109
aS'Scott Baldwin'
p1110
aS'Cory Allen'
p1111
aS'Samson Lee'
p1112
aS'Hallam Amos'
p1113
aS'Rhodri Williams'
p1114
aS'Jake Ball'
p1115
aS'Gareth Davies'
p1116
aS'Matthew Morgan'
p1117
aS'Nicky Smith'
p1118
aS'Rob Evans'
p1119
a.