(lp1
(lp2
S'Jim Bevan'
p3
aS'1881'
p4
aS'Three-quarters'
p5
aS'Vic'
p6
aS'1'
aS'0'
aS'0'
aNaa(lp7
S'Godfrey Darbishire'
p8
aS'1881'
p9
aS'Forward'
p10
aS'Lancs'
p11
aS'1'
aS'0'
aS'0'
aNaa(lp12
S'Barry Girling'
p13
aS'1881'
p14
aS'Forward'
p15
aS'Bristol'
p16
aS'1'
aS'0'
aS'0'
aNaa(lp17
S'George Harding'
p18
aS'1881'
p19
aS'Forward'
p20
aS'Lancs'
p21
aS'4'
aS'1'
aS'0'
aNaa(lp22
S'Edward Lewis'
p23
aS'1881'
p24
aS'Halfback'
p25
aS'Llandovery'
p26
aS'1'
aS'0'
aS'0'
aNaa(lp27
S'Bathurst Mann'
p28
aS'1881'
p29
aS'Forward'
p30
aS'The Curragh'
p31
aS'1'
aS'0'
aS'0'
aNaa(lp32
S'Charlie Newman'
p33
aS'1881'
p34
aS'Halfback'
p35
aS'Newport'
p36
aS'10'
p37
aS'1'
aS'0'
aNaa(lp38
S'Edward Peake'
p39
aS'1881'
p40
aS'Three-quarters'
p41
aS'Monmouth'
p42
aS'1'
aS'0'
aS'0'
aNaa(lp43
S'William Phillips'
p44
aS'1881'
p45
aS'Forward'
p46
aS'Cardiff'
p47
aS'5'
aS'2'
aS'0'
aNaa(lp48
S'Frank Purdon'
p49
aS'1881'
p50
aS'Forward'
p51
aS'Co Westmeath'
p52
aS'4'
aS'1'
aS'0'
aNaa(lp53
S'Aneurin Rees'
p54
aS'1881'
p55
aS'Forward'
p56
aS'Llandovery'
p57
aS'1'
aS'0'
aS'0'
aNaa(lp58
S'Richard Summers'
p59
aS'1881'
p60
aS'Fullback'
p61
aS'Haverfordwest'
p62
aS'1'
aS'0'
aS'0'
aNaa(lp63
S'Edward Treharne'
p64
aS'1881'
p65
aS'Forward'
p66
aS'Ystradyfodwg'
p67
aS'2'
aS'0'
aS'0'
aNaa(lp68
S'Leonard Watkins'
p69
aS'1881'
p70
aS'Halfback'
p71
aS'Abergavenny'
p72
aS'1'
aS'0'
aS'0'
aNaa(lp73
S'Richard Williams'
p74
aS'1881'
p75
aS'Forward'
p76
aS'Llowes'
p77
aS'1'
aS'0'
aS'0'
aNaa(lp78
S'Thomas Baker-Jones'
p79
aS'1882'
p80
aS'Forward'
p81
aS'Newport'
p82
aS'6'
aS'1'
aS'1'
aNaa(lp83
S'Ronald Bridie'
p84
aS'1882'
p85
aS'Halfback'
p86
aS'-'
aS'1'
aS'1'
aS'1'
aNaa(lp87
S'Tom Clapp'
p88
aS'1882'
p89
aS'Forward'
p90
aS'Marylebon'
p91
aS'14'
p92
aS'4'
aS'2'
aNaa(lp93
S'Samuel Clark'
p94
aS'1882'
p95
aS'Fullback'
p96
aS'Weymouth'
p97
aS'2'
aS'2'
aS'0'
aNaa(lp98
S'Bill Evans'
p99
aS'1882'
p100
aS'Three-quarters'
p101
aS'Rhymney'
p102
aS'2'
aS'1'
aS'1'
aNaa(lp103
S'Bob Gould'
p104
aS'1882'
p105
aS'Forward'
p106
aS'Newport'
p107
aS'11'
p108
aS'2'
aS'0'
aNaa(lp109
S'Charles Lewis'
p110
aS'1882'
p111
aS'Fullback'
p112
aS'Llangadog'
p113
aS'5'
aS'1'
aS'0'
aNaa(lp114
S'George Morris'
p115
aS'1882'
p116
aS'Forward'
p117
aS'Swansea'
p118
aS'5'
aS'1'
aS'0'
aNaa(lp119
S'William Norton'
p120
aS'1882'
p121
aS'Three-quarters'
p122
aS'Carmarthen'
p123
aS'6'
aS'2'
aS'1'
aNaa(lp124
S'Hugh Vincent'
p125
aS'1882'
p126
aS'Forward'
p127
aS'Caernarfon'
p128
aS'1'
aS'1'
aS'0'
aNaa(lp129
S'Tom Williams'
p130
aS'1882'
p131
aS'Forward'
p132
aS'Llwynypia'
p133
aS'1'
aS'1'
aS'0'
aNaa(lp134
S'Harry Bowen'
p135
aS'1882'
p136
aS'Fullback'
p137
aS'Llanelly'
p138
aS'4'
aS'0'
aS'0'
aNaa(lp139
S'Alfred Cattell'
p140
aS'1882'
p141
aS'Forward'
p142
aS'Rutland'
p143
aS'2'
aS'0'
aS'0'
aNaa(lp144
S'James Clare'
p145
aS'1882'
p146
aS'Three-quarters'
p147
aS'London'
p148
aS'1'
aS'0'
aS'0'
aNaa(lp149
S'Dai Gwyn'
p150
aS'1882'
p151
aS'Centre'
p152
aS'Swansea'
p153
aS'6'
aS'1'
aS'0'
aS'0'
aa(lp154
S'Thomas Judson'
p155
aS'1882'
p156
aS'Forward'
p157
aS'Lancs'
p158
aS'2'
aS'0'
aS'1'
aNaa(lp159
S'John Griffin'
p160
aS'1883'
p161
aS'Forward'
p162
aS'Southampton'
p163
aS'1'
aS'0'
aS'0'
aNaa(lp164
S'Arthur Jones'
p165
aS'1883'
p166
aS'Forward'
p167
aS'Risca'
p168
aS'1'
aS'0'
aS'0'
aNaa(lp169
S'Horace Lyne'
p170
aS'1883'
p171
aS'Forward'
p172
aS'Newport'
p173
aS'5'
aS'1'
aS'0'
aNaa(lp174
S'Charles Allen'
p175
aS'1884'
p176
aS'Three-quarters'
p177
aS'Lancashire'
p178
aS'2'
aS'0'
aS'1'
aNaa(lp179
S'Frederick Andrews'
p180
aS'1884'
p181
aS'Forward'
p182
aS'Swansea'
p183
aS'2'
aS'0'
aS'0'
aNaa(lp184
S'William Gwynn'
p185
aS'1884'
p186
aS'Halfback'
p187
aS'Swansea'
p188
aS'5'
aS'1'
aS'0'
aNaa(lp189
S'Frederick Margrave'
p190
aS'1884'
p191
aS'Forward'
p192
aS'Llanelly'
p193
aS'2'
aS'0'
aS'0'
aNaa(lp194
S'Joe Simpson'
p195
aS'1884'
p196
aS'Forward'
p197
aS'Sedgefield'
p198
aS'3'
aS'1'
aS'0'
aNaa(lp199
S'John Smith'
p200
aS'1884'
p201
aS'Forward'
p202
aS'Manchester'
p203
aS'3'
aS'1'
aS'0'
aNaa(lp204
S'Charles Taylor'
p205
aS'1884'
p206
aS'Three-quarters'
p207
aS'Ruabon'
p208
aS'9'
aS'2'
aS'0'
aNaa(lp209
S'Tom Barlow'
p210
aS'1884'
p211
aS'Fullback'
p212
aS'Salford'
p213
aS'1'
aS'1'
aS'0'
aNaa(lp214
S'Samuel Goldsworthy'
p215
aS'1884'
p216
aS'Forward'
p217
aS'Swansea'
p218
aS'3'
aS'1'
aS'0'
aNaa(lp219
S'Frank Hancock'
p220
aS'1884'
p221
aS'Three-quarters'
p222
aS'Wiveliscombe'
p223
aS'4'
aS'1'
aS'0'
aNaa(lp224
S'John Hinton'
p225
aS'1884'
p226
aS'Forward'
p227
aS'Bombay'
p228
aS'1'
aS'1'
aS'0'
aNaa(lp229
S'Buckley Roderick'
p230
aS'1884'
p231
aS'Forward'
p232
aS'Llanelly'
p233
aS'1'
aS'1'
aS'0'
aNaa(lp234
S'Buller Stadden'
p235
aS'1884'
p236
aS'Halfback'
p237
aS'Somerset'
p238
aS'8'
aS'5'
aS'2'
aS'1'
aa(lp239
S'Arthur Gould'
p240
aS'1885'
p241
aS'Centre'
p242
aS'Newport'
p243
aS'27'
p244
aS'10'
p245
aS'4'
aS'12'
p246
aa(lp247
S'Martyn Jordan'
p248
aS'1885'
p249
aS'Three-quarters'
p250
aS'Clifton'
p251
aS'3'
aS'0'
aS'2'
aNaa(lp252
S'Evan Richards'
p253
aS'1885'
p254
aS'Forward'
p255
aS'Swansea'
p256
aS'2'
aS'0'
aS'0'
aNaa(lp257
S'Ernest Rowland'
p258
aS'1885'
p259
aS'Forward'
p260
aS'Neath'
p261
aS'1'
aS'0'
aS'0'
aNaa(lp262
S'Lewis Thomas'
p263
aS'1885'
p264
aS'Forward'
p265
aS'Merthyr Tydfil'
p266
aS'2'
aS'0'
aS'0'
aNaa(lp267
S'Edward Alexander'
p268
aS'1885'
p269
aS'Forward'
p270
aS'Monknash'
p271
aS'5'
aS'1'
aS'0'
aNaa(lp272
S'Frank Hill'
p273
aS'1885'
p274
aS'Forward'
p275
aS'Cardiff'
p276
aS'15'
p277
aS'6'
aS'0'
aS'0'
aa(lp278
S'D. Morgan'
p279
aS'1885'
p280
aS'Forward'
p281
aS'?'
aS'7'
aS'1'
aS'1'
aNaa(lp282
S'Willie Thomas'
p283
aS'1885'
p284
aS'Forward'
p285
aS'Fishguard'
p286
aS'11'
p287
aS'3'
aS'0'
aS'0'
aa(lp288
S'William Bowen'
p289
aS'1886'
p290
aS'Forward'
p291
aS'Pembroke'
p292
aS'13'
p293
aS'3'
aS'0'
aS'0'
aa(lp294
S'Billy Douglas'
p295
aS'1886'
p296
aS'Three-quarters'
p297
aS'Barry'
p298
aS'4'
aS'0'
aS'0'
aNaa(lp299
S'Dai Lewis'
p300
aS'1886'
p301
aS'Forward'
p302
aS'Radyr'
p303
aS'2'
aS'0'
aS'0'
aNaa(lp304
S'Evan Roberts'
p305
aS'1886'
p306
aS'Forward'
p307
aS'Llanelly'
p308
aS'2'
aS'1'
aS'0'
aNaa(lp309
S'George Young'
p310
aS'1886'
p311
aS'Forward'
p312
aS'Tynemouth'
p313
aS'2'
aS'0'
aS'0'
aNaa(lp314
S'Alfred Mathews'
p315
aS'1886'
p316
aS'Halfback'
p317
aS'Rhymney'
p318
aS'1'
aS'0'
aS'0'
aNaa(lp319
S'Alec Bland'
p320
aS'1887'
p321
aS'Forward'
p322
aS'Haverfordwest'
p323
aS'9'
aS'4'
aS'0'
aS'0'
aa(lp324
S'Jem Evans'
p325
aS'1887'
p326
aS'Halfback'
p327
aS'Cardiff'
p328
aS'4'
aS'1'
aS'0'
aNaa(lp329
S'Albert Hybart'
p330
aS'1887'
p331
aS'Forward'
p332
aS'Cardiff'
p333
aS'1'
aS'0'
aS'0'
aNaa(lp334
S'Thomas Lockwood'
p335
aS'1887'
p336
aS'Forward'
p337
aS'Great Boughton'
p338
aS'3'
aS'1'
aS'0'
aNaa(lp339
S'George Bowen'
p340
aS'1887'
p341
aS'Three-quarters'
p342
aS'Morriston'
p343
aS'4'
aS'2'
aS'0'
aNaa(lp344
S'Hugh Hughes'
p345
aS'1887'
p346
aS'Fullback'
p347
aS'Towyn'
p348
aS'2'
aS'0'
aS'0'
aNaa(lp349
S'William Williams'
p350
aS'1887'
p351
aS'Forward'
p352
aS'?'
aS'5'
aS'2'
aS'0'
aS'0'
aa(lp353
S'Johnny Lewis'
p354
aS'1887'
p355
aS'Halfback'
p356
aS'Llanelly'
p357
aS'1'
aS'1'
aS'0'
aNaa(lp358
S'William Towers'
p359
aS'1887'
p360
aS'Forward'
p361
aS'Hartlepool'
p362
aS'2'
aS'2'
aS'1'
aNaa(lp363
S'William Howell'
p364
aS'1888'
p365
aS'Forward'
p366
aS'Swansea'
p367
aS'2'
aS'1'
aS'0'
aNaa(lp368
S'Price Jenkins-Price'
p369
aS'1888'
p370
aS'Three-quarters'
p371
aS'Carmarthen'
p372
aS'2'
aS'1'
aS'1'
aNaa(lp373
S'Dick Kedzlie'
p374
aS'1888'
p375
aS'Forward'
p376
aS'Glasgow'
p377
aS'2'
aS'1'
aS'0'
aNaa(lp378
S'John Meredith'
p379
aS'1888'
p380
aS'Forward'
p381
aS'Morriston'
p382
aS'4'
aS'2'
aS'0'
aS'0'
aa(lp383
S'Dick Powell'
p384
aS'1888'
p385
aS'Forward'
p386
aS'Monmouth'
p387
aS'2'
aS'1'
aS'0'
aNaa(lp388
S'Ned Roberts'
p389
aS'1888'
p390
aS'Fullback'
p391
aS'Llanelly'
p392
aS'3'
aS'1'
aS'0'
aNaa(lp393
S'T. Williams'
p394
aS'1888'
p395
aS'Forward'
p396
aS'?'
aS'2'
aS'1'
aS'0'
aNaa(lp397
S'Charlie Arthur'
p398
aS'1888'
p399
aS'Centre'
p400
aS"King's Lynn"
p401
aS'3'
aS'1'
aS'0'
aS'0'
aa(lp402
S'Charlie Thomas'
p403
aS'1888'
p404
aS'Halfback'
p405
aS'Newport'
p406
aS'9'
aS'3'
aS'1'
aS'1'
aa(lp407
S'Norman Biggs'
p408
aS'1888'
p409
aS'Wing'
p410
aS'Cardiff'
p411
aS'8'
aS'4'
aS'2'
aS'4'
aa(lp412
S'Dickie Garrett'
p413
aS'1888'
p414
aS'Centre'
p415
aS'Cardiff'
p416
aS'8'
aS'3'
aS'0'
aS'0'
aa(lp417
S'Dan Griffiths'
p418
aS'1888'
p419
aS'Forward'
p420
aS'Cwmduad'
p421
aS'2'
aS'1'
aS'0'
aNaa(lp422
S'Jim Hannan'
p423
aS'1888'
p424
aS'Forward'
p425
aS'Newport'
p426
aS'19'
p427
aS'7'
aS'2'
aS'2'
aa(lp428
S'Charles Harding'
p429
aS'1888'
p430
aS'Forward'
p431
aS'Lancs'
p432
aS'3'
aS'1'
aS'0'
aNaa(lp433
S'Syd Nicholls'
p434
aS'1888'
p435
aS'Forward'
p436
aS'Hartpury'
p437
aS'4'
aS'1'
aS'0'
aS'0'
aa(lp438
S'George Thomas'
p439
aS'1888'
p440
aS'Wing'
p441
aS'?'
aS'3'
aS'1'
aS'1'
aS'0'
aa(lp442
S'Jim Webb'
p443
aS'1888'
p444
aS'Fullback'
p445
aS'Broughton Gifford'
p446
aS'2'
aS'1'
aS'0'
aNaa(lp447
S'Teddy Bishop'
p448
aS'1889'
p449
aS'Centre'
p450
aS'Swansea'
p451
aS'1'
aS'0'
aS'0'
aNaa(lp452
S'David Evans'
p453
aS'1889'
p454
aS'Forward'
p455
aS'Dowlais'
p456
aS'5'
aS'1'
aS'0'
aS'0'
aa(lp457
S'Rosser Evans'
p458
aS'1889'
p459
aS'Halfback'
p460
aS'Aberdare'
p461
aS'1'
aS'0'
aS'0'
aNaa(lp462
S'Rowley Thomas'
p463
aS'1889'
p464
aS'Forward'
p465
aS'Henllan Amgoed'
p466
aS'7'
aS'1'
aS'0'
aS'0'
aa(lp467
S'Abel Davies'
p468
aS'1889'
p469
aS'Wing'
p470
aS'Narberth'
p471
aS'1'
aS'0'
aS'0'
aNaa(lp472
S'Giotto Griffiths'
p473
aS'1889'
p474
aS'Halfback'
p475
aS'Llanelly'
p476
aS'1'
aS'0'
aS'0'
aNaa(lp477
S'Tom Morgan'
p478
aS'1889'
p479
aS'Centre'
p480
aS'Llannon'
p481
aS'1'
aS'0'
aS'0'
aNaa(lp482
S'Billy Bancroft'
p483
aS'1890'
p484
aS'Fullback'
p485
aS'Swansea'
p486
aS'33'
p487
aS'16'
p488
aS'0'
aS'60'
p489
aa(lp490
S'Evan James'
p491
aS'1890'
p492
aS'Halfback'
p493
aS'Llansamlet'
p494
aS'5'
aS'2'
aS'0'
aS'0'
aa(lp495
S'Percy Lloyd'
p496
aS'1890'
p497
aS'Wing'
p498
aS'Ammanford'
p499
aS'4'
aS'2'
aS'0'
aS'0'
aa(lp500
S'Walter Rice-Evans'
p501
aS'1890'
p502
aS'Forward'
p503
aS'Neath'
p504
aS'3'
aS'0'
aS'0'
aS'0'
aa(lp505
S'Stephen Thomas'
p506
aS'1890'
p507
aS'Forward'
p508
aS'Kidwelly'
p509
aS'3'
aS'2'
aS'0'
aS'0'
aa(lp510
S'Thomas Graham'
p511
aS'1890'
p512
aS'Forward'
p513
aS'Newcastle-upon-Tyne'
p514
aS'12'
p515
aS'5'
aS'1'
aS'3'
aa(lp516
S'Hugh Ingledew'
p517
aS'1890'
p518
aS'Halfback'
p519
aS'Cardiff'
p520
aS'3'
aS'0'
aS'0'
aS'0'
aa(lp521
S'Percy Bennett'
p522
aS'1891'
p523
aS'Forward'
p524
aS'Cornwall'
p525
aS'4'
aS'0'
aS'0'
aS'0'
aa(lp526
S'Harry Packer'
p527
aS'1891'
p528
aS'Forward'
p529
aS'Chipping Norton'
p530
aS'7'
aS'3'
aS'0'
aS'0'
aa(lp531
S'Tom Pearson'
p532
aS'1891'
p533
aS'Wing'
p534
aS'Bombay'
p535
aS'13'
p536
aS'6'
aS'4'
aS'10'
p537
aa(lp538
S'Edward Pegge'
p539
aS'1891'
p540
aS'Forward'
p541
aS'Briton Ferry'
p542
aS'1'
aS'0'
aS'0'
aS'0'
aa(lp543
S'David Daniel'
p544
aS'1891'
p545
aS'Forward'
p546
aS'Llanelly'
p547
aS'8'
aS'3'
aS'0'
aS'0'
aa(lp548
S'Billy McCutcheon'
p549
aS'1891'
p550
aS'Wing'
p551
aS'Swansea'
p552
aS'7'
aS'3'
aS'1'
aS'2'
aa(lp553
S'Ralph Sweet-Escott'
p554
aS'1891'
p555
aS'Halfback'
p556
aS'Staffs'
p557
aS'3'
aS'1'
aS'0'
aS'0'
aa(lp558
S'Tom Deacon'
p559
aS'1891'
p560
aS'Forward'
p561
aS'Swansea'
p562
aS'4'
aS'1'
aS'0'
aS'0'
aa(lp563
S'David James'
p564
aS'1891'
p565
aS'Halfback'
p566
aS'Swansea'
p567
aS'4'
aS'2'
aS'0'
aS'0'
aa(lp568
S'Boomer Nicholl'
p569
aS'1891'
p570
aS'Forward'
p571
aS'Llanegwad'
p572
aS'15'
p573
aS'7'
aS'0'
aS'0'
aa(lp574
S'David Samuel'
p575
aS'1891'
p576
aS'Forward'
p577
aS'Swansea'
p578
aS'2'
aS'2'
aS'1'
aS'1'
aa(lp579
S'John Samuel'
p580
aS'1891'
p581
aS'Forward'
p582
aS'Swansea'
p583
aS'1'
aS'1'
aS'0'
aS'0'
aa(lp584
S'Arthur Boucher'
p585
aS'1892'
p586
aS'Forward'
p587
aS'Salop'
p588
aS'13'
p589
aS'5'
aS'1'
aS'3'
aa(lp590
S'Frank Mills'
p591
aS'1892'
p592
aS'Forward'
p593
aS'Mountain Ash'
p594
aS'13'
p595
aS'5'
aS'0'
aS'0'
aa(lp596
S'Percy Phillips'
p597
aS'1892'
p598
aS'Fly-half'
p599
aS'Machen'
p600
aS'6'
aS'4'
aS'0'
aS'0'
aa(lp601
S'George Rowles'
p602
aS'1892'
p603
aS'Halfback'
p604
aS'Pontypool'
p605
aS'1'
aS'0'
aS'0'
aS'0'
aa(lp606
S'Wallace Watts'
p607
aS'1892'
p608
aS'Forward'
p609
aS'Chipping Sodbury'
p610
aS'12'
p611
aS'5'
aS'0'
aS'0'
aa(lp612
S'Conway Rees'
p613
aS'1892'
p614
aS'Centre'
p615
aS'Llandovery'
p616
aS'3'
aS'1'
aS'0'
aS'0'
aa(lp617
S'Harry Day'
p618
aS'1892'
p619
aS'Forward'
p620
aS'Newport'
p621
aS'5'
aS'3'
aS'0'
aS'0'
aa(lp622
S'Bert Gould'
p623
aS'1892'
p624
aS'Centre'
p625
aS'Newport'
p626
aS'3'
aS'2'
aS'2'
aS'4'
aa(lp627
S'Frederick Nicholls'
p628
aS'1892'
p629
aS'Wing'
p630
aS'Paddington'
p631
aS'1'
aS'0'
aS'0'
aS'0'
aa(lp632
S'Fred Parfitt'
p633
aS'1893'
p634
aS'Scrum-half'
p635
aS'Pontnewydd'
p636
aS'9'
aS'5'
aS'1'
aS'3'
aa(lp637
S'Dai Fitzgerald'
p638
aS'1894'
p639
aS'Centre'
p640
aS'Cardiff'
p641
aS'2'
aS'1'
aS'1'
aS'7'
aa(lp642
S'William Thomas'
p643
aS'1894'
p644
aS'Wing'
p645
aS'Brecknock'
p646
aS'3'
aS'2'
aS'0'
aS'0'
aa(lp647
S'Jack Elliot'
p648
aS'1894'
p649
aS'Scrum-half'
p650
aS'S Shields'
p651
aS'3'
aS'1'
aS'0'
aS'0'
aa(lp652
S'Fred Hutchinson'
p653
aS'1894'
p654
aS'Forward'
p655
aS'Maesteg'
p656
aS'3'
aS'1'
aS'0'
aS'0'
aa(lp657
S'David Nicholl'
p658
aS'1894'
p659
aS'Forward'
p660
aS'Llanegwad'
p661
aS'1'
aS'0'
aS'0'
aS'0'
aa(lp662
S'Owen Badger'
p663
aS'1895'
p664
aS'Centre'
p665
aS'Llanelly'
p666
aS'4'
aS'1'
aS'0'
aS'0'
aa(lp667
S'Selwyn Biggs'
p668
aS'1895'
p669
aS'Fly-half'
p670
aS'Cardiff'
p671
aS'9'
aS'4'
aS'0'
aS'0'
aa(lp672
S'Ben Davies'
p673
aS'1895'
p674
aS'Halfback'
p675
aS'Llanelly'
p676
aS'2'
aS'0'
aS'0'
aS'0'
aa(lp677
S'William Elsey'
p678
aS'1895'
p679
aS'Forward'
p680
aS'Lambeth'
p681
aS'1'
aS'0'
aS'1'
aS'3'
aa(lp682
S'Tom Jackson'
p683
aS'1895'
p684
aS'Forward'
p685
aS'Swansea'
p686
aS'1'
aS'0'
aS'0'
aS'0'
aa(lp687
S'Ernie George'
p688
aS'1895'
p689
aS'Forward'
p690
aS'Llantwit Major'
p691
aS'3'
aS'1'
aS'0'
aS'0'
aa(lp692
S'Evan Lloyd'
p693
aS'1895'
p694
aS'Wing'
p695
aS'Llanelly'
p696
aS'1'
aS'0'
aS'0'
aS'0'
aa(lp697
S'Tom Pook'
p698
aS'1895'
p699
aS'Forward'
p700
aS'Plymouth'
p701
aS'1'
aS'0'
aS'0'
aS'0'
aa(lp702
S'Albert Jenkin'
p703
aS'1895'
p704
aS'Forward'
p705
aS'Hants'
p706
aS'2'
aS'1'
aS'0'
aS'0'
aa(lp707
S'Dai Morgan'
p708
aS'1895'
p709
aS'Fly-half'
p710
aS'Llanelly'
p711
aS'2'
aS'1'
aS'0'
aS'0'
aa(lp712
S'Cliff Bowen'
p713
aS'1896'
p714
aS'Wing'
p715
aS'Morriston'
p716
aS'4'
aS'2'
aS'1'
aS'3'
aa(lp717
S'Bert Dauncey'
p718
aS'1896'
p719
aS'Wing'
p720
aS'Pontypool'
p721
aS'3'
aS'1'
aS'0'
aS'0'
aa(lp722
S'Sam Ramsay'
p723
aS'1896'
p724
aS'Forward'
p725
aS'Cumbernauld'
p726
aS'2'
aS'0'
aS'0'
aS'0'
aa(lp727
S'William Cope'
p728
aS'1896'
p729
aS'Forward'
p730
aS'Roath'
p731
aS'1'
aS'1'
aS'0'
aS'0'
aa(lp732
S'Barry Davies'
p733
aS'1896'
p734
aS'Forward'
p735
aS'date unknown'
p736
aS'1'
aS'1'
aS'0'
aS'0'
aa(lp737
S'David Evans'
p738
aS'1896'
p739
aS'Forward'
p740
aS'Maenclochog'
p741
aS'4'
aS'2'
aS'0'
aS'0'
aa(lp742
S'Jack Evans'
p743
aS'1896'
p744
aS'Forward'
p745
aS'Ammanford'
p746
aS'3'
aS'2'
aS'0'
aS'0'
aa(lp747
S'Bill Morris'
p748
aS'1896'
p749
aS'Forward'
p750
aS'Llanelly'
p751
aS'3'
aS'2'
aS'0'
aS'0'
aa(lp752
S'Gwyn Nicholls'
p753
aS'1896'
p754
aS'Centre'
p755
aS'Westbury-on-Severn'
p756
aS'28'
p757
aS'19'
p758
aS'5'
aS'19'
p759
aa(lp760
S'Llewellyn Lloyd'
p761
aS'1896'
p762
aS'Fly-half'
p763
aS'Newport'
p764
aS'12'
p765
aS'7'
aS'3'
aS'9'
aa(lp766
S'Fred Miller'
p767
aS'1896'
p768
aS'Forward'
p769
aS'Derby'
p770
aS'7'
aS'5'
aS'0'
aS'0'
aa(lp771
S'Fred Cornish'
p772
aS'1897'
p773
aS'Forward'
p774
aS'Somerse'
p775
aS'4'
aS'2'
aS'0'
aS'0'
aa(lp776
S'Dick Hellings'
p777
aS'1897'
p778
aS'Forward'
p779
aS'Tiverton'
p780
aS'9'
aS'5'
aS'1'
aS'3'
aa(lp781
S'Dan Jones'
p782
aS'1897'
p783
aS'Halfback'
p784
aS'Taibach'
p785
aS'1'
aS'1'
aS'1'
aS'3'
aa(lp786
S'Jack Rapps'
p787
aS'1897'
p788
aS'Forward'
p789
aS'Llantrisant'
p790
aS'1'
aS'1'
aS'0'
aS'0'
aa(lp791
S'Billy Alexander'
p792
aS'1898'
p793
aS'Forward'
p794
aS'Glynneath'
p795
aS'7'
aS'3'
aS'2'
aS'6'
aa(lp796
S'Joe Booth'
p797
aS'1898'
p798
aS'Forward'
p799
aS'Blaenavon'
p800
aS'1'
aS'1'
aS'0'
aS'0'
aa(lp801
S'George Boots'
p802
aS'1898'
p803
aS'Forward'
p804
aS'Aberbeeg'
p805
aS'16'
p806
aS'11'
p807
aS'1'
aS'3'
aa(lp808
S'Hopkin Davies'
p809
aS'1898'
p810
aS'Lock'
p811
aS'Clydach'
p812
aS'4'
aS'2'
aS'0'
aS'0'
aa(lp813
S'Tom Dobson'
p814
aS'1898'
p815
aS'Forward'
p816
aS'Caithness'
p817
aS'4'
aS'2'
aS'1'
aS'3'
aa(lp818
S'Viv Huzzey'
p819
aS'1898'
p820
aS'Wing'
p821
aS'Varteg Hill'
p822
aS'5'
aS'2'
aS'4'
aS'16'
p823
aa(lp824
S'Pussy Jones'
p825
aS'1898'
p826
aS'Centre'
p827
aS'?'
aS'2'
aS'1'
aS'0'
aS'0'
aa(lp828
S'Jere Blake'
p829
aS'1899'
p830
aS'Forward'
p831
aS'Cardiff'
p832
aS'9'
aS'6'
aS'0'
aS'0'
aa(lp833
S'Alfred Brice'
p834
aS'1899'
p835
aS'Forward'
p836
aS'Somerset'
p837
aS'18'
p838
aS'12'
p839
aS'2'
aS'8'
aa(lp840
S'Jehoida Hodges'
p841
aS'1899'
p842
aS'Forward'
p843
aS'Risca'
p844
aS'23'
p845
aS'17'
p846
aS'6'
aS'18'
p847
aa(lp848
S'Willie Llewellyn'
p849
aS'1899'
p850
aS'Wing'
p851
aS'Tonypandy'
p852
aS'24'
p853
aS'18'
p854
aS'20'
p855
aS'60'
p856
aa(lp857
S'Will Parker'
p858
aS'1899'
p859
aS'Forward'
p860
aS'Swansea'
p861
aS'2'
aS'1'
aS'0'
aS'0'
aa(lp862
S'Fred Scrine'
p863
aS'1899'
p864
aS'Forward'
p865
aS'Swansea'
p866
aS'3'
aS'2'
aS'0'
aS'0'
aa(lp867
S'Reg Skrimshire'
p868
aS'1899'
p869
aS'Centre'
p870
aS'Crickhowell'
p871
aS'6'
aS'1'
aS'1'
aS'3'
aa(lp872
S'George Davies'
p873
aS'1900'
p874
aS'Centre'
p875
aS'?'
aS'9'
aS'8'
aS'1'
aS'11'
p876
aa(lp877
S'Louis Phillips'
p878
aS'1900'
p879
aS'Scrum-half'
p880
aS'Newport'
p881
aS'4'
aS'3'
aS'0'
aS'0'
aa(lp882
S'Dan Rees'
p883
aS'1900'
p884
aS'Centre'
p885
aS'Swansea'
p886
aS'5'
aS'4'
aS'0'
aS'0'
aa(lp887
S'Robert Thomas'
p888
aS'1900'
p889
aS'Forward'
p890
aS'?'
aS'4'
aS'4'
aS'0'
aS'0'
aa(lp891
S'Billy Trew'
p892
aS'1900'
p893
aS'Centre'
p894
aS'Swansea'
p895
aS'29'
p896
aS'25'
p897
aS'11'
p898
aS'39'
p899
aa(lp900
S'Buller Williams'
p901
aS'1900'
p902
aS'Forward'
p903
aS'Pontlottyn'
p904
aS'4'
aS'4'
aS'2'
aS'6'
aa(lp905
S'George Dobson'
p906
aS'1900'
p907
aS'Forward'
p908
aS'Pontypridd'
p909
aS'1'
aS'1'
aS'0'
aS'0'
aa(lp910
S'Bala Jones'
p911
aS'1901'
p912
aS'Scrum-half'
p913
aS'Aberavon'
p914
aS'1'
aS'1'
aS'0'
aS'0'
aa(lp915
S'Rusty Gabe'
p916
aS'1901'
p917
aS'Centre'
p918
aS'Llangennech'
p919
aS'28'
p920
aS'21'
p921
aS'12'
p922
aS'36'
p923
aa(lp924
S'Bob Jones'
p925
aS'1901'
p926
aS'Forward'
p927
aS'Pontypridd'
p928
aS'1'
aS'1'
aS'0'
aS'0'
aa(lp929
S'Dick Jones'
p930
aS'1901'
p931
aS'Fly-half'
p932
aS'Swansea'
p933
aS'15'
p934
aS'12'
p935
aS'3'
aS'9'
aa(lp936
S'Dicky Owen'
p937
aS'1901'
p938
aS'Scrum-half'
p939
aS'Llandore'
p940
aS'35'
p941
aS'27'
p942
aS'2'
aS'6'
aa(lp943
S'Boxer Harding'
p944
aS'1902'
p945
aS'Forward'
p946
aS'Market Rasen'
p947
aS'27'
p948
aS'18'
p949
aS'1'
aS'8'
aa(lp950
S'Dai Jones'
p951
aS'1902'
p952
aS'Forward'
p953
aS'Aberaman'
p954
aS'13'
p955
aS'11'
p956
aS'0'
aS'0'
aa(lp957
S'Strand Jones'
p958
aS'1902'
p959
aS'Fullback'
p960
aS'Caio'
p961
aS'5'
aS'4'
aS'0'
aS'11'
p962
aa(lp963
S'Will Joseph'
p964
aS'1902'
p965
aS'Forward'
p966
aS'Morriston'
p967
aS'16'
p968
aS'12'
p969
aS'0'
aS'0'
aa(lp970
S'Teddy Morgan'
p971
aS'1902'
p972
aS'Wing'
p973
aS'Aberdare'
p974
aS'20'
p975
aS'15'
p976
aS'15'
p977
aS'45'
p978
aa(lp979
S'Will Osborne'
p980
aS'1902'
p981
aS'Forward'
p982
aS'Mountain Ash'
p983
aS'6'
aS'5'
aS'1'
aS'3'
aa(lp984
S'Danny Walters'
p985
aS'1902'
p986
aS'Forward'
p987
aS'Llanelly'
p988
aS'1'
aS'1'
aS'0'
aS'0'
aa(lp989
S'Harry Jones'
p990
aS'1902'
p991
aS'Forward'
p992
aS'?'
aS'2'
aS'2'
aS'0'
aS'0'
aa(lp993
S'Fred Jowett'
p994
aS'1903'
p995
aS'Wing'
p996
aS'Swansea'
p997
aS'1'
aS'1'
aS'0'
aS'0'
aa(lp998
S'Twyber Travers'
p999
aS'1903'
p1000
aS'Hooker'
p1001
aS'Newport'
p1002
aS'25'
p1003
aS'21'
p1004
aS'1'
aS'3'
aa(lp1005
S'Willie Arnold'
p1006
aS'1903'
p1007
aS'Wing'
p1008
aS'Morriston'
p1009
aS'1'
aS'0'
aS'0'
aS'0'
aa(lp1010
S'Bert Winfield'
p1011
aS'1903'
p1012
aS'Fullback'
p1013
aS'Nottingham'
p1014
aS'15'
p1015
aS'11'
p1016
aS'0'
aS'50'
p1017
aa(lp1018
S'Jack Evans'
p1019
aS'1904'
p1020
aS'Forward'
p1021
aS'Blaina'
p1022
aS'1'
aS'0'
aS'0'
aS'0'
aa(lp1023
S'David Thomas'
p1024
aS'1904'
p1025
aS'Forward'
p1026
aS'Dunvant'
p1027
aS'10'
p1028
aS'7'
aS'0'
aS'0'
aa(lp1029
S'David Davies'
p1030
aS'1904'
p1031
aS'Forward'
p1032
aS'Tonna'
p1033
aS'1'
aS'1'
aS'0'
aS'0'
aa(lp1034
S"Billy O'Neil"
p1035
aS'1904'
p1036
aS'Forward'
p1037
aS'Cardiff'
p1038
aS'11'
p1039
aS'10'
p1040
aS'0'
aS'0'
aa(lp1041
S'Cliff Pritchard'
p1042
aS'1904'
p1043
aS'Centre'
p1044
aS'Pontypool'
p1045
aS'5'
aS'4'
aS'2'
aS'6'
aa(lp1046
S'Beddoe Thomas-Maynard'
p1047
aS'1904'
p1048
aS'Forward'
p1049
aS'Upper Cwmbran'
p1050
aS'6'
aS'5'
aS'0'
aS'0'
aa(lp1051
S'Harry Watkins'
p1052
aS'1904'
p1053
aS'Forward'
p1054
aS'Trecastle'
p1055
aS'6'
aS'5'
aS'1'
aS'3'
aa(lp1056
S'Sid Bevan'
p1057
aS'1904'
p1058
aS'Forward'
p1059
aS'Morriston'
p1060
aS'5'
aS'3'
aS'0'
aS'0'
aa(lp1061
S'Howell Jones'
p1062
aS'1904'
p1063
aS'Forward'
p1064
aS'Pontneddfechan'
p1065
aS'1'
aS'0'
aS'0'
aS'0'
aa(lp1066
S'Charlie Pritchard'
p1067
aS'1904'
p1068
aS'Forward'
p1069
aS'Newport'
p1070
aS'14'
p1071
aS'9'
aS'1'
aS'3'
aa(lp1072
S'Windham Jones'
p1073
aS'1905'
p1074
aS'Halfback'
p1075
aS'Llanelly'
p1076
aS'1'
aS'1'
aS'1'
aS'3'
aa(lp1077
S'Jack Williams'
p1078
aS'1905'
p1079
aS'Forward'
p1080
aS'Scethrog'
p1081
aS'5'
aS'3'
aS'0'
aS'0'
aa(lp1082
S'Percy Bush'
p1083
aS'1904'
p1084
aS'Fly-half'
p1085
aS'Cardiff'
p1086
aS'12'
p1087
aS'10'
p1088
aS'4'
aS'40'
p1089
aa(lp1090
S'Hop Maddock'
p1091
aS'1906'
p1092
aS'Wing'
p1093
aS'Pontycymmer'
p1094
aS'6'
aS'4'
aS'6'
aS'18'
p1095
aa(lp1096
S'Reggie Gibbs'
p1097
aS'1906'
p1098
aS'Wing'
p1099
aS'Cardiff'
p1100
aS'18'
p1101
aS'13'
p1102
aS'18'
p1103
aS'60'
p1104
aa(lp1105
S'Tom Evans'
p1106
aS'1906'
p1107
aS'Flanker'
p1108
aS'Ammanford'
p1109
aS'18'
p1110
aS'15'
p1111
aS'1'
aS'3'
aa(lp1112
S'Jack Powell'
p1113
aS'1906'
p1114
aS'Forward'
p1115
aS'Merthyr Tydfil'
p1116
aS'1'
aS'0'
aS'0'
aS'0'
aa(lp1117
S'Dai Westacott'
p1118
aS'1906'
p1119
aS'Forward'
p1120
aS'Cardiff'
p1121
aS'1'
aS'0'
aS'0'
aS'0'
aa(lp1122
S'John Dyke'
p1123
aS'1906'
p1124
aS'Fullback'
p1125
aS'Narberth'
p1126
aS'1'
aS'0'
aS'0'
aS'0'
aa(lp1127
S'Jack Jenkins'
p1128
aS'1906'
p1129
aS'Forward'
p1130
aS'Newbridge'
p1131
aS'1'
aS'0'
aS'0'
aS'0'
aa(lp1132
S'Dick Thomas'
p1133
aS'1906'
p1134
aS'Forward'
p1135
aS'Rhondda'
p1136
aS'4'
aS'3'
aS'0'
aS'0'
aa(lp1137
S'Johnny Williams'
p1138
aS'1906'
p1139
aS'Wing'
p1140
aS'Whitchurch'
p1141
aS'19'
p1142
aS'15'
p1143
aS'17'
p1144
aS'51'
p1145
aa(lp1146
S'John Alf Brown'
p1147
aS'1907'
p1148
aS'Forward'
p1149
aS'Cardiff'
p1150
aS'7'
aS'6'
aS'1'
aS'3'
aa(lp1151
S'Bailey Davies'
p1152
aS'1907'
p1153
aS'Fullback'
p1154
aS'Llanwenog'
p1155
aS'1'
aS'1'
aS'0'
aS'0'
aa(lp1156
S'William Dowell'
p1157
aS'1907'
p1158
aS'Forward'
p1159
aS'Pontypool'
p1160
aS'7'
aS'6'
aS'0'
aS'0'
aa(lp1161
S'Jack Evans'
p1162
aS'1907'
p1163
aS'Centre'
p1164
aS'Llanybyther'
p1165
aS'3'
aS'2'
aS'0'
aS'0'
aa(lp1166
S'James Watts'
p1167
aS'1907'
p1168
aS'Forward'
p1169
aS'Carmarthen'
p1170
aS'11'
p1171
aS'10'
p1172
aS'2'
aS'6'
aa(lp1173
S'Jim Webb'
p1174
aS'1907'
p1175
aS'Lock'
p1176
aS'Glos'
p1177
aS'23'
p1178
aS'18'
p1179
aS'2'
aS'6'
aa(lp1180
S'Dickie David'
p1181
aS'1907'
p1182
aS'Scrum-half'
p1183
aS'Cardiff'
p1184
aS'1'
aS'1'
aS'0'
aS'0'
aa(lp1185
S'Ponty Jones'
p1186
aS'1907'
p1187
aS'Wing'
p1188
aS'Pontypool'
p1189
aS'1'
aS'1'
aS'1'
aS'3'
aa(lp1190
S'Tommy Vile'
p1191
aS'1904'
p1192
aS'Scrum-half'
p1193
aS'Newport'
p1194
aS'11'
p1195
aS'6'
aS'0'
aS'0'
aa(lp1196
S'George Hayward'
p1197
aS'1908'
p1198
aS'Forward'
p1199
aS'?'
aS'5'
aS'5'
aS'0'
aS'0'
aa(lp1200
S'Philip Hopkins'
p1201
aS'1908'
p1202
aS'Wing'
p1203
aS'Pontardawe'
p1204
aS'4'
aS'3'
aS'3'
aS'9'
aa(lp1205
S'Jack Jones'
p1206
aS'1908'
p1207
aS'Centre'
p1208
aS'Pontypool'
p1209
aS'20'
p1210
aS'12'
p1211
aS'7'
aS'25'
p1212
aa(lp1213
S'Ivor Morgan'
p1214
aS'1908'
p1215
aS'Flanker'
p1216
aS'Haverfordwest'
p1217
aS'13'
p1218
aS'12'
p1219
aS'6'
aS'18'
p1220
aa(lp1221
S'Phil Waller'
p1222
aS'1908'
p1223
aS'Forward'
p1224
aS'Bath'
p1225
aS'9'
aS'7'
aS'0'
aS'0'
aa(lp1226
S'Jack Bancroft'
p1227
aS'1909'
p1228
aS'Fullback'
p1229
aS'Swansea'
p1230
aS'18'
p1231
aS'14'
p1232
aS'0'
aS'88'
p1233
aa(lp1234
S'Jake Blackmore'
p1235
aS'1909'
p1236
aS'Forward'
p1237
aS'Bedwellty'
p1238
aS'1'
aS'1'
aS'0'
aS'0'
aa(lp1239
S'Mel Baker'
p1240
aS'1909'
p1241
aS'Wing'
p1242
aS'Newport'
p1243
aS'4'
aS'3'
aS'4'
aS'12'
p1244
aa(lp1245
S'Thomas Lloyd'
p1246
aS'1909'
p1247
aS'Forward'
p1248
aS'Neath'
p1249
aS'7'
aS'6'
aS'0'
aS'0'
aa(lp1250
S'Rees Thomas'
p1251
aS'1909'
p1252
aS'Forward'
p1253
aS'Caldicot'
p1254
aS'8'
aS'5'
aS'1'
aS'3'
aa(lp1255
S'Ben Gronow'
p1256
aS'1910'
p1257
aS'Forward'
p1258
aS'Bridgend'
p1259
aS'4'
aS'3'
aS'1'
aS'3'
aa(lp1260
S'Joe Pullman'
p1261
aS'1910'
p1262
aS'Forward'
p1263
aS'Cardiff'
p1264
aS'1'
aS'1'
aS'0'
aS'0'
aa(lp1265
S'Harry Jarman'
p1266
aS'1910'
p1267
aS'Forward'
p1268
aS'Talywain'
p1269
aS'7'
aS'4'
aS'0'
aS'0'
aa(lp1270
S'Joe Pugsley'
p1271
aS'1910'
p1272
aS'Hooker'
p1273
aS'Swansea'
p1274
aS'7'
aS'6'
aS'2'
aS'6'
aa(lp1275
S'Ernie Jenkins'
p1276
aS'1910'
p1277
aS'Flanker'
p1278
aS'Upper Cwmbran'
p1279
aS'2'
aS'2'
aS'0'
aS'0'
aa(lp1280
S'Willie Morgan'
p1281
aS'1908'
p1282
aS'Halfback'
p1283
aS'Sketty'
p1284
aS'3'
aS'1'
aS'0'
aS'0'
aa(lp1285
S'Billy Spiller'
p1286
aS'1910'
p1287
aS'Centre'
p1288
aS'Cardiff'
p1289
aS'10'
p1290
aS'7'
aS'4'
aS'16'
p1291
aa(lp1292
S'Louis Dyke'
p1293
aS'1910'
p1294
aS'Centre'
p1295
aS'Cardiff'
p1296
aS'4'
aS'4'
aS'1'
aS'7'
aa(lp1297
S'Fred Birt'
p1298
aS'1911'
p1299
aS'Centre'
p1300
aS'Newport'
p1301
aS'7'
aS'3'
aS'0'
aS'7'
aa(lp1302
S'Percy Coldrick'
p1303
aS'1911'
p1304
aS'Lock'
p1305
aS'Caerleon'
p1306
aS'6'
aS'5'
aS'0'
aS'0'
aa(lp1307
S'Bill Perry'
p1308
aS'1911'
p1309
aS'Lock'
p1310
aS'Neath'
p1311
aS'1'
aS'1'
aS'0'
aS'0'
aa(lp1312
S'Jim Birch'
p1313
aS'1911'
p1314
aS'Prop'
p1315
aS'Nthampton'
p1316
aS'2'
aS'2'
aS'0'
aS'0'
aa(lp1317
S'William Evans'
p1318
aS'1911'
p1319
aS'Forward'
p1320
aS'Nantyglo'
p1321
aS'1'
aS'1'
aS'0'
aS'0'
aa(lp1322
S'Ewan Davies'
p1323
aS'1912'
p1324
aS'Wing'
p1325
aS'Cardiff'
p1326
aS'2'
aS'1'
aS'2'
aS'6'
aa(lp1327
S'Howell Davies'
p1328
aS'1912'
p1329
aS'Hooker'
p1330
aS'Skewen'
p1331
aS'2'
aS'1'
aS'0'
aS'0'
aa(lp1332
S'Clem Lewis'
p1333
aS'1912'
p1334
aS'Fly-half'
p1335
aS'Bridgend'
p1336
aS'11'
p1337
aS'7'
aS'3'
aS'19'
p1338
aa(lp1339
S'Glyn Stephens'
p1340
aS'1912'
p1341
aS'Prop'
p1342
aS'Neath'
p1343
aS'10'
p1344
aS'5'
aS'0'
aS'0'
aa(lp1345
S'Len Trump'
p1346
aS'1912'
p1347
aS'Prop'
p1348
aS'Newport'
p1349
aS'4'
aS'2'
aS'0'
aS'0'
aa(lp1350
S'Harry Uzzell'
p1351
aS'1912'
p1352
aS'Hooker'
p1353
aS'Shirehampton'
p1354
aS'15'
p1355
aS'11'
p1356
aS'2'
aS'6'
aa(lp1357
S'William Davies'
p1358
aS'1912'
p1359
aS'Centre'
p1360
aS'Aberavon'
p1361
aS'2'
aS'1'
aS'1'
aS'3'
aa(lp1362
S'George Hirst'
p1363
aS'1912'
p1364
aS'Wing'
p1365
aS'Dowlais'
p1366
aS'6'
aS'5'
aS'3'
aS'17'
p1367
aa(lp1368
S'Reggie Plummer'
p1369
aS'1912'
p1370
aS'Wing'
p1371
aS'Newport'
p1372
aS'5'
aS'2'
aS'2'
aS'6'
aa(lp1373
S'Frank Hawkins'
p1374
aS'1912'
p1375
aS'Flanker'
p1376
aS'Wiveliscombe'
p1377
aS'2'
aS'1'
aS'0'
aS'0'
aa(lp1378
S'Harry Hiam'
p1379
aS'1912'
p1380
aS'Prop'
p1381
aS'Swansea'
p1382
aS'2'
aS'1'
aS'0'
aS'0'
aa(lp1383
S'Billy Jenkins'
p1384
aS'1912'
p1385
aS'Flanker'
p1386
aS'Cardiff'
p1387
aS'4'
aS'3'
aS'0'
aS'0'
aa(lp1388
S'Brin Lewis'
p1389
aS'1912'
p1390
aS'Wing'
p1391
aS'Pontardawe'
p1392
aS'2'
aS'1'
aS'2'
aS'6'
aa(lp1393
S'Walter Martin'
p1394
aS'1912'
p1395
aS'Fly-half'
p1396
aS'Essex'
p1397
aS'3'
aS'1'
aS'0'
aS'0'
aa(lp1398
S'Gus Merry'
p1399
aS'1912'
p1400
aS'Hooker'
p1401
aS'Newport'
p1402
aS'2'
aS'1'
aS'0'
aS'0'
aa(lp1403
S'Tom Williams'
p1404
aS'1912'
p1405
aS'Flanker'
p1406
aS'Dunvant'
p1407
aS'6'
aS'4'
aS'1'
aS'3'
aa(lp1408
S'Harold Thomas'
p1409
aS'1912'
p1410
aS'Fullback'
p1411
aS'Swansea'
p1412
aS'1'
aS'1'
aS'0'
aS'2'
aa(lp1413
S'Frank Andrews'
p1414
aS'1912'
p1415
aS'Back-row'
p1416
aS'?'
aS'4'
aS'2'
aS'0'
aS'0'
aa(lp1417
S'Billy Geen'
p1418
aS'1912'
p1419
aS'Wing'
p1420
aS'Newport'
p1421
aS'3'
aS'1'
aS'0'
aS'0'
aa(lp1422
S'Bert Hollingdale'
p1423
aS'1912'
p1424
aS'No. 8'
p1425
aS'Swansea'
p1426
aS'2'
aS'0'
aS'0'
aS'0'
aa(lp1427
S'Percy Jones'
p1428
aS'1912'
p1429
aS'Lock'
p1430
aS'Pontypridd'
p1431
aS'8'
aS'5'
aS'0'
aS'0'
aa(lp1432
S'Johnnie Morgan'
p1433
aS'1912'
p1434
aS'Flanker'
p1435
aS'Alejandra'
p1436
aS'2'
aS'0'
aS'0'
aS'0'
aa(lp1437
S'Fred Perrett'
p1438
aS'1912'
p1439
aS'Prop'
p1440
aS'Briton Ferry'
p1441
aS'5'
aS'3'
aS'0'
aS'0'
aa(lp1442
S'Horace Thomas'
p1443
aS'1912'
p1444
aS'Fly-half'
p1445
aS'Pentyrch'
p1446
aS'2'
aS'0'
aS'0'
aS'0'
aa(lp1447
S'Harry Wetter'
p1448
aS'1912'
p1449
aS'Prop'
p1450
aS'Battersea'
p1451
aS'2'
aS'0'
aS'0'
aS'0'
aa(lp1452
S'Bobbie Williams'
p1453
aS'1912'
p1454
aS'Fullback'
p1455
aS'Pontypridd'
p1456
aS'4'
aS'2'
aS'0'
aS'0'
aa(lp1457
S'Alban Davies'
p1458
aS'1913'
p1459
aS'Prop'
p1460
aS'Aberaeron'
p1461
aS'7'
aS'6'
aS'2'
aS'6'
aa(lp1462
S'Tuan Jones'
p1463
aS'1908'
p1464
aS'Halfback'
p1465
aS'Pontypool'
p1466
aS'3'
aS'1'
aS'1'
aS'3'
aa(lp1467
S'Howell Lewis'
p1468
aS'1913'
p1469
aS'Wing'
p1470
aS'Pontardawe'
p1471
aS'4'
aS'3'
aS'0'
aS'0'
aa(lp1472
S'Bobby Lloyd'
p1473
aS'1913'
p1474
aS'Scrum-half'
p1475
aS'Crickhowell'
p1476
aS'7'
aS'6'
aS'0'
aS'0'
aa(lp1477
S'Rees Richards'
p1478
aS'1913'
p1479
aS'Forward'
p1480
aS'Cwmavon'
p1481
aS'3'
aS'3'
aS'0'
aS'0'
aa(lp1482
S'Glyn Gething'
p1483
aS'1913'
p1484
aS'Fullback'
p1485
aS'Neath'
p1486
aS'1'
aS'1'
aS'0'
aS'0'
aa(lp1487
S'Mark Lewis'
p1488
aS'1913'
p1489
aS'Wing'
p1490
aS'Pontypridd'
p1491
aS'1'
aS'1'
aS'0'
aS'0'
aa(lp1492
S'William Evans'
p1493
aS'1914'
p1494
aS'Centre'
p1495
aS'Tonypandy'
p1496
aS'4'
aS'3'
aS'1'
aS'3'
aa(lp1497
S'Jack Jones'
p1498
aS'1914'
p1499
aS'Prop'
p1500
aS'?'
aS'4'
aS'3'
aS'1'
aS'3'
aa(lp1501
S'Edgar Morgan'
p1502
aS'1908'
p1503
aS'No. 8'
p1504
aS'Pontardawe'
p1505
aS'6'
aS'3'
aS'0'
aS'0'
aa(lp1506
S'David Watts'
p1507
aS'1914'
p1508
aS'Lock'
p1509
aS'Maesteg'
p1510
aS'4'
aS'3'
aS'0'
aS'0'
aa(lp1511
S'William Watts'
p1512
aS'1914'
p1513
aS'Centre'
p1514
aS'Llanelly'
p1515
aS'1'
aS'0'
aS'1'
aS'3'
aa(lp1516
S'Ivor Davies'
p1517
aS'1914'
p1518
aS'Wing'
p1519
aS'Carmarthen'
p1520
aS'3'
aS'3'
aS'2'
aS'6'
aa(lp1521
S'Jack Wetter'
p1522
aS'1914'
p1523
aS'Fly-half'
p1524
aS'Newport'
p1525
aS'10'
p1526
aS'6'
aS'4'
aS'14'
p1527
aa(lp1528
S'Ianto Davies'
p1529
aS'1919'
p1530
aS'Fullback'
p1531
aS'Maesteg'
p1532
aS'1'
aS'0'
aS'0'
aS'0'
aa(lp1533
S'Ike Fowler'
p1534
aS'1919'
p1535
aS'Scrum-half'
p1536
aS'Pantyffynnon'
p1537
aS'1'
aS'0'
aS'0'
aS'0'
aa(lp1538
S'Gwyn Francis'
p1539
aS'1919'
p1540
aS'Lock'
p1541
aS'Gorseinon'
p1542
aS'2'
aS'0'
aS'0'
aS'0'
aa(lp1543
S'Bill Havard'
p1544
aS'1919'
p1545
aS'Prop'
p1546
aS'Neuadd'
p1547
aS'1'
aS'0'
aS'0'
aS'0'
aa(lp1548
S'Jim Jones'
p1549
aS'1919'
p1550
aS'Flanker'
p1551
aS'?'
aS'6'
aS'3'
aS'0'
aS'0'
aa(lp1552
S'Bill Morris'
p1553
aS'1919'
p1554
aS'Prop'
p1555
aS'Abertillery'
p1556
aS'3'
aS'2'
aS'0'
aS'0'
aa(lp1557
S'Trevor Nicholas'
p1558
aS'1919'
p1559
aS'Wing'
p1560
aS'Sudbrook'
p1561
aS'1'
aS'0'
aS'0'
aS'0'
aa(lp1562
S'Tom Parker'
p1563
aS'1919'
p1564
aS'Flanker'
p1565
aS'Llansamlet'
p1566
aS'15'
p1567
aS'8'
aS'2'
aS'6'
aa(lp1568
S'Aaron Rees'
p1569
aS'1919'
p1570
aS'Flanker'
p1571
aS'Maesteg'
p1572
aS'1'
aS'0'
aS'0'
aS'0'
aa(lp1573
S'Evan Rees'
p1574
aS'1919'
p1575
aS'Centre'
p1576
aS'Bridgend'
p1577
aS'1'
aS'0'
aS'0'
aS'0'
aa(lp1578
S'Jerry Shea'
p1579
aS'1919'
p1580
aS'Centre'
p1581
aS'Newport'
p1582
aS'4'
aS'1'
aS'1'
aS'19'
p1583
aa(lp1584
S'Melbourne Thomas'
p1585
aS'1919'
p1586
aS'Wing'
p1587
aS'Nantymoel'
p1588
aS'6'
aS'3'
aS'2'
aS'6'
aa(lp1589
S'Jack Whitfield'
p1590
aS'1919'
p1591
aS'Lock'
p1592
aS'Newport'
p1593
aS'12'
p1594
aS'6'
aS'5'
aS'15'
p1595
aa(lp1596
S'Ben Beynon'
p1597
aS'1920'
p1598
aS'Fly-half'
p1599
aS'Swansea'
p1600
aS'2'
aS'1'
aS'0'
aS'0'
aa(lp1601
S'Brinley Evans'
p1602
aS'1920'
p1603
aS'Centre'
p1604
aS'Felinfoel'
p1605
aS'5'
aS'4'
aS'0'
aS'0'
aa(lp1606
S'Albert Jenkins'
p1607
aS'1920'
p1608
aS'Centre'
p1609
aS'Llanelly'
p1610
aS'14'
p1611
aS'7'
aS'4'
aS'47'
p1612
aa(lp1613
S'Charles Jones'
p1614
aS'1920'
p1615
aS'Flanker'
p1616
aS'Cardiff'
p1617
aS'3'
aS'2'
aS'0'
aS'0'
aa(lp1618
S'Steve Morris'
p1619
aS'1920'
p1620
aS'Flanker'
p1621
aS'Newport'
p1622
aS'19'
p1623
aS'9'
aS'0'
aS'0'
aa(lp1624
S'George Oliver'
p1625
aS'1920'
p1626
aS'Flanker'
p1627
aS'Pontypool'
p1628
aS'4'
aS'3'
aS'0'
aS'0'
aa(lp1629
S'Wick Powell'
p1630
aS'1920'
p1631
aS'Wing'
p1632
aS'Cardiff'
p1633
aS'4'
aS'3'
aS'2'
aS'6'
aa(lp1634
S'Joe Rees'
p1635
aS'1920'
p1636
aS'Fullback'
p1637
aS'?'
aS'12'
p1638
aS'6'
aS'0'
aS'7'
aa(lp1639
S'Jack Williams'
p1640
aS'1920'
p1641
aS'Prop'
p1642
aS'Blaina'
p1643
aS'7'
aS'5'
aS'1'
aS'3'
aa(lp1644
S'Brinley Williams'
p1645
aS'1920'
p1646
aS'Wing'
p1647
aS'Llanelly'
p1648
aS'3'
aS'2'
aS'4'
aS'12'
p1649
aa(lp1650
S'Dick Huxtable'
p1651
aS'1920'
p1652
aS'Flanker'
p1653
aS'Swansea'
p1654
aS'2'
aS'2'
aS'0'
aS'0'
aa(lp1655
S'Fred Reeves'
p1656
aS'1920'
p1657
aS'Scrum-half'
p1658
aS'Cross Keys'
p1659
aS'3'
aS'2'
aS'0'
aS'0'
aa(lp1660
S'Edgar Morgan'
p1661
aS'1920'
p1662
aS'Flanker'
p1663
aS'Llanelly'
p1664
aS'4'
aS'2'
aS'0'
aS'0'
aa(lp1665
S'Len Attewell'
p1666
aS'1921'
p1667
aS'Prop'
p1668
aS'Newport'
p1669
aS'3'
aS'1'
aS'0'
aS'0'
aa(lp1670
S'Dai Edwards'
p1671
aS'1921'
p1672
aS'Lock'
p1673
aS'Glynneath'
p1674
aS'1'
aS'0'
aS'0'
aS'0'
aa(lp1675
S'Wilf Hodder'
p1676
aS'1921'
p1677
aS'Flanker'
p1678
aS'Abersychan'
p1679
aS'3'
aS'1'
aS'1'
aS'3'
aa(lp1680
S'Codger Johnson'
p1681
aS'1921'
p1682
aS'Wing'
p1683
aS'Cardiff'
p1684
aS'12'
p1685
aS'4'
aS'1'
aS'6'
aa(lp1686
S'Douglas Marsden-Jones'
p1687
aS'1921'
p1688
aS'Forward'
p1689
aS'Swansea'
p1690
aS'4'
aS'0'
aS'0'
aS'0'
aa(lp1691
S'Johnny Ring'
p1692
aS'1921'
p1693
aS'Wing'
p1694
aS'Port Talbot'
p1695
aS'1'
aS'0'
aS'1'
aS'3'
aa(lp1696
S'Docker Winmill'
p1697
aS'1921'
p1698
aS'Prop'
p1699
aS'Bedwellty'
p1700
aS'4'
aS'2'
aS'0'
aS'0'
aa(lp1701
S'Paul Baker-Jones'
p1702
aS'1921'
p1703
aS'Centre'
p1704
aS'Newport'
p1705
aS'1'
aS'0'
aS'0'
aS'0'
aa(lp1706
S'William Bowen'
p1707
aS'1921'
p1708
aS'Fly-half'
p1709
aS'Swansea'
p1710
aS'6'
aS'4'
aS'2'
aS'6'
aa(lp1711
S'Frankie Evans'
p1712
aS'1921'
p1713
aS'Wing'
p1714
aS'Dafen'
p1715
aS'1'
aS'0'
aS'0'
aS'0'
aa(lp1716
S'Tom Roberts'
p1717
aS'1921'
p1718
aS'Lock'
p1719
aS'Risca'
p1720
aS'9'
aS'5'
aS'0'
aS'0'
aa(lp1721
S'Harry Davies'
p1722
aS'1921'
p1723
aS'Centre'
p1724
aS'Llanelly'
p1725
aS'3'
aS'3'
aS'0'
aS'0'
aa(lp1726
S'Ossie Male'
p1727
aS'1921'
p1728
aS'Fullback'
p1729
aS'Newport'
p1730
aS'11'
p1731
aS'3'
aS'0'
aS'15'
p1732
aa(lp1733
S'Tudor Williams'
p1734
aS'1921'
p1735
aS'Scrum-half'
p1736
aS'?'
aS'1'
aS'1'
aS'0'
aS'0'
aa(lp1737
S'Ambrose Baker'
p1738
aS'1921'
p1739
aS'Flanker'
p1740
aS'Swansea'
p1741
aS'5'
aS'2'
aS'1'
aS'3'
aa(lp1742
S'Archie Brown'
p1743
aS'1921'
p1744
aS'Scrum-half'
p1745
aS'date unknown'
p1746
aS'1'
aS'1'
aS'0'
aS'0'
aa(lp1747
S'Daph Davies'
p1748
aS'1921'
p1749
aS'Centre'
p1750
aS'Bridgend'
p1751
aS'2'
aS'1'
aS'0'
aS'0'
aa(lp1752
S'Jack Prosser'
p1753
aS'1921'
p1754
aS'Prop'
p1755
aS'Newport'
p1756
aS'1'
aS'1'
aS'0'
aS'0'
aa(lp1757
S'Will Cummings'
p1758
aS'1922'
p1759
aS'No. 8'
p1760
aS'Cardiff'
p1761
aS'4'
aS'3'
aS'1'
aS'3'
aa(lp1762
S'Bobby Delahay'
p1763
aS'1922'
p1764
aS'Scrum-half'
p1765
aS'Bridgend'
p1766
aS'18'
p1767
aS'7'
aS'2'
aS'6'
aa(lp1768
S'Islwyn Evans'
p1769
aS'1922'
p1770
aS'Centre'
p1771
aS'Llanelly'
p1772
aS'4'
aS'3'
aS'3'
aS'13'
p1773
aa(lp1774
S'Dai Hiddlestone'
p1775
aS'1922'
p1776
aS'Flanker'
p1777
aS'Hendy'
p1778
aS'5'
aS'3'
aS'1'
aS'3'
aa(lp1779
S'Tom Jones'
p1780
aS'1922'
p1781
aS'Prop'
p1782
aS'Pontnewydd'
p1783
aS'6'
aS'3'
aS'1'
aS'3'
aa(lp1784
S'Frank Palmer'
p1785
aS'1922'
p1786
aS'Wing'
p1787
aS'Swansea'
p1788
aS'3'
aS'2'
aS'1'
aS'3'
aa(lp1789
S'Cliff Richards'
p1790
aS'1922'
p1791
aS'Wing'
p1792
aS'Hafodyrynys'
p1793
aS'5'
aS'3'
aS'2'
aS'6'
aa(lp1794
S'John Stephens'
p1795
aS'1922'
p1796
aS'Flanker'
p1797
aS'Llanbadarn Fawr'
p1798
aS'4'
aS'3'
aS'0'
aS'0'
aa(lp1799
S'Fred Samuel'
p1800
aS'1922'
p1801
aS'Fullback'
p1802
aS'Llanelly'
p1803
aS'3'
aS'2'
aS'0'
aS'4'
aa(lp1804
S'Arthur Cornish'
p1805
aS'1923'
p1806
aS'Centre'
p1807
aS'Cardiff'
p1808
aS'10'
p1809
aS'3'
aS'1'
aS'7'
aa(lp1810
S'Dai Davies'
p1811
aS'1923'
p1812
aS'Prop'
p1813
aS'Treorchy'
p1814
aS'2'
aS'0'
aS'0'
aS'0'
aa(lp1815
S'Rowe Harding'
p1816
aS'1923'
p1817
aS'Wing'
p1818
aS'Swansea'
p1819
aS'20'
p1820
aS'6'
aS'5'
aS'15'
p1821
aa(lp1822
S'Gwilym Michael'
p1823
aS'1923'
p1824
aS'Flanker'
p1825
aS'Pontardawe'
p1826
aS'3'
aS'1'
aS'1'
aS'3'
aa(lp1827
S'Gethin Thomas'
p1828
aS'1923'
p1829
aS'Lock'
p1830
aS'Llwynhendy'
p1831
aS'4'
aS'1'
aS'0'
aS'0'
aa(lp1832
S'Joe Thompson'
p1833
aS'1923'
p1834
aS'No. 8'
p1835
aS'Bristol'
p1836
aS'1'
aS'0'
aS'0'
aS'0'
aa(lp1837
S'Lew Jenkins'
p1838
aS'1923'
p1839
aS'Lock'
p1840
aS'Senghenydo'
p1841
aS'2'
aS'1'
aS'0'
aS'0'
aa(lp1842
S'Dai John'
p1843
aS'1923'
p1844
aS'Fly-half'
p1845
aS'Loughor'
p1846
aS'5'
aS'2'
aS'3'
aS'9'
aa(lp1847
S'Dan Pascoe'
p1848
aS'1923'
p1849
aS'Flanker'
p1850
aS'Llanharan'
p1851
aS'2'
aS'1'
aS'0'
aS'0'
aa(lp1852
S'Mapson Williams'
p1853
aS'1923'
p1854
aS'No. 8'
p1855
aS'Mackay'
p1856
aS'1'
aS'1'
aS'0'
aS'0'
aa(lp1857
S'Tom Collins'
p1858
aS'1923'
p1859
aS'Centre'
p1860
aS'Merthyr Tydfil'
p1861
aS'1'
aS'0'
aS'0'
aS'0'
aa(lp1862
S'Stan Davies'
p1863
aS'1923'
p1864
aS'Prop'
p1865
aS'Ystrad'
p1866
aS'1'
aS'0'
aS'0'
aS'0'
aa(lp1867
S'John Davies'
p1868
aS'1923'
p1869
aS'Flanker'
p1870
aS'?'
aS'1'
aS'0'
aS'0'
aS'0'
aa(lp1871
S'Jack Powell'
p1872
aS'1923'
p1873
aS'Wing'
p1874
aS'Cardiff'
p1875
aS'1'
aS'0'
aS'0'
aS'4'
aa(lp1876
S'William Radford'
p1877
aS'1923'
p1878
aS'Flanker'
p1879
aS'Cardiff'
p1880
aS'1'
aS'0'
aS'0'
aS'0'
aa(lp1881
S'Tom Richards'
p1882
aS'1923'
p1883
aS'No. 8'
p1884
aS'Maesteg'
p1885
aS'1'
aS'0'
aS'0'
aS'0'
aa(lp1886
S'Hunt Davies'
p1887
aS'1924'
p1888
aS'Centre'
p1889
aS'Port Talbot'
p1890
aS'1'
aS'0'
aS'0'
aS'0'
aa(lp1891
S'Candy Evans'
p1892
aS'1924'
p1893
aS'Lock'
p1894
aS'Abersychan'
p1895
aS'3'
aS'1'
aS'0'
aS'0'
aa(lp1896
S'Ivor Jones'
p1897
aS'1924'
p1898
aS'Flanker'
p1899
aS'Loughor'
p1900
aS'21'
p1901
aS'5'
aS'1'
aS'15'
p1902
aa(lp1903
S'Glyn Morris'
p1904
aS'1924'
p1905
aS'Prop'
p1906
aS'Burry Port'
p1907
aS'2'
aS'0'
aS'0'
aS'0'
aa(lp1908
S'William Ould'
p1909
aS'1924'
p1910
aS'Lock'
p1911
aS'Glyncorrwg'
p1912
aS'2'
aS'0'
aS'0'
aS'0'
aa(lp1913
S'Albert Owen'
p1914
aS'1924'
p1915
aS'Fly-half'
p1916
aS'Gurnos Cross'
p1917
aS'1'
aS'0'
aS'1'
aS'3'
aa(lp1918
S'Charlie Pugh'
p1919
aS'1924'
p1920
aS'Lock'
p1921
aS'Pontypridd'
p1922
aS'7'
aS'1'
aS'1'
aS'3'
aa(lp1923
S'Ivor Thomas'
p1924
aS'1924'
p1925
aS'Hooker'
p1926
aS'Bridgend'
p1927
aS'1'
aS'0'
aS'0'
aS'0'
aa(lp1928
S'Edward Watkins'
p1929
aS'1924'
p1930
aS'Scrum-half'
p1931
aS'Neath'
p1932
aS'4'
aS'1'
aS'0'
aS'4'
aa(lp1933
S'Harold Davies'
p1934
aS'1924'
p1935
aS'Centre'
p1936
aS'Newport'
p1937
aS'2'
aS'0'
aS'0'
aS'0'
aa(lp1938
S'Jack Elwyn Evans'
p1939
aS'1924'
p1940
aS'Centre'
p1941
aS'Brynamman'
p1942
aS'1'
aS'0'
aS'0'
aS'0'
aa(lp1943
S'Vince Griffiths'
p1944
aS'1924'
p1945
aS'Fly-half'
p1946
aS'Pontypridd'
p1947
aS'5'
aS'1'
aS'1'
aS'7'
aa(lp1948
S'Mel Rosser'
p1949
aS'1924'
p1950
aS'Fullback'
p1951
aS'Machen'
p1952
aS'2'
aS'1'
aS'0'
aS'0'
aa(lp1953
S'Tommy Evans'
p1954
aS'1924'
p1955
aS'Centre'
p1956
aS'Neyland'
p1957
aS'1'
aS'0'
aS'0'
aS'0'
aa(lp1958
S'Jack Gore'
p1959
aS'1924'
p1960
aS'Prop'
p1961
aS'Blaina'
p1962
aS'4'
aS'1'
aS'0'
aS'0'
aa(lp1963
S'George Hathway'
p1964
aS'1924'
p1965
aS'Hooker'
p1966
aS'Newport'
p1967
aS'2'
aS'1'
aS'0'
aS'0'
aa(lp1968
S'William Jones'
p1969
aS'1924'
p1970
aS'Flanker'
p1971
aS'Cefneithin'
p1972
aS'1'
aS'0'
aS'0'
aS'0'
aa(lp1973
S'Dai Parker'
p1974
aS'1924'
p1975
aS'Prop'
p1976
aS'Llansamlet'
p1977
aS'15'
p1978
aS'4'
aS'0'
aS'14'
p1979
aa(lp1980
S'Bob Randall'
p1981
aS'1924'
p1982
aS'Lock'
p1983
aS'Neath'
p1984
aS'2'
aS'1'
aS'0'
aS'0'
aa(lp1985
S'Ernie Finch'
p1986
aS'1924'
p1987
aS'Wing'
p1988
aS'Pembroke Dock'
p1989
aS'7'
aS'3'
aS'4'
aS'12'
p1990
aa(lp1991
S'Joe Jones'
p1992
aS'1924'
p1993
aS'Centre'
p1994
aS'Pontardawe'
p1995
aS'1'
aS'1'
aS'0'
aS'0'
aa(lp1996
S'Arnold Rickards'
p1997
aS'1924'
p1998
aS'Lock'
p1999
aS'Glos'
p2000
aS'1'
aS'1'
aS'1'
aS'3'
aa(lp2001
S'Albert Stock'
p2002
aS'1924'
p2003
aS'Centre'
p2004
aS'Newport'
p2005
aS'4'
aS'1'
aS'0'
aS'0'
aa(lp2006
S'Cliff Williams'
p2007
aS'1924'
p2008
aS'Hooker'
p2009
aS'Llangennech'
p2010
aS'2'
aS'0'
aS'0'
aS'0'
aa(lp2011
S'Eddie Williams'
p2012
aS'1924'
p2013
aS'Fly-half'
p2014
aS'Cwmllynfell'
p2015
aS'2'
aS'1'
aS'0'
aS'0'
aa(lp2016
S'Willie Hopkins'
p2017
aS'1925'
p2018
aS'Fly-half'
p2019
aS'?'
aS'2'
aS'0'
aS'1'
aS'3'
aa(lp2020
S'Will James'
p2021
aS'1925'
p2022
aS'Wing'
p2023
aS'Aberavon'
p2024
aS'2'
aS'0'
aS'1'
aS'3'
aa(lp2025
S'Idris Jones'
p2026
aS'1925'
p2027
aS'Flanker'
p2028
aS'Llanelly'
p2029
aS'4'
aS'1'
aS'1'
aS'3'
aa(lp2030
S'Bryn Phillips'
p2031
aS'1925'
p2032
aS'Lock'
p2033
aS'Merthyr Tydfil'
p2034
aS'5'
aS'1'
aS'0'
aS'0'
aa(lp2035
S'Idris Richards'
p2036
aS'1925'
p2037
aS'No. 8'
p2038
aS'Pontypridd'
p2039
aS'3'
aS'1'
aS'0'
aS'0'
aa(lp2040
S'Cyril Thomas'
p2041
aS'1925'
p2042
aS'Wing'
p2043
aS'Bridgend'
p2044
aS'2'
aS'0'
aS'1'
aS'3'
aa(lp2045
S'Evan Williams'
p2046
aS'1925'
p2047
aS'Centre'
p2048
aS'Port Talbot'
p2049
aS'2'
aS'0'
aS'0'
aS'0'
aa(lp2050
S'Ron Herrera'
p2051
aS'1925'
p2052
aS'Lock'
p2053
aS'Wattsville'
p2054
aS'8'
aS'3'
aS'2'
aS'6'
aa(lp2055
S'Steve Lawrence'
p2056
aS'1925'
p2057
aS'Prop'
p2058
aS'Treorchy'
p2059
aS'6'
aS'2'
aS'0'
aS'0'
aa(lp2060
S'Eddie Beynon'
p2061
aS'1925'
p2062
aS'Flanker'
p2063
aS'Gower'
p2064
aS'2'
aS'1'
aS'0'
aS'0'
aa(lp2065
S'Will Lewis'
p2066
aS'1925'
p2067
aS'Flanker'
p2068
aS'Morriston'
p2069
aS'1'
aS'1'
aS'0'
aS'0'
aa(lp2070
S'Jim Brown'
p2071
aS'1925'
p2072
aS'Lock'
p2073
aS'Cardiff'
p2074
aS'1'
aS'0'
aS'0'
aS'0'
aa(lp2075
S'Sydney Hinam'
p2076
aS'1925'
p2077
aS'Flanker'
p2078
aS'Pontypool'
p2079
aS'5'
aS'2'
aS'0'
aS'0'
aa(lp2080
S'Arthur John'
p2081
aS'1925'
p2082
aS'Scrum-half'
p2083
aS'Llansamlet'
p2084
aS'4'
aS'1'
aS'0'
aS'0'
aa(lp2085
S'Nathan Rocyn-Jones'
p2086
aS'1925'
p2087
aS'Fullback'
p2088
aS'Abertillery'
p2089
aS'1'
aS'0'
aS'0'
aS'0'
aa(lp2090
S'Bernard Turnbull'
p2091
aS'1925'
p2092
aS'Centre'
p2093
aS'Cardiff'
p2094
aS'6'
aS'0'
aS'1'
aS'3'
aa(lp2095
S'George Andrews'
p2096
aS'1926'
p2097
aS'Wing'
p2098
aS'Newport'
p2099
aS'5'
aS'1'
aS'3'
aS'9'
aa(lp2100
S'David Evans'
p2101
aS'1926'
p2102
aS'Fullback'
p2103
aS'Llandybie'
p2104
aS'1'
aS'0'
aS'0'
aS'0'
aa(lp2105
S'Thomas Hopkins'
p2106
aS'1926'
p2107
aS'Prop'
p2108
aS'Pontardawe'
p2109
aS'4'
aS'2'
aS'1'
aS'3'
aa(lp2110
S'Dai Jenkins'
p2111
aS'1926'
p2112
aS'Lock'
p2113
aS'Pyle'
p2114
aS'4'
aS'2'
aS'0'
aS'0'
aa(lp2115
S'Howell John'
p2116
aS'1926'
p2117
aS'Hooker'
p2118
aS'Swansea'
p2119
aS'8'
aS'3'
aS'0'
aS'0'
aa(lp2120
S'Dai Jones'
p2121
aS'1926'
p2122
aS'Prop'
p2123
aS'?'
aS'5'
aS'2'
aS'0'
aS'0'
aa(lp2124
S'Bobby Jones'
p2125
aS'1926'
p2126
aS'Fly-half'
p2127
aS'Shanghai'
p2128
aS'3'
aS'1'
aS'0'
aS'0'
aa(lp2129
S'Tom Lewis'
p2130
aS'1926'
p2131
aS'Prop'
p2132
aS"Taff's Well"
p2133
aS'3'
aS'0'
aS'0'
aS'0'
aa(lp2134
S'Bill Everson'
p2135
aS'1926'
p2136
aS'Fullback'
p2137
aS'Rudry'
p2138
aS'1'
aS'0'
aS'0'
aS'2'
aa(lp2139
S'Wick Powell'
p2140
aS'1926'
p2141
aS'Scrum-half'
p2142
aS'Aberbeeg'
p2143
aS'27'
p2144
aS'14'
p2145
aS'1'
aS'16'
p2146
aa(lp2147
S'Emlyn Watkins'
p2148
aS'1926'
p2149
aS'Flanker'
p2150
aS'Blaina'
p2151
aS'3'
aS'2'
aS'1'
aS'3'
aa(lp2152
S'Windsor Lewis'
p2153
aS'1926'
p2154
aS'Fly-half'
p2155
aS'Maesteg'
p2156
aS'6'
aS'2'
aS'1'
aS'7'
aa(lp2157
S'Tommy Rees'
p2158
aS'1926'
p2159
aS'Fullback'
p2160
aS'Pontyclun'
p2161
aS'4'
aS'2'
aS'0'
aS'4'
aa(lp2162
S'Charles Rowlands'
p2163
aS'1926'
p2164
aS'Wing'
p2165
aS'Merthyr Tydfil'
p2166
aS'1'
aS'1'
aS'0'
aS'0'
aa(lp2167
S'Harry Phillips'
p2168
aS'1927'
p2169
aS'Lock'
p2170
aS'Cross Keys'
p2171
aS'9'
aS'2'
aS'0'
aS'0'
aa(lp2172
S'John Roberts'
p2173
aS'1927'
p2174
aS'Centre'
p2175
aS'Toxteth'
p2176
aS'13'
p2177
aS'4'
aS'5'
aS'15'
p2178
aa(lp2179
S'Watcyn Thomas'
p2180
aS'1927'
p2181
aS'No. 8'
p2182
aS'Llanelly'
p2183
aS'14'
p2184
aS'5'
aS'2'
aS'6'
aa(lp2185
S'Billy Williams'
p2186
aS'1927'
p2187
aS'Flanker'
p2188
aS'Crumlin'
p2189
aS'4'
aS'1'
aS'0'
aS'0'
aa(lp2190
S'Tom Arthur'
p2191
aS'1927'
p2192
aS'Lock'
p2193
aS'Pontypridd'
p2194
aS'18'
p2195
aS'9'
aS'4'
aS'12'
p2196
aa(lp2197
S'John Bartlett'
p2198
aS'1927'
p2199
aS'Wing'
p2200
aS'Carmarthen'
p2201
aS'3'
aS'1'
aS'1'
aS'3'
aa(lp2202
S'Ned Jenkins'
p2203
aS'1927'
p2204
aS'Lock'
p2205
aS'Tonyrefail'
p2206
aS'21'
p2207
aS'10'
p2208
aS'0'
aS'0'
aa(lp2209
S'Gwyn Richards'
p2210
aS'1927'
p2211
aS'Fly-half'
p2212
aS'Bryncethin'
p2213
aS'1'
aS'0'
aS'0'
aS'0'
aa(lp2214
S'Jim Burns'
p2215
aS'1927'
p2216
aS'Prop'
p2217
aS'Cardiff'
p2218
aS'2'
aS'1'
aS'0'
aS'0'
aa(lp2219
S'Guy Stewart-Morgan'
p2220
aS'1927'
p2221
aS'Centre'
p2222
aS'Garnant'
p2223
aS'8'
aS'5'
aS'3'
aS'13'
p2224
aa(lp2225
S'Lonza Bowdler'
p2226
aS'1927'
p2227
aS'Hooker'
p2228
aS'Abercarn'
p2229
aS'15'
p2230
aS'5'
aS'0'
aS'0'
aa(lp2231
S'Gus Broughton'
p2232
aS'1927'
p2233
aS'No. 8'
p2234
aS'Llandough'
p2235
aS'2'
aS'1'
aS'0'
aS'0'
aa(lp2236
S'Tal Harris'
p2237
aS'1927'
p2238
aS'Scrum-half'
p2239
aS'Cardiff'
p2240
aS'1'
aS'0'
aS'0'
aS'0'
aa(lp2241
S'Tom Hollingdale'
p2242
aS'1927'
p2243
aS'No. 8'
p2244
aS'Waunarlwydd'
p2245
aS'6'
aS'1'
aS'0'
aS'0'
aa(lp2246
S'David Jenkins'
p2247
aS'1927'
p2248
aS'Prop'
p2249
aS'Resolven'
p2250
aS'2'
aS'0'
aS'0'
aS'0'
aa(lp2251
S'Dan Jones'
p2252
aS'1927'
p2253
aS'Wing'
p2254
aS'Neath Abbey'
p2255
aS'1'
aS'0'
aS'0'
aS'0'
aa(lp2256
S'Iorwerth Jones'
p2257
aS'1927'
p2258
aS'No. 8'
p2259
aS'Loughor'
p2260
aS'5'
aS'1'
aS'0'
aS'0'
aa(lp2261
S'Roy Jones'
p2262
aS'1927'
p2263
aS'Centre'
p2264
aS'Swansea'
p2265
aS'2'
aS'0'
aS'0'
aS'0'
aa(lp2266
S'Cecil Pritchard'
p2267
aS'1928'
p2268
aS'Hooker'
p2269
aS'Pontypool'
p2270
aS'8'
aS'3'
aS'0'
aS'0'
aa(lp2271
S'Archie Skym'
p2272
aS'1928'
p2273
aS'Prop'
p2274
aS'Drefach'
p2275
aS'20'
p2276
aS'9'
aS'2'
aS'6'
aa(lp2277
S'Gwyn Davies'
p2278
aS'1928'
p2279
aS'Wing'
p2280
aS'Aberkenfig'
p2281
aS'3'
aS'0'
aS'0'
aS'0'
aa(lp2282
S'Jack Bassett'
p2283
aS'1929'
p2284
aS'Fullback'
p2285
aS'Trebanog'
p2286
aS'20'
p2287
aS'9'
aS'0'
aS'29'
p2288
aa(lp2289
S'Harold Jones'
p2290
aS'1929'
p2291
aS'Lock'
p2292
aS'Ogmore Vale'
p2293
aS'2'
aS'1'
aS'0'
aS'0'
aa(lp2294
S'Dick Jones'
p2295
aS'1929'
p2296
aS'Flanker'
p2297
aS'Shanghai'
p2298
aS'1'
aS'0'
aS'0'
aS'0'
aa(lp2299
S'Jack Morley'
p2300
aS'1929'
p2301
aS'Wing'
p2302
aS'Newport'
p2303
aS'17'
p2304
aS'9'
aS'6'
aS'18'
p2305
aa(lp2306
S'Bill Roberts'
p2307
aS'1929'
p2308
aS'Fly-half'
p2309
aS'Toxteth'
p2310
aS'1'
aS'0'
aS'0'
aS'0'
aa(lp2311
S'Bob Barrell'
p2312
aS'1929'
p2313
aS'Prop'
p2314
aS'Mountain Ash'
p2315
aS'4'
aS'2'
aS'1'
aS'3'
aa(lp2316
S'Harry Bowcott'
p2317
aS'1929'
p2318
aS'Centre'
p2319
aS'Cardiff'
p2320
aS'13'
p2321
aS'5'
aS'2'
aS'6'
aa(lp2322
S'Harry Peacock'
p2323
aS'1929'
p2324
aS'Flanker'
p2325
aS'Newport'
p2326
aS'6'
aS'4'
aS'2'
aS'6'
aa(lp2327
S'Frank Williams'
p2328
aS'1929'
p2329
aS'Centre'
p2330
aS'Cardiff'
p2331
aS'14'
p2332
aS'8'
aS'2'
aS'6'
aa(lp2333
S'Arthur Lemon'
p2334
aS'1929'
p2335
aS'No. 8'
p2336
aS'Tonna'
p2337
aS'13'
p2338
aS'7'
aS'0'
aS'0'
aa(lp2339
S'Arthur Hickman'
p2340
aS'1930'
p2341
aS'Wing'
p2342
aS'Skewen'
p2343
aS'2'
aS'0'
aS'0'
aS'0'
aa(lp2344
S'Tom Jones-Davies'
p2345
aS'1930'
p2346
aS'Centre'
p2347
aS'Nantgaredig'
p2348
aS'4'
aS'2'
aS'2'
aS'6'
aa(lp2349
S'David Roberts'
p2350
aS'1930'
p2351
aS'Scrum-half'
p2352
aS'Llanelly'
p2353
aS'1'
aS'0'
aS'0'
aS'0'
aa(lp2354
S'Ocker Thomas'
p2355
aS'1930'
p2356
aS'Flanker'
p2357
aS'Merthyr Tydfil'
p2358
aS'1'
aS'0'
aS'0'
aS'0'
aa(lp2359
S'Ronnie Boon'
p2360
aS'1930'
p2361
aS'Wing'
p2362
aS'Barry'
p2363
aS'12'
p2364
aS'7'
aS'4'
aS'20'
p2365
aa(lp2366
S'Bert Day'
p2367
aS'1930'
p2368
aS'Hooker'
p2369
aS'Griffithstown'
p2370
aS'5'
aS'3'
aS'0'
aS'0'
aa(lp2371
S'Chick Jones'
p2372
aS'1930'
p2373
aS'Centre'
p2374
aS'Morriston'
p2375
aS'2'
aS'0'
aS'1'
aS'7'
aa(lp2376
S'Dai Thomas'
p2377
aS'1930'
p2378
aS'Lock'
p2379
aS'Swansea'
p2380
aS'11'
p2381
aS'5'
aS'0'
aS'0'
aa(lp2382
S'Norman Fender'
p2383
aS'1930'
p2384
aS'Flanker'
p2385
aS'Cardiff'
p2386
aS'6'
aS'5'
aS'1'
aS'3'
aa(lp2387
S'Howie Jones'
p2388
aS'1930'
p2389
aS'Wing'
p2390
aS'Glynneath'
p2391
aS'2'
aS'2'
aS'1'
aS'3'
aa(lp2392
S'Claud Davey'
p2393
aS'1930'
p2394
aS'Centre'
p2395
aS'Garnant'
p2396
aS'23'
p2397
aS'14'
p2398
aS'5'
aS'15'
p2399
aa(lp2400
S'Edgar Jones'
p2401
aS'1930'
p2402
aS'Prop'
p2403
aS'Sketty'
p2404
aS'5'
aS'2'
aS'0'
aS'0'
aa(lp2405
S'Tommy Scourfield'
p2406
aS'1930'
p2407
aS'Fullback'
p2408
aS'Pontypridd'
p2409
aS'1'
aS'1'
aS'0'
aS'0'
aa(lp2410
S'Tom Day'
p2411
aS'1931'
p2412
aS'Prop'
p2413
aS'Ammanford'
p2414
aS'13'
p2415
aS'8'
aS'0'
aS'0'
aa(lp2416
S'David James'
p2417
aS'1931'
p2418
aS'Hooker'
p2419
aS'Treorchy'
p2420
aS'2'
aS'2'
aS'0'
aS'0'
aa(lp2421
S'Jim Lang'
p2422
aS'1931'
p2423
aS'No. 8'
p2424
aS'Garnant'
p2425
aS'12'
p2426
aS'8'
aS'1'
aS'3'
aa(lp2427
S'Dicky Ralph'
p2428
aS'1931'
p2429
aS'Fly-half'
p2430
aS'Abercarn'
p2431
aS'6'
aS'4'
aS'3'
aS'17'
p2432
aa(lp2433
S'Sgili Davies'
p2434
aS'1931'
p2435
aS'Flanker'
p2436
aS'Cwmgors'
p2437
aS'4'
aS'2'
aS'1'
aS'3'
aa(lp2438
S'Bryn Evans'
p2439
aS'1933'
p2440
aS'Hooker'
p2441
aS'Felinfoel'
p2442
aS'6'
aS'3'
aS'0'
aS'0'
aa(lp2443
S'Iorrie Isaacs'
p2444
aS'1933'
p2445
aS'Flanker'
p2446
aS'Cifynydd'
p2447
aS'2'
aS'1'
aS'0'
aS'0'
aa(lp2448
S'Viv Jenkins'
p2449
aS'1933'
p2450
aS'Fullback'
p2451
aS'Aberavon'
p2452
aS'15'
p2453
aS'8'
aS'1'
aS'45'
p2454
aa(lp2455
S'Arthur Jones'
p2456
aS'1933'
p2457
aS'Wing'
p2458
aS'Bridgend'
p2459
aS'2'
aS'1'
aS'0'
aS'0'
aa(lp2460
S'Raymond Jones'
p2461
aS'1933'
p2462
aS'Lock'
p2463
aS'Blundellsands'
p2464
aS'2'
aS'1'
aS'0'
aS'0'
aa(lp2465
S'Maurice Turnbull'
p2466
aS'1933'
p2467
aS'Scrum-half'
p2468
aS'Cardiff'
p2469
aS'2'
aS'1'
aS'0'
aS'0'
aa(lp2470
S'Wilf Wooller'
p2471
aS'1933'
p2472
aS'Centre'
p2473
aS'Rhos-on-Sea'
p2474
aS'18'
p2475
aS'8'
aS'6'
aS'26'
p2476
aa(lp2477
S'Gwyn Bayliss'
p2478
aS'1933'
p2479
aS'Fullback'
p2480
aS'Brynmawr'
p2481
aS'1'
aS'0'
aS'0'
aS'0'
aa(lp2482
S'Bryn Evans'
p2483
aS'1933'
p2484
aS'Scrum-half'
p2485
aS'Penclawdd'
p2486
aS'1'
aS'0'
aS'0'
aS'0'
aa(lp2487
S'Ron Morris'
p2488
aS'1933'
p2489
aS'Fly-half'
p2490
aS'Carmarthen'
p2491
aS'2'
aS'0'
aS'0'
aS'0'
aa(lp2492
S'Billy Moore'
p2493
aS'1933'
p2494
aS'Lock'
p2495
aS'Garw Valley'
p2496
aS'1'
aS'0'
aS'0'
aS'0'
aa(lp2497
S'Lew Rees'
p2498
aS'1933'
p2499
aS'Flanker'
p2500
aS'Treherbert'
p2501
aS'1'
aS'0'
aS'0'
aS'0'
aa(lp2502
S'Bun Cowey'
p2503
aS'1934'
p2504
aS'Wing'
p2505
aS'Wilts'
p2506
aS'4'
aS'2'
aS'3'
aS'9'
aa(lp2507
S'Cecil Davies'
p2508
aS'1934'
p2509
aS'Prop'
p2510
aS'Pontypridd'
p2511
aS'1'
aS'0'
aS'0'
aS'0'
aa(lp2512
S'David Evans'
p2513
aS'1934'
p2514
aS'Scrum-half'
p2515
aS'Barry'
p2516
aS'1'
aS'0'
aS'0'
aS'0'
aa(lp2517
S'John Evans'
p2518
aS'1934'
p2519
aS'Hooker'
p2520
aS'Newport'
p2521
aS'1'
aS'0'
aS'0'
aS'0'
aa(lp2522
S'Bryn Howells'
p2523
aS'1934'
p2524
aS'Fullback'
p2525
aS'Hendy'
p2526
aS'1'
aS'0'
aS'0'
aS'0'
aa(lp2527
S'Gomer Hughes'
p2528
aS'1934'
p2529
aS'Lock'
p2530
aS'Neath'
p2531
aS'3'
aS'2'
aS'0'
aS'0'
aa(lp2532
S'Geoffrey Jones'
p2533
aS'1934'
p2534
aS'Wing'
p2535
aS'Ipswich'
p2536
aS'5'
aS'2'
aS'2'
aS'6'
aa(lp2537
S'Ken Jones'
p2538
aS'1934'
p2539
aS'No. 8'
p2540
aS'Llanishen'
p2541
aS'1'
aS'0'
aS'0'
aS'0'
aa(lp2542
S'Cliff Jones'
p2543
aS'1934'
p2544
aS'Fly-half'
p2545
aS'Porth'
p2546
aS'13'
p2547
aS'8'
aS'2'
aS'6'
aa(lp2548
S'Glyn Prosser'
p2549
aS'1934'
p2550
aS'Flanker'
p2551
aS'Glynneath'
p2552
aS'4'
aS'3'
aS'0'
aS'0'
aa(lp2553
S'Arthur Rees'
p2554
aS'1934'
p2555
aS'Flanker'
p2556
aS'Llangadog'
p2557
aS'13'
p2558
aS'5'
aS'0'
aS'0'
aa(lp2559
S'Idwal Rees'
p2560
aS'1934'
p2561
aS'Centre'
p2562
aS'Swansea'
p2563
aS'14'
p2564
aS'8'
aS'2'
aS'6'
aa(lp2565
S'Harry Truman'
p2566
aS'1934'
p2567
aS'Lock'
p2568
aS'Porth'
p2569
aS'2'
aS'0'
aS'0'
aS'0'
aa(lp2570
S'Iorwerth Evans'
p2571
aS'1934'
p2572
aS'Hooker'
p2573
aS'Trelewis'
p2574
aS'2'
aS'2'
aS'0'
aS'0'
aa(lp2575
S'Albert Fear'
p2576
aS'1934'
p2577
aS'Flanker'
p2578
aS'Abertillery'
p2579
aS'4'
aS'3'
aS'1'
aS'3'
aa(lp2580
S'Bert Jones'
p2581
aS'1934'
p2582
aS'Scrum-half'
p2583
aS'Llanelly'
p2584
aS'2'
aS'2'
aS'0'
aS'0'
aa(lp2585
S'Dai Prosser'
p2586
aS'1934'
p2587
aS'Prop'
p2588
aS'Neath'
p2589
aS'2'
aS'2'
aS'0'
aS'0'
aa(lp2590
S'Bill Ward'
p2591
aS'1934'
p2592
aS'Lock'
p2593
aS'Risca'
p2594
aS'2'
aS'2'
aS'0'
aS'0'
aa(lp2595
S'Arthur Bassett'
p2596
aS'1934'
p2597
aS'Wing'
p2598
aS'Kenfig Hill'
p2599
aS'6'
aS'3'
aS'0'
aS'0'
aa(lp2600
S'Con Murphy'
p2601
aS'1935'
p2602
aS'Hooker'
p2603
aS'Aberfan'
p2604
aS'3'
aS'1'
aS'0'
aS'0'
aa(lp2605
S'Thomas Rees'
p2606
aS'1935'
p2607
aS'Prop'
p2608
aS'Fleur-de-Lys'
p2609
aS'8'
aS'4'
aS'0'
aS'0'
aa(lp2610
S'Tabber Williams'
p2611
aS'1935'
p2612
aS'Prop'
p2613
aS'Aberaman'
p2614
aS'8'
aS'4'
aS'0'
aS'0'
aa(lp2615
S'Tommy James'
p2616
aS'1935'
p2617
aS'Fullback'
p2618
aS'Aberavon'
p2619
aS'2'
aS'0'
aS'0'
aS'3'
aa(lp2620
S'Harry Payne'
p2621
aS'1935'
p2622
aS'Prop'
p2623
aS'Treboeth'
p2624
aS'1'
aS'1'
aS'0'
aS'0'
aa(lp2625
S'Haydn Tanner'
p2626
aS'1935'
p2627
aS'Scrum-half'
p2628
aS'Gowerton'
p2629
aS'26'
p2630
aS'12'
p2631
aS'0'
aS'0'
aa(lp2632
S'Don Tarr'
p2633
aS'1935'
p2634
aS'Hooker'
p2635
aS'Llandeilo Fawr'
p2636
aS'1'
aS'1'
aS'0'
aS'0'
aa(lp2637
S'Eddie Watkins'
p2638
aS'1935'
p2639
aS'Lock'
p2640
aS'Caerphilly'
p2641
aS'8'
aS'4'
aS'0'
aS'0'
aa(lp2642
S'Edgar Long'
p2643
aS'1936'
p2644
aS'Flanker'
p2645
aS'Gower'
p2646
aS'7'
aS'4'
aS'0'
aS'0'
aa(lp2647
S'Barney McCall'
p2648
aS'1936'
p2649
aS'Wing'
p2650
aS'Clifton'
p2651
aS'3'
aS'2'
aS'0'
aS'0'
aa(lp2652
S'Harold Thomas'
p2653
aS'1936'
p2654
aS'Lock'
p2655
aS'Neath'
p2656
aS'6'
aS'2'
aS'0'
aS'0'
aa(lp2657
S'Griff Williams'
p2658
aS'1936'
p2659
aS'Lock'
p2660
aS'Pontypridd'
p2661
aS'3'
aS'2'
aS'0'
aS'0'
aa(lp2662
S'Willy Davies'
p2663
aS'1936'
p2664
aS'Fly-half'
p2665
aS'Penclawdd'
p2666
aS'6'
aS'3'
aS'1'
aS'7'
aa(lp2667
S'Bill Clement'
p2668
aS'1937'
p2669
aS'Wing'
p2670
aS'Llanelly'
p2671
aS'6'
aS'2'
aS'1'
aS'3'
aa(lp2672
S'Emrys Evans'
p2673
aS'1937'
p2674
aS'Flanker'
p2675
aS'Gwaun-cae-Gurwen'
p2676
aS'3'
aS'2'
aS'0'
aS'0'
aa(lp2677
S'David Thomas'
p2678
aS'1937'
p2679
aS'Lock'
p2680
aS'Neath'
p2681
aS'1'
aS'0'
aS'0'
aS'0'
aa(lp2682
S'Bill Hopkin'
p2683
aS'1937'
p2684
aS'Wing'
p2685
aS'Newport'
p2686
aS'1'
aS'0'
aS'0'
aS'0'
aa(lp2687
S'Harry Rees'
p2688
aS'1937'
p2689
aS'Prop'
p2690
aS'Pontypridd'
p2691
aS'5'
aS'2'
aS'0'
aS'0'
aa(lp2692
S'Bunner Travers'
p2693
aS'1937'
p2694
aS'Hooker'
p2695
aS'Newport'
p2696
aS'14'
p2697
aS'6'
aS'1'
aS'3'
aa(lp2698
S'Ivor Bennett'
p2699
aS'1937'
p2700
aS'Prop'
p2701
aS'Aberkenfig'
p2702
aS'1'
aS'0'
aS'0'
aS'0'
aa(lp2703
S'Walter Legge'
p2704
aS'1937'
p2705
aS'Fullback'
p2706
aS'Risca'
p2707
aS'2'
aS'1'
aS'0'
aS'5'
aa(lp2708
S'Russell Taylor'
p2709
aS'1937'
p2710
aS'Flanker'
p2711
aS'Risca'
p2712
aS'5'
aS'1'
aS'1'
aS'6'
aa(lp2713
S'Allen McCarley'
p2714
aS'1938'
p2715
aS'Flanker'
p2716
aS'Port Talbot'
p2717
aS'3'
aS'2'
aS'3'
aS'9'
aa(lp2718
S'Fred Morgan'
p2719
aS'1938'
p2720
aS'Lock'
p2721
aS'Pontyberem'
p2722
aS'4'
aS'2'
aS'0'
aS'0'
aa(lp2723
S'Eddie Morgan'
p2724
aS'1938'
p2725
aS'Prop'
p2726
aS'Pontardawe'
p2727
aS'6'
aS'2'
aS'0'
aS'0'
aa(lp2728
S'Walter Vickery'
p2729
aS'1938'
p2730
aS'No. 8'
p2731
aS'Port Talbot'
p2732
aS'4'
aS'2'
aS'0'
aS'0'
aa(lp2733
S'Cyril Challinor'
p2734
aS'1939'
p2735
aS'Flanker'
p2736
aS'Neath'
p2737
aS'1'
aS'0'
aS'0'
aS'0'
aa(lp2738
S'Idwal Davies'
p2739
aS'1939'
p2740
aS'Centre'
p2741
aS'?'
aS'1'
aS'0'
aS'0'
aS'0'
aa(lp2742
S'Wendy Davis'
p2743
aS'1939'
p2744
aS'Prop'
p2745
aS'Birmingham'
p2746
aS'3'
aS'2'
aS'0'
aS'0'
aa(lp2747
S'John Ford'
p2748
aS'1939'
p2749
aS'Wing'
p2750
aS'Redcar'
p2751
aS'1'
aS'0'
aS'0'
aS'0'
aa(lp2752
S'Syd Williams'
p2753
aS'1939'
p2754
aS'Wing'
p2755
aS'Aberavon'
p2756
aS'3'
aS'2'
aS'0'
aS'0'
aa(lp2757
S'Howard Davies'
p2758
aS'1939'
p2759
aS'Fullback'
p2760
aS'Llanelly'
p2761
aS'6'
aS'5'
aS'0'
aS'0'
aa(lp2762
S'Leslie Davies'
p2763
aS'1939'
p2764
aS'Prop'
p2765
aS'Swansea'
p2766
aS'2'
aS'2'
aS'0'
aS'0'
aa(lp2767
S'Mickey Davies'
p2768
aS'1939'
p2769
aS'Centre'
p2770
aS'1918'
p2771
aS'2'
aS'2'
aS'1'
aS'3'
aa(lp2772
S'Elfed Jones'
p2773
aS'1938'
p2774
aS'Wing'
p2775
aS'Llanelly'
p2776
aS'3'
aS'2'
aS'1'
aS'3'
aa(lp2777
S'Les Manfield'
p2778
aS'1939'
p2779
aS'No. 8'
p2780
aS'Mountain Ash'
p2781
aS'7'
aS'4'
aS'0'
aS'0'
aa(lp2782
S'Ron Price'
p2783
aS'1939'
p2784
aS'Lock'
p2785
aS'Trealaw'
p2786
aS'2'
aS'2'
aS'0'
aS'0'
aa(lp2787
S'Viv Law'
p2788
aS'1939'
p2789
aS'Prop'
p2790
aS'Cardiff'
p2791
aS'1'
aS'1'
aS'0'
aS'0'
aa(lp2792
S'Chris Matthews'
p2793
aS'1939'
p2794
aS'Wing'
p2795
aS'Bridgend'
p2796
aS'1'
aS'1'
aS'0'
aS'0'
aa(lp2797
S'Griff Bevan'
p2798
aS'1947'
p2799
aS'Prop'
p2800
aS'Burry Port'
p2801
aS'1'
aS'0'
aS'0'
aS'0'
aa(lp2802
S'Reg Blakemore'
p2803
aS'1947'
p2804
aS'Hooker'
p2805
aS'Newport'
p2806
aS'1'
aS'0'
aS'0'
aS'0'
aa(lp2807
S'Billy Cleaver'
p2808
aS'1947'
p2809
aS'Fly-half'
p2810
aS'Treorchy'
p2811
aS'17'
p2812
aS'9'
aS'1'
aS'6'
aa(lp2813
S'Gwyn Evans'
p2814
aS'1947'
p2815
aS'Flanker'
p2816
aS'Treherbert'
p2817
aS'12'
p2818
aS'6'
aS'1'
aS'3'
aa(lp2819
S'Dai Jones'
p2820
aS'1947'
p2821
aS'Prop'
p2822
aS'Morriston'
p2823
aS'7'
aS'3'
aS'0'
aS'0'
aa(lp2824
S'Ken Jones'
p2825
aS'1947'
p2826
aS'Wing'
p2827
aS'Blaenavon'
p2828
aS'47'
p2829
aS'28'
p2830
aS'19'
p2831
aS'57'
p2832
aa(lp2833
S'Jack Matthews'
p2834
aS'1947'
p2835
aS'Centre'
p2836
aS'Bridgend'
p2837
aS'23'
p2838
aS'10'
p2839
aS'4'
aS'12'
p2840
aa(lp2841
S'George Parsons'
p2842
aS'1947'
p2843
aS'Lock'
p2844
aS'Newbridge'
p2845
aS'1'
aS'0'
aS'0'
aS'0'
aa(lp2846
S'Rees Stephens'
p2847
aS'1947'
p2848
aS'Lock'
p2849
aS'Neath'
p2850
aS'34'
p2851
aS'21'
p2852
aS'2'
aS'8'
aa(lp2853
S'Bleddyn Williams'
p2854
aS'1947'
p2855
aS'Centre'
p2856
aS"Taff's Well"
p2857
aS'27'
p2858
aS'15'
p2859
aS'8'
aS'24'
p2860
aa(lp2861
S'Ossie Williams'
p2862
aS'1947'
p2863
aS'Flanker'
p2864
aS'Llanelly'
p2865
aS'7'
aS'3'
aS'0'
aS'3'
aa(lp2866
S'Stanley Williams'
p2867
aS'1947'
p2868
aS'Lock'
p2869
aS'Llanelly'
p2870
aS'6'
aS'4'
aS'0'
aS'0'
aa(lp2871
S'Les Williams'
p2872
aS'1947'
p2873
aS'Wing'
p2874
aS'Mynyddygarreg'
p2875
aS'7'
aS'5'
aS'3'
aS'9'
aa(lp2876
S'Cliff Davies'
p2877
aS'1947'
p2878
aS'Prop'
p2879
aS'Kenfig Hill'
p2880
aS'17'
p2881
aS'10'
p2882
aS'1'
aS'3'
aa(lp2883
S'Glyn Davies'
p2884
aS'1947'
p2885
aS'Fly-half'
p2886
aS'Cifynydd'
p2887
aS'11'
p2888
aS'5'
aS'0'
aS'0'
aa(lp2889
S'Wilf Evans'
p2890
aS'1947'
p2891
aS'Prop'
p2892
aS'Griffithstown'
p2893
aS'1'
aS'1'
aS'0'
aS'0'
aa(lp2894
S'Billy Gore'
p2895
aS'1947'
p2896
aS'Hooker'
p2897
aS'Blaina'
p2898
aS'3'
aS'3'
aS'0'
aS'0'
aa(lp2899
S'Bill Tamplin'
p2900
aS'1947'
p2901
aS'Lock'
p2902
aS'Risca'
p2903
aS'7'
aS'5'
aS'0'
aS'24'
p2904
aa(lp2905
S'Bob Evans'
p2906
aS'1947'
p2907
aS'Flanker'
p2908
aS'Rhymney'
p2909
aS'16'
p2910
aS'9'
aS'1'
aS'3'
aa(lp2911
S'Peter Rees'
p2912
aS'1947'
p2913
aS'Wing'
p2914
aS'Penygroes'
p2915
aS'2'
aS'2'
aS'0'
aS'0'
aa(lp2916
S'Emlyn Davies'
p2917
aS'1947'
p2918
aS'Prop'
p2919
aS'Port Talbot'
p2920
aS'2'
aS'1'
aS'0'
aS'0'
aa(lp2921
S'Handel Greville'
p2922
aS'1947'
p2923
aS'Scrum-half'
p2924
aS'Drefach'
p2925
aS'1'
aS'1'
aS'0'
aS'0'
aa(lp2926
S'John Gwilliam'
p2927
aS'1947'
p2928
aS'No. 8'
p2929
aS'Pontypridd'
p2930
aS'23'
p2931
aS'14'
p2932
aS'0'
aS'0'
aa(lp2933
S'Mal James'
p2934
aS'1947'
p2935
aS'Hooker'
p2936
aS'Cifynydd'
p2937
aS'5'
aS'2'
aS'0'
aS'0'
aa(lp2938
S'Les Anthony'
p2939
aS'1948'
p2940
aS'Prop'
p2941
aS'Rhiwfawr'
p2942
aS'3'
aS'1'
aS'0'
aS'0'
aa(lp2943
S'Des Jones'
p2944
aS'1948'
p2945
aS'Lock'
p2946
aS'Tumble'
p2947
aS'1'
aS'0'
aS'0'
aS'0'
aa(lp2948
S'Frank Trott'
p2949
aS'1948'
p2950
aS'Fullback'
p2951
aS'Cardiff'
p2952
aS'8'
aS'2'
aS'0'
aS'2'
aa(lp2953
S'Ray Cale'
p2954
aS'1949'
p2955
aS'Flanker'
p2956
aS'Usk'
p2957
aS'7'
aS'5'
aS'1'
aS'3'
aa(lp2958
S'Ernie Coleman'
p2959
aS'1949'
p2960
aS'Prop'
p2961
aS'Newport'
p2962
aS'3'
aS'1'
aS'0'
aS'0'
aa(lp2963
S'Don Hayward'
p2964
aS'1949'
p2965
aS'Lock'
p2966
aS'Pontypool'
p2967
aS'18'
p2968
aS'10'
p2969
aS'0'
aS'0'
aa(lp2970
S'Alun Meredith'
p2971
aS'1949'
p2972
aS'Lock'
p2973
aS'Ystrad'
p2974
aS'3'
aS'1'
aS'1'
aS'3'
aa(lp2975
S'Terry Cook'
p2976
aS'1949'
p2977
aS'Wing'
p2978
aS'Pontypridd'
p2979
aS'2'
aS'0'
aS'0'
aS'0'
aa(lp2980
S'Windsor Major'
p2981
aS'1949'
p2982
aS'Wing'
p2983
aS'Llangynwyd'
p2984
aS'2'
aS'1'
aS'0'
aS'0'
aa(lp2985
S'Peter Stone'
p2986
aS'1949'
p2987
aS'Flanker'
p2988
aS'Loughor'
p2989
aS'1'
aS'0'
aS'0'
aS'0'
aa(lp2990
S'Malcolm Thomas'
p2991
aS'1949'
p2992
aS'Centre'
p2993
aS'Machen'
p2994
aS'31'
p2995
aS'16'
p2996
aS'4'
aS'22'
p2997
aa(lp2998
S'Clem Thomas'
p2999
aS'1949'
p3000
aS'Flanker'
p3001
aS'Cardiff'
p3002
aS'28'
p3003
aS'18'
p3004
aS'1'
aS'3'
aa(lp3005
S'Trevor Brewer'
p3006
aS'1950'
p3007
aS'Wing'
p3008
aS'Newport'
p3009
aS'3'
aS'2'
aS'2'
aS'6'
aa(lp3010
S'Dai Davies'
p3011
aS'1950'
p3012
aS'Hooker'
p3013
aS'Penygraig'
p3014
aS'20'
p3015
aS'13'
p3016
aS'0'
aS'0'
aa(lp3017
S'Roy John'
p3018
aS'1950'
p3019
aS'Lock'
p3020
aS'Neath'
p3021
aS'25'
p3022
aS'15'
p3023
aS'2'
aS'6'
aa(lp3024
S'Lewis Jones'
p3025
aS'1950'
p3026
aS'Fullback'
p3027
aS'Gorseinon'
p3028
aS'13'
p3029
aS'10'
p3030
aS'1'
aS'62'
p3031
aa(lp3032
S'John Robins'
p3033
aS'1950'
p3034
aS'Prop'
p3035
aS'Cardiff'
p3036
aS'16'
p3037
aS'9'
aS'0'
aS'10'
p3038
aa(lp3039
S'Rex Willis'
p3040
aS'1950'
p3041
aS'Scrum-half'
p3042
aS'Ystrad'
p3043
aS'24'
p3044
aS'17'
p3045
aS'0'
aS'0'
aa(lp3046
S'Gerwyn Williams'
p3047
aS'1950'
p3048
aS'Fullback'
p3049
aS'Glyncorrwg'
p3050
aS'13'
p3051
aS'8'
aS'0'
aS'0'
aa(lp3052
S'Peter Evans'
p3053
aS'1951'
p3054
aS'Flanker'
p3055
aS'Llanelly'
p3056
aS'2'
aS'1'
aS'0'
aS'0'
aa(lp3057
S'Allen Forward'
p3058
aS'1951'
p3059
aS'Flanker'
p3060
aS'Cwmavon'
p3061
aS'6'
aS'4'
aS'0'
aS'0'
aa(lp3062
S'Ben Edwards'
p3063
aS'1951'
p3064
aS'Lock'
p3065
aS'Chepstow'
p3066
aS'1'
aS'0'
aS'0'
aS'3'
aa(lp3067
S'Cliff Morgan'
p3068
aS'1951'
p3069
aS'Fly-half'
p3070
aS'Trebanog'
p3071
aS'33'
p3072
aS'21'
p3073
aS'4'
aS'12'
p3074
aa(lp3075
S'Haydn Morris'
p3076
aS'1951'
p3077
aS'Wing'
p3078
aS'Mountain Ash'
p3079
aS'3'
aS'2'
aS'2'
aS'6'
aa(lp3080
S'Billy Williams'
p3081
aS'1951'
p3082
aS'Prop'
p3083
aS'Gower'
p3084
aS'26'
p3085
aS'18'
p3086
aS'1'
aS'3'
aa(lp3087
S'Len Blythe'
p3088
aS'1951'
p3089
aS'Flanker'
p3090
aS'Swansea'
p3091
aS'3'
aS'2'
aS'0'
aS'0'
aa(lp3092
S'Alun Thomas'
p3093
aS'1952'
p3094
aS'Centre'
p3095
aS'Cwmavon'
p3096
aS'13'
p3097
aS'11'
p3098
aS'1'
aS'6'
aa(lp3099
S'Billy Williams'
p3100
aS'1952'
p3101
aS'Scrum-half'
p3102
aS'Talywain'
p3103
aS'3'
aS'2'
aS'0'
aS'0'
aa(lp3104
S'Horace Phillips'
p3105
aS'1952'
p3106
aS'Wing'
p3107
aS'Swansea'
p3108
aS'1'
aS'1'
aS'0'
aS'0'
aa(lp3109
S'Geoff Beckingham'
p3110
aS'1953'
p3111
aS'Hooker'
p3112
aS'Barry'
p3113
aS'3'
aS'1'
aS'0'
aS'0'
aa(lp3114
S'Roy Burnett'
p3115
aS'1953'
p3116
aS'Fly-half'
p3117
aS'Abercarn'
p3118
aS'1'
aS'0'
aS'0'
aS'0'
aa(lp3119
S'Terry Davies'
p3120
aS'1953'
p3121
aS'Fullback'
p3122
aS'Llwynhendy'
p3123
aS'23'
p3124
aS'11'
p3125
aS'0'
aS'55'
p3126
aa(lp3127
S'Gareth Griffiths'
p3128
aS'1953'
p3129
aS'Wing'
p3130
aS'Penygraig'
p3131
aS'15'
p3132
aS'10'
p3133
aS'5'
aS'15'
p3134
aa(lp3135
S'Dill Johnson'
p3136
aS'1953'
p3137
aS'Flanker'
p3138
aS'Pontarddulais'
p3139
aS'1'
aS'0'
aS'0'
aS'0'
aa(lp3140
S'Sid Judd'
p3141
aS'1953'
p3142
aS'Flanker'
p3143
aS'Cardiff'
p3144
aS'10'
p3145
aS'7'
aS'1'
aS'3'
aa(lp3146
S'Courtenay Meredith'
p3147
aS'1953'
p3148
aS'Prop'
p3149
aS'Pontypridd'
p3150
aS'18'
p3151
aS'11'
p3152
aS'1'
aS'3'
aa(lp3153
S'Russell Robins'
p3154
aS'1953'
p3155
aS'No. 8'
p3156
aS'Pontypridd'
p3157
aS'17'
p3158
aS'12'
p3159
aS'1'
aS'3'
aa(lp3160
S'Trevor Lloyd'
p3161
aS'1953'
p3162
aS'Scrum-half'
p3163
aS'Taibach'
p3164
aS'2'
aS'2'
aS'0'
aS'0'
aa(lp3165
S'Gwyn Rowlands'
p3166
aS'1953'
p3167
aS'Wing'
p3168
aS'Berkhamsted'
p3169
aS'4'
aS'3'
aS'1'
aS'13'
p3170
aa(lp3171
S'Glyn John'
p3172
aS'1954'
p3173
aS'Centre'
p3174
aS'Neath'
p3175
aS'2'
aS'1'
aS'0'
aS'0'
aa(lp3176
S'Viv Evans'
p3177
aS'1954'
p3178
aS'Fullback'
p3179
aS'Skewen'
p3180
aS'3'
aS'3'
aS'0'
aS'25'
p3181
aa(lp3182
S'Leighton Jenkins'
p3183
aS'1954'
p3184
aS'No. 8'
p3185
aS'New Tredegar'
p3186
aS'5'
aS'4'
aS'0'
aS'0'
aa(lp3187
S'Bryn Meredith'
p3188
aS'1954'
p3189
aS'Hooker'
p3190
aS'Cwmbran'
p3191
aS'42'
p3192
aS'22'
p3193
aS'4'
aS'12'
p3194
aa(lp3195
S'Brian Sparks'
p3196
aS'1954'
p3197
aS'Flanker'
p3198
aS'Llanharan'
p3199
aS'7'
aS'5'
aS'0'
aS'0'
aa(lp3200
S'Denzil Thomas'
p3201
aS'1954'
p3202
aS'Centre'
p3203
aS'Llandyfriog'
p3204
aS'1'
aS'1'
aS'0'
aS'3'
aa(lp3205
S'Rhys Williams'
p3206
aS'1954'
p3207
aS'Lock'
p3208
aS'Cwmllynfell'
p3209
aS'33'
p3210
aS'19'
p3211
aS'1'
aS'3'
aa(lp3212
S'Len Davies'
p3213
aS'1954'
p3214
aS'Flanker'
p3215
aS'Bynea'
p3216
aS'3'
aS'3'
aS'0'
aS'0'
aa(lp3217
S'Ray Williams'
p3218
aS'1954'
p3219
aS'Wing'
p3220
aS'Felinfoel'
p3221
aS'3'
aS'3'
aS'1'
aS'3'
aa(lp3222
S'Glyn Davies'
p3223
aS'1955'
p3224
aS'Flanker'
p3225
aS'Cefn Fforest'
p3226
aS'1'
aS'1'
aS'0'
aS'0'
aa(lp3227
S'Arthur Edwards'
p3228
aS'1955'
p3229
aS'Fullback'
p3230
aS'Bynea'
p3231
aS'2'
aS'1'
aS'0'
aS'3'
aa(lp3232
S'Gordon Wells'
p3233
aS'1955'
p3234
aS'Centre'
p3235
aS'Rhondda'
p3236
aS'7'
aS'5'
aS'1'
aS'3'
aa(lp3237
S'Garfield Owen'
p3238
aS'1955'
p3239
aS'Fullback'
p3240
aS'Llanharan'
p3241
aS'6'
aS'5'
aS'0'
aS'26'
p3242
aa(lp3243
S'Derek Williams'
p3244
aS'1955'
p3245
aS'Flanker'
p3246
aS'Cardiff'
p3247
aS'2'
aS'2'
aS'1'
aS'3'
aa(lp3248
S'Onllwyn Brace'
p3249
aS'1956'
p3250
aS'Scrum-half'
p3251
aS'Pontarddulais'
p3252
aS'9'
aS'6'
aS'1'
aS'3'
aa(lp3253
S'Cowboy Davies'
p3254
aS'1956'
p3255
aS'Wing'
p3256
aS'Bancyfelin'
p3257
aS'3'
aS'2'
aS'2'
aS'6'
aa(lp3258
S'Harry Morgan'
p3259
aS'1956'
p3260
aS'Centre'
p3261
aS'Pontypool'
p3262
aS'4'
aS'3'
aS'1'
aS'3'
aa(lp3263
S'Ray Prosser'
p3264
aS'1956'
p3265
aS'Prop'
p3266
aS'Pontypool'
p3267
aS'23'
p3268
aS'13'
p3269
aS'1'
aS'3'
aa(lp3270
S'Rex Richards'
p3271
aS'1956'
p3272
aS'Prop'
p3273
aS'Newport'
p3274
aS'1'
aS'1'
aS'0'
aS'0'
aa(lp3275
S'Geoff Whitson'
p3276
aS'1956'
p3277
aS'Flanker'
p3278
aS'Newport'
p3279
aS'3'
aS'3'
aS'0'
aS'0'
aa(lp3280
S'Geoff Howells'
p3281
aS'1957'
p3282
aS'Wing'
p3283
aS'Loughor'
p3284
aS'4'
aS'2'
aS'1'
aS'3'
aa(lp3285
S'Keith Maddocks'
p3286
aS'1957'
p3287
aS'Wing'
p3288
aS'Resolven'
p3289
aS'1'
aS'0'
aS'0'
aS'0'
aa(lp3290
S"Rory O'Connor"
p3291
aS'1957'
p3292
aS'Flanker'
p3293
aS'Neath'
p3294
aS'1'
aS'0'
aS'0'
aS'0'
aa(lp3295
S'Robin Davies'
p3296
aS'1957'
p3297
aS'Flanker'
p3298
aS'Battersea'
p3299
aS'6'
aS'3'
aS'1'
aS'3'
aa(lp3300
S'Lloyd Williams'
p3301
aS'1957'
p3302
aS'Scrum-half'
p3303
aS"Taff's Well"
p3304
aS'13'
p3305
aS'6'
aS'0'
aS'0'
aa(lp3306
S'Cyril Davies'
p3307
aS'1957'
p3308
aS'Centre'
p3309
aS'Ammanford'
p3310
aS'7'
aS'5'
aS'0'
aS'0'
aa(lp3311
S'John Faull'
p3312
aS'1957'
p3313
aS'No. 8'
p3314
aS'Morriston'
p3315
aS'16'
p3316
aS'9'
aS'1'
aS'8'
aa(lp3317
S'Henry Morgan'
p3318
aS'1957'
p3319
aS'Prop'
p3320
aS'Carmarthen'
p3321
aS'2'
aS'2'
aS'0'
aS'0'
aa(lp3322
S'Graham Powell'
p3323
aS'1957'
p3324
aS'Centre'
p3325
aS'Ebbw Vale'
p3326
aS'2'
aS'2'
aS'0'
aS'0'
aa(lp3327
S'John Collins'
p3328
aS'1958'
p3329
aS'Wing'
p3330
aS'Aberavon'
p3331
aS'10'
p3332
aS'4'
aS'3'
aS'9'
aa(lp3333
S'Don Devereux'
p3334
aS'1958'
p3335
aS'Prop'
p3336
aS'Neath'
p3337
aS'3'
aS'2'
aS'0'
aS'0'
aa(lp3338
S'Wynne Evans'
p3339
aS'1958'
p3340
aS'Scrum-half'
p3341
aS'Llandybie'
p3342
aS'1'
aS'1'
aS'0'
aS'0'
aa(lp3343
S'Roddy Evans'
p3344
aS'1958'
p3345
aS'Lock'
p3346
aS'Porthcawl'
p3347
aS'17'
p3348
aS'6'
aS'0'
aS'0'
aa(lp3349
S'Carwyn James'
p3350
aS'1958'
p3351
aS'Centre'
p3352
aS'Cefneithin'
p3353
aS'2'
aS'1'
aS'0'
aS'3'
aa(lp3354
S'Haydn Morgan'
p3355
aS'1958'
p3356
aS'Flanker'
p3357
aS'Oakdale'
p3358
aS'31'
p3359
aS'14'
p3360
aS'3'
aS'9'
aa(lp3361
S'John Evans'
p3362
aS'1958'
p3363
aS'Prop'
p3364
aS'Mountain Ash'
p3365
aS'2'
aS'1'
aS'0'
aS'0'
aa(lp3366
S'Howard Nicholls'
p3367
aS'1958'
p3368
aS'Wing'
p3369
aS'Maesteg'
p3370
aS'1'
aS'1'
aS'0'
aS'0'
aa(lp3371
S'Alun Priday'
p3372
aS'1958'
p3373
aS'Fullback'
p3374
aS'Cardiff'
p3375
aS'2'
aS'2'
aS'0'
aS'0'
aa(lp3376
S'Cyril Roberts'
p3377
aS'1958'
p3378
aS'Wing'
p3379
aS'Neath'
p3380
aS'2'
aS'1'
aS'1'
aS'3'
aa(lp3381
S'Cliff Ashton'
p3382
aS'1959'
p3383
aS'Fly-half'
p3384
aS'Cwmavon'
p3385
aS'7'
aS'4'
aS'1'
aS'3'
aa(lp3386
S'Dewi Bebb'
p3387
aS'1959'
p3388
aS'Wing'
p3389
aS'Bangor'
p3390
aS'42'
p3391
aS'15'
p3392
aS'12'
p3393
aS'36'
p3394
aa(lp3395
S'Haydn Davies'
p3396
aS'1959'
p3397
aS'Centre'
p3398
aS'Cowbridge'
p3399
aS'2'
aS'1'
aS'0'
aS'0'
aa(lp3400
S'Ian Ford'
p3401
aS'1959'
p3402
aS'Lock'
p3403
aS'Cardiff'
p3404
aS'2'
aS'1'
aS'0'
aS'0'
aa(lp3405
S'John Leleu'
p3406
aS'1959'
p3407
aS'Flanker'
p3408
aS'Bristol'
p3409
aS'4'
aS'1'
aS'0'
aS'0'
aa(lp3410
S'Derrick Main'
p3411
aS'1959'
p3412
aS'Prop'
p3413
aS'Abbassia'
p3414
aS'4'
aS'2'
aS'0'
aS'0'
aa(lp3415
S'Malcolm Price'
p3416
aS'1959'
p3417
aS'Centre'
p3418
aS'Pontypool'
p3419
aS'14'
p3420
aS'6'
aS'6'
aS'18'
p3421
aa(lp3422
S'Danny Harris'
p3423
aS'1959'
p3424
aS'Lock'
p3425
aS'Penygraig'
p3426
aS'8'
aS'4'
aS'0'
aS'0'
aa(lp3427
S'Glyn Davidge'
p3428
aS'1959'
p3429
aS'Flanker'
p3430
aS'Newport'
p3431
aS'9'
aS'5'
aS'0'
aS'0'
aa(lp3432
S'Jack Hurrell'
p3433
aS'1959'
p3434
aS'Centre'
p3435
aS'Cwmcarn'
p3436
aS'1'
aS'0'
aS'0'
aS'0'
aa(lp3437
S'Billy Watkins'
p3438
aS'1959'
p3439
aS'Scrum-half'
p3440
aS'Newbridge'
p3441
aS'1'
aS'0'
aS'0'
aS'0'
aa(lp3442
S'Brian Cresswell'
p3443
aS'1960'
p3444
aS'Flanker'
p3445
aS'Newport'
p3446
aS'4'
aS'2'
aS'2'
aS'6'
aa(lp3447
S'Len Cunningham'
p3448
aS'1960'
p3449
aS'Prop'
p3450
aS'Port Talbot'
p3451
aS'14'
p3452
aS'5'
aS'0'
aS'0'
aa(lp3453
S'Colin Evans'
p3454
aS'1960'
p3455
aS'Scrum-half'
p3456
aS'Blaenavon'
p3457
aS'1'
aS'0'
aS'0'
aS'0'
aa(lp3458
S'Gareth Payne'
p3459
aS'1960'
p3460
aS'Lock'
p3461
aS'Trelewis'
p3462
aS'3'
aS'2'
aS'0'
aS'0'
aa(lp3463
S'Geoff Windsor-Lewis'
p3464
aS'1960'
p3465
aS'Centre'
p3466
aS'Cambridge'
p3467
aS'2'
aS'1'
aS'0'
aS'0'
aa(lp3468
S'Fenton Coles'
p3469
aS'1960'
p3470
aS'Wing'
p3471
aS'Blaenavon'
p3472
aS'3'
aS'2'
aS'0'
aS'0'
aa(lp3473
S'Norman Morgan'
p3474
aS'1960'
p3475
aS'Fullback'
p3476
aS'Pontypool'
p3477
aS'3'
aS'2'
aS'0'
aS'14'
p3478
aa(lp3479
S'Norman Gale'
p3480
aS'1960'
p3481
aS'Hooker'
p3482
aS'Gorseinon'
p3483
aS'25'
p3484
aS'12'
p3485
aS'1'
aS'6'
aa(lp3486
S'Brian Jones'
p3487
aS'1960'
p3488
aS'Centre'
p3489
aS'Cwmcarn'
p3490
aS'2'
aS'1'
aS'0'
aS'0'
aa(lp3491
S'Bryan Richards'
p3492
aS'1960'
p3493
aS'Fly-half'
p3494
aS'Neath'
p3495
aS'1'
aS'0'
aS'0'
aS'0'
aa(lp3496
S'Denis Evans'
p3497
aS'1960'
p3498
aS'Wing'
p3499
aS'Scunthorpe'
p3500
aS'1'
aS'0'
aS'0'
aS'0'
aa(lp3501
S'Kingsley Jones'
p3502
aS'1960'
p3503
aS'Prop'
p3504
aS'Pontypridd'
p3505
aS'14'
p3506
aS'4'
aS'0'
aS'0'
aa(lp3507
S'David Nash'
p3508
aS'1960'
p3509
aS'No. 8'
p3510
aS'Monmouth'
p3511
aS'6'
aS'3'
aS'0'
aS'0'
aa(lp3512
S"Tony O'Connor"
p3513
aS'1960'
p3514
aS'Scrum-half'
p3515
aS'Neath'
p3516
aS'5'
aS'2'
aS'0'
aS'0'
aa(lp3517
S'Ken Richards'
p3518
aS'1960'
p3519
aS'Fly-half'
p3520
aS'Bridgend'
p3521
aS'5'
aS'2'
aS'1'
aS'9'
aa(lp3522
S'Meirion Roberts'
p3523
aS'1960'
p3524
aS'Centre'
p3525
aS'Abergwyngregin'
p3526
aS'8'
aS'3'
aS'0'
aS'0'
aa(lp3527
S'Phil Morgan'
p3528
aS'1961'
p3529
aS'Prop'
p3530
aS'Hereford'
p3531
aS'3'
aS'1'
aS'0'
aS'0'
aa(lp3532
S'Peter Rees'
p3533
aS'1961'
p3534
aS'Wing'
p3535
aS'E Glamorgan'
p3536
aS'4'
aS'3'
aS'0'
aS'0'
aa(lp3537
S'Gordon Britton'
p3538
aS'1961'
p3539
aS'Centre'
p3540
aS'Risca'
p3541
aS'1'
aS'0'
aS'0'
aS'0'
aa(lp3542
S'Brian Price'
p3543
aS'1961'
p3544
aS'Lock'
p3545
aS'Bargoed'
p3546
aS'36'
p3547
aS'16'
p3548
aS'0'
aS'0'
aa(lp3549
S'Dave Thomas'
p3550
aS'1961'
p3551
aS'Centre'
p3552
aS'Pontrhydyfen'
p3553
aS'1'
aS'1'
aS'0'
aS'0'
aa(lp3554
S'Haydn Mainwaring'
p3555
aS'1961'
p3556
aS'Centre'
p3557
aS'Swansea'
p3558
aS'1'
aS'0'
aS'0'
aS'0'
aa(lp3559
S'Alun Pask'
p3560
aS'1961'
p3561
aS'No. 8'
p3562
aS'Blackwood'
p3563
aS'34'
p3564
aS'12'
p3565
aS'2'
aS'6'
aa(lp3566
S'Billy Thomas'
p3567
aS'1961'
p3568
aS'Hooker'
p3569
aS'Bargoed'
p3570
aS'2'
aS'0'
aS'0'
aS'0'
aa(lp3571
S'Kel Coslett'
p3572
aS'1962'
p3573
aS'Fullback'
p3574
aS'Bynea'
p3575
aS'3'
aS'1'
aS'0'
aS'3'
aa(lp3576
S'Ken Jones'
p3577
aS'1962'
p3578
aS'Centre'
p3579
aS'Cross Hands'
p3580
aS'20'
p3581
aS'7'
aS'5'
aS'15'
p3582
aa(lp3583
S'Robert Morgan'
p3584
aS'1962'
p3585
aS'Wing'
p3586
aS'Pontyberem'
p3587
aS'9'
aS'2'
aS'0'
aS'0'
aa(lp3588
S'Alan Rees'
p3589
aS'1962'
p3590
aS'Fly-half'
p3591
aS'Neath'
p3592
aS'3'
aS'1'
aS'0'
aS'3'
aa(lp3593
S'Des Greenslade'
p3594
aS'1962'
p3595
aS'Prop'
p3596
aS'Cwmcarn'
p3597
aS'1'
aS'0'
aS'0'
aS'0'
aa(lp3598
S'Keith Rowlands'
p3599
aS'1962'
p3600
aS'Lock'
p3601
aS'Brithdir'
p3602
aS'8'
aS'2'
aS'1'
aS'3'
aa(lp3603
S'Brian Davies'
p3604
aS'1962'
p3605
aS'Centre'
p3606
aS'Weston-super-Mare'
p3607
aS'3'
aS'1'
aS'0'
aS'0'
aa(lp3608
S'John Davies'
p3609
aS'1962'
p3610
aS'Flanker'
p3611
aS'Neath'
p3612
aS'1'
aS'0'
aS'0'
aS'0'
aa(lp3613
S'Grahame Hodgson'
p3614
aS'1962'
p3615
aS'Fullback'
p3616
aS'Ogmore Vale'
p3617
aS'15'
p3618
aS'5'
aS'0'
aS'12'
p3619
aa(lp3620
S'John Warlow'
p3621
aS'1962'
p3622
aS'Prop'
p3623
aS'Dafen'
p3624
aS'1'
aS'0'
aS'0'
aS'0'
aa(lp3625
S'David Hayward'
p3626
aS'1963'
p3627
aS'Flanker'
p3628
aS'Crumlin'
p3629
aS'6'
aS'2'
aS'1'
aS'3'
aa(lp3630
S'Roger Michaelson'
p3631
aS'1963'
p3632
aS'No. 8'
p3633
aS'Porthcawl'
p3634
aS'1'
aS'0'
aS'0'
aS'0'
aa(lp3635
S'Clive Rowlands'
p3636
aS'1963'
p3637
aS'Scrum-half'
p3638
aS'Upper Cwmtwrch'
p3639
aS'14'
p3640
aS'6'
aS'0'
aS'3'
aa(lp3641
S'Brian Thomas'
p3642
aS'1963'
p3643
aS'Lock'
p3644
aS'Pontwalby'
p3645
aS'21'
p3646
aS'9'
aS'1'
aS'3'
aa(lp3647
S'David Watkins'
p3648
aS'1963'
p3649
aS'Fly-half'
p3650
aS'Blaina'
p3651
aS'27'
p3652
aS'12'
p3653
aS'4'
aS'27'
p3654
aa(lp3655
S'Denzil Williams'
p3656
aS'1963'
p3657
aS'Prop'
p3658
aS'Trefil'
p3659
aS'41'
p3660
aS'21'
p3661
aS'1'
aS'3'
aa(lp3662
S'Ron Evans'
p3663
aS'1963'
p3664
aS'Centre'
p3665
aS'Bridgend'
p3666
aS'3'
aS'1'
aS'0'
aS'0'
aa(lp3667
S'Graham Jones'
p3668
aS'1963'
p3669
aS'Flanker'
p3670
aS'Garndiffaith'
p3671
aS'3'
aS'1'
aS'1'
aS'3'
aa(lp3672
S'Bill Morris'
p3673
aS'1963'
p3674
aS'Wing'
p3675
aS'Borth'
p3676
aS'2'
aS'1'
aS'0'
aS'0'
aa(lp3677
S'Howard Norris'
p3678
aS'1963'
p3679
aS'Prop'
p3680
aS'Porth'
p3681
aS'5'
aS'1'
aS'0'
aS'0'
aa(lp3682
S'Alan Thomas'
p3683
aS'1963'
p3684
aS'Flanker'
p3685
aS'Beckenham'
p3686
aS'2'
aS'0'
aS'0'
aS'0'
aa(lp3687
S'Dick Uzzell'
p3688
aS'1963'
p3689
aS'Centre'
p3690
aS'Bargoed'
p3691
aS'5'
aS'3'
aS'0'
aS'0'
aa(lp3692
S'Keith Bradshaw'
p3693
aS'1964'
p3694
aS'Centre'
p3695
aS'Cefn Cribbwr'
p3696
aS'9'
aS'5'
aS'1'
aS'36'
p3697
aa(lp3698
S'John Mantle'
p3699
aS'1964'
p3700
aS'No. 8'
p3701
aS'Cardiff'
p3702
aS'2'
aS'0'
aS'0'
aS'0'
aa(lp3703
S'David Weaver'
p3704
aS'1964'
p3705
aS'Wing'
p3706
aS'Glynneath'
p3707
aS'1'
aS'0'
aS'0'
aS'0'
aa(lp3708
S'Gareth Prothero'
p3709
aS'1964'
p3710
aS'Flanker'
p3711
aS'Beddau'
p3712
aS'11'
p3713
aS'8'
aS'1'
aS'3'
aa(lp3714
S'Stuart Watkins'
p3715
aS'1964'
p3716
aS'Wing'
p3717
aS'Newport'
p3718
aS'29'
p3719
aS'16'
p3720
aS'9'
aS'27'
p3721
aa(lp3722
S'John Dawes'
p3723
aS'1964'
p3724
aS'Centre'
p3725
aS'Chapel of Ease'
p3726
aS'26'
p3727
aS'15'
p3728
aS'4'
aS'12'
p3729
aa(lp3730
S'Terry Price'
p3731
aS'1965'
p3732
aS'Fullback'
p3733
aS'Hendy'
p3734
aS'8'
aS'4'
aS'0'
aS'45'
p3735
aa(lp3736
S'Ron Waldron'
p3737
aS'1965'
p3738
aS'Prop'
p3739
aS'Neath Abbey'
p3740
aS'4'
aS'3'
aS'0'
aS'0'
aa(lp3741
S'Bill Morris'
p3742
aS'1965'
p3743
aS'Lock'
p3744
aS'Melbourne'
p3745
aS'2'
aS'2'
aS'0'
aS'0'
aa(lp3746
S'Lyn Davies'
p3747
aS'1966'
p3748
aS'Wing'
p3749
aS'Blaengarw'
p3750
aS'3'
aS'2'
aS'0'
aS'0'
aa(lp3751
S'Allan Lewis'
p3752
aS'1966'
p3753
aS'Scrum-half'
p3754
aS'Pontypool'
p3755
aS'9'
aS'3'
aS'0'
aS'0'
aa(lp3756
S'John Lloyd'
p3757
aS'1966'
p3758
aS'Prop'
p3759
aS'Pontycymmer'
p3760
aS'24'
p3761
aS'14'
p3762
aS'0'
aS'0'
aa(lp3763
S'Ken Braddock'
p3764
aS'1966'
p3765
aS'Flanker'
p3766
aS'Treowen'
p3767
aS'3'
aS'0'
aS'0'
aS'0'
aa(lp3768
S'Gerald Davies'
p3769
aS'1966'
p3770
aS'Wing'
p3771
aS'Llansaint'
p3772
aS'51'
p3773
aS'31'
p3774
aS'23'
p3775
aS'81'
p3776
aa(lp3777
S'Barry John'
p3778
aS'1966'
p3779
aS'Fly-half'
p3780
aS'Cefneithin'
p3781
aS'30'
p3782
aS'16'
p3783
aS'6'
aS'120'
p3784
aa(lp3785
S'Delme Thomas'
p3786
aS'1966'
p3787
aS'Lock'
p3788
aS'Bancyfelin'
p3789
aS'32'
p3790
aS'16'
p3791
aS'0'
aS'0'
aa(lp3792
S'Billy Hullin'
p3793
aS'1967'
p3794
aS'Scrum-half'
p3795
aS'Loughor'
p3796
aS'1'
aS'0'
aS'0'
aS'0'
aa(lp3797
S'Billy Mainwaring'
p3798
aS'1967'
p3799
aS'Lock'
p3800
aS'Port Talbot'
p3801
aS'6'
aS'1'
aS'0'
aS'0'
aa(lp3802
S"John O'Shea"
p3803
aS'1967'
p3804
aS'Prop'
p3805
aS'Weston-super-Mare'
p3806
aS'6'
aS'1'
aS'0'
aS'0'
aa(lp3807
S'Billy Raybould'
p3808
aS'1967'
p3809
aS'Centre'
p3810
aS'Cardiff'
p3811
aS'11'
p3812
aS'3'
aS'0'
aS'3'
aa(lp3813
S'Brian Rees'
p3814
aS'1967'
p3815
aS'Hooker'
p3816
aS'Neath'
p3817
aS'3'
aS'0'
aS'0'
aS'0'
aa(lp3818
S'John Taylor'
p3819
aS'1967'
p3820
aS'Flanker'
p3821
aS'Watford'
p3822
aS'30'
p3823
aS'17'
p3824
aS'4'
aS'25'
p3825
aa(lp3826
S'Gareth Edwards'
p3827
aS'1967'
p3828
aS'Scrum-half'
p3829
aS'Glanaman'
p3830
aS'63'
p3831
aS'40'
p3832
aS'20'
p3833
aS'91'
p3834
aa(lp3835
S'Ron Jones'
p3836
aS'1967'
p3837
aS'No. 8'
p3838
aS'Neath'
p3839
aS'5'
aS'2'
aS'0'
aS'0'
aa(lp3840
S'Dai Morris'
p3841
aS'1967'
p3842
aS'Flanker'
p3843
aS'Rhigos'
p3844
aS'34'
p3845
aS'20'
p3846
aS'6'
aS'19'
p3847
aa(lp3848
S'Keith Jarrett'
p3849
aS'1967'
p3850
aS'Centre'
p3851
aS'Newport'
p3852
aS'10'
p3853
aS'6'
aS'2'
aS'73'
p3854
aa(lp3855
S'Ian Hall'
p3856
aS'1967'
p3857
aS'Centre'
p3858
aS'Gilfach Goch'
p3859
aS'8'
aS'4'
aS'0'
aS'0'
aa(lp3860
S'Dennis Hughes'
p3861
aS'1967'
p3862
aS'Flanker'
p3863
aS'Argoed'
p3864
aS'6'
aS'2'
aS'0'
aS'0'
aa(lp3865
S'John Jeffrey'
p3866
aS'1967'
p3867
aS'No. 8'
p3868
aS'Oakdale'
p3869
aS'1'
aS'0'
aS'0'
aS'0'
aa(lp3870
S'Keri Jones'
p3871
aS'1967'
p3872
aS'Wing'
p3873
aS'Neath'
p3874
aS'5'
aS'1'
aS'2'
aS'6'
aa(lp3875
S'Paul Wheeler'
p3876
aS'1967'
p3877
aS'Fullback'
p3878
aS'Newport'
p3879
aS'2'
aS'0'
aS'0'
aS'0'
aa(lp3880
S'Max Wiltshire'
p3881
aS'1967'
p3882
aS'Lock'
p3883
aS'Milsom Pt'
p3884
aS'4'
aS'1'
aS'0'
aS'0'
aa(lp3885
S'Tony Gray'
p3886
aS'1968'
p3887
aS'Flanker'
p3888
aS'Stoke-on-Trent'
p3889
aS'2'
aS'1'
aS'0'
aS'0'
aa(lp3890
S'Boyo James'
p3891
aS'1968'
p3892
aS'Prop'
p3893
aS'Blaengarw'
p3894
aS'1'
aS'0'
aS'0'
aS'0'
aa(lp3895
S'Bobby Wanbon'
p3896
aS'1968'
p3897
aS'No. 8'
p3898
aS'Port Talbot'
p3899
aS'1'
aS'0'
aS'1'
aS'3'
aa(lp3900
S'Doug Rees'
p3901
aS'1968'
p3902
aS'Fullback'
p3903
aS'Swansea'
p3904
aS'3'
aS'1'
aS'0'
aS'9'
aa(lp3905
S'Jeff Young'
p3906
aS'1968'
p3907
aS'Hooker'
p3908
aS'Blaengarw'
p3909
aS'24'
p3910
aS'15'
p3911
aS'0'
aS'0'
aa(lp3912
S'Ian Jones'
p3913
aS'1968'
p3914
aS'Lock'
p3915
aS'Vryburg'
p3916
aS'1'
aS'0'
aS'0'
aS'0'
aa(lp3917
S'Maurice Richards'
p3918
aS'1968'
p3919
aS'Wing'
p3920
aS'Ystrad'
p3921
aS'12'
p3922
aS'4'
aS'7'
aS'21'
p3923
aa(lp3924
S'Mervyn Davies'
p3925
aS'1969'
p3926
aS'No. 8'
p3927
aS'Swansea'
p3928
aS'46'
p3929
aS'31'
p3930
aS'2'
aS'7'
aa(lp3931
S'JPR Williams'
p3932
aS'1969'
p3933
aS'Fullback'
p3934
aS'Cardiff'
p3935
aS'63'
p3936
aS'42'
p3937
aS'6'
aS'39'
p3938
aa(lp3939
S'Phil Bennett'
p3940
aS'1969'
p3941
aS'Fly-half'
p3942
aS'Felinfoel'
p3943
aS'37'
p3944
aS'23'
p3945
aS'5'
aS'210'
p3946
aa(lp3947
S'Geoff Evans'
p3948
aS'1970'
p3949
aS'Lock'
p3950
aS'Llanelly'
p3951
aS'7'
aS'5'
aS'0'
aS'0'
aa(lp3952
S'Barry Llewelyn'
p3953
aS'1970'
p3954
aS'Prop'
p3955
aS'Lancs'
p3956
aS'13'
p3957
aS'10'
p3958
aS'1'
aS'3'
aa(lp3959
S'Vic Perrins'
p3960
aS'1970'
p3961
aS'Hooker'
p3962
aS'Newport'
p3963
aS'2'
aS'1'
aS'0'
aS'0'
aa(lp3964
S'Laurie Daniel'
p3965
aS'1970'
p3966
aS'Wing'
p3967
aS'Pontypool'
p3968
aS'1'
aS'1'
aS'1'
aS'5'
aa(lp3969
S'Ray Hopkins'
p3970
aS'1970'
p3971
aS'Scrum-half'
p3972
aS'Maesteg'
p3973
aS'2'
aS'2'
aS'1'
aS'3'
aa(lp3974
S'Keith Hughes'
p3975
aS'1970'
p3976
aS'Centre'
p3977
aS'Glanamman'
p3978
aS'3'
aS'2'
aS'0'
aS'0'
aa(lp3979
S'Stuart Gallacher'
p3980
aS'1970'
p3981
aS'Lock'
p3982
aS'Llanelly'
p3983
aS'1'
aS'1'
aS'0'
aS'0'
aa(lp3984
S'Arthur Lewis'
p3985
aS'1970'
p3986
aS'Centre'
p3987
aS'Crumlin'
p3988
aS'11'
p3989
aS'9'
aS'1'
aS'4'
aa(lp3990
S'Roy Mathias'
p3991
aS'1970'
p3992
aS'Wing'
p3993
aS'Llanelly'
p3994
aS'1'
aS'1'
aS'0'
aS'0'
aa(lp3995
S'Jim Shanklin'
p3996
aS'1970'
p3997
aS'Wing'
p3998
aS'Tenby'
p3999
aS'4'
aS'2'
aS'1'
aS'4'
aa(lp4000
S'John Bevan'
p4001
aS'1971'
p4002
aS'Wing'
p4003
aS'Tylorstown'
p4004
aS'11'
p4005
aS'9'
aS'5'
aS'19'
p4006
aa(lp4007
S'Mike Roberts'
p4008
aS'1971'
p4009
aS'Lock'
p4010
aS'St Asaph'
p4011
aS'8'
aS'6'
aS'1'
aS'4'
aa(lp4012
S'Roy Bergiers'
p4013
aS'1972'
p4014
aS'Centre'
p4015
aS'Carmarthen'
p4016
aS'11'
p4017
aS'7'
aS'2'
aS'8'
aa(lp4018
S'Derek Quinnell'
p4019
aS'1971'
p4020
aS'No. 8'
p4021
aS'Llanelly'
p4022
aS'28'
p4023
aS'17'
p4024
aS'1'
aS'4'
aa(lp4025
S'Glyn Shaw'
p4026
aS'1972'
p4027
aS'Prop'
p4028
aS'Rhigos'
p4029
aS'12'
p4030
aS'5'
aS'0'
aS'0'
aa(lp4031
S'Phil Llewellyn'
p4032
aS'1973'
p4033
aS'Prop'
p4034
aS'Swansea'
p4035
aS'5'
aS'3'
aS'0'
aS'0'
aa(lp4036
S'Tommy David'
p4037
aS'1973'
p4038
aS'Flanker'
p4039
aS'Pontypridd'
p4040
aS'4'
aS'3'
aS'0'
aS'0'
aa(lp4041
S'John Williams'
p4042
aS'1973'
p4043
aS'Wing'
p4044
aS'Nantyffyllon'
p4045
aS'37'
p4046
aS'24'
p4047
aS'17'
p4048
aS'68'
p4049
aa(lp4050
S'Allan Martin'
p4051
aS'1973'
p4052
aS'Lock'
p4053
aS'Port Talbot'
p4054
aS'35'
p4055
aS'23'
p4056
aS'1'
aS'25'
p4057
aa(lp4058
S'Bobby Windsor'
p4059
aS'1973'
p4060
aS'Hooker'
p4061
aS'Newport'
p4062
aS'33'
p4063
aS'22'
p4064
aS'1'
aS'4'
aa(lp4065
S'Clive Shell'
p4066
aS'1973'
p4067
aS'Scrum-half'
p4068
aS'Pyle'
p4069
aS'1'
aS'1'
aS'0'
aS'0'
aa(lp4070
S'Terry Cobner'
p4071
aS'1974'
p4072
aS'Flanker'
p4073
aS'Blaenavon'
p4074
aS'22'
p4075
aS'14'
p4076
aS'2'
aS'8'
aa(lp4077
S'Alex Finlayson'
p4078
aS'1974'
p4079
aS'Centre'
p4080
aS'Cardiff'
p4081
aS'3'
aS'0'
aS'0'
aS'0'
aa(lp4082
S'Clive Rees'
p4083
aS'1974'
p4084
aS'Wing'
p4085
aS'1951'
p4086
aS'13'
p4087
aS'5'
aS'0'
aS'0'
aa(lp4088
S'Geoff Wheel'
p4089
aS'1974'
p4090
aS'Lock'
p4091
aS'Swansea'
p4092
aS'32'
p4093
aS'22'
p4094
aS'0'
aS'0'
aa(lp4095
S'Walter Williams'
p4096
aS'1974'
p4097
aS'Prop'
p4098
aS'Neath'
p4099
aS'2'
aS'0'
aS'0'
aS'0'
aa(lp4100
S'Ian Robinson'
p4101
aS'1974'
p4102
aS'Lock'
p4103
aS'Cardiff'
p4104
aS'2'
aS'0'
aS'0'
aS'0'
aa(lp4105
S'Roger Blyth'
p4106
aS'1974'
p4107
aS'Fullback'
p4108
aS'Swansea'
p4109
aS'6'
aS'2'
aS'1'
aS'6'
aa(lp4110
S'John Bevan'
p4111
aS'1975'
p4112
aS'Fly-half'
p4113
aS'Neath'
p4114
aS'4'
aS'3'
aS'0'
aS'3'
aa(lp4115
S'Trefor Evans'
p4116
aS'1975'
p4117
aS'Flanker'
p4118
aS'Lancs'
p4119
aS'11'
p4120
aS'9'
aS'2'
aS'8'
aa(lp4121
S'Charlie Faulkner'
p4122
aS'1975'
p4123
aS'Prop'
p4124
aS'Newport'
p4125
aS'19'
p4126
aS'14'
p4127
aS'1'
aS'4'
aa(lp4128
S'Steve Fenwick'
p4129
aS'1975'
p4130
aS'Centre'
p4131
aS'Caerphilly'
p4132
aS'34'
p4133
aS'21'
p4134
aS'4'
aS'152'
p4135
aa(lp4136
S'Ray Gravell'
p4137
aS'1975'
p4138
aS'Centre'
p4139
aS'Kidwelly'
p4140
aS'27'
p4141
aS'17'
p4142
aS'2'
aS'8'
aa(lp4143
S'Graham Price'
p4144
aS'1975'
p4145
aS'Prop'
p4146
aS'Moascar'
p4147
aS'53'
p4148
aS'27'
p4149
aS'3'
aS'12'
p4150
aa(lp4151
S'Mike Knill'
p4152
aS'1976'
p4153
aS'Prop'
p4154
aS'Monkton'
p4155
aS'1'
aS'1'
aS'0'
aS'0'
aa(lp4156
S'David Burcher'
p4157
aS'1977'
p4158
aS'Centre'
p4159
aS'Newport'
p4160
aS'5'
aS'3'
aS'0'
aS'0'
aa(lp4161
S'Clive Burgess'
p4162
aS'1977'
p4163
aS'Flanker'
p4164
aS'Manmoel'
p4165
aS'9'
aS'5'
aS'1'
aS'4'
aa(lp4166
S'Jeff Squire'
p4167
aS'1977'
p4168
aS'Flanker'
p4169
aS'Pontywaun'
p4170
aS'35'
p4171
aS'17'
p4172
aS'3'
aS'12'
p4173
aa(lp4174
S'Gareth Evans'
p4175
aS'1977'
p4176
aS'Wing'
p4177
aS'Newport'
p4178
aS'6'
aS'2'
aS'0'
aS'0'
aa(lp4179
S'Clive Williams'
p4180
aS'1977'
p4181
aS'Prop'
p4182
aS'Porthcawl'
p4183
aS'12'
p4184
aS'5'
aS'1'
aS'4'
aa(lp4185
S'Gareth Davies'
p4186
aS'1978'
p4187
aS'Fly-half'
p4188
aS'Carmarthen'
p4189
aS'22'
p4190
aS'9'
aS'0'
aS'46'
p4191
aa(lp4192
S'Brynmor Williams'
p4193
aS'1977'
p4194
aS'Scrum-half'
p4195
aS'Cardigan'
p4196
aS'6'
aS'2'
aS'1'
aS'4'
aa(lp4197
S'Stuart Lane'
p4198
aS'1978'
p4199
aS'Flanker'
p4200
aS'Tredegar'
p4201
aS'5'
aS'2'
aS'0'
aS'0'
aa(lp4202
S'Clive Davis'
p4203
aS'1978'
p4204
aS'Lock'
p4205
aS'Tredegar'
p4206
aS'3'
aS'1'
aS'1'
aS'4'
aa(lp4207
S'Alun Donovan'
p4208
aS'1978'
p4209
aS'Centre'
p4210
aS'Abercrave'
p4211
aS'5'
aS'2'
aS'0'
aS'0'
aa(lp4212
S'Terry Holmes'
p4213
aS'1978'
p4214
aS'Scrum-half'
p4215
aS'Cardiff'
p4216
aS'26'
p4217
aS'13'
p4218
aS'9'
aS'36'
p4219
aa(lp4220
S'John Richardson'
p4221
aS'1978'
p4222
aS'Prop'
p4223
aS'Blaencwm'
p4224
aS'2'
aS'1'
aS'0'
aS'0'
aa(lp4225
S'Paul Ringer'
p4226
aS'1978'
p4227
aS'Flanker'
p4228
aS'Leeds'
p4229
aS'8'
aS'4'
aS'2'
aS'8'
aa(lp4230
S'Elgan Rees'
p4231
aS'1977'
p4232
aS'Wing'
p4233
aS'Clydach'
p4234
aS'14'
p4235
aS'7'
aS'6'
aS'24'
p4236
aa(lp4237
S'Barry Clegg'
p4238
aS'1979'
p4239
aS'Lock'
p4240
aS'Cymmer'
p4241
aS'1'
aS'0'
aS'0'
aS'0'
aa(lp4242
S'David Richards'
p4243
aS'1979'
p4244
aS'Centre'
p4245
aS'Cwmgwrach'
p4246
aS'18'
p4247
aS'8'
aS'4'
aS'16'
p4248
aa(lp4249
S'Allan Phillips'
p4250
aS'1979'
p4251
aS'Hooker'
p4252
aS'Kenfig Hill'
p4253
aS'18'
p4254
aS'10'
p4255
aS'1'
aS'4'
aa(lp4256
S'Clive Griffiths'
p4257
aS'1979'
p4258
aS'Fullback'
p4259
aS'Loughor'
p4260
aS'1'
aS'1'
aS'0'
aS'0'
aa(lp4261
S'Eddie Butler'
p4262
aS'1980'
p4263
aS'No. 8'
p4264
aS'Newport'
p4265
aS'16'
p4266
aS'6'
aS'2'
aS'8'
aa(lp4267
S'Les Keen'
p4268
aS'1980'
p4269
aS'Wing'
p4270
aS'Port Talbot'
p4271
aS'4'
aS'2'
aS'1'
aS'4'
aa(lp4272
S'Peter Morgan'
p4273
aS'1980'
p4274
aS'Centre'
p4275
aS'Broadhaven'
p4276
aS'4'
aS'2'
aS'0'
aS'0'
aa(lp4277
S'Rob Ackerman'
p4278
aS'1980'
p4279
aS'Centre'
p4280
aS'Ebbw Vale'
p4281
aS'24'
p4282
aS'10'
p4283
aS'1'
aS'4'
aa(lp4284
S'Gareth Williams'
p4285
aS'1980'
p4286
aS'No. 8'
p4287
aS'Bedlinog'
p4288
aS'5'
aS'2'
aS'0'
aS'0'
aa(lp4289
S'Rhodri Lewis'
p4290
aS'1981'
p4291
aS'Flanker'
p4292
aS'Maesteg'
p4293
aS'7'
aS'3'
aS'1'
aS'4'
aa(lp4294
S'David Nicholas'
p4295
aS'1981'
p4296
aS'Wing'
p4297
aS'Llanelly'
p4298
aS'4'
aS'2'
aS'0'
aS'0'
aa(lp4299
S'Ian Stephens'
p4300
aS'1981'
p4301
aS'Prop'
p4302
aS'Tongwynlais'
p4303
aS'14'
p4304
aS'6'
aS'0'
aS'0'
aa(lp4305
S'Gwyn Evans'
p4306
aS'1981'
p4307
aS'Fullback'
p4308
aS'Maesteg'
p4309
aS'12'
p4310
aS'3'
aS'0'
aS'77'
p4311
aa(lp4312
S'Gary Pearce'
p4313
aS'1981'
p4314
aS'Fly-half'
p4315
aS'Laugharne'
p4316
aS'3'
aS'1'
aS'0'
aS'6'
aa(lp4317
S'Gerald Williams'
p4318
aS'1981'
p4319
aS'Scrum-half'
p4320
aS'Swansea'
p4321
aS'4'
aS'1'
aS'0'
aS'0'
aa(lp4322
S'Pat Daniels'
p4323
aS'1981'
p4324
aS'Centre'
p4325
aS'Cardiff'
p4326
aS'2'
aS'1'
aS'0'
aS'0'
aa(lp4327
S'Mark Davies'
p4328
aS'1981'
p4329
aS'Flanker'
p4330
aS'Maesteg'
p4331
aS'3'
aS'2'
aS'0'
aS'0'
aa(lp4332
S'Dick Moriarty'
p4333
aS'1981'
p4334
aS'Lock'
p4335
aS'Gorseinon'
p4336
aS'22'
p4337
aS'13'
p4338
aS'2'
aS'8'
aa(lp4339
S'Steve Sutton'
p4340
aS'1982'
p4341
aS'Lock'
p4342
aS'Abertillery'
p4343
aS'9'
aS'4'
aS'0'
aS'0'
aa(lp4344
S'Bob Norster'
p4345
aS'1982'
p4346
aS'Lock'
p4347
aS'Ebbw Vale'
p4348
aS'37'
p4349
aS'20'
p4350
aS'2'
aS'8'
aa(lp4351
S'Malcolm Dacey'
p4352
aS'1983'
p4353
aS'Fly-half'
p4354
aS'Swansea'
p4355
aS'15'
p4356
aS'8'
aS'0'
aS'36'
p4357
aa(lp4358
S'Billy James'
p4359
aS'1983'
p4360
aS'Hooker'
p4361
aS'Port Talbot'
p4362
aS'21'
p4363
aS'11'
p4364
aS'1'
aS'4'
aa(lp4365
S'Dai Pickering'
p4366
aS'1983'
p4367
aS'Flanker'
p4368
aS'Briton Ferry'
p4369
aS'23'
p4370
aS'11'
p4371
aS'3'
aS'12'
p4372
aa(lp4373
S'Mark Ring'
p4374
aS'1983'
p4375
aS'Centre'
p4376
aS'Cardiff'
p4377
aS'32'
p4378
aS'11'
p4379
aS'1'
aS'34'
p4380
aa(lp4381
S'Mark Wyatt'
p4382
aS'1983'
p4383
aS'Fullback'
p4384
aS'Crickhowell'
p4385
aS'10'
p4386
aS'4'
aS'1'
aS'81'
p4387
aa(lp4388
S'Ian Eidman'
p4389
aS'1983'
p4390
aS'Prop'
p4391
aS'Cardiff'
p4392
aS'13'
p4393
aS'7'
aS'0'
aS'0'
aa(lp4394
S'Staff Jones'
p4395
aS'1983'
p4396
aS'Prop'
p4397
aS'Ynysybwl'
p4398
aS'13'
p4399
aS'4'
aS'1'
aS'4'
aa(lp4400
S'John Perkins'
p4401
aS'1983'
p4402
aS'Lock'
p4403
aS'Blaenavon'
p4404
aS'18'
p4405
aS'9'
aS'0'
aS'0'
aa(lp4406
S'Richard Donovan'
p4407
aS'1983'
p4408
aS''
aS'Llanharan'
p4409
aS'1'
aS'0'
aS'0'
aS'0'
aa(lp4410
S'Bleddyn Bowen'
p4411
aS'1983'
p4412
aS'Centre'
p4413
aS'Trebanos'
p4414
aS'24'
p4415
aS'15'
p4416
aS'5'
aS'37'
p4417
aa(lp4418
S'Mark Brown'
p4419
aS'1983'
p4420
aS'Flanker'
p4421
aS'Newport'
p4422
aS'6'
aS'4'
aS'0'
aS'0'
aa(lp4423
S'Ray Giles'
p4424
aS'1983'
p4425
aS'Scrum-half'
p4426
aS'Kenfig Hill'
p4427
aS'3'
aS'2'
aS'0'
aS'0'
aa(lp4428
S'Adrian Hadley'
p4429
aS'1983'
p4430
aS'Centre, Wing'
p4431
aS'Cardiff'
p4432
aS'27'
p4433
aS'17'
p4434
aS'9'
aS'36'
p4435
aa(lp4436
S'Terry Shaw'
p4437
aS'1983'
p4438
aS'Lock'
p4439
aS'Ystrad Mynach'
p4440
aS'1'
aS'0'
aS'0'
aS'0'
aa(lp4441
S'Mark Titley'
p4442
aS'1983'
p4443
aS'Wing'
p4444
aS'Swansea'
p4445
aS'15'
p4446
aS'7'
aS'4'
aS'16'
p4447
aa(lp4448
S'Howell Davies'
p4449
aS'1984'
p4450
aS'Fullback'
p4451
aS'Pyle'
p4452
aS'4'
aS'2'
aS'1'
aS'39'
p4453
aa(lp4454
S'Mark Douglas'
p4455
aS'1984'
p4456
aS'Scrum-half'
p4457
aS'Aberystwyth'
p4458
aS'3'
aS'1'
aS'0'
aS'0'
aa(lp4459
S'Rhys Morgan'
p4460
aS'1984'
p4461
aS'Prop'
p4462
aS'Southerndown'
p4463
aS'1'
aS'0'
aS'0'
aS'0'
aa(lp4464
S'Mike Watkins'
p4465
aS'1984'
p4466
aS'Hooker'
p4467
aS'Abercarn'
p4468
aS'4'
aS'2'
aS'0'
aS'0'
aa(lp4469
S'David Bishop'
p4470
aS'1984'
p4471
aS'Scrum-half'
p4472
aS'Cardiff'
p4473
aS'1'
aS'0'
aS'1'
aS'4'
aa(lp4474
S'Alun Davies'
p4475
aS'1984'
p4476
aS'Flanker'
p4477
aS'Carmarthen'
p4478
aS'1'
aS'0'
aS'0'
aS'0'
aa(lp4479
S'Phil Lewis'
p4480
aS'1984'
p4481
aS'Wing'
p4482
aS'Swansea'
p4483
aS'8'
aS'4'
aS'2'
aS'8'
aa(lp4484
S'Jeff Whitefoot'
p4485
aS'1984'
p4486
aS'Prop'
p4487
aS'Bedwas'
p4488
aS'19'
p4489
aS'11'
p4490
aS'0'
aS'0'
aa(lp4491
S'Martyn Morris'
p4492
aS'1985'
p4493
aS'Flanker'
p4494
aS'Neath'
p4495
aS'11'
p4496
aS'3'
aS'0'
aS'0'
aa(lp4497
S'Stuart Evans'
p4498
aS'1985'
p4499
aS'Prop'
p4500
aS'Neath'
p4501
aS'9'
aS'7'
aS'1'
aS'4'
aa(lp4502
S'Paul Thorburn'
p4503
aS'1985'
p4504
aS'Fullback'
p4505
aS'Rheindalen'
p4506
aS'37'
p4507
aS'16'
p4508
aS'2'
aS'304'
p4509
aa(lp4510
S'Gareth Roberts'
p4511
aS'1985'
p4512
aS'No. 8'
p4513
aS'Pontlliw'
p4514
aS'7'
aS'6'
aS'3'
aS'12'
p4515
aa(lp4516
S'Jonathan Davies'
p4517
aS'1985'
p4518
aS'Fly-half'
p4519
aS'Trimsaran'
p4520
aS'32'
p4521
aS'19'
p4522
aS'5'
aS'81'
p4523
aa(lp4524
S'Phil Davies'
p4525
aS'1985'
p4526
aS'Lock'
p4527
aS'Seven Sisters'
p4528
aS'46'
p4529
aS'22'
p4530
aS'5'
aS'21'
p4531
aa(lp4532
S'Kevin Hopkins'
p4533
aS'1985'
p4534
aS'Centre'
p4535
aS'Cwmllynfell'
p4536
aS'7'
aS'5'
aS'0'
aS'0'
aa(lp4537
S'John Devereux'
p4538
aS'1986'
p4539
aS'Centre, Wing'
p4540
aS'Pontycymmer'
p4541
aS'21'
p4542
aS'10'
p4543
aS'5'
aS'20'
p4544
aa(lp4545
S'Robert Jones'
p4546
aS'1986'
p4547
aS'Scrum-half'
p4548
aS'Trebanos'
p4549
aS'57'
p4550
aS'24'
p4551
aS'4'
aS'19'
p4552
aa(lp4553
S'David Waters'
p4554
aS'1986'
p4555
aS'Lock'
p4556
aS'Newport'
p4557
aS'4'
aS'2'
aS'0'
aS'0'
aa(lp4558
S'Paul Moriarty'
p4559
aS'1986'
p4560
aS'Flanker'
p4561
aS'Morriston'
p4562
aS'21'
p4563
aS'14'
p4564
aS'4'
aS'16'
p4565
aa(lp4566
S'Huw Richards'
p4567
aS'1986'
p4568
aS'Lock'
p4569
aS'Carmarthen'
p4570
aS'4'
aS'3'
aS'0'
aS'0'
aa(lp4571
S'Glen Webbe'
p4572
aS'1986'
p4573
aS'Wing'
p4574
aS'Cardiff'
p4575
aS'10'
p4576
aS'5'
aS'4'
aS'16'
p4577
aa(lp4578
S'Ieuan Evans'
p4579
aS'1987'
p4580
aS'Wing'
p4581
aS'Capel Dewi'
p4582
aS'79'
p4583
aS'34'
p4584
aS'34'
p4585
aS'161'
p4586
aa(lp4587
S'Kevin Phillips'
p4588
aS'1987'
p4589
aS'Hooker'
p4590
aS'Whitland'
p4591
aS'20'
p4592
aS'6'
aS'0'
aS'0'
aa(lp4593
S'Richie Collins'
p4594
aS'1987'
p4595
aS'Flanker'
p4596
aS'Cardiff'
p4597
aS'28'
p4598
aS'12'
p4599
aS'2'
aS'9'
aa(lp4600
S'Peter Francis'
p4601
aS'1987'
p4602
aS'Prop'
p4603
aS'Cowbridge'
p4604
aS'1'
aS'0'
aS'0'
aS'0'
aa(lp4605
S'Mark Jones'
p4606
aS'1987'
p4607
aS'Back-row'
p4608
aS'Tredegar'
p4609
aS'15'
p4610
aS'4'
aS'2'
aS'8'
aa(lp4611
S'Steven Blackmore'
p4612
aS'1987'
p4613
aS'Prop'
p4614
aS'Cardiff'
p4615
aS'4'
aS'3'
aS'0'
aS'0'
aa(lp4616
S'Anthony Buchanan'
p4617
aS'1987'
p4618
aS'Prop'
p4619
aS'Ystradgynlais'
p4620
aS'5'
aS'4'
aS'0'
aS'0'
aa(lp4621
S'Dai Young'
p4622
aS'1987'
p4623
aS'Prop'
p4624
aS'Aberdare'
p4625
aS'54'
p4626
aS'28'
p4627
aS'1'
aS'4'
aa(lp4628
S'Richard Webster'
p4629
aS'1987'
p4630
aS'Flanker'
p4631
aS'Swansea'
p4632
aS'13'
p4633
aS'5'
aS'1'
aS'4'
aa(lp4634
S'Rowland Phillips'
p4635
aS'1987'
p4636
aS'Back-row'
p4637
aS"St David's"
p4638
aS'10'
p4639
aS'5'
aS'0'
aS'0'
aa(lp4640
S'Jeremy Pugh'
p4641
aS'1987'
p4642
aS'Prop'
p4643
aS'Builth Wells'
p4644
aS'3'
aS'2'
aS'0'
aS'0'
aa(lp4645
S'Stuart Russell'
p4646
aS'1987'
p4647
aS'Lock'
p4648
aS'1963'
p4649
aS'1'
aS'1'
aS'0'
aS'0'
aa(lp4650
S'Tony Clement'
p4651
aS'1987'
p4652
aS'Fullback'
p4653
aS'Morriston'
p4654
aS'37'
p4655
aS'16'
p4656
aS'3'
aS'16'
p4657
aa(lp4658
S'Phil May'
p4659
aS'1988'
p4660
aS'Lock'
p4661
aS'Carmarthen'
p4662
aS'7'
aS'3'
aS'0'
aS'0'
aa(lp4663
S'Ian Watkins'
p4664
aS'1988'
p4665
aS'Hooker'
p4666
aS'Ebbw Vale'
p4667
aS'10'
p4668
aS'4'
aS'1'
aS'4'
aa(lp4669
S'David Bryant'
p4670
aS'1988'
p4671
aS'Flanker'
p4672
aS'Bridgend'
p4673
aS'8'
aS'2'
aS'0'
aS'0'
aa(lp4674
S'Tim Fauvel'
p4675
aS'1988'
p4676
aS'No. 8'
p4677
aS'Bridgend'
p4678
aS'1'
aS'0'
aS'0'
aS'0'
aa(lp4679
S'Mike Hall'
p4680
aS'1988'
p4681
aS'Centre'
p4682
aS'Bridgend'
p4683
aS'43'
p4684
aS'16'
p4685
aS'7'
aS'33'
p4686
aa(lp4687
S'Nigel Davies'
p4688
aS'1988'
p4689
aS'Centre'
p4690
aS'Llanelly'
p4691
aS'29'
p4692
aS'13'
p4693
aS'5'
aS'23'
p4694
aa(lp4695
S'Jonathan Griffiths'
p4696
aS'1988'
p4697
aS'Scrum-half'
p4698
aS'Carmarthen'
p4699
aS'2'
aS'0'
aS'0'
aS'0'
aa(lp4700
S'Gary Jones'
p4701
aS'1988'
p4702
aS'Flanker'
p4703
aS'Porth'
p4704
aS'5'
aS'1'
aS'0'
aS'0'
aa(lp4705
S'Kevin Moseley'
p4706
aS'1988'
p4707
aS'Lock'
p4708
aS'Caerphilly'
p4709
aS'9'
aS'1'
aS'0'
aS'0'
aa(lp4710
S'Jonathan Mason'
p4711
aS'1988'
p4712
aS'Fullback'
p4713
aS'Aberdare'
p4714
aS'1'
aS'0'
aS'0'
aS'0'
aa(lp4715
S'Carwyn Davies'
p4716
aS'1988'
p4717
aS'Wing'
p4718
aS'Llandovery'
p4719
aS'4'
aS'1'
aS'1'
aS'4'
aa(lp4720
S'Mike Griffiths'
p4721
aS'1988'
p4722
aS'Prop'
p4723
aS'Tonypandy'
p4724
aS'35'
p4725
aS'12'
p4726
aS'0'
aS'0'
aa(lp4727
S'Wayne Hall'
p4728
aS'1988'
p4729
aS'Hooker'
p4730
aS'Pencoed'
p4731
aS'1'
aS'1'
aS'0'
aS'0'
aa(lp4732
S'John Wakeford'
p4733
aS'1988'
p4734
aS'Lock'
p4735
aS'Cardiff'
p4736
aS'2'
aS'1'
aS'1'
aS'4'
aa(lp4737
S'Richard Wintle'
p4738
aS'1988'
p4739
aS'Wing, Centre'
p4740
aS'Kenfig Hill'
p4741
aS'1'
aS'1'
aS'0'
aS'0'
aa(lp4742
S'Richard Diplock'
p4743
aS'1988'
p4744
aS'Wing'
p4745
aS'Ebbw Vale'
p4746
aS'1'
aS'0'
aS'0'
aS'0'
aa(lp4747
S'Hugh Williams-Jones'
p4748
aS'1989'
p4749
aS'Prop'
p4750
aS'Bryncethin'
p4751
aS'17'
p4752
aS'7'
aS'0'
aS'0'
aa(lp4753
S'Laurance Delaney'
p4754
aS'1989'
p4755
aS'Prop'
p4756
aS'Llanelly'
p4757
aS'11'
p4758
aS'3'
aS'0'
aS'0'
aa(lp4759
S'Paul Turner'
p4760
aS'1989'
p4761
aS'Fly-half'
p4762
aS'Newport'
p4763
aS'3'
aS'1'
aS'0'
aS'0'
aa(lp4764
S'David Evans'
p4765
aS'1989'
p4766
aS'Fly-half'
p4767
aS'Wootton Bassett'
p4768
aS'12'
p4769
aS'2'
aS'0'
aS'6'
aa(lp4770
S'Arthur Jones'
p4771
aS'1989'
p4772
aS'Wing'
p4773
aS'Bangor'
p4774
aS'13'
p4775
aS'4'
aS'4'
aS'16'
p4776
aa(lp4777
S'Gareth Llewellyn'
p4778
aS'1989'
p4779
aS'Lock'
p4780
aS'Cardiff'
p4781
aS'92'
p4782
aS'38'
p4783
aS'5'
aS'24'
p4784
aa(lp4785
S'Phil Pugh'
p4786
aS'1989'
p4787
aS'Flanker'
p4788
aS'Seven Sisters'
p4789
aS'1'
aS'0'
aS'0'
aS'0'
aa(lp4790
S'Andy Allen'
p4791
aS'1990'
p4792
aS'Lock'
p4793
aS'Newport'
p4794
aS'3'
aS'0'
aS'0'
aS'0'
aa(lp4795
S'Allan Bateman'
p4796
aS'1990'
p4797
aS'Centre'
p4798
aS'Maesteg'
p4799
aS'36'
p4800
aS'21'
p4801
aS'10'
p4802
aS'50'
p4803
aa(lp4804
S'Mark Perego'
p4805
aS'1990'
p4806
aS'Flanker'
p4807
aS'Hants'
p4808
aS'9'
aS'6'
aS'0'
aS'0'
aa(lp4809
S'Brian Williams'
p4810
aS'1990'
p4811
aS'Prop'
p4812
aS'Penffordd'
p4813
aS'5'
aS'0'
aS'0'
aS'0'
aa(lp4814
S'Steve Ford'
p4815
aS'1990'
p4816
aS'Wing'
p4817
aS'Cardiff'
p4818
aS'8'
aS'2'
aS'2'
aS'8'
aa(lp4819
S'Alan Edmunds'
p4820
aS'1990'
p4821
aS'Wing'
p4822
aS'Neath'
p4823
aS'2'
aS'0'
aS'0'
aS'0'
aa(lp4824
S'Paul Arnold'
p4825
aS'1990'
p4826
aS'No. 8, Lock'
p4827
aS'Morriston'
p4828
aS'16'
p4829
aS'7'
aS'2'
aS'8'
aa(lp4830
S'Chris Bridges'
p4831
aS'1990'
p4832
aS'Scrum-half'
p4833
aS'Beddau'
p4834
aS'7'
aS'2'
aS'1'
aS'4'
aa(lp4835
S'Paul Knight'
p4836
aS'1990'
p4837
aS'Prop'
p4838
aS'Tonypandy'
p4839
aS'5'
aS'2'
aS'0'
aS'0'
aa(lp4840
S'Glyn Llewellyn'
p4841
aS'1990'
p4842
aS'Lock'
p4843
aS'Bradford-on-Avon'
p4844
aS'9'
aS'2'
aS'0'
aS'0'
aa(lp4845
S'Alan Reynolds'
p4846
aS'1990'
p4847
aS'Flanker'
p4848
aS'Carmarthen'
p4849
aS'3'
aS'2'
aS'0'
aS'0'
aa(lp4850
S'Stuart Parfitt'
p4851
aS'1990'
p4852
aS'Centre'
p4853
aS'Usk'
p4854
aS'2'
aS'1'
aS'0'
aS'0'
aa(lp4855
S'Owain Williams'
p4856
aS'1990'
p4857
aS'Flanker'
p4858
aS'Ogmore-by-Sea'
p4859
aS'1'
aS'1'
aS'1'
aS'4'
aa(lp4860
S'Aled Williams'
p4861
aS'1990'
p4862
aS'Fly-half'
p4863
aS'Cardigan'
p4864
aS'2'
aS'2'
aS'0'
aS'0'
aa(lp4865
S'Adrian Davies'
p4866
aS'1990'
p4867
aS'Fly-half'
p4868
aS'Bridgend'
p4869
aS'9'
aS'5'
aS'0'
aS'22'
p4870
aa(lp4871
S'Alun Carter'
p4872
aS'1991'
p4873
aS'Flanker'
p4874
aS'Newport'
p4875
aS'2'
aS'0'
aS'0'
aS'0'
aa(lp4876
S'Glenn George'
p4877
aS'1991'
p4878
aS'Flanker'
p4879
aS'Newport'
p4880
aS'2'
aS'0'
aS'0'
aS'0'
aa(lp4881
S'Scott Gibbs'
p4882
aS'1991'
p4883
aS'Centre'
p4884
aS'Bridgend'
p4885
aS'58'
p4886
aS'27'
p4887
aS'11'
p4888
aS'55'
p4889
aa(lp4890
S'Neil Jenkins'
p4891
aS'1991'
p4892
aS'Fly-half'
p4893
aS'Church Village'
p4894
aS'91'
p4895
aS'46'
p4896
aS'11'
p4897
aS'1090'
p4898
aa(lp4899
S'John Davies'
p4900
aS'1991'
p4901
aS'Prop'
p4902
aS'Carmarthen'
p4903
aS'34'
p4904
aS'16'
p4905
aS'1'
aS'5'
aa(lp4906
S'Emyr Lewis'
p4907
aS'1991'
p4908
aS'No. 8'
p4909
aS'Carmarthen'
p4910
aS'41'
p4911
aS'19'
p4912
aS'3'
aS'15'
p4913
aa(lp4914
S'Mark Davis'
p4915
aS'1991'
p4916
aS'Prop'
p4917
aS'Newport'
p4918
aS'1'
aS'0'
aS'0'
aS'0'
aa(lp4919
S'Garin Jenkins'
p4920
aS'1991'
p4921
aS'Hooker'
p4922
aS'Ynysybwl'
p4923
aS'58'
p4924
aS'34'
p4925
aS'2'
aS'10'
p4926
aa(lp4927
S'Luc Evans'
p4928
aS'1991'
p4929
aS'Fly-half'
p4930
aS'Treherbert'
p4931
aS'1'
aS'0'
aS'0'
aS'0'
aa(lp4932
S'Ken Waters'
p4933
aS'1991'
p4934
aS'Hooker'
p4935
aS'Cwmbran'
p4936
aS'1'
aS'0'
aS'0'
aS'0'
aa(lp4937
S'Mike Rayer'
p4938
aS'1991'
p4939
aS'Fullback'
p4940
aS'Cardiff'
p4941
aS'21'
p4942
aS'13'
p4943
aS'4'
aS'23'
p4944
aa(lp4945
S'Tony Copsey'
p4946
aS'1992'
p4947
aS'Lock'
p4948
aS'Essex'
p4949
aS'16'
p4950
aS'8'
aS'0'
aS'0'
aa(lp4951
S'Stuart Davies'
p4952
aS'1992'
p4953
aS'No. 8'
p4954
aS'Swansea'
p4955
aS'17'
p4956
aS'9'
aS'2'
aS'9'
aa(lp4957
S'Colin Stephens'
p4958
aS'1992'
p4959
aS'Fly-half'
p4960
aS'Morriston'
p4961
aS'4'
aS'1'
aS'0'
aS'9'
aa(lp4962
S'Roger Bidgood'
p4963
aS'1992'
p4964
aS'Centre'
p4965
aS'Caerphilly'
p4966
aS'5'
aS'5'
aS'1'
aS'5'
aa(lp4967
S'Wayne Proctor'
p4968
aS'1992'
p4969
aS'Wing'
p4970
aS'Bridgend'
p4971
aS'39'
p4972
aS'20'
p4973
aS'11'
p4974
aS'55'
p4975
aa(lp4976
S'Ricky Evans'
p4977
aS'1993'
p4978
aS'Prop'
p4979
aS'Cardigan'
p4980
aS'19'
p4981
aS'10'
p4982
aS'0'
aS'0'
aa(lp4983
S'Nigel Meek'
p4984
aS'1993'
p4985
aS'Hooker'
p4986
aS'Blaina'
p4987
aS'3'
aS'1'
aS'0'
aS'0'
aa(lp4988
S'Nigel Walker'
p4989
aS'1993'
p4990
aS'Wing'
p4991
aS'Cardiff'
p4992
aS'17'
p4993
aS'10'
p4994
aS'12'
p4995
aS'60'
p4996
aa(lp4997
S'Andrew Lamerton'
p4998
aS'1993'
p4999
aS'Hooker'
p5000
aS'Pontypridd'
p5001
aS'5'
aS'4'
aS'0'
aS'0'
aa(lp5002
S'Rupert Moon'
p5003
aS'1993'
p5004
aS'Scrum-half'
p5005
aS'Birmingham'
p5006
aS'24'
p5007
aS'16'
p5008
aS'3'
aS'15'
p5009
aa(lp5010
S'Simon Hill'
p5011
aS'1993'
p5012
aS'Wing'
p5013
aS'Barry'
p5014
aS'12'
p5015
aS'6'
aS'2'
aS'10'
p5016
aa(lp5017
S'Lyn Jones'
p5018
aS'1993'
p5019
aS'Flanker'
p5020
aS'Cwmasfan'
p5021
aS'5'
aS'4'
aS'0'
aS'0'
aa(lp5022
S'Neil Boobyer'
p5023
aS'1993'
p5024
aS'Centre'
p5025
aS'Bridgend'
p5026
aS'7'
aS'6'
aS'0'
aS'0'
aa(lp5027
S'Scott Quinnell'
p5028
aS'1993'
p5029
aS'No. 8'
p5030
aS'Llanelli'
p5031
aS'55'
p5032
aS'31'
p5033
aS'12'
p5034
aS'60'
p5035
aa(lp5036
S'Hemi Taylor'
p5037
aS'1994'
p5038
aS'Flanker'
p5039
aS'Morrinsville'
p5040
aS'24'
p5041
aS'11'
p5042
aS'5'
aS'25'
p5043
aa(lp5044
S'Robin McBryde'
p5045
aS'1994'
p5046
aS'Hooker'
p5047
aS'Bangor'
p5048
aS'37'
p5049
aS'17'
p5050
aS'1'
aS'5'
aa(lp5051
S'Ian Buckett'
p5052
aS'1994'
p5053
aS'Prop'
p5054
aS'Holywell'
p5055
aS'3'
aS'3'
aS'0'
aS'0'
aa(lp5056
S'Paul John'
p5057
aS'1994'
p5058
aS'Scrum-half'
p5059
aS'Pontypridd'
p5060
aS'10'
p5061
aS'9'
aS'1'
aS'5'
aa(lp5062
S'Gwilym Wilkins'
p5063
aS'1994'
p5064
aS'Wing'
p5065
aS'Parramatta'
p5066
aS'1'
aS'1'
aS'0'
aS'0'
aa(lp5067
S'Steve Williams'
p5068
aS'1994'
p5069
aS'No. 8, Lock'
p5070
aS'Neath'
p5071
aS'28'
p5072
aS'12'
p5073
aS'2'
aS'10'
p5074
aa(lp5075
S'Derwyn Jones'
p5076
aS'1994'
p5077
aS'Lock'
p5078
aS'Carmarthen'
p5079
aS'19'
p5080
aS'6'
aS'0'
aS'0'
aa(lp5081
S'Mark Taylor'
p5082
aS'1994'
p5083
aS'Centre'
p5084
aS'Blaenavon'
p5085
aS'52'
p5086
aS'24'
p5087
aS'12'
p5088
aS'60'
p5089
aa(lp5090
S'Matt Back'
p5091
aS'1995'
p5092
aS'Fullback'
p5093
aS'Pontypridd'
p5094
aS'4'
aS'0'
aS'0'
aS'0'
aa(lp5095
S'Spencer John'
p5096
aS'1995'
p5097
aS'Prop'
p5098
aS'W Glamorgan'
p5099
aS'18'
p5100
aS'5'
aS'0'
aS'0'
aa(lp5101
S'Andrew Gibbs'
p5102
aS'1995'
p5103
aS'Flanker'
p5104
aS'Pontypool'
p5105
aS'6'
aS'3'
aS'0'
aS'0'
aa(lp5106
S'Andrew Moore'
p5107
aS'1995'
p5108
aS'Scrum-half'
p5109
aS'Cardiff'
p5110
aS'4'
aS'3'
aS'2'
aS'10'
p5111
aa(lp5112
S'Gareth Thomas'
p5113
aS'1995'
p5114
aS'Utility back'
p5115
aS'Ogwr'
p5116
aS'103'
p5117
aS'51'
p5118
aS'41'
p5119
aS'205'
p5120
aa(lp5121
S'Stuart Roy'
p5122
aS'1995'
p5123
aS'Lock'
p5124
aS'Cambs'
p5125
aS'1'
aS'1'
aS'0'
aS'0'
aa(lp5126
S'Mark Bennett'
p5127
aS'1995'
p5128
aS'Flanker'
p5129
aS'Neath'
p5130
aS'3'
aS'1'
aS'1'
aS'5'
aa(lp5131
S'Jonathan Humphreys'
p5132
aS'1995'
p5133
aS'Hooker'
p5134
aS'Bridgend'
p5135
aS'35'
p5136
aS'15'
p5137
aS'2'
aS'10'
p5138
aa(lp5139
S'Greg Prosser'
p5140
aS'1995'
p5141
aS'Lock'
p5142
aS'Swansea'
p5143
aS'1'
aS'0'
aS'0'
aS'0'
aa(lp5144
S'Gareth Jones'
p5145
aS'1995'
p5146
aS'Centre, Wing'
p5147
aS'Ogwr'
p5148
aS'1'
aS'0'
aS'0'
aS'0'
aa(lp5149
S'Christian Loader'
p5150
aS'1995'
p5151
aS'Prop'
p5152
aS'Neath'
p5153
aS'19'
p5154
aS'9'
aS'0'
aS'0'
aa(lp5155
S'Justin Thomas'
p5156
aS'1995'
p5157
aS'Fullback'
p5158
aS'Carmarthen'
p5159
aS'9'
aS'5'
aS'1'
aS'5'
aa(lp5160
S'Andy Moore'
p5161
aS'1995'
p5162
aS'Lock'
p5163
aS'Grantham'
p5164
aS'26'
p5165
aS'15'
p5166
aS'0'
aS'0'
aa(lp5167
S'Lyndon Mustoe'
p5168
aS'1995'
p5169
aS'Prop'
p5170
aS'Caerleon'
p5171
aS'10'
p5172
aS'6'
aS'0'
aS'0'
aa(lp5173
S'Craig Quinnell'
p5174
aS'1995'
p5175
aS'Lock'
p5176
aS'Swansea'
p5177
aS'32'
p5178
aS'20'
p5179
aS'5'
aS'25'
p5180
aa(lp5181
S'Leigh Davies'
p5182
aS'1996'
p5183
aS'Centre'
p5184
aS'Neath'
p5185
aS'21'
p5186
aS'11'
p5187
aS'4'
aS'20'
p5188
aa(lp5189
S'Gwyn Jones'
p5190
aS'1996'
p5191
aS'Flanker'
p5192
aS'Swansea'
p5193
aS'13'
p5194
aS'8'
aS'1'
aS'5'
aa(lp5195
S'Andrew Lewis'
p5196
aS'1996'
p5197
aS'Prop, Hooker'
p5198
aS'Swansea'
p5199
aS'29'
p5200
aS'19'
p5201
aS'0'
aS'0'
aa(lp5202
S'Arwel Thomas'
p5203
aS'1996'
p5204
aS'Fly-half'
p5205
aS'Carmarthen'
p5206
aS'23'
p5207
aS'12'
p5208
aS'11'
p5209
aS'211'
p5210
aa(lp5211
S'Matthew Wintle'
p5212
aS'1996'
p5213
aS'Centre'
p5214
aS'M Glamorgan'
p5215
aS'1'
aS'1'
aS'0'
aS'0'
aa(lp5216
S'Rob Howley'
p5217
aS'1996'
p5218
aS'Scrum-half'
p5219
aS'Bridgend'
p5220
aS'61'
p5221
aS'29'
p5222
aS'10'
p5223
aS'50'
p5224
aa(lp5225
S'Mike Voyle'
p5226
aS'1996'
p5227
aS'Lock'
p5228
aS'E Glam'
p5229
aS'22'
p5230
aS'12'
p5231
aS'0'
aS'0'
aa(lp5232
S'Dafydd James'
p5233
aS'1996'
p5234
aS'Wing, Centre'
p5235
aS'Mufulira'
p5236
aS'51'
p5237
aS'24'
p5238
aS'16'
p5239
aS'80'
p5240
aa(lp5241
S'Kingsley Jones'
p5242
aS'1996'
p5243
aS'Flanker'
p5244
aS'Bedwellty'
p5245
aS'10'
p5246
aS'4'
aS'0'
aS'0'
aa(lp5247
S'Martyn Williams'
p5248
aS'1996'
p5249
aS'Back-row'
p5250
aS'Pontypridd'
p5251
aS'104'
p5252
aS'45'
p5253
aS'14'
p5254
aS'73'
p5255
aa(lp5256
S'Barry Williams'
p5257
aS'1996'
p5258
aS'Hooker'
p5259
aS'Carmarthen'
p5260
aS'24'
p5261
aS'10'
p5262
aS'5'
aS'25'
p5263
aa(lp5264
S'Colin Charvis'
p5265
aS'1996'
p5266
aS'Back-row'
p5267
aS'Sutton Coldfield'
p5268
aS'96'
p5269
aS'43'
p5270
aS'22'
p5271
aS'110'
p5272
aa(lp5273
S'Dale McIntosh'
p5274
aS'1996'
p5275
aS'Flanker'
p5276
aS'Turangi'
p5277
aS'2'
aS'0'
aS'0'
aS'0'
aa(lp5278
S'Mark Rowley'
p5279
aS'1996'
p5280
aS'Lock'
p5281
aS'Pontypridd'
p5282
aS'6'
aS'3'
aS'0'
aS'0'
aa(lp5283
S'Nathan Thomas'
p5284
aS'1996'
p5285
aS'Back-row'
p5286
aS'Ogwr'
p5287
aS'9'
aS'6'
aS'0'
aS'0'
aa(lp5288
S'Kevin Morgan'
p5289
aS'1997'
p5290
aS'Fullback, Wing'
p5291
aS'Pontypridd'
p5292
aS'48'
p5293
aS'27'
p5294
aS'12'
p5295
aS'60'
p5296
aa(lp5297
S'Chris Anthony'
p5298
aS'1997'
p5299
aS'Prop'
p5300
aS'Neath'
p5301
aS'17'
p5302
aS'9'
aS'1'
aS'5'
aa(lp5303
S'Rob Appleyard'
p5304
aS'1997'
p5305
aS'Flanker'
p5306
aS'Haverfordwest'
p5307
aS'9'
aS'6'
aS'0'
aS'0'
aa(lp5308
S'Steve Moore'
p5309
aS'1997'
p5310
aS'Lock'
p5311
aS'Grantham'
p5312
aS'3'
aS'3'
aS'0'
aS'0'
aa(lp5313
S'Lee Jarvis'
p5314
aS'1997'
p5315
aS'Fly-half, Centre'
p5316
aS'Pontypridd'
p5317
aS'1'
aS'1'
aS'0'
aS'2'
aa(lp5318
S'Gareth Wyatt'
p5319
aS'1997'
p5320
aS'Fullback, Wing'
p5321
aS'Cardiff'
p5322
aS'2'
aS'2'
aS'1'
aS'5'
aa(lp5323
S'Chris Stephens'
p5324
aS'1998'
p5325
aS'Lock'
p5326
aS'Bridgend'
p5327
aS'2'
aS'1'
aS'0'
aS'0'
aa(lp5328
S'Darren Morris'
p5329
aS'1998'
p5330
aS'Prop, Hooker'
p5331
aS'Aberdare'
p5332
aS'19'
p5333
aS'7'
aS'1'
aS'5'
aa(lp5334
S'Richard Rees'
p5335
aS'1998'
p5336
aS'Wing'
p5337
aS'Carmarthen'
p5338
aS'1'
aS'1'
aS'2'
aS'10'
p5339
aa(lp5340
S'David Weatherley'
p5341
aS'1998'
p5342
aS'Centre, Fullback'
p5343
aS'Swansea'
p5344
aS'1'
aS'1'
aS'0'
aS'0'
aa(lp5345
S'John Funnell'
p5346
aS'1998'
p5347
aS'Centre'
p5348
aS'Neath'
p5349
aS'2'
aS'1'
aS'0'
aS'0'
aa(lp5350
S'Byron Hayward'
p5351
aS'1998'
p5352
aS'Fullback'
p5353
aS'Cardiff'
p5354
aS'2'
aS'1'
aS'3'
aS'15'
p5355
aa(lp5356
S'Chris Wyatt'
p5357
aS'1998'
p5358
aS'Lock'
p5359
aS'Newport'
p5360
aS'38'
p5361
aS'18'
p5362
aS'2'
aS'10'
p5363
aa(lp5364
S'Garan Evans'
p5365
aS'1998'
p5366
aS'Fullback'
p5367
aS'Trimsaran'
p5368
aS'4'
aS'1'
aS'1'
aS'5'
aa(lp5369
S'Ian Gough'
p5370
aS'1998'
p5371
aS'Lock'
p5372
aS'Panteg'
p5373
aS'64'
p5374
aS'30'
p5375
aS'1'
aS'5'
aa(lp5376
S'Stephen Jones'
p5377
aS'1998'
p5378
aS'Fly-half'
p5379
aS'Aberystwyth'
p5380
aS'110'
p5381
aS'44'
p5382
aS'7'
aS'970'
p5383
aa(lp5384
S'Geraint Lewis'
p5385
aS'1998'
p5386
aS'Back-row'
p5387
aS'Pontypridd'
p5388
aS'16'
p5389
aS'13'
p5390
aS'0'
aS'0'
aa(lp5391
S'David Llewellyn'
p5392
aS'1998'
p5393
aS'Scrum-half'
p5394
aS'Bedwellty'
p5395
aS'4'
aS'3'
aS'1'
aS'5'
aa(lp5396
S'Darril Williams'
p5397
aS'1998'
p5398
aS'Wing'
p5399
aS'Swansea'
p5400
aS'1'
aS'0'
aS'0'
aS'0'
aa(lp5401
S'Shane Howarth'
p5402
aS'1994'
p5403
aS'Fly-half, Fullback'
p5404
aS'Auckland'
p5405
aS'23'
p5406
aS'14'
p5407
aS'5'
aS'77'
p5408
aa(lp5409
S'Ben Evans'
p5410
aS'1998'
p5411
aS'Prop'
p5412
aS'Bedwas'
p5413
aS'27'
p5414
aS'15'
p5415
aS'0'
aS'0'
aa(lp5416
S'Matthew Robinson'
p5417
aS'1999'
p5418
aS'Centre, Wing'
p5419
aS'Cardiff'
p5420
aS'4'
aS'2'
aS'0'
aS'0'
aa(lp5421
S'Peter Rogers'
p5422
aS'1999'
p5423
aS'Prop, Hooker'
p5424
aS'Maidstone'
p5425
aS'18'
p5426
aS'13'
p5427
aS'0'
aS'0'
aa(lp5428
S'Brett Sinkinson'
p5429
aS'1999'
p5430
aS'Flanker'
p5431
aS'Rotorua'
p5432
aS'20'
p5433
aS'13'
p5434
aS'1'
aS'5'
aa(lp5435
S'Nick Walne'
p5436
aS'1999'
p5437
aS'Wing'
p5438
aS'Scunthorpe'
p5439
aS'3'
aS'3'
aS'1'
aS'5'
aa(lp5440
S'Jason Jones-Hughes'
p5441
aS'1999'
p5442
aS'Centre'
p5443
aS'NSW'
p5444
aS'3'
aS'2'
aS'0'
aS'0'
aa(lp5445
S'Richard Smith'
p5446
aS'2000'
p5447
aS'Scrum-half'
p5448
aS'Pontypool'
p5449
aS'1'
aS'0'
aS'0'
aS'0'
aa(lp5450
S'Shane Williams'
p5451
aS'2000'
p5452
aS'Wing'
p5453
aS'Morriston'
p5454
aS'91'
p5455
aS'42'
p5456
aS'60'
p5457
aS'300'
p5458
aa(lp5459
S'Nathan Budgett'
p5460
aS'2000'
p5461
aS'Lock, Flanker'
p5462
aS'Newport'
p5463
aS'12'
p5464
aS'7'
aS'2'
aS'10'
p5465
aa(lp5466
S'Matt Cardey'
p5467
aS'2000'
p5468
aS'Fullback'
p5469
aS'Papakura'
p5470
aS'1'
aS'1'
aS'0'
aS'0'
aa(lp5471
S'Rhys Williams'
p5472
aS'2000'
p5473
aS'Utility back'
p5474
aS'Bridgend'
p5475
aS'44'
p5476
aS'21'
p5477
aS'18'
p5478
aS'90'
p5479
aa(lp5480
S'Deiniol Jones'
p5481
aS'2000'
p5482
aS'Lock'
p5483
aS'Carmarthen'
p5484
aS'13'
p5485
aS'6'
aS'0'
aS'0'
aa(lp5486
S'Iestyn Thomas'
p5487
aS'2000'
p5488
aS'Prop'
p5489
aS'Panteg'
p5490
aS'33'
p5491
aS'10'
p5492
aS'0'
aS'0'
aa(lp5493
S'James Griffiths'
p5494
aS'2000'
p5495
aS'Lock'
p5496
aS'Glanaman'
p5497
aS'1'
aS'1'
aS'0'
aS'0'
aa(lp5498
S'Mark Jones'
p5499
aS'2001'
p5500
aS'Wing'
p5501
aS'Builth Wells'
p5502
aS'47'
p5503
aS'22'
p5504
aS'13'
p5505
aS'65'
p5506
aa(lp5507
S'Gareth Cooper'
p5508
aS'2001'
p5509
aS'Scrum-half'
p5510
aS'Bridgend'
p5511
aS'47'
p5512
aS'22'
p5513
aS'9'
aS'45'
p5514
aa(lp5515
S'Adrian Durston'
p5516
aS'2001'
p5517
aS'Fullback'
p5518
aS'Neath'
p5519
aS'2'
aS'2'
aS'1'
aS'5'
aa(lp5520
S'Andy Lloyd'
p5521
aS'2001'
p5522
aS'Lock, Back-row'
p5523
aS'Swansea'
p5524
aS'1'
aS'1'
aS'1'
aS'5'
aa(lp5525
S'Gavin Thomas'
p5526
aS'2001'
p5527
aS'Back-row'
p5528
aS'Leamington Spa'
p5529
aS'24'
p5530
aS'7'
aS'4'
aS'20'
p5531
aa(lp5532
S'Gavin Henson'
p5533
aS'2001'
p5534
aS'Fly-half'
p5535
aS'Bridgend'
p5536
aS'34'
p5537
aS'18'
p5538
aS'3'
aS'130'
p5539
aa(lp5540
S'Steve Jones'
p5541
aS'2001'
p5542
aS'Hooker'
p5543
aS'Neath'
p5544
aS'5'
aS'3'
aS'0'
aS'0'
aa(lp5545
S'Jamie Ringer'
p5546
aS'2001'
p5547
aS'Back-row'
p5548
aS'Cardiff'
p5549
aS'2'
aS'2'
aS'0'
aS'0'
aa(lp5550
S'Jamie Robinson'
p5551
aS'2001'
p5552
aS'Centre'
p5553
aS'Cardiff'
p5554
aS'23'
p5555
aS'8'
aS'7'
aS'35'
p5556
aa(lp5557
S'Tom Shanklin'
p5558
aS'2001'
p5559
aS'Wing, Centre'
p5560
aS'Harrow'
p5561
aS'70'
p5562
aS'32'
p5563
aS'20'
p5564
aS'100'
p5565
aa(lp5566
S'Dwayne Peel'
p5567
aS'2001'
p5568
aS'Scrum-half'
p5569
aS'Carmarthen'
p5570
aS'79'
p5571
aS'35'
p5572
aS'5'
aS'25'
p5573
aa(lp5574
S'Iestyn Harris'
p5575
aS'2001'
p5576
aS'Halfback, Back-row'
p5577
aS'Oldham'
p5578
aS'25'
p5579
aS'10'
p5580
aS'1'
aS'108'
p5581
aa(lp5582
S'Anthony Sullivan'
p5583
aS'2001'
p5584
aS'Wing'
p5585
aS'Hull'
p5586
aS'2'
aS'1'
aS'0'
aS'0'
aa(lp5587
S'Duncan Jones'
p5588
aS'2001'
p5589
aS'Prop'
p5590
aS'Neath'
p5591
aS'57'
p5592
aS'26'
p5593
aS'0'
aS'0'
aa(lp5594
S'Craig Morgan'
p5595
aS'2002'
p5596
aS'Fullback, Wing'
p5597
aS'Pontypridd'
p5598
aS'10'
p5599
aS'3'
aS'3'
aS'15'
p5600
aa(lp5601
S'Andy Marinos'
p5602
aS'2002'
p5603
aS'Centre'
p5604
aS'Rhodesia'
p5605
aS'8'
aS'2'
aS'1'
aS'5'
aa(lp5606
S'Michael Owen'
p5607
aS'2002'
p5608
aS'Back-row'
p5609
aS'Church Village'
p5610
aS'42'
p5611
aS'19'
p5612
aS'2'
aS'10'
p5613
aa(lp5614
S'Martyn Madden'
p5615
aS'2002'
p5616
aS'Prop'
p5617
aS'Cardiff'
p5618
aS'5'
aS'2'
aS'0'
aS'0'
aa(lp5619
S'Richard Parks'
p5620
aS'2002'
p5621
aS'Flanker'
p5622
aS'Pontypridd'
p5623
aS'4'
aS'2'
aS'0'
aS'0'
aa(lp5624
S'Ryan Powell'
p5625
aS'2002'
p5626
aS'Scrum-half'
p5627
aS'Panteg'
p5628
aS'3'
aS'1'
aS'0'
aS'0'
aa(lp5629
S'Robert Sidoli'
p5630
aS'2002'
p5631
aS'Lock'
p5632
aS'Merthyr Tydfil'
p5633
aS'42'
p5634
aS'17'
p5635
aS'2'
aS'10'
p5636
aa(lp5637
S'Mefin Davies'
p5638
aS'2002'
p5639
aS'Hooker'
p5640
aS'Nantgaredig'
p5641
aS'38'
p5642
aS'17'
p5643
aS'2'
aS'10'
p5644
aa(lp5645
S'Gethin Jenkins'
p5646
aS'2002'
p5647
aS'Prop'
p5648
aS'Llantwit Fadre'
p5649
aS'119'
p5650
aS'52'
p5651
aS'4'
aS'20'
p5652
aa(lp5653
S'Sonny Parker'
p5654
aS'2002'
p5655
aS'Centre'
p5656
aS'Thames'
p5657
aS'31'
p5658
aS'15'
p5659
aS'6'
aS'30'
p5660
aa(lp5661
S'Dafydd Jones'
p5662
aS'2002'
p5663
aS'Back-row'
p5664
aS'Aberystwyth'
p5665
aS'42'
p5666
aS'19'
p5667
aS'2'
aS'10'
p5668
aa(lp5669
S'Vernon Cooper'
p5670
aS'2002'
p5671
aS'Lock'
p5672
aS'Morriston'
p5673
aS'3'
aS'2'
aS'0'
aS'0'
aa(lp5674
S'Ceri Sweeney'
p5675
aS'2003'
p5676
aS'Fly-half'
p5677
aS'Pontypridd'
p5678
aS'35'
p5679
aS'16'
p5680
aS'4'
aS'88'
p5681
aa(lp5682
S'Matthew Watkins'
p5683
aS'2003'
p5684
aS'Centre'
p5685
aS'Newport'
p5686
aS'18'
p5687
aS'7'
aS'0'
aS'0'
aa(lp5688
S'Gareth Williams'
p5689
aS'2003'
p5690
aS'Hooker'
p5691
aS'Bridgend'
p5692
aS'9'
aS'3'
aS'0'
aS'0'
aa(lp5693
S'Jonathan Thomas'
p5694
aS'2003'
p5695
aS'Back-row'
p5696
aS'Pembroke'
p5697
aS'67'
p5698
aS'30'
p5699
aS'7'
aS'35'
p5700
aa(lp5701
S'Alix Popham'
p5702
aS'2003'
p5703
aS'Back-row'
p5704
aS'Newport'
p5705
aS'33'
p5706
aS'13'
p5707
aS'4'
aS'20'
p5708
aa(lp5709
S'Rhys Oakley'
p5710
aS'2003'
p5711
aS'Back-row'
p5712
aS'Plymouth'
p5713
aS'2'
aS'1'
aS'0'
aS'0'
aa(lp5714
S'Nicky Robinson'
p5715
aS'2003'
p5716
aS'Fly-half'
p5717
aS'Cardiff'
p5718
aS'13'
p5719
aS'7'
aS'2'
aS'42'
p5720
aa(lp5721
S'Huw Bennett'
p5722
aS'2003'
p5723
aS'Hooker'
p5724
aS'Ebbw Vale'
p5725
aS'51'
p5726
aS'25'
p5727
aS'0'
aS'0'
aa(lp5728
S'Adam Jones'
p5729
aS'2003'
p5730
aS'Prop'
p5731
aS'Abercrave'
p5732
aS'100'
p5733
aS'49'
p5734
aS'2'
aS'10'
p5735
aa(lp5736
S'Nathan Brew'
p5737
aS'2003'
p5738
aS'Centre, Wing'
p5739
aS'S.Glamorgan'
p5740
aS'1'
aS'1'
aS'1'
aS'5'
aa(lp5741
S'Brent Cockbain'
p5742
aS'2003'
p5743
aS'Lock'
p5744
aS'Cairns'
p5745
aS'24'
p5746
aS'13'
p5747
aS'1'
aS'5'
aa(lp5748
S'Paul James'
p5749
aS'2003'
p5750
aS'Prop'
p5751
aS'Neath'
p5752
aS'60'
p5753
aS'27'
p5754
aS'0'
aS'0'
aa(lp5755
S'Mike Phillips'
p5756
aS'2003'
p5757
aS'Scrum-half'
p5758
aS'Carmarthen'
p5759
aS'98'
p5760
aS'47'
p5761
aS'10'
p5762
aS'50'
p5763
aa(lp5764
S'James Bater'
p5765
aS'2003'
p5766
aS'Back-row'
p5767
aS'Bridgend'
p5768
aS'1'
aS'1'
aS'0'
aS'0'
aa(lp5769
S'Jon Bryant'
p5770
aS'2003'
p5771
aS'Centre'
p5772
aS'Aberdare'
p5773
aS'1'
aS'1'
aS'0'
aS'0'
aa(lp5774
S'Andy Williams'
p5775
aS'2003'
p5776
aS'Scrum-half'
p5777
aS'Swansea'
p5778
aS'5'
aS'3'
aS'0'
aS'0'
aa(lp5779
S'Paul Young'
p5780
aS'2003'
p5781
aS'Hooker'
p5782
aS'Swansea'
p5783
aS'1'
aS'1'
aS'0'
aS'0'
aa(lp5784
S'Hal Luscombe'
p5785
aS'2003'
p5786
aS'Centre'
p5787
aS'Laingsburg'
p5788
aS'16'
p5789
aS'8'
aS'2'
aS'10'
p5790
aa(lp5791
S'Jason Forster'
p5792
aS'2004'
p5793
aS'Back-row'
p5794
aS'Derby'
p5795
aS'1'
aS'0'
aS'1'
aS'5'
aa(lp5796
S'Ryan Jones'
p5797
aS'2004'
p5798
aS'Back-row'
p5799
aS'Newport'
p5800
aS'78'
p5801
aS'39'
p5802
aS'2'
aS'10'
p5803
aa(lp5804
S'Luke Charteris'
p5805
aS'2004'
p5806
aS'Lock'
p5807
aS'Camborne'
p5808
aS'55'
p5809
aS'28'
p5810
aS'0'
aS'0'
aa(lp5811
S'John Yapp'
p5812
aS'2005'
p5813
aS'Prop'
p5814
aS'Cardiff'
p5815
aS'21'
p5816
aS'14'
p5817
aS'0'
aS'0'
aa(lp5818
S'Robin Sowden-Taylor'
p5819
aS'2005'
p5820
aS'Back-row'
p5821
aS'Cardiff'
p5822
aS'8'
aS'5'
aS'0'
aS'0'
aa(lp5823
S'Matthew Rees'
p5824
aS'2005'
p5825
aS'Hooker'
p5826
aS'Tonyrefail'
p5827
aS'63'
p5828
aS'24'
p5829
aS'2'
aS'10'
p5830
aa(lp5831
S'Ben Broster'
p5832
aS'2005'
p5833
aS'Prop'
p5834
aS'London'
p5835
aS'2'
aS'2'
aS'1'
aS'5'
aa(lp5836
S'Richie Pugh'
p5837
aS'2005'
p5838
aS'Back-row'
p5839
aS'Swansea'
p5840
aS'1'
aS'1'
aS'1'
aS'5'
aa(lp5841
S'Tal Selley'
p5842
aS'2005'
p5843
aS'Wing, Centre'
p5844
aS'Pembroke Dock'
p5845
aS'1'
aS'1'
aS'1'
aS'5'
aa(lp5846
S'T.Rhys Thomas'
p5847
aS'2005'
p5848
aS'Hooker'
p5849
aS'Abercynon'
p5850
aS'27'
p5851
aS'10'
p5852
aS'1'
aS'5'
aa(lp5853
S'Chris Czekaj'
p5854
aS'2005'
p5855
aS'Wing'
p5856
aS'Cardiff'
p5857
aS'9'
aS'2'
aS'2'
aS'10'
p5858
aa(lp5859
S'Matt Jones'
p5860
aS'2005'
p5861
aS'Fly-half'
p5862
aS'Bridgend'
p5863
aS'1'
aS'1'
aS'0'
aS'0'
aa(lp5864
S'Lee Byrne'
p5865
aS'2005'
p5866
aS'Fullback'
p5867
aS'Bridgend'
p5868
aS'47'
p5869
aS'20'
p5870
aS'10'
p5871
aS'50'
p5872
aa(lp5873
S'Chris Horsman'
p5874
aS'2005'
p5875
aS'Prop'
p5876
aS'Newport Pagnell'
p5877
aS'14'
p5878
aS'5'
aS'1'
aS'5'
aa(lp5879
S'Adam Jones'
p5880
aS'2006'
p5881
aS'Lock'
p5882
aS'Swansea'
p5883
aS'2'
aS'1'
aS'0'
aS'0'
aa(lp5884
S'Gareth Delve'
p5885
aS'2006'
p5886
aS'No. 8'
p5887
aS'Cardiff'
p5888
aS'11'
p5889
aS'5'
aS'1'
aS'5'
aa(lp5890
S'Barry Davies'
p5891
aS'2006'
p5892
aS'Fullback'
p5893
aS'Carmarthen'
p5894
aS'1'
aS'0'
aS'0'
aS'0'
aa(lp5895
S'Ian Evans'
p5896
aS'2006'
p5897
aS'Lock'
p5898
aS'Johannesburg'
p5899
aS'33'
p5900
aS'17'
p5901
aS'1'
aS'5'
aa(lp5902
S'Alun Wyn Jones'
p5903
aS'2006'
p5904
aS'Lock'
p5905
aS'Swansea'
p5906
aS'95'
p5907
aS'45'
p5908
aS'8'
aS'40'
p5909
aa(lp5910
S'Richard Hibbard'
p5911
aS'2006'
p5912
aS'Hooker'
p5913
aS'Neath'
p5914
aS'40'
p5915
aS'21'
p5916
aS'1'
aS'5'
aa(lp5917
S'James Hook'
p5918
aS'2006'
p5919
aS'Fly-half'
p5920
aS'Neath'
p5921
aS'77'
p5922
aS'35'
p5923
aS'13'
p5924
aS'350'
p5925
aa(lp5926
S'Rhys M. Thomas'
p5927
aS'2006'
p5928
aS'Prop'
p5929
aS'Johannesburg'
p5930
aS'7'
aS'3'
aS'0'
aS'0'
aa(lp5931
S'Gavin Evans'
p5932
aS'2006'
p5933
aS'Centre'
p5934
aS'Swansea'
p5935
aS'1'
aS'1'
aS'0'
aS'0'
aa(lp5936
S'Aled Brew'
p5937
aS'2007'
p5938
aS'Wing'
p5939
aS'Cardiff'
p5940
aS'9'
aS'4'
aS'3'
aS'15'
p5941
aa(lp5942
S'Ceri Jones'
p5943
aS'2007'
p5944
aS'Prop'
p5945
aS'Newport'
p5946
aS'2'
aS'0'
aS'0'
aS'0'
aa(lp5947
S'Scott Morgan'
p5948
aS'2007'
p5949
aS'Lock'
p5950
aS'Neath'
p5951
aS'1'
aS'0'
aS'0'
aS'0'
aa(lp5952
S'Will James'
p5953
aS'2007'
p5954
aS'Lock'
p5955
aS'Plymouth'
p5956
aS'4'
aS'2'
aS'0'
aS'0'
aa(lp5957
S'Tom James'
p5958
aS'2007'
p5959
aS'Wing'
p5960
aS'Merthyr Tydfil'
p5961
aS'10'
p5962
aS'4'
aS'2'
aS'10'
p5963
aa(lp5964
S'Morgan Stoddart'
p5965
aS'2007'
p5966
aS'Fullback'
p5967
aS'Pontypridd'
p5968
aS'8'
aS'3'
aS'5'
aS'25'
p5969
aa(lp5970
S'Jamie Roberts'
p5971
aS'2008'
p5972
aS'Centre'
p5973
aS'Newport'
p5974
aS'72'
p5975
aS'37'
p5976
aS'10'
p5977
aS'50'
p5978
aa(lp5979
S'Warren Fury'
p5980
aS'2008'
p5981
aS'Scrum-half'
p5982
aS'Swansea'
p5983
aS'2'
aS'0'
aS'0'
aS'0'
aa(lp5984
S'Andrew Bishop'
p5985
aS'2008'
p5986
aS'Centre'
p5987
aS'Llantrisant'
p5988
aS'16'
p5989
aS'8'
aS'0'
aS'0'
aa(lp5990
S'Leigh Halfpenny'
p5991
aS'2008'
p5992
aS'Fullback'
p5993
aS'Swansea'
p5994
aS'63'
p5995
aS'32'
p5996
aS'12'
p5997
aS'531'
p5998
aa(lp5999
S'Andy Powell'
p6000
aS'2008'
p6001
aS'Back-row'
p6002
aS'Brecon'
p6003
aS'23'
p6004
aS'13'
p6005
aS'1'
aS'5'
aa(lp6006
S'Martin Roberts'
p6007
aS'2008'
p6008
aS'Scrum-half'
p6009
aS'Aberdare'
p6010
aS'3'
aS'1'
aS'0'
aS'0'
aa(lp6011
S'Dan Biggar'
p6012
aS'2008'
p6013
aS'Fly-half'
p6014
aS'Swansea'
p6015
aS'33'
p6016
aS'18'
p6017
aS'1'
aS'150'
p6018
aa(lp6019
S'Eifion Lewis-Roberts'
p6020
aS'2008'
p6021
aS'Prop'
p6022
aS'St Asaph'
p6023
aS'1'
aS'1'
aS'0'
aS'0'
aa(lp6024
S'Bradley Davies'
p6025
aS'2009'
p6026
aS'Lock'
p6027
aS'Llantrisant'
p6028
aS'45'
p6029
aS'19'
p6030
aS'0'
aS'0'
aa(lp6031
S'Jonathan Davies'
p6032
aS'2009'
p6033
aS'Centre'
p6034
aS'Solihull'
p6035
aS'51'
p6036
aS'28'
p6037
aS'10'
p6038
aS'50'
p6039
aa(lp6040
S'Dan Evans'
p6041
aS'2009'
p6042
aS'Fullback'
p6043
aS'Swansea'
p6044
aS'2'
aS'2'
aS'0'
aS'0'
aa(lp6045
S'Craig Mitchell'
p6046
aS'2009'
p6047
aS'Prop'
p6048
aS'Neath'
p6049
aS'15'
p6050
aS'10'
p6051
aS'1'
aS'5'
aa(lp6052
S'Jonathan Spratt'
p6053
aS'2009'
p6054
aS'Centre'
p6055
aS'Neath'
p6056
aS'4'
aS'3'
aS'0'
aS'0'
aa(lp6057
S'Sam Warburton'
p6058
aS'2009'
p6059
aS'Back-row'
p6060
aS'Cardiff'
p6061
aS'56'
p6062
aS'28'
p6063
aS'4'
aS'20'
p6064
aa(lp6065
S'Dan Lydiate'
p6066
aS'2009'
p6067
aS'Flanker'
p6068
aS'Salford'
p6069
aS'49'
p6070
aS'24'
p6071
aS'0'
aS'0'
aa(lp6072
S'Richie Rees'
p6073
aS'2010'
p6074
aS'Scrum-half'
p6075
aS'Swansea'
p6076
aS'9'
aS'1'
aS'1'
aS'5'
aa(lp6077
S'Rhys Gill'
p6078
aS'2010'
p6079
aS'Prop'
p6080
aS'Rhondda'
p6081
aS'6'
aS'4'
aS'0'
aS'0'
aa(lp6082
S'Tom Prydie'
p6083
aS'2010'
p6084
aS'Fullback, Wing'
p6085
aS'Bridgend'
p6086
aS'5'
aS'1'
aS'2'
aS'10'
p6087
aa(lp6088
S'Rob McCusker'
p6089
aS'2010'
p6090
aS'Back-row'
p6091
aS'Wrexham'
p6092
aS'6'
aS'1'
aS'0'
aS'0'
aa(lp6093
S'Tavis Knoyle'
p6094
aS'2010'
p6095
aS'Scrum-half'
p6096
aS'Glynneath'
p6097
aS'11'
p6098
aS'4'
aS'0'
aS'0'
aa(lp6099
S'Will Harries'
p6100
aS'2010'
p6101
aS'Wing'
p6102
aS'Cardiff'
p6103
aS'3'
aS'1'
aS'0'
aS'0'
aa(lp6104
S'George North'
p6105
aS'2010'
p6106
aS'Wing'
p6107
aS"King's Lynn"
p6108
aS'52'
p6109
aS'26'
p6110
aS'24'
p6111
aS'120'
p6112
aa(lp6113
S'Rhys Priestland'
p6114
aS'2011'
p6115
aS'Fly-half'
p6116
aS'Llangathen'
p6117
aS'34'
p6118
aS'18'
p6119
aS'1'
aS'60'
p6120
aa(lp6121
S'Josh Turnbull'
p6122
aS'2011'
p6123
aS'Back-row'
p6124
aS'Haverfordwest'
p6125
aS'7'
aS'3'
aS'0'
aS'0'
aa(lp6126
S'Ryan Bevington'
p6127
aS'2011'
p6128
aS'Prop'
p6129
aS'Bridgend'
p6130
aS'13'
p6131
aS'7'
aS'0'
aS'0'
aa(lp6132
S'Taulupe Faletau'
p6133
aS'2011'
p6134
aS'Back-row'
p6135
aS'Tofoa'
p6136
aS'46'
p6137
aS'25'
p6138
aS'4'
aS'20'
p6139
aa(lp6140
S'Scott Andrews'
p6141
aS'2011'
p6142
aS'Prop'
p6143
aS'Church Village'
p6144
aS'11'
p6145
aS'4'
aS'0'
aS'0'
aa(lp6146
S'Lloyd Burns'
p6147
aS'2011'
p6148
aS'Hooker'
p6149
aS'Panteg'
p6150
aS'7'
aS'4'
aS'1'
aS'5'
aa(lp6151
S'Scott Williams'
p6152
aS'2011'
p6153
aS'Centre'
p6154
aS'Carmarthen'
p6155
aS'29'
p6156
aS'18'
p6157
aS'9'
aS'45'
p6158
aa(lp6159
S'Justin Tipuric'
p6160
aS'2011'
p6161
aS'Back-row'
p6162
aS'Neath'
p6163
aS'32'
p6164
aS'19'
p6165
aS'0'
aS'0'
aa(lp6166
S'Lloyd Williams'
p6167
aS'2011'
p6168
aS'Scrum-half'
p6169
aS'Cardiff'
p6170
aS'18'
p6171
aS'13'
p6172
aS'2'
aS'10'
p6173
aa(lp6174
S'Ken Owens'
p6175
aS'2011'
p6176
aS'Hooker'
p6177
aS'Carmarthen'
p6178
aS'27'
p6179
aS'15'
p6180
aS'2'
aS'10'
p6181
aa(lp6182
S'Alex Cuthbert'
p6183
aS'2011'
p6184
aS'Wing'
p6185
aS'Gloucester'
p6186
aS'33'
p6187
aS'16'
p6188
aS'15'
p6189
aS'75'
p6190
aa(lp6191
S'Aaron Shingler'
p6192
aS'2012'
p6193
aS'Back-row'
p6194
aS'Aldershot'
p6195
aS'8'
aS'4'
aS'0'
aS'0'
aa(lp6196
S'Lou Reed'
p6197
aS'2012'
p6198
aS'Lock'
p6199
aS'Treorchy'
p6200
aS'5'
aS'3'
aS'0'
aS'0'
aa(lp6201
S'Rhys Webb'
p6202
aS'2012'
p6203
aS'Scrum-half'
p6204
aS'Bridgend'
p6205
aS'14'
p6206
aS'9'
aS'5'
aS'25'
p6207
aa(lp6208
S'Rhodri Jones'
p6209
aS'2012'
p6210
aS'Prop'
p6211
aS'Aberystwyth'
p6212
aS'13'
p6213
aS'7'
aS'0'
aS'0'
aa(lp6214
S'Harry Robinson'
p6215
aS'2012'
p6216
aS'Wing'
p6217
aS'Cardiff'
p6218
aS'3'
aS'2'
aS'2'
aS'10'
p6219
aa(lp6220
S'Liam Williams'
p6221
aS'2012'
p6222
aS'Fullback'
p6223
aS'Morriston'
p6224
aS'23'
p6225
aS'11'
p6226
aS'2'
aS'10'
p6227
aa(lp6228
S'Adam Warren'
p6229
aS'2012'
p6230
aS'Centre'
p6231
aS'Burry Port'
p6232
aS'1'
aS'1'
aS'0'
aS'0'
aa(lp6233
S'Ashley Beck'
p6234
aS'2012'
p6235
aS'Centre'
p6236
aS'Neath'
p6237
aS'7'
aS'2'
aS'2'
aS'10'
p6238
aa(lp6239
S'Aaron Jarvis'
p6240
aS'2012'
p6241
aS'Prop'
p6242
aS'Exeter'
p6243
aS'10'
p6244
aS'5'
aS'0'
aS'0'
aa(lp6245
S'Andrew Coombs'
p6246
aS'2013'
p6247
aS'Back-row'
p6248
aS'Merthyr Tydfil'
p6249
aS'10'
p6250
aS'6'
aS'0'
aS'0'
aa(lp6251
S'Olly Kohn'
p6252
aS'2013'
p6253
aS'Lock'
p6254
aS'Bristol'
p6255
aS'1'
aS'0'
aS'0'
aS'0'
aa(lp6256
S'Dafydd Howells'
p6257
aS'2013'
p6258
aS'Wing'
p6259
aS'Brecon'
p6260
aS'2'
aS'1'
aS'0'
aS'0'
aa(lp6261
S'James King'
p6262
aS'2013'
p6263
aS'Flanker'
p6264
aS'VIC'
p6265
aS'3'
aS'2'
aS'0'
aS'0'
aa(lp6266
S'Emyr Phillips'
p6267
aS'2013'
p6268
aS'Hooker'
p6269
aS'Llandovery'
p6270
aS'3'
aS'2'
aS'0'
aS'0'
aa(lp6271
S'Owen Williams'
p6272
aS'2013'
p6273
aS'Centre'
p6274
aS'Merthyr Tydfil'
p6275
aS'4'
aS'2'
aS'1'
aS'5'
aa(lp6276
S'Dan Baker'
p6277
aS'2013'
p6278
aS'Back-row'
p6279
aS'Neath'
p6280
aS'2'
aS'1'
aS'0'
aS'0'
aa(lp6281
S'Rhys Patchell'
p6282
aS'2013'
p6283
aS'Fly-half'
p6284
aS'Llandough'
p6285
aS'2'
aS'1'
aS'0'
aS'3'
aa(lp6286
S'Andries Pretorius'
p6287
aS'2013'
p6288
aS'Back-row'
p6289
aS'Nelspruit'
p6290
aS'2'
aS'1'
aS'0'
aS'0'
aa(lp6291
S'Josh Navidi'
p6292
aS'2013'
p6293
aS'Flanker'
p6294
aS'Bridgend'
p6295
aS'1'
aS'0'
aS'0'
aS'0'
aa(lp6296
S'Scott Baldwin'
p6297
aS'2013'
p6298
aS'Hooker'
p6299
aS'Bridgend'
p6300
aS'9'
aS'6'
aS'0'
aS'0'
aa(lp6301
S'Cory Allen'
p6302
aS'2013'
p6303
aS'Centre'
p6304
aS'Cardiff'
p6305
aS'2'
aS'1'
aS'0'
aS'0'
aa(lp6306
S'Samson Lee'
p6307
aS'2013'
p6308
aS'Prop'
p6309
aS'Swansea'
p6310
aS'12'
p6311
aS'6'
aS'0'
aS'0'
aa(lp6312
S'Hallam Amos'
p6313
aS'2013'
p6314
aS'Fullback, Wing'
p6315
aS'Stockport'
p6316
aS'1'
aS'1'
aS'0'
aS'0'
aa(lp6317
S'Rhodri Williams'
p6318
aS'2013'
p6319
aS'Scrum-half'
p6320
aS'Swansea'
p6321
aS'3'
aS'2'
aS'1'
aS'5'
aa(lp6322
S'Jake Ball'
p6323
aS'2014'
p6324
aS'Lock'
p6325
aS'Ascot'
p6326
aS'12'
p6327
aS'6'
aS'0'
aS'0'
aa(lp6328
S'Gareth Davies'
p6329
aS'2014'
p6330
aS'Scrum-half'
p6331
aS'Carmarthen'
p6332
aS'2'
aS'1'
aS'0'
aS'0'
aa(lp6333
S'Matthew Morgan'
p6334
aS'2014'
p6335
aS'Fly-half'
p6336
aS'Swansea'
p6337
aS'1'
aS'0'
aS'0'
aS'0'
aa(lp6338
S'Nicky Smith'
p6339
aS'2014'
p6340
aS'Prop'
p6341
aS'Swansea'
p6342
aS'2'
aS'1'
aS'0'
aS'0'
aa(lp6343
S'Rob Evans'
p6344
aS'2015'
p6345
aS'Prop'
p6346
aS'Haverfordwest'
p6347
aS'2'
aS'2'
aS'0'
aS'0'
aa.