(lp1
VApril 25, 1848, Glasgow
p2
aVMay 29, 1852, Glasgow
p3
aVJanuary 15, 1847, Inverary
p4
aVMarch 19, 1850, Glasgow
p5
aVcirca 1851, Cocos Islands
p6
aVDecember 17, 1846, Edinburgh
p7
aVSeptember 10, 1850, Glasgow
p8
aVcirca 1850, Dunoon
p9
aVApril 8, 1852, Edinburgh
p10
aVMarch 23, 1850, Logie-Easter, Ross
p11
aVApril 19, 1853, Blair Atholl
p12
aVJanuary 27, 1848, St Cuthbert's
p13
aVJune 19, 1851, Montego Bay
p14
aVJune 26, 1849, Chatton Park, NHumb
p15
aVJuly 1, 1852, Jedburgh
p16
aVAugust 27, 1849, Midlothian
p17
aVcirca 1839, ?
p18
aVApril 16, 1848, Edinburgh
p19
aVOctober 1, 1848, Ayr
p20
aVAugust 9, 1845, ?
p21
aVMay 9, 1849, Edinburgh
p22
aVMarch 9, 1854, Bonnington, Edinburgh
p23
aVJanuary 14, 1850, Aberdeenshire
p24
aVMarch 16, 1853, Edinburgh
p25
aVJuly 8, 1851, Barony, Glasgow
p26
aVMarch 6, 1851, Southsea, Hants
p27
aVJune 22, 1852, ?
p28
aVJanuary 10, 1849, Devonport
p29
aVOctober 9, 1849, Mussorrie
p30
aVApril 2, 1850, Glasgow
p31
aVJune 25, 1850, Errol
p32
aVApril 16, 1848, Glasgow
p33
aVSeptember 3, 1851, Banchory
p34
aVJuly 20, 1853, Bengal
p35
aVJuly 8, 1851, Barony, Glasgow
p36
aVFebruary 14, 1853, Birkenhead
p37
aVJanuary 29, 1852, Madras
p38
aVAugust 12, 1848, Neath
p39
aVFebruary 4, 1854, ?
p40
aVApril 30, 1848, Fetteresso, Kincardin
p41
aVJune 26, 1854, New South Wales
p42
aVSeptember 6, 1854, ?
p43
aVApril 29, 1852, Glasgow
p44
aVOctober 22, 1851, ?
p45
aVFebruary 24, 1851, ?
p46
aVAugust 30, 1852, Bombay
p47
aVSeptember 11, 1852, Glasgow
p48
aVOctober 31, 1855
p49
aVApril 3, 1857, ?
p50
aVJune 15, 1856, Glasgow
p51
aVOctober 16, 1854, ?
p52
aVApril 21, 1854, ?
p53
aVJanuary 31, 1858, Edinburgh
p54
aVAugust 5, 1850, Cathcart, Renfrew
p55
aVNovember 9, 1849, Clerkenwell
p56
aVApril 27, 1855, ?
p57
aVJune 30, 1851, ?
p58
aVMarch 15, 1851, Stirling
p59
aVApril 16, 1856, Eshott Hall, Nthb
p60
aVSeptember 4, 1855, Blythswood, Glasgow
p61
aVApril 16, 1856, Middlebie
p62
aVNovember 4, 1855, Milton, Glasgow
p63
aVAugust 16, 1852, Paisley
p64
aVMarch 5, 1855, Bangalore
p65
aV(guess: regd Q1), Cheltenham
p66
aVJanuary 7, 1854, Glasgow
p67
aVSeptember 13, 1856, Kirkwall
p68
aVJanuary 12, 1856, Glasgow
p69
aVMay 2, 1854, Glasgow
p70
aVDecember 3, 1855, Clifton
p71
aVApril 12, 1855, Blythswood, Glasgow
p72
aVApril 13, 1857, Edinburgh
p73
aVNovember 6, 1855, Cawnpore
p74
aV1858-60, Lake Athabasca, AB
p75
aVApril 2, 1851, Perthshire
p76
aVApril 5, 1858, Edinburgh
p77
aVMay 6, 1858, Midlothian
p78
aVJune 14, 1858, Glasgow
p79
aVJanuary 30, 1858, Lasswade
p80
aVMay 26, 1856, Glasgow
p81
aVJune 25, 1858, Edinburgh
p82
aVcirca 1860, Edinburgh
p83
aVdate unknown, ?
p84
aVAugust 2, 1860, Moffat
p85
aVJune 2, 1860, Glasgow
p86
aVDecember 8, 1860, Ayr
p87
aVMay 8, 1860, Glasgow
p88
aVAugust 24, 1861, Edinburgh
p89
aVMarch 4, 1859, Shettleston
p90
aVMarch 1, 1859, Glasgow
p91
aVAugust 1, 1862, Dirleton, E Lothian
p92
aVJanuary 14, 1864, Lochwinnoch
p93
aVSeptember 24, 1858, Glasgow
p94
aVNovember 12, 1857, Kincardine
p95
aVJune 29, 1858, Glasgow
p96
aVDecember 18, 1860, Lasswade
p97
aV(guess: regd Q3), Sculcoates, Hull
p98
aVJanuary 7, 1862, Alloa
p99
aVDecember 31, 1857, Edinburgh
p100
aVApril 29, 1861, Bridgeton, Glasgow
p101
aVMay 17, 1863, Ledcamerock
p102
aVJuly 10, 1857, ?
p103
aVDecember 18, 1861, Poona
p104
aVJuly 26, 1858, ?
p105
aVdate unknown, ?
p106
aVSeptember 16, 1862, Penicuik
p107
aVOctober 9, 1859, Tradeston, Glasgow
p108
aVDecember 29, 1859, Glasgow
p109
aVdate unknown, ?
p110
aVOctober 2, 1859, Blythswood, Glasgow
p111
aVOctober 3, 1862, Meerut
p112
aVJanuary 22, 1859, Glasgow
p113
aVOctober 19, 1864, St Giles, Edinburgh
p114
aVAugust 3, 1864, Partick
p115
aVJanuary 3, 1863
p116
aVOctober 9, 1862, Crieff, Perth
p117
aVSeptember 6, 1863, Leuchars, Fife
p118
aVJanuary 28, 1865, St Andrew, Edinburgh
p119
aVJanuary 19, 1863, Broughty Ferry
p120
aVDecember 7, 1865, Alloa
p121
aVMay 26, 1865, Hamilton
p122
aVJuly 21, 1861, Anderston, Glasgow
p123
aVDecember 14, 1859, Clifton
p124
aVOctober 21, 1865, Garroch, Aberdeenshre
p125
aVMay 1, 1863, Newton, Midlothian
p126
aVSeptember 27, 1863, Kelso
p127
aVdate unknown, ?
p128
aVAugust 27, 1866, Thox
p129
aVFebruary 14, 1865, Hamilton
p130
aVJune 15, 1861, Glasgow
p131
aVMay 15, 1864, Kingston
p132
aVMarch 25, 1984, Geelong, VIC
p133
aVJune 12, 1866, Dunse, Berwick
p134
aVOctober 5, 1865, Ayr
p135
aVOctober 12, 1866, ?
p136
aVJune 23, 1865, Partick
p137
aVApril 3, 1865, Edinburgh
p138
aVJuly 23, 1861, Glasgow
p139
aVNovember 21, 1866, Neilston
p140
aVNovember 13, 1867, Glasgow
p141
aVMarch 3, 1866, Oban
p142
aVMay 22, 1865, Victoria
p143
aVDecember 2, 1866, Brechin, Forfar
p144
aVSeptember 1, 1866, Aberdeen
p145
aVMay 5, 1868, Paisley
p146
aVJuly 12, 1867, Edinburgh
p147
aVJanuary 31, 1864, Jedburgh
p148
aVMarch 1, 1866, Cumnock
p149
aVNovember 9, 1867, Glasgow
p150
aVApril 25, 1868, ?
p151
aVFebruary 16, 1867, Garallan
p152
aVcirca 1861, Invergarry, Inverness
p153
aVcirca 1866, ?
p154
aVFebruary 15, 1868
p155
aVJanuary 8, 1869, Newington, Edinburgh
p156
aVFebruary 22, 1868, Abbey Wood, Kent
p157
aVdate unknown, ?
p158
aVAugust 20, 1865, Neilston
p159
aV(guess: regd Q3), Bellingham
p160
aVApril 26, 1867, London, ON
p161
aVAugust 31, 1869, Merchiston, Edinburgh
p162
aVNovember 27, 1869, ?
p163
aVJune 22, 1868, Munich
p164
aVOctober 26, 1868, Vellore, East Indie
p165
aVJanuary 22, 1872, Bothwell, Glasgow
p166
aVAugust 18, 1873, Bothwell
p167
aVJanuary 2, 1865, Edinburgh
p168
aVMay 2, 1868, Aberdour, Fife
p169
aVOctober 17, 1872, Horsham, Sussex
p170
aVMarch 9, 1873, ?
p171
aVSeptember 24, 1865, Camberwell, London
p172
aVApril 21, 1870, Tradeston, Glasgow
p173
aVMarch 9, 1871, Edinburgh
p174
aVApril 23, 1872, Westhoe, Durham
p175
aVMay 30, 1871, Glasgow
p176
aVDecember 25, 1866, Blythswood, Glasgow
p177
aVJune 15, 1867, London, ON
p178
aVMarch 20, 1869, Shawlands, Glasgow
p179
aVDecember 27, 1867, Partick, Glasgow
p180
aVMarch 4, 1871, Anderston, Glasgow
p181
aVdate unknown, ?
p182
aVdate unknown, ?
p183
aVSeptember 2, 1872, ?
p184
aVFebruary 17, 1869, Kinfauns
p185
aVDecember 9, 1870, Melrose
p186
aVAugust 19, 1870, London
p187
aVOctober 24, 1875, Edinburgh
p188
aVdate unknown, ?
p189
aVNovember 7, 1875, Inverary
p190
aVNovember 4, 1873, ?
p191
aVOctober 1, 1876, Bothwell
p192
aVSeptember 30, 1875, Glasgow
p193
aVJune 14, 1870, Hawick
p194
aVJanuary 10, 1875, ?
p195
aVJuly 1, 1873, N Berwick
p196
aVOctober 20, 1869, Edinburgh
p197
aVMarch 21, 1873, Edinburgh
p198
aVSeptember 15, 1873, Cathcart, Glasgow
p199
aVApril 2, 1877, Dalmeny
p200
aVDecember 11, 1871, Hawick
p201
aVMarch 8, 1875, ?
p202
aVMarch 2, 1872, Geelong, VIC
p203
aVApril 5, 1868
p204
aVJuly 21, 1877, ?
p205
aVAugust 13, 1877, Edinburgh
p206
aVJuly 25, 1873, South Shields
p207
aVMarch 22, 1874, Leith, Edinburgh
p208
aVDecember 11, 1877, Edinburgh
p209
aVAugust 15, 1877, Glasgow
p210
aVApril 29, 1872, Aberdeen
p211
aVFebruary 13, 1874, Jedburgh
p212
aVApril 30, 1873, Govan, Glasgow
p213
aVNovember 17, 1878, Bothwell
p214
aVMarch 17, 1876, ?
p215
aVdate unknown, ?
p216
aVJune 18, 1876, ?
p217
aVSeptember 22, 1876, Edinburgh
p218
aVJanuary 31, 1876, Kelvin, Glasgow
p219
aVMay 28, 1878, Fife
p220
aVJuly 23, 1878, Glasgow
p221
aVOctober 6, 1875, Glasgow
p222
aVApril 18, 1876, Glasgow
p223
aVJanuary 16, 1879, Edinburgh
p224
aVDecember 8, 1880, St George, Edinburgh
p225
aVApril 11, 1879, Edinburgh
p226
aVSeptember 21, 1877, Peebles
p227
aVJanuary 3, 1879, Dundee
p228
aVDecember 26, 1875, Edinburgh
p229
aVOctober 20, 1877, Las Flores
p230
aVDecember 14, 1878, Partick, Glasgow
p231
aVMarch 18, 1880, Wishaw
p232
aVSeptember 4, 1879, Edinburgh
p233
aVOctober 23, 1878, Edinburgh
p234
aVDecember 13, 1879, Airdrie
p235
aVJune 19, 1881, Crichton, Midlothian
p236
aVJanuary 17, 1878, Nelson
p237
aVDecember 7, 1875, Edinburgh
p238
aVOctober 24, 1877, Loudon, Ayrshire
p239
aVFebruary 15, 1880, Rutherford, Roxburgh
p240
aVMay 19, 1882, Partick
p241
aVApril 3, 1878, ?
p242
aVFebruary 23, 1879, Glasgow
p243
aVSeptember 5, 1882, Edinburgh
p244
aVOctober 18, 1881, Inverkeithing
p245
aVJuly 13, 1881, Hawick
p246
aVJuly 12, 1874, Ipswich, QLD
p247
aVMarch 6, 1878, Edinburgh
p248
aVMarch 13, 1882, Edinburgh
p249
aVApril 26, 1878, Hamilton
p250
aVNovember 14, 1880, Kelso
p251
aVMarch 17, 1881, Ayr
p252
aVAugust 5, 1880, ?
p253
aVJanuary 21, 1878, Dineliquin
p254
aVcirca 1879, ?
p255
aVFebruary 11, 1879, ?
p256
aVJune 17, 1878, Edinburgh
p257
aVJuly 15, 1879, Stellenbosch
p258
aVOctober 18, 1883, Duns
p259
aVJuly 23, 1882, Edinburgh
p260
aVJune 8, 1885, ?
p261
aVMarch 2, 1884, ?
p262
aVJuly 27, 1883, Glasgow
p263
aVApril 29, 1882, Dunoon
p264
aVApril 27, 1877, Norwich
p265
aVApril 11, 1883, Edinburgh
p266
aVDecember 8, 1880, Hawick
p267
aVOctober 9, 1883, Leeds
p268
aVMay 15, 1879, Edinburgh
p269
aVJanuary 2, 1882, Panbride, Angus
p270
aVApril 30, 1882, Durban
p271
aVMarch 11, 1882, Dunedin
p272
aVcirca 1880, ?
p273
aVOctober 11, 1883, ?
p274
aVMay 11, 1883, Moniaive, Dumfriesshi
p275
aVMarch 5, 1881, Glasgow
p276
aVNovember 17, 1880, Glasgow
p277
aVOctober 17, 1886, Sunderland
p278
aVFebruary 2, 1888, New Kilpatrick, Dumba
p279
aVMay 31, 1880, ?
p280
aVSeptember 17, 1885, Whitehaven
p281
aVOctober 21, 1884, ?
p282
aVNovember 9, 1884, Glasgow
p283
aVAugust 5, 1883, Glasgow
p284
aVAugust 15, 1886, Kingston-upon-Thames
p285
aVJanuary 4, 1888, Yokohama
p286
aVSeptember 9, 1883, Larkhall
p287
aVJuly 9, 1882, Hampstead
p288
aVOctober 23, 1885, Edinburgh
p289
aV(guess: regd Q3), Haslingden, Lancs
p290
aVMay 20, 1887, Pontypridd
p291
aVAugust 9, 1881, Edinburgh
p292
aVOctober 6, 1887, Edinburgh
p293
aVdate unknown
p294
aVMarch 23, 1888, Broughty Ferry
p295
aVMay 27, 1885, Ealing
p296
aVApril 9, 1888, Edinburgh
p297
aVMarch 10, 1884, Trinidad
p298
aVMarch 17, 1885, Broughty Ferry
p299
aVMay 5, 1883, ?
p300
aVAugust 4, 1883, Hawthornden
p301
aVSeptember 20, 1884, Glasgow
p302
aVNovember 11, 1889, Sydney, NSW
p303
aVSeptember 7, 1888, Glasgow
p304
aVJuly 15, 1886, Edmonton, London
p305
aVOctober 4, 1886, Hawick
p306
aVAugust 27, 1885, Pontypridd
p307
aVFebruary 24, 1889, Edinburgh
p308
aVMay 18, 1887, Glasgow
p309
aVSeptember 30, 1886, Balmuirfield, Dundee
p310
aVDecember 4, 1883, Greenock
p311
aVDecember 23, 1889, Glasgow
p312
aVFebruary 3, 1887, ?
p313
aVFebruary 12, 1886, Perth
p314
aVDecember 4, 1887, Edinburgh
p315
aVNovember 19, 1890, Hawick
p316
aVApril 12, 1886, Mozufferpore
p317
aVNovember 23, 1888, Cathcart, Glasgow
p318
aVJuly 19, 1885, Otepopo
p319
aVJuly 23, 1882, Waimate
p320
aVJanuary 10, 1890, Perth
p321
aVFebruary 10, 1888, Riversdale
p322
aVOctober 30, 1885, Glasgow
p323
aVOctober 28, 1888, Inverleithin, Peebles
p324
aVMay 29, 1888, Sefton Pk, Liverpool
p325
aVFebruary 6, 1891, Hartlepool
p326
aVDecember 30, 1892, Burma
p327
aVDecember 7, 1890, ?
p328
aVJanuary 13, 1892, Juniper Green, Edinbu
p329
aVOctober 27, 1889, Kelvin, Glasgow
p330
aVJune 13, 1889, ?
p331
aVSeptember 10, 1891, Edinburgh
p332
aVSeptember 6, 1886, ?
p333
aVMarch 9, 1891, Edinburgh
p334
aVJanuary 16, 1889, Glasgow
p335
aVSeptember 6, 1890, Edinburgh
p336
aVNovember 10, 1889, Moorreesburg
p337
aVNovember 23, 1884
p338
aVNovember 16, 1890, Pontypool
p339
aVJuly 17, 1887, Glenwood, Leslie, Fife
p340
aVMay 12, 1888, Roseberry Temple, Mid
p341
aVMarch 17, 1890, Edinburgh
p342
aVJuly 4, 1888, Wimbledon
p343
aVJuly 28, 1891, ?
p344
aVSeptember 2, 1892, Croydon
p345
aVAugust 18, 1891, Amoy
p346
aVMarch 6, 1886, ?
p347
aVSeptember 26, 1891, ?
p348
aVJuly 18, 1891, Wanlockhead
p349
aVJanuary 22, 1893, Selangor, Malaya
p350
aVMarch 8, 1890, Aberdeen
p351
aVDecember 5, 1890, Greenock
p352
aVOctober 23, 1889, Launceston, TAS
p353
aVMarch 4, 1889, Beith, Ayrshire
p354
aVApril 28, 1889, Edinburgh
p355
aVOctober 18, 1892, Edinburgh
p356
aVMarch 31, 1893, Lambeth
p357
aVMarch 26, 1892, ?
p358
aVSeptember 23, 1892, Edinburgh
p359
aVJuly 27, 1891, ?
p360
aVMarch 8, 1893, Hamilton
p361
aVApril 25, 1892, ?
p362
aVJune 8, 1893, ?
p363
aVDecember 30, 1892, Edinburgh
p364
aVSeptember 27, 1890, Leith
p365
aVMarch 20, 1892, Calcutta
p366
aVMay 22, 1893, Galashiels
p367
aVAugust 13, 1889, Partick, Glasgow
p368
aVOctober 11, 1888, Jedburgh
p369
aVAugust 18, 1894, ?
p370
aVApril 14, 1892, ?
p371
aVJune 7, 1894, Calton, Edinburgh
p372
aVFebruary 15, 1893
p373
aVNovember 28, 1892, Amoy
p374
aVJanuary 20, 1893, ?
p375
aVJanuary 23, 1892, ?
p376
aVApril 17, 1894, Glasgow
p377
aV(guess: 1893/1894), Colombo, Ceylon
p378
aVMarch 13, 1890, Strathmiglo, Fife
p379
aVAugust 5, 1899, Kinning Park, Glasgow
p380
aVSeptember 26, 1892, Cardiff
p381
aVJuly 28, 1900, Port William
p382
aVJuly 2, 1897, Eaglesham, Renfrew
p383
aVJune 10, 1895, Edinburgh
p384
aVSeptember 1, 1901, Glasgow
p385
aVMarch 22, 1900, Edinburgh
p386
aVApril 4, 1900, Speyside
p387
aVDecember 18, 1899, Sydney, NSW
p388
aVOctober 15, 1896, Colombo, Ceylon
p389
aVOctober 23, 1900, ?
p390
aVMay 14, 1893, Perth, WA
p391
aVJune 18, 1896
p392
aVSeptember 9, 1898, Glasgow
p393
aVAugust 10, 1897, ?
p394
aVSeptember 13, 1896, ?
p395
aVMay 11, 1899, Chirnside
p396
aVJune 23, 1900, Maryhill, Glasgow
p397
aVMay 6, 1894, ?
p398
aVFebruary 26, 1889
p399
aVJanuary 24, 1899, Edinburgh
p400
aVJuly 23, 1899, Ashkirk
p401
aVJuly 4, 1901, Partick, Glasgow
p402
aVDecember 16, 1896
p403
aVSeptember 11, 1900, Melrose
p404
aVJanuary 16, 1902, Tientsin
p405
aVOctober 16, 1903, Newtonmore
p406
aVMarch 14, 1897, Maryhill, Glasgow
p407
aVJanuary 16, 1901, Bolton, Lancs
p408
aVFebruary 9, 1894, ?
p409
aVOctober 14, 1900, Partick, Glasgow
p410
aVNovember 20, 1895, New York, NY, United States
p411
aVMay 18, 1901, Kippen, Stirlingshire
p412
aVFebruary 3, 1899, ?
p413
aVMay 28, 1902, ?
p414
aVJanuary 27, 1896, Liverpool
p415
aVOctober 22, 1902, ?
p416
aVOctober 5, 1900, Machsville, NSW
p417
aVApril 28, 1899, Kinning Park, Glasgow
p418
aVJuly 2, 1898
p419
aVJune 11, 1898, Gorebridge
p420
aVOctober 31, 1903, Charville
p421
aVNovember 8, 1904
p422
aVSeptember 19, 1902, Glasgow
p423
aVJuly 2, 1898, Westport
p424
aVMarch 25, 1900, Easdale, Argyll
p425
aVOctober 31, 1903, Melbourne, VIC
p426
aVJanuary 8, 1900, Coldstream
p427
aVJune 29, 1901, ?
p428
aVDecember 8, 1903, ?
p429
aVFebruary 18, 1903, Kirkcudbright
p430
aVFebruary 9, 1903, Glasgow
p431
aVDecember 19, 1900, ?
p432
aVSeptember 24, 1903, ?
p433
aVMay 3, 1897, ?
p434
aVDecember 10, 1903, Glasgow
p435
aVJune 14, 1904, ?
p436
aVFebruary 3, 1904, Edinburgh
p437
aVAugust 7, 1904, Glasgow
p438
aVJune 19, 1902, Selkirk
p439
aVMarch 8, 1905, Cadder, Lanarkshire
p440
aVJune 4, 1905, ?
p441
aVJuly 3, 1907
p442
aVOctober 26, 1903, Leeds
p443
aVMarch 4, 1904, ?
p444
aVJuly 31, 1903, Pollockshields
p445
aVMarch 12, 1907, Edinburgh
p446
aVSeptember 19, 1905, ?
p447
aVFebruary 11, 1907, Hawick
p448
aVOctober 19, 1903, ?
p449
aVAugust 24, 1906, ?
p450
aVJune 13, 1906, Willesden, Mx
p451
aVMarch 27, 1906, Fifeshire
p452
aVMay 12, 1905, Canongate, Edinburgh
p453
aVJanuary 5, 1907, Hawick
p454
aVJanuary 19, 1903, Helmsdale
p455
aVcirca 1908, ?
p456
a.