(lp1
VScotland v England at Edinburgh, Mar 27, 1871
p2
aVScotland v England at Edinburgh, Mar 27, 1871
p3
aVScotland v England at Edinburgh, Mar 27, 1871
p4
aVScotland v England at Edinburgh, Mar 27, 1871
p5
aVScotland v England at Edinburgh, Mar 27, 1871
p6
aVScotland v England at Edinburgh, Mar 27, 1871
p7
aVScotland v England at Edinburgh, Mar 27, 1871
p8
aVScotland v England at Edinburgh, Mar 27, 1871
p9
aVScotland v England at Edinburgh, Mar 27, 1871
p10
aVScotland v England at Edinburgh, Mar 27, 1871
p11
aVScotland v England at Edinburgh, Mar 27, 1871
p12
aVScotland v England at Edinburgh, Mar 27, 1871
p13
aVScotland v England at Edinburgh, Mar 27, 1871
p14
aVScotland v England at Edinburgh, Mar 27, 1871
p15
aVScotland v England at Edinburgh, Mar 27, 1871
p16
aVScotland v England at Edinburgh, Mar 27, 1871
p17
aVScotland v England at Edinburgh, Mar 27, 1871
p18
aVScotland v England at Edinburgh, Mar 27, 1871
p19
aVScotland v England at Edinburgh, Mar 27, 1871
p20
aVScotland v England at Edinburgh, Mar 27, 1871
p21
aVEngland v Scotland at The Oval, Feb 5, 1872
p22
aVEngland v Scotland at The Oval, Feb 5, 1872
p23
aVEngland v Scotland at The Oval, Feb 5, 1872
p24
aVEngland v Scotland at The Oval, Feb 5, 1872
p25
aVEngland v Scotland at The Oval, Feb 5, 1872
p26
aVEngland v Scotland at The Oval, Feb 5, 1872
p27
aVEngland v Scotland at The Oval, Feb 5, 1872
p28
aVEngland v Scotland at The Oval, Feb 5, 1872
p29
aVEngland v Scotland at The Oval, Feb 5, 1872
p30
aVScotland v England at Glasgow, Mar 3, 1873
p31
aVScotland v England at Glasgow, Mar 3, 1873
p32
aVScotland v England at Glasgow, Mar 3, 1873
p33
aVScotland v England at Glasgow, Mar 3, 1873
p34
aVScotland v England at Glasgow, Mar 3, 1873
p35
aVScotland v England at Glasgow, Mar 3, 1873
p36
aVScotland v England at Glasgow, Mar 3, 1873
p37
aVScotland v England at Glasgow, Mar 3, 1873
p38
aVScotland v England at Glasgow, Mar 3, 1873
p39
aVScotland v England at Glasgow, Mar 3, 1873
p40
aVScotland v England at Glasgow, Mar 3, 1873
p41
aVEngland v Scotland at The Oval, Feb 23, 1874
p42
aVEngland v Scotland at The Oval, Feb 23, 1874
p43
aVEngland v Scotland at The Oval, Feb 23, 1874
p44
aVEngland v Scotland at The Oval, Feb 23, 1874
p45
aVEngland v Scotland at The Oval, Feb 23, 1874
p46
aVEngland v Scotland at The Oval, Feb 23, 1874
p47
aVEngland v Scotland at The Oval, Feb 23, 1874
p48
aVEngland v Scotland at The Oval, Feb 23, 1874
p49
aVScotland v England at Edinburgh, Mar 8, 1875
p50
aVScotland v England at Edinburgh, Mar 8, 1875
p51
aVScotland v England at Edinburgh, Mar 8, 1875
p52
aVScotland v England at Edinburgh, Mar 8, 1875
p53
aVScotland v England at Edinburgh, Mar 8, 1875
p54
aVScotland v England at Edinburgh, Mar 8, 1875
p55
aVScotland v England at Edinburgh, Mar 8, 1875
p56
aVScotland v England at Edinburgh, Mar 8, 1875
p57
aVScotland v England at Edinburgh, Mar 8, 1875
p58
aVEngland v Scotland at The Oval, Mar 6, 1876
p59
aVEngland v Scotland at The Oval, Mar 6, 1876
p60
aVEngland v Scotland at The Oval, Mar 6, 1876
p61
aVEngland v Scotland at The Oval, Mar 6, 1876
p62
aVEngland v Scotland at The Oval, Mar 6, 1876
p63
aVEngland v Scotland at The Oval, Mar 6, 1876
p64
aVEngland v Scotland at The Oval, Mar 6, 1876
p65
aVEngland v Scotland at The Oval, Mar 6, 1876
p66
aVEngland v Scotland at The Oval, Mar 6, 1876
p67
aVIreland v Scotland at Belfast, Feb 19, 1877
p68
aVIreland v Scotland at Belfast, Feb 19, 1877
p69
aVIreland v Scotland at Belfast, Feb 19, 1877
p70
aVIreland v Scotland at Belfast, Feb 19, 1877
p71
aVIreland v Scotland at Belfast, Feb 19, 1877
p72
aVScotland v England at Edinburgh, Mar 5, 1877
p73
aVEngland v Scotland at The Oval, Mar 4, 1878
p74
aVEngland v Scotland at The Oval, Mar 4, 1878
p75
aVEngland v Scotland at The Oval, Mar 4, 1878
p76
aVEngland v Scotland at The Oval, Mar 4, 1878
p77
aVEngland v Scotland at The Oval, Mar 4, 1878
p78
aVEngland v Scotland at The Oval, Mar 4, 1878
p79
aVIreland v Scotland at Belfast, Feb 17, 1879
p80
aVIreland v Scotland at Belfast, Feb 17, 1879
p81
aVIreland v Scotland at Belfast, Feb 17, 1879
p82
aVIreland v Scotland at Belfast, Feb 17, 1879
p83
aVIreland v Scotland at Belfast, Feb 17, 1879
p84
aVScotland v England at Edinburgh, Mar 10, 1879
p85
aVScotland v Ireland at Glasgow, Feb 14, 1880
p86
aVScotland v Ireland at Glasgow, Feb 14, 1880
p87
aVScotland v Ireland at Glasgow, Feb 14, 1880
p88
aVScotland v Ireland at Glasgow, Feb 14, 1880
p89
aVEngland v Scotland at Manchester, Feb 28, 1880
p90
aVIreland v Scotland at Belfast, Feb 19, 1881
p91
aVIreland v Scotland at Belfast, Feb 19, 1881
p92
aVIreland v Scotland at Belfast, Feb 19, 1881
p93
aVIreland v Scotland at Belfast, Feb 19, 1881
p94
aVIreland v Scotland at Belfast, Feb 19, 1881
p95
aVIreland v Scotland at Belfast, Feb 19, 1881
p96
aVScotland v England at Edinburgh, Mar 19, 1881
p97
aVScotland v England at Edinburgh, Mar 19, 1881
p98
aVScotland v England at Edinburgh, Mar 19, 1881
p99
aVScotland v England at Edinburgh, Mar 19, 1881
p100
aVScotland v England at Edinburgh, Mar 19, 1881
p101
aVScotland v Ireland at Glasgow, Feb 18, 1882
p102
aVScotland v Ireland at Glasgow, Feb 18, 1882
p103
aVScotland v Ireland at Glasgow, Feb 18, 1882
p104
aVScotland v Ireland at Glasgow, Feb 18, 1882
p105
aVEngland v Scotland at Manchester, Mar 4, 1882
p106
aVEngland v Scotland at Manchester, Mar 4, 1882
p107
aVEngland v Scotland at Manchester, Mar 4, 1882
p108
aVEngland v Scotland at Manchester, Mar 4, 1882
p109
aVScotland v Wales at Edinburgh, Jan 8, 1883
p110
aVScotland v Wales at Edinburgh, Jan 8, 1883
p111
aVScotland v Wales at Edinburgh, Jan 8, 1883
p112
aVScotland v Wales at Edinburgh, Jan 8, 1883
p113
aVIreland v Scotland at Belfast, Feb 17, 1883
p114
aVIreland v Scotland at Belfast, Feb 17, 1883
p115
aVWales v Scotland at Newport, Jan 12, 1884
p116
aVWales v Scotland at Newport, Jan 12, 1884
p117
aVScotland v Ireland at Edinburgh, Feb 16, 1884
p118
aVScotland v Ireland at Edinburgh, Feb 16, 1884
p119
aVScotland v Wales at Glasgow, Jan 10, 1885
p120
aVScotland v Wales at Glasgow, Jan 10, 1885
p121
aVScotland v Wales at Glasgow, Jan 10, 1885
p122
aVScotland v Wales at Glasgow, Jan 10, 1885
p123
aVIreland v Scotland at Belfast, Feb 21, 1885
p124
aVIreland v Scotland at Belfast, Feb 21, 1885
p125
aVIreland v Scotland at Belfast, Feb 21, 1885
p126
aVWales v Scotland at Cardiff, Jan 9, 1886
p127
aVWales v Scotland at Cardiff, Jan 9, 1886
p128
aVWales v Scotland at Cardiff, Jan 9, 1886
p129
aVWales v Scotland at Cardiff, Jan 9, 1886
p130
aVWales v Scotland at Cardiff, Jan 9, 1886
p131
aVWales v Scotland at Cardiff, Jan 9, 1886
p132
aVWales v Scotland at Cardiff, Jan 9, 1886
p133
aVScotland v Ireland at Edinburgh, Feb 20, 1886
p134
aVScotland v England at Edinburgh, Mar 13, 1886
p135
aVScotland v England at Edinburgh, Mar 13, 1886
p136
aVIreland v Scotland at Belfast, Feb 19, 1887
p137
aVIreland v Scotland at Belfast, Feb 19, 1887
p138
aVIreland v Scotland at Belfast, Feb 19, 1887
p139
aVIreland v Scotland at Belfast, Feb 19, 1887
p140
aVIreland v Scotland at Belfast, Feb 19, 1887
p141
aVScotland v Wales at Edinburgh, Feb 26, 1887
p142
aVWales v Scotland at Newport, Feb 4, 1888
p143
aVWales v Scotland at Newport, Feb 4, 1888
p144
aVWales v Scotland at Newport, Feb 4, 1888
p145
aVWales v Scotland at Newport, Feb 4, 1888
p146
aVWales v Scotland at Newport, Feb 4, 1888
p147
aVWales v Scotland at Newport, Feb 4, 1888
p148
aVWales v Scotland at Newport, Feb 4, 1888
p149
aVScotland v Ireland at Edinburgh, Mar 10, 1888
p150
aVScotland v Wales at Edinburgh, Feb 2, 1889
p151
aVScotland v Wales at Edinburgh, Feb 2, 1889
p152
aVScotland v Wales at Edinburgh, Feb 2, 1889
p153
aVScotland v Wales at Edinburgh, Feb 2, 1889
p154
aVScotland v Wales at Edinburgh, Feb 2, 1889
p155
aVIreland v Scotland at Belfast, Feb 16, 1889
p156
aVIreland v Scotland at Belfast, Feb 16, 1889
p157
aVIreland v Scotland at Belfast, Feb 16, 1889
p158
aVIreland v Scotland at Belfast, Feb 16, 1889
p159
aVWales v Scotland at Cardiff, Feb 1, 1890
p160
aVWales v Scotland at Cardiff, Feb 1, 1890
p161
aVWales v Scotland at Cardiff, Feb 1, 1890
p162
aVWales v Scotland at Cardiff, Feb 1, 1890
p163
aVScotland v Wales at Edinburgh, Feb 7, 1891
p164
aVScotland v Wales at Edinburgh, Feb 7, 1891
p165
aVScotland v Wales at Edinburgh, Feb 7, 1891
p166
aVScotland v Wales at Edinburgh, Feb 7, 1891
p167
aVIreland v Scotland at Belfast, Feb 21, 1891
p168
aVIreland v Scotland at Belfast, Feb 21, 1891
p169
aVWales v Scotland at Swansea, Feb 6, 1892
p170
aVWales v Scotland at Swansea, Feb 6, 1892
p171
aVScotland v Ireland at Edinburgh, Feb 20, 1892
p172
aVScotland v Ireland at Edinburgh, Feb 20, 1892
p173
aVScotland v Wales at Edinburgh, Feb 4, 1893
p174
aVScotland v Wales at Edinburgh, Feb 4, 1893
p175
aVScotland v Wales at Edinburgh, Feb 4, 1893
p176
aVScotland v Wales at Edinburgh, Feb 4, 1893
p177
aVScotland v Wales at Edinburgh, Feb 4, 1893
p178
aVScotland v Wales at Edinburgh, Feb 4, 1893
p179
aVIreland v Scotland at Belfast, Feb 18, 1893
p180
aVIreland v Scotland at Belfast, Feb 18, 1893
p181
aVIreland v Scotland at Belfast, Feb 18, 1893
p182
aVIreland v Scotland at Belfast, Feb 18, 1893
p183
aVIreland v Scotland at Belfast, Feb 18, 1893
p184
aVEngland v Scotland at Leeds, Mar 4, 1893
p185
aVEngland v Scotland at Leeds, Mar 4, 1893
p186
aVWales v Scotland at Newport, Feb 3, 1894
p187
aVWales v Scotland at Newport, Feb 3, 1894
p188
aVWales v Scotland at Newport, Feb 3, 1894
p189
aVWales v Scotland at Newport, Feb 3, 1894
p190
aVIreland v Scotland at Lansdowne Road, Feb 24, 1894
p191
aVScotland v England at Edinburgh, Mar 17, 1894
p192
aVScotland v Wales at Edinburgh, Jan 26, 1895
p193
aVScotland v Wales at Edinburgh, Jan 26, 1895
p194
aVScotland v Wales at Edinburgh, Jan 26, 1895
p195
aVScotland v Wales at Edinburgh, Jan 26, 1895
p196
aVScotland v Wales at Edinburgh, Jan 26, 1895
p197
aVWales v Scotland at Cardiff, Jan 25, 1896
p198
aVWales v Scotland at Cardiff, Jan 25, 1896
p199
aVWales v Scotland at Cardiff, Jan 25, 1896
p200
aVWales v Scotland at Cardiff, Jan 25, 1896
p201
aVWales v Scotland at Cardiff, Jan 25, 1896
p202
aVWales v Scotland at Cardiff, Jan 25, 1896
p203
aVIreland v Scotland at Lansdowne Road, Feb 15, 1896
p204
aVIreland v Scotland at Lansdowne Road, Feb 15, 1896
p205
aVScotland v Ireland at Edinburgh, Feb 20, 1897
p206
aVScotland v Ireland at Edinburgh, Feb 20, 1897
p207
aVEngland v Scotland at Manchester, Mar 13, 1897
p208
aVEngland v Scotland at Manchester, Mar 13, 1897
p209
aVIreland v Scotland at Belfast, Feb 19, 1898
p210
aVIreland v Scotland at Belfast, Feb 19, 1898
p211
aVIreland v Scotland at Belfast, Feb 19, 1898
p212
aVIreland v Scotland at Belfast, Feb 19, 1898
p213
aVIreland v Scotland at Belfast, Feb 19, 1898
p214
aVIreland v Scotland at Belfast, Feb 19, 1898
p215
aVIreland v Scotland at Belfast, Feb 19, 1898
p216
aVIreland v Scotland at Belfast, Feb 19, 1898
p217
aVScotland v England at Edinburgh, Mar 12, 1898
p218
aVScotland v Ireland at Inverleith, Feb 18, 1899
p219
aVScotland v Ireland at Inverleith, Feb 18, 1899
p220
aVScotland v Wales at Inverleith, Mar 4, 1899
p221
aVScotland v Wales at Inverleith, Mar 4, 1899
p222
aVScotland v Wales at Inverleith, Mar 4, 1899
p223
aVEngland v Scotland at Blackheath, Mar 11, 1899
p224
aVWales v Scotland at Swansea, Jan 27, 1900
p225
aVWales v Scotland at Swansea, Jan 27, 1900
p226
aVWales v Scotland at Swansea, Jan 27, 1900
p227
aVWales v Scotland at Swansea, Jan 27, 1900
p228
aVWales v Scotland at Swansea, Jan 27, 1900
p229
aVIreland v Scotland at Lansdowne Road, Feb 24, 1900
p230
aVIreland v Scotland at Lansdowne Road, Feb 24, 1900
p231
aVIreland v Scotland at Lansdowne Road, Feb 24, 1900
p232
aVIreland v Scotland at Lansdowne Road, Feb 24, 1900
p233
aVScotland v England at Inverleith, Mar 10, 1900
p234
aVScotland v Wales at Inverleith, Feb 9, 1901
p235
aVScotland v Wales at Inverleith, Feb 9, 1901
p236
aVScotland v Wales at Inverleith, Feb 9, 1901
p237
aVScotland v Wales at Inverleith, Feb 9, 1901
p238
aVScotland v Wales at Inverleith, Feb 9, 1901
p239
aVScotland v Wales at Inverleith, Feb 9, 1901
p240
aVScotland v Wales at Inverleith, Feb 9, 1901
p241
aVScotland v Wales at Inverleith, Feb 9, 1901
p242
aVScotland v Ireland at Inverleith, Feb 23, 1901
p243
aVEngland v Scotland at Blackheath, Mar 9, 1901
p244
aVWales v Scotland at Cardiff, Feb 1, 1902
p245
aVWales v Scotland at Cardiff, Feb 1, 1902
p246
aVIreland v Scotland at Belfast, Feb 22, 1902
p247
aVIreland v Scotland at Belfast, Feb 22, 1902
p248
aVScotland v England at Inverleith, Mar 15, 1902
p249
aVScotland v Wales at Inverleith, Feb 7, 1903
p250
aVScotland v Wales at Inverleith, Feb 7, 1903
p251
aVScotland v Wales at Inverleith, Feb 7, 1903
p252
aVScotland v Wales at Inverleith, Feb 7, 1903
p253
aVScotland v Wales at Inverleith, Feb 7, 1903
p254
aVScotland v Wales at Inverleith, Feb 7, 1903
p255
aVScotland v Ireland at Inverleith, Feb 28, 1903
p256
aVEngland v Scotland at Richmond, Mar 21, 1903
p257
aVEngland v Scotland at Richmond, Mar 21, 1903
p258
aVWales v Scotland at Swansea, Feb 6, 1904
p259
aVWales v Scotland at Swansea, Feb 6, 1904
p260
aVWales v Scotland at Swansea, Feb 6, 1904
p261
aVWales v Scotland at Swansea, Feb 6, 1904
p262
aVIreland v Scotland at Lansdowne Road, Feb 27, 1904
p263
aVIreland v Scotland at Lansdowne Road, Feb 27, 1904
p264
aVScotland v England at Inverleith, Mar 19, 1904
p265
aVScotland v Wales at Inverleith, Feb 4, 1905
p266
aVScotland v Wales at Inverleith, Feb 4, 1905
p267
aVScotland v Wales at Inverleith, Feb 4, 1905
p268
aVScotland v Wales at Inverleith, Feb 4, 1905
p269
aVScotland v Ireland at Inverleith, Feb 25, 1905
p270
aVScotland v Ireland at Inverleith, Feb 25, 1905
p271
aVScotland v Ireland at Inverleith, Feb 25, 1905
p272
aVEngland v Scotland at Richmond, Mar 18, 1905
p273
aVEngland v Scotland at Richmond, Mar 18, 1905
p274
aVEngland v Scotland at Richmond, Mar 18, 1905
p275
aVEngland v Scotland at Richmond, Mar 18, 1905
p276
aVSouth Africa v Great Britain at Johannesburg, Aug 26, 1903
p277
aVScotland v New Zealand at Inverleith, Nov 18, 1905
p278
aVScotland v New Zealand at Inverleith, Nov 18, 1905
p279
aVScotland v New Zealand at Inverleith, Nov 18, 1905
p280
aVScotland v New Zealand at Inverleith, Nov 18, 1905
p281
aVScotland v New Zealand at Inverleith, Nov 18, 1905
p282
aVScotland v New Zealand at Inverleith, Nov 18, 1905
p283
aVWales v Scotland at Cardiff, Feb 3, 1906
p284
aVWales v Scotland at Cardiff, Feb 3, 1906
p285
aVIreland v Scotland at Lansdowne Road, Feb 24, 1906
p286
aVScotland v South Africa at Glasgow, Nov 17, 1906
p287
aVScotland v South Africa at Glasgow, Nov 17, 1906
p288
aVScotland v South Africa at Glasgow, Nov 17, 1906
p289
aVScotland v South Africa at Glasgow, Nov 17, 1906
p290
aVScotland v Wales at Inverleith, Feb 2, 1907
p291
aVScotland v Wales at Inverleith, Feb 2, 1907
p292
aVEngland v Scotland at Blackheath, Mar 16, 1907
p293
aVWales v Scotland at Swansea, Feb 1, 1908
p294
aVWales v Scotland at Swansea, Feb 1, 1908
p295
aVWales v Scotland at Swansea, Feb 1, 1908
p296
aVWales v Scotland at Swansea, Feb 1, 1908
p297
aVIreland v Scotland at Lansdowne Road, Feb 29, 1908
p298
aVNew Zealand v Australia at Dunedin, Sep 2, 1905
p299
aVScotland v England at Inverleith, Mar 21, 1908
p300
aVScotland v England at Inverleith, Mar 21, 1908
p301
aVScotland v England at Inverleith, Mar 21, 1908
p302
aVScotland v Wales at Inverleith, Feb 6, 1909
p303
aVScotland v Wales at Inverleith, Feb 6, 1909
p304
aVScotland v Ireland at Inverleith, Feb 27, 1909
p305
aVScotland v Ireland at Inverleith, Feb 27, 1909
p306
aVScotland v Ireland at Inverleith, Feb 27, 1909
p307
aVScotland v Ireland at Inverleith, Feb 27, 1909
p308
aVScotland v Ireland at Inverleith, Feb 27, 1909
p309
aVEngland v Scotland at Richmond, Mar 20, 1909
p310
aVEngland v Scotland at Richmond, Mar 20, 1909
p311
aVScotland v France at Inverleith, Jan 22, 1910
p312
aVScotland v France at Inverleith, Jan 22, 1910
p313
aVScotland v France at Inverleith, Jan 22, 1910
p314
aVWales v Scotland at Cardiff, Feb 5, 1910
p315
aVWales v Scotland at Cardiff, Feb 5, 1910
p316
aVIreland v Scotland at Belfast, Feb 26, 1910
p317
aVIreland v Scotland at Belfast, Feb 26, 1910
p318
aVIreland v Scotland at Belfast, Feb 26, 1910
p319
aVNew Zealand v Australia at Dunedin, Sep 2, 1905
p320
aVFrance v Scotland at Colombes, Jan 2, 1911
p321
aVFrance v Scotland at Colombes, Jan 2, 1911
p322
aVFrance v Scotland at Colombes, Jan 2, 1911
p323
aVFrance v Scotland at Colombes, Jan 2, 1911
p324
aVFrance v Scotland at Colombes, Jan 2, 1911
p325
aVFrance v Scotland at Colombes, Jan 2, 1911
p326
aVScotland v Wales at Inverleith, Feb 4, 1911
p327
aVScotland v Wales at Inverleith, Feb 4, 1911
p328
aVScotland v Wales at Inverleith, Feb 4, 1911
p329
aVScotland v Ireland at Inverleith, Feb 25, 1911
p330
aVScotland v Ireland at Inverleith, Feb 25, 1911
p331
aVEngland v Scotland at Twickenham, Mar 18, 1911
p332
aVEngland v Scotland at Twickenham, Mar 18, 1911
p333
aVEngland v Scotland at Twickenham, Mar 18, 1911
p334
aVEngland v Scotland at Twickenham, Mar 18, 1911
p335
aVEngland v Scotland at Twickenham, Mar 18, 1911
p336
aVEngland v Scotland at Twickenham, Mar 18, 1911
p337
aVScotland v France at Inverleith, Jan 20, 1912
p338
aVScotland v France at Inverleith, Jan 20, 1912
p339
aVScotland v France at Inverleith, Jan 20, 1912
p340
aVScotland v France at Inverleith, Jan 20, 1912
p341
aVScotland v France at Inverleith, Jan 20, 1912
p342
aVScotland v France at Inverleith, Jan 20, 1912
p343
aVScotland v France at Inverleith, Jan 20, 1912
p344
aVScotland v France at Inverleith, Jan 20, 1912
p345
aVScotland v England at Inverleith, Mar 16, 1912
p346
aVScotland v England at Inverleith, Mar 16, 1912
p347
aVScotland v England at Inverleith, Mar 16, 1912
p348
aVScotland v South Africa at Inverleith, Nov 23, 1912
p349
aVFrance v Scotland at Parc des Princes, Jan 1, 1913
p350
aVFrance v Scotland at Parc des Princes, Jan 1, 1913
p351
aVFrance v Scotland at Parc des Princes, Jan 1, 1913
p352
aVFrance v Scotland at Parc des Princes, Jan 1, 1913
p353
aVScotland v Wales at Inverleith, Feb 1, 1913
p354
aVScotland v Ireland at Inverleith, Feb 22, 1913
p355
aVScotland v Ireland at Inverleith, Feb 22, 1913
p356
aVEngland v Scotland at Twickenham, Mar 15, 1913
p357
aVEngland v Scotland at Twickenham, Mar 15, 1913
p358
aVEngland v Scotland at Twickenham, Mar 15, 1913
p359
aVWales v Scotland at Cardiff, Feb 7, 1914
p360
aVWales v Scotland at Cardiff, Feb 7, 1914
p361
aVWales v Scotland at Cardiff, Feb 7, 1914
p362
aVWales v Scotland at Cardiff, Feb 7, 1914
p363
aVWales v Scotland at Cardiff, Feb 7, 1914
p364
aVWales v Scotland at Cardiff, Feb 7, 1914
p365
aVWales v Scotland at Cardiff, Feb 7, 1914
p366
aVWales v Scotland at Cardiff, Feb 7, 1914
p367
aVIreland v Scotland at Lansdowne Road, Feb 28, 1914
p368
aVScotland v England at Inverleith, Mar 21, 1914
p369
aVScotland v England at Inverleith, Mar 21, 1914
p370
aVScotland v England at Inverleith, Mar 21, 1914
p371
aVFrance v Scotland at Parc des Princes, Jan 1, 1920
p372
aVFrance v Scotland at Parc des Princes, Jan 1, 1920
p373
aVFrance v Scotland at Parc des Princes, Jan 1, 1920
p374
aVFrance v Scotland at Parc des Princes, Jan 1, 1920
p375
aVFrance v Scotland at Parc des Princes, Jan 1, 1920
p376
aVFrance v Scotland at Parc des Princes, Jan 1, 1920
p377
aVFrance v Scotland at Parc des Princes, Jan 1, 1920
p378
aVFrance v Scotland at Parc des Princes, Jan 1, 1920
p379
aVScotland v Wales at Inverleith, Feb 7, 1920
p380
aVScotland v Wales at Inverleith, Feb 7, 1920
p381
aVScotland v Wales at Inverleith, Feb 7, 1920
p382
aVScotland v Ireland at Inverleith, Feb 28, 1920
p383
aVEngland v Scotland at Twickenham, Mar 20, 1920
p384
aVScotland v France at Inverleith, Jan 22, 1921
p385
aVScotland v France at Inverleith, Jan 22, 1921
p386
aVScotland v France at Inverleith, Jan 22, 1921
p387
aVScotland v France at Inverleith, Jan 22, 1921
p388
aVScotland v France at Inverleith, Jan 22, 1921
p389
aVScotland v France at Inverleith, Jan 22, 1921
p390
aVScotland v France at Inverleith, Jan 22, 1921
p391
aVWales v Scotland at Swansea, Feb 5, 1921
p392
aVWales v Scotland at Swansea, Feb 5, 1921
p393
aVWales v Scotland at Swansea, Feb 5, 1921
p394
aVWales v Scotland at Swansea, Feb 5, 1921
p395
aVIreland v Scotland at Lansdowne Road, Feb 26, 1921
p396
aVIreland v Scotland at Lansdowne Road, Feb 26, 1921
p397
aVIreland v Scotland at Lansdowne Road, Feb 26, 1921
p398
aVScotland v England at Inverleith, Mar 19, 1921
p399
aVFrance v Scotland at Colombes, Jan 2, 1922
p400
aVFrance v Scotland at Colombes, Jan 2, 1922
p401
aVFrance v Scotland at Colombes, Jan 2, 1922
p402
aVFrance v Scotland at Colombes, Jan 2, 1922
p403
aVFrance v Scotland at Colombes, Jan 2, 1922
p404
aVFrance v Scotland at Colombes, Jan 2, 1922
p405
aVFrance v Scotland at Colombes, Jan 2, 1922
p406
aVFrance v Scotland at Colombes, Jan 2, 1922
p407
aVScotland v Wales at Inverleith, Feb 4, 1922
p408
aVScotland v Wales at Inverleith, Feb 4, 1922
p409
aVScotland v Wales at Inverleith, Feb 4, 1922
p410
aVEngland v Scotland at Twickenham, Mar 18, 1922
p411
aVScotland v France at Inverleith, Jan 20, 1923
p412
aVScotland v France at Inverleith, Jan 20, 1923
p413
aVScotland v France at Inverleith, Jan 20, 1923
p414
aVScotland v France at Inverleith, Jan 20, 1923
p415
aVScotland v France at Inverleith, Jan 20, 1923
p416
aVNew Zealand XV v Australia at Christchurch, Sep 3, 1921
p417
aVIreland v Scotland at Lansdowne Road, Feb 24, 1923
p418
aVFrance v Scotland at Paris, Jan 1, 1924
p419
aVFrance v Scotland at Paris, Jan 1, 1924
p420
aVFrance v Scotland at Paris, Jan 1, 1924
p421
aVFrance v Scotland at Paris, Jan 1, 1924
p422
aVFrance v Scotland at Paris, Jan 1, 1924
p423
aVNew Zealand v South Africa at Dunedin, Aug 13, 1921
p424
aVScotland v Wales at Inverleith, Feb 2, 1924
p425
aVScotland v Wales at Inverleith, Feb 2, 1924
p426
aVScotland v Ireland at Inverleith, Feb 23, 1924
p427
aVScotland v Ireland at Inverleith, Feb 23, 1924
p428
aVScotland v France at Inverleith, Jan 24, 1925
p429
aVScotland v France at Inverleith, Jan 24, 1925
p430
aVScotland v France at Inverleith, Jan 24, 1925
p431
aVScotland v France at Inverleith, Jan 24, 1925
p432
aVScotland v France at Inverleith, Jan 24, 1925
p433
aVScotland v France at Inverleith, Jan 24, 1925
p434
aVWales v Scotland at Swansea, Feb 7, 1925
p435
aVFrance v Scotland at Colombes, Jan 2, 1926
p436
aVSouth Africa v Great Britain at Durban, Aug 16, 1924
p437
aVScotland v Wales at Murrayfield, Feb 6, 1926
p438
aVScotland v Ireland at Murrayfield, Feb 27, 1926
p439
aVEngland v Scotland at Twickenham, Mar 20, 1926
p440
aVScotland v France at Murrayfield, Jan 22, 1927
p441
aVWales v Scotland at Cardiff, Feb 5, 1927
p442
aVScotland v Australia at Murrayfield, Dec 17, 1927
p443
aVScotland v Australia at Murrayfield, Dec 17, 1927
p444
aVScotland v Australia at Murrayfield, Dec 17, 1927
p445
aVScotland v Australia at Murrayfield, Dec 17, 1927
p446
aVScotland v Australia at Murrayfield, Dec 17, 1927
p447
aVScotland v Australia at Murrayfield, Dec 17, 1927
p448
aVScotland v Wales at Murrayfield, Feb 4, 1928
p449
aVScotland v Wales at Murrayfield, Feb 4, 1928
p450
aVScotland v Ireland at Murrayfield, Feb 25, 1928
p451
aVScotland v Ireland at Murrayfield, Feb 25, 1928
p452
aVEngland v Scotland at Twickenham, Mar 17, 1928
p453
aVScotland v France at Murrayfield, Jan 19, 1929
p454
aVScotland v France at Murrayfield, Jan 19, 1929
p455
aVScotland v France at Murrayfield, Jan 19, 1929
p456
a.