(lp1
S'John Arthur'
p2
aS'William Brown'
p3
aS'Angus Buchanan'
p4
aS'Tom Chalmers'
p5
aS'Alfred Clunies-Ross'
p6
aS'Andrew Colville'
p7
aS'William Cross'
p8
aS'Daniel Drew'
p9
aS'Jim Finlay'
p10
aS'William Forsyth'
p11
aS'Bulldog Irvine'
p12
aS'William Lyall'
p13
aS'John MacFarlane'
p14
aS'Thomas Marshall'
p15
aS'James Mein'
p16
aS'Francis Moncreiff'
p17
aS'Robert Munro'
p18
aS'George Ritchie'
p19
aS'Alexander Robertson'
p20
aS'John Thomson'
p21
aS'John Anderson'
p22
aS'Leslie Balfour-Melville'
p23
aS'Edward Bannerman'
p24
aS'Charles Cathcart'
p25
aS'James McClure'
p26
aS'Reginald Maitland'
p27
aS'William Marshall'
p28
aS'Frederick Maxwell'
p29
aS'Henry Renny-Tailyour'
p30
aS'Henry Allan'
p31
aS'Peter Anton'
p32
aS'Charles Bryce'
p33
aS'John Davidson'
p34
aS'William Grant'
p35
aS'George McClure'
p36
aS'Alexander Petrie'
p37
aS'James Sanderson'
p38
aS'Tom Whittington'
p39
aS'Robert Wilson'
p40
aS'Alexander Wood'
p41
aS'Hugh Hamilton'
p42
aS'Gilbert Heron'
p43
aS'William Kidston'
p44
aS'Tom Neilson'
p45
aS'James Reid'
p46
aS'Alexander Stewart'
p47
aS'John Tod'
p48
aS'Arthur Young'
p49
aS'Allan Arthur'
p50
aS'Malcolm Cross'
p51
aS'James Dunlop'
p52
aS'Alec Finlay'
p53
aS'Ninian Finlay'
p54
aS'George Fleming'
p55
aS'John Gordon'
p56
aS'Arthur Marshall'
p57
aS'Duncan Robertson'
p58
aS'William Bolton'
p59
aS'Nat Brewis'
p60
aS'James Carrick'
p61
aS'Gussie Graham'
p62
aS'John Junor'
p63
aS'David Lang'
p64
aS'George Paterson'
p65
aS'Charles Villar'
p66
aS'David Watson'
p67
aS'Henry Johnston'
p68
aS'Robert Mackenzie'
p69
aS'Henry Napier'
p70
aS'Edward Pocock'
p71
aS'Stewart Smith'
p72
aS'Thomas Torrie'
p73
aS'Louis Auldjo'
p74
aS'James Campbell'
p75
aS'Duncan Irvine'
p76
aS'Bill Maclagan'
p77
aS'George MacLeod'
p78
aS'John Neilson'
p79
aS'Bob Ainslie'
p80
aS'John Brown'
p81
aS'William Masters'
p82
aS'Errol Smith'
p83
aS'D. Somerville'
p84
aS'Edward Ewart'
p85
aS'William Brown'
p86
aS'David McCowan'
p87
aS'Charles Stewart'
p88
aS'Jack Tait'
p89
aS'David Cassels'
p90
aS'Bryce Allan'
p91
aS'Thomas Begbie'
p92
aS'Charlie Reid'
p93
aS'George Robb'
p94
aS'Pat Smeaton'
p95
aS'Archibald Walker'
p96
aS'Tom Ainslie'
p97
aS'James Fraser'
p98
aS'Robert Maitland'
p99
aS'William Peterkin'
p100
aS'Bunny Wauchope'
p101
aS'Tom Anderson'
p102
aS'Fraser Gore'
p103
aS'Augustus Grant-Asher'
p104
aS'Frank Hunter'
p105
aS'Andrew Philp'
p106
aS'James Veitch'
p107
aS'James Walker'
p108
aS'Andrew Walls'
p109
aS'John Jamieson'
p110
aS'David Kidston'
p111
aS'David McFarlan'
p112
aS'John Mowat'
p113
aS'George Aitchison'
p114
aS'Marshall Reid'
p115
aS'George Lindsay'
p116
aS'John Tod'
p117
aS'Charles Berry'
p118
aS'Ernest Roland'
p119
aS'Pat Harrower'
p120
aS'Gardyne Maitland'
p121
aS'Gordon Mitchell'
p122
aS'Alexander Stephen'
p123
aS'Henry Evans'
p124
aS'Walter Irvine'
p125
aS'Patrick Wauchope'
p126
aS'Alexander Clay'
p127
aS'J. French'
p128
aS'William Holms'
p129
aS'Flowerdew McIndoe'
p130
aS'William MacLeod'
p131
aS'Charles Milne'
p132
aS'Reggie Morrison'
p133
aS'Duncan MacLeod'
p134
aS'Matthew McEwan'
p135
aS'George Wilson'
p136
aS'Hugh Ker'
p137
aS'Judy MacMillan'
p138
aS'David Morton'
p139
aS'Charles Orr'
p140
aS'Alexander Woodrow'
p141
aS'Alec Cameron'
p142
aS'Henry Chambers'
p143
aS'Alfred Duke'
p144
aS'Macbeth Duncan'
p145
aS'Charles Fraser'
p146
aS'Harry Stevenson'
p147
aS'Louis Stevenson'
p148
aS'Tom White'
p149
aS'Alexander Malcolm'
p150
aS'Bill Auld'
p151
aS'John Boswell'
p152
aS'William Macdonald'
p153
aS'James Marsh'
p154
aS'Alfred Methuen'
p155
aS'Alexander Aitken'
p156
aS'Darsie Anderson'
p157
aS'J.G. McKendrick'
p158
aS'Jack Orr'
p159
aS'Adam Dalgleish'
p160
aS'Frederick Goodhue'
p161
aS'Gregor MacGregor'
p162
aS'Ian MacIntyre'
p163
aS'Paul Clauss'
p164
aS'Herbert Leggatt'
p165
aS'George Neilson'
p166
aS'William Neilson'
p167
aS'William Gibson'
p168
aS'William Wotherspoon'
p169
aS'George Campbell'
p170
aS'John Millar'
p171
aS'Nelson Henderson'
p172
aS'James Woodburn'
p173
aS'William Cownie'
p174
aS'James Gowans'
p175
aS'Robert Greig'
p176
aS'Thomas Hendry'
p177
aS'Henry Menzies'
p178
aS'David Robertson'
p179
aS'James Bishop'
p180
aS'William Donaldson'
p181
aS'D. Fisher'
p182
aS'Jim Ford'
p183
aS'John Simpson'
p184
aS'Roger Davidson'
p185
aS'Tom Scott'
p186
aS'Henry Gedge'
p187
aS'Willie McEwan'
p188
aS'John Rogerson'
p189
aS'Hugh Wright'
p190
aS'Alexander Anderson'
p191
aS'Gordon Neilson'
p192
aS'Harry Dods'
p193
aS'Mattha Elliot'
p194
aS'Allan Smith'
p195
aS'Harry Smith'
p196
aS'Robin Welsh'
p197
aS'Andrew Balfour'
p198
aS'James Couper'
p199
aS'Mark Morrison'
p200
aS'Davie Patterson'
p201
aS'Tom Scott'
p202
aS'Alec Timms'
p203
aS'Charles Fleming'
p204
aS'George Turnbull'
p205
aS'Alec Laidlaw'
p206
aS'Ronald Stevenson'
p207
aS'Alfred Bucher'
p208
aS'Alec Robertson'
p209
aS'John Dykes'
p210
aS'Graham Kerr'
p211
aS'Joe Mabon'
p212
aS'Andrew MacKinnon'
p213
aS'Robbie Neilson'
p214
aS'James Reid'
p215
aS'Robert Scott'
p216
aS'Edward Spencer'
p217
aS'Tommy Nelson'
p218
aS'Lawrence Harvey'
p219
aS'Douglas Monypenny'
p220
aS'George Lamond'
p221
aS'Harry Rottenburg'
p222
aS'William Thomson'
p223
aS'John Gillespie'
p224
aS'David Bedell-Sivright'
p225
aS'Jack Crabbie'
p226
aS'Frank Fasson'
p227
aS'Frederick Henderson'
p228
aS'William Morrison'
p229
aS'John Campbell'
p230
aS'James Greenlees'
p231
aS'Bill Scott'
p232
aS'William Welsh'
p233
aS'Lewis Bell'
p234
aS'John Bell'
p235
aS'Alexander Duncan'
p236
aS'Nolan Fell'
p237
aS'Andrew Flett'
p238
aS'Alex Frew'
p239
aS'Jimmy Ross'
p240
aS'Robert Stronach'
p241
aS'Phipps Turnbull'
p242
aS'Francis Dods'
p243
aS'Robert Neill'
p244
aS'John Bedell-Sivright'
p245
aS'Bill Kyle'
p246
aS'Herbert Bullmore'
p247
aS'Andrew Drybrough'
p248
aS'Ernest Simson'
p249
aS'Fatty Cairns'
p250
aS'Walter Forrest'
p251
aS'Norman Kennedy'
p252
aS'John Knox'
p253
aS'Hugh Orr'
p254
aS'Leonard West'
p255
aS'Charles France'
p256
aS'Jack Dallas'
p257
aS'Jimmy Macdonald'
p258
aS'Alexander Bisset'
p259
aS'George Crabbie'
p260
aS'Lewis MacLeod'
p261
aS'Edward Ross'
p262
aS'William Milne'
p263
aS'Joseph Waters'
p264
aS'Hugh Fletcher'
p265
aS'John Forbes'
p266
aS'Ned Little'
p267
aS'Pat Munro'
p268
aS'Andrew Ross'
p269
aS'Maurice Dickson'
p270
aS'Harold McCowat'
p271
aS'William Ritchie'
p272
aS'Tom Elliot'
p273
aS'John MacCallum'
p274
aS'Hugh Monteith'
p275
aS'Douglas Schulze'
p276
aS'Louis Greig'
p277
aS'James Mackenzie'
p278
aS'Ken MacLeod'
p279
aS'William Russell'
p280
aS'John Scoular'
p281
aS'John Simson'
p282
aS'Tennant Sloan'
p283
aS'Bill Church'
p284
aS'Alec Purves'
p285
aS'Maurie Walter'
p286
aS'George Frew'
p287
aS'Campbell Geddes'
p288
aS'Louis Speirs'
p289
aS'William Thomson'
p290
aS'Duncan MacGregor'
p291
aS'George Sanderson'
p292
aS'Jock Scott'
p293
aS'J.A. Brown'
p294
aS'George Cunningham'
p295
aS'Geoffrey Gowlland'
p296
aS'Hugh Martin'
p297
aS'John Wilson'
p298
aS'Colin Gilray'
p299
aS'James Robertson'
p300
aS'Lewis Robertson'
p301
aS'Albert Wade'
p302
aS'Gus Angus'
p303
aS'Jim Tennent'
p304
aS'William Lely'
p305
aS'Robert Lindsay-Watson'
p306
aS'John MacGregor'
p307
aS'Jimmy Pearson'
p308
aS'Charles Stuart'
p309
aS'Alexander Moodie'
p310
aS'James Reid-Kerr'
p311
aS'Fletcher Buchanan'
p312
aS'Ian Robertson'
p313
aS'Robert Stevenson'
p314
aS'Puss Milroy'
p315
aS'Walter Sutherland'
p316
aS'Cecil Abercrombie'
p317
aS'Jimmy Dobson'
p318
aS'Andrew Lindsay'
p319
aS'Donald Macpherson'
p320
aS'Rowland Fraser'
p321
aS'Frank Osler'
p322
aS'Alexander Stevenson'
p323
aS'Borth Todd'
p324
aS'Freddie Turner'
p325
aS'Thomas Young'
p326
aS'Donald Grant'
p327
aS'John Macdonald'
p328
aS'Andrew Ross'
p329
aS'Andrew Greig'
p330
aS'Carl Ogilvy'
p331
aS'David Bain'
p332
aS'John Dobson'
p333
aS'JY Henderson'
p334
aS'William Hutchison'
p335
aS'Ronald Simson'
p336
aS'Stephen Steyn'
p337
aS'Mike Dickson'
p338
aS'Sandy Gunn'
p339
aS'Colin Hill'
p340
aS'Dave Howie'
p341
aS'Jenny Hume'
p342
aS'William Purves'
p343
aS'Robert Robertson'
p344
aS'George Will'
p345
aS'James Boyd'
p346
aS'Billy Burnet'
p347
aS'Charlie Usher'
p348
aS'Patrick Blair'
p349
aS'Roland Gordon'
p350
aS'George Ledingham'
p351
aS'John Macdougall'
p352
aS'Bill Stewart'
p353
aS'Rufus Bruce-Lockhart'
p354
aS'Thomas Bowie'
p355
aS'George Maxwell'
p356
aS'Eric Loudoun-Shand'
p357
aS'John Sweet'
p358
aS'Willie Wallace'
p359
aS'David Donald'
p360
aS'Andrew Hamilton'
p361
aS'Podger Laing'
p362
aS'Ronald Scobie'
p363
aS'Allen Sloan'
p364
aS'Archibald Stewart'
p365
aS'Archibald Symington'
p366
aS'Jock Wemyss'
p367
aS'Jack Warren'
p368
aS'James Huggan'
p369
aS'Ian Moffat-Pender'
p370
aS'Eric Young'
p371
aS'Gerard Crole'
p372
aS'Denoon Duncan'
p373
aS'Ernest Fahmy'
p374
aS'Bob Gallie'
p375
aS'Finlay Kennedy'
p376
aS'Monty Murray'
p377
aS'George Pattullo'
p378
aS'George Thom'
p379
aS'Eric MacKay'
p380
aS'Neil Macpherson'
p381
aS'Jake Selby'
p382
aS'Arthur Browning'
p383
aS'Charles Nimmo'
p384
aS'John Bannerman'
p385
aS'Jimmy Carmichael'
p386
aS'Ronald Cumming'
p387
aS'Hector Forsayth'
p388
aS'Leslie Gracie'
p389
aS'Ian Kilgour'
p390
aS'Alpin Thomson'
p391
aS'Rankin Buchanan'
p392
aS'Russell Donald'
p393
aS'George Douglas'
p394
aS'Hamish Shaw'
p395
aS'John McCrow'
p396
aS'George Murray'
p397
aS'Jock Stewart'
p398
aS'Cecil Mackenzie'
p399
aS'David Bertram'
p400
aS'Doug Davies'
p401
aS'Jimmy Dykes'
p402
aS'Bill Johnston'
p403
aS'Jock Lawrie'
p404
aS'Eric Liddell'
p405
aS'Phil Macpherson'
p406
aS'Andrew Stevenson'
p407
aS'Willie Bryce'
p408
aS'William Dobson'
p409
aS'Ronald Warren'
p410
aS'Jimmy Tolmie'
p411
aS'Dan Drysdale'
p412
aS'David Kerr'
p413
aS'Teddy McLaren'
p414
aS'Samuel McQueen'
p415
aS'Ludo Stuart'
p416
aS'Johnny Wallace'
p417
aS'Robert Simpson'
p418
aS'Kelvin Hendrie'
p419
aS'Bob Howie'
p420
aS'Chris Mackintosh'
p421
aS'Andrew Ross'
p422
aS'Herbert Waddell'
p423
aS'George Aitken'
p424
aS'Sandy Gillies'
p425
aS'Ian Smith'
p426
aS'Robert Henderson'
p427
aS'Robert Millar'
p428
aS'James Gilchrist'
p429
aS'David MacMyn'
p430
aS'Jimmy Nelson'
p431
aS'John Paterson'
p432
aS'James Scott'
p433
aS'William Stevenson'
p434
aS'Jimmie Ireland'
p435
aS'William Berkley'
p436
aS'Roy Kinnear'
p437
aS'Max Simmers'
p438
aS'Jimmie Graham'
p439
aS'Gordon Boyd'
p440
aS'Jock Allan'
p441
aS'Edward Taylor'
p442
aS'Peter Douty'
p443
aS'William Ferguson'
p444
aS'Harry Greenlees'
p445
aS'Robert Kelly'
p446
aS'William Roughead'
p447
aS'Willie Welsh'
p448
aS'Jimmy Ferguson'
p449
aS'John Goodfellow'
p450
aS'Jo Hume'
p451
aS'Harry Lind'
p452
aS'Alex Brown'
p453
aS'Jock Beattie'
p454
aS'Hugh Mackintosh'
p455
aS'Bob Smith'
p456
aS'Kenneth Wright'
p457
aS'Tom Aitchison'
p458
aS'Thomas Brown'
p459
aS'Charlie Brown'
p460
aS'William Emslie'
p461
aS'Reginald Langrish'
p462
aS'Bobby Rowand'
p463
aS'Jack Stewart'
p464
aS'Frank Waters'
p465
aS'Bill Agnew'
p466
aS'Jerry Foster'
p467
aS'Thomas Hart'
p468
aS'Sammy Ford'
p469
aS'James Hutton'
p470
aS'Henry Polson'
p471
aS'David McLaren'
p472
aS'Alexander Walker'
p473
aS'Alfred Wilson'
p474
aS'James Wilson'
p475
aS'Donald Crichton-Miller'
p476
aS'Dod Wood'
p477
aS'Ross Logan'
p478
aS'James Forrest'
p479
aS'Thomas Lawther'
p480
aS'Mark Stewart'
p481
aS'Harry Hutton'
p482
aS'Andrew Dykes'
p483
aS'John Macarthur'
p484
aS'George Ritchie'
p485
aS'Francis Wright'
p486
aS'David Brown'
p487
aS'Ken Fyfe'
p488
aS'Mac Henderson'
p489
aS'Ken Jackson'
p490
aS'Bertie Lorraine'
p491
aS'Jim Ritchie'
p492
aS'James Thom'
p493
aS'Jack Waters'
p494
aS'Peter Gedge'
p495
aS'Bill Burnet'
p496
aS'Charles Dick'
p497
aS'Lindsay Lambie'
p498
aS'Douglas Lowe'
p499
aS'Kenneth Marshall'
p500
aS'Jack Park'
p501
aS'Wilson Shaw'
p502
aS'David Thom'
p503
aS'James Cotter'
p504
aS'Gordon Cottington'
p505
aS'John Crawford'
p506
aS'Jack Watherston'
p507
aS'Charlie Grieve'
p508
aS'Bob Grieve'
p509
aS'Johnny Johnston'
p510
aS'Ronald Murray'
p511
aS'Alastair McNeil'
p512
aS'William Murdoch'
p513
aS'Peter Tait'
p514
aS'Dod Gray'
p515
aS'Jimmy Kerr'
p516
aS'Duncan Shaw'
p517
aS'Malcolm Cooper'
p518
aS'Harvey Druitt'
p519
aS'Laurie Duff'
p520
aS'Hugh Murray'
p521
aS'Vivian Weston'
p522
aS'Robert Whitworth'
p523
aS'Rob Barrie'
p524
aS'Maurice Henderson'
p525
aS'George Horsburgh'
p526
aS'Joe Inglis'
p527
aS'Duncan Macrae'
p528
aS'Christian Melville'
p529
aS'Bill Ross'
p530
aS'Bill Young'
p531
aS'Rab Bruce-Lockhart'
p532
aS'Ian Shaw'
p533
aS'Robert Dryden'
p534
aS'Jake Borthwick'
p535
aS'Wilf Crawford'
p536
aS'Tommy Dorward'
p537
aS'Archibald Drummond'
p538
aS'John Forrest'
p539
aS'John Hastie'
p540
aS'George Roberts'
p541
aS'Allan Roy'
p542
aS'William Blackadder'
p543
aS'William Renwick'
p544
aS'Willie Brydon'
p545
aS'John Craig'
p546
aS'George Gallie'
p547
aS'Donny Innes'
p548
aS'Bill Purdie'
p549
aS'Sammy Sampson'
p550
aS'Ian Graham'
p551
aS'Ian Henderson'
p552
aS'Donald Mackenzie'
p553
aS'Bill Penman'
p554
aS'Gus Black'
p555
aS'Russell Bruce'
p556
aS'George Cawkwell'
p557
aS'David Deas'
p558
aS'Charlie Drummond'
p559
aS'Doug Elliot'
p560
aS'Keith Geddes'
p561
aS'John Hunter'
p562
aS'Graeme Jackson'
p563
aS'Ian Lumsden'
p564
aS'Thomas McGlashan'
p565
aS'Bill MacLennan'
p566
aS'John Orr'
p567
aS'Alexander Watt'
p568
aS'Richard Aitken'
p569
aS'Frank Coutts'
p570
aS'David Mackenzie'
p571
aS'Ernie Anderson'
p572
aS'Howard Campbell'
p573
aS'Alastair Fisher'
p574
aS'Jimmy Lees'
p575
aS'Duncan McLean'
p576
aS'Billy Munro'
p577
aS'Dave Valentine'
p578
aS'Dallas Allardice'
p579
aS'Robert Bruce'
p580
aS'Leslie Currie'
p581
aS'Hamish Dawson'
p582
aS'Peter Hepburn'
p583
aS'Doddie Lyall'
p584
aS'Charlie McDonald'
p585
aS'Tommy Wright'
p586
aS'Bill Black'
p587
aS'Angus Cameron'
p588
aS'Stewart Coltman'
p589
aS'Logie Bruce-Lockhart'
p590
aS'Robert Finlay'
p591
aS'Gibbie Abercrombie'
p592
aS'Laurie Gloag'
p593
aS'Doug Keller'
p594
aS'Peter Kininmonth'
p595
aS'Doug Smith'
p596
aS'Gullie Wilson'
p597
aS'Alex Thomson'
p598
aS'John Macphail'
p599
aS'Steven Wright'
p600
aS'Grahame Budge'
p601
aS'Dod Burrell'
p602
aS'Arthur Dorward'
p603
aS'Bob Gemmill'
p604
aS'Ranald Macdonald'
p605
aS'Douglas Muir'
p606
aS'Donald Sloan'
p607
aS'Donald Scott'
p608
aS'Tommy Gray'
p609
aS'Hamish Scott'
p610
aS'Allan Cameron'
p611
aS'Ian Coutts'
p612
aS'Jack Hegarty'
p613
aS'Hamish Inglis'
p614
aS'Norman Mair'
p615
aS'David Rose'
p616
aS'Iain Ross'
p617
aS'Oliver Turnbull'
p618
aS'Bob Wilson'
p619
aS'Bob Gordon'
p620
aS'Bob Taylor'
p621
aS'Ian Thomson'
p622
aS'Ken Dalgleish'
p623
aS'John Hart'
p624
aS'Jimmy Johnston'
p625
aS'Les Allan'
p626
aS'Ian Cordial'
p627
aS'Norman Davidson'
p628
aS'John Fox'
p629
aS'Kelso Fulton'
p630
aS'Jim Greenwood'
p631
aS'Norman Munnoch'
p632
aS'Mike Walker'
p633
aS'Neil Cameron'
p634
aS'Percy Friebe'
p635
aS'David Gilbert-Smith'
p636
aS'James Inglis'
p637
aS'Grant Weatherstone'
p638
aS'Chick Henderson'
p639
aS'Jock King'
p640
aS'Donald Macdonald'
p641
aS'Keith McMillan'
p642
aS'Bruce Thomson'
p643
aS'Alec Valentine'
p644
aS'Donald Cameron'
p645
aS'Edwin Henriksen'
p646
aS'Gurth Hoyer-Millar'
p647
aS'Ken Spence'
p648
aS'John Wilson'
p649
aS'William Cowie'
p650
aS'Walter Kerr'
p651
aS'Ian Swan'
p652
aS'Ewen Fergusson'
p653
aS'Bob MacEwen'
p654
aS'Hugh McLeod'
p655
aS'John Marshall'
p656
aS'Ernie Michie'
p657
aS'Adam Robson'
p658
aS'Kim Elgie'
p659
aS'Pat MacLachlan'
p660
aS'Graham Ross'
p661
aS'Hamish Kemp'
p662
aS'Jimmy Docherty'
p663
aS'Hugh Duffy'
p664
aS'Micky Grant'
p665
aS'Ian Hastie'
p666
aS'William Relph'
p667
aS'Robin Charters'
p668
aS'Tom Elliot'
p669
aS'William Glen'
p670
aS'James Nichol'
p671
aS'Arthur Smith'
p672
aS'Robin Chisholm'
p673
aS'Ian MacGregor'
p674
aS'Nim Campbell'
p675
aS'Keith Macdonald'
p676
aS'Tommy McClung'
p677
aS'George Stevenson'
p678
aS'Edward McKeating'
p679
aS'Ken Scotland'
p680
aS'John Allan'
p681
aS'Jimmy Maxwell'
p682
aS'Ken Smith'
p683
aS'Gordon Waddell'
p684
aS'Norman Bruce'
p685
aS'Mike Robertson'
p686
aS'Tremayne Rodd'
p687
aS'Malcolm Swan'
p688
aS'Christie Elliot'
p689
aS'Stan Coughtrie'
p690
aS'Ian Laughland'
p691
aS'Frans Bos'
p692
aS'Jock Davidson'
p693
aS'David Rollo'
p694
aS'Jim Shackleton'
p695
aS'Keith Bearne'
p696
aS'Joe McPartlin'
p697
aS'Gregor Sharp'
p698
aS'Charlie Stewart'
p699
aS'David Edwards'
p700
aS'Oliver Grant'
p701
aS'Brian Shillinglaw'
p702
aS'Ronnie Thomson'
p703
aS'Patrick Burnet'
p704
aS'Walter Hart'
p705
aS'Mike Campbell-Lamerton'
p706
aS'Ron Cowan'
p707
aS'John Douglas'
p708
aS'Ken Ross'
p709
aS'Alec Hastie'
p710
aS'John Brash'
p711
aS'Ron Glasgow'
p712
aS'Robert Steven'
p713
aS'Cameron Boyle'
p714
aS'William Watherston'
p715
aS'David White'
p716
aS'Colin Blaikie'
p717
aS'Pringle Fisher'
p718
aS'Brian Henderson'
p719
aS'Brian Neill'
p720
aS'Peter Brown'
p721
aS'Billy Hunter'
p722
aS'Jim Telfer'
p723
aS'Stewart Wilson'
p724
aS'David Chisholm'
p725
aS'Doug Jackson'
p726
aS'Derrick Grant'
p727
aS'Frank Laidlaw'
p728
aS'Brian Simmers'
p729
aS'Peter Stagg'
p730
aS'Norm Suddon'
p731
aS'David Whyte'
p732
aS'Sandy Hinshelwood'
p733
aS'John Macdonald'
p734
aS'Jock Turner'
p735
aS'Alasdair Boyle'
p736
aS'Sandy Carmichael'
p737
aS'Rob Welsh'
p738
aS'Ian McCrae'
p739
aS'John Frame'
p740
aS'Bob Keddie'
p741
aS'George Mitchell'
p742
aS'Hamish Keith'
p743
aS'Tommy Elliot'
p744
aS'Rodger Arneil'
p745
aS'Charlie Hodgson'
p746
aS'Alastair McHarg'
p747
aS'Gordon Connell'
p748
aS'Derek Deans'
p749
aS'Ian Robertson'
p750
aS'Chris Rea'
p751
aS'Colin Telfer'
p752
aS'Dick Allan'
p753
aS'Wilson Lauder'
p754
aS'Gordon Macdonald'
p755
aS'Ian McLauchlan'
p756
aS'Billy Steele'
p757
aS'Alastair Biggar'
p758
aS'Gordon Brown'
p759
aS'Duncan Paterson'
p760
aS'Ian Smith'
p761
aS'Mike Smith'
p762
aS'Robert Young'
p763
aS'Ken Oliver'
p764
aS'Nairn MacEwan'
p765
aS'Ronnie Hannah'
p766
aS'Arthur Brown'
p767
aS'Quintin Dunlop'
p768
aS'Stephen Turk'
p769
aS'Gordon Strachan'
p770
aS'Bobby Clark'
p771
aS'Jim Renwick'
p772
aS'Alan Lawson'
p773
aS'Ian Barnes'
p774
aS'Lewis Dick'
p775
aS'Ian Forsyth'
p776
aS'Andy Irvine'
p777
aS'Ian McGeechan'
p778
aS'David Shedden'
p779
aS'Ronald Wright'
p780
aS'Jock Millican'
p781
aS'Doug Morgan'
p782
aS'Hamish Bryce'
p783
aS'Drew Gill'
p784
aS'Duncan Madsen'
p785
aS'Bill Watson'
p786
aS'Michael Hunter'
p787
aS'David Bell'
p788
aS'Mike Biggar'
p789
aS'David Leslie'
p790
aS'Graham Birkett'
p791
aS'Colin Fisher'
p792
aS'Bruce Hay'
p793
aS'George Mackie'
p794
aS'Alastair Cranston'
p795
aS'Alan Tomes'
p796
aS'Ron Wilson'
p797
aS'Jim Aitken'
p798
aS'Alex Brewster'
p799
aS'Don Macdonald'
p800
aS'Bill Gammell'
p801
aS'Norman Pender'
p802
aS'Brian Hegarty'
p803
aS'Colin Deans'
p804
aS'Graham Hogg'
p805
aS'Richard Breakey'
p806
aS'David Gray'
p807
aS'Bob Cunningham'
p808
aS'Gordon Dickson'
p809
aS'Keith Robertson'
p810
aS'Iain Lambie'
p811
aS'John Rutherford'
p812
aS'Iain Milne'
p813
aS'David Johnston'
p814
aS'John Beattie'
p815
aS'James Burnett'
p816
aS'Bill Cuthbertson'
p817
aS'Roy Laidlaw'
p818
aS'Steve Munro'
p819
aS'Ken Lawrie'
p820
aS'Bryan Gossman'
p821
aS'Norrie Rowan'
p822
aS'Jim Gossman'
p823
aS'Jim Calder'
p824
aS'Iain Paxton'
p825
aS'Roger Baird'
p826
aS'Eric Paxton'
p827
aS'Derek White'
p828
aS'Jim Pollock'
p829
aS'Rick Gordon'
p830
aS'Gerry McGuinness'
p831
aS'Peter Dods'
p832
aS'Tom Smith'
p833
aS'Euan Kennedy'
p834
aS'Alister Campbell'
p835
aS'Gordon Hunter'
p836
aS'Gary Callander'
p837
aS'Sean McGaughey'
p838
aS'John Jeffrey'
p839
aS'Gregor Mackenzie'
p840
aS'Peter Steven'
p841
aS'Douglas Wyllie'
p842
aS'Keith Murray'
p843
aS'Iwan Tukalo'
p844
aS'Finlay Calder'
p845
aS'Jeremy Campbell-Lamerton'
p846
aS'Matt Duncan'
p847
aS'Gavin Hastings'
p848
aS'Scott Hastings'
p849
aS'David Sole'
p850
aS'Alan Tait'
p851
aS'Greig Oliver'
p852
aS'Richard Cramb'
p853
aS'Derek Turnbull'
p854
aS'Damian Cronin'
p855
aS'Andrew Ker'
p856
aS'Gary Armstrong'
p857
aS'Graham Marshall'
p858
aS'Craig Chalmers'
p859
aS'Chris Gray'
p860
aS'Sean Lineen'
p861
aS'Kenny Milne'
p862
aS'Paul Burnell'
p863
aS'Tony Stanger'
p864
aS'George Buchanan-Smith'
p865
aS'Lindsay Renwick'
p866
aS'John Allan'
p867
aS'Alex Moore'
p868
aS'Doddie Weir'
p869
aS'David Milne'
p870
aS'Alan Watt'
p871
aS'Graham Shiel'
p872
aS'Neil Edwards'
p873
aS'Dave McIvor'
p874
aS'Andy Nicol'
p875
aS'Ian Smith'
p876
aS'Rob Wainwright'
p877
aS'Peter Jones'
p878
aS'Carl Hogg'
p879
aS'Peter Wright'
p880
aS'Ian Corcoran'
p881
aS'Kenny Logan'
p882
aS'Martin Scott'
p883
aS'Iain Morrison'
p884
aS'Andy Reed'
p885
aS'Derek Stark'
p886
aS'Gregor Townsend'
p887
aS'Ian Jardine'
p888
aS'Andrew MacDonald'
p889
aS'Bryan Redpath'
p890
aS'Shade Munro'
p891
aS'Alan Sharp'
p892
aS'Peter Walton'
p893
aS'Michael Dods'
p894
aS'Craig Joiner'
p895
aS'Kevin McKenzie'
p896
aS'Scott Nichol'
p897
aS'Derrick Patterson'
p898
aS'Jeremy Richardson'
p899
aS'Stewart Campbell'
p900
aS'Dave Hilton'
p901
aS'Eric Peters'
p902
aS'John Manson'
p903
aS'Jim Hay'
p904
aS'Stuart Reid'
p905
aS'Rowen Shepherd'
p906
aS'Ronnie Eriksson'
p907
aS'Barry Stewart'
p908
aS'Murray Wallace'
p909
aS'Mattie Stewart'
p910
aS'Graham Ellis'
p911
aS'Tom Smith'
p912
aS'Cameron Glasgow'
p913
aS'Duncan Hodge'
p914
aS'James Craig'
p915
aS'Grant McKelvey'
p916
aS'Scott Murray'
p917
aS'Adam Roxburgh'
p918
aS'George Graham'
p919
aS'Stuart Grimes'
p920
aS'Gordon Bulloch'
p921
aS'Simon Holmes'
p922
aS'Derrick Lee'
p923
aS'Shaun Longstaff'
p924
aS'Cammie Murray'
p925
aS'Hugh Gilmour'
p926
aS'Gordon McIlwham'
p927
aS'Matthew Proudfoot'
p928
aS'Glenn Metcalfe'
p929
aS'Gordon Simpson'
p930
aS'John Leslie'
p931
aS'Jamie Mayer'
p932
aS'Budge Pountney'
p933
aS'Martin Leslie'
p934
aS'Iain Fairley'
p935
aS'Graeme Burns'
p936
aS'Steve Brotherstone'
p937
aS'James McLaren'
p938
aS'Robbie Russell'
p939
aS'Cameron Mather'
p940
aS'Chris Paterson'
p941
aS'Craig Moir'
p942
aS'Richard Metcalfe'
p943
aS'Jason White'
p944
aS'Ross Beattie'
p945
aS'Iain Fullarton'
p946
aS'Jon Petrie'
p947
aS'Graeme Beveridge'
p948
aS'Nathan Hines'
p949
aS'Steve Scott'
p950
aS'Alan Bulloch'
p951
aS'Jon Steel'
p952
aS'Simon Taylor'
p953
aS'Andrew Henderson'
p954
aS'Andrew Mower'
p955
aS'Gordon Ross'
p956
aS'Roland Reid'
p957
aS'Brendan Laney'
p958
aS'Mike Blair'
p959
aS'Andy Craig'
p960
aS'Rory Kerr'
p961
aS'Craig Smith'
p962
aS'Ben Hinshelwood'
p963
aS'Allan Jacobsen'
p964
aS'Donnie Macfadyen'
p965
aS'Marcus di Rollo'
p966
aS'Andy Hall'
p967
aS'Bruce Douglas'
p968
aS'Stuart Moffat'
p969
aS'Nikki Walker'
p970
aS'Gavin Kerr'
p971
aS'Kevin Utterson'
p972
aS'Simon Danielli'
p973
aS'Andrew Dall'
p974
aS'Dougie Hall'
p975
aS'Simon Webster'
p976
aS'Chris Cusiter'
p977
aS'Ally Hogg'
p978
aS'Tom Philip'
p979
aS'Dan Parks'
p980
aS'Sean Lamont'
p981
aS'Hugo Southwell'
p982
aS'Graeme Morrison'
p983
aS'Craig Hamilton'
p984
aS'Scott Gray'
p985
aS'Scott Macleod'
p986
aS'Ross Ford'
p987
aS'Alastair Kellock'
p988
aS'Jon Dunbar'
p989
aS'Rory Lamont'
p990
aS'Kelly Brown'
p991
aS'Scott Lawson'
p992
aS'Phil Godman'
p993
aS'Euan Murray'
p994
aS'Andy Wilson'
p995
aS'Ben MacDougall'
p996
aS'Sam Pinder'
p997
aS'Johnnie Beattie'
p998
aS'Rob Dewey'
p999
aS'David Callam'
p1000
aS'Jim Hamilton'
p1001
aS'Rory Lawson'
p1002
aS'Alasdair Strokosch'
p1003
aS'Fergus Thomson'
p1004
aS'John Barclay'
p1005
aS'Alasdair Dickinson'
p1006
aS'Nick de Luca'
p1007
aS'Ross Rennie'
p1008
aS'Ben Cairns'
p1009
aS'Thom Evans'
p1010
aS'Matt Mustchin'
p1011
aS'Max Evans'
p1012
aS'Geoff Cross'
p1013
aS'Moray Low'
p1014
aS'Alex Grove'
p1015
aS'Kyle Traynor'
p1016
aS'Richie Vernon'
p1017
aS'Alan MacDonald'
p1018
aS'Richie Gray'
p1019
aS'Ruaridh Jackson'
p1020
aS'Greig Laidlaw'
p1021
aS'Joe Ansbro'
p1022
aS'Jack Cuthbert'
p1023
aS'David Denton'
p1024
aS'Lee Jones'
p1025
aS'Stuart Hogg'
p1026
aS'Ed Kalman'
p1027
aS'Duncan Weir'
p1028
aS'Matt Scott'
p1029
aS'Jon Welsh'
p1030
aS'Ryan Grant'
p1031
aS'Tom Brown'
p1032
aS'Tim Visser'
p1033
aS'Tom Ryder'
p1034
aS'Rob Harley'
p1035
aS'Henry Pyrgos'
p1036
aS'Tom Heathcote'
p1037
aS'Sean Maitland'
p1038
aS'Ryan Wilson'
p1039
aS'Grant Gilchrist'
p1040
aS'Alex Dunbar'
p1041
aS'Pat MacArthur'
p1042
aS'Greig Tonks'
p1043
aS'Peter Horne'
p1044
aS'Steven Lawrie'
p1045
aS'Duncan Taylor'
p1046
aS'Peter Murchie'
p1047
aS'Tommy Seymour'
p1048
aS'Tim Swinson'
p1049
aS'Fraser Brown'
p1050
aS'Jonny Gray'
p1051
aS'Kieran Low'
p1052
aS'Chris Fusaro'
p1053
aS'Dougie Fife'
p1054
aS'Blair Cowan'
p1055
aS'Gordon Reid'
p1056
aS'Finn Russell'
p1057
aS'Alex Allan'
p1058
aS'Kevin Bryce'
p1059
aS'Grayson Hart'
p1060
aS'Adam Ashe'
p1061
aS'Tyrone Holmes'
p1062
aS'Mark Bennett'
p1063
aS'Sam Hidalgo-Clyne'
p1064
aS'Ben Toolis'
p1065
aS'Hamish Watson'
p1066
aS'Hugh Blake'
p1067
aS'Mike Cusack'
p1068
aS'John Hardie'
p1069
aS'Rory Hughes'
p1070
aS'Stuart McInally'
p1071
aS'Damien Hoyland'
p1072
aS'Willem Nel'
p1073
aS'Josh Strauss'
p1074
aS'Zander Fagerson'
p1075
a.