(lp1
S'John Arthur'
p2
aS'William Brown'
p3
aS'Angus Buchanan'
p4
aS'Tom Chalmers'
p5
aS'Alfred Clunies-Ross'
p6
aS'Andrew Colville'
p7
aS'William Cross'
p8
aS'Daniel Drew'
p9
aS'Jim Finlay'
p10
aS'William Forsyth'
p11
aS'Bulldog Irvine'
p12
aS'William Lyall'
p13
aS'John MacFarlane'
p14
aS'Thomas Marshall'
p15
aS'James Mein'
p16
aS'Francis Moncreiff'
p17
aS'Robert Munro'
p18
aS'George Ritchie'
p19
aS'Alexander Robertson'
p20
aS'John Thomson'
p21
aS'John Anderson'
p22
aS'Leslie Balfour-Melville'
p23
aS'Edward Bannerman'
p24
aS'Charles Cathcart'
p25
aS'James McClure'
p26
aS'Reginald Maitland'
p27
aS'William Marshall'
p28
aS'Frederick Maxwell'
p29
aS'Henry Renny-Tailyour'
p30
aS'Henry Allan'
p31
aS'Peter Anton'
p32
aS'Charles Bryce'
p33
aS'John Davidson'
p34
aS'William Grant'
p35
aS'George McClure'
p36
aS'Alexander Petrie'
p37
aS'James Sanderson'
p38
aS'Tom Whittington'
p39
aS'Robert Wilson'
p40
aS'Alexander Wood'
p41
aS'Hugh Hamilton'
p42
aS'Gilbert Heron'
p43
aS'William Kidston'
p44
aS'Tom Neilson'
p45
aS'James Reid'
p46
aS'Alexander Stewart'
p47
aS'John Tod'
p48
aS'Arthur Young'
p49
aS'Allan Arthur'
p50
aS'Malcolm Cross'
p51
aS'James Dunlop'
p52
aS'Alec Finlay'
p53
aS'Ninian Finlay'
p54
aS'George Fleming'
p55
aS'John Gordon'
p56
aS'Arthur Marshall'
p57
aS'Duncan Robertson'
p58
aS'William Bolton'
p59
aS'Nat Brewis'
p60
aS'James Carrick'
p61
aS'Gussie Graham'
p62
aS'John Junor'
p63
aS'David Lang'
p64
aS'George Paterson'
p65
aS'Charles Villar'
p66
aS'David Watson'
p67
aS'Henry Johnston'
p68
aS'Robert Mackenzie'
p69
aS'Henry Napier'
p70
aS'Edward Pocock'
p71
aS'Stewart Smith'
p72
aS'Thomas Torrie'
p73
aS'Louis Auldjo'
p74
aS'James Campbell'
p75
aS'Duncan Irvine'
p76
aS'Bill Maclagan'
p77
aS'George MacLeod'
p78
aS'John Neilson'
p79
aS'Bob Ainslie'
p80
aS'John Brown'
p81
aS'William Masters'
p82
aS'Errol Smith'
p83
aS'D. Somerville'
p84
aS'Edward Ewart'
p85
aS'William Brown'
p86
aS'David McCowan'
p87
aS'Charles Stewart'
p88
aS'Jack Tait'
p89
aS'David Cassels'
p90
aS'Bryce Allan'
p91
aS'Thomas Begbie'
p92
aS'Charlie Reid'
p93
aS'George Robb'
p94
aS'Pat Smeaton'
p95
aS'Archibald Walker'
p96
aS'Tom Ainslie'
p97
aS'James Fraser'
p98
aS'Robert Maitland'
p99
aS'William Peterkin'
p100
aS'Bunny Wauchope'
p101
aS'Tom Anderson'
p102
aS'Fraser Gore'
p103
aS'Augustus Grant-Asher'
p104
aS'Frank Hunter'
p105
aS'Andrew Philp'
p106
aS'James Veitch'
p107
aS'James Walker'
p108
aS'Andrew Walls'
p109
aS'John Jamieson'
p110
aS'David Kidston'
p111
aS'David McFarlan'
p112
aS'John Mowat'
p113
aS'George Aitchison'
p114
aS'Marshall Reid'
p115
aS'George Lindsay'
p116
aS'John Tod'
p117
aS'Charles Berry'
p118
aS'Ernest Roland'
p119
aS'Pat Harrower'
p120
aS'Gardyne Maitland'
p121
aS'Gordon Mitchell'
p122
aS'Alexander Stephen'
p123
aS'Henry Evans'
p124
aS'Walter Irvine'
p125
aS'Patrick Wauchope'
p126
aS'Alexander Clay'
p127
aS'J. French'
p128
aS'William Holms'
p129
aS'Flowerdew McIndoe'
p130
aS'William MacLeod'
p131
aS'Charles Milne'
p132
aS'Reggie Morrison'
p133
aS'Duncan MacLeod'
p134
aS'Matthew McEwan'
p135
aS'George Wilson'
p136
aS'Hugh Ker'
p137
aS'Judy MacMillan'
p138
aS'David Morton'
p139
aS'Charles Orr'
p140
aS'Alexander Woodrow'
p141
aS'Alec Cameron'
p142
aS'Henry Chambers'
p143
aS'Alfred Duke'
p144
aS'Macbeth Duncan'
p145
aS'Charles Fraser'
p146
aS'Harry Stevenson'
p147
aS'Louis Stevenson'
p148
aS'Tom White'
p149
aS'Alexander Malcolm'
p150
aS'Bill Auld'
p151
aS'John Boswell'
p152
aS'William Macdonald'
p153
aS'James Marsh'
p154
aS'Alfred Methuen'
p155
aS'Alexander Aitken'
p156
aS'Darsie Anderson'
p157
aS'J.G. McKendrick'
p158
aS'Jack Orr'
p159
aS'Adam Dalgleish'
p160
aS'Frederick Goodhue'
p161
aS'Gregor MacGregor'
p162
aS'Ian MacIntyre'
p163
aS'Paul Clauss'
p164
aS'Herbert Leggatt'
p165
aS'George Neilson'
p166
aS'William Neilson'
p167
aS'William Gibson'
p168
aS'William Wotherspoon'
p169
aS'George Campbell'
p170
aS'John Millar'
p171
aS'Nelson Henderson'
p172
aS'James Woodburn'
p173
aS'William Cownie'
p174
aS'James Gowans'
p175
aS'Robert Greig'
p176
aS'Thomas Hendry'
p177
aS'Henry Menzies'
p178
aS'David Robertson'
p179
aS'James Bishop'
p180
aS'William Donaldson'
p181
aS'D. Fisher'
p182
aS'Jim Ford'
p183
aS'John Simpson'
p184
aS'Roger Davidson'
p185
aS'Tom Scott'
p186
aS'Henry Gedge'
p187
aS'Willie McEwan'
p188
aS'John Rogerson'
p189
aS'Hugh Wright'
p190
aS'Alexander Anderson'
p191
aS'Gordon Neilson'
p192
aS'Harry Dods'
p193
aS'Mattha Elliot'
p194
aS'Allan Smith'
p195
aS'Harry Smith'
p196
aS'Robin Welsh'
p197
aS'Andrew Balfour'
p198
aS'James Couper'
p199
aS'Mark Morrison'
p200
aS'Davie Patterson'
p201
aS'Tom Scott'
p202
aS'Alec Timms'
p203
aS'Charles Fleming'
p204
aS'George Turnbull'
p205
aS'Alec Laidlaw'
p206
aS'Ronald Stevenson'
p207
aS'Alfred Bucher'
p208
aS'Alec Robertson'
p209
aS'John Dykes'
p210
aS'Graham Kerr'
p211
aS'Joe Mabon'
p212
aS'Andrew MacKinnon'
p213
aS'Robbie Neilson'
p214
aS'James Reid'
p215
aS'Robert Scott'
p216
aS'Edward Spencer'
p217
aS'Tommy Nelson'
p218
aS'Lawrence Harvey'
p219
aS'Douglas Monypenny'
p220
aS'George Lamond'
p221
aS'Harry Rottenburg'
p222
aS'William Thomson'
p223
aS'John Gillespie'
p224
aS'David Bedell-Sivright'
p225
aS'Jack Crabbie'
p226
aS'Frank Fasson'
p227
aS'Frederick Henderson'
p228
aS'William Morrison'
p229
aS'John Campbell'
p230
aS'James Greenlees'
p231
aS'Bill Scott'
p232
aS'William Welsh'
p233
aS'Lewis Bell'
p234
aS'John Bell'
p235
aS'Alexander Duncan'
p236
aS'Nolan Fell'
p237
aS'Andrew Flett'
p238
aS'Alex Frew'
p239
aS'Jimmy Ross'
p240
aS'Robert Stronach'
p241
aS'Phipps Turnbull'
p242
aS'Francis Dods'
p243
aS'Robert Neill'
p244
aS'John Bedell-Sivright'
p245
aS'Bill Kyle'
p246
aS'Herbert Bullmore'
p247
aS'Andrew Drybrough'
p248
aS'Ernest Simson'
p249
aS'Fatty Cairns'
p250
aS'Walter Forrest'
p251
aS'Norman Kennedy'
p252
aS'John Knox'
p253
aS'Hugh Orr'
p254
aS'Leonard West'
p255
aS'Charles France'
p256
aS'Jack Dallas'
p257
aS'Jimmy Macdonald'
p258
aS'Alexander Bisset'
p259
aS'George Crabbie'
p260
aS'Lewis MacLeod'
p261
aS'Edward Ross'
p262
aS'William Milne'
p263
aS'Joseph Waters'
p264
aS'Hugh Fletcher'
p265
aS'John Forbes'
p266
aS'Ned Little'
p267
aS'Pat Munro'
p268
aS'Andrew Ross'
p269
aS'Maurice Dickson'
p270
aS'Harold McCowat'
p271
aS'William Ritchie'
p272
aS'Tom Elliot'
p273
aS'John MacCallum'
p274
aS'Hugh Monteith'
p275
aS'Douglas Schulze'
p276
aS'Louis Greig'
p277
aS'James Mackenzie'
p278
aS'Ken MacLeod'
p279
aS'William Russell'
p280
aS'John Scoular'
p281
aS'John Simson'
p282
aS'Tennant Sloan'
p283
aS'Bill Church'
p284
aS'Alec Purves'
p285
aS'Maurie Walter'
p286
aS'George Frew'
p287
aS'Campbell Geddes'
p288
aS'Louis Speirs'
p289
aS'William Thomson'
p290
aS'Duncan MacGregor'
p291
aS'George Sanderson'
p292
aS'Jock Scott'
p293
aS'J.A. Brown'
p294
aS'George Cunningham'
p295
aS'Geoffrey Gowlland'
p296
aS'Hugh Martin'
p297
aS'John Wilson'
p298
aS'Colin Gilray'
p299
aS'James Robertson'
p300
aS'Lewis Robertson'
p301
aS'Albert Wade'
p302
aS'Gus Angus'
p303
aS'Jim Tennent'
p304
aS'William Lely'
p305
aS'Robert Lindsay-Watson'
p306
aS'John MacGregor'
p307
aS'Jimmy Pearson'
p308
aS'Charles Stuart'
p309
aS'Alexander Moodie'
p310
aS'James Reid-Kerr'
p311
aS'Fletcher Buchanan'
p312
aS'Ian Robertson'
p313
aS'Robert Stevenson'
p314
aS'Puss Milroy'
p315
aS'Walter Sutherland'
p316
aS'Cecil Abercrombie'
p317
aS'Jimmy Dobson'
p318
aS'Andrew Lindsay'
p319
aS'Donald Macpherson'
p320
aS'Rowland Fraser'
p321
aS'Frank Osler'
p322
aS'Alexander Stevenson'
p323
aS'Borth Todd'
p324
aS'Freddie Turner'
p325
aS'Thomas Young'
p326
aS'Donald Grant'
p327
aS'John Macdonald'
p328
aS'Andrew Ross'
p329
aS'Andrew Greig'
p330
aS'Carl Ogilvy'
p331
aS'David Bain'
p332
aS'John Dobson'
p333
aS'JY Henderson'
p334
aS'William Hutchison'
p335
aS'Ronald Simson'
p336
aS'Stephen Steyn'
p337
aS'Mike Dickson'
p338
aS'Sandy Gunn'
p339
aS'Colin Hill'
p340
aS'Dave Howie'
p341
aS'Jenny Hume'
p342
aS'William Purves'
p343
aS'Robert Robertson'
p344
aS'George Will'
p345
aS'James Boyd'
p346
aS'Billy Burnet'
p347
aS'Charlie Usher'
p348
aS'Patrick Blair'
p349
aS'Roland Gordon'
p350
aS'George Ledingham'
p351
aS'John Macdougall'
p352
aS'Bill Stewart'
p353
aS'Rufus Bruce-Lockhart'
p354
aS'Thomas Bowie'
p355
aS'George Maxwell'
p356
aS'Eric Loudoun-Shand'
p357
aS'John Sweet'
p358
aS'Willie Wallace'
p359
aS'David Donald'
p360
aS'Andrew Hamilton'
p361
aS'Podger Laing'
p362
aS'Ronald Scobie'
p363
aS'Allen Sloan'
p364
aS'Archibald Stewart'
p365
aS'Archibald Symington'
p366
aS'Jock Wemyss'
p367
aS'Jack Warren'
p368
aS'James Huggan'
p369
aS'Ian Moffat-Pender'
p370
aS'Eric Young'
p371
aS'Gerard Crole'
p372
aS'Denoon Duncan'
p373
aS'Ernest Fahmy'
p374
aS'Bob Gallie'
p375
aS'Finlay Kennedy'
p376
aS'Monty Murray'
p377
aS'George Pattullo'
p378
aS'George Thom'
p379
aS'Eric MacKay'
p380
aS'Neil Macpherson'
p381
aS'Jake Selby'
p382
aS'Arthur Browning'
p383
aS'Charles Nimmo'
p384
aS'John Bannerman'
p385
aS'Jimmy Carmichael'
p386
aS'Ronald Cumming'
p387
aS'Hector Forsayth'
p388
aS'Leslie Gracie'
p389
aS'Ian Kilgour'
p390
aS'Alpin Thomson'
p391
aS'Rankin Buchanan'
p392
aS'Russell Donald'
p393
aS'George Douglas'
p394
aS'Hamish Shaw'
p395
aS'John McCrow'
p396
aS'George Murray'
p397
aS'Jock Stewart'
p398
aS'Cecil Mackenzie'
p399
aS'David Bertram'
p400
aS'Doug Davies'
p401
aS'Jimmy Dykes'
p402
aS'Bill Johnston'
p403
aS'Jock Lawrie'
p404
aS'Eric Liddell'
p405
aS'Phil Macpherson'
p406
aS'Andrew Stevenson'
p407
aS'Willie Bryce'
p408
aS'William Dobson'
p409
aS'Ronald Warren'
p410
aS'Jimmy Tolmie'
p411
aS'Dan Drysdale'
p412
aS'David Kerr'
p413
aS'Teddy McLaren'
p414
aS'Samuel McQueen'
p415
aS'Ludo Stuart'
p416
aS'Johnny Wallace'
p417
aS'Robert Simpson'
p418
aS'Kelvin Hendrie'
p419
aS'Bob Howie'
p420
aS'Chris Mackintosh'
p421
aS'Andrew Ross'
p422
aS'Herbert Waddell'
p423
aS'George Aitken'
p424
aS'Sandy Gillies'
p425
aS'Ian Smith'
p426
aS'Robert Henderson'
p427
aS'Robert Millar'
p428
aS'James Gilchrist'
p429
aS'David MacMyn'
p430
aS'Jimmy Nelson'
p431
aS'John Paterson'
p432
aS'James Scott'
p433
aS'William Stevenson'
p434
aS'Jimmie Ireland'
p435
aS'William Berkley'
p436
aS'Roy Kinnear'
p437
aS'Max Simmers'
p438
aS'Jimmie Graham'
p439
aS'Gordon Boyd'
p440
aS'Jock Allan'
p441
aS'Edward Taylor'
p442
aS'Peter Douty'
p443
aS'William Ferguson'
p444
aS'Harry Greenlees'
p445
aS'Robert Kelly'
p446
aS'William Roughead'
p447
aS'Willie Welsh'
p448
aS'Jimmy Ferguson'
p449
aS'John Goodfellow'
p450
aS'Jo Hume'
p451
aS'Harry Lind'
p452
aS'Alex Brown'
p453
aS'Jock Beattie'
p454
aS'Hugh Mackintosh'
p455
aS'Bob Smith'
p456
a.