(lp1
S'http://www.espnscrum.com/scotland/rugby/player/231.html'
p2
aS'http://www.espnscrum.com/scotland/rugby/player/234.html'
p3
aS'http://www.espnscrum.com/scotland/rugby/player/235.html'
p4
aS'http://www.espnscrum.com/scotland/rugby/player/237.html'
p5
aS'http://www.espnscrum.com/scotland/rugby/player/239.html'
p6
aS'http://www.espnscrum.com/scotland/rugby/player/240.html'
p7
aS'http://www.espnscrum.com/scotland/rugby/player/242.html'
p8
aS'http://www.espnscrum.com/scotland/rugby/player/244.html'
p9
aS'http://www.espnscrum.com/scotland/rugby/player/246.html'
p10
aS'http://www.espnscrum.com/scotland/rugby/player/247.html'
p11
aS'http://www.espnscrum.com/scotland/rugby/player/252.html'
p12
aS'http://www.espnscrum.com/scotland/rugby/player/254.html'
p13
aS'http://www.espnscrum.com/scotland/rugby/player/256.html'
p14
aS'http://www.espnscrum.com/scotland/rugby/player/258.html'
p15
aS'http://www.espnscrum.com/scotland/rugby/player/259.html'
p16
aS'http://www.espnscrum.com/scotland/rugby/player/260.html'
p17
aS'http://www.espnscrum.com/scotland/rugby/player/261.html'
p18
aS'http://www.espnscrum.com/scotland/rugby/player/263.html'
p19
aS'http://www.espnscrum.com/scotland/rugby/player/264.html'
p20
aS'http://www.espnscrum.com/scotland/rugby/player/267.html'
p21
aS'http://www.espnscrum.com/scotland/rugby/player/271.html'
p22
aS'http://www.espnscrum.com/scotland/rugby/player/272.html'
p23
aS'http://www.espnscrum.com/scotland/rugby/player/273.html'
p24
aS'http://www.espnscrum.com/scotland/rugby/player/277.html'
p25
aS'http://www.espnscrum.com/scotland/rugby/player/284.html'
p26
aS'http://www.espnscrum.com/scotland/rugby/player/286.html'
p27
aS'http://www.espnscrum.com/scotland/rugby/player/287.html'
p28
aS'http://www.espnscrum.com/scotland/rugby/player/288.html'
p29
aS'http://www.espnscrum.com/scotland/rugby/player/292.html'
p30
aS'http://www.espnscrum.com/scotland/rugby/player/294.html'
p31
aS'http://www.espnscrum.com/scotland/rugby/player/295.html'
p32
aS'http://www.espnscrum.com/scotland/rugby/player/297.html'
p33
aS'http://www.espnscrum.com/scotland/rugby/player/299.html'
p34
aS'http://www.espnscrum.com/scotland/rugby/player/301.html'
p35
aS'http://www.espnscrum.com/scotland/rugby/player/303.html'
p36
aS'http://www.espnscrum.com/scotland/rugby/player/307.html'
p37
aS'http://www.espnscrum.com/scotland/rugby/player/309.html'
p38
aS'http://www.espnscrum.com/scotland/rugby/player/312.html'
p39
aS'http://www.espnscrum.com/scotland/rugby/player/313.html'
p40
aS'http://www.espnscrum.com/scotland/rugby/player/314.html'
p41
aS'http://www.espnscrum.com/scotland/rugby/player/322.html'
p42
aS'http://www.espnscrum.com/scotland/rugby/player/323.html'
p43
aS'http://www.espnscrum.com/scotland/rugby/player/325.html'
p44
aS'http://www.espnscrum.com/scotland/rugby/player/327.html'
p45
aS'http://www.espnscrum.com/scotland/rugby/player/329.html'
p46
aS'http://www.espnscrum.com/scotland/rugby/player/331.html'
p47
aS'http://www.espnscrum.com/scotland/rugby/player/332.html'
p48
aS'http://www.espnscrum.com/scotland/rugby/player/334.html'
p49
aS'http://www.espnscrum.com/scotland/rugby/player/364.html'
p50
aS'http://www.espnscrum.com/scotland/rugby/player/366.html'
p51
aS'http://www.espnscrum.com/scotland/rugby/player/367.html'
p52
aS'http://www.espnscrum.com/scotland/rugby/player/369.html'
p53
aS'http://www.espnscrum.com/scotland/rugby/player/370.html'
p54
aS'http://www.espnscrum.com/scotland/rugby/player/371.html'
p55
aS'http://www.espnscrum.com/scotland/rugby/player/372.html'
p56
aS'http://www.espnscrum.com/scotland/rugby/player/373.html'
p57
aS'http://www.espnscrum.com/scotland/rugby/player/375.html'
p58
aS'http://www.espnscrum.com/scotland/rugby/player/395.html'
p59
aS'http://www.espnscrum.com/scotland/rugby/player/396.html'
p60
aS'http://www.espnscrum.com/scotland/rugby/player/397.html'
p61
aS'http://www.espnscrum.com/scotland/rugby/player/398.html'
p62
aS'http://www.espnscrum.com/scotland/rugby/player/402.html'
p63
aS'http://www.espnscrum.com/scotland/rugby/player/403.html'
p64
aS'http://www.espnscrum.com/scotland/rugby/player/405.html'
p65
aS'http://www.espnscrum.com/scotland/rugby/player/410.html'
p66
aS'http://www.espnscrum.com/scotland/rugby/player/411.html'
p67
aS'http://www.espnscrum.com/scotland/rugby/player/429.html'
p68
aS'http://www.espnscrum.com/scotland/rugby/player/430.html'
p69
aS'http://www.espnscrum.com/scotland/rugby/player/432.html'
p70
aS'http://www.espnscrum.com/scotland/rugby/player/433.html'
p71
aS'http://www.espnscrum.com/scotland/rugby/player/435.html'
p72
aS'http://www.espnscrum.com/scotland/rugby/player/439.html'
p73
aS'http://www.espnscrum.com/scotland/rugby/player/440.html'
p74
aS'http://www.espnscrum.com/scotland/rugby/player/442.html'
p75
aS'http://www.espnscrum.com/scotland/rugby/player/446.html'
p76
aS'http://www.espnscrum.com/scotland/rugby/player/448.html'
p77
aS'http://www.espnscrum.com/scotland/rugby/player/449.html'
p78
aS'http://www.espnscrum.com/scotland/rugby/player/450.html'
p79
aS'http://www.espnscrum.com/scotland/rugby/player/469.html'
p80
aS'http://www.espnscrum.com/scotland/rugby/player/472.html'
p81
aS'http://www.espnscrum.com/scotland/rugby/player/477.html'
p82
aS'http://www.espnscrum.com/scotland/rugby/player/481.html'
p83
aS'http://www.espnscrum.com/scotland/rugby/player/482.html'
p84
aS'http://www.espnscrum.com/scotland/rugby/player/485.html'
p85
aS'http://www.espnscrum.com/scotland/rugby/player/514.html'
p86
aS'http://www.espnscrum.com/scotland/rugby/player/515.html'
p87
aS'http://www.espnscrum.com/scotland/rugby/player/516.html'
p88
aS'http://www.espnscrum.com/scotland/rugby/player/517.html'
p89
aS'http://www.espnscrum.com/scotland/rugby/player/519.html'
p90
aS'http://www.espnscrum.com/scotland/rugby/player/535.html'
p91
aS'http://www.espnscrum.com/scotland/rugby/player/536.html'
p92
aS'http://www.espnscrum.com/scotland/rugby/player/550.html'
p93
aS'http://www.espnscrum.com/scotland/rugby/player/551.html'
p94
aS'http://www.espnscrum.com/scotland/rugby/player/552.html'
p95
aS'http://www.espnscrum.com/scotland/rugby/player/556.html'
p96
aS'http://www.espnscrum.com/scotland/rugby/player/560.html'
p97
aS'http://www.espnscrum.com/scotland/rugby/player/561.html'
p98
aS'http://www.espnscrum.com/scotland/rugby/player/562.html'
p99
aS'http://www.espnscrum.com/scotland/rugby/player/563.html'
p100
aS'http://www.espnscrum.com/scotland/rugby/player/564.html'
p101
aS'http://www.espnscrum.com/scotland/rugby/player/597.html'
p102
aS'http://www.espnscrum.com/scotland/rugby/player/600.html'
p103
aS'http://www.espnscrum.com/scotland/rugby/player/598.html'
p104
aS'http://www.espnscrum.com/scotland/rugby/player/601.html'
p105
aS'http://www.espnscrum.com/scotland/rugby/player/607.html'
p106
aS'http://www.espnscrum.com/scotland/rugby/player/610.html'
p107
aS'http://www.espnscrum.com/scotland/rugby/player/611.html'
p108
aS'http://www.espnscrum.com/scotland/rugby/player/612.html'
p109
aS'http://www.espnscrum.com/scotland/rugby/player/629.html'
p110
aS'http://www.espnscrum.com/scotland/rugby/player/631.html'
p111
aS'http://www.espnscrum.com/scotland/rugby/player/633.html'
p112
aS'http://www.espnscrum.com/scotland/rugby/player/634.html'
p113
aS'http://www.espnscrum.com/scotland/rugby/player/643.html'
p114
aS'http://www.espnscrum.com/scotland/rugby/player/645.html'
p115
aS'http://www.espnscrum.com/scotland/rugby/player/658.html'
p116
aS'http://www.espnscrum.com/scotland/rugby/player/660.html'
p117
aS'http://www.espnscrum.com/scotland/rugby/player/673.html'
p118
aS'http://www.espnscrum.com/scotland/rugby/player/680.html'
p119
aS'http://www.espnscrum.com/scotland/rugby/player/710.html'
p120
aS'http://www.espnscrum.com/scotland/rugby/player/712.html'
p121
aS'http://www.espnscrum.com/scotland/rugby/player/713.html'
p122
aS'http://www.espnscrum.com/scotland/rugby/player/715.html'
p123
aS'http://www.espnscrum.com/scotland/rugby/player/726.html'
p124
aS'http://www.espnscrum.com/scotland/rugby/player/727.html'
p125
aS'http://www.espnscrum.com/scotland/rugby/player/729.html'
p126
aS'http://www.espnscrum.com/scotland/rugby/player/745.html'
p127
aS'http://www.espnscrum.com/scotland/rugby/player/746.html'
p128
aS'http://www.espnscrum.com/scotland/rugby/player/747.html'
p129
aS'http://www.espnscrum.com/scotland/rugby/player/748.html'
p130
aS'http://www.espnscrum.com/scotland/rugby/player/749.html'
p131
aS'http://www.espnscrum.com/scotland/rugby/player/751.html'
p132
aS'http://www.espnscrum.com/scotland/rugby/player/752.html'
p133
aS'http://www.espnscrum.com/scotland/rugby/player/760.html'
p134
aS'http://www.espnscrum.com/scotland/rugby/player/767.html'
p135
aS'http://www.espnscrum.com/scotland/rugby/player/768.html'
p136
aS'http://www.espnscrum.com/scotland/rugby/player/793.html'
p137
aS'http://www.espnscrum.com/scotland/rugby/player/794.html'
p138
aS'http://www.espnscrum.com/scotland/rugby/player/796.html'
p139
aS'http://www.espnscrum.com/scotland/rugby/player/797.html'
p140
aS'http://www.espnscrum.com/scotland/rugby/player/798.html'
p141
aS'http://www.espnscrum.com/scotland/rugby/player/800.html'
p142
aS'http://www.espnscrum.com/scotland/rugby/player/808.html'
p143
aS'http://www.espnscrum.com/scotland/rugby/player/809.html'
p144
aS'http://www.espnscrum.com/scotland/rugby/player/810.html'
p145
aS'http://www.espnscrum.com/scotland/rugby/player/811.html'
p146
aS'http://www.espnscrum.com/scotland/rugby/player/818.html'
p147
aS'http://www.espnscrum.com/scotland/rugby/player/819.html'
p148
aS'http://www.espnscrum.com/scotland/rugby/player/820.html'
p149
aS'http://www.espnscrum.com/scotland/rugby/player/828.html'
p150
aS'http://www.espnscrum.com/scotland/rugby/player/864.html'
p151
aS'http://www.espnscrum.com/scotland/rugby/player/866.html'
p152
aS'http://www.espnscrum.com/scotland/rugby/player/870.html'
p153
aS'http://www.espnscrum.com/scotland/rugby/player/871.html'
p154
aS'http://www.espnscrum.com/scotland/rugby/player/872.html'
p155
aS'http://www.espnscrum.com/scotland/rugby/player/874.html'
p156
aS'http://www.espnscrum.com/scotland/rugby/player/875.html'
p157
aS'http://www.espnscrum.com/scotland/rugby/player/885.html'
p158
aS'http://www.espnscrum.com/scotland/rugby/player/889.html'
p159
aS'http://www.espnscrum.com/scotland/rugby/player/909.html'
p160
aS'http://www.espnscrum.com/scotland/rugby/player/911.html'
p161
aS'http://www.espnscrum.com/scotland/rugby/player/914.html'
p162
aS'http://www.espnscrum.com/scotland/rugby/player/915.html'
p163
aS'http://www.espnscrum.com/scotland/rugby/player/955.html'
p164
aS'http://www.espnscrum.com/scotland/rugby/player/960.html'
p165
aS'http://www.espnscrum.com/scotland/rugby/player/962.html'
p166
aS'http://www.espnscrum.com/scotland/rugby/player/963.html'
p167
aS'http://www.espnscrum.com/scotland/rugby/player/969.html'
p168
aS'http://www.espnscrum.com/scotland/rugby/player/972.html'
p169
aS'http://www.espnscrum.com/scotland/rugby/player/1034.html'
p170
aS'http://www.espnscrum.com/scotland/rugby/player/1039.html'
p171
aS'http://www.espnscrum.com/scotland/rugby/player/1049.html'
p172
aS'http://www.espnscrum.com/scotland/rugby/player/1050.html'
p173
aS'http://www.espnscrum.com/scotland/rugby/player/1065.html'
p174
aS'http://www.espnscrum.com/scotland/rugby/player/1069.html'
p175
aS'http://www.espnscrum.com/scotland/rugby/player/1070.html'
p176
aS'http://www.espnscrum.com/scotland/rugby/player/1071.html'
p177
aS'http://www.espnscrum.com/scotland/rugby/player/1075.html'
p178
aS'http://www.espnscrum.com/scotland/rugby/player/1077.html'
p179
aS'http://www.espnscrum.com/scotland/rugby/player/1078.html'
p180
aS'http://www.espnscrum.com/scotland/rugby/player/1080.html'
p181
aS'http://www.espnscrum.com/scotland/rugby/player/1081.html'
p182
aS'http://www.espnscrum.com/scotland/rugby/player/1082.html'
p183
aS'http://www.espnscrum.com/scotland/rugby/player/1086.html'
p184
aS'http://www.espnscrum.com/scotland/rugby/player/1087.html'
p185
aS'http://www.espnscrum.com/scotland/rugby/player/1090.html'
p186
aS'http://www.espnscrum.com/scotland/rugby/player/1105.html'
p187
aS'http://www.espnscrum.com/scotland/rugby/player/1107.html'
p188
aS'http://www.espnscrum.com/scotland/rugby/player/1108.html'
p189
aS'http://www.espnscrum.com/scotland/rugby/player/1112.html'
p190
aS'http://www.espnscrum.com/scotland/rugby/player/1113.html'
p191
aS'http://www.espnscrum.com/scotland/rugby/player/1121.html'
p192
aS'http://www.espnscrum.com/scotland/rugby/player/1138.html'
p193
aS'http://www.espnscrum.com/scotland/rugby/player/1139.html'
p194
aS'http://www.espnscrum.com/scotland/rugby/player/1143.html'
p195
aS'http://www.espnscrum.com/scotland/rugby/player/1144.html'
p196
aS'http://www.espnscrum.com/scotland/rugby/player/1145.html'
p197
aS'http://www.espnscrum.com/scotland/rugby/player/1173.html'
p198
aS'http://www.espnscrum.com/scotland/rugby/player/1175.html'
p199
aS'http://www.espnscrum.com/scotland/rugby/player/1181.html'
p200
aS'http://www.espnscrum.com/scotland/rugby/player/1183.html'
p201
aS'http://www.espnscrum.com/scotland/rugby/player/1184.html'
p202
aS'http://www.espnscrum.com/scotland/rugby/player/1185.html'
p203
aS'http://www.espnscrum.com/scotland/rugby/player/1190.html'
p204
aS'http://www.espnscrum.com/scotland/rugby/player/1192.html'
p205
aS'http://www.espnscrum.com/scotland/rugby/player/1263.html'
p206
aS'http://www.espnscrum.com/scotland/rugby/player/1265.html'
p207
aS'http://www.espnscrum.com/scotland/rugby/player/1266.html'
p208
aS'http://www.espnscrum.com/scotland/rugby/player/1269.html'
p209
aS'http://www.espnscrum.com/scotland/rugby/player/1279.html'
p210
aS'http://www.espnscrum.com/scotland/rugby/player/1280.html'
p211
aS'http://www.espnscrum.com/scotland/rugby/player/1281.html'
p212
aS'http://www.espnscrum.com/scotland/rugby/player/1282.html'
p213
aS'http://www.espnscrum.com/scotland/rugby/player/1283.html'
p214
aS'http://www.espnscrum.com/scotland/rugby/player/1284.html'
p215
aS'http://www.espnscrum.com/scotland/rugby/player/1285.html'
p216
aS'http://www.espnscrum.com/scotland/rugby/player/1287.html'
p217
aS'http://www.espnscrum.com/scotland/rugby/player/1289.html'
p218
aS'http://www.espnscrum.com/scotland/rugby/player/1333.html'
p219
aS'http://www.espnscrum.com/scotland/rugby/player/1334.html'
p220
aS'http://www.espnscrum.com/scotland/rugby/player/1336.html'
p221
aS'http://www.espnscrum.com/scotland/rugby/player/1337.html'
p222
aS'http://www.espnscrum.com/scotland/rugby/player/1338.html'
p223
aS'http://www.espnscrum.com/scotland/rugby/player/1340.html'
p224
aS'http://www.espnscrum.com/scotland/rugby/player/1417.html'
p225
aS'http://www.espnscrum.com/scotland/rugby/player/1411.html'
p226
aS'http://www.espnscrum.com/scotland/rugby/player/1413.html'
p227
aS'http://www.espnscrum.com/scotland/rugby/player/1415.html'
p228
aS'http://www.espnscrum.com/scotland/rugby/player/1416.html'
p229
aS'http://www.espnscrum.com/scotland/rugby/player/1427.html'
p230
aS'http://www.espnscrum.com/scotland/rugby/player/1429.html'
p231
aS'http://www.espnscrum.com/scotland/rugby/player/1430.html'
p232
aS'http://www.espnscrum.com/scotland/rugby/player/1431.html'
p233
aS'http://www.espnscrum.com/scotland/rugby/player/1432.html'
p234
aS'http://www.espnscrum.com/scotland/rugby/player/1461.html'
p235
aS'http://www.espnscrum.com/scotland/rugby/player/1462.html'
p236
aS'http://www.espnscrum.com/scotland/rugby/player/1463.html'
p237
aS'http://www.espnscrum.com/scotland/rugby/player/1464.html'
p238
aS'http://www.espnscrum.com/scotland/rugby/player/1466.html'
p239
aS'http://www.espnscrum.com/scotland/rugby/player/1471.html'
p240
aS'http://www.espnscrum.com/scotland/rugby/player/1472.html'
p241
aS'http://www.espnscrum.com/scotland/rugby/player/1473.html'
p242
aS'http://www.espnscrum.com/scotland/rugby/player/1475.html'
p243
aS'http://www.espnscrum.com/scotland/rugby/player/1481.html'
p244
aS'http://www.espnscrum.com/scotland/rugby/player/1507.html'
p245
aS'http://www.espnscrum.com/scotland/rugby/player/1506.html'
p246
aS'http://www.espnscrum.com/scotland/rugby/player/1513.html'
p247
aS'http://www.espnscrum.com/scotland/rugby/player/1514.html'
p248
aS'http://www.espnscrum.com/scotland/rugby/player/1520.html'
p249
aS'http://www.espnscrum.com/scotland/rugby/player/1530.html'
p250
aS'http://www.espnscrum.com/scotland/rugby/player/1531.html'
p251
aS'http://www.espnscrum.com/scotland/rugby/player/1532.html'
p252
aS'http://www.espnscrum.com/scotland/rugby/player/1533.html'
p253
aS'http://www.espnscrum.com/scotland/rugby/player/1535.html'
p254
aS'http://www.espnscrum.com/scotland/rugby/player/1536.html'
p255
aS'http://www.espnscrum.com/scotland/rugby/player/1543.html'
p256
aS'http://www.espnscrum.com/scotland/rugby/player/1551.html'
p257
aS'http://www.espnscrum.com/scotland/rugby/player/1552.html'
p258
aS'http://www.espnscrum.com/scotland/rugby/player/1622.html'
p259
aS'http://www.espnscrum.com/scotland/rugby/player/1623.html'
p260
aS'http://www.espnscrum.com/scotland/rugby/player/1625.html'
p261
aS'http://www.espnscrum.com/scotland/rugby/player/1630.html'
p262
aS'http://www.espnscrum.com/scotland/rugby/player/1636.html'
p263
aS'http://www.espnscrum.com/scotland/rugby/player/1638.html'
p264
aS'http://www.espnscrum.com/scotland/rugby/player/1648.html'
p265
aS'http://www.espnscrum.com/scotland/rugby/player/1692.html'
p266
aS'http://www.espnscrum.com/scotland/rugby/player/1694.html'
p267
aS'http://www.espnscrum.com/scotland/rugby/player/1695.html'
p268
aS'http://www.espnscrum.com/scotland/rugby/player/1696.html'
p269
aS'http://www.espnscrum.com/scotland/rugby/player/1703.html'
p270
aS'http://www.espnscrum.com/scotland/rugby/player/1704.html'
p271
aS'http://www.espnscrum.com/scotland/rugby/player/1705.html'
p272
aS'http://www.espnscrum.com/scotland/rugby/player/1708.html'
p273
aS'http://www.espnscrum.com/scotland/rugby/player/1710.html'
p274
aS'http://www.espnscrum.com/scotland/rugby/player/1711.html'
p275
aS'http://www.espnscrum.com/scotland/rugby/player/1713.html'
p276
aS'http://www.espnscrum.com/scotland/rugby/player/1586.html'
p277
aS'http://www.espnscrum.com/scotland/rugby/player/1745.html'
p278
aS'http://www.espnscrum.com/scotland/rugby/player/1746.html'
p279
aS'http://www.espnscrum.com/scotland/rugby/player/1749.html'
p280
aS'http://www.espnscrum.com/scotland/rugby/player/1750.html'
p281
aS'http://www.espnscrum.com/scotland/rugby/player/1751.html'
p282
aS'http://www.espnscrum.com/scotland/rugby/player/1752.html'
p283
aS'http://www.espnscrum.com/scotland/rugby/player/1795.html'
p284
aS'http://www.espnscrum.com/scotland/rugby/player/1797.html'
p285
aS'http://www.espnscrum.com/scotland/rugby/player/1806.html'
p286
aS'http://www.espnscrum.com/scotland/rugby/player/1828.html'
p287
aS'http://www.espnscrum.com/scotland/rugby/player/1829.html'
p288
aS'http://www.espnscrum.com/scotland/rugby/player/1833.html'
p289
aS'http://www.espnscrum.com/scotland/rugby/player/1835.html'
p290
aS'http://www.espnscrum.com/scotland/rugby/player/1872.html'
p291
aS'http://www.espnscrum.com/scotland/rugby/player/1873.html'
p292
aS'http://www.espnscrum.com/scotland/rugby/player/1892.html'
p293
aS'http://www.espnscrum.com/scotland/rugby/player/1938.html'
p294
aS'http://www.espnscrum.com/scotland/rugby/player/1939.html'
p295
aS'http://www.espnscrum.com/scotland/rugby/player/1940.html'
p296
aS'http://www.espnscrum.com/scotland/rugby/player/1942.html'
p297
aS'http://www.espnscrum.com/scotland/rugby/player/1952.html'
p298
aS'http://www.espnscrum.com/scotland/rugby/player/1722.html'
p299
aS'http://www.espnscrum.com/scotland/rugby/player/1958.html'
p300
aS'http://www.espnscrum.com/scotland/rugby/player/1959.html'
p301
aS'http://www.espnscrum.com/scotland/rugby/player/1960.html'
p302
aS'http://www.espnscrum.com/scotland/rugby/player/2024.html'
p303
aS'http://www.espnscrum.com/scotland/rugby/player/2026.html'
p304
aS'http://www.espnscrum.com/scotland/rugby/player/2041.html'
p305
aS'http://www.espnscrum.com/scotland/rugby/player/2042.html'
p306
aS'http://www.espnscrum.com/scotland/rugby/player/2043.html'
p307
aS'http://www.espnscrum.com/scotland/rugby/player/2045.html'
p308
aS'http://www.espnscrum.com/scotland/rugby/player/2046.html'
p309
aS'http://www.espnscrum.com/scotland/rugby/player/2056.html'
p310
aS'http://www.espnscrum.com/scotland/rugby/player/2053.html'
p311
aS'http://www.espnscrum.com/scotland/rugby/player/2076.html'
p312
aS'http://www.espnscrum.com/scotland/rugby/player/2081.html'
p313
aS'http://www.espnscrum.com/scotland/rugby/player/2082.html'
p314
aS'http://www.espnscrum.com/scotland/rugby/player/2084.html'
p315
aS'http://www.espnscrum.com/scotland/rugby/player/2086.html'
p316
aS'http://www.espnscrum.com/scotland/rugby/player/2094.html'
p317
aS'http://www.espnscrum.com/scotland/rugby/player/2095.html'
p318
aS'http://www.espnscrum.com/scotland/rugby/player/2096.html'
p319
aS'http://www.espnscrum.com/scotland/rugby/player/1725.html'
p320
aS'http://www.espnscrum.com/scotland/rugby/player/2198.html'
p321
aS'http://www.espnscrum.com/scotland/rugby/player/2200.html'
p322
aS'http://www.espnscrum.com/scotland/rugby/player/2202.html'
p323
aS'http://www.espnscrum.com/scotland/rugby/player/2203.html'
p324
aS'http://www.espnscrum.com/scotland/rugby/player/2204.html'
p325
aS'http://www.espnscrum.com/scotland/rugby/player/2205.html'
p326
aS'http://www.espnscrum.com/scotland/rugby/player/2218.html'
p327
aS'http://www.espnscrum.com/scotland/rugby/player/2219.html'
p328
aS'http://www.espnscrum.com/scotland/rugby/player/2220.html'
p329
aS'http://www.espnscrum.com/scotland/rugby/player/2225.html'
p330
aS'http://www.espnscrum.com/scotland/rugby/player/2226.html'
p331
aS'http://www.espnscrum.com/scotland/rugby/player/2230.html'
p332
aS'http://www.espnscrum.com/scotland/rugby/player/2231.html'
p333
aS'http://www.espnscrum.com/scotland/rugby/player/2232.html'
p334
aS'http://www.espnscrum.com/scotland/rugby/player/2233.html'
p335
aS'http://www.espnscrum.com/scotland/rugby/player/2235.html'
p336
aS'http://www.espnscrum.com/scotland/rugby/player/2236.html'
p337
aS'http://www.espnscrum.com/scotland/rugby/player/2254.html'
p338
aS'http://www.espnscrum.com/scotland/rugby/player/2256.html'
p339
aS'http://www.espnscrum.com/scotland/rugby/player/2257.html'
p340
aS'http://www.espnscrum.com/scotland/rugby/player/2259.html'
p341
aS'http://www.espnscrum.com/scotland/rugby/player/2260.html'
p342
aS'http://www.espnscrum.com/scotland/rugby/player/2263.html'
p343
aS'http://www.espnscrum.com/scotland/rugby/player/2265.html'
p344
aS'http://www.espnscrum.com/scotland/rugby/player/2271.html'
p345
aS'http://www.espnscrum.com/scotland/rugby/player/2286.html'
p346
aS'http://www.espnscrum.com/scotland/rugby/player/2287.html'
p347
aS'http://www.espnscrum.com/scotland/rugby/player/2288.html'
p348
aS'http://www.espnscrum.com/scotland/rugby/player/2321.html'
p349
aS'http://www.espnscrum.com/scotland/rugby/player/2348.html'
p350
aS'http://www.espnscrum.com/scotland/rugby/player/2351.html'
p351
aS'http://www.espnscrum.com/scotland/rugby/player/2352.html'
p352
aS'http://www.espnscrum.com/scotland/rugby/player/2354.html'
p353
aS'http://www.espnscrum.com/scotland/rugby/player/2372.html'
p354
aS'http://www.espnscrum.com/scotland/rugby/player/2381.html'
p355
aS'http://www.espnscrum.com/scotland/rugby/player/2383.html'
p356
aS'http://www.espnscrum.com/scotland/rugby/player/2396.html'
p357
aS'http://www.espnscrum.com/scotland/rugby/player/2398.html'
p358
aS'http://www.espnscrum.com/scotland/rugby/player/2399.html'
p359
aS'http://www.espnscrum.com/scotland/rugby/player/2484.html'
p360
aS'http://www.espnscrum.com/scotland/rugby/player/2486.html'
p361
aS'http://www.espnscrum.com/scotland/rugby/player/2487.html'
p362
aS'http://www.espnscrum.com/scotland/rugby/player/2488.html'
p363
aS'http://www.espnscrum.com/scotland/rugby/player/2489.html'
p364
aS'http://www.espnscrum.com/scotland/rugby/player/2490.html'
p365
aS'http://www.espnscrum.com/scotland/rugby/player/2491.html'
p366
aS'http://www.espnscrum.com/scotland/rugby/player/2492.html'
p367
aS'http://www.espnscrum.com/scotland/rugby/player/2499.html'
p368
aS'http://www.espnscrum.com/scotland/rugby/player/2503.html'
p369
aS'http://www.espnscrum.com/scotland/rugby/player/2504.html'
p370
aS'http://www.espnscrum.com/scotland/rugby/player/2505.html'
p371
aS'http://www.espnscrum.com/scotland/rugby/player/2577.html'
p372
aS'http://www.espnscrum.com/scotland/rugby/player/2578.html'
p373
aS'http://www.espnscrum.com/scotland/rugby/player/2579.html'
p374
aS'http://www.espnscrum.com/scotland/rugby/player/2580.html'
p375
aS'http://www.espnscrum.com/scotland/rugby/player/2582.html'
p376
aS'http://www.espnscrum.com/scotland/rugby/player/2585.html'
p377
aS'http://www.espnscrum.com/scotland/rugby/player/2586.html'
p378
aS'http://www.espnscrum.com/scotland/rugby/player/2591.html'
p379
aS'http://www.espnscrum.com/scotland/rugby/player/2622.html'
p380
aS'http://www.espnscrum.com/scotland/rugby/player/2623.html'
p381
aS'http://www.espnscrum.com/scotland/rugby/player/2624.html'
p382
aS'http://www.espnscrum.com/scotland/rugby/player/2645.html'
p383
aS'http://www.espnscrum.com/scotland/rugby/player/2657.html'
p384
aS'http://www.espnscrum.com/scotland/rugby/player/2735.html'
p385
aS'http://www.espnscrum.com/scotland/rugby/player/2737.html'
p386
aS'http://www.espnscrum.com/scotland/rugby/player/2740.html'
p387
aS'http://www.espnscrum.com/scotland/rugby/player/2741.html'
p388
aS'http://www.espnscrum.com/scotland/rugby/player/2742.html'
p389
aS'http://www.espnscrum.com/scotland/rugby/player/2743.html'
p390
aS'http://www.espnscrum.com/scotland/rugby/player/2746.html'
p391
aS'http://www.espnscrum.com/scotland/rugby/player/2749.html'
p392
aS'http://www.espnscrum.com/scotland/rugby/player/2750.html'
p393
aS'http://www.espnscrum.com/scotland/rugby/player/2751.html'
p394
aS'http://www.espnscrum.com/scotland/rugby/player/2755.html'
p395
aS'http://www.espnscrum.com/scotland/rugby/player/2764.html'
p396
aS'http://www.espnscrum.com/scotland/rugby/player/2766.html'
p397
aS'http://www.espnscrum.com/scotland/rugby/player/2767.html'
p398
aS'http://www.espnscrum.com/scotland/rugby/player/2775.html'
p399
aS'http://www.espnscrum.com/scotland/rugby/player/2846.html'
p400
aS'http://www.espnscrum.com/scotland/rugby/player/2848.html'
p401
aS'http://www.espnscrum.com/scotland/rugby/player/2849.html'
p402
aS'http://www.espnscrum.com/scotland/rugby/player/2850.html'
p403
aS'http://www.espnscrum.com/scotland/rugby/player/2851.html'
p404
aS'http://www.espnscrum.com/scotland/rugby/player/2852.html'
p405
aS'http://www.espnscrum.com/scotland/rugby/player/2853.html'
p406
aS'http://www.espnscrum.com/scotland/rugby/player/2855.html'
p407
aS'http://www.espnscrum.com/scotland/rugby/player/2866.html'
p408
aS'http://www.espnscrum.com/scotland/rugby/player/2867.html'
p409
aS'http://www.espnscrum.com/scotland/rugby/player/2869.html'
p410
aS'http://www.espnscrum.com/scotland/rugby/player/2888.html'
p411
aS'http://www.espnscrum.com/scotland/rugby/player/2945.html'
p412
aS'http://www.espnscrum.com/scotland/rugby/player/2949.html'
p413
aS'http://www.espnscrum.com/scotland/rugby/player/2952.html'
p414
aS'http://www.espnscrum.com/scotland/rugby/player/2953.html'
p415
aS'http://www.espnscrum.com/scotland/rugby/player/2955.html'
p416
aS'http://www.espnscrum.com/scotland/rugby/player/2842.html'
p417
aS'http://www.espnscrum.com/scotland/rugby/player/2976.html'
p418
aS'http://www.espnscrum.com/scotland/rugby/player/3046.html'
p419
aS'http://www.espnscrum.com/scotland/rugby/player/3047.html'
p420
aS'http://www.espnscrum.com/scotland/rugby/player/3049.html'
p421
aS'http://www.espnscrum.com/scotland/rugby/player/3051.html'
p422
aS'http://www.espnscrum.com/scotland/rugby/player/3052.html'
p423
aS'http://www.espnscrum.com/scotland/rugby/player/2818.html'
p424
aS'http://www.espnscrum.com/scotland/rugby/player/3078.html'
p425
aS'http://www.espnscrum.com/scotland/rugby/player/3081.html'
p426
aS'http://www.espnscrum.com/scotland/rugby/player/3087.html'
p427
aS'http://www.espnscrum.com/scotland/rugby/player/3088.html'
p428
aS'http://www.espnscrum.com/scotland/rugby/player/3216.html'
p429
aS'http://www.espnscrum.com/scotland/rugby/player/3217.html'
p430
aS'http://www.espnscrum.com/scotland/rugby/player/3218.html'
p431
aS'http://www.espnscrum.com/scotland/rugby/player/3219.html'
p432
aS'http://www.espnscrum.com/scotland/rugby/player/3221.html'
p433
aS'http://www.espnscrum.com/scotland/rugby/player/3222.html'
p434
aS'http://www.espnscrum.com/scotland/rugby/player/3225.html'
p435
aS'http://www.espnscrum.com/scotland/rugby/player/3283.html'
p436
aS'http://www.espnscrum.com/scotland/rugby/player/3147.html'
p437
aS'http://www.espnscrum.com/scotland/rugby/player/3315.html'
p438
aS'http://www.espnscrum.com/scotland/rugby/player/3323.html'
p439
aS'http://www.espnscrum.com/scotland/rugby/player/3329.html'
p440
aS'http://www.espnscrum.com/scotland/rugby/player/3402.html'
p441
aS'http://www.espnscrum.com/scotland/rugby/player/3408.html'
p442
aS'http://www.espnscrum.com/scotland/rugby/player/3476.html'
p443
aS'http://www.espnscrum.com/scotland/rugby/player/3500.html'
p444
aS'http://www.espnscrum.com/scotland/rugby/player/3501.html'
p445
aS'http://www.espnscrum.com/scotland/rugby/player/3457.html'
p446
aS'http://www.espnscrum.com/scotland/rugby/player/3503.html'
p447
aS'http://www.espnscrum.com/scotland/rugby/player/3504.html'
p448
aS'http://www.espnscrum.com/scotland/rugby/player/3529.html'
p449
aS'http://www.espnscrum.com/scotland/rugby/player/3530.html'
p450
aS'http://www.espnscrum.com/scotland/rugby/player/3536.html'
p451
aS'http://www.espnscrum.com/scotland/rugby/player/3537.html'
p452
aS'http://www.espnscrum.com/scotland/rugby/player/3541.html'
p453
aS'http://www.espnscrum.com/scotland/rugby/player/3641.html'
p454
aS'http://www.espnscrum.com/scotland/rugby/player/3645.html'
p455
aS'http://www.espnscrum.com/scotland/rugby/player/3650.html'
p456
a.