(lp1
VHalfback
p2
aVFullback
p3
aVForward
p4
aVFullback
p5
aVFullback
p6
aVForward
p7
aVHalfback
p8
aVForward
p9
aVForward
p10
aVForward
p11
aVForward
p12
aVForward
p13
aVForward
p14
aVThree-quarters
p15
aVForward
p16
aVForward
p17
aVForward
p18
aVForward
p19
aVForward
p20
aVForward
p21
aVForward
p22
aVFullback
p23
aVForward
p24
aVForward
p25
aVForward
p26
aVThree-quarters
p27
aVForward
p28
aVForward
p29
aVForward
p30
aVForward
p31
aVForward
p32
aVForward
p33
aVForward
p34
aVHalfback
p35
aVThree-quarters
p36
aVForward
p37
aVFullback
p38
aVForward
p39
aVForward
p40
aVForward
p41
aVThree-quarters
p42
aVForward
p43
aVThree-quarters
p44
aVForward
p45
aVForward
p46
aVHalfback
p47
aVForward
p48
aVForward
p49
aVForward
p50
aVThree-quarters
p51
aVForward
p52
aVForward
p53
aVThree-quarters
p54
aVForward
p55
aVHalfback
p56
aVForward
p57
aVForward
p58
aVForward
p59
aVForward
p60
aVFullback
p61
aVForward
p62
aVForward
p63
aVForward
p64
aVHalfback
p65
aVForward
p66
aVForward
p67
aVFullback
p68
aVThree-quarters
p69
aVForward
p70
aVThree-quarters
p71
aVForward
p72
aVForward
p73
aVForward
p74
aVHalfback
p75
aVForward
p76
aVThree-quarters
p77
aVForward
p78
aVHalfback
p79
aVForward
p80
aVForward
p81
aVHalfback
p82
aVForward
p83
aVForward
p84
aVForward
p85
aVHalfback
p86
aVForward
p87
aVForward
p88
aVForward
p89
aVForward
p90
aVForward
p91
aVFullback
p92
aVForward
p93
aVForward
p94
aVHalfback
p95
aVForward
p96
aVForward
p97
aVForward
p98
aVForward
p99
aVForward
p100
aVHalfback
p101
aVFullback
p102
aVForward
p103
aVHalfback
p104
aVThree-quarters
p105
aVThree-quarters
p106
aVFullback
p107
aVForward
p108
aVForward
p109
aVForward
p110
aVFullback
p111
aVThree-quarters
p112
aVForward
p113
aVHalfback
p114
aVThree-quarters
p115
aVThree-quarters
p116
aVForward
p117
aVForward
p118
aVThree-quarters
p119
aVFullback
p120
aVThree-quarters
p121
aVForward
p122
aVThree-quarters
p123
aVThree-quarters
p124
aVForward
p125
aVHalfback
p126
aVForward
p127
aVForward
p128
aVThree-quarters
p129
aVFullback
p130
aVForward
p131
aVForward
p132
aVThree-quarters
p133
aVForward
p134
aVForward
p135
aVThree-quarters
p136
aVForward
p137
aVForward
p138
aVForward
p139
aVHalfback
p140
aVThree-quarters
p141
aVFullback
p142
aVFullback
p143
aVForward
p144
aVThree-quarters
p145
aVHalfback
p146
aVFullback
p147
aVForward
p148
aVForward
p149
aVForward
p150
aVForward
p151
aVForward
p152
aVForward
p153
aVThree-quarters
p154
aVForward
p155
aVForward
p156
aVHalfback
p157
aVForward
p158
aVForward
p159
aVForward
p160
aVForward
p161
aVThree-quarters
p162
aVForward
p163
aVThree-quarters
p164
aVForward
p165
aVForward
p166
aVThree-quarters
p167
aVForward
p168
aVHalfback
p169
aVCentre
p170
aVForward
p171
aVForward
p172
aVThree-quarters
p173
aVForward
p174
aVWing
p175
aVHalfback
p176
aVForward
p177
aVForward
p178
aVThree-quarters
p179
aVForward
p180
aVHalfback
p181
aVForward
p182
aVForward
p183
aVHalfback
p184
aVForward
p185
aVForward
p186
aVWing
p187
aVForward
p188
aVFullback
p189
aVForward
p190
aVForward
p191
aVForward
p192
aVForward
p193
aVHalfback
p194
aVFullback
p195
aVForward
p196
aVWing
p197
aVForward
p198
aVForward
p199
aVForward
p200
aVHalfback
p201
aVWing
p202
aVCentre
p203
aVCentre
p204
aVForward
p205
aVForward
p206
aVForward
p207
aVWing
p208
aVCentre
p209
aVForward
p210
aVForward
p211
aVHalfback
p212
aVForward
p213
aVHalfback
p214
aVFullback
p215
aVForward
p216
aVCentre
p217
aVCentre
p218
aVForward
p219
aVCentre
p220
aVCentre
p221
aVFullback
p222
aVForward
p223
aVHalfback
p224
aVForward
p225
aVWing
p226
aVHalfback
p227
aVForward
p228
aVCentre
p229
aVForward
p230
aVForward
p231
aVForward
p232
aVWing
p233
aVForward
p234
aVForward
p235
aVFullback
p236
aVWing
p237
aVForward
p238
aVForward
p239
aVForward
p240
aVForward
p241
aVCentre
p242
aVForward
p243
aVFullback
p244
aVForward
p245
aVForward
p246
aVForward
p247
aVCentre
p248
aVHalfback
p249
aVForward
p250
aVFullback
p251
aVLock
p252
aVScrum-half
p253
aVCentre
p254
aVForward
p255
aVWing
p256
aVForward
p257
aVWing
p258
aVHalfback
p259
aVWing
p260
aVCentre
p261
aVForward
p262
aVForward
p263
aVForward
p264
aVForward
p265
aVCentre
p266
aVForward
p267
aVHalfback
p268
aVForward
p269
aVForward
p270
aVWing
p271
aVWing
p272
aVWing
p273
aVForward
p274
aVForward
p275
aVFullback
p276
aVHalfback
p277
aVForward
p278
aVWing
p279
aVFlanker
p280
aVFullback
p281
aVWing
p282
aVCentre
p283
aVCentre
p284
aVWing
p285
aVCentre
p286
aVForward
p287
aVForward
p288
aVForward
p289
aVForward
p290
aVCentre
p291
aVForward
p292
aVFlanker
p293
aVHooker
p294
aVHalfback
p295
aVForward
p296
aVWing
p297
aVForward
p298
aVWing
p299
aVFly-half
p300
aVForward
p301
aVScrum-half
p302
aVCentre
p303
aVHalfback
p304
aVProp
p305
aVWing
p306
aVFly-half
p307
aVCentre
p308
aVForward
p309
aVForward
p310
aVForward
p311
aVCentre
p312
aVWing
p313
aVForward
p314
aVScrum-half
p315
aVWing
p316
aVForward
p317
aVWing
p318
aVScrum-half
p319
aVWing
p320
aVProp
p321
aVScrum-half
p322
aVForward
p323
aVFullback
p324
aVFlanker
p325
aVCentre
p326
aVWing
p327
aVWing
p328
aVLock
p329
aVFullback
p330
aVFullback
p331
aVProp
p332
aVHooker
p333
aVFly-half
p334
aVLock
p335
aVCentre
p336
aVWing
p337
aVFullback
p338
aVFly-half
p339
aVForward
p340
aVLock
p341
aVScrum-half
p342
aVLock
p343
aVForward
p344
aVWing
p345
aVFly-half
p346
aVCentre
p347
aVNo. 8
p348
aVProp
p349
aVCentre
p350
aVForward
p351
aVLock
p352
aVWing
p353
aVCentre
p354
aVFly-half
p355
aVFlanker
p356
aVCentre
p357
aVWing
p358
aVFullback
p359
aVProp
p360
aVFly-half
p361
aVLock
p362
aVCentre
p363
aVWing
p364
aVForward
p365
aVLock
p366
aVProp
p367
aVCentre
p368
aVWing
p369
aVProp
p370
aVFlanker
p371
aVWing
p372
aVProp
p373
aVCentre
p374
aVHooker
p375
aVProp
p376
aVFlanker
p377
aVFullback
p378
aVFlanker
p379
aVWing
p380
aVForward
p381
aVScrum-half
p382
aVWing
p383
aVScrum-half
p384
aVLock
p385
aVWing
p386
aVProp
p387
aVFullback
p388
aVCentre
p389
aVWing
p390
aVCentre
p391
aVHooker
p392
aVFly-half
p393
aVLock
p394
aVNo. 8
p395
aVWing
p396
aVProp
p397
aVFlanker
p398
aVCentre
p399
aVHooker
p400
aVNo. 8
p401
aVCentre
p402
aVFullback
p403
aVFlanker
p404
aVWing
p405
aVCentre
p406
aVProp
p407
aVScrum-half
p408
aVProp
p409
aVFullback
p410
aVWing
p411
aVFullback
p412
aVProp
p413
aVCentre
p414
aVFly-half
p415
aVLock
p416
aVWing
p417
aVFlanker
p418
aVNo. 8
p419
aVProp
p420
aVWing
p421
aVHooker
p422
aVFly-half
p423
aVCentre
p424
aVNo. 8
p425
aVWing
p426
aVForward
p427
aVWing
p428
aVHooker
p429
aVLock
p430
aVScrum-half
p431
aVFlanker
p432
aVLock
p433
aVProp
p434
aVHooker
p435
aVProp
p436
aVCentre
p437
aVWing
p438
aVFlanker
p439
aVWing
p440
aVProp
p441
aVWing
p442
aVScrum-half
p443
aVProp
p444
aVFly-half
p445
aVCentre
p446
aVHooker
p447
aVFlanker
p448
aVProp
p449
aVWing
p450
aVCentre
p451
aVCentre
p452
aVFly-half
p453
aVLock
p454
aVHooker
p455
aVProp
p456
aVFlanker
p457
aVFullback
p458
aVCentre
p459
aVWing
p460
aVFly-half
p461
aVFullback
p462
aVFlanker
p463
aVLock
p464
aVFlanker
p465
aVLock
p466
aVProp
p467
aVCentre
p468
aVCentre
p469
aVCentre
p470
aVFlanker
p471
aVLock
p472
aVLock
p473
aVCentre
p474
aVNo. 8
p475
aVFlanker
p476
aVWing
p477
aVScrum-half
p478
aVWing
p479
aVFullback
p480
aVLock
p481
aVFullback
p482
aVFullback
p483
aVScrum-half
p484
aVNo. 8
p485
aVLock
p486
aVFullback
p487
aVWing
p488
aVNo. 8
p489
aVFly-half
p490
aVCentre
p491
aVProp
p492
aVProp
p493
aVNo. 8
p494
aVWing
p495
aVLock
p496
aVCentre
p497
aVFlanker
p498
aVLock
p499
aVFullback
p500
aVWing
p501
aVFly-half
p502
aVFlanker
p503
aVFly-half
p504
aVHooker
p505
aVWing
p506
aVFlanker
p507
aVFullback
p508
aVProp
p509
aVWing
p510
aVProp
p511
aVProp
p512
aVFullback
p513
aVHooker
p514
aVHooker
p515
aVFullback
p516
aVFlanker
p517
aVFlanker
p518
aVHooker
p519
aVNo. 8
p520
aVCentre
p521
aVFlanker
p522
aVWing
p523
aVFlanker
p524
aVProp
p525
aVLock
p526
aVProp
p527
aVCentre
p528
aVLock
p529
aVFly-half
p530
aVFlanker
p531
aVFly-half
p532
aVCentre
p533
aVWing
p534
aVProp
p535
aVFlanker
p536
aVScrum-half
p537
aVWing
p538
aVWing
p539
aVHooker
p540
aVFullback
p541
aVLock
p542
aVProp
p543
aVWing
p544
aVScrum-half
p545
aVWing
p546
aVProp
p547
aVCentre
p548
aVProp
p549
aVHooker
p550
aVHooker
p551
aVProp
p552
aVNo. 8
p553
aVFullback
p554
aVScrum-half
p555
aVFly-half
p556
aVLock
p557
aVNo. 8
p558
aVCentre
p559
aVFlanker
p560
aVFullback
p561
aVLock
p562
aVWing
p563
aVFullback
p564
aVProp
p565
aVWing
p566
aVFlanker
p567
aVNo. 8
p568
aVProp
p569
aVLock
p570
aVWing
p571
aVScrum-half
p572
aVProp
p573
aVHooker
p574
aVFlanker
p575
aVNo. 8
p576
aVCentre
p577
aVFlanker
p578
aVScrum-half
p579
aVProp
p580
aVLock
p581
aVProp
p582
aVFly-half
p583
aVHooker
p584
aVWing
p585
aVCentre
p586
aVProp
p587
aVFly-half
p588
aVProp
p589
aVFly-half
p590
aVLock
p591
aVHooker
p592
aVCentre
p593
aVFlanker
p594
aVNo. 8
p595
aVWing
p596
aVLock
p597
aVLock
p598
aVHooker
p599
aVProp
p600
aVProp
p601
aVFullback
p602
aVScrum-half
p603
aVLock
p604
aVCentre
p605
aVLock
p606
aVCentre
p607
aVCentre
p608
aVFullback
p609
aVFlanker
p610
aVCentre
p611
aVCentre
p612
aVLock
p613
aVLock
p614
aVHooker
p615
aVWing
p616
aVScrum-half
p617
aVCentre
p618
aVProp
p619
aVWing
p620
aVFlanker
p621
aVFullback
p622
aVWing
p623
aVWing
p624
aVLock
p625
aVCentre
p626
aVCentre
p627
aVFly-half
p628
aVProp
p629
aVScrum-half
p630
aVNo. 8
p631
aVHooker
p632
aVLock
p633
aVFullback
p634
aVNo. 8
p635
aVFlanker
p636
aVProp
p637
aVWing
p638
aVLock, Flanker
p639
aVHooker
p640
aVNo. 8
p641
aVFlanker
p642
aVProp
p643
aVFlanker
p644
aVCentre
p645
aVNo. 8
p646
aVHooker
p647
aVScrum-half
p648
aVProp
p649
aVNo. 8
p650
aVFlanker
p651
aVWing
p652
aVLock
p653
aVHooker
p654
aVProp
p655
aVFullback
p656
aVLock
p657
aVFlanker
p658
aVCentre
p659
aVScrum-half
p660
aVFly-half
p661
aVLock
p662
aVCentre
p663
aVFlanker
p664
aVFly-half
p665
aVProp
p666
aVHooker
p667
aVCentre
p668
aVProp
p669
aVFlanker
p670
aVScrum-half
p671
aVWing
p672
aVFullback
p673
aVFlanker
p674
aVScrum-half
p675
aVCentre
p676
aVCentre
p677
aVCentre
p678
aVCentre
p679
aVFullback
p680
aVWing
p681
aVFly-half
p682
aVFlanker
p683
aVFly-half
p684
aVHooker
p685
aVFlanker
p686
aVScrum-half
p687
aVLock
p688
aVWing
p689
aVScrum-half
p690
aVCentre
p691
aVLock
p692
aVNo. 8
p693
aVProp
p694
aVCentre
p695
aVNo. 8
p696
aVCentre
p697
aVFly-half
p698
aVFlanker
p699
aVFlanker
p700
aVNo. 8
p701
aVScrum-half
p702
aVWing
p703
aVCentre
p704
aVFlanker
p705
aVLock
p706
aVWing
p707
aVNo. 8
p708
aVFlanker
p709
aVScrum-half
p710
aVFlanker
p711
aVFlanker
p712
aVProp
p713
aVProp
p714
aVFlanker
p715
aVCentre
p716
aVFullback
p717
aVFlanker
p718
aVCentre
p719
aVProp
p720
aVNo. 8
p721
aVLock
p722
aVNo. 8
p723
aVFullback
p724
aVFly-half
p725
aVWing
p726
aVFlanker
p727
aVHooker
p728
aVCentre
p729
aVLock
p730
aVProp
p731
aVWing
p732
aVWing
p733
aVProp
p734
aVCentre
p735
aVNo. 8
p736
aVProp
p737
aVCentre
p738
aVScrum-half
p739
aVCentre
p740
aVWing
p741
aVLock
p742
aVWing
p743
aVFlanker
p744
aVFlanker
p745
aVWing
p746
aVLock
p747
aVScrum-half
p748
aVHooker
p749
aVFly-half
p750
aVCentre
p751
aVFly-half
p752
aVScrum-half
p753
aVFlanker
p754
aVFullback
p755
aVProp
p756
aVWing
p757
aVWing
p758
aVLock
p759
aVScrum-half
p760
aVFullback
p761
aVWing
p762
aVScrum-half
p763
aVNo. 8
p764
aVFlanker
p765
aVWing
p766
aVFullback
p767
aVHooker
p768
aVCentre
p769
aVNo. 8
p770
aVHooker
p771
aVCentre
p772
aVScrum-half
p773
aVLock
p774
aVWing
p775
aVCentre
p776
aVFullback
p777
aVCentre
p778
aVWing
p779
aVLock
p780
aVFlanker
p781
aVScrum-half
p782
aVProp
p783
aVWing
p784
aVHooker
p785
aVNo. 8
p786
aVCentre
p787
aVCentre
p788
aVFlanker
p789
aVFlanker
p790
aVCentre
p791
aVHooker
p792
aVWing
p793
aVNo. 8
p794
aVCentre
p795
aVLock
p796
aVFly-half
p797
aVProp
p798
aVProp
p799
aVNo. 8
p800
aVWing
p801
aVProp
p802
aVFlanker
p803
aVHooker
p804
aVWing
p805
aVFly-half
p806
aVLock
p807
aVProp
p808
aVFlanker
p809
aVWing
p810
aVNo. 8
p811
aVFly-half
p812
aVProp
p813
aVCentre
p814
aVNo. 8
p815
aVProp
p816
aVLock
p817
aVScrum-half
p818
aVWing
p819
aVHooker
p820
aVFly-half
p821
aVProp
p822
aVCentre
p823
aVFlanker
p824
aVNo. 8
p825
aVWing
p826
aVFlanker
p827
aVNo. 8
p828
aVWing
p829
aVCentre
p830
aVProp
p831
aVFullback
p832
aVLock
p833
aVCentre
p834
aVLock
p835
aVScrum-half
p836
aVHooker
p837
aVFlanker
p838
aVFlanker
p839
aVProp
p840
aVWing
p841
aVCentre
p842
aVCentre
p843
aVWing
p844
aVFlanker
p845
aVLock
p846
aVWing
p847
aVFullback
p848
aVCentre
p849
aVProp
p850
aVCentre
p851
aVScrum-half
p852
aVFly-half
p853
aVFlanker
p854
aVLock
p855
aVFly-half
p856
aVScrum-half
p857
aVFlanker
p858
aVFly-half
p859
aVLock
p860
aVCentre
p861
aVHooker
p862
aVProp
p863
aVWing
p864
aVFlanker
p865
aVWing
p866
aVHooker
p867
aVWing
p868
aVLock
p869
aVProp
p870
aVProp
p871
aVCentre
p872
aVLock
p873
aVFlanker
p874
aVScrum-half
p875
aVFlanker
p876
aVFlanker
p877
aVProp
p878
aVFlanker
p879
aVProp
p880
aVHooker
p881
aVWing
p882
aVHooker
p883
aVFlanker
p884
aVLock
p885
aVWing
p886
aVFly-half
p887
aVCentre
p888
aVLock
p889
aVScrum-half
p890
aVLock
p891
aVProp
p892
aVFlanker
p893
aVFullback, Wing
p894
aVWing
p895
aVHooker
p896
aVCentre
p897
aVScrum-half
p898
aVLock
p899
aVLock
p900
aVProp
p901
aVBack-row
p902
aVProp
p903
aVHooker
p904
aVFlanker
p905
aVFullback
p906
aVCentre
p907
aVProp
p908
aVFlanker
p909
aVProp
p910
aVHooker
p911
aVProp
p912
aVFullback
p913
aVFly-half
p914
aVWing
p915
aVHooker
p916
aVLock
p917
aVFlanker
p918
aVProp
p919
aVLock
p920
aVHooker
p921
aVFlanker
p922
aVFullback
p923
aVWing
p924
aVWing
p925
aVWing
p926
aVProp
p927
aVProp
p928
aVFullback
p929
aVNo. 8
p930
aVCentre
p931
aVCentre
p932
aVFlanker
p933
aVFlanker
p934
aVScrum-half
p935
aVScrum-half
p936
aVHooker
p937
aVCentre
p938
aVHooker
p939
aVBack-row
p940
aVFullback, Wing
p941
aVWing, Centre
p942
aVLock
p943
aVBack-row
p944
aVBack-row
p945
aVLock
p946
aVBack-row
p947
aVScrum-half
p948
aVLock
p949
aVHooker
p950
aVCentre
p951
aVOutside back
p952
aVBack-row
p953
aVCentre
p954
aVFlanker
p955
aVFly-half
p956
aVWing
p957
aVCentre, Fly-half
p958
aVScrum-half
p959
aVCentre
p960
aVFullback
p961
aVProp
p962
aVCentre
p963
aVProp
p964
aVFlanker
p965
aVCentre
p966
aVFlanker, Lock
p967
aVProp
p968
aVFullback
p969
aVWing
p970
aVProp
p971
aVCentre
p972
aVWing
p973
aVBack-row
p974
aVHooker
p975
aVWing
p976
aVScrum-half
p977
aVBack-row
p978
aVOutside back
p979
aVFly-half
p980
aVWing
p981
aVFullback
p982
aVCentre
p983
aVLock
p984
aVBack-row
p985
aVLock
p986
aVHooker
p987
aVLock
p988
aVBack-row
p989
aVFullback, Wing
p990
aVBack-row
p991
aVHooker
p992
aVFly-half
p993
aVProp
p994
aVBack-row, Wing
p995
aVOutside back
p996
aVScrum-half
p997
aVNo. 8
p998
aVWing, Centre
p999
aVNo. 8
p1000
aVLock
p1001
aVScrum-half
p1002
aVBack-row
p1003
aVHooker
p1004
aVFlanker
p1005
aVProp
p1006
aVCentre
p1007
aVBack-row
p1008
aVCentre
p1009
aVWing
p1010
aVLock
p1011
aVCentre
p1012
aVProp
p1013
aVProp
p1014
aVCentre
p1015
aVProp
p1016
aVBack-row
p1017
aVBack-row
p1018
aVLock
p1019
aVFly-half
p1020
aVFly-half
p1021
aVCentre
p1022
aVFullback, Wing
p1023
aVBack-row
p1024
aVWing
p1025
aVFullback
p1026
aVProp
p1027
aVFly-half
p1028
aVCentre
p1029
aVProp
p1030
aVProp
p1031
aVFullback, Wing
p1032
aVWing
p1033
aVLock
p1034
aVBack-row
p1035
aVScrum-half
p1036
aVFly-half
p1037
aVFullback, Wing
p1038
aVNo. 8
p1039
aVLock
p1040
aVCentre
p1041
aVHooker
p1042
aVFullback
p1043
aVCentre
p1044
aVHooker
p1045
aVWing
p1046
aVFullback
p1047
aVWing
p1048
aVLock
p1049
aVHooker
p1050
aVLock
p1051
aVLock
p1052
aVFlanker
p1053
aVWing, Centre
p1054
aVFlanker
p1055
aVProp
p1056
aVFly-half
p1057
aVProp
p1058
aVHooker
p1059
aVScrum-half
p1060
aVBack-row
p1061
aVBack-row
p1062
aVCentre
p1063
aVScrum-half
p1064
aVLock
p1065
aVBack-row
p1066
a.