(lp1
VHalfback
p2
aVFullback
p3
aVForward
p4
aVFullback
p5
aVFullback
p6
aVForward
p7
aVHalfback
p8
aVForward
p9
aVForward
p10
aVForward
p11
aVForward
p12
aVForward
p13
aVForward
p14
aVThree-quarters
p15
aVForward
p16
aVForward
p17
aVForward
p18
aVForward
p19
aVForward
p20
aVForward
p21
aVForward
p22
aVFullback
p23
aVForward
p24
aVForward
p25
aVForward
p26
aVThree-quarters
p27
aVForward
p28
aVForward
p29
aVForward
p30
aVForward
p31
aVForward
p32
aVForward
p33
aVForward
p34
aVHalfback
p35
aVThree-quarters
p36
aVForward
p37
aVFullback
p38
aVForward
p39
aVForward
p40
aVForward
p41
aVThree-quarters
p42
aVForward
p43
aVThree-quarters
p44
aVForward
p45
aVForward
p46
aVHalfback
p47
aVForward
p48
aVForward
p49
aVForward
p50
aVThree-quarters
p51
aVForward
p52
aVForward
p53
aVThree-quarters
p54
aVForward
p55
aVHalfback
p56
aVForward
p57
aVForward
p58
aVForward
p59
aVForward
p60
aVFullback
p61
aVForward
p62
aVForward
p63
aVForward
p64
aVHalfback
p65
aVForward
p66
aVForward
p67
aVFullback
p68
aVThree-quarters
p69
aVForward
p70
aVThree-quarters
p71
aVForward
p72
aVForward
p73
aVForward
p74
aVHalfback
p75
aVForward
p76
aVThree-quarters
p77
aVForward
p78
aVHalfback
p79
aVForward
p80
aVForward
p81
aVHalfback
p82
aVForward
p83
aVForward
p84
aVForward
p85
aVHalfback
p86
aVForward
p87
aVForward
p88
aVForward
p89
aVForward
p90
aVForward
p91
aVFullback
p92
aVForward
p93
aVForward
p94
aVHalfback
p95
aVForward
p96
aVForward
p97
aVForward
p98
aVForward
p99
aVForward
p100
aVHalfback
p101
aVFullback
p102
aVForward
p103
aVHalfback
p104
aVThree-quarters
p105
aVThree-quarters
p106
aVFullback
p107
aVForward
p108
aVForward
p109
aVForward
p110
aVFullback
p111
aVThree-quarters
p112
aVForward
p113
aVHalfback
p114
aVThree-quarters
p115
aVThree-quarters
p116
aVForward
p117
aVForward
p118
aVThree-quarters
p119
aVFullback
p120
aVThree-quarters
p121
aVForward
p122
aVThree-quarters
p123
aVThree-quarters
p124
aVForward
p125
aVHalfback
p126
aVForward
p127
aVForward
p128
aVThree-quarters
p129
aVFullback
p130
aVForward
p131
aVForward
p132
aVThree-quarters
p133
aVForward
p134
aVForward
p135
aVThree-quarters
p136
aVForward
p137
aVForward
p138
aVForward
p139
aVHalfback
p140
aVThree-quarters
p141
aVFullback
p142
aVFullback
p143
aVForward
p144
aVThree-quarters
p145
aVHalfback
p146
aVFullback
p147
aVForward
p148
aVForward
p149
aVForward
p150
aVForward
p151
aVForward
p152
aVForward
p153
aVThree-quarters
p154
aVForward
p155
aVForward
p156
aVHalfback
p157
aVForward
p158
aVForward
p159
aVForward
p160
aVForward
p161
aVThree-quarters
p162
aVForward
p163
aVThree-quarters
p164
aVForward
p165
aVForward
p166
aVThree-quarters
p167
aVForward
p168
aVHalfback
p169
aVCentre
p170
aVForward
p171
aVForward
p172
aVThree-quarters
p173
aVForward
p174
aVWing
p175
aVHalfback
p176
aVForward
p177
aVForward
p178
aVThree-quarters
p179
aVForward
p180
aVHalfback
p181
aVForward
p182
aVForward
p183
aVHalfback
p184
aVForward
p185
aVForward
p186
aVWing
p187
aVForward
p188
aVFullback
p189
aVForward
p190
aVForward
p191
aVForward
p192
aVForward
p193
aVHalfback
p194
aVFullback
p195
aVForward
p196
aVWing
p197
aVForward
p198
aVForward
p199
aVForward
p200
aVHalfback
p201
aVWing
p202
aVCentre
p203
aVCentre
p204
aVForward
p205
aVForward
p206
aVForward
p207
aVWing
p208
aVCentre
p209
aVForward
p210
aVForward
p211
aVHalfback
p212
aVForward
p213
aVHalfback
p214
aVFullback
p215
aVForward
p216
aVCentre
p217
aVCentre
p218
aVForward
p219
aVCentre
p220
aVCentre
p221
aVFullback
p222
aVForward
p223
aVHalfback
p224
aVForward
p225
aVWing
p226
aVHalfback
p227
aVForward
p228
aVCentre
p229
aVForward
p230
aVForward
p231
aVForward
p232
aVWing
p233
aVForward
p234
aVForward
p235
aVFullback
p236
aVWing
p237
aVForward
p238
aVForward
p239
aVForward
p240
aVForward
p241
aVCentre
p242
aVForward
p243
aVFullback
p244
aVForward
p245
aVForward
p246
aVForward
p247
aVCentre
p248
aVHalfback
p249
aVForward
p250
aVFullback
p251
aVLock
p252
aVScrum-half
p253
aVCentre
p254
aVForward
p255
aVWing
p256
aVForward
p257
aVWing
p258
aVHalfback
p259
aVWing
p260
aVCentre
p261
aVForward
p262
aVForward
p263
aVForward
p264
aVForward
p265
aVCentre
p266
aVForward
p267
aVHalfback
p268
aVForward
p269
aVForward
p270
aVWing
p271
aVWing
p272
aVWing
p273
aVForward
p274
aVForward
p275
aVFullback
p276
aVHalfback
p277
aVForward
p278
aVWing
p279
aVFlanker
p280
aVFullback
p281
aVWing
p282
aVCentre
p283
aVCentre
p284
aVWing
p285
aVCentre
p286
aVForward
p287
aVForward
p288
aVForward
p289
aVForward
p290
aVCentre
p291
aVForward
p292
aVFlanker
p293
aVHooker
p294
aVHalfback
p295
aVForward
p296
aVWing
p297
aVForward
p298
aVWing
p299
aVFly-half
p300
aVForward
p301
aVScrum-half
p302
aVCentre
p303
aVHalfback
p304
aVProp
p305
aVWing
p306
aVFly-half
p307
aVCentre
p308
aVForward
p309
aVForward
p310
aVForward
p311
aVCentre
p312
aVWing
p313
aVForward
p314
aVScrum-half
p315
aVWing
p316
aVForward
p317
aVWing
p318
aVScrum-half
p319
aVWing
p320
aVProp
p321
aVScrum-half
p322
aVForward
p323
aVFullback
p324
aVFlanker
p325
aVCentre
p326
aVWing
p327
aVWing
p328
aVLock
p329
aVFullback
p330
aVFullback
p331
aVProp
p332
aVHooker
p333
aVFly-half
p334
aVLock
p335
aVCentre
p336
aVWing
p337
aVFullback
p338
aVFly-half
p339
aVForward
p340
aVLock
p341
aVScrum-half
p342
aVLock
p343
aVForward
p344
aVWing
p345
aVFly-half
p346
aVCentre
p347
aVNo. 8
p348
aVProp
p349
aVCentre
p350
aVForward
p351
aVLock
p352
aVWing
p353
aVCentre
p354
aVFly-half
p355
aVFlanker
p356
aVCentre
p357
aVWing
p358
aVFullback
p359
aVProp
p360
aVFly-half
p361
aVLock
p362
aVCentre
p363
aVWing
p364
aVForward
p365
aVLock
p366
aVProp
p367
aVCentre
p368
aVWing
p369
aVProp
p370
aVFlanker
p371
aVWing
p372
aVProp
p373
aVCentre
p374
aVHooker
p375
aVProp
p376
aVFlanker
p377
aVFullback
p378
aVFlanker
p379
aVWing
p380
aVForward
p381
aVScrum-half
p382
aVWing
p383
aVScrum-half
p384
aVLock
p385
aVWing
p386
aVProp
p387
aVFullback
p388
aVCentre
p389
aVWing
p390
aVCentre
p391
aVHooker
p392
aVFly-half
p393
aVLock
p394
aVNo. 8
p395
aVWing
p396
aVProp
p397
aVFlanker
p398
aVCentre
p399
aVHooker
p400
aVNo. 8
p401
aVCentre
p402
aVFullback
p403
aVFlanker
p404
aVWing
p405
aVCentre
p406
aVProp
p407
aVScrum-half
p408
aVProp
p409
aVFullback
p410
aVWing
p411
aVFullback
p412
aVProp
p413
aVCentre
p414
aVFly-half
p415
aVLock
p416
aVWing
p417
aVFlanker
p418
aVNo. 8
p419
aVProp
p420
aVWing
p421
aVHooker
p422
aVFly-half
p423
aVCentre
p424
aVNo. 8
p425
aVWing
p426
aVForward
p427
aVWing
p428
aVHooker
p429
aVLock
p430
aVScrum-half
p431
aVFlanker
p432
aVLock
p433
aVProp
p434
aVHooker
p435
aVProp
p436
aVCentre
p437
aVWing
p438
aVFlanker
p439
aVWing
p440
aVProp
p441
aVWing
p442
aVScrum-half
p443
aVProp
p444
aVFly-half
p445
aVCentre
p446
aVHooker
p447
aVFlanker
p448
aVProp
p449
aVWing
p450
aVCentre
p451
aVCentre
p452
aVFly-half
p453
aVLock
p454
aVHooker
p455
aVProp
p456
a.