(lp1
(lp2
S'Opai Asher'
p3
aS'1903'
p4
aS'Wing'
p5
aS'Tauranga'
p6
aS'1'
aS'1'
aS'1'
aS'3'
aa(lp7
S'Reuben Cooke'
p8
aS'1903'
p9
aS'Lock'
p10
aS'?'
aS'1'
aS'1'
aS'0'
aS'0'
aa(lp11
S'Jimmy Duncan'
p12
aS'1903'
p13
aS'Fly-half'
p14
aS'Dunedin'
p15
aS'1'
aS'1'
aS'0'
aS'0'
aa(lp16
S'Bernard Fanning'
p17
aS'1903'
p18
aS'Lock'
p19
aS'Christchurch'
p20
aS'2'
aS'2'
aS'0'
aS'0'
aa(lp21
S'David Gallaher'
p22
aS'1903'
p23
aS'Wing-forward'
p24
aS'Ramelton'
p25
aS'6'
aS'5'
aS'0'
aS'0'
aa(lp26
S'Mickey Kiernan'
p27
aS'1903'
p28
aS'Scrum-half'
p29
aS'Wanganui'
p30
aS'1'
aS'1'
aS'0'
aS'0'
aa(lp31
S'Paddy Long'
p32
aS'1903'
p33
aS'Lock'
p34
aS'Auckland'
p35
aS'1'
aS'1'
aS'0'
aS'0'
aa(lp36
S'Duncan McGregor'
p37
aS'1903'
p38
aS'Wing'
p39
aS'Kaiapoi'
p40
aS'4'
aS'3'
aS'6'
aS'18'
p41
aa(lp42
S'Dick McGregor'
p43
aS'1903'
p44
aS'Fullback'
p45
aS'Thames'
p46
aS'2'
aS'2'
aS'1'
aS'3'
aa(lp47
S'Archibald McMinn'
p48
aS'1903'
p49
aS'Flanker'
p50
aS'Marton'
p51
aS'2'
aS'2'
aS'2'
aS'6'
aa(lp52
S'George Nicholson'
p53
aS'1903'
p54
aS'Lock'
p55
aS'Auckland'
p56
aS'4'
aS'3'
aS'0'
aS'0'
aa(lp57
S'Bubs Tyler'
p58
aS'1903'
p59
aS'Prop'
p60
aS'Auckland'
p61
aS'7'
aS'6'
aS'1'
aS'5'
aa(lp62
S'Daniel Udy'
p63
aS'1903'
p64
aS'Prop'
p65
aS'Greytown'
p66
aS'1'
aS'1'
aS'0'
aS'0'
aa(lp67
S'Carbine Wallace'
p68
aS'1903'
p69
aS'Wing'
p70
aS'Wellington'
p71
aS'11'
p72
aS'8'
aS'5'
aS'53'
p73
aa(lp74
S'Maurice Wood'
p75
aS'1903'
p76
aS'Five-eighth'
p77
aS'Waipawa'
p78
aS'2'
aS'2'
aS'0'
aS'0'
aa(lp79
S'Angry Cross'
p80
aS'1904'
p81
aS'Lock'
p82
aS'Dunedin'
p83
aS'2'
aS'2'
aS'1'
aS'3'
aa(lp84
S'Billy Glenn'
p85
aS'1904'
p86
aS'Flanker'
p87
aS'Greymouth'
p88
aS'2'
aS'2'
aS'0'
aS'0'
aa(lp89
S'Eric Harper'
p90
aS'1904'
p91
aS'Centre'
p92
aS'Christchurch'
p93
aS'2'
aS'2'
aS'2'
aS'6'
aa(lp94
S'Peter Harvey'
p95
aS'1904'
p96
aS'Scrum-half'
p97
aS'S Rakaia'
p98
aS'1'
aS'1'
aS'0'
aS'0'
aa(lp99
S'Paddy McMinn'
p100
aS'1904'
p101
aS'Prop'
p102
aS'Turkina'
p103
aS'1'
aS'1'
aS'0'
aS'0'
aa(lp104
S'Bronco Seeling'
p105
aS'1904'
p106
aS'Flanker'
p107
aS'Wanganui'
p108
aS'11'
p109
aS'9'
aS'2'
aS'6'
aa(lp110
S'Billy Stead'
p111
aS'1904'
p112
aS'Fly-half'
p113
aS'Invercargill'
p114
aS'7'
aS'7'
aS'0'
aS'0'
aa(lp115
S'Robert Bennet'
p116
aS'1905'
p117
aS'Centre'
p118
aS'Caversham'
p119
aS'1'
aS'1'
aS'0'
aS'0'
aa(lp120
S'Jerry Burgess'
p121
aS'1905'
p122
aS'Scrum-half'
p123
aS'Invercargill'
p124
aS'1'
aS'1'
aS'0'
aS'0'
aa(lp125
S'Ernie Dodd'
p126
aS'1905'
p127
aS'Prop'
p128
aS'Wellington'
p129
aS'1'
aS'1'
aS'0'
aS'0'
aa(lp130
S'Bolla Francis'
p131
aS'1905'
p132
aS'Lock'
p133
aS'Wanganui'
p134
aS'10'
p135
aS'7'
aS'3'
aS'16'
p136
aa(lp137
S'Colin Gilray'
p138
aS'1905'
p139
aS'Wing'
p140
aS'Broughty Ferry'
p141
aS'5'
aS'3'
aS'1'
aS'3'
aa(lp142
S'Donald Macpherson'
p143
aS'1905'
p144
aS'Wing'
p145
aS'Waimate'
p146
aS'3'
aS'2'
aS'1'
aS'3'
aa(lp147
S'Charles Purdue'
p148
aS'1905'
p149
aS'Flanker'
p150
aS'Mataura'
p151
aS'1'
aS'1'
aS'0'
aS'0'
aa(lp152
S'Pat Purdue'
p153
aS'1905'
p154
aS'Lock'
p155
aS'Dipton'
p156
aS'1'
aS'1'
aS'0'
aS'0'
aa(lp157
S'William Smith'
p158
aS'1905'
p159
aS'Fly-half'
p160
aS'Wellington'
p161
aS'1'
aS'1'
aS'0'
aS'0'
aa(lp162
S'John Spencer'
p163
aS'1905'
p164
aS'Lock'
p165
aS'Wellington'
p166
aS'2'
aS'2'
aS'0'
aS'0'
aa(lp167
S'Hubert Turtill'
p168
aS'1905'
p169
aS'Fullback'
p170
aS'London'
p171
aS'1'
aS'1'
aS'0'
aS'0'
aa(lp172
S'Eric Watkins'
p173
aS'1905'
p174
aS'Prop'
p175
aS'Akaroa'
p176
aS'1'
aS'1'
aS'0'
aS'0'
aa(lp177
S'Edgar Wrigley'
p178
aS'1905'
p179
aS'Five-eighth'
p180
aS'Masterton'
p181
aS'1'
aS'1'
aS'1'
aS'3'
aa(lp182
S'Steve Casey'
p183
aS'1905'
p184
aS'Prop'
p185
aS'Dunedin'
p186
aS'8'
aS'6'
aS'0'
aS'0'
aa(lp187
S'Bill Cunningham'
p188
aS'1905'
p189
aS'Lock'
p190
aS'Rangiaohia'
p191
aS'9'
aS'7'
aS'1'
aS'3'
aa(lp192
S'Bob Deans'
p193
aS'1905'
p194
aS'Centre'
p195
aS'Christchurch'
p196
aS'5'
aS'4'
aS'3'
aS'9'
aa(lp197
S'George Gillett'
p198
aS'1905'
p199
aS'Wing-forward'
p200
aS'Leeston'
p201
aS'8'
aS'6'
aS'1'
aS'7'
aa(lp202
S'Francis Glasgow'
p203
aS'1905'
p204
aS'Lock'
p205
aS'S Dunedin'
p206
aS'6'
aS'5'
aS'3'
aS'9'
aa(lp207
S'Jimmy Hunter'
p208
aS'1905'
p209
aS'Five-eighth'
p210
aS'Hawera'
p211
aS'11'
p212
aS'8'
aS'4'
aS'12'
p213
aa(lp214
S'Alexander McDonald'
p215
aS'1905'
p216
aS'Flanker'
p217
aS'Dunedin'
p218
aS'8'
aS'7'
aS'3'
aS'11'
p219
aa(lp220
S"James O'Sullivan"
p221
aS'1905'
p222
aS'Lock'
p223
aS'Okaiawa'
p224
aS'5'
aS'3'
aS'0'
aS'0'
aa(lp225
S'Frederick Roberts'
p226
aS'1905'
p227
aS'Scrum-half'
p228
aS'Wellington'
p229
aS'12'
p230
aS'9'
aS'2'
aS'11'
p231
aa(lp232
S'George Smith'
p233
aS'1905'
p234
aS'Wing'
p235
aS'Auckland'
p236
aS'2'
aS'2'
aS'2'
aS'6'
aa(lp237
S'Simon Mynott'
p238
aS'1905'
p239
aS'Fly-half'
p240
aS'Auckland'
p241
aS'8'
aS'6'
aS'0'
aS'0'
aa(lp242
S'Frederick Newton'
p243
aS'1905'
p244
aS'Lock'
p245
aS'Christchurch'
p246
aS'3'
aS'2'
aS'1'
aS'3'
aa(lp247
S'Bunny Abbott'
p248
aS'1906'
p249
aS'Wing'
p250
aS'Camerontown'
p251
aS'1'
aS'1'
aS'2'
aS'8'
aa(lp252
S'Ernest Booth'
p253
aS'1906'
p254
aS'Fullback'
p255
aS'Teschemakers'
p256
aS'3'
aS'2'
aS'0'
aS'0'
aa(lp257
S'Bill Mackrell'
p258
aS'1906'
p259
aS'Prop'
p260
aS'Milton'
p261
aS'1'
aS'1'
aS'0'
aS'0'
aa(lp262
S'Ginger Colman'
p263
aS'1907'
p264
aS'Fullback'
p265
aS'Hawera'
p266
aS'4'
aS'4'
aS'0'
aS'2'
aa(lp267
S'Frank Fryer'
p268
aS'1907'
p269
aS'Wing'
p270
aS'Riccarton'
p271
aS'4'
aS'2'
aS'0'
aS'0'
aa(lp272
S'Ned Hughes'
p273
aS'1907'
p274
aS'Prop'
p275
aS'Invercargill'
p276
aS'6'
aS'4'
aS'1'
aS'3'
aa(lp277
S'Massa Johnston'
p278
aS'1907'
p279
aS'Lock'
p280
aS'Dunedin'
p281
aS'3'
aS'2'
aS'0'
aS'0'
aa(lp282
S'Frank Mitchinson'
p283
aS'1907'
p284
aS'Centre'
p285
aS'Lawrence'
p286
aS'11'
p287
aS'8'
aS'10'
p288
aS'32'
p289
aa(lp290
S'Don Cameron'
p291
aS'1908'
p292
aS'Wing'
p293
aS'Waitara'
p294
aS'3'
aS'2'
aS'1'
aS'3'
aa(lp295
S'Mona Thomson'
p296
aS'1908'
p297
aS'Wing'
p298
aS'Napier'
p299
aS'1'
aS'1'
aS'1'
aS'3'
aa(lp300
S'Ranji Wilson'
p301
aS'1908'
p302
aS'Flanker'
p303
aS'Christchurch'
p304
aS'10'
p305
aS'7'
aS'2'
aS'6'
aa(lp306
S'Paddy Burns'
p307
aS'1908'
p308
aS'Centre'
p309
aS'Lyttelton'
p310
aS'5'
aS'2'
aS'2'
aS'6'
aa(lp311
S'Doddy Gray'
p312
aS'1908'
p313
aS'Fly-half'
p314
aS'?'
aS'3'
aS'2'
aS'3'
aS'9'
aa(lp315
S'Donald Hamilton'
p316
aS'1908'
p317
aS'Wing-forward'
p318
aS'Invercargill'
p319
aS'1'
aS'0'
aS'0'
aS'0'
aa(lp320
S'Peter Murray'
p321
aS'1908'
p322
aS'Prop'
p323
aS'Southern Grove'
p324
aS'1'
aS'0'
aS'0'
aS'0'
aa(lp325
S'Sandy Paterson'
p326
aS'1908'
p327
aS'Lock'
p328
aS'Dunedin'
p329
aS'5'
aS'3'
aS'1'
aS'3'
aa(lp330
S'William Reedy'
p331
aS'1908'
p332
aS'Prop'
p333
aS'Buller'
p334
aS'2'
aS'1'
aS'0'
aS'0'
aa(lp335
S'Circus Hayward'
p336
aS'1908'
p337
aS'Flanker'
p338
aS'Blenheim'
p339
aS'1'
aS'1'
aS'1'
aS'3'
aa(lp340
S'Henry Avery'
p341
aS'1910'
p342
aS'Wing-forward'
p343
aS'Wellington'
p344
aS'3'
aS'2'
aS'0'
aS'0'
aa(lp345
S'William Fuller'
p346
aS'1910'
p347
aS'Five-eighth'
p348
aS'Christchurch'
p349
aS'2'
aS'1'
aS'1'
aS'3'
aa(lp350
S'Gerald McKellar'
p351
aS'1910'
p352
aS'Flanker'
p353
aS'Cromwell'
p354
aS'3'
aS'2'
aS'0'
aS'0'
aa(lp355
S'James Maguire'
p356
aS'1910'
p357
aS'Prop'
p358
aS'Auckland'
p359
aS'3'
aS'2'
aS'0'
aS'0'
aa(lp360
S"Joe O'Leary"
p361
aS'1910'
p362
aS'Fullback'
p363
aS'Masterton'
p364
aS'4'
aS'3'
aS'0'
aS'16'
p365
aa(lp366
S'Henry Paton'
p367
aS'1910'
p368
aS'Lock'
p369
aS'Dunedin'
p370
aS'2'
aS'2'
aS'1'
aS'3'
aa(lp371
S'Alexander Ridland'
p372
aS'1910'
p373
aS'Prop'
p374
aS'Invercargill'
p375
aS'3'
aS'2'
aS'0'
aS'0'
aa(lp376
S'Jack Stohr'
p377
aS'1910'
p378
aS'Wing'
p379
aS'New Plymouth'
p380
aS'3'
aS'2'
aS'2'
aS'6'
aa(lp381
S'Dave Evans'
p382
aS'1910'
p383
aS'Lock'
p384
aS'Napier'
p385
aS'1'
aS'0'
aS'0'
aS'0'
aa(lp386
S'Billy Mitchell'
p387
aS'1910'
p388
aS'Wing'
p389
aS'VIC'
p390
aS'2'
aS'1'
aS'1'
aS'3'
aa(lp391
S'James Ryan'
p392
aS'1910'
p393
aS'Five-eighth'
p394
aS'Masterton'
p395
aS'4'
aS'3'
aS'0'
aS'0'
aa(lp396
S'Harry Atkinson'
p397
aS'1913'
p398
aS'Lock'
p399
aS'Dunedin'
p400
aS'1'
aS'1'
aS'0'
aS'0'
aa(lp401
S'Jock Cuthill'
p402
aS'1913'
p403
aS'Fullback'
p404
aS'Inverleithen'
p405
aS'2'
aS'2'
aS'0'
aS'0'
aa(lp406
S'Norkey Dewar'
p407
aS'1913'
p408
aS'Flanker'
p409
aS'Wellington'
p410
aS'2'
aS'2'
aS'0'
aS'0'
aa(lp411
S'Doolan Downing'
p412
aS'1913'
p413
aS'Lock'
p414
aS'Napier'
p415
aS'5'
aS'5'
aS'0'
aS'0'
aa(lp416
S'Tiger Lynch'
p417
aS'1913'
p418
aS'Wing'
p419
aS'Milton'
p420
aS'4'
aS'4'
aS'4'
aS'12'
p421
aa(lp422
S'Dougie McGregor'
p423
aS'1913'
p424
aS'Wing'
p425
aS'Thames'
p426
aS'2'
aS'2'
aS'1'
aS'3'
aa(lp427
S'Jock McKenzie'
p428
aS'1913'
p429
aS'Five-eighth'
p430
aS'Lyttelton'
p431
aS'4'
aS'4'
aS'5'
aS'15'
p432
aa(lp433
S'Toby Murray'
p434
aS'1913'
p435
aS'Wing-forward'
p436
aS'Christchurch'
p437
aS'4'
aS'4'
aS'3'
aS'9'
aa(lp438
S'Dick Roberts'
p439
aS'1913'
p440
aS'Centre'
p441
aS'Manaia'
p442
aS'5'
aS'5'
aS'7'
aS'29'
p443
aa(lp444
S'George Sellars'
p445
aS'1913'
p446
aS'Prop'
p447
aS'Auckland'
p448
aS'2'
aS'2'
aS'0'
aS'0'
aa(lp449
S'Harry Taylor'
p450
aS'1913'
p451
aS'Wing'
p452
aS'Christchurch'
p453
aS'5'
aS'5'
aS'4'
aS'12'
p454
aa(lp455
S'Peter Williams'
p456
aS'1913'
p457
aS'Prop'
p458
aS'Dunedin'
p459
aS'1'
aS'1'
aS'0'
aS'0'
aa(lp460
S'Jim Wylie'
p461
aS'1913'
p462
aS'Lock'
p463
aS'Galatea'
p464
aS'2'
aS'2'
aS'1'
aS'3'
aa(lp465
S'James Baird'
p466
aS'1913'
p467
aS'Centre'
p468
aS'Dunedin'
p469
aS'1'
aS'1'
aS'0'
aS'0'
aa(lp470
S'Buster Barrett'
p471
aS'1913'
p472
aS'Flanker'
p473
aS'Auckland'
p474
aS'2'
aS'1'
aS'0'
aS'0'
aa(lp475
S'Charles Brown'
p476
aS'1913'
p477
aS'Scrum-half'
p478
aS'New Plymouth'
p479
aS'2'
aS'1'
aS'1'
aS'3'
aa(lp480
S'William Cummings'
p481
aS'1913'
p482
aS'Lock'
p483
aS'Timaru'
p484
aS'2'
aS'1'
aS'1'
aS'3'
aa(lp485
S'William Francis'
p486
aS'1913'
p487
aS'Prop'
p488
aS'New Plymouth'
p489
aS'5'
aS'4'
aS'2'
aS'6'
aa(lp490
S'William Geddes'
p491
aS'1913'
p492
aS'Fly-half'
p493
aS'Auckland'
p494
aS'1'
aS'1'
aS'0'
aS'0'
aa(lp495
S'Charles Gillespie'
p496
aS'1913'
p497
aS'Lock'
p498
aS'Masterton'
p499
aS'1'
aS'1'
aS'0'
aS'0'
aa(lp500
S'Edward Hasell'
p501
aS'1913'
p502
aS'Prop'
p503
aS'Christchurch'
p504
aS'2'
aS'1'
aS'1'
aS'3'
aa(lp505
S'John Macky'
p506
aS'1913'
p507
aS'Wing'
p508
aS'Auckland'
p509
aS'1'
aS'1'
aS'0'
aS'0'
aa(lp510
S'James McNeece'
p511
aS'1913'
p512
aS'Lock'
p513
aS'Invercargill'
p514
aS'5'
aS'4'
aS'1'
aS'3'
aa(lp515
S'Augustine Spillane'
p516
aS'1913'
p517
aS'Five-eighth'
p518
aS'Geraldine'
p519
aS'2'
aS'1'
aS'0'
aS'0'
aa(lp520
S'James Stewart'
p521
aS'1913'
p522
aS'Wing'
p523
aS'Kaiapoi'
p524
aS'2'
aS'1'
aS'0'
aS'0'
aa(lp525
S'Reginald Taylor'
p526
aS'1913'
p527
aS'Wing-forward'
p528
aS'Taranak'
p529
aS'2'
aS'1'
aS'1'
aS'3'
aa(lp530
S'Eric Cockroft'
p531
aS'1913'
p532
aS'Fullback'
p533
aS'Clinton'
p534
aS'3'
aS'2'
aS'0'
aS'0'
aa(lp535
S'Alfred Fanning'
p536
aS'1913'
p537
aS'Lock'
p538
aS'Linwood'
p539
aS'1'
aS'0'
aS'1'
aS'3'
aa(lp540
S'James Tilyard'
p541
aS'1913'
p542
aS'Fly-half'
p543
aS'Waratah'
p544
aS'1'
aS'0'
aS'0'
aS'0'
aa(lp545
S'Michael Cain'
p546
aS'1913'
p547
aS'Prop'
p548
aS'Waitara'
p549
aS'4'
aS'4'
aS'0'
aS'0'
aa(lp550
S'James Graham'
p551
aS'1913'
p552
aS'Lock'
p553
aS'Dunedin'
p554
aS'3'
aS'3'
aS'0'
aS'10'
p555
aa(lp556
S'Robert Black'
p557
aS'1914'
p558
aS'Fly-half'
p559
aS'Arrowtown'
p560
aS'1'
aS'1'
aS'0'
aS'0'
aa(lp561
S'John Bruce'
p562
aS'1914'
p563
aS'Flanker'
p564
aS'Wellington'
p565
aS'2'
aS'2'
aS'0'
aS'0'
aa(lp566
S'Sal Irvine'
p567
aS'1914'
p568
aS'Lock'
p569
aS'Dunedin'
p570
aS'3'
aS'3'
aS'0'
aS'0'
aa(lp571
S"John O'Brien"
p572
aS'1914'
p573
aS'Fullback'
p574
aS'Wellington'
p575
aS'1'
aS'1'
aS'0'
aS'0'
aa(lp576
S'Teddy Roberts'
p577
aS'1914'
p578
aS'Scrum-half'
p579
aS'Wellington'
p580
aS'5'
aS'3'
aS'0'
aS'4'
aa(lp581
S'George Aitken'
p582
aS'1921'
p583
aS'Centre'
p584
aS'Westport'
p585
aS'10'
p586
aS'8'
aS'0'
aS'0'
aa(lp587
S'Cecil Badeley'
p588
aS'1921'
p589
aS'Fly-half'
p590
aS'Auckland'
p591
aS'2'
aS'1'
aS'0'
aS'0'
aa(lp592
S'Moke Belliss'
p593
aS'1921'
p594
aS'Flanker'
p595
aS'Palmerston North'
p596
aS'3'
aS'1'
aS'1'
aS'3'
aa(lp597
S'Jim Donald'
p598
aS'1921'
p599
aS'Wing-forward'
p600
aS'Featherston'
p601
aS'2'
aS'1'
aS'0'
aS'0'
aa(lp602
S'Bill Duncan'
p603
aS'1921'
p604
aS'Prop'
p605
aS'Port Chalmers'
p606
aS'3'
aS'1'
aS'0'
aS'0'
aa(lp607
S'Richard Fogarty'
p608
aS'1921'
p609
aS'Prop'
p610
aS'Matakanui'
p611
aS'2'
aS'1'
aS'0'
aS'0'
aa(lp612
S'Nipper Kingstone'
p613
aS'1921'
p614
aS'Fullback'
p615
aS'Auckland'
p616
aS'3'
aS'1'
aS'0'
aS'0'
aa(lp617
S'Jim Moffitt'
p618
aS'1921'
p619
aS'Lock'
p620
aS'Waikaia'
p621
aS'3'
aS'1'
aS'0'
aS'0'
aa(lp622
S'Ginger Nicholls'
p623
aS'1921'
p624
aS'Scrum-half'
p625
aS'Wellington'
p626
aS'1'
aS'1'
aS'0'
aS'0'
aa(lp627
S'Mark Nicholls'
p628
aS'1921'
p629
aS'Five-eighth'
p630
aS'Greytown'
p631
aS'10'
p632
aS'8'
aS'0'
aS'48'
p633
aa(lp634
S'Jock Richardson'
p635
aS'1921'
p636
aS'Lock'
p637
aS'Dunedin'
p638
aS'7'
aS'5'
aS'1'
aS'3'
aa(lp639
S'John Steel'
p640
aS'1921'
p641
aS'Wing'
p642
aS'Dillmanstown'
p643
aS'6'
aS'4'
aS'3'
aS'9'
aa(lp644
S'Percival Storey'
p645
aS'1921'
p646
aS'Wing'
p647
aS'Temuka'
p648
aS'2'
aS'1'
aS'1'
aS'3'
aa(lp649
S'Son White'
p650
aS'1921'
p651
aS'Flanker'
p652
aS'Invercargill'
p653
aS'4'
aS'4'
aS'1'
aS'3'
aa(lp654
S'Andrew McLean'
p655
aS'1921'
p656
aS'Lock'
p657
aS'Auckland'
p658
aS'2'
aS'0'
aS'1'
aS'3'
aa(lp659
S'Alfred West'
p660
aS'1921'
p661
aS'Flanker'
p662
aS'Inglewood'
p663
aS'2'
aS'0'
aS'0'
aS'0'
aa(lp664
S'Billy Fea'
p665
aS'1921'
p666
aS'Fly-half'
p667
aS'Dunedin'
p668
aS'1'
aS'0'
aS'0'
aS'0'
aa(lp669
S'Charles Fletcher'
p670
aS'1921'
p671
aS'Flanker'
p672
aS'Rewiti'
p673
aS'1'
aS'0'
aS'0'
aS'0'
aa(lp674
S'Karl Ifwersen'
p675
aS'1921'
p676
aS'Five-eighth'
p677
aS'Auckland'
p678
aS'1'
aS'0'
aS'0'
aS'0'
aa(lp679
S'Stanley Siddells'
p680
aS'1921'
p681
aS'Wing'
p682
aS'Wellington'
p683
aS'1'
aS'0'
aS'0'
aS'0'
aa(lp684
S'Maurice Brownlie'
p685
aS'1924'
p686
aS'Lock'
p687
aS'Wanganui'
p688
aS'8'
aS'6'
aS'2'
aS'6'
aa(lp689
S'Bert Cooke'
p690
aS'1924'
p691
aS'Five-eighth'
p692
aS'Auckland'
p693
aS'8'
aS'7'
aS'4'
aS'12'
p694
aa(lp695
S'Les Cupples'
p696
aS'1924'
p697
aS'Flanker'
p698
aS'Otautau'
p699
aS'2'
aS'2'
aS'0'
aS'0'
aa(lp700
S'Bill Dalley'
p701
aS'1924'
p702
aS'Scrum-half'
p703
aS'Lyttelton'
p704
aS'5'
aS'3'
aS'0'
aS'0'
aa(lp705
S'Quentin Donald'
p706
aS'1924'
p707
aS'Prop'
p708
aS'Featherston'
p709
aS'4'
aS'4'
aS'0'
aS'0'
aa(lp710
S'Augustine Hart'
p711
aS'1924'
p712
aS'Wing'
p713
aS'Auckland'
p714
aS'1'
aS'1'
aS'0'
aS'0'
aa(lp715
S'Bull Irvine'
p716
aS'1924'
p717
aS'Prop'
p718
aS'Wairapapa'
p719
aS'5'
aS'4'
aS'3'
aS'9'
aa(lp720
S'Frederick Lucas'
p721
aS'1924'
p722
aS'Centre'
p723
aS'Auckland'
p724
aS'7'
aS'6'
aS'1'
aS'3'
aa(lp725
S'Read Masters'
p726
aS'1924'
p727
aS'Lock'
p728
aS'Picton'
p729
aS'4'
aS'4'
aS'0'
aS'0'
aa(lp730
S'George Nepia'
p731
aS'1924'
p732
aS'Fullback'
p733
aS'Wairoa'
p734
aS'9'
aS'7'
aS'0'
aS'5'
aa(lp735
S'James Parker'
p736
aS'1924'
p737
aS'Wing-forward'
p738
aS'Lyttelton'
p739
aS'3'
aS'3'
aS'1'
aS'3'
aa(lp740
S'Snowy Svenson'
p741
aS'1924'
p742
aS'Wing'
p743
aS'Toowoomba'
p744
aS'4'
aS'4'
aS'4'
aS'12'
p745
aa(lp746
S'Cyril Brownlie'
p747
aS'1924'
p748
aS'Lock'
p749
aS'Wanganui'
p750
aS'3'
aS'3'
aS'0'
aS'0'
aa(lp751
S'Neil McGregor'
p752
aS'1924'
p753
aS'Fly-half'
p754
aS'Lowburn'
p755
aS'2'
aS'2'
aS'0'
aS'0'
aa(lp756
S'Jimmy Mill'
p757
aS'1924'
p758
aS'Scrum-half'
p759
aS'Tokomaru Bay'
p760
aS'4'
aS'3'
aS'0'
aS'0'
aa(lp761
S'Cliff Porter'
p762
aS'1925'
p763
aS'Wing-forward'
p764
aS'Edinburgh'
p765
aS'7'
aS'4'
aS'4'
aS'12'
p766
aa(lp767
S'Geoff Alley'
p768
aS'1928'
p769
aS'Lock'
p770
aS'Amberley'
p771
aS'3'
aS'1'
aS'0'
aS'0'
aa(lp772
S'Syd Carleton'
p773
aS'1928'
p774
aS'Centre'
p775
aS'Christchurch'
p776
aS'6'
aS'1'
aS'0'
aS'0'
aa(lp777
S'Bunny Finlayson'
p778
aS'1928'
p779
aS'Lock'
p780
aS'Maungaturoto'
p781
aS'6'
aS'3'
aS'0'
aS'0'
aa(lp782
S'Bert Grenside'
p783
aS'1928'
p784
aS'Wing'
p785
aS'Hastings'
p786
aS'6'
aS'2'
aS'3'
aS'9'
aa(lp787
S'Swin Hadley'
p788
aS'1928'
p789
aS'Prop'
p790
aS'Whangaroa'
p791
aS'4'
aS'2'
aS'0'
aS'0'
aa(lp792
S'William Hazlett'
p793
aS'1928'
p794
aS'Flanker'
p795
aS'Invercargill'
p796
aS'8'
aS'5'
aS'0'
aS'0'
aa(lp797
S'Lancelot Johnson'
p798
aS'1928'
p799
aS'Fly-half'
p800
aS'Lumsden'
p801
aS'4'
aS'2'
aS'0'
aS'0'
aa(lp802
S'David Lindsay'
p803
aS'1928'
p804
aS'Fullback'
p805
aS'Studholm'
p806
aS'3'
aS'1'
aS'0'
aS'3'
aa(lp807
S'Alan Robilliard'
p808
aS'1928'
p809
aS'Wing'
p810
aS'Ashburton'
p811
aS'4'
aS'2'
aS'0'
aS'0'
aa(lp812
S'George Scrimshaw'
p813
aS'1928'
p814
aS'Wing-forward'
p815
aS'Islington'
p816
aS'1'
aS'0'
aS'0'
aS'0'
aa(lp817
S'Ronald Stewart'
p818
aS'1928'
p819
aS'Wing-forward'
p820
aS'Waikaia'
p821
aS'5'
aS'3'
aS'1'
aS'3'
aa(lp822
S'William Strang'
p823
aS'1928'
p824
aS'Fly-half'
p825
aS'Invercargill'
p826
aS'5'
aS'4'
aS'1'
aS'13'
p827
aa(lp828
S'Tuna Swain'
p829
aS'1928'
p830
aS'Prop'
p831
aS'NSW'
p832
aS'4'
aS'2'
aS'1'
aS'3'
aa(lp833
S'Reuben McWilliams'
p834
aS'1928'
p835
aS'Flanker'
p836
aS'Paeroa'
p837
aS'10'
p838
aS'5'
aS'1'
aS'3'
aa(lp839
S'Herb Lilburne'
p840
aS'1928'
p841
aS'Fly-half'
p842
aS'Burnham'
p843
aS'10'
p844
aS'3'
aS'0'
aS'4'
aa(lp845
S'Ian Harvey'
p846
aS'1928'
p847
aS'Lock'
p848
aS'Masterton'
p849
aS'1'
aS'1'
aS'0'
aS'0'
aa(lp850
S'Beau Cottrell'
p851
aS'1929'
p852
aS'Prop'
p853
aS'Westport'
p854
aS'11'
p855
aS'6'
aS'0'
aS'0'
aa(lp856
S'John Geddes'
p857
aS'1929'
p858
aS'Wing'
p859
aS'Invercargill'
p860
aS'1'
aS'0'
aS'0'
aS'0'
aa(lp861
S'Bill Heke'
p862
aS'1929'
p863
aS'Lock'
p864
aS'King Country'
p865
aS'3'
aS'0'
aS'0'
aS'0'
aa(lp866
S'Lew Hook'
p867
aS'1929'
p868
aS'Centre'
p869
aS'Puni'
p870
aS'3'
aS'0'
aS'0'
aS'0'
aa(lp871
S'Charles Oliver'
p872
aS'1929'
p873
aS'Five-eighth'
p874
aS'Wanganui'
p875
aS'7'
aS'2'
aS'2'
aS'6'
aa(lp876
S'Keith Reid'
p877
aS'1929'
p878
aS'Prop'
p879
aS'Clareville'
p880
aS'2'
aS'0'
aS'0'
aS'0'
aa(lp881
S'Wattie Reside'
p882
aS'1929'
p883
aS'Lock'
p884
aS'Masterton'
p885
aS'1'
aS'0'
aS'0'
aS'0'
aa(lp886
S'Fritz Snow'
p887
aS'1929'
p888
aS'Flanker'
p889
aS'Nelson'
p890
aS'3'
aS'0'
aS'0'
aS'0'
aa(lp891
S'Charles Sonntag'
p892
aS'1929'
p893
aS'Lock'
p894
aS'Dunedin'
p895
aS'3'
aS'0'
aS'0'
aS'0'
aa(lp896
S'Jack Tuck'
p897
aS'1929'
p898
aS'Scrum-half'
p899
aS'Tikokino'
p900
aS'3'
aS'0'
aS'0'
aS'0'
aa(lp901
S'Alfred Waterman'
p902
aS'1929'
p903
aS'Wing'
p904
aS'Auckland'
p905
aS'2'
aS'0'
aS'0'
aS'0'
aa(lp906
S'Clinton Stringfellow'
p907
aS'1929'
p908
aS'Centre'
p909
aS'Chertsey'
p910
aS'2'
aS'0'
aS'1'
aS'3'
aa(lp911
S'Alfred Kivell'
p912
aS'1929'
p913
aS'Lock'
p914
aS'Thames'
p915
aS'2'
aS'0'
aS'0'
aS'0'
aa(lp916
S'Bertram Palmer'
p917
aS'1929'
p918
aS'Hooker'
p919
aS'Mosstown'
p920
aS'3'
aS'2'
aS'1'
aS'3'
aa(lp921
S'Rawi Cundy'
p922
aS'1929'
p923
aS'Wing-forward'
p924
aS'Featherston'
p925
aS'1'
aS'0'
aS'0'
aS'3'
aa(lp926
S'Tiny Leys'
p927
aS'1929'
p928
aS'Scrum-half'
p929
aS'Wellington'
p930
aS'1'
aS'0'
aS'0'
aS'0'
aa(lp931
S'Walter Batty'
p932
aS'1930'
p933
aS'Flanker'
p934
aS'1905'
p935
aS'4'
aS'3'
aS'1'
aS'3'
aa(lp936
S'George Hart'
p937
aS'1930'
p938
aS'Wing'
p939
aS'Christchurch'
p940
aS'11'
p941
aS'8'
aS'7'
aS'21'
p942
aa(lp943
S'Don Oliver'
p944
aS'1930'
p945
aS'Wing'
p946
aS'Dunedin'
p947
aS'2'
aS'1'
aS'1'
aS'3'
aa(lp948
S'Edward Steere'
p949
aS'1930'
p950
aS'Lock'
p951
aS'Raetihi'
p952
aS'6'
aS'4'
aS'0'
aS'0'
aa(lp953
S'Merv Corner'
p954
aS'1930'
p955
aS'Scrum-half'
p956
aS'Auckland'
p957
aS'6'
aS'4'
aS'0'
aS'0'
aa(lp958
S'John Hore'
p959
aS'1930'
p960
aS'Prop'
p961
aS'Dunedin'
p962
aS'10'
p963
aS'6'
aS'3'
aS'9'
aa(lp964
S'Hugh McLean'
p965
aS'1930'
p966
aS'Flanker'
p967
aS'Wanganui'
p968
aS'9'
aS'5'
aS'3'
aS'9'
aa(lp969
S'Kelly Ball'
p970
aS'1931'
p971
aS'Wing'
p972
aS'Foxton'
p973
aS'5'
aS'3'
aS'4'
aS'12'
p974
aa(lp975
S'Ron Bush'
p976
aS'1931'
p977
aS'Fullback'
p978
aS'Nelson'
p979
aS'1'
aS'1'
aS'0'
aS'14'
p980
aa(lp981
S'Ted Jessep'
p982
aS'1931'
p983
aS'Prop'
p984
aS'Leichhard'
p985
aS'4'
aS'2'
aS'0'
aS'0'
aa(lp986
S'Donald Max'
p987
aS'1931'
p988
aS'Lock'
p989
aS'Nelson'
p990
aS'3'
aS'1'
aS'1'
aS'3'
aa(lp991
S'Thomas Metcalfe'
p992
aS'1931'
p993
aS'No. 8'
p994
aS'Invercargill'
p995
aS'2'
aS'1'
aS'0'
aS'0'
aa(lp996
S'Rusty Page'
p997
aS'1931'
p998
aS'Fly-half'
p999
aS'Dunedin'
p1000
aS'6'
aS'3'
aS'1'
aS'3'
aa(lp1001
S'George Purdue'
p1002
aS'1931'
p1003
aS'Lock'
p1004
aS'Invercargill'
p1005
aS'4'
aS'3'
aS'1'
aS'3'
aa(lp1006
S'Frank Solomon'
p1007
aS'1931'
p1008
aS'No. 8'
p1009
aS'American Samoa'
p1010
aS'3'
aS'3'
aS'1'
aS'3'
aa(lp1011
S'George Bullock-Douglas'
p1012
aS'1932'
p1013
aS'Wing'
p1014
aS'Wanganui'
p1015
aS'5'
aS'2'
aS'3'
aS'9'
aa(lp1016
S'Pat Caughey'
p1017
aS'1932'
p1018
aS'Centre'
p1019
aS'Auckland'
p1020
aS'9'
aS'4'
aS'3'
aS'9'
aa(lp1021
S'Francis Kilby'
p1022
aS'1932'
p1023
aS'Scrum-half'
p1024
aS'Invercargill'
p1025
aS'4'
aS'2'
aS'1'
aS'3'
aa(lp1026
S'Jack Manchester'
p1027
aS'1932'
p1028
aS'Flanker'
p1029
aS'Waimate'
p1030
aS'9'
aS'4'
aS'1'
aS'3'
aa(lp1031
S'Bunk Pollock'
p1032
aS'1932'
p1033
aS'Five-eighth'
p1034
aS'Petone'
p1035
aS'5'
aS'4'
aS'0'
aS'29'
p1036
aa(lp1037
S'Joe Procter'
p1038
aS'1932'
p1039
aS'Wing'
p1040
aS'Dunedin'
p1041
aS'1'
aS'0'
aS'0'
aS'0'
aa(lp1042
S'Ray Clarke'
p1043
aS'1932'
p1044
aS'Lock'
p1045
aS'Wairea'
p1046
aS'2'
aS'2'
aS'0'
aS'0'
aa(lp1047
S'Arthur Collins'
p1048
aS'1932'
p1049
aS'Fullback'
p1050
aS'Stratford'
p1051
aS'3'
aS'2'
aS'0'
aS'9'
aa(lp1052
S'Gordon Innes'
p1053
aS'1932'
p1054
aS'Five-eighth'
p1055
aS'Dunedin'
p1056
aS'1'
aS'1'
aS'0'
aS'0'
aa(lp1057
S'Bill Hadley'
p1058
aS'1934'
p1059
aS'Hooker'
p1060
aS'Auckland'
p1061
aS'8'
aS'4'
aS'2'
aS'6'
aa(lp1062
S'Bubs Knight'
p1063
aS'1934'
p1064
aS'Lock'
p1065
aS'Auckland'
p1066
aS'1'
aS'0'
aS'1'
aS'3'
aa(lp1067
S'Arthur Lambourn'
p1068
aS'1934'
p1069
aS'Prop'
p1070
aS'Qld'
p1071
aS'10'
p1072
aS'4'
aS'0'
aS'0'
aa(lp1073
S'Roderick McKenzie'
p1074
aS'1934'
p1075
aS'Flanker'
p1076
aS'Rakaia'
p1077
aS'9'
aS'6'
aS'0'
aS'0'
aa(lp1078
S'Ned Barry'
p1079
aS'1934'
p1080
aS'Flanker'
p1081
aS'Temuka'
p1082
aS'1'
aS'0'
aS'0'
aS'0'
aa(lp1083
S'Jack Griffiths'
p1084
aS'1934'
p1085
aS'Fly-half'
p1086
aS'Wellington'
p1087
aS'7'
aS'5'
aS'0'
aS'0'
aa(lp1088
S'Edward Holder'
p1089
aS'1934'
p1090
aS'Wing'
p1091
aS'Seddonville'
p1092
aS'1'
aS'0'
aS'0'
aS'0'
aa(lp1093
S'Ron King'
p1094
aS'1934'
p1095
aS'Lock'
p1096
aS'Waiuta'
p1097
aS'13'
p1098
aS'8'
aS'0'
aS'0'
aa(lp1099
S'Hawea Mataira'
p1100
aS'1934'
p1101
aS'No. 8'
p1102
aS'Nuhaka'
p1103
aS'1'
aS'0'
aS'0'
aS'0'
aa(lp1104
S'Mike Gilbert'
p1105
aS'1935'
p1106
aS'Fullback'
p1107
aS'Rothesay'
p1108
aS'4'
aS'2'
aS'0'
aS'20'
p1109
aa(lp1110
S'Tonk Mahoney'
p1111
aS'1935'
p1112
aS'No. 8'
p1113
aS'Woodville'
p1114
aS'4'
aS'2'
aS'0'
aS'0'
aa(lp1115
S'Brushy Mitchell'
p1116
aS'1935'
p1117
aS'Centre'
p1118
aS'Invercargill'
p1119
aS'8'
aS'5'
aS'4'
aS'12'
p1120
aa(lp1121
S'Tori Reid'
p1122
aS'1935'
p1123
aS'Lock'
p1124
aS'Tokomaru Bay'
p1125
aS'9'
aS'5'
aS'2'
aS'6'
aa(lp1126
S'Joey Sadler'
p1127
aS'1935'
p1128
aS'Scrum-half'
p1129
aS'Wellington'
p1130
aS'5'
aS'4'
aS'0'
aS'0'
aa(lp1131
S'Doug Dalton'
p1132
aS'1935'
p1133
aS'Prop'
p1134
aS'Napier'
p1135
aS'9'
aS'6'
aS'0'
aS'0'
aa(lp1136
S'Snowy Tindill'
p1137
aS'1936'
p1138
aS'Fly-half, Scrum-half'
p1139
aS'Nelson'
p1140
aS'1'
aS'0'
aS'0'
aS'0'
aa(lp1141
S'Everard Jackson'
p1142
aS'1936'
p1143
aS'Prop'
p1144
aS'Hastings'
p1145
aS'6'
aS'4'
aS'0'
aS'0'
aa(lp1146
S'Shorty Killeen'
p1147
aS'1936'
p1148
aS'Five-eighth'
p1149
aS'Wellington'
p1150
aS'1'
aS'1'
aS'0'
aS'0'
aa(lp1151
S'John Rankin'
p1152
aS'1936'
p1153
aS'No. 8'
p1154
aS'Christchurch'
p1155
aS'3'
aS'2'
aS'2'
aS'6'
aa(lp1156
S'Jim Watt'
p1157
aS'1936'
p1158
aS'Wing'
p1159
aS'Dunedin'
p1160
aS'2'
aS'2'
aS'2'
aS'6'
aa(lp1161
S'Jock Wells'
p1162
aS'1936'
p1163
aS'Flanker'
p1164
aS'nr.Dargaville'
p1165
aS'2'
aS'2'
aS'0'
aS'0'
aa(lp1166
S'Colin Gillies'
p1167
aS'1936'
p1168
aS'Fly-half'
p1169
aS'Oamaru'
p1170
aS'1'
aS'1'
aS'0'
aS'0'
aa(lp1171
S'Ronald Ward'
p1172
aS'1936'
p1173
aS'Flanker'
p1174
aS'Riverton'
p1175
aS'3'
aS'2'
aS'0'
aS'0'
aa(lp1176
S'Donald Cobden'
p1177
aS'1937'
p1178
aS'Wing'
p1179
aS'Christchurch'
p1180
aS'1'
aS'1'
aS'0'
aS'0'
aa(lp1181
S'John Dick'
p1182
aS'1937'
p1183
aS'Wing'
p1184
aS'Auckland'
p1185
aS'3'
aS'2'
aS'1'
aS'3'
aa(lp1186
S'John Hooper'
p1187
aS'1937'
p1188
aS'Five-eighth'
p1189
aS'Christchurch'
p1190
aS'3'
aS'1'
aS'0'
aS'0'
aa(lp1191
S'Allan Parkhill'
p1192
aS'1937'
p1193
aS'No. 8'
p1194
aS'Palmerston'
p1195
aS'6'
aS'4'
aS'1'
aS'3'
aa(lp1196
S'Harold Simon'
p1197
aS'1937'
p1198
aS'Scrum-half'
p1199
aS'Kingston'
p1200
aS'3'
aS'1'
aS'0'
aS'0'
aa(lp1201
S'John Sullivan'
p1202
aS'1937'
p1203
aS'Centre'
p1204
aS'Tahora'
p1205
aS'6'
aS'4'
aS'3'
aS'9'
aa(lp1206
S'John Taylor'
p1207
aS'1937'
p1208
aS'Fullback'
p1209
aS'Mataura'
p1210
aS'6'
aS'4'
aS'0'
aS'24'
p1211
aa(lp1212
S'David Trevathan'
p1213
aS'1937'
p1214
aS'Fly-half'
p1215
aS'Mosgiel Junction'
p1216
aS'3'
aS'1'
aS'0'
aS'16'
p1217
aa(lp1218
S'Bill Phillips'
p1219
aS'1937'
p1220
aS'Wing'
p1221
aS'Raglan'
p1222
aS'3'
aS'2'
aS'1'
aS'3'
aa(lp1223
S'Trevor Berghan'
p1224
aS'1938'
p1225
aS'Fly-half'
p1226
aS'Houhora'
p1227
aS'3'
aS'3'
aS'0'
aS'0'
aa(lp1228
S'Snow Bowman'
p1229
aS'1938'
p1230
aS'Flanker'
p1231
aS'Auckland'
p1232
aS'3'
aS'3'
aS'2'
aS'6'
aa(lp1233
S'Les George'
p1234
aS'1938'
p1235
aS'Prop'
p1236
aS'Invercargill'
p1237
aS'3'
aS'3'
aS'0'
aS'0'
aa(lp1238
S'Harold Milliken'
p1239
aS'1938'
p1240
aS'Lock'
p1241
aS'Christchurch'
p1242
aS'3'
aS'3'
aS'1'
aS'3'
aa(lp1243
S'Thomas Morrison'
p1244
aS'1938'
p1245
aS'Wing'
p1246
aS'Gisborne'
p1247
aS'3'
aS'3'
aS'0'
aS'4'
aa(lp1248
S'Charlie Quaid'
p1249
aS'1938'
p1250
aS'Hooker'
p1251
aS'Christchurch'
p1252
aS'2'
aS'2'
aS'0'
aS'0'
aa(lp1253
S'Charles Saxton'
p1254
aS'1938'
p1255
aS'Scrum-half'
p1256
aS'Kurow'
p1257
aS'3'
aS'3'
aS'3'
aS'9'
aa(lp1258
S'Fred Allen'
p1259
aS'1946'
p1260
aS'Five-eighth'
p1261
aS'Oamaru'
p1262
aS'6'
aS'4'
aS'0'
aS'0'
aa(lp1263
S'Wally Argus'
p1264
aS'1946'
p1265
aS'Wing'
p1266
aS'Auckland'
p1267
aS'4'
aS'4'
aS'4'
aS'12'
p1268
aa(lp1269
S'Has Catley'
p1270
aS'1946'
p1271
aS'Hooker'
p1272
aS'Hamilton'
p1273
aS'7'
aS'3'
aS'0'
aS'0'
aa(lp1274
S'John Dunn'
p1275
aS'1946'
p1276
aS'Wing'
p1277
aS'Otahuhu'
p1278
aS'1'
aS'1'
aS'0'
aS'0'
aa(lp1279
S'Ken Elliott'
p1280
aS'1946'
p1281
aS'No. 8'
p1282
aS'Wellington'
p1283
aS'2'
aS'2'
aS'1'
aS'3'
aa(lp1284
S'Ron Elvidge'
p1285
aS'1946'
p1286
aS'Five-eighth'
p1287
aS'Timaru'
p1288
aS'9'
aS'4'
aS'4'
aS'12'
p1289
aa(lp1290
S'Jack Finlay'
p1291
aS'1946'
p1292
aS'No. 8'
p1293
aS'Normanby'
p1294
aS'1'
aS'1'
aS'1'
aS'3'
aa(lp1295
S'Harry Frazer'
p1296
aS'1946'
p1297
aS'Lock'
p1298
aS'Wanganui'
p1299
aS'5'
aS'4'
aS'1'
aS'3'
aa(lp1300
S'Jimmy Haig'
p1301
aS'1946'
p1302
aS'Scrum-half'
p1303
aS'Prestonpans'
p1304
aS'2'
aS'2'
aS'1'
aS'3'
aa(lp1305
S'Maurice McHugh'
p1306
aS'1946'
p1307
aS'Flanker'
p1308
aS'Auckland'
p1309
aS'3'
aS'2'
aS'0'
aS'0'
aa(lp1310
S'Pat Rhind'
p1311
aS'1946'
p1312
aS'Prop'
p1313
aS'Lyttelton'
p1314
aS'2'
aS'2'
aS'0'
aS'0'
aa(lp1315
S'Bob Scott'
p1316
aS'1946'
p1317
aS'Fullback'
p1318
aS'Wellington'
p1319
aS'17'
p1320
aS'10'
p1321
aS'0'
aS'74'
p1322
aa(lp1323
S'John Smith'
p1324
aS'1946'
p1325
aS'Centre'
p1326
aS'Kaikohe'
p1327
aS'4'
aS'2'
aS'1'
aS'6'
aa(lp1328
S'Roy White'
p1329
aS'1946'
p1330
aS'Flanker'
p1331
aS'Dannevirke'
p1332
aS'4'
aS'4'
aS'1'
aS'3'
aa(lp1333
S'Charlie Willocks'
p1334
aS'1946'
p1335
aS'Lock'
p1336
aS'Balclutha'
p1337
aS'5'
aS'2'
aS'0'
aS'0'
aa(lp1338
S'John McRae'
p1339
aS'1946'
p1340
aS'Hooker'
p1341
aS'Springhills'
p1342
aS'2'
aS'2'
aS'0'
aS'0'
aa(lp1343
S'Eric Boggs'
p1344
aS'1946'
p1345
aS'Wing'
p1346
aS'Whangarei'
p1347
aS'2'
aS'1'
aS'0'
aS'0'
aa(lp1348
S'Thomas Budd'
p1349
aS'1946'
p1350
aS'Lock'
p1351
aS'Bluff'
p1352
aS'2'
aS'1'
aS'0'
aS'0'
aa(lp1353
S'Maurice Goddard'
p1354
aS'1946'
p1355
aS'Centre'
p1356
aS'Timaru'
p1357
aS'5'
aS'3'
aS'1'
aS'3'
aa(lp1358
S'Keith Arnold'
p1359
aS'1947'
p1360
aS'Flanker'
p1361
aS'Feilding'
p1362
aS'2'
aS'2'
aS'1'
aS'3'
aa(lp1363
S'Ben Couch'
p1364
aS'1947'
p1365
aS'Fly-half'
p1366
aS'Christchurch'
p1367
aS'3'
aS'1'
aS'0'
aS'0'
aa(lp1368
S'Ray Dalton'
p1369
aS'1947'
p1370
aS'Prop'
p1371
aS'Te Awamutu'
p1372
aS'2'
aS'2'
aS'0'
aS'0'
aa(lp1373
S'Goldie Grant'
p1374
aS'1947'
p1375
aS'Lock'
p1376
aS'Temuka'
p1377
aS'4'
aS'2'
aS'0'
aS'0'
aa(lp1378
S'John McLean'
p1379
aS'1947'
p1380
aS'Wing'
p1381
aS'Thames'
p1382
aS'2'
aS'1'
aS'0'
aS'0'
aa(lp1383
S'Johnny Simpson'
p1384
aS'1947'
p1385
aS'Prop'
p1386
aS'Rotorua'
p1387
aS'9'
aS'4'
aS'0'
aS'0'
aa(lp1388
S'Percy Tetzlaff'
p1389
aS'1947'
p1390
aS'Scrum-half'
p1391
aS'Taupiri'
p1392
aS'2'
aS'2'
aS'0'
aS'0'
aa(lp1393
S'Neville Thornton'
p1394
aS'1947'
p1395
aS'No. 8'
p1396
aS'Otahuhu'
p1397
aS'3'
aS'2'
aS'0'
aS'3'
aa(lp1398
S'Jim Kearney'
p1399
aS'1947'
p1400
aS'Fly-half'
p1401
aS'Naseby'
p1402
aS'4'
aS'1'
aS'1'
aS'9'
aa(lp1403
S'Tim Mason'
p1404
aS'1947'
p1405
aS'Wing'
p1406
aS'Wellington'
p1407
aS'1'
aS'1'
aS'1'
aS'3'
aa(lp1408
S'Lester Harvey'
p1409
aS'1949'
p1410
aS'Lock'
p1411
aS'Dunedin'
p1412
aS'8'
aS'3'
aS'0'
aS'0'
aa(lp1413
S'Sammy Henderson'
p1414
aS'1949'
p1415
aS'Wing'
p1416
aS'Gisborne'
p1417
aS'7'
aS'3'
aS'2'
aS'6'
aa(lp1418
S'Jack McNab'
p1419
aS'1949'
p1420
aS'Flanker'
p1421
aS'Owaka'
p1422
aS'6'
aS'2'
aS'0'
aS'0'
aa(lp1423
S'Laurence Savage'
p1424
aS'1949'
p1425
aS'Scrum-half'
p1426
aS'Nelson'
p1427
aS'3'
aS'0'
aS'0'
aS'0'
aa(lp1428
S'Kevin Skinner'
p1429
aS'1949'
p1430
aS'Prop'
p1431
aS'Dunedin'
p1432
aS'20'
p1433
aS'12'
p1434
aS'1'
aS'3'
aa(lp1435
S'Peter Johnstone'
p1436
aS'1949'
p1437
aS'No. 8'
p1438
aS'Mosgiel'
p1439
aS'9'
aS'6'
aS'1'
aS'3'
aa(lp1440
S'Bill Meates'
p1441
aS'1949'
p1442
aS'Wing'
p1443
aS'Greymouth'
p1444
aS'7'
aS'3'
aS'0'
aS'0'
aa(lp1445
S'Vince Bevan'
p1446
aS'1949'
p1447
aS'Scrum-half'
p1448
aS'Wellington'
p1449
aS'6'
aS'3'
aS'0'
aS'0'
aa(lp1450
S'Kiwi Blake'
p1451
aS'1949'
p1452
aS'Flanker'
p1453
aS'Carterton'
p1454
aS'1'
aS'0'
aS'0'
aS'0'
aa(lp1455
S'Ron Bryers'
p1456
aS'1949'
p1457
aS'Lock'
p1458
aS'Raetihi'
p1459
aS'1'
aS'0'
aS'0'
aS'0'
aa(lp1460
S'Ronald Dobson'
p1461
aS'1949'
p1462
aS'Five-eighth'
p1463
aS'Auckland'
p1464
aS'1'
aS'0'
aS'0'
aS'0'
aa(lp1465
S'Arthur Hughes'
p1466
aS'1949'
p1467
aS'Hooker'
p1468
aS'Auckland'
p1469
aS'6'
aS'3'
aS'0'
aS'0'
aa(lp1470
S'Jack Kelly'
p1471
aS'1949'
p1472
aS'Fullback'
p1473
aS'Ashburton'
p1474
aS'2'
aS'0'
aS'0'
aS'3'
aa(lp1475
S'Bert Lunn'
p1476
aS'1949'
p1477
aS'Flanker'
p1478
aS'Alexandra'
p1479
aS'2'
aS'0'
aS'0'
aS'0'
aa(lp1480
S'Graham Moore'
p1481
aS'1949'
p1482
aS'Wing'
p1483
aS'Wellington'
p1484
aS'1'
aS'0'
aS'1'
aS'3'
aa(lp1485
S'Bill Mumm'
p1486
aS'1949'
p1487
aS'Prop'
p1488
aS'Mokihinui'
p1489
aS'1'
aS'0'
aS'0'
aS'0'
aa(lp1490
S'Rex Orr'
p1491
aS'1949'
p1492
aS'Fullback'
p1493
aS'Gore'
p1494
aS'1'
aS'0'
aS'0'
aS'0'
aa(lp1495
S'Bob Stuart'
p1496
aS'1949'
p1497
aS'No. 8'
p1498
aS'Dunedin'
p1499
aS'7'
aS'3'
aS'1'
aS'3'
aa(lp1500
S'Tiny White'
p1501
aS'1949'
p1502
aS'Lock'
p1503
aS'Gisborne'
p1504
aS'23'
p1505
aS'15'
p1506
aS'3'
aS'9'
aa(lp1507
S'Hector Wilson'
p1508
aS'1949'
p1509
aS'Prop'
p1510
aS'Beaumont'
p1511
aS'5'
aS'4'
aS'1'
aS'3'
aa(lp1512
S'Neville Black'
p1513
aS'1949'
p1514
aS'Scrum-half'
p1515
aS'Kawakawa'
p1516
aS'1'
aS'0'
aS'0'
aS'0'
aa(lp1517
S'Pat Crowley'
p1518
aS'1949'
p1519
aS'Flanker'
p1520
aS'Wanganui'
p1521
aS'6'
aS'3'
aS'1'
aS'3'
aa(lp1522
S'Desmond Christian'
p1523
aS'1949'
p1524
aS'No. 8'
p1525
aS'Auckland'
p1526
aS'1'
aS'0'
aS'0'
aS'0'
aa(lp1527
S'Red Delamore'
p1528
aS'1949'
p1529
aS'Fly-half'
p1530
aS'Thames'
p1531
aS'1'
aS'0'
aS'0'
aS'0'
aa(lp1532
S'Jack Bond'
p1533
aS'1949'
p1534
aS'Prop'
p1535
aS'Carterton'
p1536
aS'1'
aS'0'
aS'0'
aS'0'
aa(lp1537
S"Ray O'Callaghan"
p1538
aS'1949'
p1539
aS'Five-eighth'
p1540
aS'Wellington'
p1541
aS'1'
aS'0'
aS'0'
aS'3'
aa(lp1542
S"Des O'Donnell"
p1543
aS'1949'
p1544
aS'Prop'
p1545
aS'Palmerston North'
p1546
aS'1'
aS'0'
aS'0'
aS'0'
aa(lp1547
S'Roy Roper'
p1548
aS'1949'
p1549
aS'Centre'
p1550
aS'Owhango'
p1551
aS'5'
aS'3'
aS'3'
aS'9'
aa(lp1552
S'Harry Rowley'
p1553
aS'1949'
p1554
aS'No. 8'
p1555
aS'Cromwell'
p1556
aS'1'
aS'0'
aS'0'
aS'0'
aa(lp1557
S'George Beatty'
p1558
aS'1950'
p1559
aS'Fly-half'
p1560
aS'New Plymouth'
p1561
aS'1'
aS'0'
aS'0'
aS'0'
aa(lp1562
S'Brownie Cherrington'
p1563
aS'1950'
p1564
aS'Wing'
p1565
aS'Otiria'
p1566
aS'1'
aS'0'
aS'0'
aS'0'
aa(lp1567
S'Laurie Haig'
p1568
aS'1950'
p1569
aS'Fly-half'
p1570
aS'Prestonpans'
p1571
aS'9'
aS'8'
aS'1'
aS'5'
aa(lp1572
S'Graham Mexted'
p1573
aS'1950'
p1574
aS'No. 8'
p1575
aS'Greytown'
p1576
aS'1'
aS'1'
aS'0'
aS'0'
aa(lp1577
S'John Tanner'
p1578
aS'1950'
p1579
aS'Centre'
p1580
aS'Auckland'
p1581
aS'5'
aS'4'
aS'1'
aS'3'
aa(lp1582
S'Snow Cockerill'
p1583
aS'1951'
p1584
aS'Fullback'
p1585
aS'Hawera'
p1586
aS'3'
aS'3'
aS'0'
aS'11'
p1587
aa(lp1588
S'Bob Duff'
p1589
aS'1951'
p1590
aS'Lock'
p1591
aS'Lyttelton'
p1592
aS'11'
p1593
aS'8'
aS'0'
aS'0'
aa(lp1594
S'Percy Erceg'
p1595
aS'1951'
p1596
aS'Wing'
p1597
aS'Waipapakauri'
p1598
aS'4'
aS'3'
aS'0'
aS'0'
aa(lp1599
S'Ronald Jarden'
p1600
aS'1951'
p1601
aS'Wing'
p1602
aS'Lower Hutt'
p1603
aS'16'
p1604
aS'11'
p1605
aS'7'
aS'42'
p1606
aa(lp1607
S'Thomas Lynch'
p1608
aS'1951'
p1609
aS'Five-eighth'
p1610
aS'Naseby'
p1611
aS'3'
aS'3'
aS'2'
aS'9'
aa(lp1612
S'William McCaw'
p1613
aS'1951'
p1614
aS'No. 8'
p1615
aS'Gore'
p1616
aS'5'
aS'3'
aS'0'
aS'0'
aa(lp1617
S'Charles Robinson'
p1618
aS'1951'
p1619
aS'Flanker'
p1620
aS'Bluff'
p1621
aS'5'
aS'4'
aS'1'
aS'3'
aa(lp1622
S'Leo Steele'
p1623
aS'1951'
p1624
aS'Scrum-half'
p1625
aS'Wellington'
p1626
aS'3'
aS'3'
aS'0'
aS'0'
aa(lp1627
S'Norman Wilson'
p1628
aS'1951'
p1629
aS'Hooker'
p1630
aS'Masterton'
p1631
aS'3'
aS'3'
aS'1'
aS'3'
aa(lp1632
S'Raymond Bell'
p1633
aS'1951'
p1634
aS'Wing'
p1635
aS'Dunedin'
p1636
aS'3'
aS'2'
aS'1'
aS'6'
aa(lp1637
S'Peter Eastgate'
p1638
aS'1952'
p1639
aS'Prop'
p1640
aS'Nelson'
p1641
aS'3'
aS'2'
aS'0'
aS'0'
aa(lp1642
S'Allan Elsom'
p1643
aS'1952'
p1644
aS'Centre'
p1645
aS'Christchurch'
p1646
aS'6'
aS'3'
aS'0'
aS'3'
aa(lp1647
S'Jim Fitzgerald'
p1648
aS'1952'
p1649
aS'Five-eighth'
p1650
aS'Wellington'
p1651
aS'1'
aS'0'
aS'1'
aS'3'
aa(lp1652
S'John Hotop'
p1653
aS'1952'
p1654
aS'Fly-half'
p1655
aS'Alexandra'
p1656
aS'3'
aS'1'
aS'1'
aS'6'
aa(lp1657
S'Ian Irvine'
p1658
aS'1952'
p1659
aS'Hooker'
p1660
aS'Carterton'
p1661
aS'1'
aS'0'
aS'0'
aS'0'
aa(lp1662
S'Hugh McLaren'
p1663
aS'1952'
p1664
aS'No. 8'
p1665
aS'Auckland'
p1666
aS'1'
aS'0'
aS'0'
aS'0'
aa(lp1667
S'Kevin Meates'
p1668
aS'1952'
p1669
aS'No. 8'
p1670
aS'Greymouth'
p1671
aS'2'
aS'1'
aS'0'
aS'0'
aa(lp1672
S'Ponty Reid'
p1673
aS'1952'
p1674
aS'Scrum-half'
p1675
aS'Te Kuiti'
p1676
aS'5'
aS'4'
aS'0'
aS'0'
aa(lp1677
S'Noel Bowden'
p1678
aS'1952'
p1679
aS'Fullback'
p1680
aS'Whangarei'
p1681
aS'1'
aS'1'
aS'0'
aS'3'
aa(lp1682
S'Mick Bremner'
p1683
aS'1952'
p1684
aS'Five-eighth'
p1685
aS'Otorohanga'
p1686
aS'2'
aS'1'
aS'0'
aS'0'
aa(lp1687
S'Keith Davis'
p1688
aS'1952'
p1689
aS'Scrum-half'
p1690
aS'Whakatane'
p1691
aS'10'
p1692
aS'7'
aS'0'
aS'0'
aa(lp1693
S'Ian Hammond'
p1694
aS'1952'
p1695
aS'Hooker'
p1696
aS'Blenheim'
p1697
aS'1'
aS'1'
aS'0'
aS'0'
aa(lp1698
S'Jack Skeen'
p1699
aS'1952'
p1700
aS'Flanker'
p1701
aS'Auckland'
p1702
aS'1'
aS'1'
aS'0'
aS'0'
aa(lp1703
S'Bill Clark'
p1704
aS'1953'
p1705
aS'Flanker'
p1706
aS'Motueka'
p1707
aS'9'
aS'7'
aS'3'
aS'9'
aa(lp1708
S'Ian Clarke'
p1709
aS'1953'
p1710
aS'Prop'
p1711
aS'Kaponga'
p1712
aS'24'
p1713
aS'19'
p1714
aS'0'
aS'0'
aa(lp1715
S'Nelson Dalzell'
p1716
aS'1953'
p1717
aS'Lock'
p1718
aS'N.Cant.'
p1719
aS'5'
aS'3'
aS'1'
aS'3'
aa(lp1720
S'Brian Fitzpatrick'
p1721
aS'1953'
p1722
aS'Five-eighth'
p1723
aS'Opotiki'
p1724
aS'3'
aS'1'
aS'0'
aS'0'
aa(lp1725
S'Ron Hemi'
p1726
aS'1953'
p1727
aS'Hooker'
p1728
aS'Whangarei'
p1729
aS'16'
p1730
aS'12'
p1731
aS'1'
aS'3'
aa(lp1732
S'Richard Bowers'
p1733
aS'1954'
p1734
aS'Fly-half'
p1735
aS'Rawhiti'
p1736
aS'2'
aS'1'
aS'0'
aS'0'
aa(lp1737
S'Morrie Dixon'
p1738
aS'1954'
p1739
aS'Wing'
p1740
aS'Christchurch'
p1741
aS'10'
p1742
aS'8'
aS'2'
aS'6'
aa(lp1743
S'Colin Loader'
p1744
aS'1954'
p1745
aS'Centre'
p1746
aS'Dannevirke'
p1747
aS'4'
aS'3'
aS'0'
aS'0'
aa(lp1748
S'Desmond Oliver'
p1749
aS'1954'
p1750
aS'Flanker'
p1751
aS'Palmerston North'
p1752
aS'2'
aS'1'
aS'0'
aS'0'
aa(lp1753
S'Snow White'
p1754
aS'1954'
p1755
aS'Prop'
p1756
aS'Kawakawa'
p1757
aS'4'
aS'2'
aS'0'
aS'0'
aa(lp1758
S'Tiger Hilton-Jones'
p1759
aS'1954'
p1760
aS'Flanker'
p1761
aS'Kaitaia'
p1762
aS'11'
p1763
aS'9'
aS'2'
aS'6'
aa(lp1764
S'Douglas Wilson'
p1765
aS'1954'
p1766
aS'Five-eighth'
p1767
aS'Wanganui'
p1768
aS'2'
aS'2'
aS'0'
aS'0'
aa(lp1769
S'Robin Archer'
p1770
aS'1955'
p1771
aS'Fly-half'
p1772
aS'Gore'
p1773
aS'4'
aS'4'
aS'0'
aS'0'
aa(lp1774
S'Peter Burke'
p1775
aS'1955'
p1776
aS'No. 8'
p1777
aS'Tauranga'
p1778
aS'3'
aS'3'
aS'0'
aS'0'
aa(lp1779
S'Mark Irwin'
p1780
aS'1955'
p1781
aS'Prop'
p1782
aS'Gisborne'
p1783
aS'7'
aS'4'
aS'0'
aS'0'
aa(lp1784
S'Ross Smith'
p1785
aS'1955'
p1786
aS'Wing'
p1787
aS'Ashburton'
p1788
aS'1'
aS'1'
aS'0'
aS'0'
aa(lp1789
S'Kevin Stuart'
p1790
aS'1955'
p1791
aS'Fullback'
p1792
aS'Dunedin'
p1793
aS'1'
aS'1'
aS'0'
aS'0'
aa(lp1794
S'Lindsay Townsend'
p1795
aS'1955'
p1796
aS'Scrum-half'
p1797
aS'Mataura'
p1798
aS'2'
aS'1'
aS'0'
aS'0'
aa(lp1799
S'Ivan Vodanovich'
p1800
aS'1955'
p1801
aS'Prop'
p1802
aS'Wanganui'
p1803
aS'3'
aS'2'
aS'1'
aS'3'
aa(lp1804
S'Pat Walsh'
p1805
aS'1955'
p1806
aS'Fullback'
p1807
aS'Kaitaia'
p1808
aS'13'
p1809
aS'10'
p1810
aS'4'
aS'12'
p1811
aa(lp1812
S'Bill Gray'
p1813
aS'1955'
p1814
aS'Five-eighth'
p1815
aS'Te Puke'
p1816
aS'6'
aS'4'
aS'0'
aS'0'
aa(lp1817
S'Tom Katene'
p1818
aS'1955'
p1819
aS'Wing'
p1820
aS'Taranaki'
p1821
aS'1'
aS'1'
aS'0'
aS'0'
aa(lp1822
S'Ross Brown'
p1823
aS'1955'
p1824
aS'Fly-half'
p1825
aS'New Plymouth'
p1826
aS'16'
p1827
aS'13'
p1828
aS'3'
aS'12'
p1829
aa(lp1830
S'John Buxton'
p1831
aS'1955'
p1832
aS'Flanker'
p1833
aS'Auckland'
p1834
aS'2'
aS'1'
aS'0'
aS'0'
aa(lp1835
S'Tiny Hill'
p1836
aS'1955'
p1837
aS'Lock'
p1838
aS'New Plymouth'
p1839
aS'11'
p1840
aS'9'
aS'0'
aS'0'
aa(lp1841
S'Donald McIntosh'
p1842
aS'1956'
p1843
aS'Flanker'
p1844
aS'Lower Hutt'
p1845
aS'4'
aS'3'
aS'0'
aS'0'
aa(lp1846
S'Patrick Vincent'
p1847
aS'1956'
p1848
aS'Scrum-half'
p1849
aS'Wataroa'
p1850
aS'2'
aS'1'
aS'0'
aS'0'
aa(lp1851
S'Francis McAtamney'
p1852
aS'1956'
p1853
aS'Prop'
p1854
aS'Middlemarch'
p1855
aS'1'
aS'0'
aS'0'
aS'0'
aa(lp1856
S'Ian MacEwan'
p1857
aS'1956'
p1858
aS'Lock'
p1859
aS'Auckland'
p1860
aS'20'
p1861
aS'14'
p1862
aS'2'
aS'6'
aa(lp1863
S'Denis Young'
p1864
aS'1956'
p1865
aS'Hooker'
p1866
aS'Christchurch'
p1867
aS'22'
p1868
aS'15'
p1869
aS'0'
aS'0'
aa(lp1870
S'Don Clarke'
p1871
aS'1956'
p1872
aS'Fullback'
p1873
aS'Pihama'
p1874
aS'31'
p1875
aS'24'
p1876
aS'2'
aS'207'
p1877
aa(lp1878
S'Terry Lineen'
p1879
aS'1957'
p1880
aS'Five-eighth'
p1881
aS'Auckland'
p1882
aS'12'
p1883
aS'8'
aS'0'
aS'0'
aa(lp1884
S'Frank McMullen'
p1885
aS'1957'
p1886
aS'Wing'
p1887
aS'Auckland'
p1888
aS'11'
p1889
aS'8'
aS'4'
aS'12'
p1890
aa(lp1891
S'Colin Meads'
p1892
aS'1957'
p1893
aS'Lock'
p1894
aS'Cambridge'
p1895
aS'55'
p1896
aS'41'
p1897
aS'7'
aS'21'
p1898
aa(lp1899
S'Wilson Whineray'
p1900
aS'1957'
p1901
aS'Prop'
p1902
aS'Auckland'
p1903
aS'32'
p1904
aS'24'
p1905
aS'2'
aS'6'
aa(lp1906
S'Mick Cossey'
p1907
aS'1958'
p1908
aS'Wing'
p1909
aS'Papakura'
p1910
aS'1'
aS'1'
aS'0'
aS'0'
aa(lp1911
S'Thomas Coughlan'
p1912
aS'1958'
p1913
aS'Flanker'
p1914
aS'Temuka'
p1915
aS'1'
aS'1'
aS'0'
aS'0'
aa(lp1916
S'David Graham'
p1917
aS'1958'
p1918
aS'Flanker'
p1919
aS'Stratford'
p1920
aS'22'
p1921
aS'17'
p1922
aS'2'
aS'6'
aa(lp1923
S'David Ashby'
p1924
aS'1958'
p1925
aS'Fullback'
p1926
aS'Mataura'
p1927
aS'1'
aS'0'
aS'0'
aS'0'
aa(lp1928
S'Ernest Pickering'
p1929
aS'1958'
p1930
aS'Flanker'
p1931
aS'Te Kuiti'
p1932
aS'3'
aS'1'
aS'0'
aS'0'
aa(lp1933
S'James Watt'
p1934
aS'1958'
p1935
aS'Wing'
p1936
aS'Dunedin'
p1937
aS'9'
aS'5'
aS'1'
aS'3'
aa(lp1938
S'Adrian Clarke'
p1939
aS'1958'
p1940
aS'Fly-half'
p1941
aS'Christchurch'
p1942
aS'3'
aS'1'
aS'0'
aS'0'
aa(lp1943
S'William Gillespie'
p1944
aS'1958'
p1945
aS'Flanker'
p1946
aS'Cromwell'
p1947
aS'1'
aS'1'
aS'0'
aS'0'
aa(lp1948
S'Brian Finlay'
p1949
aS'1959'
p1950
aS'Flanker'
p1951
aS'Cromwell'
p1952
aS'1'
aS'1'
aS'0'
aS'0'
aa(lp1953
S'Bruce McPhail'
p1954
aS'1959'
p1955
aS'Wing'
p1956
aS'Ashburton'
p1957
aS'2'
aS'1'
aS'0'
aS'0'
aa(lp1958
S'Spider Urbahn'
p1959
aS'1959'
p1960
aS'Scrum-half'
p1961
aS'Opunake'
p1962
aS'3'
aS'2'
aS'1'
aS'3'
aa(lp1963
S'Kevin Briscoe'
p1964
aS'1959'
p1965
aS'Scrum-half'
p1966
aS'New Plymouth'
p1967
aS'9'
aS'5'
aS'0'
aS'0'
aa(lp1968
S'Ralph Caulton'
p1969
aS'1959'
p1970
aS'Wing'
p1971
aS'Wellington'
p1972
aS'16'
p1973
aS'11'
p1974
aS'8'
aS'24'
p1975
aa(lp1976
S'Dick Conway'
p1977
aS'1959'
p1978
aS'No. 8'
p1979
aS'Whakatane'
p1980
aS'10'
p1981
aS'5'
aS'1'
aS'3'
aa(lp1982
S'Tuppy Diack'
p1983
aS'1959'
p1984
aS'Wing'
p1985
aS'Invercargill'
p1986
aS'1'
aS'1'
aS'0'
aS'0'
aa(lp1987
S'John McCullough'
p1988
aS'1959'
p1989
aS'Fly-half'
p1990
aS'Stratford'
p1991
aS'3'
aS'2'
aS'0'
aS'0'
aa(lp1992
S'Kel Tremain'
p1993
aS'1959'
p1994
aS'Flanker'
p1995
aS'Auckland'
p1996
aS'38'
p1997
aS'30'
p1998
aS'9'
aS'27'
p1999
aa(lp2000
S'Desmond Webb'
p2001
aS'1959'
p2002
aS'Hooker'
p2003
aS'Kawakawa'
p2004
aS'1'
aS'1'
aS'0'
aS'0'
aa(lp2005
S"Terence O'Sullivan"
p2006
aS'1960'
p2007
aS'Centre'
p2008
aS'New Plymouth'
p2009
aS'4'
aS'3'
aS'1'
aS'3'
aa(lp2010
S'Ronald Horsley'
p2011
aS'1960'
p2012
aS'Lock'
p2013
aS'Wellington'
p2014
aS'3'
aS'1'
aS'0'
aS'0'
aa(lp2015
S'Kevin Laidlaw'
p2016
aS'1960'
p2017
aS'Centre'
p2018
aS'Nightcaps'
p2019
aS'3'
aS'1'
aS'0'
aS'0'
aa(lp2020
S'Steven Nesbit'
p2021
aS'1960'
p2022
aS'Fly-half'
p2023
aS'Auckland'
p2024
aS'2'
aS'1'
aS'0'
aS'0'
aa(lp2025
S'Tony Davies'
p2026
aS'1960'
p2027
aS'Five-eighth'
p2028
aS'Auckland'
p2029
aS'3'
aS'2'
aS'0'
aS'0'
aa(lp2030
S'Desmond Connor'
p2031
aS'1958'
p2032
aS'Scrum-half'
p2033
aS'Brisbane'
p2034
aS'24'
p2035
aS'11'
p2036
aS'0'
aS'0'
aa(lp2037
S'Donald McKay'
p2038
aS'1961'
p2039
aS'Wing'
p2040
aS'Auckland'
p2041
aS'5'
aS'5'
aS'2'
aS'6'
aa(lp2042
S'Stan Meads'
p2043
aS'1961'
p2044
aS'Lock'
p2045
aS'Arapuni'
p2046
aS'15'
p2047
aS'13'
p2048
aS'0'
aS'0'
aa(lp2049
S'Neil Wolfe'
p2050
aS'1961'
p2051
aS'Fly-half'
p2052
aS'New Plymouth'
p2053
aS'6'
aS'5'
aS'0'
aS'0'
aa(lp2054
S'Boy Yates'
p2055
aS'1961'
p2056
aS'No. 8'
p2057
aS'Kaitaia'
p2058
aS'3'
aS'3'
aS'1'
aS'3'
aa(lp2059
S'Paul Little'
p2060
aS'1961'
p2061
aS'Centre'
p2062
aS'Auckland'
p2063
aS'10'
p2064
aS'8'
aS'1'
aS'3'
aa(lp2065
S'Rod Heeps'
p2066
aS'1962'
p2067
aS'Wing'
p2068
aS'Hamilton'
p2069
aS'5'
aS'4'
aS'1'
aS'3'
aa(lp2070
S'Waka Nathan'
p2071
aS'1962'
p2072
aS'Flanker'
p2073
aS'Auckland'
p2074
aS'14'
p2075
aS'13'
p2076
aS'4'
aS'12'
p2077
aa(lp2078
S'Bruce Watt'
p2079
aS'1962'
p2080
aS'Fly-half'
p2081
aS'Marton'
p2082
aS'8'
aS'7'
aS'2'
aS'9'
aa(lp2083
S'Raymond Moreton'
p2084
aS'1962'
p2085
aS'Five-eighth'
p2086
aS'Invercargill'
p2087
aS'7'
aS'4'
aS'2'
aS'9'
aa(lp2088
S'Peter Morrissey'
p2089
aS'1962'
p2090
aS'Wing'
p2091
aS'Christchurch'
p2092
aS'3'
aS'2'
aS'2'
aS'6'
aa(lp2093
S'John Creighton'
p2094
aS'1962'
p2095
aS'Hooker'
p2096
aS'Rotherham'
p2097
aS'1'
aS'1'
aS'0'
aS'0'
aa(lp2098
S'Jules le Lievre'
p2099
aS'1962'
p2100
aS'Prop'
p2101
aS'Akaroa'
p2102
aS'1'
aS'1'
aS'0'
aS'0'
aa(lp2103
S'Keith Nelson'
p2104
aS'1962'
p2105
aS'No. 8'
p2106
aS'Auckland'
p2107
aS'2'
aS'2'
aS'0'
aS'0'
aa(lp2108
S'Mac Herewini'
p2109
aS'1962'
p2110
aS'Fly-half'
p2111
aS'Mokai'
p2112
aS'10'
p2113
aS'9'
aS'1'
aS'21'
p2114
aa(lp2115
S'Barry Thomas'
p2116
aS'1962'
p2117
aS'Prop'
p2118
aS'Auckland'
p2119
aS'4'
aS'3'
aS'0'
aS'0'
aa(lp2120
S'Allan Stewart'
p2121
aS'1963'
p2122
aS'Lock'
p2123
aS'Temuka'
p2124
aS'8'
aS'6'
aS'0'
aS'0'
aa(lp2125
S'Ian Uttley'
p2126
aS'1963'
p2127
aS'Centre'
p2128
aS'Christchurch'
p2129
aS'2'
aS'2'
aS'0'
aS'0'
aa(lp2130
S'Bluey Arnold'
p2131
aS'1963'
p2132
aS'Five-eighth'
p2133
aS'Balclutha'
p2134
aS'4'
aS'4'
aS'0'
aS'0'
aa(lp2135
S'Malcolm Dick'
p2136
aS'1963'
p2137
aS'Wing'
p2138
aS'Auckland'
p2139
aS'15'
p2140
aS'11'
p2141
aS'4'
aS'12'
p2142
aa(lp2143
S'Ken Gray'
p2144
aS'1963'
p2145
aS'Prop'
p2146
aS'Porirua'
p2147
aS'24'
p2148
aS'21'
p2149
aS'4'
aS'12'
p2150
aa(lp2151
S'Brian Lochore'
p2152
aS'1964'
p2153
aS'No. 8'
p2154
aS'Masterton'
p2155
aS'25'
p2156
aS'19'
p2157
aS'2'
aS'6'
aa(lp2158
S'Chris Laidlaw'
p2159
aS'1964'
p2160
aS'Scrum-half'
p2161
aS'Dunedin'
p2162
aS'20'
p2163
aS'17'
p2164
aS'3'
aS'12'
p2165
aa(lp2166
S'Don Clark'
p2167
aS'1964'
p2168
aS'Flanker'
p2169
aS'Cromwell'
p2170
aS'2'
aS'2'
aS'0'
aS'0'
aa(lp2171
S'John Collins'
p2172
aS'1964'
p2173
aS'Five-eighth'
p2174
aS'Tokomaru Nay'
p2175
aS'3'
aS'3'
aS'0'
aS'0'
aa(lp2176
S'Bruce McLeod'
p2177
aS'1964'
p2178
aS'Hooker'
p2179
aS'Auckland'
p2180
aS'24'
p2181
aS'21'
p2182
aS'4'
aS'12'
p2183
aa(lp2184
S'Spooky Smith'
p2185
aS'1964'
p2186
aS'Wing'
p2187
aS'Dunedin'
p2188
aS'9'
aS'8'
aS'2'
aS'6'
aa(lp2189
S'Michael Williment'
p2190
aS'1964'
p2191
aS'Fullback'
p2192
aS'Wellington'
p2193
aS'9'
aS'8'
aS'1'
aS'70'
p2194
aa(lp2195
S'Peter Murdoch'
p2196
aS'1964'
p2197
aS'Fly-half'
p2198
aS'Auckland'
p2199
aS'5'
aS'3'
aS'2'
aS'6'
aa(lp2200
S'Ron Rangi'
p2201
aS'1964'
p2202
aS'Centre'
p2203
aS'Auckland'
p2204
aS'10'
p2205
aS'8'
aS'3'
aS'9'
aa(lp2206
S'Bill Birtwistle'
p2207
aS'1965'
p2208
aS'Wing'
p2209
aS'Auckland'
p2210
aS'7'
aS'6'
aS'4'
aS'12'
p2211
aa(lp2212
S'Fergie McCormick'
p2213
aS'1965'
p2214
aS'Fullback'
p2215
aS'Ashburton'
p2216
aS'16'
p2217
aS'13'
p2218
aS'0'
aS'121'
p2219
aa(lp2220
S'Jack Hazlett'
p2221
aS'1966'
p2222
aS'Prop'
p2223
aS'Invercargill'
p2224
aS'6'
aS'6'
aS'0'
aS'0'
aa(lp2225
S'Ian MacRae'
p2226
aS'1966'
p2227
aS'Five-eighth'
p2228
aS'Christchurch'
p2229
aS'17'
p2230
aS'14'
p2231
aS'3'
aS'9'
aa(lp2232
S'Anthony Steel'
p2233
aS'1966'
p2234
aS'Wing'
p2235
aS'Greymouth'
p2236
aS'9'
aS'9'
aS'7'
aS'21'
p2237
aa(lp2238
S'Bill Davis'
p2239
aS'1967'
p2240
aS'Centre'
p2241
aS'Hastings'
p2242
aS'11'
p2243
aS'11'
p2244
aS'4'
aS'12'
p2245
aa(lp2246
S'Sid Going'
p2247
aS'1967'
p2248
aS'Scrum-half'
p2249
aS'Kawakawa'
p2250
aS'29'
p2251
aS'17'
p2252
aS'10'
p2253
aS'44'
p2254
aa(lp2255
S'John Major'
p2256
aS'1967'
p2257
aS'Hooker'
p2258
aS'Whakatane'
p2259
aS'1'
aS'1'
aS'0'
aS'0'
aa(lp2260
S'Jazz Muller'
p2261
aS'1967'
p2262
aS'Prop'
p2263
aS'Eltham'
p2264
aS'14'
p2265
aS'9'
aS'0'
aS'0'
aa(lp2266
S'Samuel Strahan'
p2267
aS'1967'
p2268
aS'Lock'
p2269
aS'Palmerston North'
p2270
aS'17'
p2271
aS'14'
p2272
aS'0'
aS'0'
aa(lp2273
S'Earle Kirton'
p2274
aS'1967'
p2275
aS'Fly-half'
p2276
aS'Taumarunui'
p2277
aS'13'
p2278
aS'12'
p2279
aS'4'
aS'12'
p2280
aa(lp2281
S'Graham Williams'
p2282
aS'1967'
p2283
aS'Flanker'
p2284
aS'Wellington'
p2285
aS'5'
aS'5'
aS'0'
aS'0'
aa(lp2286
S'Ian Kirkpatrick'
p2287
aS'1967'
p2288
aS'Flanker'
p2289
aS'Gisborne'
p2290
aS'39'
p2291
aS'25'
p2292
aS'16'
p2293
aS'57'
p2294
aa(lp2295
S'Alister Hopkinson'
p2296
aS'1967'
p2297
aS'Prop'
p2298
aS'Mosgiel'
p2299
aS'9'
aS'7'
aS'0'
aS'0'
aa(lp2300
S'Wayne Cottrell'
p2301
aS'1968'
p2302
aS'Five-eighth'
p2303
aS'Christchurch'
p2304
aS'9'
aS'5'
aS'1'
aS'6'
aa(lp2305
S'Thomas Lister'
p2306
aS'1968'
p2307
aS'Flanker'
p2308
aS'Ashburton'
p2309
aS'8'
aS'5'
aS'2'
aS'6'
aa(lp2310
S'Grahame Thorne'
p2311
aS'1968'
p2312
aS'Wing'
p2313
aS'Auckland'
p2314
aS'10'
p2315
aS'7'
aS'1'
aS'3'
aa(lp2316
S'Anthony Kreft'
p2317
aS'1968'
p2318
aS'Prop'
p2319
aS'Milton'
p2320
aS'1'
aS'1'
aS'0'
aS'0'
aa(lp2321
S"Michael O'Callaghan"
p2322
aS'1968'
p2323
aS'Wing'
p2324
aS'Culverden'
p2325
aS'3'
aS'3'
aS'0'
aS'0'
aa(lp2326
S'Owen Stephens'
p2327
aS'1968'
p2328
aS'Wing'
p2329
aS'Paeroa'
p2330
aS'6'
aS'2'
aS'2'
aS'8'
aa(lp2331
S'Alan Smith'
p2332
aS'1969'
p2333
aS'Lock'
p2334
aS'Stratford'
p2335
aS'3'
aS'2'
aS'0'
aS'0'
aa(lp2336
S'George Skudder'
p2337
aS'1969'
p2338
aS'Wing'
p2339
aS'Te Puke'
p2340
aS'1'
aS'1'
aS'1'
aS'3'
aa(lp2341
S'Bryan Williams'
p2342
aS'1970'
p2343
aS'Wing'
p2344
aS'Auckland'
p2345
aS'38'
p2346
aS'23'
p2347
aS'10'
p2348
aS'71'
p2349
aa(lp2350
S'Alan Sutherland'
p2351
aS'1970'
p2352
aS'No. 8'
p2353
aS'Blenheim'
p2354
aS'10'
p2355
aS'6'
aS'3'
aS'12'
p2356
aa(lp2357
S'Alex Wyllie'
p2358
aS'1970'
p2359
aS'Flanker'
p2360
aS'Christchurch'
p2361
aS'11'
p2362
aS'5'
aS'2'
aS'8'
aa(lp2363
S'Buff Milner'
p2364
aS'1970'
p2365
aS'Wing'
p2366
aS'Tokomaru Bay'
p2367
aS'1'
aS'0'
aS'0'
aS'0'
aa(lp2368
S'Neil Thimbleby'
p2369
aS'1970'
p2370
aS'Prop'
p2371
aS'Lower Hutt'
p2372
aS'1'
aS'0'
aS'0'
aS'0'
aa(lp2373
S'Ron Urlich'
p2374
aS'1970'
p2375
aS'Hooker'
p2376
aS'Auckland'
p2377
aS'2'
aS'0'
aS'0'
aS'0'
aa(lp2378
S'Blair Furlong'
p2379
aS'1970'
p2380
aS'Fly-half'
p2381
aS'Dannevirke'
p2382
aS'1'
aS'0'
aS'0'
aS'0'
aa(lp2383
S'Gerald Kember'
p2384
aS'1970'
p2385
aS'Fullback'
p2386
aS'Wellington'
p2387
aS'1'
aS'0'
aS'0'
aS'14'
p2388
aa(lp2389
S'Keith Murdoch'
p2390
aS'1970'
p2391
aS'Prop'
p2392
aS'Dunedin'
p2393
aS'3'
aS'2'
aS'1'
aS'4'
aa(lp2394
S'Bob Burgess'
p2395
aS'1971'
p2396
aS'Fly-half'
p2397
aS'New Plymouth'
p2398
aS'7'
aS'3'
aS'2'
aS'6'
aa(lp2399
S'Ken Carrington'
p2400
aS'1971'
p2401
aS'Wing'
p2402
aS'Whakatane'
p2403
aS'3'
aS'0'
aS'0'
aS'0'
aa(lp2404
S'Richard Guy'
p2405
aS'1971'
p2406
aS'Prop'
p2407
aS'Lower Hutt'
p2408
aS'4'
aS'1'
aS'0'
aS'0'
aa(lp2409
S'Bruce Hunter'
p2410
aS'1971'
p2411
aS'Wing'
p2412
aS'Oamaru'
p2413
aS'3'
aS'1'
aS'0'
aS'0'
aa(lp2414
S'Alan McNaughton'
p2415
aS'1971'
p2416
aS'Flanker'
p2417
aS'Christchurch'
p2418
aS'3'
aS'1'
aS'0'
aS'0'
aa(lp2419
S'Tane Norton'
p2420
aS'1971'
p2421
aS'Hooker'
p2422
aS'Waikari'
p2423
aS'27'
p2424
aS'16'
p2425
aS'0'
aS'0'
aa(lp2426
S'Pole Whiting'
p2427
aS'1971'
p2428
aS'Lock'
p2429
aS'Auckland'
p2430
aS'20'
p2431
aS'12'
p2432
aS'3'
aS'12'
p2433
aa(lp2434
S'Howard Joseph'
p2435
aS'1971'
p2436
aS'Centre'
p2437
aS'Christchurch'
p2438
aS'2'
aS'1'
aS'0'
aS'0'
aa(lp2439
S'Laurie Mains'
p2440
aS'1971'
p2441
aS'Fullback'
p2442
aS'Dunedin'
p2443
aS'4'
aS'2'
aS'1'
aS'21'
p2444
aa(lp2445
S'Mick Duncan'
p2446
aS'1971'
p2447
aS'Centre'
p2448
aS'Waipawa'
p2449
aS'2'
aS'0'
aS'0'
aS'0'
aa(lp2450
S'Phil Gard'
p2451
aS'1971'
p2452
aS'Five-eighth'
p2453
aS'Kurow'
p2454
aS'1'
aS'0'
aS'0'
aS'0'
aa(lp2455
S'John Dougan'
p2456
aS'1972'
p2457
aS'Fly-half'
p2458
aS'Lower Hutt'
p2459
aS'2'
aS'1'
aS'1'
aS'4'
aa(lp2460
S'Duncan Hales'
p2461
aS'1972'
p2462
aS'Wing'
p2463
aS'Dannevirke'
p2464
aS'4'
aS'4'
aS'0'
aS'0'
aa(lp2465
S'Jeff Matheson'
p2466
aS'1972'
p2467
aS'Prop'
p2468
aS'Palmerston'
p2469
aS'5'
aS'5'
aS'0'
aS'0'
aa(lp2470
S'Trevor Morris'
p2471
aS'1972'
p2472
aS'Fullback'
p2473
aS'Nelson'
p2474
aS'3'
aS'3'
aS'0'
aS'33'
p2475
aa(lp2476
S'Mike Parkinson'
p2477
aS'1972'
p2478
aS'Five-eighth'
p2479
aS'Wairoa'
p2480
aS'7'
aS'6'
aS'0'
aS'0'
aa(lp2481
S'Bruce Robertson'
p2482
aS'1972'
p2483
aS'Centre'
p2484
aS'Hastings'
p2485
aS'34'
p2486
aS'23'
p2487
aS'4'
aS'22'
p2488
aa(lp2489
S'Alistair Scown'
p2490
aS'1972'
p2491
aS'Flanker'
p2492
aS'Patea'
p2493
aS'5'
aS'5'
aS'1'
aS'4'
aa(lp2494
S'Graham Whiting'
p2495
aS'1972'
p2496
aS'Prop'
p2497
aS'Wanganui'
p2498
aS'6'
aS'4'
aS'0'
aS'0'
aa(lp2499
S'Lyn Jaffray'
p2500
aS'1972'
p2501
aS'Five-eighth'
p2502
aS'Dunedin'
p2503
aS'7'
aS'4'
aS'1'
aS'4'
aa(lp2504
S'Graham Sims'
p2505
aS'1972'
p2506
aS'Centre'
p2507
aS'Featherston'
p2508
aS'1'
aS'1'
aS'0'
aS'0'
aa(lp2509
S'Grant Batty'
p2510
aS'1972'
p2511
aS'Wing'
p2512
aS'Greytown'
p2513
aS'15'
p2514
aS'9'
aS'4'
aS'16'
p2515
aa(lp2516
S'Joseph Karam'
p2517
aS'1972'
p2518
aS'Fullback'
p2519
aS'Taumarunui'
p2520
aS'10'
p2521
aS'7'
aS'1'
aS'65'
p2522
aa(lp2523
S'Hamish Macdonald'
p2524
aS'1972'
p2525
aS'Lock'
p2526
aS'Rawene'
p2527
aS'12'
p2528
aS'7'
aS'1'
aS'4'
aa(lp2529
S'Ian Stevens'
p2530
aS'1972'
p2531
aS'Fly-half'
p2532
aS'Waipawa'
p2533
aS'3'
aS'3'
aS'1'
aS'4'
aa(lp2534
S'Kent Lambert'
p2535
aS'1972'
p2536
aS'Prop'
p2537
aS'Wairoa'
p2538
aS'11'
p2539
aS'5'
aS'0'
aS'0'
aa(lp2540
S'Ian Hurst'
p2541
aS'1973'
p2542
aS'Five-eighth'
p2543
aS'Oamaru'
p2544
aS'5'
aS'1'
aS'2'
aS'8'
aa(lp2545
S'Murray Jones'
p2546
aS'1973'
p2547
aS'Prop'
p2548
aS'Warkworth'
p2549
aS'1'
aS'0'
aS'0'
aS'0'
aa(lp2550
S'Robert Lendrum'
p2551
aS'1973'
p2552
aS'Fullback'
p2553
aS'Waiuku'
p2554
aS'1'
aS'0'
aS'0'
aS'2'
aa(lp2555
S'Ken Stewart'
p2556
aS'1973'
p2557
aS'Flanker'
p2558
aS'Gore'
p2559
aS'13'
p2560
aS'8'
aS'0'
aS'0'
aa(lp2561
S'Terry Morrison'
p2562
aS'1973'
p2563
aS'Wing'
p2564
aS'Hamilton'
p2565
aS'1'
aS'0'
aS'0'
aS'0'
aa(lp2566
S'Billy Bush'
p2567
aS'1974'
p2568
aS'Prop'
p2569
aS'Napier'
p2570
aS'12'
p2571
aS'8'
aS'0'
aS'0'
aa(lp2572
S'John Callesen'
p2573
aS'1974'
p2574
aS'Lock'
p2575
aS'Palmerston North'
p2576
aS'4'
aS'3'
aS'0'
aS'0'
aa(lp2577
S'Bruce Gemmell'
p2578
aS'1974'
p2579
aS'Scrum-half'
p2580
aS'Auckland'
p2581
aS'2'
aS'1'
aS'0'
aS'0'
aa(lp2582
S'Andrew Leslie'
p2583
aS'1974'
p2584
aS'No. 8'
p2585
aS'Lower Hutt'
p2586
aS'10'
p2587
aS'6'
aS'1'
aS'4'
aa(lp2588
S'Duncan Robertson'
p2589
aS'1974'
p2590
aS'Fly-half'
p2591
aS'Dunedin'
p2592
aS'10'
p2593
aS'6'
aS'2'
aS'8'
aa(lp2594
S'Kerry Tanner'
p2595
aS'1974'
p2596
aS'Prop'
p2597
aS'Hamilton'
p2598
aS'7'
aS'5'
aS'0'
aS'0'
aa(lp2599
S'Jon McLachlan'
p2600
aS'1974'
p2601
aS'Wing'
p2602
aS'Auckland'
p2603
aS'1'
aS'0'
aS'0'
aS'0'
aa(lp2604
S'Ashley Gardiner'
p2605
aS'1974'
p2606
aS'Prop'
p2607
aS'New Plymouth'
p2608
aS'1'
aS'1'
aS'0'
aS'0'
aa(lp2609
S'Joe Morgan'
p2610
aS'1974'
p2611
aS'Five-eighth'
p2612
aS'Whangarei'
p2613
aS'5'
aS'3'
aS'1'
aS'4'
aa(lp2614
S'Bill Osborne'
p2615
aS'1975'
p2616
aS'Five-eighth'
p2617
aS'Wanganui'
p2618
aS'16'
p2619
aS'13'
p2620
aS'0'
aS'0'
aa(lp2621
S'Lyn Davis'
p2622
aS'1976'
p2623
aS'Scrum-half'
p2624
aS'Christchurch'
p2625
aS'3'
aS'3'
aS'0'
aS'0'
aa(lp2626
S'Neil Purvis'
p2627
aS'1976'
p2628
aS'Wing'
p2629
aS'Cromwell'
p2630
aS'1'
aS'1'
aS'0'
aS'0'
aa(lp2631
S'Doug Bruce'
p2632
aS'1976'
p2633
aS'Fly-half'
p2634
aS'Dunedin'
p2635
aS'14'
p2636
aS'10'
p2637
aS'0'
aS'15'
p2638
aa(lp2639
S'Kevin Everleigh'
p2640
aS'1976'
p2641
aS'Flanker'
p2642
aS'Palmerston North'
p2643
aS'4'
aS'2'
aS'0'
aS'0'
aa(lp2644
S'Kit Fawcett'
p2645
aS'1976'
p2646
aS'Fullback'
p2647
aS'Matamata'
p2648
aS'2'
aS'1'
aS'0'
aS'0'
aa(lp2649
S'Brad Johnstone'
p2650
aS'1976'
p2651
aS'Prop'
p2652
aS'Auckland'
p2653
aS'13'
p2654
aS'10'
p2655
aS'2'
aS'8'
aa(lp2656
S'Perry Harris'
p2657
aS'1976'
p2658
aS'Prop'
p2659
aS'Feilding'
p2660
aS'1'
aS'0'
aS'0'
aS'0'
aa(lp2661
S'Frank Oliver'
p2662
aS'1976'
p2663
aS'Lock'
p2664
aS'Dunedin'
p2665
aS'17'
p2666
aS'11'
p2667
aS'1'
aS'4'
aa(lp2668
S'Terry Mitchell'
p2669
aS'1976'
p2670
aS'Wing'
p2671
aS'Takara'
p2672
aS'1'
aS'0'
aS'0'
aS'0'
aa(lp2673
S'Colin Farrell'
p2674
aS'1977'
p2675
aS'Fullback'
p2676
aS'Auckland'
p2677
aS'2'
aS'1'
aS'0'
aS'0'
aa(lp2678
S'Andy Haden'
p2679
aS'1977'
p2680
aS'Lock'
p2681
aS'Wanganui'
p2682
aS'41'
p2683
aS'31'
p2684
aS'2'
aS'8'
aa(lp2685
S'Laurie Knight'
p2686
aS'1977'
p2687
aS'No. 8'
p2688
aS'Auckland'
p2689
aS'6'
aS'4'
aS'1'
aS'4'
aa(lp2690
S'Mark Taylor'
p2691
aS'1977'
p2692
aS'Five-eighth'
p2693
aS'Auckland'
p2694
aS'9'
aS'5'
aS'1'
aS'4'
aa(lp2695
S'Brian Ford'
p2696
aS'1977'
p2697
aS'Wing'
p2698
aS'Kaikoura'
p2699
aS'4'
aS'4'
aS'0'
aS'0'
aa(lp2700
S'John McEldowney'
p2701
aS'1977'
p2702
aS'Prop'
p2703
aS'New Plymouth'
p2704
aS'2'
aS'2'
aS'0'
aS'0'
aa(lp2705
S'Graham Mourie'
p2706
aS'1977'
p2707
aS'Flanker'
p2708
aS'Opunake'
p2709
aS'21'
p2710
aS'17'
p2711
aS'4'
aS'16'
p2712
aa(lp2713
S'Bevan Wilson'
p2714
aS'1977'
p2715
aS'Fullback'
p2716
aS'Dunstan'
p2717
aS'8'
aS'5'
aS'0'
aS'55'
p2718
aa(lp2719
S'John Black'
p2720
aS'1977'
p2721
aS'Hooker'
p2722
aS'Timaru'
p2723
aS'3'
aS'0'
aS'0'
aS'0'
aa(lp2724
S'Mark Donaldson'
p2725
aS'1977'
p2726
aS'Scrum-half'
p2727
aS'Palmerston North'
p2728
aS'13'
p2729
aS'9'
aS'1'
aS'4'
aa(lp2730
S'Gary Knight'
p2731
aS'1977'
p2732
aS'Prop'
p2733
aS'Wellington'
p2734
aS'36'
p2735
aS'27'
p2736
aS'1'
aS'4'
aa(lp2737
S'Brian McKechnie'
p2738
aS'1977'
p2739
aS'Fullback'
p2740
aS'Gore'
p2741
aS'10'
p2742
aS'7'
aS'0'
aS'46'
p2743
aa(lp2744
S'Gary Seear'
p2745
aS'1977'
p2746
aS'No. 8'
p2747
aS'Dunedin'
p2748
aS'12'
p2749
aS'8'
aS'2'
aS'11'
p2750
aa(lp2751
S'Stu Wilson'
p2752
aS'1977'
p2753
aS'Wing'
p2754
aS'Gore'
p2755
aS'34'
p2756
aS'25'
p2757
aS'19'
p2758
aS'76'
p2759
aa(lp2760
S'Robbie Stuart'
p2761
aS'1977'
p2762
aS'Lock'
p2763
aS'Napier'
p2764
aS'1'
aS'0'
aS'0'
aS'0'
aa(lp2765
S'Andy Dalton'
p2766
aS'1977'
p2767
aS'Hooker'
p2768
aS'Dunedin'
p2769
aS'35'
p2770
aS'30'
p2771
aS'3'
aS'12'
p2772
aa(lp2773
S'Barry Ashworth'
p2774
aS'1978'
p2775
aS'Flanker'
p2776
aS'Waiuku'
p2777
aS'2'
aS'2'
aS'0'
aS'0'
aa(lp2778
S'John Ashworth'
p2779
aS'1978'
p2780
aS'Prop'
p2781
aS'Makahu'
p2782
aS'24'
p2783
aS'18'
p2784
aS'1'
aS'4'
aa(lp2785
S'Leicester Rutledge'
p2786
aS'1978'
p2787
aS'Flanker'
p2788
aS'Christchurch'
p2789
aS'13'
p2790
aS'8'
aS'0'
aS'0'
aa(lp2791
S'Dick Myers'
p2792
aS'1978'
p2793
aS'Flanker'
p2794
aS'Hamilton'
p2795
aS'1'
aS'0'
aS'0'
aS'0'
aa(lp2796
S'Clive Currie'
p2797
aS'1978'
p2798
aS'Fullback'
p2799
aS'Wellington'
p2800
aS'2'
aS'2'
aS'0'
aS'0'
aa(lp2801
S'David Loveridge'
p2802
aS'1978'
p2803
aS'Scrum-half'
p2804
aS'Stratford'
p2805
aS'24'
p2806
aS'19'
p2807
aS'3'
aS'12'
p2808
aa(lp2809
S'Murray Taylor'
p2810
aS'1979'
p2811
aS'Fly-half'
p2812
aS'Hamilton'
p2813
aS'7'
aS'4'
aS'0'
aS'3'
aa(lp2814
S'Murray Watts'
p2815
aS'1979'
p2816
aS'Wing'
p2817
aS'Patea'
p2818
aS'5'
aS'2'
aS'1'
aS'4'
aa(lp2819
S'Wayne Graham'
p2820
aS'1979'
p2821
aS'Flanker'
p2822
aS'Tauranga'
p2823
aS'1'
aS'1'
aS'0'
aS'0'
aa(lp2824
S'Gary Cunningham'
p2825
aS'1979'
p2826
aS'Five-eighth'
p2827
aS'Auckland'
p2828
aS'5'
aS'3'
aS'0'
aS'0'
aa(lp2829
S'Mike McCool'
p2830
aS'1979'
p2831
aS'Lock'
p2832
aS'Hastings'
p2833
aS'1'
aS'0'
aS'0'
aS'0'
aa(lp2834
S'Eddie Dunn'
p2835
aS'1979'
p2836
aS'Fly-half'
p2837
aS'Te Kopuru'
p2838
aS'2'
aS'2'
aS'1'
aS'4'
aa(lp2839
S'John Fleming'
p2840
aS'1979'
p2841
aS'Lock'
p2842
aS'Auckland'
p2843
aS'5'
aS'3'
aS'1'
aS'4'
aa(lp2844
S'Bernie Fraser'
p2845
aS'1979'
p2846
aS'Wing'
p2847
aS'Lautoka'
p2848
aS'23'
p2849
aS'17'
p2850
aS'6'
aS'24'
p2851
aa(lp2852
S'Murray Mexted'
p2853
aS'1979'
p2854
aS'No. 8'
p2855
aS'Wellington'
p2856
aS'34'
p2857
aS'26'
p2858
aS'4'
aS'16'
p2859
aa(lp2860
S'John Spiers'
p2861
aS'1979'
p2862
aS'Prop'
p2863
aS'Otahuhu'
p2864
aS'5'
aS'5'
aS'0'
aS'0'
aa(lp2865
S'Richard Wilson'
p2866
aS'1979'
p2867
aS'Fullback'
p2868
aS'Leeston'
p2869
aS'2'
aS'2'
aS'0'
aS'10'
p2870
aa(lp2871
S'Peter Sloane'
p2872
aS'1979'
p2873
aS'Hooker'
p2874
aS'Whangarei'
p2875
aS'1'
aS'1'
aS'0'
aS'0'
aa(lp2876
S'Brett Codlin'
p2877
aS'1980'
p2878
aS'Fullback'
p2879
aS'Pukekohe'
p2880
aS'3'
aS'1'
aS'0'
aS'23'
p2881
aa(lp2882
S'Hika Reid'
p2883
aS'1980'
p2884
aS'Hooker'
p2885
aS'Rotorua'
p2886
aS'9'
aS'4'
aS'2'
aS'8'
aa(lp2887
S'Mark Shaw'
p2888
aS'1980'
p2889
aS'Flanker'
p2890
aS'Palmerston North'
p2891
aS'30'
p2892
aS'21'
p2893
aS'6'
aS'24'
p2894
aa(lp2895
S'Wayne Smith'
p2896
aS'1980'
p2897
aS'Fly-half'
p2898
aS'Putaruru'
p2899
aS'17'
p2900
aS'11'
p2901
aS'0'
aS'6'
aa(lp2902
S'Tim Twigden'
p2903
aS'1980'
p2904
aS'Wing'
p2905
aS'Taumarunui'
p2906
aS'2'
aS'1'
aS'0'
aS'0'
aa(lp2907
S'Nicky Allen'
p2908
aS'1980'
p2909
aS'Fly-half'
p2910
aS'Auckland'
p2911
aS'2'
aS'1'
aS'1'
aS'4'
aa(lp2912
S'Lachlan Cameron'
p2913
aS'1980'
p2914
aS'Five-eighth'
p2915
aS'Hamilton'
p2916
aS'5'
aS'3'
aS'0'
aS'0'
aa(lp2917
S'Geoffrey Hines'
p2918
aS'1980'
p2919
aS'Flanker'
p2920
aS'Tokoroa'
p2921
aS'1'
aS'0'
aS'0'
aS'0'
aa(lp2922
S'Graeme Higginson'
p2923
aS'1980'
p2924
aS'Lock'
p2925
aS'Rangiora'
p2926
aS'6'
aS'5'
aS'0'
aS'0'
aa(lp2927
S'Rod Ketels'
p2928
aS'1980'
p2929
aS'Prop'
p2930
aS'Papakura'
p2931
aS'5'
aS'5'
aS'0'
aS'0'
aa(lp2932
S'Douglas Rollerson'
p2933
aS'1980'
p2934
aS'Fly-half'
p2935
aS'Papakura'
p2936
aS'8'
aS'7'
aS'1'
aS'24'
p2937
aa(lp2938
S'Allan Hewson'
p2939
aS'1981'
p2940
aS'Fullback'
p2941
aS'Lower Hutt'
p2942
aS'19'
p2943
aS'16'
p2944
aS'4'
aS'201'
p2945
aa(lp2946
S'Andy Jefferd'
p2947
aS'1981'
p2948
aS'Five-eighth'
p2949
aS'Gisborne'
p2950
aS'3'
aS'3'
aS'0'
aS'0'
aa(lp2951
S'Haydn Rickit'
p2952
aS'1981'
p2953
aS'Lock'
p2954
aS'Taupo'
p2955
aS'2'
aS'2'
aS'0'
aS'0'
aa(lp2956
S'Freddy Woodman'
p2957
aS'1981'
p2958
aS'Wing'
p2959
aS'Kaikohe'
p2960
aS'3'
aS'2'
aS'0'
aS'0'
aa(lp2961
S'Greg Burgess'
p2962
aS'1981'
p2963
aS'Prop'
p2964
aS'Auckland'
p2965
aS'1'
aS'0'
aS'0'
aS'0'
aa(lp2966
S'Geoff Old'
p2967
aS'1981'
p2968
aS'Flanker'
p2969
aS'Eltham'
p2970
aS'3'
aS'3'
aS'0'
aS'0'
aa(lp2971
S'Steve Pokere'
p2972
aS'1981'
p2973
aS'Centre'
p2974
aS'Hawera'
p2975
aS'18'
p2976
aS'15'
p2977
aS'2'
aS'8'
aa(lp2978
S'Frank Shelford'
p2979
aS'1981'
p2980
aS'Flanker'
p2981
aS'Waioeka'
p2982
aS'4'
aS'4'
aS'0'
aS'0'
aa(lp2983
S'Gary Whetton'
p2984
aS'1981'
p2985
aS'Lock'
p2986
aS'Auckland'
p2987
aS'58'
p2988
aS'50'
p2989
aS'1'
aS'4'
aa(lp2990
S'Jamie Salmon'
p2991
aS'1981'
p2992
aS'Centre'
p2993
aS'1959'
p2994
aS'15'
p2995
aS'7'
aS'2'
aS'8'
aa(lp2996
S'Arthur Stone'
p2997
aS'1981'
p2998
aS'Five-eighth'
p2999
aS'Auckland'
p3000
aS'9'
aS'6'
aS'1'
aS'7'
aa(lp3001
S'Paul Koteka'
p3002
aS'1981'
p3003
aS'Prop'
p3004
aS'Tokoroa'
p3005
aS'2'
aS'2'
aS'0'
aS'0'
aa(lp3006
S'Ian Dunn'
p3007
aS'1983'
p3008
aS'Fly-half'
p3009
aS'Te Kopuru'
p3010
aS'3'
aS'3'
aS'0'
aS'0'
aa(lp3011
S'Jock Hobbs'
p3012
aS'1983'
p3013
aS'Flanker'
p3014
aS'Christchurch'
p3015
aS'21'
p3016
aS'15'
p3017
aS'4'
aS'16'
p3018
aa(lp3019
S'Warwick Taylor'
p3020
aS'1983'
p3021
aS'Five-eighth'
p3022
aS'Hamilton'
p3023
aS'24'
p3024
aS'21'
p3025
aS'5'
aS'20'
p3026
aa(lp3027
S'Albert Anderson'
p3028
aS'1983'
p3029
aS'Lock'
p3030
aS'Christchurch'
p3031
aS'6'
aS'3'
aS'0'
aS'0'
aa(lp3032
S'Gary Braid'
p3033
aS'1983'
p3034
aS'Lock'
p3035
aS'Tauranga'
p3036
aS'2'
aS'0'
aS'0'
aS'0'
aa(lp3037
S'Scott Crichton'
p3038
aS'1983'
p3039
aS'Prop'
p3040
aS'Wanganui'
p3041
aS'2'
aS'0'
aS'0'
aS'0'
aa(lp3042
S'Robbie Deans'
p3043
aS'1983'
p3044
aS'Fullback'
p3045
aS'Cheviot'
p3046
aS'5'
aS'2'
aS'0'
aS'50'
p3047
aa(lp3048
S'Andy Donald'
p3049
aS'1983'
p3050
aS'Scrum-half'
p3051
aS'Wanganui'
p3052
aS'7'
aS'4'
aS'0'
aS'0'
aa(lp3053
S'Brian McGrattan'
p3054
aS'1983'
p3055
aS'Prop'
p3056
aS'Wellington'
p3057
aS'6'
aS'2'
aS'0'
aS'0'
aa(lp3058
S'Craig Green'
p3059
aS'1983'
p3060
aS'Wing'
p3061
aS'Christchurch'
p3062
aS'20'
p3063
aS'14'
p3064
aS'11'
p3065
aS'44'
p3066
aa(lp3067
S'Murray Davie'
p3068
aS'1983'
p3069
aS'Prop'
p3070
aS'Christchurch'
p3071
aS'1'
aS'0'
aS'1'
aS'4'
aa(lp3072
S'John Kirwan'
p3073
aS'1984'
p3074
aS'Wing'
p3075
aS'Auckland'
p3076
aS'63'
p3077
aS'48'
p3078
aS'35'
p3079
aS'143'
p3080
aa(lp3081
S'Bruce Smith'
p3082
aS'1984'
p3083
aS'Wing'
p3084
aS'Wairoa'
p3085
aS'3'
aS'2'
aS'1'
aS'4'
aa(lp3086
S'Alan Whetton'
p3087
aS'1984'
p3088
aS'Flanker'
p3089
aS'Auckland'
p3090
aS'35'
p3091
aS'31'
p3092
aS'10'
p3093
aS'40'
p3094
aa(lp3095
S'Michael Clamp'
p3096
aS'1984'
p3097
aS'Wing'
p3098
aS'Wellington'
p3099
aS'2'
aS'2'
aS'1'
aS'4'
aa(lp3100
S'Kieran Crowley'
p3101
aS'1985'
p3102
aS'Fullback'
p3103
aS'Kaponga'
p3104
aS'19'
p3105
aS'14'
p3106
aS'5'
aS'105'
p3107
aa(lp3108
S'David Kirk'
p3109
aS'1985'
p3110
aS'Scrum-half'
p3111
aS'Wellington'
p3112
aS'17'
p3113
aS'14'
p3114
aS'6'
aS'24'
p3115
aa(lp3116
S'Murray Pierce'
p3117
aS'1985'
p3118
aS'Lock'
p3119
aS'Timaru'
p3120
aS'26'
p3121
aS'23'
p3122
aS'0'
aS'0'
aa(lp3123
S'Grant Fox'
p3124
aS'1985'
p3125
aS'Fly-half'
p3126
aS'New Plymouth'
p3127
aS'46'
p3128
aS'38'
p3129
aS'1'
aS'645'
p3130
aa(lp3131
S'Steve McDowall'
p3132
aS'1985'
p3133
aS'Prop'
p3134
aS'Rotorua'
p3135
aS'46'
p3136
aS'38'
p3137
aS'3'
aS'12'
p3138
aa(lp3139
S'Victor Simpson'
p3140
aS'1985'
p3141
aS'Centre'
p3142
aS'Gisborne'
p3143
aS'2'
aS'1'
aS'0'
aS'0'
aa(lp3144
S'Kevin Boroevich'
p3145
aS'1986'
p3146
aS'Prop'
p3147
aS'Te Kuiti'
p3148
aS'3'
aS'1'
aS'0'
aS'0'
aa(lp3149
S'Frano Botica'
p3150
aS'1986'
p3151
aS'Fly-half'
p3152
aS'Mangakino'
p3153
aS'7'
aS'4'
aS'0'
aS'6'
aa(lp3154
S'Mike Brewer'
p3155
aS'1986'
p3156
aS'Back-row'
p3157
aS'Pukekohe'
p3158
aS'32'
p3159
aS'22'
p3160
aS'1'
aS'4'
aa(lp3161
S'Mark Brooke-Cowden'
p3162
aS'1986'
p3163
aS'Flanker'
p3164
aS'Auckland'
p3165
aS'3'
aS'2'
aS'2'
aS'8'
aa(lp3166
S'Greg Cooper'
p3167
aS'1986'
p3168
aS'Fullback'
p3169
aS'Gisborne'
p3170
aS'7'
aS'5'
aS'2'
aS'63'
p3171
aa(lp3172
S'Andy Earl'
p3173
aS'1986'
p3174
aS'Flanker'
p3175
aS'Christchurch'
p3176
aS'14'
p3177
aS'10'
p3178
aS'3'
aS'12'
p3179
aa(lp3180
S'Sean Fitzpatrick'
p3181
aS'1986'
p3182
aS'Hooker'
p3183
aS'Auckland'
p3184
aS'92'
p3185
aS'74'
p3186
aS'12'
p3187
aS'55'
p3188
aa(lp3189
S'Brett Harvey'
p3190
aS'1986'
p3191
aS'Flanker'
p3192
aS'Palmerston North'
p3193
aS'1'
aS'1'
aS'0'
aS'0'
aa(lp3194
S'Gordon Macpherson'
p3195
aS'1986'
p3196
aS'Lock'
p3197
aS'Gisborne'
p3198
aS'1'
aS'1'
aS'0'
aS'0'
aa(lp3199
S'Joe Stanley'
p3200
aS'1986'
p3201
aS'Centre'
p3202
aS'Auckland'
p3203
aS'27'
p3204
aS'23'
p3205
aS'4'
aS'16'
p3206
aa(lp3207
S'Terry Wright'
p3208
aS'1986'
p3209
aS'Wing'
p3210
aS'Takapuna'
p3211
aS'30'
p3212
aS'26'
p3213
aS'18'
p3214
aS'72'
p3215
aa(lp3216
S'Brent Anderson'
p3217
aS'1986'
p3218
aS'Lock'
p3219
aS'Lower Hutt'
p3220
aS'1'
aS'0'
aS'0'
aS'0'
aa(lp3221
S'Michael Speight'
p3222
aS'1986'
p3223
aS'Lock'
p3224
aS'Auckland'
p3225
aS'1'
aS'0'
aS'0'
aS'0'
aa(lp3226
S'Marty Berry'
p3227
aS'1986'
p3228
aS'Fly-half, Centre'
p3229
aS'Wellington'
p3230
aS'1'
aS'0'
aS'0'
aS'0'
aa(lp3231
S'John Drake'
p3232
aS'1986'
p3233
aS'Prop'
p3234
aS'Auckland'
p3235
aS'8'
aS'7'
aS'1'
aS'4'
aa(lp3236
S'Buck Shelford'
p3237
aS'1986'
p3238
aS'No. 8'
p3239
aS'Rotorua'
p3240
aS'22'
p3241
aS'20'
p3242
aS'5'
aS'20'
p3243
aa(lp3244
S'John Gallagher'
p3245
aS'1987'
p3246
aS'Fullback'
p3247
aS'London'
p3248
aS'18'
p3249
aS'17'
p3250
aS'13'
p3251
aS'52'
p3252
aa(lp3253
S'Michael Jones'
p3254
aS'1986'
p3255
aS'Flanker'
p3256
aS'Auckland'
p3257
aS'56'
p3258
aS'43'
p3259
aS'13'
p3260
aS'56'
p3261
aa(lp3262
S'Richard Loe'
p3263
aS'1987'
p3264
aS'Prop'
p3265
aS'Chevot'
p3266
aS'49'
p3267
aS'37'
p3268
aS'6'
aS'25'
p3269
aa(lp3270
S'Zinzan Brooke'
p3271
aS'1987'
p3272
aS'No. 8'
p3273
aS'Waiuku'
p3274
aS'58'
p3275
aS'45'
p3276
aS'17'
p3277
aS'89'
p3278
aa(lp3279
S'Bernie McCahill'
p3280
aS'1987'
p3281
aS'Five-eighth'
p3282
aS'Auckland'
p3283
aS'10'
p3284
aS'9'
aS'1'
aS'4'
aa(lp3285
S'Bruce Deans'
p3286
aS'1988'
p3287
aS'Scrum-half'
p3288
aS'Cheviot'
p3289
aS'10'
p3290
aS'9'
aS'6'
aS'24'
p3291
aa(lp3292
S'John Schuster'
p3293
aS'1988'
p3294
aS'Centre'
p3295
aS'Western Samoa'
p3296
aS'13'
p3297
aS'10'
p3298
aS'1'
aS'21'
p3299
aa(lp3300
S'Graeme Bachop'
p3301
aS'1989'
p3302
aS'Scrum-half'
p3303
aS'Christchurch'
p3304
aS'39'
p3305
aS'28'
p3306
aS'4'
aS'18'
p3307
aa(lp3308
S'Craig Innes'
p3309
aS'1989'
p3310
aS'Centre'
p3311
aS'New Plymouth'
p3312
aS'17'
p3313
aS'14'
p3314
aS'6'
aS'24'
p3315
aa(lp3316
S'Ian Jones'
p3317
aS'1990'
p3318
aS'Lock'
p3319
aS'Whangarei'
p3320
aS'79'
p3321
aS'59'
p3322
aS'9'
aS'42'
p3323
aa(lp3324
S'Walter Little'
p3325
aS'1990'
p3326
aS'Five-eighth'
p3327
aS'Tokoroa'
p3328
aS'50'
p3329
aS'37'
p3330
aS'9'
aS'44'
p3331
aa(lp3332
S'Kevin Schuler'
p3333
aS'1990'
p3334
aS'Flanker'
p3335
aS'Te Aroha'
p3336
aS'4'
aS'3'
aS'0'
aS'0'
aa(lp3337
S'Paul Henderson'
p3338
aS'1991'
p3339
aS'No. 8'
p3340
aS'Bluff'
p3341
aS'7'
aS'6'
aS'2'
aS'9'
aa(lp3342
S'John Timu'
p3343
aS'1991'
p3344
aS'Fullback'
p3345
aS'Dannevirke'
p3346
aS'26'
p3347
aS'16'
p3348
aS'7'
aS'31'
p3349
aa(lp3350
S'Mark Carter'
p3351
aS'1991'
p3352
aS'Flanker'
p3353
aS'Auckland'
p3354
aS'7'
aS'5'
aS'0'
aS'0'
aa(lp3355
S'Jon Preston'
p3356
aS'1991'
p3357
aS'Scrum-half'
p3358
aS'Dunedin'
p3359
aS'10'
p3360
aS'9'
aS'1'
aS'34'
p3361
aa(lp3362
S'Graham Purvis'
p3363
aS'1991'
p3364
aS'Prop'
p3365
aS'Waihi'
p3366
aS'2'
aS'2'
aS'1'
aS'4'
aa(lp3367
S'Inga Tuigamala'
p3368
aS'1991'
p3369
aS'Wing, Centre'
p3370
aS'Western Samoa'
p3371
aS'41'
p3372
aS'27'
p3373
aS'8'
aS'36'
p3374
aa(lp3375
S'Jason Hewett'
p3376
aS'1991'
p3377
aS'Scrum-half'
p3378
aS'Clyde'
p3379
aS'1'
aS'1'
aS'1'
aS'4'
aa(lp3380
S'Shayne Philpott'
p3381
aS'1991'
p3382
aS'Fullback'
p3383
aS'Christchurch'
p3384
aS'2'
aS'2'
aS'0'
aS'0'
aa(lp3385
S'Frank Bunce'
p3386
aS'1991'
p3387
aS'Centre'
p3388
aS'Auckland'
p3389
aS'59'
p3390
aS'44'
p3391
aS'21'
p3392
aS'100'
p3393
aa(lp3394
S'Mark Cooksley'
p3395
aS'1992'
p3396
aS'Lock'
p3397
aS'Auckland'
p3398
aS'11'
p3399
aS'5'
aS'0'
aS'0'
aa(lp3400
S'Richard Turner'
p3401
aS'1992'
p3402
aS'Flanker'
p3403
aS'Napier'
p3404
aS'2'
aS'1'
aS'1'
aS'4'
aa(lp3405
S'Arran Pene'
p3406
aS'1992'
p3407
aS'No. 8'
p3408
aS'Hamilton'
p3409
aS'15'
p3410
aS'9'
aS'4'
aS'16'
p3411
aa(lp3412
S'Eroni Clarke'
p3413
aS'1992'
p3414
aS'Five-eighth'
p3415
aS'Western Samoa'
p3416
aS'10'
p3417
aS'6'
aS'6'
aS'25'
p3418
aa(lp3419
S'Jamie Joseph'
p3420
aS'1992'
p3421
aS'Flanker'
p3422
aS'Blenheim'
p3423
aS'29'
p3424
aS'21'
p3425
aS'3'
aS'15'
p3426
aa(lp3427
S'Blair Larsen'
p3428
aS'1992'
p3429
aS'Flanker'
p3430
aS'Northshore'
p3431
aS'17'
p3432
aS'12'
p3433
aS'1'
aS'4'
aa(lp3434
S'Ant Strachan'
p3435
aS'1992'
p3436
aS'Scrum-half'
p3437
aS'Te Awamutu'
p3438
aS'11'
p3439
aS'8'
aS'2'
aS'8'
aa(lp3440
S'Graham Dowd'
p3441
aS'1992'
p3442
aS'Prop'
p3443
aS'Takapuna'
p3444
aS'1'
aS'1'
aS'0'
aS'0'
aa(lp3445
S'Robin Brooke'
p3446
aS'1992'
p3447
aS'Lock'
p3448
aS'Warkworth'
p3449
aS'62'
p3450
aS'47'
p3451
aS'4'
aS'20'
p3452
aa(lp3453
S'Olo Brown'
p3454
aS'1992'
p3455
aS'Prop'
p3456
aS'Western Samoa'
p3457
aS'56'
p3458
aS'40'
p3459
aS'4'
aS'20'
p3460
aa(lp3461
S'Matthew Cooper'
p3462
aS'1992'
p3463
aS'Five-eighth'
p3464
aS'Gisborne'
p3465
aS'8'
aS'6'
aS'2'
aS'55'
p3466
aa(lp3467
S'Craig Dowd'
p3468
aS'1993'
p3469
aS'Prop'
p3470
aS'Auckland'
p3471
aS'60'
p3472
aS'47'
p3473
aS'2'
aS'10'
p3474
aa(lp3475
S'Lee Stensness'
p3476
aS'1993'
p3477
aS'Centre, Five-eighth'
p3478
aS'Auckland'
p3479
aS'8'
aS'8'
aS'3'
aS'15'
p3480
aa(lp3481
S'Bull Allen'
p3482
aS'1993'
p3483
aS'Prop'
p3484
aS'Stratford'
p3485
aS'8'
aS'7'
aS'1'
aS'5'
aa(lp3486
S'Marc Ellis'
p3487
aS'1993'
p3488
aS'Wing'
p3489
aS'Wellington'
p3490
aS'8'
aS'6'
aS'11'
p3491
aS'55'
p3492
aa(lp3493
S'Stu Forster'
p3494
aS'1993'
p3495
aS'Scrum-half'
p3496
aS'Pahiatua'
p3497
aS'6'
aS'2'
aS'0'
aS'0'
aa(lp3498
S'Steve Gordon'
p3499
aS'1993'
p3500
aS'Lock'
p3501
aS'Te Awamutu'
p3502
aS'2'
aS'1'
aS'0'
aS'0'
aa(lp3503
S'Jeff Wilson'
p3504
aS'1993'
p3505
aS'Wing'
p3506
aS'Invercargill'
p3507
aS'60'
p3508
aS'45'
p3509
aS'44'
p3510
aS'234'
p3511
aa(lp3512
S'Jonah Lomu'
p3513
aS'1994'
p3514
aS'Wing'
p3515
aS'Auckland'
p3516
aS'63'
p3517
aS'44'
p3518
aS'37'
p3519
aS'185'
p3520
aa(lp3521
S'Simon Mannix'
p3522
aS'1994'
p3523
aS'Fly-half'
p3524
aS'Lower Hutt'
p3525
aS'1'
aS'0'
aS'0'
aS'0'
aa(lp3526
S'Stephen Bachop'
p3527
aS'1991'
p3528
aS'Fly-half'
p3529
aS'Lyttelton'
p3530
aS'23'
p3531
aS'12'
p3532
aS'4'
aS'64'
p3533
aa(lp3534
S'Shane Howarth'
p3535
aS'1994'
p3536
aS'Fly-half, Fullback'
p3537
aS'Auckland'
p3538
aS'23'
p3539
aS'14'
p3540
aS'5'
aS'77'
p3541
aa(lp3542
S'Alama Ieremia'
p3543
aS'1992'
p3544
aS'Five-eighth'
p3545
aS'Western Samoa'
p3546
aS'35'
p3547
aS'27'
p3548
aS'5'
aS'25'
p3549
aa(lp3550
S'Josh Kronfeld'
p3551
aS'1995'
p3552
aS'Flanker'
p3553
aS'Hastings'
p3554
aS'54'
p3555
aS'42'
p3556
aS'14'
p3557
aS'70'
p3558
aa(lp3559
S'Andrew Mehrtens'
p3560
aS'1995'
p3561
aS'Fly-half'
p3562
aS'Durban'
p3563
aS'70'
p3564
aS'49'
p3565
aS'7'
aS'967'
p3566
aa(lp3567
S'Glen Osborne'
p3568
aS'1995'
p3569
aS'Fullback'
p3570
aS'Wanganui'
p3571
aS'19'
p3572
aS'16'
p3573
aS'11'
p3574
aS'55'
p3575
aa(lp3576
S'Norm Hewitt'
p3577
aS'1995'
p3578
aS'Hooker'
p3579
aS'Hastings'
p3580
aS'9'
aS'8'
aS'0'
aS'0'
aa(lp3581
S'Eric Rush'
p3582
aS'1995'
p3583
aS'Wing'
p3584
aS'Auckland'
p3585
aS'9'
aS'8'
aS'5'
aS'25'
p3586
aa(lp3587
S'Simon Culhane'
p3588
aS'1995'
p3589
aS'Fly-half'
p3590
aS'Invercargill'
p3591
aS'6'
aS'5'
aS'1'
aS'114'
p3592
aa(lp3593
S'Liam Barry'
p3594
aS'1995'
p3595
aS'Flanker'
p3596
aS'Takapuna'
p3597
aS'1'
aS'1'
aS'0'
aS'0'
aa(lp3598
S'Justin Marshall'
p3599
aS'1995'
p3600
aS'Scrum-half'
p3601
aS'Mataura'
p3602
aS'81'
p3603
aS'61'
p3604
aS'24'
p3605
aS'120'
p3606
aa(lp3607
S'Christian Cullen'
p3608
aS'1996'
p3609
aS'Fullback'
p3610
aS'Paraparaumu'
p3611
aS'58'
p3612
aS'42'
p3613
aS'46'
p3614
aS'236'
p3615
aa(lp3616
S'Scott McLeod'
p3617
aS'1996'
p3618
aS'Centre'
p3619
aS'S Brisbane'
p3620
aS'10'
p3621
aS'7'
aS'1'
aS'5'
aa(lp3622
S'Adrian Cashmore'
p3623
aS'1996'
p3624
aS'Fullback'
p3625
aS'Tokoroa'
p3626
aS'2'
aS'2'
aS'0'
aS'0'
aa(lp3627
S'Andrew Blowers'
p3628
aS'1996'
p3629
aS'Back-row'
p3630
aS'Otahuhu'
p3631
aS'11'
p3632
aS'10'
p3633
aS'0'
aS'0'
aa(lp3634
S'Glenn Taylor'
p3635
aS'1996'
p3636
aS'Flanker'
p3637
aS'Whangarei'
p3638
aS'1'
aS'0'
aS'0'
aS'0'
aa(lp3639
S'Taine Randell'
p3640
aS'1997'
p3641
aS'Back-row'
p3642
aS'Hastings'
p3643
aS'51'
p3644
aS'35'
p3645
aS'12'
p3646
aS'60'
p3647
aa(lp3648
S'Tana Umaga'
p3649
aS'1997'
p3650
aS'Wing, Centre'
p3651
aS'Lower Hutt'
p3652
aS'74'
p3653
aS'59'
p3654
aS'36'
p3655
aS'180'
p3656
aa(lp3657
S'Anton Oliver'
p3658
aS'1997'
p3659
aS'Hooker'
p3660
aS'Invercargill'
p3661
aS'59'
p3662
aS'42'
p3663
aS'3'
aS'15'
p3664
aa(lp3665
S'Charles Riechelmann'
p3666
aS'1997'
p3667
aS'Flanker'
p3668
aS"Nuku'alofa"
p3669
aS'6'
aS'5'
aS'1'
aS'5'
aa(lp3670
S"Junior Tonu'u"
p3671
aS'1992'
p3672
aS'Scrum-half'
p3673
aS'Wellington'
p3674
aS'9'
aS'7'
aS'1'
aS'5'
aa(lp3675
S'Carlos Spencer'
p3676
aS'1997'
p3677
aS'Fullback, Fly-half'
p3678
aS'Levin'
p3679
aS'35'
p3680
aS'27'
p3681
aS'14'
p3682
aS'291'
p3683
aa(lp3684
S'Mark Mayerhofler'
p3685
aS'1998'
p3686
aS'Centre'
p3687
aS'Auckland'
p3688
aS'6'
aS'2'
aS'2'
aS'10'
p3689
aa(lp3690
S'Todd Blackadder'
p3691
aS'1998'
p3692
aS'Lock, Flanker'
p3693
aS'Rangiora'
p3694
aS'12'
p3695
aS'9'
aS'1'
aS'5'
aa(lp3696
S'Mark Robinson'
p3697
aS'1998'
p3698
aS'Scrum-half'
p3699
aS'Palmerston North'
p3700
aS'3'
aS'3'
aS'1'
aS'5'
aa(lp3701
S'Caleb Ralph'
p3702
aS'1998'
p3703
aS'Centre, Wing'
p3704
aS'Rotorua'
p3705
aS'14'
p3706
aS'12'
p3707
aS'8'
aS'40'
p3708
aa(lp3709
S'Carl Hoeft'
p3710
aS'1998'
p3711
aS'Prop'
p3712
aS'Auckland'
p3713
aS'30'
p3714
aS'20'
p3715
aS'0'
aS'0'
aa(lp3716
S'Isitolo Maka'
p3717
aS'1998'
p3718
aS'No. 8'
p3719
aS'Longoteme'
p3720
aS'4'
aS'1'
aS'1'
aS'5'
aa(lp3721
S'Joeli Vidiri'
p3722
aS'1994'
p3723
aS'Wing'
p3724
aS'Nausori Highland'
p3725
aS'9'
aS'2'
aS'6'
aS'30'
p3726
aa(lp3727
S'Scott Robertson'
p3728
aS'1998'
p3729
aS'No. 8'
p3730
aS'Tauranga'
p3731
aS'23'
p3732
aS'17'
p3733
aS'4'
aS'20'
p3734
aa(lp3735
S'Royce Willis'
p3736
aS'1998'
p3737
aS'Lock'
p3738
aS'Tokoroa'
p3739
aS'12'
p3740
aS'7'
aS'0'
aS'0'
aa(lp3741
S'Norm Berryman'
p3742
aS'1998'
p3743
aS'Centre'
p3744
aS'Wellington'
p3745
aS'1'
aS'0'
aS'0'
aS'0'
aa(lp3746
S'Kees Meeuws'
p3747
aS'1998'
p3748
aS'Prop'
p3749
aS'Auckland'
p3750
aS'42'
p3751
aS'31'
p3752
aS'10'
p3753
aS'50'
p3754
aa(lp3755
S'Xavier Rush'
p3756
aS'1998'
p3757
aS'No. 8'
p3758
aS'Auckland'
p3759
aS'8'
aS'5'
aS'0'
aS'0'
aa(lp3760
S'Tony Brown'
p3761
aS'1999'
p3762
aS'Fly-half'
p3763
aS'Blenheim'
p3764
aS'18'
p3765
aS'15'
p3766
aS'5'
aS'171'
p3767
aa(lp3768
S'Daryl Gibson'
p3769
aS'1999'
p3770
aS'Centre'
p3771
aS'Lumsden'
p3772
aS'19'
p3773
aS'15'
p3774
aS'1'
aS'5'
aa(lp3775
S'Norm Maxwell'
p3776
aS'1999'
p3777
aS'Lock'
p3778
aS'Rawene'
p3779
aS'36'
p3780
aS'28'
p3781
aS'5'
aS'25'
p3782
aa(lp3783
S'Dylan Mika'
p3784
aS'1994'
p3785
aS'Back-row'
p3786
aS'Auckland'
p3787
aS'9'
aS'6'
aS'1'
aS'5'
aa(lp3788
S'Greg Feek'
p3789
aS'1999'
p3790
aS'Prop'
p3791
aS'New Plymouth'
p3792
aS'10'
p3793
aS'9'
aS'0'
aS'0'
aa(lp3794
S'Byron Kelleher'
p3795
aS'1999'
p3796
aS'Scrum-half'
p3797
aS'Dunedin'
p3798
aS'57'
p3799
aS'46'
p3800
aS'8'
aS'40'
p3801
aa(lp3802
S'Pita Alatini'
p3803
aS'1995'
p3804
aS'Centre'
p3805
aS"Nuku'alofa"
p3806
aS'18'
p3807
aS'13'
p3808
aS'6'
aS'30'
p3809
aa(lp3810
S'Mark Hammett'
p3811
aS'1999'
p3812
aS'Hooker'
p3813
aS'Christchurch'
p3814
aS'29'
p3815
aS'25'
p3816
aS'3'
aS'15'
p3817
aa(lp3818
S'Reuben Thorne'
p3819
aS'1999'
p3820
aS'Flanker, Lock'
p3821
aS'Burwood'
p3822
aS'50'
p3823
aS'42'
p3824
aS'5'
aS'25'
p3825
aa(lp3826
S'Rhys Duggan'
p3827
aS'1999'
p3828
aS'Scrum-half'
p3829
aS'Rotorua'
p3830
aS'1'
aS'1'
aS'0'
aS'0'
aa(lp3831
S'Troy Flavell'
p3832
aS'2000'
p3833
aS'Lock'
p3834
aS'Otahuhu'
p3835
aS'22'
p3836
aS'17'
p3837
aS'6'
aS'30'
p3838
aa(lp3839
S'Greg Somerville'
p3840
aS'2000'
p3841
aS'Prop'
p3842
aS'Wairoa'
p3843
aS'66'
p3844
aS'55'
p3845
aS'1'
aS'5'
aa(lp3846
S'Doug Howlett'
p3847
aS'2000'
p3848
aS'Wing'
p3849
aS'Auckland'
p3850
aS'62'
p3851
aS'51'
p3852
aS'49'
p3853
aS'245'
p3854
aa(lp3855
S'Filo Tiatia'
p3856
aS'2000'
p3857
aS'Back-row, Lock'
p3858
aS'Wellington'
p3859
aS'2'
aS'2'
aS'2'
aS'10'
p3860
aa(lp3861
S'Ron Cribb'
p3862
aS'2000'
p3863
aS'No. 8'
p3864
aS'Wanganui'
p3865
aS'15'
p3866
aS'10'
p3867
aS'4'
aS'20'
p3868
aa(lp3869
S'Leon MacDonald'
p3870
aS'2000'
p3871
aS'Fly-half'
p3872
aS'Blenheim'
p3873
aS'56'
p3874
aS'48'
p3875
aS'14'
p3876
aS'141'
p3877
aa(lp3878
S'Mark Robinson'
p3879
aS'2000'
p3880
aS'Centre'
p3881
aS'Stratford'
p3882
aS'9'
aS'7'
aS'1'
aS'5'
aa(lp3883
S'Gordon Slater'
p3884
aS'2000'
p3885
aS'Prop'
p3886
aS'New Plymouth'
p3887
aS'3'
aS'2'
aS'1'
aS'5'
aa(lp3888
S'Bruce Reihana'
p3889
aS'2000'
p3890
aS'Fullback'
p3891
aS'Thames'
p3892
aS'2'
aS'1'
aS'2'
aS'10'
p3893
aa(lp3894
S"Jason O'Halloran"
p3895
aS'2000'
p3896
aS'Five-eighth'
p3897
aS'Lower Hutt'
p3898
aS'1'
aS'1'
aS'0'
aS'0'
aa(lp3899
S'Marty Holah'
p3900
aS'2001'
p3901
aS'Flanker'
p3902
aS'Hamilton'
p3903
aS'36'
p3904
aS'27'
p3905
aS'3'
aS'15'
p3906
aa(lp3907
S'Carl Hayman'
p3908
aS'2001'
p3909
aS'Prop'
p3910
aS'Opunake'
p3911
aS'45'
p3912
aS'36'
p3913
aS'2'
aS'10'
p3914
aa(lp3915
S'Mark Ranby'
p3916
aS'2001'
p3917
aS'Centre'
p3918
aS'Putaruhu'
p3919
aS'1'
aS'1'
aS'0'
aS'0'
aa(lp3920
S'Jerry Collins'
p3921
aS'2001'
p3922
aS'Flanker'
p3923
aS'Western Samoa'
p3924
aS'48'
p3925
aS'42'
p3926
aS'5'
aS'25'
p3927
aa(lp3928
S'Chris Jack'
p3929
aS'2001'
p3930
aS'Lock'
p3931
aS'Christchurch'
p3932
aS'67'
p3933
aS'57'
p3934
aS'5'
aS'25'
p3935
aa(lp3936
S'Richie McCaw'
p3937
aS'2001'
p3938
aS'Flanker'
p3939
aS'Oamaru'
p3940
aS'137'
p3941
aS'121'
p3942
aS'25'
p3943
aS'125'
p3944
aa(lp3945
S'Aaron Mauger'
p3946
aS'2001'
p3947
aS'Centre'
p3948
aS'Christchurch'
p3949
aS'45'
p3950
aS'39'
p3951
aS'13'
p3952
aS'90'
p3953
aa(lp3954
S'Dave Hewett'
p3955
aS'2001'
p3956
aS'Prop'
p3957
aS'Christchurch'
p3958
aS'22'
p3959
aS'19'
p3960
aS'2'
aS'10'
p3961
aa(lp3962
S'Ben Blair'
p3963
aS'2001'
p3964
aS'Fullback'
p3965
aS'Westport'
p3966
aS'4'
aS'3'
aS'0'
aS'4'
aa(lp3967
S'Dion Waller'
p3968
aS'2001'
p3969
aS'Lock'
p3970
aS'Turangi'
p3971
aS'1'
aS'1'
aS'0'
aS'0'
aa(lp3972
S'Joe McDonnell'
p3973
aS'2002'
p3974
aS'Prop'
p3975
aS'Hastings'
p3976
aS'8'
aS'5'
aS'1'
aS'5'
aa(lp3977
S'Simon Maling'
p3978
aS'2002'
p3979
aS'Lock'
p3980
aS'Christchurch'
p3981
aS'11'
p3982
aS'9'
aS'0'
aS'0'
aa(lp3983
S'Tom Willis'
p3984
aS'2002'
p3985
aS'Hooker'
p3986
aS'Dunedin'
p3987
aS'5'
aS'4'
aS'0'
aS'0'
aa(lp3988
S'Sam Harding'
p3989
aS'2002'
p3990
aS'Flanker'
p3991
aS'Subiaco'
p3992
aS'1'
aS'1'
aS'0'
aS'0'
aa(lp3993
S'Sam Broomhall'
p3994
aS'2002'
p3995
aS'Back-row'
p3996
aS'Christchurch'
p3997
aS'4'
aS'2'
aS'0'
aS'0'
aa(lp3998
S'Steve Devine'
p3999
aS'2002'
p4000
aS'Scrum-half'
p4001
aS'NSW'
p4002
aS'10'
p4003
aS'8'
aS'0'
aS'0'
aa(lp4004
S'Andrew Hore'
p4005
aS'2002'
p4006
aS'Hooker'
p4007
aS'Dunedin'
p4008
aS'83'
p4009
aS'70'
p4010
aS'8'
aS'40'
p4011
aa(lp4012
S'Keith Lowen'
p4013
aS'2002'
p4014
aS'Centre'
p4015
aS'Huntly'
p4016
aS'1'
aS'0'
aS'0'
aS'0'
aa(lp4017
S'Keith Robinson'
p4018
aS'2002'
p4019
aS'Lock'
p4020
aS'Te Aroha'
p4021
aS'12'
p4022
aS'9'
aS'0'
aS'0'
aa(lp4023
S'Ali Williams'
p4024
aS'2002'
p4025
aS'Lock'
p4026
aS'Auckland'
p4027
aS'77'
p4028
aS'65'
p4029
aS'7'
aS'35'
p4030
aa(lp4031
S'Danny Lee'
p4032
aS'2002'
p4033
aS'Scrum-half'
p4034
aS'Hastings'
p4035
aS'2'
aS'0'
aS'1'
aS'5'
aa(lp4036
S'Brad Mika'
p4037
aS'2002'
p4038
aS'Back-row'
p4039
aS'Auckland'
p4040
aS'3'
aS'1'
aS'0'
aS'0'
aa(lp4041
S'Dan Braid'
p4042
aS'2002'
p4043
aS'Flanker'
p4044
aS'Tauranga'
p4045
aS'6'
aS'5'
aS'1'
aS'5'
aa(lp4046
S'Regan King'
p4047
aS'2002'
p4048
aS'Centre'
p4049
aS'Cambridge'
p4050
aS'1'
aS'1'
aS'1'
aS'5'
aa(lp4051
S'Keven Mealamu'
p4052
aS'2002'
p4053
aS'Hooker'
p4054
aS'Tokoroa'
p4055
aS'123'
p4056
aS'105'
p4057
aS'12'
p4058
aS'60'
p4059
aa(lp4060
S"Rodney So'oialo"
p4061
aS'2002'
p4062
aS'Back-row'
p4063
aS'Western Samoa'
p4064
aS'62'
p4065
aS'53'
p4066
aS'6'
aS'30'
p4067
aa(lp4068
S'Tony Woodcock'
p4069
aS'2002'
p4070
aS'Prop'
p4071
aS'Helensville'
p4072
aS'110'
p4073
aS'95'
p4074
aS'9'
aS'45'
p4075
aa(lp4076
S'Paul Steinmetz'
p4077
aS'2002'
p4078
aS'Centre'
p4079
aS'Paraparaumu'
p4080
aS'1'
aS'1'
aS'0'
aS'0'
aa(lp4081
S"Ma'a Nonu"
p4082
aS'2003'
p4083
aS'Centre'
p4084
aS'Wellington'
p4085
aS'94'
p4086
aS'82'
p4087
aS'26'
p4088
aS'130'
p4089
aa(lp4090
S'Joe Rokocoko'
p4091
aS'2003'
p4092
aS'Centre'
p4093
aS'Nadi'
p4094
aS'68'
p4095
aS'55'
p4096
aS'46'
p4097
aS'230'
p4098
aa(lp4099
S'Mils Muliaina'
p4100
aS'2003'
p4101
aS'Fullback'
p4102
aS'Western Samoa'
p4103
aS'100'
p4104
aS'84'
p4105
aS'34'
p4106
aS'170'
p4107
aa(lp4108
S'Dan Carter'
p4109
aS'2003'
p4110
aS'Fly-half'
p4111
aS'Leeston'
p4112
aS'102'
p4113
aS'90'
p4114
aS'29'
p4115
aS'1457'
p4116
aa(lp4117
S'Brad Thorn'
p4118
aS'2003'
p4119
aS'Lock'
p4120
aS'Mosgiel'
p4121
aS'59'
p4122
aS'51'
p4123
aS'4'
aS'20'
p4124
aa(lp4125
S'Corey Flynn'
p4126
aS'2003'
p4127
aS'Hooker'
p4128
aS'Invercargill'
p4129
aS'15'
p4130
aS'15'
p4131
aS'3'
aS'15'
p4132
aa(lp4133
S'Ben Atiga'
p4134
aS'2003'
p4135
aS'Centre'
p4136
aS'Auckland'
p4137
aS'1'
aS'1'
aS'0'
aS'0'
aa(lp4138
S'Jono Gibbes'
p4139
aS'2004'
p4140
aS'Flanker, Lock'
p4141
aS'Henderson'
p4142
aS'8'
aS'6'
aS'0'
aS'0'
aa(lp4143
S'Nick Evans'
p4144
aS'2004'
p4145
aS'Fly-half'
p4146
aS'Takapuna'
p4147
aS'16'
p4148
aS'15'
p4149
aS'5'
aS'103'
p4150
aa(lp4151
S'Sam Tuitupou'
p4152
aS'2004'
p4153
aS'Centre'
p4154
aS'Auckland'
p4155
aS'9'
aS'7'
aS'1'
aS'5'
aa(lp4156
S'Craig Newby'
p4157
aS'2004'
p4158
aS'Back-row'
p4159
aS'Rotorua'
p4160
aS'3'
aS'2'
aS'0'
aS'0'
aa(lp4161
S"Mose Tuiali'i"
p4162
aS'2004'
p4163
aS'Back-row'
p4164
aS'Auckland'
p4165
aS'9'
aS'7'
aS'1'
aS'5'
aa(lp4166
S'Rico Gear'
p4167
aS'2004'
p4168
aS'Wing, Centre'
p4169
aS'Gisborne'
p4170
aS'19'
p4171
aS'16'
p4172
aS'11'
p4173
aS'55'
p4174
aa(lp4175
S'Conrad Smith'
p4176
aS'2004'
p4177
aS'Centre'
p4178
aS'Hawera'
p4179
aS'85'
p4180
aS'76'
p4181
aS'25'
p4182
aS'125'
p4183
aa(lp4184
S'Saimone Taumoepeau'
p4185
aS'2004'
p4186
aS'Prop'
p4187
aS"Ha'apai"
p4188
aS'3'
aS'3'
aS'1'
aS'5'
aa(lp4189
S'Steven Bates'
p4190
aS'2004'
p4191
aS'Back-row'
p4192
aS'Auckland'
p4193
aS'1'
aS'1'
aS'0'
aS'0'
aa(lp4194
S'Jimmy Cowan'
p4195
aS'2004'
p4196
aS'Scrum-half'
p4197
aS'Gore'
p4198
aS'51'
p4199
aS'44'
p4200
aS'7'
aS'35'
p4201
aa(lp4202
S'Casey Laulala'
p4203
aS'2004'
p4204
aS'Centre'
p4205
aS'Western Samoa'
p4206
aS'2'
aS'2'
aS'0'
aS'0'
aa(lp4207
S'Piri Weepu'
p4208
aS'2004'
p4209
aS'Scrum-half'
p4210
aS'Lower Hutt'
p4211
aS'71'
p4212
aS'62'
p4213
aS'7'
aS'103'
p4214
aa(lp4215
S'James Ryan'
p4216
aS'2005'
p4217
aS'Lock'
p4218
aS'Christchurch'
p4219
aS'9'
aS'9'
aS'0'
aS'0'
aa(lp4220
S'Sitiveni Sivivatu'
p4221
aS'2004'
p4222
aS'Wing'
p4223
aS'Suva'
p4224
aS'48'
p4225
aS'37'
p4226
aS'33'
p4227
aS'165'
p4228
aa(lp4229
S'Derren Witcombe'
p4230
aS'2005'
p4231
aS'Hooker'
p4232
aS'Tasmania'
p4233
aS'5'
aS'4'
aS'0'
aS'0'
aa(lp4234
S'Sosene Anesi'
p4235
aS'2005'
p4236
aS'Wing, Fullback'
p4237
aS'Western Samoa'
p4238
aS'1'
aS'1'
aS'0'
aS'0'
aa(lp4239
S'Campbell Johnstone'
p4240
aS'2005'
p4241
aS'Prop'
p4242
aS'Waipukarau'
p4243
aS'3'
aS'3'
aS'0'
aS'0'
aa(lp4244
S'Sione Lauaki'
p4245
aS'2004'
p4246
aS'No. 8'
p4247
aS"Ha'apai"
p4248
aS'20'
p4249
aS'15'
p4250
aS'6'
aS'30'
p4251
aa(lp4252
S'Luke McAlister'
p4253
aS'2005'
p4254
aS'Fly-half'
p4255
aS'Waitara'
p4256
aS'30'
p4257
aS'24'
p4258
aS'7'
aS'153'
p4259
aa(lp4260
S'Kevin Senio'
p4261
aS'2005'
p4262
aS'Scrum-half'
p4263
aS'Auckland'
p4264
aS'1'
aS'1'
aS'0'
aS'0'
aa(lp4265
S'Chris Masoe'
p4266
aS'2005'
p4267
aS'No. 8'
p4268
aS'Western Samoa'
p4269
aS'20'
p4270
aS'18'
p4271
aS'3'
aS'15'
p4272
aa(lp4273
S'Neemia Tialata'
p4274
aS'2005'
p4275
aS'Prop'
p4276
aS'Lower Hutt'
p4277
aS'43'
p4278
aS'38'
p4279
aS'2'
aS'10'
p4280
aa(lp4281
S'Angus Macdonald'
p4282
aS'2005'
p4283
aS'Back-row'
p4284
aS'Whangarei'
p4285
aS'2'
aS'2'
aS'0'
aS'0'
aa(lp4286
S'John Afoa'
p4287
aS'2005'
p4288
aS'Prop'
p4289
aS'Auckland'
p4290
aS'36'
p4291
aS'28'
p4292
aS'1'
aS'5'
aa(lp4293
S'Jason Eaton'
p4294
aS'2005'
p4295
aS'Lock'
p4296
aS'Palmerston North'
p4297
aS'15'
p4298
aS'13'
p4299
aS'1'
aS'5'
aa(lp4300
S'Isaia Toeava'
p4301
aS'2005'
p4302
aS'Centre, Fullback'
p4303
aS'Western Samoa'
p4304
aS'36'
p4305
aS'30'
p4306
aS'8'
aS'40'
p4307
aa(lp4308
S'Clarke Dermody'
p4309
aS'2006'
p4310
aS'Prop'
p4311
aS'Invercargill'
p4312
aS'3'
aS'3'
aS'1'
aS'5'
aa(lp4313
S'Greg Rawlinson'
p4314
aS'2006'
p4315
aS'Lock'
p4316
aS'Durban'
p4317
aS'4'
aS'4'
aS'0'
aS'0'
aa(lp4318
S'Jerome Kaino'
p4319
aS'2006'
p4320
aS'Back-row'
p4321
aS'American Samoa'
p4322
aS'56'
p4323
aS'47'
p4324
aS'9'
aS'45'
p4325
aa(lp4326
S'David Hill'
p4327
aS'2006'
p4328
aS'Fly-half'
p4329
aS'Blenheim'
p4330
aS'1'
aS'1'
aS'0'
aS'0'
aa(lp4331
S'Scott Hamilton'
p4332
aS'2006'
p4333
aS'Fullback, Wing'
p4334
aS'Christchurch'
p4335
aS'2'
aS'2'
aS'1'
aS'5'
aa(lp4336
S'Andy Ellis'
p4337
aS'2006'
p4338
aS'Scrum-half'
p4339
aS'Christchurch'
p4340
aS'26'
p4341
aS'22'
p4342
aS'4'
aS'20'
p4343
aa(lp4344
S'Brendon Leonard'
p4345
aS'2007'
p4346
aS'Scrum-half'
p4347
aS'Morrinsville'
p4348
aS'13'
p4349
aS'11'
p4350
aS'2'
aS'10'
p4351
aa(lp4352
S'Ross Filipo'
p4353
aS'2007'
p4354
aS'Flanker'
p4355
aS'Lower Hutt'
p4356
aS'4'
aS'3'
aS'0'
aS'0'
aa(lp4357
S'John Schwalger'
p4358
aS'2007'
p4359
aS'Prop'
p4360
aS'Western Samoa'
p4361
aS'2'
aS'2'
aS'1'
aS'5'
aa(lp4362
S'Anthony Tuitavake'
p4363
aS'2008'
p4364
aS'Wing'
p4365
aS'Auckland'
p4366
aS'6'
aS'5'
aS'1'
aS'5'
aa(lp4367
S'Adam Thomson'
p4368
aS'2008'
p4369
aS'Flanker'
p4370
aS'Ashburton'
p4371
aS'29'
p4372
aS'24'
p4373
aS'6'
aS'30'
p4374
aa(lp4375
S'Anthony Boric'
p4376
aS'2008'
p4377
aS'Lock'
p4378
aS'Auckland'
p4379
aS'24'
p4380
aS'23'
p4381
aS'2'
aS'10'
p4382
aa(lp4383
S'Stephen Donald'
p4384
aS'2008'
p4385
aS'Fly-half'
p4386
aS'Papakura'
p4387
aS'23'
p4388
aS'18'
p4389
aS'1'
aS'98'
p4390
aa(lp4391
S'Richard Kahui'
p4392
aS'2008'
p4393
aS'Wing, Centre'
p4394
aS'Tokoroa'
p4395
aS'17'
p4396
aS'15'
p4397
aS'10'
p4398
aS'50'
p4399
aa(lp4400
S'Rudi Wulf'
p4401
aS'2008'
p4402
aS'Wing'
p4403
aS'Auckland'
p4404
aS'4'
aS'3'
aS'0'
aS'0'
aa(lp4405
S"Kevin O'Neill"
p4406
aS'2008'
p4407
aS'Lock'
p4408
aS'Te Aroha'
p4409
aS'1'
aS'0'
aS'0'
aS'0'
aa(lp4410
S'Hosea Gear'
p4411
aS'2008'
p4412
aS'Wing'
p4413
aS'Gisborne'
p4414
aS'14'
p4415
aS'12'
p4416
aS'6'
aS'30'
p4417
aa(lp4418
S'Cory Jane'
p4419
aS'2008'
p4420
aS'Wing'
p4421
aS'Lower Hutt'
p4422
aS'53'
p4423
aS'45'
p4424
aS'18'
p4425
aS'90'
p4426
aa(lp4427
S'Jamie Mackintosh'
p4428
aS'2008'
p4429
aS'Prop'
p4430
aS'Invercargill'
p4431
aS'1'
aS'1'
aS'0'
aS'0'
aa(lp4432
S'Liam Messam'
p4433
aS'2008'
p4434
aS'Flanker'
p4435
aS'Blenheim'
p4436
aS'40'
p4437
aS'35'
p4438
aS'6'
aS'30'
p4439
aa(lp4440
S'Kieran Read'
p4441
aS'2008'
p4442
aS'No. 8'
p4443
aS'Papakura'
p4444
aS'72'
p4445
aS'62'
p4446
aS'17'
p4447
aS'85'
p4448
aa(lp4449
S'Isaac Ross'
p4450
aS'2009'
p4451
aS'Lock'
p4452
aS'Ashburton'
p4453
aS'8'
aS'4'
aS'2'
aS'10'
p4454
aa(lp4455
S'Bryn Evans'
p4456
aS'2009'
p4457
aS'Lock'
p4458
aS'Hastings'
p4459
aS'2'
aS'1'
aS'0'
aS'0'
aa(lp4460
S'Tanerau Latimer'
p4461
aS'2009'
p4462
aS'Flanker'
p4463
aS'Te Puke'
p4464
aS'5'
aS'4'
aS'0'
aS'0'
aa(lp4465
S'Wyatt Crockett'
p4466
aS'2009'
p4467
aS'Prop'
p4468
aS'Christchurch'
p4469
aS'36'
p4470
aS'34'
p4471
aS'1'
aS'5'
aa(lp4472
S'Lelia Masaga'
p4473
aS'2009'
p4474
aS'Wing'
p4475
aS'Wellington'
p4476
aS'1'
aS'1'
aS'0'
aS'0'
aa(lp4477
S'Aled de Malmanche'
p4478
aS'2009'
p4479
aS'Hooker'
p4480
aS'Palmerston North'
p4481
aS'5'
aS'5'
aS'0'
aS'0'
aa(lp4482
S'Owen Franks'
p4483
aS'2009'
p4484
aS'Prop'
p4485
aS'Motueka'
p4486
aS'67'
p4487
aS'58'
p4488
aS'0'
aS'0'
aa(lp4489
S'George Whitelock'
p4490
aS'2009'
p4491
aS'Flanker'
p4492
aS'Palmerston North'
p4493
aS'1'
aS'1'
aS'1'
aS'5'
aa(lp4494
S'Tom Donnelly'
p4495
aS'2009'
p4496
aS'Lock'
p4497
aS'Rotorua'
p4498
aS'15'
p4499
aS'14'
p4500
aS'0'
aS'0'
aa(lp4501
S'Zac Guildford'
p4502
aS'2009'
p4503
aS'Wing'
p4504
aS'Greytown'
p4505
aS'10'
p4506
aS'9'
aS'6'
aS'30'
p4507
aa(lp4508
S'Mike Delany'
p4509
aS'2009'
p4510
aS'Fly-half'
p4511
aS'Rotorua'
p4512
aS'1'
aS'1'
aS'0'
aS'0'
aa(lp4513
S'Tamati Ellison'
p4514
aS'2009'
p4515
aS'Centre'
p4516
aS'Wellington'
p4517
aS'4'
aS'4'
aS'0'
aS'0'
aa(lp4518
S'Ben Smith'
p4519
aS'2009'
p4520
aS'Fullback'
p4521
aS'Dunedin'
p4522
aS'38'
p4523
aS'34'
p4524
aS'16'
p4525
aS'80'
p4526
aa(lp4527
S'Israel Dagg'
p4528
aS'2010'
p4529
aS'Fullback'
p4530
aS'Marton'
p4531
aS'46'
p4532
aS'42'
p4533
aS'14'
p4534
aS'75'
p4535
aa(lp4536
S'Ben Franks'
p4537
aS'2010'
p4538
aS'Prop'
p4539
aS'VIC'
p4540
aS'41'
p4541
aS'38'
p4542
aS'2'
aS'10'
p4543
aa(lp4544
S'Benson Stanley'
p4545
aS'2010'
p4546
aS'Centre'
p4547
aS'NSW'
p4548
aS'3'
aS'3'
aS'0'
aS'0'
aa(lp4549
S'Aaron Cruden'
p4550
aS'2010'
p4551
aS'Fly-half'
p4552
aS'Palmerston North'
p4553
aS'37'
p4554
aS'34'
p4555
aS'5'
aS'280'
p4556
aa(lp4557
S'Victor Vito'
p4558
aS'2010'
p4559
aS'Back-row'
p4560
aS'Wellington'
p4561
aS'26'
p4562
aS'22'
p4563
aS'3'
aS'15'
p4564
aa(lp4565
S'Sam Whitelock'
p4566
aS'2010'
p4567
aS'Lock'
p4568
aS'Palmerston North'
p4569
aS'62'
p4570
aS'55'
p4571
aS'4'
aS'20'
p4572
aa(lp4573
S'Rene Ranger'
p4574
aS'2010'
p4575
aS'Centre'
p4576
aS'Whangarei'
p4577
aS'6'
aS'6'
aS'1'
aS'5'
aa(lp4578
S'Alby Mathewson'
p4579
aS'2010'
p4580
aS'Scrum-half'
p4581
aS'Hastings'
p4582
aS'4'
aS'3'
aS'0'
aS'0'
aa(lp4583
S'Colin Slade'
p4584
aS'2010'
p4585
aS'Fly-half'
p4586
aS'Christchurch'
p4587
aS'17'
p4588
aS'15'
p4589
aS'3'
aS'76'
p4590
aa(lp4591
S'Sonny Bill Williams'
p4592
aS'2010'
p4593
aS'Centre'
p4594
aS'Auckland'
p4595
aS'23'
p4596
aS'22'
p4597
aS'8'
aS'40'
p4598
aa(lp4599
S'Hika Elliot'
p4600
aS'2010'
p4601
aS'Hooker'
p4602
aS'Hastings'
p4603
aS'3'
aS'3'
aS'0'
aS'0'
aa(lp4604
S'Jarrad Hoeata'
p4605
aS'2011'
p4606
aS'Back-row'
p4607
aS'Wellington'
p4608
aS'3'
aS'2'
aS'0'
aS'0'
aa(lp4609
S'Brodie Retallick'
p4610
aS'2012'
p4611
aS'Lock'
p4612
aS'Rangiora'
p4613
aS'36'
p4614
aS'33'
p4615
aS'1'
aS'5'
aa(lp4616
S'Julian Savea'
p4617
aS'2012'
p4618
aS'Wing'
p4619
aS'Wellington'
p4620
aS'33'
p4621
aS'30'
p4622
aS'30'
p4623
aS'150'
p4624
aa(lp4625
S'Aaron Smith'
p4626
aS'2012'
p4627
aS'Scrum-half'
p4628
aS'Palmerston North'
p4629
aS'38'
p4630
aS'34'
p4631
aS'11'
p4632
aS'57'
p4633
aa(lp4634
S'Sam Cane'
p4635
aS'2012'
p4636
aS'Flanker'
p4637
aS'Rotorua'
p4638
aS'22'
p4639
aS'21'
p4640
aS'8'
aS'40'
p4641
aa(lp4642
S'Luke Romano'
p4643
aS'2012'
p4644
aS'Lock'
p4645
aS'Christchurch'
p4646
aS'17'
p4647
aS'15'
p4648
aS'1'
aS'5'
aa(lp4649
S'Beauden Barrett'
p4650
aS'2012'
p4651
aS'Fly-half'
p4652
aS'New Plymouth'
p4653
aS'28'
p4654
aS'26'
p4655
aS'6'
aS'119'
p4656
aa(lp4657
S'Charlie Faumuina'
p4658
aS'2012'
p4659
aS'Prop'
p4660
aS'South Auckland'
p4661
aS'27'
p4662
aS'24'
p4663
aS'1'
aS'5'
aa(lp4664
S'Dane Coles'
p4665
aS'2012'
p4666
aS'Hooker'
p4667
aS'Paraparaumu'
p4668
aS'27'
p4669
aS'24'
p4670
aS'2'
aS'10'
p4671
aa(lp4672
S'Tawera Kerr-Barlow'
p4673
aS'2012'
p4674
aS'Scrum-half'
p4675
aS'VIC'
p4676
aS'15'
p4677
aS'14'
p4678
aS'0'
aS'0'
aa(lp4679
S'Ben Afeaki'
p4680
aS'2013'
p4681
aS'Prop'
p4682
aS'Auckland'
p4683
aS'1'
aS'1'
aS'0'
aS'0'
aa(lp4684
S'Jeremy Thrush'
p4685
aS'2013'
p4686
aS'Lock'
p4687
aS'Auckland'
p4688
aS'11'
p4689
aS'10'
p4690
aS'2'
aS'10'
p4691
aa(lp4692
S'Steven Luatua'
p4693
aS'2013'
p4694
aS'Flanker'
p4695
aS'Auckland'
p4696
aS'14'
p4697
aS'13'
p4698
aS'1'
aS'5'
aa(lp4699
S'Charles Piutau'
p4700
aS'2013'
p4701
aS'Fullback'
p4702
aS'Auckland'
p4703
aS'14'
p4704
aS'14'
p4705
aS'4'
aS'20'
p4706
aa(lp4707
S'Matt Todd'
p4708
aS'2013'
p4709
aS'Flanker'
p4710
aS'Christchurch'
p4711
aS'2'
aS'2'
aS'0'
aS'0'
aa(lp4712
S'Ryan Crotty'
p4713
aS'2013'
p4714
aS'Centre'
p4715
aS'Nelson'
p4716
aS'13'
p4717
aS'11'
p4718
aS'1'
aS'5'
aa(lp4719
S'Tom Taylor'
p4720
aS'2013'
p4721
aS'Fly-half'
p4722
aS'Christchurch'
p4723
aS'3'
aS'3'
aS'0'
aS'14'
p4724
aa(lp4725
S'Francis Saili'
p4726
aS'2013'
p4727
aS'Centre'
p4728
aS'Auckland'
p4729
aS'2'
aS'2'
aS'0'
aS'0'
aa(lp4730
S'Dominic Bird'
p4731
aS'2013'
p4732
aS'Lock'
p4733
aS'Waipukurau'
p4734
aS'2'
aS'2'
aS'0'
aS'0'
aa(lp4735
S'Frank Halai'
p4736
aS'2013'
p4737
aS'Wing'
p4738
aS'Pangai'
p4739
aS'1'
aS'1'
aS'1'
aS'5'
aa(lp4740
S'Jeff Toomaga-Allen'
p4741
aS'2013'
p4742
aS'Prop'
p4743
aS'Wellington'
p4744
aS'1'
aS'1'
aS'0'
aS'0'
aa(lp4745
S'Luke Whitelock'
p4746
aS'2013'
p4747
aS'Back-row'
p4748
aS'Palmerston North'
p4749
aS'1'
aS'1'
aS'0'
aS'0'
aa(lp4750
S'Malakai Fekitoa'
p4751
aS'2014'
p4752
aS'Centre'
p4753
aS"Ha'apai"
p4754
aS'8'
aS'6'
aS'2'
aS'10'
p4755
aa(lp4756
S'TJ Perenara'
p4757
aS'2014'
p4758
aS'Scrum-half'
p4759
aS'Wellington'
p4760
aS'11'
p4761
aS'11'
p4762
aS'1'
aS'5'
aa(lp4763
S'Patrick Tuipulotu'
p4764
aS'2014'
p4765
aS'Lock'
p4766
aS'Auckland'
p4767
aS'7'
aS'7'
aS'1'
aS'5'
aa(lp4768
S'Joe Moody'
p4769
aS'2014'
p4770
aS'Prop'
p4771
aS'Christchurch'
p4772
aS'8'
aS'6'
aS'1'
aS'5'
aa(lp4773
S'Nathan Harris'
p4774
aS'2014'
p4775
aS'Hooker'
p4776
aS'Tauranga'
p4777
aS'2'
aS'2'
aS'1'
aS'5'
aa(lp4778
S'Augustine Pulu'
p4779
aS'2014'
p4780
aS'Scrum-half'
p4781
aS'S Auckland'
p4782
aS'2'
aS'2'
aS'0'
aS'0'
aa(lp4783
S'James Parsons'
p4784
aS'2014'
p4785
aS'Hooker'
p4786
aS'Auckland'
p4787
aS'1'
aS'1'
aS'0'
aS'0'
aa.