(lp1
S'Fred Alexander'
p2
aS'Bill Bisset'
p3
aS'Harry Boyes'
p4
aS'Herbert Castens'
p5
aS'Tiger Devenish'
p6
aS'Ben Duff'
p7
aS'Frank Guthrie'
p8
aS'Frank Hamilton'
p9
aS'Edward Little'
p10
aS'Japie Louw'
p11
aS'George Merry'
p12
aS'Alf Richards'
p13
aS'Mosey van Buuren'
p14
aS'Oupa Versfeld'
p15
aS'Chubb Vigne'
p16
aS'Sas de Kock'
p17
aS'Fairy Heatlie'
p18
aS'Jackie Powell'
p19
aS'Bob Shand'
p20
aS'Toski Smith'
p21
aS'Dan Smith'
p22
aS'Bob Snedden'
p23
aS'Wilfred Trenery'
p24
aS'Charlie Chignell'
p25
aS'Jack Hartley'
p26
aS'Jim McKendrick'
p27
aS'Charlie van Renen'
p28
aS'Hasie Versfeld'
p29
aS'Biddy Anderson'
p30
aS'Ferdy Aston'
p31
aS'Mike Bredenkamp'
p32
aS'Frank Douglass'
p33
aS'Corbett Gorton'
p34
aS'Dykie Lyons'
p35
aS'PJ Meyer'
p36
aS'Francis Myburgh'
p37
aS'Ernest Olver'
p38
aS'Paul Scott'
p39
aS'Percy Twentyman-Jones'
p40
aS'Scraps Wessels'
p41
aS'Ben Andrew'
p42
aS'Allan Beswick'
p43
aS'Davie Cope'
p44
aS'Jim Crosby'
p45
aS'Charles Devenish'
p46
aS'George Devenish'
p47
aS'Spanner Forbes'
p48
aS'Alf Larard'
p49
aS'Tom Mellet'
p50
aS'Theo Samuels'
p51
aS'Bill Taberer'
p52
aS'Bill Cotty'
p53
aS'Pieter Dormehl'
p54
aS'Ted Kelly'
p55
aS'Bertie Powell'
p56
aS'Danie Theunissen'
p57
aS'Patats Cloete'
p58
aS'Paul de Waal'
p59
aS'Tommy Etlinger'
p60
aS'Tommy Hepburn'
p61
aS'Herman van Broekhuizen'
p62
aS'Joe Barry'
p63
aS'Charlie Brown'
p64
aS'Uncle Dobbin'
p65
aS'Alex Frew'
p66
aS'Charlie Jones'
p67
aS'Japie Krige'
p68
aS'Willie McEwan'
p69
aS'Andrew Morkel'
p70
aS'PO Nel'
p71
aS'Birdie Partridge'
p72
aS'Klondyke Raaff'
p73
aS'Jimmy Sinclair'
p74
aS'Bertie van Renen'
p75
aS'Syd Ashley'
p76
aS'George Crampton'
p77
aS'Clem Currie'
p78
aS'Syd de Melker'
p79
aS'Bertie Gibbs'
p80
aS'Jack Jackson'
p81
aS'Rajah Martheze'
p82
aS'Henry Metcalf'
p83
aS'Jock Anderson'
p84
aS'John Botha'
p85
aS'Paddy Carolin'
p86
aS'Hugh Ferris'
p87
aS'Tommy Hobson'
p88
aS'Bob Loubser'
p89
aS'Alec Reid'
p90
aS'Polla Roos'
p91
aS'Koei Brink'
p92
aS'Cocky Brooks'
p93
aS'Adam Burdett'
p94
aS'Bingo Burger'
p95
aS'Pinkie Daneel'
p96
aS'Boy de Villiers'
p97
aS'Dietlof Mare'
p98
aS'Alf Marsberg'
p99
aS'Sommie Morkel'
p100
aS'Anton Stegmann'
p101
aS'Jack Hirsch'
p102
aS'Dirk Jackson'
p103
aS'Steve Joubert'
p104
aS'Pietie le Roux'
p105
aS'Dougie Morkel'
p106
aS'Billy Millar'
p107
aS'Nic Crosby'
p108
aS'Max Davison'
p109
aS'Dirkie de Villiers'
p110
aS'Cocky Hahn'
p111
aS'Noel Howe-Browne'
p112
aS'Lammetjie Luyt'
p113
aS'Archie Marsberg'
p114
aS'Cliff Riordan'
p115
aS'Henry Walker'
p116
aS'Arthur Williams'
p117
aS'Percy Allport'
p118
aS'Antonie Lombard'
p119
aS'Dick Luyt'
p120
aS'Wally Mills'
p121
aS'Toby Moll'
p122
aS'Gideon Roos'
p123
aS'Clive van Ryneveld'
p124
aS'Boy Morkel'
p125
aS'Koot Reynecke'
p126
aS'Joe Francis'
p127
aS'Saturday Knight'
p128
aS'Sep Ledger'
p129
aS'John Luyt'
p130
aS'Boetie McHardy'
p131
aS'Jacky Morkel'
p132
aS'Gerhard Morkel'
p133
aS'Jan Stegmann'
p134
aS'Tommy Thompson'
p135
aS'Tom van Vuuren'
p136
aS'John McCulloch'
p137
aS'Eddie Shum'
p138
aS'Jack Immelman'
p139
aS'Wally Clarkson'
p140
aS'Theuns Kruger'
p141
aS'Frank Mellish'
p142
aS'Charlie Meyer'
p143
aS'Baby Michau'
p144
aS'Mannetjies Michau'
p145
aS'Harry Morkel'
p146
aS'Henry Morkel'
p147
aS'Phil Mostert'
p148
aS'Tokkie Scholtz'
p149
aS'Taffy Townsend'
p150
aS'Attie van Heerden'
p151
aS'Alf Walker'
p152
aS'Nic du Plessis'
p153
aS'Mervyn Ellis'
p154
aS'Royal Morkel'
p155
aS'Billy Sendin'
p156
aS'Tank van Rooyen'
p157
aS'Bill Zeller'
p158
aS'Sas de Kock'
p159
aS'Sarel Strauss'
p160
aS'Pierre Albertyn'
p161
aS'Hans Aucamp'
p162
aS'Champion Myburgh'
p163
aS'Bennie Osler'
p164
aS'Bill Payn'
p165
aS'Kenny Starke'
p166
aS'Jackie Tindall'
p167
aS'Nic van Druten'
p168
aS'Jack Bester'
p169
aS'Nic Bosman'
p170
aS'Pally Truter'
p171
aS'Daunce Devine'
p172
aS'Paul la Grange'
p173
aS'Jack Slater'
p174
aS'BV Vanderplank'
p175
aS'George Daneel'
p176
aS'Pierie de Villiers'
p177
aS'Brooke Duffy'
p178
aS'Flip Nel'
p179
aS'Sharkey Osler'
p180
aS'Hennie Potgieter'
p181
aS'Nic Pretorius'
p182
aS'Boet Prinsloo'
p183
aS'SP van Wyk'
p184
aS'Gerry Brand'
p185
aS'John Dobie'
p186
aS'Neville Tod'
p187
aS'JC van der Westhuizen'
p188
aS'Manus de Jongh'
p189
aS'AF du Toit'
p190
aS'Boy Louw'
p191
aS'Poim Oliver'
p192
aS'Willie Rousseau'
p193
aS'PK Morkel'
p194
aS'Jock van Niekerk'
p195
aS'Ferdie Bergh'
p196
aS'Danie Craven'
p197
aS'Geoff Gray'
p198
aS'Bert Kipling'
p199
aS'Andre McDonald'
p200
aS'Alvi van der Merwe'
p201
aS'Floors Venter'
p202
aS'Jimmy White'
p203
aS'Morris Zimerman'
p204
aS'Nic Bierman'
p205
aS'Ponie van der Westhuizen'
p206
aS'Franky Waring'
p207
aS'Lucas Strachan'
p208
aS"George d'Alton"
p209
aS'Fronie Froneman'
p210
aS'Jack Gage'
p211
aS'Manie Geere'
p212
aS'Fanie Louw'
p213
aS'Freddy Turner'
p214
aS'Lappies Hattingh'
p215
aS'Pat Lyster'
p216
aS'Joe Nykamp'
p217
aS'Paul Visser'
p218
aS'Ginger Clark'
p219
aS'Fred Smollan'
p220
aS'John Apsey'
p221
aS'Bunny Reid'
p222
aS'Louis Babrow'
p223
aS'Ebbo Bastard'
p224
aS'Jan Lotz'
p225
aS'Mauritz van den Berg'
p226
aS'Dai Williams'
p227
aS'Harry Martin'
p228
aS'Vandie van de Vyver'
p229
aS'George van Reenen'
p230
aS'Cecil Jennings'
p231
aS'Tony Harris'
p232
aS'Flappie Lochner'
p233
aS'Piet de Wet'
p234
aS'Ben du Toit'
p235
aS'Roger Sherriff'
p236
aS'Johnny Bester'
p237
aS'George Smith'
p238
aS'Hannes Brewis'
p239
aS'Felix du Plessis'
p240
aS'Floors Duvenage'
p241
aS'Okey Geffin'
p242
aS'Jorrie Jordaan'
p243
aS'Bubbles Koch'
p244
aS'Tjol Lategan'
p245
aS'Buks Marais'
p246
aS'Cecil Moss'
p247
aS'Hennie Muller'
p248
aS'Louis Strydom'
p249
aS'Fiks van der Merwe'
p250
aS'Jack van der Schyff'
p251
aS'Hoppy van Jaarsveld'
p252
aS'Ballie Wahl'
p253
aS'Salty du Rand'
p254
aS'Fonnie du Toit'
p255
aS'Chris Koch'
p256
aS'Ryk van Schoor'
p257
aS'Flip Geel'
p258
aS'Willem Barnard'
p259
aS'Carrots Geraghty'
p260
aS'Basil Kenyon'
p261
aS'Piet Malan'
p262
aS'Johnny Buchler'
p263
aS'Willa Delport'
p264
aS'Ernst Dinkelmann'
p265
aS'Stephen Fry'
p266
aS'Paul Johnstone'
p267
aS'Basie van Wyk'
p268
aS'Chum Ochse'
p269
aS'Jaap Bekker'
p270
aS'Hansie Oelofse'
p271
aS'Ian Kirkpatrick'
p272
aS'Dolf Bekker'
p273
aS'Steve Hoffman'
p274
aS'Jan Pickard'
p275
aS'Natie Rens'
p276
aS'Daantjie Rossouw'
p277
aS'Harry Walker'
p278
aS'Theuns Briers'
p279
aS'Johan Claassen'
p280
aS'Amos du Plooy'
p281
aS'Tommy Gentles'
p282
aS'Colin Kroon'
p283
aS'Daan Retief'
p284
aS'Des Sinclair'
p285
aS'Sias Swart'
p286
aS'Clive Ulyate'
p287
aS'Tom van Vollenhoven'
p288
aS'Dawie Ackermann'
p289
aS'Roy Dryburgh'
p290
aS'Wilf Rosenberg'
p291
aS'Bertus van der Merwe'
p292
aS'Butch Lochner'
p293
aS'Popeye Strydom'
p294
aS'Pat Montini'
p295
aS'Jeremy Nel'
p296
aS'Brian Pfaff'
p297
aS'Basie Vivier'
p298
aS'Jan du Preez'
p299
aS'Pee-wee Howe'
p300
aS'James Starke'
p301
aS'Piet du Toit'
p302
aS'Loftie Fourie'
p303
aS'Mickey Gerber'
p304
aS'Martin Pelser'
p305
aS'Jan Prinsloo'
p306
aS'Johan Steenekamp'
p307
aS'Hugo van Zyl'
p308
aS'Joe Kaminer'
p309
aS'Abie Malan'
p310
aS'Louis Schmidt'
p311
aS'Alan Skene'
p312
aS'Peter Allen'
p313
aS'Martiens Bekker'
p314
aS'Jannie Engelbrecht'
p315
aS'John Gainsford'
p316
aS'Manna Gericke'
p317
aS'Dougie Holton'
p318
aS'Doug Hopwood'
p319
aS'Dave Stewart'
p320
aS'Robert Twigge'
p321
aS'Des van Jaarsveldt'
p322
aS'Mike Antelme'
p323
aS'Dick Lockyear'
p324
aS'Avril Malan'
p325
aS'Lofty Nel'
p326
aS'Keith Oxlee'
p327
aS'Hennie van Zyl'
p328
aS'Fanie Kuhn'
p329
aS'Lionel Wilson'
p330
aS'Stompie van der Merwe'
p331
aS'Ronnie Hill'
p332
aS'Mannetjie Roux'
p333
aS'Piet Uys'
p334
aS'Attie Baard'
p335
aS'Frik du Preez'
p336
aS'Colin Greenwood'
p337
aS'Charlie Nimb'
p338
aS'Ben-Piet van Zyl'
p339
aS'Piet van Zyl'
p340
aS'Mof Myburgh'
p341
aS'Ormy Taylor'
p342
aS'Wang Wyness'
p343
aS'Chris Bezuidenhout'
p344
aS'Hannes Botha'
p345
aS'Dawie de Villiers'
p346
aS'Tommy Bedford'
p347
aS'Gert Cilliers'
p348
aS'Dick Putter'
p349
aS'Trix Truter'
p350
aS'Hannes Marais'
p351
aS'Poens Prinsloo'
p352
aS'Norman Riley'
p353
aS'Haas Schoeman'
p354
aS'Nelie Smith'
p355
aS'Corra Dirksen'
p356
aS'Tiny Naude'
p357
aS'Gawie Carelse'
p358
aS'Mike Lawless'
p359
aS'Don Walton'
p360
aS'Wynand Mans'
p361
aS'Snowy Suter'
p362
aS'Jannie Barnard'
p363
aS'Dirkie de Vos'
p364
aS'Piet Botha'
p365
aS'Gertjie Brynard'
p366
aS'Andy MacDonald'
p367
aS'Hambly Parker'
p368
aS'Jan Ellis'
p369
aS'Sakkie van Zyl'
p370
aS'Piet Goosen'
p371
aS'HO de Villiers'
p372
aS'Albie de Waal'
p373
aS'Piet Greyling'
p374
aS'Gert Kotze'
p375
aS'Tiny Neethling'
p376
aS'Eben Olivier'
p377
aS'Gys Pitzer'
p378
aS'Piet Visagie'
p379
aS'Syd Nomis'
p380
aS'Rodney Gould'
p381
aS'Thys Lourens'
p382
aS'Andre de Wet'
p383
aS'Gert Muller'
p384
aS'Charlie Cockrell'
p385
aS'Tonie Roux'
p386
aS'Andy van der Watt'
p387
aS'Albie Bates'
p388
aS'Sakkie de Klerk'
p389
aS'Johann van der Merwe'
p390
aS'Joggie Jansen'
p391
aS'Ian McCallum'
p392
aS'Johan Spies'
p393
aS'Piston van Wyk'
p394
aS'Robbie Barnard'
p395
aS'Peter Cronje'
p396
aS'Sakkie Sauermann'
p397
aS'Joggie Viljoen'
p398
aS'John Williams'
p399
aS'Morne du Plessis'
p400
aS'Hannes Viljoen'
p401
aS'Martiens Louw'
p402
aS'Niek Bezuidenhout'
p403
aS'Ray Carlson'
p404
aS'Piet du Plessis'
p405
aS'Dawie Snyman'
p406
aS'Boland Coetzee'
p407
aS'Kevin de Klerk'
p408
aS'Roy McCallum'
p409
aS'Kol Oosthuizen'
p410
aS'Chris Pope'
p411
aS'Peter Whipp'
p412
aS'Paul Bayvel'
p413
aS'Gerald Bosch'
p414
aS'Dave Frederickson'
p415
aS'Gerrie Germishuys'
p416
aS'Dugald Macdonald'
p417
aS'Jackie Snyman'
p418
aS'Leon Vogel'
p419
aS'Johan de Bruyn'
p420
aS'Polla Fourie'
p421
aS'Klippies Kritzinger'
p422
aS'Jan Schlebusch'
p423
aS'Gerrie Sonnekus'
p424
aS'Moaner van Heerden'
p425
aS'Kleintjie Grobler'
p426
aS'Rampie Stander'
p427
aS'Robert Cockrell'
p428
aS'Tossie Fourie'
p429
aS'Ian Robertson'
p430
aS'Willem Stapelberg'
p431
aS'Andre Bestbier'
p432
aS'Derek van den Berg'
p433
aS'Edrich Krantz'
p434
aS'De Wet Ras'
p435
aS'Theuns Stofberg'
p436
aS'Johan Strauss'
p437
aS'Robbie Blair'
p438
aS'Daan du Plessis'
p439
aS'Dirk Froneman'
p440
aS'Louis Moolman'
p441
aS'Hermanus Potgieter'
p442
aS'Piet Veldsman'
p443
aS'Christo Wagenaar'
p444
aS'Barry Wolmarans'
p445
aS'Naas Botha'
p446
aS'Tommy du Plessis'
p447
aS'Willie du Plessis'
p448
aS'Pierre Edwards'
p449
aS'Rob Louw'
p450
aS'Ray Mordt'
p451
aS'Richard Prentis'
p452
aS'Gysie Pienaar'
p453
aS'Willie Kahts'
p454
aS'Martiens le Roux'
p455
aS'Divan Serfontein'
p456
aS'David Smith'
p457
aS'Thys Burger'
p458
aS'Ewoud Malan'
p459
aS'Danie Gerber'
p460
aS'Wynand Claassen'
p461
aS'Errol Tobias'
p462
aS'Ockie Oosthuizen'
p463
aS'Hennie Bekker'
p464
aS'Darius Botha'
p465
aS'Hempies du Toit'
p466
aS'Eben Jansen'
p467
aS'Henning van Aswegen'
p468
aS'Burger Geldenhuys'
p469
aS'Flippie van der Merwe'
p470
aS'Div Visser'
p471
aS'Colin Beck'
p472
aS'Johan Heunis'
p473
aS'Carel du Plessis'
p474
aS'Schalk Burger'
p475
aS'Chris Rogers'
p476
aS'John Villet'
p477
aS'Rudi Visagie'
p478
aS'Avril Williams'
p479
aS'Anton Barnard'
p480
aS'Michael du Plessis'
p481
aS'Kulu Ferreira'
p482
aS'Nick Mallett'
p483
aS'Attie Strauss'
p484
aS'Wahl Bartmann'
p485
aS'Jannie Breedt'
p486
aS'Christo Ferreira'
p487
aS'Jaco Reinach'
p488
aS'Uli Schmidt'
p489
aS'Gert Smal'
p490
aS'Frans Erasmus'
p491
aS'Piet Kruger'
p492
aS'Garth Wright'
p493
aS'Helgard Muller'
p494
aS'Kobus Burger'
p495
aS'Niel Hugo'
p496
aS'Faffa Knoetze'
p497
aS'Adolf Malan'
p498
aS'Hein Rodgers'
p499
aS'Andre Joubert'
p500
aS'Robert du Preez'
p501
aS'Adri Geldenhuys'
p502
aS'Pieter Hendriks'
p503
aS'Ian Macdonald'
p504
aS'Lood Muller'
p505
aS'Pieter Muller'
p506
aS'James Small'
p507
aS'Theo van Rensburg'
p508
aS'Heinrich Fuls'
p509
aS'Johann Styger'
p510
aS'Drikus Hattingh'
p511
aS'Willie Hills'
p512
aS'Jacques Olivier'
p513
aS'Hugh Reece-Edwards'
p514
aS'Adriaan Richter'
p515
aS'Tiaan Strauss'
p516
aS'Keith Andrews'
p517
aS'FC Smit'
p518
aS'Hennie le Roux'
p519
aS'Francois Pienaar'
p520
aS'Kobus Wiese'
p521
aS'Deon Lotter'
p522
aS'Hannes Strydom'
p523
aS'Nico Wegner'
p524
aS'Joel Stransky'
p525
aS'Balie Swart'
p526
aS'John Allan'
p527
aS'Henry Honiball'
p528
aS'Steve Atherton'
p529
aS'Guy Kebble'
p530
aS'Ruben Kruger'
p531
aS'Joost van der Westhuizen'
p532
aS'Naka Drotske'
p533
aS'Gavin Johnson'
p534
aS'Chester Williams'
p535
aS'Ollie le Roux'
p536
aS'Fritz van Heerden'
p537
aS'Brendan Venter'
p538
aS'Mark Andrews'
p539
aS'Johan le Roux'
p540
aS'Johan Roux'
p541
aS'Rudolf Straeuli'
p542
aS'Japie Mulder'
p543
aS'Os du Randt'
p544
aS'Tommy Laubscher'
p545
aS'Christiaan Scholtz'
p546
aS'James Dalton'
p547
aS'Chris Badenhorst'
p548
aS'Elandre van den Bergh'
p549
aS'Phillip Schutte'
p550
aS'Chris Rossouw'
p551
aS'Mornay Visser'
p552
aS'Garry Pagel'
p553
aS'Robbie Brink'
p554
aS'Marius Hurter'
p555
aS'Krynauw Otto'
p556
aS'Gary Teichmann'
p557
aS'Toks van der Linde'
p558
aS'Johan Ackermann'
p559
aS'Justin Swart'
p560
aS'Danie van Schalkwyk'
p561
aS'Dawie Theron'
p562
aS'Andre Snyman'
p563
aS'Henry Tromp'
p564
aS'Andre Venter'
p565
aS'Vlok Cilliers'
p566
aS'Wayne Fyvie'
p567
aS'Adrian Garvey'
p568
aS'Edrich Lubbe'
p569
aS'Russell Bennett'
p570
aS'Percy Montgomery'
p571
aS'Pieter Rossouw'
p572
aS'Jannie de Beer'
p573
aS'Johan Erasmus'
p574
aS'Werner Swanepoel'
p575
aS'Warren Brosnihan'
p576
aS'Schutte Bekker'
p577
aS'Braam Els'
p578
aS'Dick Muir'
p579
aS'Andrew Aitken'
p580
aS'Bobby Skinstad'
p581
aS'Willie Meyer'
p582
aS'Franco Smith'
p583
aS'Gaffie du Toit'
p584
aS'Stefan Terblanche'
p585
aS'McNeil Hendricks'
p586
aS'Robbie Kempson'
p587
aS'Christian Stewart'
p588
aS'Selborne Boome'
p589
aS'Robbie Fleck'
p590
aS'Breyton Paulse'
p591
aS'Cobus Visagie'
p592
aS'Charl Marais'
p593
aS'Albert van den Berg'
p594
aS'Dave von Hoesslin'
p595
aS'Andre Vos'
p596
aS'Corne Krige'
p597
aS'Deon Kayser'
p598
aS'Braam van Straaten'
p599
aS'Anton Leonard'
p600
aS'Wayne Julies'
p601
aS'Kaya Malotana'
p602
aS'De Wet Barry'
p603
aS'Thinus Delport'
p604
aS'John Smit'
p605
aS'Louis Koen'
p606
aS'Grant Esterhuizen'
p607
aS'Jannes Labuschagne'
p608
aS'Jaco van der Westhuyzen'
p609
aS'AJ Venter'
p610
aS'Dan van Zyl'
p611
aS'Etienne Fynn'
p612
aS'Dean Hall'
p613
aS'Butch James'
p614
aS'Neil de Kock'
p615
aS'Conrad Jantjes'
p616
aS'Victor Matfield'
p617
aS'Lukas van Biljon'
p618
aS'Marius Joubert'
p619
aS'Joe van Niekerk'
p620
aS'Trevor Halstead'
p621
aS'Deon de Kock'
p622
aS'Adrian Jacobs'
p623
aS'Lawrence Sephaka'
p624
aS'Warren Britz'
p625
aS'Bolla Conradie'
p626
aS'Daan Human'
p627
aS'Ricardo Loubscher'
p628
aS'Andre Pretorius'
p629
aS'Faan Rautenbach'
p630
aS'Brent Russell'
p631
aS'Quinton Davids'
p632
aS'Craig Davidson'
p633
aS'Hottie Louw'
p634
aS'Werner Greeff'
p635
aS'Danie Coetzee'
p636
aS'Delarey du Preez'
p637
aS'Shaun Sowerby'
p638
aS'Hendro Scholtz'
p639
aS'Bakkies Botha'
p640
aS'Jean de Villiers'
p641
aS'Wessel Roux'
p642
aS'Pedrie Wannenburg'
p643
aS'Marco Wentzel'
p644
aS'Deon Carstens'
p645
aS'Friedrich Lombard'
p646
aS'Pierre Uys'
p647
aS'CJ van der Linde'
p648
aS'Norman Jordaan'
p649
aS'Richard Bands'
p650
aS'Hendrik Gerber'
p651
aS'Wikus van Heerden'
p652
aS'Ashwin Willemse'
p653
aS'Juan Smith'
p654
aS'Gcobani Bobo'
p655
aS'Dale Santon'
p656
aS'Jorrie Muller'
p657
aS'Geo Cronje'
p658
aS'Christo Bezuidenhout'
p659
aS'Jaque Fourie'
p660
aS'Danie Rossouw'
p661
aS'Derick Hougaard'
p662
aS'Schalk Burger'
p663
aS'Eddie Andrews'
p664
aS'Jacques Cronje'
p665
aS'Fourie du Preez'
p666
aS'Henno Mentz'
p667
aS'Gerrie Britz'
p668
aS'Hanyani Shimange'
p669
aS'Michael Claassens'
p670
aS'Tim Dlulane'
p671
aS'Bryan Habana'
p672
aS'Gurthro Steenkamp'
p673
aS'Solly Tyibilika'
p674
aS'Tonderai Chavhanga'
p675
aS'Ricky Januarie'
p676
aS'Gary Botha'
p677
aS'Meyer Bosman'
p678
aS'Johann Muller'
p679
aS'Wynand Olivier'
p680
aS'Akona Ndungane'
p681
aS'Pierre Spies'
p682
aS'BJ Botha'
p683
aS'Ruan Pienaar'
p684
aS'Chiliboy Ralepelle'
p685
aS'JP Pietersen'
p686
aS'Bevin Fortuin'
p687
aS'Jaco Pretorius'
p688
aS'Frans Steyn'
p689
aS'Hilton Lobberts'
p690
aS'Kabamba Floors'
p691
aS'Waylon Murray'
p692
aS'Luke Watson'
p693
aS'Jannie du Plessis'
p694
aS'Bismarck du Plessis'
p695
aS'Peter Grant'
p696
aS'Ryan Kankowski'
p697
aS'Heinke van der Merwe'
p698
aS'Andries Bekker'
p699
aS'Brian Mujati'
p700
aS'Tendai Mtawarira'
p701
aS'Odwa Ndungane'
p702
aS'Schalk Brits'
p703
aS'Adriaan Strauss'
p704
aS'Jongi Nokwe'
p705
aS'Heinrich Brussow'
p706
aS'Morne Steyn'
p707
aS'Zane Kirchner'
p708
aS'Wian du Preez'
p709
aS'Jean Deysel'
p710
aS'Francois Hougaard'
p711
aS'Dewald Potgieter'
p712
aS'Gio Aplon'
p713
aS'Juan de Jongh'
p714
aS'Francois Louw'
p715
aS'Bjorn Basson'
p716
aS'Alistair Hargreaves'
p717
aS'Flip van der Merwe'
p718
aS'Bandise Maku'
p719
aS'Deon Stegmann'
p720
aS'Keegan Daniel'
p721
aS'Patrick Lambie'
p722
aS'Willem Alberts'
p723
aS'Lwazi Mvovo'
p724
aS'Dean Greyling'
p725
aS'Ashley Johnson'
p726
aS'Werner Kruger'
p727
aS'Gerhard Mostert'
p728
aS'Charl McLeod'
p729
aS'Marcell Coetzee'
p730
aS'Eben Etzebeth'
p731
aS'Juandre Kruger'
p732
aS'Coenie Oosthuizen'
p733
aS'Jacques Potgieter'
p734
aS'Pat Cilliers'
p735
aS'JJ Engelbrecht'
p736
aS'Tiaan Liebenberg'
p737
aS'Duane Vermeulen'
p738
aS'Johan Goosen'
p739
aS'Jaco Taute'
p740
aS'Elton Jantjies'
p741
aS'Arno Botha'
p742
aS'Willie le Roux'
p743
aS'Jano Vermaak'
p744
aS'Trevor Nyakane'
p745
aS'Jan Serfontein'
p746
aS'Siya Kolisi'
p747
aS'Piet van Zyl'
p748
aS'Franco van der Merwe'
p749
aS'Frans Malherbe'
p750
aS'Pieter-Steph du Toit'
p751
aS'Lourens Adriaanse'
p752
aS'Cornal Hendricks'
p753
aS'Lood de Jager'
p754
aS'Handre Pollard'
p755
aS'Marnitz Boshoff'
p756
aS'Stephan Lewies'
p757
aS'Oupa Mohoje'
p758
aS'Marcel van der Merwe'
p759
aS'Damian de Allende'
p760
aS'Warren Whiteley'
p761
aS'Cobus Reinach'
p762
aS'Nizaam Carr'
p763
aS'Julian Redelinghuys'
p764
aS'Jesse Kriel'
p765
aS'Vincent Koch'
p766
aS'Lionel Mapoe'
p767
aS'Rudy Paige'
p768
a.