(lp1
S'Fred Alexander'
p2
aS'Bill Bisset'
p3
aS'Harry Boyes'
p4
aS'Herbert Castens'
p5
aS'Tiger Devenish'
p6
aS'Ben Duff'
p7
aS'Frank Guthrie'
p8
aS'Frank Hamilton'
p9
aS'Edward Little'
p10
aS'Japie Louw'
p11
aS'George Merry'
p12
aS'Alf Richards'
p13
aS'Mosey van Buuren'
p14
aS'Oupa Versfeld'
p15
aS'Chubb Vigne'
p16
aS'Sas de Kock'
p17
aS'Fairy Heatlie'
p18
aS'Jackie Powell'
p19
aS'Bob Shand'
p20
aS'Toski Smith'
p21
aS'Dan Smith'
p22
aS'Bob Snedden'
p23
aS'Wilfred Trenery'
p24
aS'Charlie Chignell'
p25
aS'Jack Hartley'
p26
aS'Jim McKendrick'
p27
aS'Charlie van Renen'
p28
aS'Hasie Versfeld'
p29
aS'Biddy Anderson'
p30
aS'Ferdy Aston'
p31
aS'Mike Bredenkamp'
p32
aS'Frank Douglass'
p33
aS'Corbett Gorton'
p34
aS'Dykie Lyons'
p35
aS'PJ Meyer'
p36
aS'Francis Myburgh'
p37
aS'Ernest Olver'
p38
aS'Paul Scott'
p39
aS'Percy Twentyman-Jones'
p40
aS'Scraps Wessels'
p41
aS'Ben Andrew'
p42
aS'Allan Beswick'
p43
aS'Davie Cope'
p44
aS'Jim Crosby'
p45
aS'Charles Devenish'
p46
aS'George Devenish'
p47
aS'Spanner Forbes'
p48
aS'Alf Larard'
p49
aS'Tom Mellet'
p50
aS'Theo Samuels'
p51
aS'Bill Taberer'
p52
aS'Bill Cotty'
p53
aS'Pieter Dormehl'
p54
aS'Ted Kelly'
p55
aS'Bertie Powell'
p56
aS'Danie Theunissen'
p57
aS'Patats Cloete'
p58
aS'Paul de Waal'
p59
aS'Tommy Etlinger'
p60
aS'Tommy Hepburn'
p61
aS'Herman van Broekhuizen'
p62
aS'Joe Barry'
p63
aS'Charlie Brown'
p64
aS'Uncle Dobbin'
p65
aS'Alex Frew'
p66
aS'Charlie Jones'
p67
aS'Japie Krige'
p68
aS'Willie McEwan'
p69
aS'Andrew Morkel'
p70
aS'PO Nel'
p71
aS'Birdie Partridge'
p72
aS'Klondyke Raaff'
p73
aS'Jimmy Sinclair'
p74
aS'Bertie van Renen'
p75
aS'Syd Ashley'
p76
aS'George Crampton'
p77
aS'Clem Currie'
p78
aS'Syd de Melker'
p79
aS'Bertie Gibbs'
p80
aS'Jack Jackson'
p81
aS'Rajah Martheze'
p82
aS'Henry Metcalf'
p83
aS'Jock Anderson'
p84
aS'John Botha'
p85
aS'Paddy Carolin'
p86
aS'Hugh Ferris'
p87
aS'Tommy Hobson'
p88
aS'Bob Loubser'
p89
aS'Alec Reid'
p90
aS'Polla Roos'
p91
aS'Koei Brink'
p92
aS'Cocky Brooks'
p93
aS'Adam Burdett'
p94
aS'Bingo Burger'
p95
aS'Pinkie Daneel'
p96
aS'Boy de Villiers'
p97
aS'Dietlof Mare'
p98
aS'Alf Marsberg'
p99
aS'Sommie Morkel'
p100
aS'Anton Stegmann'
p101
aS'Jack Hirsch'
p102
aS'Dirk Jackson'
p103
aS'Steve Joubert'
p104
aS'Pietie le Roux'
p105
aS'Dougie Morkel'
p106
aS'Billy Millar'
p107
aS'Nic Crosby'
p108
aS'Max Davison'
p109
aS'Dirkie de Villiers'
p110
aS'Cocky Hahn'
p111
aS'Noel Howe-Browne'
p112
aS'Lammetjie Luyt'
p113
aS'Archie Marsberg'
p114
aS'Cliff Riordan'
p115
aS'Henry Walker'
p116
aS'Arthur Williams'
p117
aS'Percy Allport'
p118
aS'Antonie Lombard'
p119
aS'Dick Luyt'
p120
aS'Wally Mills'
p121
aS'Toby Moll'
p122
aS'Gideon Roos'
p123
aS'Clive van Ryneveld'
p124
aS'Boy Morkel'
p125
aS'Koot Reynecke'
p126
aS'Joe Francis'
p127
aS'Saturday Knight'
p128
aS'Sep Ledger'
p129
aS'John Luyt'
p130
aS'Boetie McHardy'
p131
aS'Jacky Morkel'
p132
aS'Gerhard Morkel'
p133
aS'Jan Stegmann'
p134
aS'Tommy Thompson'
p135
aS'Tom van Vuuren'
p136
aS'John McCulloch'
p137
aS'Eddie Shum'
p138
aS'Jack Immelman'
p139
aS'Wally Clarkson'
p140
aS'Theuns Kruger'
p141
aS'Frank Mellish'
p142
aS'Charlie Meyer'
p143
aS'Baby Michau'
p144
aS'Mannetjies Michau'
p145
aS'Harry Morkel'
p146
aS'Henry Morkel'
p147
aS'Phil Mostert'
p148
aS'Tokkie Scholtz'
p149
aS'Taffy Townsend'
p150
aS'Attie van Heerden'
p151
aS'Alf Walker'
p152
aS'Nic du Plessis'
p153
aS'Mervyn Ellis'
p154
aS'Royal Morkel'
p155
aS'Billy Sendin'
p156
aS'Tank van Rooyen'
p157
aS'Bill Zeller'
p158
aS'Sas de Kock'
p159
aS'Sarel Strauss'
p160
aS'Pierre Albertyn'
p161
aS'Hans Aucamp'
p162
aS'Champion Myburgh'
p163
aS'Bennie Osler'
p164
aS'Bill Payn'
p165
aS'Kenny Starke'
p166
aS'Jackie Tindall'
p167
aS'Nic van Druten'
p168
aS'Jack Bester'
p169
aS'Nic Bosman'
p170
aS'Pally Truter'
p171
aS'Daunce Devine'
p172
aS'Paul la Grange'
p173
aS'Jack Slater'
p174
aS'BV Vanderplank'
p175
aS'George Daneel'
p176
aS'Pierie de Villiers'
p177
aS'Brooke Duffy'
p178
aS'Flip Nel'
p179
aS'Sharkey Osler'
p180
aS'Hennie Potgieter'
p181
aS'Nic Pretorius'
p182
aS'Boet Prinsloo'
p183
aS'SP van Wyk'
p184
aS'Gerry Brand'
p185
aS'John Dobie'
p186
aS'Neville Tod'
p187
aS'JC van der Westhuizen'
p188
aS'Manus de Jongh'
p189
aS'AF du Toit'
p190
aS'Boy Louw'
p191
aS'Poim Oliver'
p192
aS'Willie Rousseau'
p193
aS'PK Morkel'
p194
aS'Jock van Niekerk'
p195
aS'Ferdie Bergh'
p196
aS'Danie Craven'
p197
aS'Geoff Gray'
p198
aS'Bert Kipling'
p199
aS'Andre McDonald'
p200
aS'Alvi van der Merwe'
p201
aS'Floors Venter'
p202
aS'Jimmy White'
p203
aS'Morris Zimerman'
p204
aS'Nic Bierman'
p205
aS'Ponie van der Westhuizen'
p206
aS'Franky Waring'
p207
aS'Lucas Strachan'
p208
aS"George d'Alton"
p209
aS'Fronie Froneman'
p210
aS'Jack Gage'
p211
aS'Manie Geere'
p212
aS'Fanie Louw'
p213
aS'Freddy Turner'
p214
aS'Lappies Hattingh'
p215
aS'Pat Lyster'
p216
aS'Joe Nykamp'
p217
aS'Paul Visser'
p218
aS'Ginger Clark'
p219
aS'Fred Smollan'
p220
aS'John Apsey'
p221
aS'Bunny Reid'
p222
aS'Louis Babrow'
p223
aS'Ebbo Bastard'
p224
aS'Jan Lotz'
p225
aS'Mauritz van den Berg'
p226
aS'Dai Williams'
p227
aS'Harry Martin'
p228
aS'Vandie van de Vyver'
p229
aS'George van Reenen'
p230
aS'Cecil Jennings'
p231
aS'Tony Harris'
p232
aS'Flappie Lochner'
p233
aS'Piet de Wet'
p234
aS'Ben du Toit'
p235
aS'Roger Sherriff'
p236
aS'Johnny Bester'
p237
aS'George Smith'
p238
aS'Hannes Brewis'
p239
aS'Felix du Plessis'
p240
aS'Floors Duvenage'
p241
aS'Okey Geffin'
p242
aS'Jorrie Jordaan'
p243
aS'Bubbles Koch'
p244
aS'Tjol Lategan'
p245
aS'Buks Marais'
p246
aS'Cecil Moss'
p247
aS'Hennie Muller'
p248
aS'Louis Strydom'
p249
aS'Fiks van der Merwe'
p250
aS'Jack van der Schyff'
p251
aS'Hoppy van Jaarsveld'
p252
aS'Ballie Wahl'
p253
aS'Salty du Rand'
p254
aS'Fonnie du Toit'
p255
aS'Chris Koch'
p256
aS'Ryk van Schoor'
p257
aS'Flip Geel'
p258
aS'Willem Barnard'
p259
aS'Carrots Geraghty'
p260
aS'Basil Kenyon'
p261
aS'Piet Malan'
p262
aS'Johnny Buchler'
p263
aS'Willa Delport'
p264
aS'Ernst Dinkelmann'
p265
aS'Stephen Fry'
p266
aS'Paul Johnstone'
p267
aS'Basie van Wyk'
p268
aS'Chum Ochse'
p269
aS'Jaap Bekker'
p270
aS'Hansie Oelofse'
p271
aS'Ian Kirkpatrick'
p272
aS'Dolf Bekker'
p273
aS'Steve Hoffman'
p274
aS'Jan Pickard'
p275
aS'Natie Rens'
p276
aS'Daantjie Rossouw'
p277
aS'Harry Walker'
p278
aS'Theuns Briers'
p279
aS'Johan Claassen'
p280
aS'Amos du Plooy'
p281
aS'Tommy Gentles'
p282
aS'Colin Kroon'
p283
aS'Daan Retief'
p284
aS'Des Sinclair'
p285
aS'Sias Swart'
p286
aS'Clive Ulyate'
p287
aS'Tom van Vollenhoven'
p288
aS'Dawie Ackermann'
p289
aS'Roy Dryburgh'
p290
aS'Wilf Rosenberg'
p291
aS'Bertus van der Merwe'
p292
aS'Butch Lochner'
p293
aS'Popeye Strydom'
p294
aS'Pat Montini'
p295
aS'Jeremy Nel'
p296
aS'Brian Pfaff'
p297
aS'Basie Vivier'
p298
aS'Jan du Preez'
p299
aS'Pee-wee Howe'
p300
aS'James Starke'
p301
aS'Piet du Toit'
p302
aS'Loftie Fourie'
p303
aS'Mickey Gerber'
p304
aS'Martin Pelser'
p305
aS'Jan Prinsloo'
p306
aS'Johan Steenekamp'
p307
aS'Hugo van Zyl'
p308
aS'Joe Kaminer'
p309
aS'Abie Malan'
p310
aS'Louis Schmidt'
p311
aS'Alan Skene'
p312
aS'Peter Allen'
p313
aS'Martiens Bekker'
p314
aS'Jannie Engelbrecht'
p315
aS'John Gainsford'
p316
aS'Manna Gericke'
p317
aS'Dougie Holton'
p318
aS'Doug Hopwood'
p319
aS'Dave Stewart'
p320
aS'Robert Twigge'
p321
aS'Des van Jaarsveldt'
p322
aS'Mike Antelme'
p323
aS'Dick Lockyear'
p324
aS'Avril Malan'
p325
aS'Lofty Nel'
p326
aS'Keith Oxlee'
p327
aS'Hennie van Zyl'
p328
aS'Fanie Kuhn'
p329
aS'Lionel Wilson'
p330
aS'Stompie van der Merwe'
p331
aS'Ronnie Hill'
p332
aS'Mannetjie Roux'
p333
aS'Piet Uys'
p334
aS'Attie Baard'
p335
aS'Frik du Preez'
p336
aS'Colin Greenwood'
p337
aS'Charlie Nimb'
p338
aS'Ben-Piet van Zyl'
p339
aS'Piet van Zyl'
p340
aS'Mof Myburgh'
p341
aS'Ormy Taylor'
p342
aS'Wang Wyness'
p343
aS'Chris Bezuidenhout'
p344
aS'Hannes Botha'
p345
aS'Dawie de Villiers'
p346
aS'Tommy Bedford'
p347
aS'Gert Cilliers'
p348
aS'Dick Putter'
p349
aS'Trix Truter'
p350
aS'Hannes Marais'
p351
aS'Poens Prinsloo'
p352
aS'Norman Riley'
p353
aS'Haas Schoeman'
p354
aS'Nelie Smith'
p355
aS'Corra Dirksen'
p356
aS'Tiny Naude'
p357
aS'Gawie Carelse'
p358
aS'Mike Lawless'
p359
aS'Don Walton'
p360
aS'Wynand Mans'
p361
aS'Snowy Suter'
p362
aS'Jannie Barnard'
p363
aS'Dirkie de Vos'
p364
aS'Piet Botha'
p365
aS'Gertjie Brynard'
p366
aS'Andy MacDonald'
p367
aS'Hambly Parker'
p368
aS'Jan Ellis'
p369
aS'Sakkie van Zyl'
p370
aS'Piet Goosen'
p371
aS'HO de Villiers'
p372
aS'Albie de Waal'
p373
aS'Piet Greyling'
p374
aS'Gert Kotze'
p375
aS'Tiny Neethling'
p376
aS'Eben Olivier'
p377
aS'Gys Pitzer'
p378
aS'Piet Visagie'
p379
aS'Syd Nomis'
p380
aS'Rodney Gould'
p381
aS'Thys Lourens'
p382
aS'Andre de Wet'
p383
aS'Gert Muller'
p384
aS'Charlie Cockrell'
p385
aS'Tonie Roux'
p386
aS'Andy van der Watt'
p387
aS'Albie Bates'
p388
aS'Sakkie de Klerk'
p389
aS'Johann van der Merwe'
p390
aS'Joggie Jansen'
p391
aS'Ian McCallum'
p392
aS'Johan Spies'
p393
aS'Piston van Wyk'
p394
aS'Robbie Barnard'
p395
aS'Peter Cronje'
p396
aS'Sakkie Sauermann'
p397
aS'Joggie Viljoen'
p398
aS'John Williams'
p399
aS'Morne du Plessis'
p400
aS'Hannes Viljoen'
p401
aS'Martiens Louw'
p402
aS'Niek Bezuidenhout'
p403
aS'Ray Carlson'
p404
aS'Piet du Plessis'
p405
aS'Dawie Snyman'
p406
aS'Boland Coetzee'
p407
aS'Kevin de Klerk'
p408
aS'Roy McCallum'
p409
aS'Kol Oosthuizen'
p410
aS'Chris Pope'
p411
aS'Peter Whipp'
p412
aS'Paul Bayvel'
p413
aS'Gerald Bosch'
p414
aS'Dave Frederickson'
p415
aS'Gerrie Germishuys'
p416
aS'Dugald Macdonald'
p417
aS'Jackie Snyman'
p418
aS'Leon Vogel'
p419
aS'Johan de Bruyn'
p420
aS'Polla Fourie'
p421
aS'Klippies Kritzinger'
p422
aS'Jan Schlebusch'
p423
aS'Gerrie Sonnekus'
p424
aS'Moaner van Heerden'
p425
aS'Kleintjie Grobler'
p426
aS'Rampie Stander'
p427
aS'Robert Cockrell'
p428
aS'Tossie Fourie'
p429
aS'Ian Robertson'
p430
aS'Willem Stapelberg'
p431
aS'Andre Bestbier'
p432
aS'Derek van den Berg'
p433
aS'Edrich Krantz'
p434
aS'De Wet Ras'
p435
aS'Theuns Stofberg'
p436
aS'Johan Strauss'
p437
aS'Robbie Blair'
p438
aS'Daan du Plessis'
p439
a.