(lp1
(dp2
S'Pens'
p3
S'0'
sS'Sub'
p4
S'0'
sS'Lost'
p5
S'2'
sS'Drop'
p6
S'0'
sS'Start'
p7
S'2'
sS'Won'
p8
S'0'
sS'GfM'
p9
S'0'
sS'Draw'
p10
S'0'
sS'Mat'
p11
S'2'
sS'Conv'
p12
S'0'
sS'Tries'
p13
S'0'
sS'Pts'
p14
S'0'
sa(dp15
S'Pens'
p16
S'0'
sS'Sub'
p17
S'0'
sS'Lost'
p18
S'2'
sS'Drop'
p19
S'0'
sS'Start'
p20
S'2'
sS'Won'
p21
S'0'
sS'GfM'
p22
S'0'
sS'Draw'
p23
S'0'
sS'Mat'
p24
S'2'
sS'Conv'
p25
S'0'
sS'Tries'
p26
S'0'
sS'Pts'
p27
S'0'
sa(dp28
S'Pens'
p29
S'0'
sS'Sub'
p30
S'0'
sS'Lost'
p31
S'2'
sS'Drop'
p32
S'0'
sS'Start'
p33
S'2'
sS'Won'
p34
S'0'
sS'GfM'
p35
S'0'
sS'Draw'
p36
S'0'
sS'Mat'
p37
S'2'
sS'Conv'
p38
S'0'
sS'Tries'
p39
S'0'
sS'Pts'
p40
S'0'
sa(dp41
S'Pens'
p42
S'0'
sS'Sub'
p43
S'0'
sS'Lost'
p44
S'1'
sS'Drop'
p45
S'0'
sS'Start'
p46
S'1'
sS'Won'
p47
S'0'
sS'GfM'
p48
S'0'
sS'Draw'
p49
S'0'
sS'Mat'
p50
S'1'
sS'Conv'
p51
S'0'
sS'Tries'
p52
S'0'
sS'Pts'
p53
S'0'
sa(dp54
S'Pens'
p55
S'0'
sS'Sub'
p56
S'0'
sS'Lost'
p57
S'1'
sS'Drop'
p58
S'0'
sS'Start'
p59
S'1'
sS'Won'
p60
S'0'
sS'GfM'
p61
S'0'
sS'Draw'
p62
S'0'
sS'Mat'
p63
S'1'
sS'Conv'
p64
S'0'
sS'Tries'
p65
S'0'
sS'Pts'
p66
S'0'
sa(dp67
S'Pens'
p68
S'0'
sS'Sub'
p69
S'0'
sS'Lost'
p70
S'3'
sS'Drop'
p71
S'0'
sS'Start'
p72
S'3'
sS'Won'
p73
S'0'
sS'GfM'
p74
S'0'
sS'Draw'
p75
S'0'
sS'Mat'
p76
S'3'
sS'Conv'
p77
S'0'
sS'Tries'
p78
S'0'
sS'Pts'
p79
S'0'
sa(dp80
S'Pens'
p81
S'0'
sS'Sub'
p82
S'0'
sS'Lost'
p83
S'3'
sS'Drop'
p84
S'0'
sS'Start'
p85
S'3'
sS'Won'
p86
S'0'
sS'GfM'
p87
S'0'
sS'Draw'
p88
S'0'
sS'Mat'
p89
S'3'
sS'Conv'
p90
S'0'
sS'Tries'
p91
S'0'
sS'Pts'
p92
S'0'
sa(dp93
S'Pens'
p94
S'0'
sS'Sub'
p95
S'0'
sS'Lost'
p96
S'1'
sS'Drop'
p97
S'0'
sS'Start'
p98
S'1'
sS'Won'
p99
S'0'
sS'GfM'
p100
S'0'
sS'Draw'
p101
S'0'
sS'Mat'
p102
S'1'
sS'Conv'
p103
S'0'
sS'Tries'
p104
S'0'
sS'Pts'
p105
S'0'
sa(dp106
S'Pens'
p107
S'0'
sS'Sub'
p108
S'0'
sS'Lost'
p109
S'2'
sS'Drop'
p110
S'0'
sS'Start'
p111
S'2'
sS'Won'
p112
S'0'
sS'GfM'
p113
S'0'
sS'Draw'
p114
S'0'
sS'Mat'
p115
S'2'
sS'Conv'
p116
S'0'
sS'Tries'
p117
S'0'
sS'Pts'
p118
S'0'
sa(dp119
S'Pens'
p120
S'0'
sS'Sub'
p121
S'0'
sS'Lost'
p122
S'3'
sS'Drop'
p123
S'0'
sS'Start'
p124
S'3'
sS'Won'
p125
S'0'
sS'GfM'
p126
S'0'
sS'Draw'
p127
S'0'
sS'Mat'
p128
S'3'
sS'Conv'
p129
S'0'
sS'Tries'
p130
S'0'
sS'Pts'
p131
S'0'
sa(dp132
S'Pens'
p133
S'0'
sS'Sub'
p134
S'0'
sS'Lost'
p135
S'1'
sS'Drop'
p136
S'0'
sS'Start'
p137
S'1'
sS'Won'
p138
S'0'
sS'GfM'
p139
S'0'
sS'Draw'
p140
S'0'
sS'Mat'
p141
S'1'
sS'Conv'
p142
S'0'
sS'Tries'
p143
S'0'
sS'Pts'
p144
S'0'
sa(dp145
S'Pens'
p146
S'0'
sS'Sub'
p147
S'0'
sS'Lost'
p148
S'3'
sS'Drop'
p149
S'0'
sS'Start'
p150
S'3'
sS'Won'
p151
S'0'
sS'GfM'
p152
S'0'
sS'Draw'
p153
S'0'
sS'Mat'
p154
S'3'
sS'Conv'
p155
S'0'
sS'Tries'
p156
S'0'
sS'Pts'
p157
S'0'
sa(dp158
S'Pens'
p159
S'0'
sS'Sub'
p160
S'0'
sS'Lost'
p161
S'1'
sS'Drop'
p162
S'0'
sS'Start'
p163
S'1'
sS'Won'
p164
S'0'
sS'GfM'
p165
S'0'
sS'Draw'
p166
S'0'
sS'Mat'
p167
S'1'
sS'Conv'
p168
S'0'
sS'Tries'
p169
S'0'
sS'Pts'
p170
S'0'
sa(dp171
S'Pens'
p172
S'0'
sS'Sub'
p173
S'0'
sS'Lost'
p174
S'3'
sS'Drop'
p175
S'0'
sS'Start'
p176
S'3'
sS'Won'
p177
S'0'
sS'GfM'
p178
S'0'
sS'Draw'
p179
S'0'
sS'Mat'
p180
S'3'
sS'Conv'
p181
S'0'
sS'Tries'
p182
S'0'
sS'Pts'
p183
S'0'
sa(dp184
S'Pens'
p185
S'0'
sS'Sub'
p186
S'0'
sS'Lost'
p187
S'3'
sS'Drop'
p188
S'0'
sS'Start'
p189
S'3'
sS'Won'
p190
S'0'
sS'GfM'
p191
S'0'
sS'Draw'
p192
S'0'
sS'Mat'
p193
S'3'
sS'Conv'
p194
S'0'
sS'Tries'
p195
S'0'
sS'Pts'
p196
S'0'
sa(dp197
S'Pens'
p198
S'0'
sS'Sub'
p199
S'0'
sS'Lost'
p200
S'1'
sS'Drop'
p201
S'0'
sS'Start'
p202
S'1'
sS'Won'
p203
S'0'
sS'GfM'
p204
S'0'
sS'Draw'
p205
S'0'
sS'Mat'
p206
S'1'
sS'Conv'
p207
S'0'
sS'Tries'
p208
S'0'
sS'Pts'
p209
S'0'
sa(dp210
S'Pens'
p211
S'0'
sS'Sub'
p212
S'0'
sS'Lost'
p213
S'4'
sS'Drop'
p214
S'0'
sS'Start'
p215
S'7'
sS'Won'
p216
S'2'
sS'GfM'
p217
S'0'
sS'Draw'
p218
S'1'
sS'Mat'
p219
S'7'
sS'Conv'
p220
S'3'
sS'Tries'
p221
S'0'
sS'Pts'
p222
S'6'
sa(dp223
S'Pens'
p224
S'0'
sS'Sub'
p225
S'0'
sS'Lost'
p226
S'2'
sS'Drop'
p227
S'0'
sS'Start'
p228
S'4'
sS'Won'
p229
S'0'
sS'GfM'
p230
S'0'
sS'Draw'
p231
S'2'
sS'Mat'
p232
S'4'
sS'Conv'
p233
S'0'
sS'Tries'
p234
S'0'
sS'Pts'
p235
S'0'
sa(dp236
S'Pens'
p237
S'0'
sS'Sub'
p238
S'0'
sS'Lost'
p239
S'2'
sS'Drop'
p240
S'0'
sS'Start'
p241
S'2'
sS'Won'
p242
S'0'
sS'GfM'
p243
S'0'
sS'Draw'
p244
S'0'
sS'Mat'
p245
S'2'
sS'Conv'
p246
S'0'
sS'Tries'
p247
S'0'
sS'Pts'
p248
S'0'
sa(dp249
S'Pens'
p250
S'0'
sS'Sub'
p251
S'0'
sS'Lost'
p252
S'3'
sS'Drop'
p253
S'0'
sS'Start'
p254
S'3'
sS'Won'
p255
S'0'
sS'GfM'
p256
S'0'
sS'Draw'
p257
S'0'
sS'Mat'
p258
S'3'
sS'Conv'
p259
S'0'
sS'Tries'
p260
S'0'
sS'Pts'
p261
S'0'
sa(dp262
S'Pens'
p263
S'0'
sS'Sub'
p264
S'0'
sS'Lost'
p265
S'1'
sS'Drop'
p266
S'0'
sS'Start'
p267
S'1'
sS'Won'
p268
S'0'
sS'GfM'
p269
S'0'
sS'Draw'
p270
S'0'
sS'Mat'
p271
S'1'
sS'Conv'
p272
S'0'
sS'Tries'
p273
S'0'
sS'Pts'
p274
S'0'
sa(dp275
S'Pens'
p276
S'0'
sS'Sub'
p277
S'0'
sS'Lost'
p278
S'1'
sS'Drop'
p279
S'0'
sS'Start'
p280
S'1'
sS'Won'
p281
S'0'
sS'GfM'
p282
S'0'
sS'Draw'
p283
S'0'
sS'Mat'
p284
S'1'
sS'Conv'
p285
S'0'
sS'Tries'
p286
S'0'
sS'Pts'
p287
S'0'
sa(dp288
S'Pens'
p289
S'0'
sS'Sub'
p290
S'0'
sS'Lost'
p291
S'1'
sS'Drop'
p292
S'0'
sS'Start'
p293
S'1'
sS'Won'
p294
S'0'
sS'GfM'
p295
S'0'
sS'Draw'
p296
S'0'
sS'Mat'
p297
S'1'
sS'Conv'
p298
S'0'
sS'Tries'
p299
S'0'
sS'Pts'
p300
S'0'
sa(dp301
S'Pens'
p302
S'0'
sS'Sub'
p303
S'0'
sS'Lost'
p304
S'1'
sS'Drop'
p305
S'0'
sS'Start'
p306
S'1'
sS'Won'
p307
S'0'
sS'GfM'
p308
S'0'
sS'Draw'
p309
S'0'
sS'Mat'
p310
S'1'
sS'Conv'
p311
S'0'
sS'Tries'
p312
S'0'
sS'Pts'
p313
S'0'
sa(dp314
S'Pens'
p315
S'0'
sS'Sub'
p316
S'0'
sS'Lost'
p317
S'1'
sS'Drop'
p318
S'0'
sS'Start'
p319
S'1'
sS'Won'
p320
S'0'
sS'GfM'
p321
S'0'
sS'Draw'
p322
S'0'
sS'Mat'
p323
S'1'
sS'Conv'
p324
S'0'
sS'Tries'
p325
S'0'
sS'Pts'
p326
S'0'
sa(dp327
S'Pens'
p328
S'0'
sS'Sub'
p329
S'0'
sS'Lost'
p330
S'1'
sS'Drop'
p331
S'0'
sS'Start'
p332
S'1'
sS'Won'
p333
S'0'
sS'GfM'
p334
S'0'
sS'Draw'
p335
S'0'
sS'Mat'
p336
S'1'
sS'Conv'
p337
S'0'
sS'Tries'
p338
S'0'
sS'Pts'
p339
S'0'
sa(dp340
S'Pens'
p341
S'0'
sS'Sub'
p342
S'0'
sS'Lost'
p343
S'2'
sS'Drop'
p344
S'0'
sS'Start'
p345
S'3'
sS'Won'
p346
S'1'
sS'GfM'
p347
S'0'
sS'Draw'
p348
S'0'
sS'Mat'
p349
S'3'
sS'Conv'
p350
S'0'
sS'Tries'
p351
S'0'
sS'Pts'
p352
S'0'
sa(dp353
S'Pens'
p354
S'0'
sS'Sub'
p355
S'0'
sS'Lost'
p356
S'1'
sS'Drop'
p357
S'0'
sS'Start'
p358
S'1'
sS'Won'
p359
S'0'
sS'GfM'
p360
S'0'
sS'Draw'
p361
S'0'
sS'Mat'
p362
S'1'
sS'Conv'
p363
S'0'
sS'Tries'
p364
S'0'
sS'Pts'
p365
S'0'
sa(dp366
S'Pens'
p367
S'0'
sS'Sub'
p368
S'0'
sS'Lost'
p369
S'2'
sS'Drop'
p370
S'0'
sS'Start'
p371
S'3'
sS'Won'
p372
S'1'
sS'GfM'
p373
S'0'
sS'Draw'
p374
S'0'
sS'Mat'
p375
S'3'
sS'Conv'
p376
S'0'
sS'Tries'
p377
S'0'
sS'Pts'
p378
S'0'
sa(dp379
S'Pens'
p380
S'0'
sS'Sub'
p381
S'0'
sS'Lost'
p382
S'3'
sS'Drop'
p383
S'0'
sS'Start'
p384
S'4'
sS'Won'
p385
S'1'
sS'GfM'
p386
S'0'
sS'Draw'
p387
S'0'
sS'Mat'
p388
S'4'
sS'Conv'
p389
S'0'
sS'Tries'
p390
S'0'
sS'Pts'
p391
S'0'
sa(dp392
S'Pens'
p393
S'0'
sS'Sub'
p394
S'0'
sS'Lost'
p395
S'2'
sS'Drop'
p396
S'0'
sS'Start'
p397
S'2'
sS'Won'
p398
S'0'
sS'GfM'
p399
S'0'
sS'Draw'
p400
S'0'
sS'Mat'
p401
S'2'
sS'Conv'
p402
S'0'
sS'Tries'
p403
S'0'
sS'Pts'
p404
S'0'
sa(dp405
S'Pens'
p406
S'0'
sS'Sub'
p407
S'0'
sS'Lost'
p408
S'1'
sS'Drop'
p409
S'0'
sS'Start'
p410
S'1'
sS'Won'
p411
S'0'
sS'GfM'
p412
S'0'
sS'Draw'
p413
S'0'
sS'Mat'
p414
S'1'
sS'Conv'
p415
S'0'
sS'Tries'
p416
S'0'
sS'Pts'
p417
S'0'
sa(dp418
S'Pens'
p419
S'0'
sS'Sub'
p420
S'0'
sS'Lost'
p421
S'1'
sS'Drop'
p422
S'0'
sS'Start'
p423
S'1'
sS'Won'
p424
S'0'
sS'GfM'
p425
S'0'
sS'Draw'
p426
S'0'
sS'Mat'
p427
S'1'
sS'Conv'
p428
S'0'
sS'Tries'
p429
S'0'
sS'Pts'
p430
S'0'
sa(dp431
S'Pens'
p432
S'0'
sS'Sub'
p433
S'0'
sS'Lost'
p434
S'1'
sS'Drop'
p435
S'0'
sS'Start'
p436
S'1'
sS'Won'
p437
S'0'
sS'GfM'
p438
S'0'
sS'Draw'
p439
S'0'
sS'Mat'
p440
S'1'
sS'Conv'
p441
S'0'
sS'Tries'
p442
S'0'
sS'Pts'
p443
S'0'
sa(dp444
S'Pens'
p445
S'0'
sS'Sub'
p446
S'0'
sS'Lost'
p447
S'1'
sS'Drop'
p448
S'0'
sS'Start'
p449
S'1'
sS'Won'
p450
S'0'
sS'GfM'
p451
S'0'
sS'Draw'
p452
S'0'
sS'Mat'
p453
S'1'
sS'Conv'
p454
S'0'
sS'Tries'
p455
S'0'
sS'Pts'
p456
S'0'
sa(dp457
S'Pens'
p458
S'0'
sS'Sub'
p459
S'0'
sS'Lost'
p460
S'1'
sS'Drop'
p461
S'0'
sS'Start'
p462
S'1'
sS'Won'
p463
S'0'
sS'GfM'
p464
S'0'
sS'Draw'
p465
S'0'
sS'Mat'
p466
S'1'
sS'Conv'
p467
S'0'
sS'Tries'
p468
S'0'
sS'Pts'
p469
S'0'
sa(dp470
S'Pens'
p471
S'0'
sS'Sub'
p472
S'0'
sS'Lost'
p473
S'1'
sS'Drop'
p474
S'0'
sS'Start'
p475
S'1'
sS'Won'
p476
S'0'
sS'GfM'
p477
S'0'
sS'Draw'
p478
S'0'
sS'Mat'
p479
S'1'
sS'Conv'
p480
S'0'
sS'Tries'
p481
S'0'
sS'Pts'
p482
S'0'
sa(dp483
S'Pens'
p484
S'0'
sS'Sub'
p485
S'0'
sS'Lost'
p486
S'3'
sS'Drop'
p487
S'0'
sS'Start'
p488
S'4'
sS'Won'
p489
S'1'
sS'GfM'
p490
S'0'
sS'Draw'
p491
S'0'
sS'Mat'
p492
S'4'
sS'Conv'
p493
S'0'
sS'Tries'
p494
S'0'
sS'Pts'
p495
S'0'
sa(dp496
S'Pens'
p497
S'0'
sS'Sub'
p498
S'0'
sS'Lost'
p499
S'2'
sS'Drop'
p500
S'0'
sS'Start'
p501
S'3'
sS'Won'
p502
S'1'
sS'GfM'
p503
S'0'
sS'Draw'
p504
S'0'
sS'Mat'
p505
S'3'
sS'Conv'
p506
S'0'
sS'Tries'
p507
S'1'
sS'Pts'
p508
S'3'
sa(dp509
S'Pens'
p510
S'0'
sS'Sub'
p511
S'0'
sS'Lost'
p512
S'3'
sS'Drop'
p513
S'0'
sS'Start'
p514
S'3'
sS'Won'
p515
S'0'
sS'GfM'
p516
S'0'
sS'Draw'
p517
S'0'
sS'Mat'
p518
S'3'
sS'Conv'
p519
S'0'
sS'Tries'
p520
S'0'
sS'Pts'
p521
S'0'
sa(dp522
S'Pens'
p523
S'0'
sS'Sub'
p524
S'0'
sS'Lost'
p525
S'1'
sS'Drop'
p526
S'0'
sS'Start'
p527
S'1'
sS'Won'
p528
S'0'
sS'GfM'
p529
S'0'
sS'Draw'
p530
S'0'
sS'Mat'
p531
S'1'
sS'Conv'
p532
S'0'
sS'Tries'
p533
S'0'
sS'Pts'
p534
S'0'
sa(dp535
S'Pens'
p536
S'0'
sS'Sub'
p537
S'0'
sS'Lost'
p538
S'2'
sS'Drop'
p539
S'0'
sS'Start'
p540
S'3'
sS'Won'
p541
S'1'
sS'GfM'
p542
S'0'
sS'Draw'
p543
S'0'
sS'Mat'
p544
S'3'
sS'Conv'
p545
S'0'
sS'Tries'
p546
S'0'
sS'Pts'
p547
S'0'
sa(dp548
S'Pens'
p549
S'0'
sS'Sub'
p550
S'0'
sS'Lost'
p551
S'1'
sS'Drop'
p552
S'0'
sS'Start'
p553
S'1'
sS'Won'
p554
S'0'
sS'GfM'
p555
S'0'
sS'Draw'
p556
S'0'
sS'Mat'
p557
S'1'
sS'Conv'
p558
S'1'
sS'Tries'
p559
S'0'
sS'Pts'
p560
S'2'
sa(dp561
S'Pens'
p562
S'0'
sS'Sub'
p563
S'0'
sS'Lost'
p564
S'1'
sS'Drop'
p565
S'0'
sS'Start'
p566
S'1'
sS'Won'
p567
S'0'
sS'GfM'
p568
S'0'
sS'Draw'
p569
S'0'
sS'Mat'
p570
S'1'
sS'Conv'
p571
S'0'
sS'Tries'
p572
S'0'
sS'Pts'
p573
S'0'
sa(dp574
S'Pens'
p575
S'0'
sS'Sub'
p576
S'0'
sS'Lost'
p577
S'1'
sS'Drop'
p578
S'0'
sS'Start'
p579
S'1'
sS'Won'
p580
S'0'
sS'GfM'
p581
S'0'
sS'Draw'
p582
S'0'
sS'Mat'
p583
S'1'
sS'Conv'
p584
S'0'
sS'Tries'
p585
S'0'
sS'Pts'
p586
S'0'
sa(dp587
S'Pens'
p588
S'0'
sS'Sub'
p589
S'0'
sS'Lost'
p590
S'1'
sS'Drop'
p591
S'0'
sS'Start'
p592
S'1'
sS'Won'
p593
S'0'
sS'GfM'
p594
S'0'
sS'Draw'
p595
S'0'
sS'Mat'
p596
S'1'
sS'Conv'
p597
S'0'
sS'Tries'
p598
S'0'
sS'Pts'
p599
S'0'
sa(dp600
S'<link href="http://www.espnscrum.com/rss/rugby/story/feeds/0.rss" rel="alternate" title="Global rugby news RSS feed" type="application/rss+xml"/>'
p601
S'0'
sS'<meta content="136690983034347" property="fb:app_id"/>'
p602
S'0'
sS'<meta content="The latest rugby news about Spanner Forbes from ESPN Scrum.com, with statistics, photos and live coverage." name="description"/>'
p603
S'1'
sS'\n'
S'1'
sS'<meta content="athlete" property="og:type"/>'
p604
S'0'
sS'[if IE 9]>\r\n<script language="javascript" type="text/javascript">\r\nfunction fnCreateJumpList(iScenario) {\r\nfnClearJumpList();\r\nwindow.external.msSiteModeCreateJumpList("Quick Links")\r\nwindow.external.msSiteModeAddJumpListItem(\'ESPN Scrum Shop\', \'http://www.espnscrum.com/scrum/rugby/url/243115.html\', \'/favicon.ico\');\r\nwindow.external.msSiteModeAddJumpListItem(\'Champions Cup\', \'http://www.espnscrum.com/european-rugby-champions-cup-2014-15/rugby/series/224327.html\', \'/favicon.ico\');\r\nwindow.external.msSiteModeAddJumpListItem(\'Challenge Cup\', \'http://www.espnscrum.com/european-rugby-challenge-cup-2014-15/rugby/series/229203.html\', \'/favicon.ico\');\r\nwindow.external.msSiteModeAddJumpListItem(\'Aviva Premiership\', \'http://www.espnscrum.com/premiership-2014-15/rugby/series/231649.html\', \'/favicon.ico\');\r\nwindow.external.msSiteModeAddJumpListItem(\'Rugby World Cup Pools\', \'http://www.espnscrum.com/2015-rugby-world-cup/rugby/page/249451.html\', \'/favicon.ico\');\r\nwindow.external.msSiteModeAddJumpListItem(\'Coming Soon: A New ESPN\', \'http://www.espnscrum.com/scrum/rugby/url/260573.html\', \'/favicon.ico\');\r\nwindow.external.msSiteModeShowJumpList();\r\n}\r\nfunction fnClearJumpList() {\r\nwindow.external.msSiteModeClearJumplist();\r\n}\r\n</script>\r\n<meta name="msapplication-task" content="name=News;action-uri=http://www.espnscrum.com/scrum/rugby/story/news.html;icon-uri=/favicon.ico"/>\r\n<meta name="msapplication-task" content="name=Live Scores;action-uri=http://www.espnscrum.com/scrum/rugby/match/scores/live.html;icon-uri=/favicon.ico"/>\r\n<meta name="msapplication-task" content="name=Features;action-uri=http://www.espnscrum.com/scrum/rugby/story/features.html;icon-uri=/favicon.ico"/>\r\n<meta name="msapplication-task" content="name=Photos;action-uri=http://www.espnscrum.com/scrum/rugby/image/index.html;icon-uri=/favicon.ico"/>\r\n<meta name="msapplication-task" content="name=Video;action-uri=http://www.espnscrum.com/scrum/rugby/video_audio/index.html;icon-uri=/favicon.ico"/>\r\n<meta name="msapplication-task" content="name=Stats;action-uri=http://www.espnscrum.com/statsguru/rugby/stats/index.html;icon-uri=/favicon.ico"/>\r\n<script language="javascript" type="text/javascript">\r\n        fnCreateJumpList(2);\r\n</script>\r\n<![endif]'
p605
S'0'
sS'<link href="http://img.scrum.com/scrum/logo_216x35.gif" rel="image_src"/>'
p606
S'0'
sa(dp607
S'Pens'
p608
S'0'
sS'Sub'
p609
S'0'
sS'Lost'
p610
S'1'
sS'Drop'
p611
S'0'
sS'Start'
p612
S'2'
sS'Won'
p613
S'1'
sS'GfM'
p614
S'0'
sS'Draw'
p615
S'0'
sS'Mat'
p616
S'2'
sS'Conv'
p617
S'0'
sS'Tries'
p618
S'1'
sS'Pts'
p619
S'3'
sa(dp620
S'Pens'
p621
S'0'
sS'Sub'
p622
S'0'
sS'Lost'
p623
S'1'
sS'Drop'
p624
S'0'
sS'Start'
p625
S'1'
sS'Won'
p626
S'0'
sS'GfM'
p627
S'0'
sS'Draw'
p628
S'0'
sS'Mat'
p629
S'1'
sS'Conv'
p630
S'0'
sS'Tries'
p631
S'0'
sS'Pts'
p632
S'0'
sa(dp633
S'Pens'
p634
S'0'
sS'Sub'
p635
S'0'
sS'Lost'
p636
S'2'
sS'Drop'
p637
S'0'
sS'Start'
p638
S'3'
sS'Won'
p639
S'1'
sS'GfM'
p640
S'0'
sS'Draw'
p641
S'0'
sS'Mat'
p642
S'3'
sS'Conv'
p643
S'0'
sS'Tries'
p644
S'2'
sS'Pts'
p645
S'6'
sa(dp646
S'Pens'
p647
S'0'
sS'Sub'
p648
S'0'
sS'Lost'
p649
S'1'
sS'Drop'
p650
S'0'
sS'Start'
p651
S'1'
sS'Won'
p652
S'0'
sS'GfM'
p653
S'0'
sS'Draw'
p654
S'0'
sS'Mat'
p655
S'1'
sS'Conv'
p656
S'0'
sS'Tries'
p657
S'0'
sS'Pts'
p658
S'0'
sa(dp659
S'Pens'
p660
S'0'
sS'Sub'
p661
S'0'
sS'Lost'
p662
S'1'
sS'Drop'
p663
S'0'
sS'Start'
p664
S'1'
sS'Won'
p665
S'0'
sS'GfM'
p666
S'0'
sS'Draw'
p667
S'0'
sS'Mat'
p668
S'1'
sS'Conv'
p669
S'0'
sS'Tries'
p670
S'0'
sS'Pts'
p671
S'0'
sa(dp672
S'Pens'
p673
S'0'
sS'Sub'
p674
S'0'
sS'Lost'
p675
S'1'
sS'Drop'
p676
S'0'
sS'Start'
p677
S'2'
sS'Won'
p678
S'1'
sS'GfM'
p679
S'0'
sS'Draw'
p680
S'0'
sS'Mat'
p681
S'2'
sS'Conv'
p682
S'0'
sS'Tries'
p683
S'0'
sS'Pts'
p684
S'0'
sa(dp685
S'Pens'
p686
S'0'
sS'Sub'
p687
S'0'
sS'Lost'
p688
S'1'
sS'Drop'
p689
S'0'
sS'Start'
p690
S'1'
sS'Won'
p691
S'0'
sS'GfM'
p692
S'0'
sS'Draw'
p693
S'0'
sS'Mat'
p694
S'1'
sS'Conv'
p695
S'0'
sS'Tries'
p696
S'0'
sS'Pts'
p697
S'0'
sa(dp698
S'Pens'
p699
S'0'
sS'Sub'
p700
S'0'
sS'Lost'
p701
S'1'
sS'Drop'
p702
S'0'
sS'Start'
p703
S'1'
sS'Won'
p704
S'0'
sS'GfM'
p705
S'0'
sS'Draw'
p706
S'0'
sS'Mat'
p707
S'1'
sS'Conv'
p708
S'0'
sS'Tries'
p709
S'0'
sS'Pts'
p710
S'0'
sa(dp711
S'Pens'
p712
S'0'
sS'Sub'
p713
S'0'
sS'Lost'
p714
S'1'
sS'Drop'
p715
S'0'
sS'Start'
p716
S'1'
sS'Won'
p717
S'0'
sS'GfM'
p718
S'0'
sS'Draw'
p719
S'0'
sS'Mat'
p720
S'1'
sS'Conv'
p721
S'0'
sS'Tries'
p722
S'0'
sS'Pts'
p723
S'0'
sa(dp724
S'Pens'
p725
S'0'
sS'Sub'
p726
S'0'
sS'Lost'
p727
S'0'
sS'Drop'
p728
S'0'
sS'Start'
p729
S'1'
sS'Won'
p730
S'1'
sS'GfM'
p731
S'0'
sS'Draw'
p732
S'0'
sS'Mat'
p733
S'1'
sS'Conv'
p734
S'0'
sS'Tries'
p735
S'0'
sS'Pts'
p736
S'0'
sa(dp737
S'Pens'
p738
S'0'
sS'Sub'
p739
S'0'
sS'Lost'
p740
S'0'
sS'Drop'
p741
S'0'
sS'Start'
p742
S'1'
sS'Won'
p743
S'1'
sS'GfM'
p744
S'0'
sS'Draw'
p745
S'0'
sS'Mat'
p746
S'1'
sS'Conv'
p747
S'0'
sS'Tries'
p748
S'0'
sS'Pts'
p749
S'0'
sa(dp750
S'Pens'
p751
S'0'
sS'Sub'
p752
S'0'
sS'Lost'
p753
S'0'
sS'Drop'
p754
S'0'
sS'Start'
p755
S'1'
sS'Won'
p756
S'1'
sS'GfM'
p757
S'0'
sS'Draw'
p758
S'0'
sS'Mat'
p759
S'1'
sS'Conv'
p760
S'0'
sS'Tries'
p761
S'0'
sS'Pts'
p762
S'0'
sa(dp763
S'Pens'
p764
S'0'
sS'Sub'
p765
S'0'
sS'Lost'
p766
S'0'
sS'Drop'
p767
S'0'
sS'Start'
p768
S'1'
sS'Won'
p769
S'1'
sS'GfM'
p770
S'0'
sS'Draw'
p771
S'0'
sS'Mat'
p772
S'1'
sS'Conv'
p773
S'1'
sS'Tries'
p774
S'0'
sS'Pts'
p775
S'2'
sa(dp776
S'Pens'
p777
S'0'
sS'Sub'
p778
S'0'
sS'Lost'
p779
S'0'
sS'Drop'
p780
S'0'
sS'Start'
p781
S'1'
sS'Won'
p782
S'1'
sS'GfM'
p783
S'0'
sS'Draw'
p784
S'0'
sS'Mat'
p785
S'1'
sS'Conv'
p786
S'0'
sS'Tries'
p787
S'0'
sS'Pts'
p788
S'0'
sa(dp789
S'Pens'
p790
S'0'
sS'Sub'
p791
S'0'
sS'Lost'
p792
S'0'
sS'Drop'
p793
S'0'
sS'Start'
p794
S'3'
sS'Won'
p795
S'1'
sS'GfM'
p796
S'0'
sS'Draw'
p797
S'2'
sS'Mat'
p798
S'3'
sS'Conv'
p799
S'0'
sS'Tries'
p800
S'1'
sS'Pts'
p801
S'3'
sa(dp802
S'Pens'
p803
S'0'
sS'Sub'
p804
S'0'
sS'Lost'
p805
S'0'
sS'Drop'
p806
S'0'
sS'Start'
p807
S'3'
sS'Won'
p808
S'1'
sS'GfM'
p809
S'0'
sS'Draw'
p810
S'2'
sS'Mat'
p811
S'3'
sS'Conv'
p812
S'0'
sS'Tries'
p813
S'0'
sS'Pts'
p814
S'0'
sa(dp815
S'Pens'
p816
S'0'
sS'Sub'
p817
S'0'
sS'Lost'
p818
S'1'
sS'Drop'
p819
S'0'
sS'Start'
p820
S'9'
sS'Won'
p821
S'5'
sS'GfM'
p822
S'0'
sS'Draw'
p823
S'3'
sS'Mat'
p824
S'9'
sS'Conv'
p825
S'0'
sS'Tries'
p826
S'1'
sS'Pts'
p827
S'3'
sa(dp828
S'Pens'
p829
S'0'
sS'Sub'
p830
S'0'
sS'Lost'
p831
S'0'
sS'Drop'
p832
S'0'
sS'Start'
p833
S'4'
sS'Won'
p834
S'3'
sS'GfM'
p835
S'0'
sS'Draw'
p836
S'1'
sS'Mat'
p837
S'4'
sS'Conv'
p838
S'0'
sS'Tries'
p839
S'1'
sS'Pts'
p840
S'3'
sa(dp841
S'Pens'
p842
S'0'
sS'Sub'
p843
S'0'
sS'Lost'
p844
S'0'
sS'Drop'
p845
S'0'
sS'Start'
p846
S'2'
sS'Won'
p847
S'0'
sS'GfM'
p848
S'0'
sS'Draw'
p849
S'2'
sS'Mat'
p850
S'2'
sS'Conv'
p851
S'0'
sS'Tries'
p852
S'0'
sS'Pts'
p853
S'0'
sa(dp854
S'Pens'
p855
S'0'
sS'Sub'
p856
S'0'
sS'Lost'
p857
S'1'
sS'Drop'
p858
S'0'
sS'Start'
p859
S'5'
sS'Won'
p860
S'3'
sS'GfM'
p861
S'0'
sS'Draw'
p862
S'1'
sS'Mat'
p863
S'5'
sS'Conv'
p864
S'0'
sS'Tries'
p865
S'1'
sS'Pts'
p866
S'3'
sa(dp867
S'Pens'
p868
S'0'
sS'Sub'
p869
S'0'
sS'Lost'
p870
S'5'
sS'Drop'
p871
S'0'
sS'Start'
p872
S'18'
p873
sS'Won'
p874
S'9'
sS'GfM'
p875
S'0'
sS'Draw'
p876
S'4'
sS'Mat'
p877
S'18'
p878
sS'Conv'
p879
S'0'
sS'Tries'
p880
S'1'
sS'Pts'
p881
S'3'
sa(dp882
S'Pens'
p883
S'0'
sS'Sub'
p884
S'0'
sS'Lost'
p885
S'0'
sS'Drop'
p886
S'0'
sS'Start'
p887
S'1'
sS'Won'
p888
S'0'
sS'GfM'
p889
S'0'
sS'Draw'
p890
S'1'
sS'Mat'
p891
S'1'
sS'Conv'
p892
S'0'
sS'Tries'
p893
S'0'
sS'Pts'
p894
S'0'
sa(dp895
S'Pens'
p896
S'0'
sS'Sub'
p897
S'0'
sS'Lost'
p898
S'0'
sS'Drop'
p899
S'0'
sS'Start'
p900
S'3'
sS'Won'
p901
S'1'
sS'GfM'
p902
S'0'
sS'Draw'
p903
S'2'
sS'Mat'
p904
S'3'
sS'Conv'
p905
S'0'
sS'Tries'
p906
S'0'
sS'Pts'
p907
S'0'
sa(dp908
S'Pens'
p909
S'0'
sS'Sub'
p910
S'0'
sS'Lost'
p911
S'0'
sS'Drop'
p912
S'0'
sS'Start'
p913
S'1'
sS'Won'
p914
S'0'
sS'GfM'
p915
S'0'
sS'Draw'
p916
S'1'
sS'Mat'
p917
S'1'
sS'Conv'
p918
S'0'
sS'Tries'
p919
S'0'
sS'Pts'
p920
S'0'
sa(dp921
S'Pens'
p922
S'0'
sS'Sub'
p923
S'0'
sS'Lost'
p924
S'1'
sS'Drop'
p925
S'0'
sS'Start'
p926
S'6'
sS'Won'
p927
S'2'
sS'GfM'
p928
S'0'
sS'Draw'
p929
S'3'
sS'Mat'
p930
S'6'
sS'Conv'
p931
S'0'
sS'Tries'
p932
S'1'
sS'Pts'
p933
S'3'
sa(dp934
S'Pens'
p935
S'0'
sS'Sub'
p936
S'0'
sS'Lost'
p937
S'0'
sS'Drop'
p938
S'0'
sS'Start'
p939
S'1'
sS'Won'
p940
S'0'
sS'GfM'
p941
S'0'
sS'Draw'
p942
S'1'
sS'Mat'
p943
S'1'
sS'Conv'
p944
S'0'
sS'Tries'
p945
S'0'
sS'Pts'
p946
S'0'
sa(dp947
S'Pens'
p948
S'0'
sS'Sub'
p949
S'0'
sS'Lost'
p950
S'0'
sS'Drop'
p951
S'0'
sS'Start'
p952
S'2'
sS'Won'
p953
S'1'
sS'GfM'
p954
S'0'
sS'Draw'
p955
S'1'
sS'Mat'
p956
S'2'
sS'Conv'
p957
S'0'
sS'Tries'
p958
S'0'
sS'Pts'
p959
S'0'
sa(dp960
S'Pens'
p961
S'0'
sS'Sub'
p962
S'0'
sS'Lost'
p963
S'0'
sS'Drop'
p964
S'0'
sS'Start'
p965
S'1'
sS'Won'
p966
S'0'
sS'GfM'
p967
S'0'
sS'Draw'
p968
S'1'
sS'Mat'
p969
S'1'
sS'Conv'
p970
S'0'
sS'Tries'
p971
S'0'
sS'Pts'
p972
S'0'
sa(dp973
S'Pens'
p974
S'0'
sS'Sub'
p975
S'0'
sS'Lost'
p976
S'0'
sS'Drop'
p977
S'0'
sS'Start'
p978
S'1'
sS'Won'
p979
S'0'
sS'GfM'
p980
S'0'
sS'Draw'
p981
S'1'
sS'Mat'
p982
S'1'
sS'Conv'
p983
S'0'
sS'Tries'
p984
S'0'
sS'Pts'
p985
S'0'
sa(dp986
S'Pens'
p987
S'0'
sS'Sub'
p988
S'0'
sS'Lost'
p989
S'0'
sS'Drop'
p990
S'0'
sS'Start'
p991
S'1'
sS'Won'
p992
S'0'
sS'GfM'
p993
S'0'
sS'Draw'
p994
S'1'
sS'Mat'
p995
S'1'
sS'Conv'
p996
S'0'
sS'Tries'
p997
S'0'
sS'Pts'
p998
S'0'
sa(dp999
S'Pens'
p1000
S'0'
sS'Sub'
p1001
S'0'
sS'Lost'
p1002
S'0'
sS'Drop'
p1003
S'0'
sS'Start'
p1004
S'2'
sS'Won'
p1005
S'0'
sS'GfM'
p1006
S'0'
sS'Draw'
p1007
S'2'
sS'Mat'
p1008
S'2'
sS'Conv'
p1009
S'0'
sS'Tries'
p1010
S'0'
sS'Pts'
p1011
S'0'
sa(dp1012
S'Pens'
p1013
S'0'
sS'Sub'
p1014
S'0'
sS'Lost'
p1015
S'0'
sS'Drop'
p1016
S'0'
sS'Start'
p1017
S'1'
sS'Won'
p1018
S'0'
sS'GfM'
p1019
S'0'
sS'Draw'
p1020
S'1'
sS'Mat'
p1021
S'1'
sS'Conv'
p1022
S'0'
sS'Tries'
p1023
S'0'
sS'Pts'
p1024
S'0'
sa(dp1025
S'Pens'
p1026
S'0'
sS'Sub'
p1027
S'0'
sS'Lost'
p1028
S'0'
sS'Drop'
p1029
S'0'
sS'Start'
p1030
S'1'
sS'Won'
p1031
S'0'
sS'GfM'
p1032
S'0'
sS'Draw'
p1033
S'1'
sS'Mat'
p1034
S'1'
sS'Conv'
p1035
S'0'
sS'Tries'
p1036
S'0'
sS'Pts'
p1037
S'0'
sa(dp1038
S'Pens'
p1039
S'0'
sS'Sub'
p1040
S'0'
sS'Lost'
p1041
S'0'
sS'Drop'
p1042
S'0'
sS'Start'
p1043
S'3'
sS'Won'
p1044
S'2'
sS'GfM'
p1045
S'0'
sS'Draw'
p1046
S'1'
sS'Mat'
p1047
S'3'
sS'Conv'
p1048
S'0'
sS'Tries'
p1049
S'0'
sS'Pts'
p1050
S'0'
sa(dp1051
S'Pens'
p1052
S'0'
sS'Sub'
p1053
S'0'
sS'Lost'
p1054
S'0'
sS'Drop'
p1055
S'0'
sS'Start'
p1056
S'1'
sS'Won'
p1057
S'0'
sS'GfM'
p1058
S'0'
sS'Draw'
p1059
S'1'
sS'Mat'
p1060
S'1'
sS'Conv'
p1061
S'0'
sS'Tries'
p1062
S'0'
sS'Pts'
p1063
S'0'
sa(dp1064
S'Pens'
p1065
S'0'
sS'Sub'
p1066
S'0'
sS'Lost'
p1067
S'0'
sS'Drop'
p1068
S'0'
sS'Start'
p1069
S'1'
sS'Won'
p1070
S'1'
sS'GfM'
p1071
S'0'
sS'Draw'
p1072
S'0'
sS'Mat'
p1073
S'1'
sS'Conv'
p1074
S'0'
sS'Tries'
p1075
S'0'
sS'Pts'
p1076
S'0'
sa(dp1077
S'Pens'
p1078
S'0'
sS'Sub'
p1079
S'0'
sS'Lost'
p1080
S'0'
sS'Drop'
p1081
S'0'
sS'Start'
p1082
S'1'
sS'Won'
p1083
S'1'
sS'GfM'
p1084
S'0'
sS'Draw'
p1085
S'0'
sS'Mat'
p1086
S'1'
sS'Conv'
p1087
S'0'
sS'Tries'
p1088
S'0'
sS'Pts'
p1089
S'0'
sa(dp1090
S'Pens'
p1091
S'0'
sS'Sub'
p1092
S'0'
sS'Lost'
p1093
S'1'
sS'Drop'
p1094
S'0'
sS'Start'
p1095
S'3'
sS'Won'
p1096
S'2'
sS'GfM'
p1097
S'0'
sS'Draw'
p1098
S'0'
sS'Mat'
p1099
S'3'
sS'Conv'
p1100
S'0'
sS'Tries'
p1101
S'0'
sS'Pts'
p1102
S'0'
sa(dp1103
S'Pens'
p1104
S'0'
sS'Sub'
p1105
S'0'
sS'Lost'
p1106
S'1'
sS'Drop'
p1107
S'0'
sS'Start'
p1108
S'2'
sS'Won'
p1109
S'1'
sS'GfM'
p1110
S'0'
sS'Draw'
p1111
S'0'
sS'Mat'
p1112
S'2'
sS'Conv'
p1113
S'0'
sS'Tries'
p1114
S'0'
sS'Pts'
p1115
S'0'
sa(dp1116
S'Pens'
p1117
S'0'
sS'Sub'
p1118
S'0'
sS'Lost'
p1119
S'0'
sS'Drop'
p1120
S'0'
sS'Start'
p1121
S'1'
sS'Won'
p1122
S'1'
sS'GfM'
p1123
S'0'
sS'Draw'
p1124
S'0'
sS'Mat'
p1125
S'1'
sS'Conv'
p1126
S'0'
sS'Tries'
p1127
S'0'
sS'Pts'
p1128
S'0'
sa(dp1129
S'Pens'
p1130
S'0'
sS'Sub'
p1131
S'0'
sS'Lost'
p1132
S'1'
sS'Drop'
p1133
S'0'
sS'Start'
p1134
S'7'
sS'Won'
p1135
S'5'
sS'GfM'
p1136
S'0'
sS'Draw'
p1137
S'1'
sS'Mat'
p1138
S'7'
sS'Conv'
p1139
S'0'
sS'Tries'
p1140
S'3'
sS'Pts'
p1141
S'9'
sa(dp1142
S'Pens'
p1143
S'0'
sS'Sub'
p1144
S'0'
sS'Lost'
p1145
S'0'
sS'Drop'
p1146
S'0'
sS'Start'
p1147
S'1'
sS'Won'
p1148
S'1'
sS'GfM'
p1149
S'0'
sS'Draw'
p1150
S'0'
sS'Mat'
p1151
S'1'
sS'Conv'
p1152
S'0'
sS'Tries'
p1153
S'1'
sS'Pts'
p1154
S'3'
sa(dp1155
S'Pens'
p1156
S'0'
sS'Sub'
p1157
S'0'
sS'Lost'
p1158
S'0'
sS'Drop'
p1159
S'0'
sS'Start'
p1160
S'4'
sS'Won'
p1161
S'3'
sS'GfM'
p1162
S'0'
sS'Draw'
p1163
S'1'
sS'Mat'
p1164
S'4'
sS'Conv'
p1165
S'0'
sS'Tries'
p1166
S'0'
sS'Pts'
p1167
S'0'
sa(dp1168
S'Pens'
p1169
S'0'
sS'Sub'
p1170
S'0'
sS'Lost'
p1171
S'1'
sS'Drop'
p1172
S'0'
sS'Start'
p1173
S'3'
sS'Won'
p1174
S'1'
sS'GfM'
p1175
S'0'
sS'Draw'
p1176
S'1'
sS'Mat'
p1177
S'3'
sS'Conv'
p1178
S'0'
sS'Tries'
p1179
S'0'
sS'Pts'
p1180
S'0'
sa(dp1181
S'Pens'
p1182
S'0'
sS'Sub'
p1183
S'0'
sS'Lost'
p1184
S'1'
sS'Drop'
p1185
S'0'
sS'Start'
p1186
S'1'
sS'Won'
p1187
S'0'
sS'GfM'
p1188
S'0'
sS'Draw'
p1189
S'0'
sS'Mat'
p1190
S'1'
sS'Conv'
p1191
S'0'
sS'Tries'
p1192
S'0'
sS'Pts'
p1193
S'0'
sa(dp1194
S'Pens'
p1195
S'0'
sS'Sub'
p1196
S'0'
sS'Lost'
p1197
S'1'
sS'Drop'
p1198
S'0'
sS'Start'
p1199
S'2'
sS'Won'
p1200
S'1'
sS'GfM'
p1201
S'0'
sS'Draw'
p1202
S'0'
sS'Mat'
p1203
S'2'
sS'Conv'
p1204
S'0'
sS'Tries'
p1205
S'0'
sS'Pts'
p1206
S'0'
sa(dp1207
S'Pens'
p1208
S'0'
sS'Sub'
p1209
S'0'
sS'Lost'
p1210
S'2'
sS'Drop'
p1211
S'0'
sS'Start'
p1212
S'4'
sS'Won'
p1213
S'2'
sS'GfM'
p1214
S'0'
sS'Draw'
p1215
S'0'
sS'Mat'
p1216
S'4'
sS'Conv'
p1217
S'0'
sS'Tries'
p1218
S'0'
sS'Pts'
p1219
S'0'
sa(dp1220
S'Pens'
p1221
S'0'
sS'Sub'
p1222
S'0'
sS'Lost'
p1223
S'1'
sS'Drop'
p1224
S'0'
sS'Start'
p1225
S'4'
sS'Won'
p1226
S'2'
sS'GfM'
p1227
S'0'
sS'Draw'
p1228
S'1'
sS'Mat'
p1229
S'4'
sS'Conv'
p1230
S'0'
sS'Tries'
p1231
S'0'
sS'Pts'
p1232
S'0'
sa(dp1233
S'Pens'
p1234
S'0'
sS'Sub'
p1235
S'0'
sS'Lost'
p1236
S'1'
sS'Drop'
p1237
S'0'
sS'Start'
p1238
S'3'
sS'Won'
p1239
S'1'
sS'GfM'
p1240
S'0'
sS'Draw'
p1241
S'1'
sS'Mat'
p1242
S'3'
sS'Conv'
p1243
S'0'
sS'Tries'
p1244
S'0'
sS'Pts'
p1245
S'0'
sa(dp1246
S'Pens'
p1247
S'0'
sS'Sub'
p1248
S'0'
sS'Lost'
p1249
S'1'
sS'Drop'
p1250
S'0'
sS'Start'
p1251
S'1'
sS'Won'
p1252
S'0'
sS'GfM'
p1253
S'0'
sS'Draw'
p1254
S'0'
sS'Mat'
p1255
S'1'
sS'Conv'
p1256
S'0'
sS'Tries'
p1257
S'0'
sS'Pts'
p1258
S'0'
sa(dp1259
S'Pens'
p1260
S'0'
sS'Sub'
p1261
S'0'
sS'Lost'
p1262
S'1'
sS'Drop'
p1263
S'0'
sS'Start'
p1264
S'3'
sS'Won'
p1265
S'1'
sS'GfM'
p1266
S'0'
sS'Draw'
p1267
S'1'
sS'Mat'
p1268
S'3'
sS'Conv'
p1269
S'0'
sS'Tries'
p1270
S'0'
sS'Pts'
p1271
S'0'
sa(dp1272
S'Pens'
p1273
S'0'
sS'Sub'
p1274
S'0'
sS'Lost'
p1275
S'1'
sS'Drop'
p1276
S'0'
sS'Start'
p1277
S'4'
sS'Won'
p1278
S'2'
sS'GfM'
p1279
S'0'
sS'Draw'
p1280
S'1'
sS'Mat'
p1281
S'4'
sS'Conv'
p1282
S'0'
sS'Tries'
p1283
S'0'
sS'Pts'
p1284
S'0'
sa(dp1285
S'Pens'
p1286
S'0'
sS'Sub'
p1287
S'0'
sS'Lost'
p1288
S'1'
sS'Drop'
p1289
S'0'
sS'Start'
p1290
S'2'
sS'Won'
p1291
S'1'
sS'GfM'
p1292
S'0'
sS'Draw'
p1293
S'0'
sS'Mat'
p1294
S'2'
sS'Conv'
p1295
S'0'
sS'Tries'
p1296
S'1'
sS'Pts'
p1297
S'3'
sa(dp1298
S'Pens'
p1299
S'0'
sS'Sub'
p1300
S'0'
sS'Lost'
p1301
S'0'
sS'Drop'
p1302
S'0'
sS'Start'
p1303
S'2'
sS'Won'
p1304
S'2'
sS'GfM'
p1305
S'0'
sS'Draw'
p1306
S'0'
sS'Mat'
p1307
S'2'
sS'Conv'
p1308
S'0'
sS'Tries'
p1309
S'0'
sS'Pts'
p1310
S'0'
sa(dp1311
S'Pens'
p1312
S'0'
sS'Sub'
p1313
S'0'
sS'Lost'
p1314
S'0'
sS'Drop'
p1315
S'0'
sS'Start'
p1316
S'3'
sS'Won'
p1317
S'2'
sS'GfM'
p1318
S'0'
sS'Draw'
p1319
S'1'
sS'Mat'
p1320
S'3'
sS'Conv'
p1321
S'0'
sS'Tries'
p1322
S'0'
sS'Pts'
p1323
S'0'
sa(dp1324
S'Pens'
p1325
S'1'
sS'Sub'
p1326
S'0'
sS'Lost'
p1327
S'0'
sS'Drop'
p1328
S'0'
sS'Start'
p1329
S'3'
sS'Won'
p1330
S'2'
sS'GfM'
p1331
S'0'
sS'Draw'
p1332
S'1'
sS'Mat'
p1333
S'3'
sS'Conv'
p1334
S'1'
sS'Tries'
p1335
S'1'
sS'Pts'
p1336
S'8'
sa(dp1337
S'Pens'
p1338
S'0'
sS'Sub'
p1339
S'0'
sS'Lost'
p1340
S'0'
sS'Drop'
p1341
S'0'
sS'Start'
p1342
S'3'
sS'Won'
p1343
S'2'
sS'GfM'
p1344
S'0'
sS'Draw'
p1345
S'1'
sS'Mat'
p1346
S'3'
sS'Conv'
p1347
S'0'
sS'Tries'
p1348
S'0'
sS'Pts'
p1349
S'0'
sa(dp1350
S'Pens'
p1351
S'5'
sS'Sub'
p1352
S'0'
sS'Lost'
p1353
S'0'
sS'Drop'
p1354
S'0'
sS'Start'
p1355
S'9'
sS'Won'
p1356
S'8'
sS'GfM'
p1357
S'0'
sS'Draw'
p1358
S'1'
sS'Mat'
p1359
S'9'
sS'Conv'
p1360
S'7'
sS'Tries'
p1361
S'3'
sS'Pts'
p1362
S'38'
p1363
sa(dp1364
S'Pens'
p1365
S'0'
sS'Sub'
p1366
S'0'
sS'Lost'
p1367
S'1'
sS'Drop'
p1368
S'0'
sS'Start'
p1369
S'6'
sS'Won'
p1370
S'4'
sS'GfM'
p1371
S'0'
sS'Draw'
p1372
S'1'
sS'Mat'
p1373
S'6'
sS'Conv'
p1374
S'0'
sS'Tries'
p1375
S'2'
sS'Pts'
p1376
S'6'
sa(dp1377
S'Pens'
p1378
S'0'
sS'Sub'
p1379
S'0'
sS'Lost'
p1380
S'0'
sS'Drop'
p1381
S'0'
sS'Start'
p1382
S'2'
sS'Won'
p1383
S'2'
sS'GfM'
p1384
S'0'
sS'Draw'
p1385
S'0'
sS'Mat'
p1386
S'2'
sS'Conv'
p1387
S'0'
sS'Tries'
p1388
S'0'
sS'Pts'
p1389
S'0'
sa(dp1390
S'Pens'
p1391
S'0'
sS'Sub'
p1392
S'0'
sS'Lost'
p1393
S'0'
sS'Drop'
p1394
S'0'
sS'Start'
p1395
S'1'
sS'Won'
p1396
S'1'
sS'GfM'
p1397
S'0'
sS'Draw'
p1398
S'0'
sS'Mat'
p1399
S'1'
sS'Conv'
p1400
S'0'
sS'Tries'
p1401
S'0'
sS'Pts'
p1402
S'0'
sa(dp1403
S'Pens'
p1404
S'0'
sS'Sub'
p1405
S'0'
sS'Lost'
p1406
S'1'
sS'Drop'
p1407
S'0'
sS'Start'
p1408
S'3'
sS'Won'
p1409
S'2'
sS'GfM'
p1410
S'0'
sS'Draw'
p1411
S'0'
sS'Mat'
p1412
S'3'
sS'Conv'
p1413
S'0'
sS'Tries'
p1414
S'1'
sS'Pts'
p1415
S'3'
sa(dp1416
S'Pens'
p1417
S'0'
sS'Sub'
p1418
S'0'
sS'Lost'
p1419
S'1'
sS'Drop'
p1420
S'0'
sS'Start'
p1421
S'3'
sS'Won'
p1422
S'2'
sS'GfM'
p1423
S'0'
sS'Draw'
p1424
S'0'
sS'Mat'
p1425
S'3'
sS'Conv'
p1426
S'0'
sS'Tries'
p1427
S'1'
sS'Pts'
p1428
S'3'
sa(dp1429
S'Pens'
p1430
S'0'
sS'Sub'
p1431
S'0'
sS'Lost'
p1432
S'1'
sS'Drop'
p1433
S'0'
sS'Start'
p1434
S'3'
sS'Won'
p1435
S'2'
sS'GfM'
p1436
S'0'
sS'Draw'
p1437
S'0'
sS'Mat'
p1438
S'3'
sS'Conv'
p1439
S'0'
sS'Tries'
p1440
S'0'
sS'Pts'
p1441
S'0'
sa(dp1442
S'Pens'
p1443
S'0'
sS'Sub'
p1444
S'0'
sS'Lost'
p1445
S'1'
sS'Drop'
p1446
S'0'
sS'Start'
p1447
S'7'
sS'Won'
p1448
S'6'
sS'GfM'
p1449
S'0'
sS'Draw'
p1450
S'0'
sS'Mat'
p1451
S'7'
sS'Conv'
p1452
S'1'
sS'Tries'
p1453
S'2'
sS'Pts'
p1454
S'8'
sa(dp1455
S'Pens'
p1456
S'0'
sS'Sub'
p1457
S'0'
sS'Lost'
p1458
S'0'
sS'Drop'
p1459
S'0'
sS'Start'
p1460
S'1'
sS'Won'
p1461
S'1'
sS'GfM'
p1462
S'0'
sS'Draw'
p1463
S'0'
sS'Mat'
p1464
S'1'
sS'Conv'
p1465
S'0'
sS'Tries'
p1466
S'0'
sS'Pts'
p1467
S'0'
sa(dp1468
S'Pens'
p1469
S'0'
sS'Sub'
p1470
S'0'
sS'Lost'
p1471
S'1'
sS'Drop'
p1472
S'0'
sS'Start'
p1473
S'2'
sS'Won'
p1474
S'1'
sS'GfM'
p1475
S'0'
sS'Draw'
p1476
S'0'
sS'Mat'
p1477
S'2'
sS'Conv'
p1478
S'0'
sS'Tries'
p1479
S'0'
sS'Pts'
p1480
S'0'
sa(dp1481
S'Pens'
p1482
S'0'
sS'Sub'
p1483
S'0'
sS'Lost'
p1484
S'1'
sS'Drop'
p1485
S'0'
sS'Start'
p1486
S'3'
sS'Won'
p1487
S'2'
sS'GfM'
p1488
S'0'
sS'Draw'
p1489
S'0'
sS'Mat'
p1490
S'3'
sS'Conv'
p1491
S'0'
sS'Tries'
p1492
S'0'
sS'Pts'
p1493
S'0'
sa(dp1494
S'Pens'
p1495
S'0'
sS'Sub'
p1496
S'0'
sS'Lost'
p1497
S'0'
sS'Drop'
p1498
S'0'
sS'Start'
p1499
S'1'
sS'Won'
p1500
S'1'
sS'GfM'
p1501
S'0'
sS'Draw'
p1502
S'0'
sS'Mat'
p1503
S'1'
sS'Conv'
p1504
S'0'
sS'Tries'
p1505
S'0'
sS'Pts'
p1506
S'0'
sa(dp1507
S'Pens'
p1508
S'0'
sS'Sub'
p1509
S'0'
sS'Lost'
p1510
S'1'
sS'Drop'
p1511
S'0'
sS'Start'
p1512
S'2'
sS'Won'
p1513
S'1'
sS'GfM'
p1514
S'0'
sS'Draw'
p1515
S'0'
sS'Mat'
p1516
S'2'
sS'Conv'
p1517
S'0'
sS'Tries'
p1518
S'1'
sS'Pts'
p1519
S'3'
sa(dp1520
S'Pens'
p1521
S'0'
sS'Sub'
p1522
S'0'
sS'Lost'
p1523
S'1'
sS'Drop'
p1524
S'0'
sS'Start'
p1525
S'1'
sS'Won'
p1526
S'0'
sS'GfM'
p1527
S'0'
sS'Draw'
p1528
S'0'
sS'Mat'
p1529
S'1'
sS'Conv'
p1530
S'0'
sS'Tries'
p1531
S'0'
sS'Pts'
p1532
S'0'
sa(dp1533
S'Pens'
p1534
S'0'
sS'Sub'
p1535
S'0'
sS'Lost'
p1536
S'1'
sS'Drop'
p1537
S'0'
sS'Start'
p1538
S'7'
sS'Won'
p1539
S'6'
sS'GfM'
p1540
S'0'
sS'Draw'
p1541
S'0'
sS'Mat'
p1542
S'7'
sS'Conv'
p1543
S'0'
sS'Tries'
p1544
S'1'
sS'Pts'
p1545
S'3'
sa(dp1546
S'Pens'
p1547
S'0'
sS'Sub'
p1548
S'0'
sS'Lost'
p1549
S'1'
sS'Drop'
p1550
S'0'
sS'Start'
p1551
S'1'
sS'Won'
p1552
S'0'
sS'GfM'
p1553
S'0'
sS'Draw'
p1554
S'0'
sS'Mat'
p1555
S'1'
sS'Conv'
p1556
S'0'
sS'Tries'
p1557
S'1'
sS'Pts'
p1558
S'3'
sa(dp1559
S'Pens'
p1560
S'0'
sS'Sub'
p1561
S'0'
sS'Lost'
p1562
S'1'
sS'Drop'
p1563
S'0'
sS'Start'
p1564
S'1'
sS'Won'
p1565
S'0'
sS'GfM'
p1566
S'0'
sS'Draw'
p1567
S'0'
sS'Mat'
p1568
S'1'
sS'Conv'
p1569
S'0'
sS'Tries'
p1570
S'0'
sS'Pts'
p1571
S'0'
sa(dp1572
S'Pens'
p1573
S'0'
sS'Sub'
p1574
S'0'
sS'Lost'
p1575
S'1'
sS'Drop'
p1576
S'0'
sS'Start'
p1577
S'2'
sS'Won'
p1578
S'1'
sS'GfM'
p1579
S'0'
sS'Draw'
p1580
S'0'
sS'Mat'
p1581
S'2'
sS'Conv'
p1582
S'0'
sS'Tries'
p1583
S'1'
sS'Pts'
p1584
S'3'
sa(dp1585
S'Pens'
p1586
S'0'
sS'Sub'
p1587
S'0'
sS'Lost'
p1588
S'1'
sS'Drop'
p1589
S'0'
sS'Start'
p1590
S'2'
sS'Won'
p1591
S'1'
sS'GfM'
p1592
S'0'
sS'Draw'
p1593
S'0'
sS'Mat'
p1594
S'2'
sS'Conv'
p1595
S'0'
sS'Tries'
p1596
S'0'
sS'Pts'
p1597
S'0'
sa(dp1598
S'Pens'
p1599
S'0'
sS'Sub'
p1600
S'0'
sS'Lost'
p1601
S'1'
sS'Drop'
p1602
S'0'
sS'Start'
p1603
S'9'
sS'Won'
p1604
S'7'
sS'GfM'
p1605
S'0'
sS'Draw'
p1606
S'1'
sS'Mat'
p1607
S'9'
sS'Conv'
p1608
S'0'
sS'Tries'
p1609
S'2'
sS'Pts'
p1610
S'6'
sa(dp1611
S'Pens'
p1612
S'0'
sS'Sub'
p1613
S'0'
sS'Lost'
p1614
S'0'
sS'Drop'
p1615
S'0'
sS'Start'
p1616
S'1'
sS'Won'
p1617
S'1'
sS'GfM'
p1618
S'0'
sS'Draw'
p1619
S'0'
sS'Mat'
p1620
S'1'
sS'Conv'
p1621
S'0'
sS'Tries'
p1622
S'1'
sS'Pts'
p1623
S'3'
sa(dp1624
S'Pens'
p1625
S'0'
sS'Sub'
p1626
S'0'
sS'Lost'
p1627
S'0'
sS'Drop'
p1628
S'0'
sS'Start'
p1629
S'5'
sS'Won'
p1630
S'5'
sS'GfM'
p1631
S'0'
sS'Draw'
p1632
S'0'
sS'Mat'
p1633
S'5'
sS'Conv'
p1634
S'0'
sS'Tries'
p1635
S'2'
sS'Pts'
p1636
S'6'
sa(dp1637
S'Pens'
p1638
S'0'
sS'Sub'
p1639
S'0'
sS'Lost'
p1640
S'0'
sS'Drop'
p1641
S'0'
sS'Start'
p1642
S'5'
sS'Won'
p1643
S'5'
sS'GfM'
p1644
S'0'
sS'Draw'
p1645
S'0'
sS'Mat'
p1646
S'5'
sS'Conv'
p1647
S'0'
sS'Tries'
p1648
S'0'
sS'Pts'
p1649
S'0'
sa(dp1650
S'Pens'
p1651
S'0'
sS'Sub'
p1652
S'0'
sS'Lost'
p1653
S'0'
sS'Drop'
p1654
S'0'
sS'Start'
p1655
S'4'
sS'Won'
p1656
S'4'
sS'GfM'
p1657
S'0'
sS'Draw'
p1658
S'0'
sS'Mat'
p1659
S'4'
sS'Conv'
p1660
S'0'
sS'Tries'
p1661
S'1'
sS'Pts'
p1662
S'3'
sa(dp1663
S'Pens'
p1664
S'0'
sS'Sub'
p1665
S'0'
sS'Lost'
p1666
S'0'
sS'Drop'
p1667
S'0'
sS'Start'
p1668
S'4'
sS'Won'
p1669
S'4'
sS'GfM'
p1670
S'0'
sS'Draw'
p1671
S'0'
sS'Mat'
p1672
S'4'
sS'Conv'
p1673
S'0'
sS'Tries'
p1674
S'0'
sS'Pts'
p1675
S'0'
sa(dp1676
S'Pens'
p1677
S'0'
sS'Sub'
p1678
S'0'
sS'Lost'
p1679
S'0'
sS'Drop'
p1680
S'0'
sS'Start'
p1681
S'5'
sS'Won'
p1682
S'5'
sS'GfM'
p1683
S'0'
sS'Draw'
p1684
S'0'
sS'Mat'
p1685
S'5'
sS'Conv'
p1686
S'0'
sS'Tries'
p1687
S'6'
sS'Pts'
p1688
S'18'
p1689
sa(dp1690
S'Pens'
p1691
S'0'
sS'Sub'
p1692
S'0'
sS'Lost'
p1693
S'0'
sS'Drop'
p1694
S'0'
sS'Start'
p1695
S'5'
sS'Won'
p1696
S'5'
sS'GfM'
p1697
S'0'
sS'Draw'
p1698
S'0'
sS'Mat'
p1699
S'5'
sS'Conv'
p1700
S'2'
sS'Tries'
p1701
S'4'
sS'Pts'
p1702
S'16'
p1703
sa(dp1704
S'Pens'
p1705
S'0'
sS'Sub'
p1706
S'0'
sS'Lost'
p1707
S'1'
sS'Drop'
p1708
S'1'
sS'Start'
p1709
S'8'
sS'Won'
p1710
S'6'
sS'GfM'
p1711
S'0'
sS'Draw'
p1712
S'1'
sS'Mat'
p1713
S'8'
sS'Conv'
p1714
S'6'
sS'Tries'
p1715
S'0'
sS'Pts'
p1716
S'16'
p1717
sa(dp1718
S'Pens'
p1719
S'0'
sS'Sub'
p1720
S'0'
sS'Lost'
p1721
S'0'
sS'Drop'
p1722
S'0'
sS'Start'
p1723
S'5'
sS'Won'
p1724
S'5'
sS'GfM'
p1725
S'0'
sS'Draw'
p1726
S'0'
sS'Mat'
p1727
S'5'
sS'Conv'
p1728
S'0'
sS'Tries'
p1729
S'5'
sS'Pts'
p1730
S'15'
p1731
sa(dp1732
S'Pens'
p1733
S'0'
sS'Sub'
p1734
S'0'
sS'Lost'
p1735
S'0'
sS'Drop'
p1736
S'0'
sS'Start'
p1737
S'3'
sS'Won'
p1738
S'3'
sS'GfM'
p1739
S'0'
sS'Draw'
p1740
S'0'
sS'Mat'
p1741
S'3'
sS'Conv'
p1742
S'0'
sS'Tries'
p1743
S'0'
sS'Pts'
p1744
S'0'
sa(dp1745
S'Pens'
p1746
S'0'
sS'Sub'
p1747
S'0'
sS'Lost'
p1748
S'0'
sS'Drop'
p1749
S'0'
sS'Start'
p1750
S'5'
sS'Won'
p1751
S'5'
sS'GfM'
p1752
S'0'
sS'Draw'
p1753
S'0'
sS'Mat'
p1754
S'5'
sS'Conv'
p1755
S'0'
sS'Tries'
p1756
S'0'
sS'Pts'
p1757
S'0'
sa(dp1758
S'Pens'
p1759
S'0'
sS'Sub'
p1760
S'0'
sS'Lost'
p1761
S'0'
sS'Drop'
p1762
S'0'
sS'Start'
p1763
S'2'
sS'Won'
p1764
S'2'
sS'GfM'
p1765
S'0'
sS'Draw'
p1766
S'0'
sS'Mat'
p1767
S'2'
sS'Conv'
p1768
S'0'
sS'Tries'
p1769
S'0'
sS'Pts'
p1770
S'0'
sa(dp1771
S'Pens'
p1772
S'0'
sS'Sub'
p1773
S'0'
sS'Lost'
p1774
S'0'
sS'Drop'
p1775
S'0'
sS'Start'
p1776
S'1'
sS'Won'
p1777
S'1'
sS'GfM'
p1778
S'0'
sS'Draw'
p1779
S'0'
sS'Mat'
p1780
S'1'
sS'Conv'
p1781
S'0'
sS'Tries'
p1782
S'0'
sS'Pts'
p1783
S'0'
sa(dp1784
S'Pens'
p1785
S'0'
sS'Sub'
p1786
S'0'
sS'Lost'
p1787
S'0'
sS'Drop'
p1788
S'0'
sS'Start'
p1789
S'1'
sS'Won'
p1790
S'1'
sS'GfM'
p1791
S'0'
sS'Draw'
p1792
S'0'
sS'Mat'
p1793
S'1'
sS'Conv'
p1794
S'0'
sS'Tries'
p1795
S'0'
sS'Pts'
p1796
S'0'
sa(dp1797
S'Pens'
p1798
S'0'
sS'Sub'
p1799
S'0'
sS'Lost'
p1800
S'1'
sS'Drop'
p1801
S'0'
sS'Start'
p1802
S'3'
sS'Won'
p1803
S'2'
sS'GfM'
p1804
S'0'
sS'Draw'
p1805
S'0'
sS'Mat'
p1806
S'3'
sS'Conv'
p1807
S'0'
sS'Tries'
p1808
S'0'
sS'Pts'
p1809
S'0'
sa(dp1810
S'Pens'
p1811
S'0'
sS'Sub'
p1812
S'0'
sS'Lost'
p1813
S'2'
sS'Drop'
p1814
S'0'
sS'Start'
p1815
S'8'
sS'Won'
p1816
S'5'
sS'GfM'
p1817
S'0'
sS'Draw'
p1818
S'1'
sS'Mat'
p1819
S'8'
sS'Conv'
p1820
S'0'
sS'Tries'
p1821
S'0'
sS'Pts'
p1822
S'0'
sa(dp1823
S'Pens'
p1824
S'0'
sS'Sub'
p1825
S'0'
sS'Lost'
p1826
S'2'
sS'Drop'
p1827
S'0'
sS'Start'
p1828
S'12'
p1829
sS'Won'
p1830
S'8'
sS'GfM'
p1831
S'0'
sS'Draw'
p1832
S'2'
sS'Mat'
p1833
S'12'
p1834
sS'Conv'
p1835
S'0'
sS'Tries'
p1836
S'1'
sS'Pts'
p1837
S'3'
sa(dp1838
S'Pens'
p1839
S'0'
sS'Sub'
p1840
S'0'
sS'Lost'
p1841
S'1'
sS'Drop'
p1842
S'0'
sS'Start'
p1843
S'3'
sS'Won'
p1844
S'1'
sS'GfM'
p1845
S'0'
sS'Draw'
p1846
S'1'
sS'Mat'
p1847
S'3'
sS'Conv'
p1848
S'0'
sS'Tries'
p1849
S'0'
sS'Pts'
p1850
S'0'
sa(dp1851
S'Pens'
p1852
S'0'
sS'Sub'
p1853
S'0'
sS'Lost'
p1854
S'1'
sS'Drop'
p1855
S'0'
sS'Start'
p1856
S'1'
sS'Won'
p1857
S'0'
sS'GfM'
p1858
S'0'
sS'Draw'
p1859
S'0'
sS'Mat'
p1860
S'1'
sS'Conv'
p1861
S'0'
sS'Tries'
p1862
S'0'
sS'Pts'
p1863
S'0'
sa(dp1864
S'Pens'
p1865
S'0'
sS'Sub'
p1866
S'0'
sS'Lost'
p1867
S'1'
sS'Drop'
p1868
S'0'
sS'Start'
p1869
S'3'
sS'Won'
p1870
S'1'
sS'GfM'
p1871
S'0'
sS'Draw'
p1872
S'1'
sS'Mat'
p1873
S'3'
sS'Conv'
p1874
S'0'
sS'Tries'
p1875
S'0'
sS'Pts'
p1876
S'0'
sa(dp1877
S'Pens'
p1878
S'0'
sS'Sub'
p1879
S'0'
sS'Lost'
p1880
S'1'
sS'Drop'
p1881
S'0'
sS'Start'
p1882
S'1'
sS'Won'
p1883
S'0'
sS'GfM'
p1884
S'0'
sS'Draw'
p1885
S'0'
sS'Mat'
p1886
S'1'
sS'Conv'
p1887
S'0'
sS'Tries'
p1888
S'0'
sS'Pts'
p1889
S'0'
sa(dp1890
S'Pens'
p1891
S'0'
sS'Sub'
p1892
S'0'
sS'Lost'
p1893
S'1'
sS'Drop'
p1894
S'0'
sS'Start'
p1895
S'2'
sS'Won'
p1896
S'1'
sS'GfM'
p1897
S'0'
sS'Draw'
p1898
S'0'
sS'Mat'
p1899
S'2'
sS'Conv'
p1900
S'0'
sS'Tries'
p1901
S'0'
sS'Pts'
p1902
S'0'
sa(dp1903
S'Pens'
p1904
S'0'
sS'Sub'
p1905
S'0'
sS'Lost'
p1906
S'3'
sS'Drop'
p1907
S'0'
sS'Start'
p1908
S'14'
p1909
sS'Won'
p1910
S'10'
p1911
sS'GfM'
p1912
S'1'
sS'Draw'
p1913
S'1'
sS'Mat'
p1914
S'14'
p1915
sS'Conv'
p1916
S'0'
sS'Tries'
p1917
S'1'
sS'Pts'
p1918
S'6'
sa(dp1919
S'Pens'
p1920
S'0'
sS'Sub'
p1921
S'0'
sS'Lost'
p1922
S'1'
sS'Drop'
p1923
S'0'
sS'Start'
p1924
S'2'
sS'Won'
p1925
S'1'
sS'GfM'
p1926
S'0'
sS'Draw'
p1927
S'0'
sS'Mat'
p1928
S'2'
sS'Conv'
p1929
S'0'
sS'Tries'
p1930
S'0'
sS'Pts'
p1931
S'0'
sa(dp1932
S'Pens'
p1933
S'0'
sS'Sub'
p1934
S'0'
sS'Lost'
p1935
S'1'
sS'Drop'
p1936
S'0'
sS'Start'
p1937
S'1'
sS'Won'
p1938
S'0'
sS'GfM'
p1939
S'0'
sS'Draw'
p1940
S'0'
sS'Mat'
p1941
S'1'
sS'Conv'
p1942
S'0'
sS'Tries'
p1943
S'0'
sS'Pts'
p1944
S'0'
sa(dp1945
S'Pens'
p1946
S'0'
sS'Sub'
p1947
S'0'
sS'Lost'
p1948
S'1'
sS'Drop'
p1949
S'0'
sS'Start'
p1950
S'2'
sS'Won'
p1951
S'0'
sS'GfM'
p1952
S'0'
sS'Draw'
p1953
S'1'
sS'Mat'
p1954
S'2'
sS'Conv'
p1955
S'0'
sS'Tries'
p1956
S'1'
sS'Pts'
p1957
S'3'
sa(dp1958
S'Pens'
p1959
S'0'
sS'Sub'
p1960
S'0'
sS'Lost'
p1961
S'1'
sS'Drop'
p1962
S'0'
sS'Start'
p1963
S'6'
sS'Won'
p1964
S'3'
sS'GfM'
p1965
S'0'
sS'Draw'
p1966
S'2'
sS'Mat'
p1967
S'6'
sS'Conv'
p1968
S'0'
sS'Tries'
p1969
S'0'
sS'Pts'
p1970
S'0'
sa(dp1971
S'Pens'
p1972
S'0'
sS'Sub'
p1973
S'0'
sS'Lost'
p1974
S'0'
sS'Drop'
p1975
S'0'
sS'Start'
p1976
S'5'
sS'Won'
p1977
S'3'
sS'GfM'
p1978
S'0'
sS'Draw'
p1979
S'2'
sS'Mat'
p1980
S'5'
sS'Conv'
p1981
S'0'
sS'Tries'
p1982
S'0'
sS'Pts'
p1983
S'0'
sa(dp1984
S'Pens'
p1985
S'0'
sS'Sub'
p1986
S'0'
sS'Lost'
p1987
S'0'
sS'Drop'
p1988
S'0'
sS'Start'
p1989
S'6'
sS'Won'
p1990
S'4'
sS'GfM'
p1991
S'0'
sS'Draw'
p1992
S'2'
sS'Mat'
p1993
S'6'
sS'Conv'
p1994
S'0'
sS'Tries'
p1995
S'0'
sS'Pts'
p1996
S'0'
sa(dp1997
S'Pens'
p1998
S'0'
sS'Sub'
p1999
S'0'
sS'Lost'
p2000
S'0'
sS'Drop'
p2001
S'0'
sS'Start'
p2002
S'2'
sS'Won'
p2003
S'1'
sS'GfM'
p2004
S'0'
sS'Draw'
p2005
S'1'
sS'Mat'
p2006
S'2'
sS'Conv'
p2007
S'0'
sS'Tries'
p2008
S'0'
sS'Pts'
p2009
S'0'
sa(dp2010
S'Pens'
p2011
S'0'
sS'Sub'
p2012
S'0'
sS'Lost'
p2013
S'0'
sS'Drop'
p2014
S'0'
sS'Start'
p2015
S'1'
sS'Won'
p2016
S'1'
sS'GfM'
p2017
S'0'
sS'Draw'
p2018
S'0'
sS'Mat'
p2019
S'1'
sS'Conv'
p2020
S'0'
sS'Tries'
p2021
S'1'
sS'Pts'
p2022
S'3'
sa(dp2023
S'Pens'
p2024
S'0'
sS'Sub'
p2025
S'0'
sS'Lost'
p2026
S'0'
sS'Drop'
p2027
S'0'
sS'Start'
p2028
S'2'
sS'Won'
p2029
S'1'
sS'GfM'
p2030
S'0'
sS'Draw'
p2031
S'1'
sS'Mat'
p2032
S'2'
sS'Conv'
p2033
S'0'
sS'Tries'
p2034
S'0'
sS'Pts'
p2035
S'0'
sa(dp2036
S'Pens'
p2037
S'0'
sS'Sub'
p2038
S'0'
sS'Lost'
p2039
S'0'
sS'Drop'
p2040
S'0'
sS'Start'
p2041
S'2'
sS'Won'
p2042
S'1'
sS'GfM'
p2043
S'0'
sS'Draw'
p2044
S'1'
sS'Mat'
p2045
S'2'
sS'Conv'
p2046
S'0'
sS'Tries'
p2047
S'0'
sS'Pts'
p2048
S'0'
sa(dp2049
S'Pens'
p2050
S'0'
sS'Sub'
p2051
S'0'
sS'Lost'
p2052
S'0'
sS'Drop'
p2053
S'0'
sS'Start'
p2054
S'2'
sS'Won'
p2055
S'0'
sS'GfM'
p2056
S'0'
sS'Draw'
p2057
S'2'
sS'Mat'
p2058
S'2'
sS'Conv'
p2059
S'0'
sS'Tries'
p2060
S'0'
sS'Pts'
p2061
S'0'
sa(dp2062
S'Pens'
p2063
S'0'
sS'Sub'
p2064
S'0'
sS'Lost'
p2065
S'0'
sS'Drop'
p2066
S'0'
sS'Start'
p2067
S'1'
sS'Won'
p2068
S'0'
sS'GfM'
p2069
S'0'
sS'Draw'
p2070
S'1'
sS'Mat'
p2071
S'1'
sS'Conv'
p2072
S'0'
sS'Tries'
p2073
S'0'
sS'Pts'
p2074
S'0'
sa(dp2075
S'Pens'
p2076
S'0'
sS'Sub'
p2077
S'0'
sS'Lost'
p2078
S'0'
sS'Drop'
p2079
S'0'
sS'Start'
p2080
S'4'
sS'Won'
p2081
S'3'
sS'GfM'
p2082
S'0'
sS'Draw'
p2083
S'1'
sS'Mat'
p2084
S'4'
sS'Conv'
p2085
S'0'
sS'Tries'
p2086
S'1'
sS'Pts'
p2087
S'3'
sa(dp2088
S'Pens'
p2089
S'0'
sS'Sub'
p2090
S'0'
sS'Lost'
p2091
S'0'
sS'Drop'
p2092
S'0'
sS'Start'
p2093
S'2'
sS'Won'
p2094
S'2'
sS'GfM'
p2095
S'0'
sS'Draw'
p2096
S'0'
sS'Mat'
p2097
S'2'
sS'Conv'
p2098
S'0'
sS'Tries'
p2099
S'1'
sS'Pts'
p2100
S'3'
sa(dp2101
S'Pens'
p2102
S'0'
sS'Sub'
p2103
S'0'
sS'Lost'
p2104
S'0'
sS'Drop'
p2105
S'0'
sS'Start'
p2106
S'1'
sS'Won'
p2107
S'1'
sS'GfM'
p2108
S'0'
sS'Draw'
p2109
S'0'
sS'Mat'
p2110
S'1'
sS'Conv'
p2111
S'0'
sS'Tries'
p2112
S'0'
sS'Pts'
p2113
S'0'
sa(dp2114
S'Pens'
p2115
S'4'
sS'Sub'
p2116
S'0'
sS'Lost'
p2117
S'4'
sS'Drop'
p2118
S'4'
sS'Start'
p2119
S'17'
p2120
sS'Won'
p2121
S'12'
p2122
sS'GfM'
p2123
S'0'
sS'Draw'
p2124
S'1'
sS'Mat'
p2125
S'17'
p2126
sS'Conv'
p2127
S'6'
sS'Tries'
p2128
S'2'
sS'Pts'
p2129
S'46'
p2130
sa(dp2131
S'Pens'
p2132
S'0'
sS'Sub'
p2133
S'0'
sS'Lost'
p2134
S'0'
sS'Drop'
p2135
S'0'
sS'Start'
p2136
S'2'
sS'Won'
p2137
S'2'
sS'GfM'
p2138
S'0'
sS'Draw'
p2139
S'0'
sS'Mat'
p2140
S'2'
sS'Conv'
p2141
S'0'
sS'Tries'
p2142
S'0'
sS'Pts'
p2143
S'0'
sa(dp2144
S'Pens'
p2145
S'0'
sS'Sub'
p2146
S'0'
sS'Lost'
p2147
S'0'
sS'Drop'
p2148
S'1'
sS'Start'
p2149
S'4'
sS'Won'
p2150
S'3'
sS'GfM'
p2151
S'0'
sS'Draw'
p2152
S'1'
sS'Mat'
p2153
S'4'
sS'Conv'
p2154
S'0'
sS'Tries'
p2155
S'3'
sS'Pts'
p2156
S'13'
p2157
sa(dp2158
S'Pens'
p2159
S'0'
sS'Sub'
p2160
S'0'
sS'Lost'
p2161
S'2'
sS'Drop'
p2162
S'0'
sS'Start'
p2163
S'5'
sS'Won'
p2164
S'3'
sS'GfM'
p2165
S'0'
sS'Draw'
p2166
S'0'
sS'Mat'
p2167
S'5'
sS'Conv'
p2168
S'0'
sS'Tries'
p2169
S'0'
sS'Pts'
p2170
S'0'
sa(dp2171
S'Pens'
p2172
S'0'
sS'Sub'
p2173
S'0'
sS'Lost'
p2174
S'2'
sS'Drop'
p2175
S'0'
sS'Start'
p2176
S'8'
sS'Won'
p2177
S'5'
sS'GfM'
p2178
S'0'
sS'Draw'
p2179
S'1'
sS'Mat'
p2180
S'8'
sS'Conv'
p2181
S'0'
sS'Tries'
p2182
S'2'
sS'Pts'
p2183
S'6'
sa(dp2184
S'Pens'
p2185
S'0'
sS'Sub'
p2186
S'0'
sS'Lost'
p2187
S'0'
sS'Drop'
p2188
S'0'
sS'Start'
p2189
S'2'
sS'Won'
p2190
S'2'
sS'GfM'
p2191
S'0'
sS'Draw'
p2192
S'0'
sS'Mat'
p2193
S'2'
sS'Conv'
p2194
S'0'
sS'Tries'
p2195
S'1'
sS'Pts'
p2196
S'3'
sa(dp2197
S'Pens'
p2198
S'0'
sS'Sub'
p2199
S'0'
sS'Lost'
p2200
S'0'
sS'Drop'
p2201
S'0'
sS'Start'
p2202
S'3'
sS'Won'
p2203
S'2'
sS'GfM'
p2204
S'0'
sS'Draw'
p2205
S'1'
sS'Mat'
p2206
S'3'
sS'Conv'
p2207
S'0'
sS'Tries'
p2208
S'0'
sS'Pts'
p2209
S'0'
sa(dp2210
S'Pens'
p2211
S'0'
sS'Sub'
p2212
S'0'
sS'Lost'
p2213
S'0'
sS'Drop'
p2214
S'0'
sS'Start'
p2215
S'2'
sS'Won'
p2216
S'2'
sS'GfM'
p2217
S'0'
sS'Draw'
p2218
S'0'
sS'Mat'
p2219
S'2'
sS'Conv'
p2220
S'0'
sS'Tries'
p2221
S'0'
sS'Pts'
p2222
S'0'
sa(dp2223
S'Pens'
p2224
S'0'
sS'Sub'
p2225
S'0'
sS'Lost'
p2226
S'1'
sS'Drop'
p2227
S'0'
sS'Start'
p2228
S'2'
sS'Won'
p2229
S'0'
sS'GfM'
p2230
S'0'
sS'Draw'
p2231
S'1'
sS'Mat'
p2232
S'2'
sS'Conv'
p2233
S'0'
sS'Tries'
p2234
S'0'
sS'Pts'
p2235
S'0'
sa(dp2236
S'Pens'
p2237
S'0'
sS'Sub'
p2238
S'0'
sS'Lost'
p2239
S'0'
sS'Drop'
p2240
S'0'
sS'Start'
p2241
S'2'
sS'Won'
p2242
S'1'
sS'GfM'
p2243
S'0'
sS'Draw'
p2244
S'1'
sS'Mat'
p2245
S'2'
sS'Conv'
p2246
S'0'
sS'Tries'
p2247
S'0'
sS'Pts'
p2248
S'0'
sa(dp2249
S'Pens'
p2250
S'0'
sS'Sub'
p2251
S'0'
sS'Lost'
p2252
S'0'
sS'Drop'
p2253
S'0'
sS'Start'
p2254
S'3'
sS'Won'
p2255
S'2'
sS'GfM'
p2256
S'0'
sS'Draw'
p2257
S'1'
sS'Mat'
p2258
S'3'
sS'Conv'
p2259
S'0'
sS'Tries'
p2260
S'2'
sS'Pts'
p2261
S'6'
sa(dp2262
S'Pens'
p2263
S'0'
sS'Sub'
p2264
S'0'
sS'Lost'
p2265
S'0'
sS'Drop'
p2266
S'0'
sS'Start'
p2267
S'2'
sS'Won'
p2268
S'1'
sS'GfM'
p2269
S'0'
sS'Draw'
p2270
S'1'
sS'Mat'
p2271
S'2'
sS'Conv'
p2272
S'0'
sS'Tries'
p2273
S'0'
sS'Pts'
p2274
S'0'
sa(dp2275
S'Pens'
p2276
S'0'
sS'Sub'
p2277
S'0'
sS'Lost'
p2278
S'2'
sS'Drop'
p2279
S'0'
sS'Start'
p2280
S'8'
sS'Won'
p2281
S'6'
sS'GfM'
p2282
S'0'
sS'Draw'
p2283
S'0'
sS'Mat'
p2284
S'8'
sS'Conv'
p2285
S'0'
sS'Tries'
p2286
S'2'
sS'Pts'
p2287
S'6'
sa(dp2288
S'Pens'
p2289
S'0'
sS'Sub'
p2290
S'0'
sS'Lost'
p2291
S'2'
sS'Drop'
p2292
S'0'
sS'Start'
p2293
S'8'
sS'Won'
p2294
S'6'
sS'GfM'
p2295
S'0'
sS'Draw'
p2296
S'0'
sS'Mat'
p2297
S'8'
sS'Conv'
p2298
S'0'
sS'Tries'
p2299
S'0'
sS'Pts'
p2300
S'0'
sa(dp2301
S'Pens'
p2302
S'0'
sS'Sub'
p2303
S'0'
sS'Lost'
p2304
S'0'
sS'Drop'
p2305
S'0'
sS'Start'
p2306
S'1'
sS'Won'
p2307
S'1'
sS'GfM'
p2308
S'0'
sS'Draw'
p2309
S'0'
sS'Mat'
p2310
S'1'
sS'Conv'
p2311
S'0'
sS'Tries'
p2312
S'0'
sS'Pts'
p2313
S'0'
sa(dp2314
S'Pens'
p2315
S'0'
sS'Sub'
p2316
S'0'
sS'Lost'
p2317
S'3'
sS'Drop'
p2318
S'0'
sS'Start'
p2319
S'16'
p2320
sS'Won'
p2321
S'13'
p2322
sS'GfM'
p2323
S'0'
sS'Draw'
p2324
S'0'
sS'Mat'
p2325
S'16'
p2326
sS'Conv'
p2327
S'0'
sS'Tries'
p2328
S'1'
sS'Pts'
p2329
S'3'
sa(dp2330
S'Pens'
p2331
S'0'
sS'Sub'
p2332
S'0'
sS'Lost'
p2333
S'0'
sS'Drop'
p2334
S'0'
sS'Start'
p2335
S'1'
sS'Won'
p2336
S'1'
sS'GfM'
p2337
S'0'
sS'Draw'
p2338
S'0'
sS'Mat'
p2339
S'1'
sS'Conv'
p2340
S'0'
sS'Tries'
p2341
S'0'
sS'Pts'
p2342
S'0'
sa(dp2343
S'Pens'
p2344
S'0'
sS'Sub'
p2345
S'0'
sS'Lost'
p2346
S'1'
sS'Drop'
p2347
S'0'
sS'Start'
p2348
S'2'
sS'Won'
p2349
S'1'
sS'GfM'
p2350
S'0'
sS'Draw'
p2351
S'0'
sS'Mat'
p2352
S'2'
sS'Conv'
p2353
S'0'
sS'Tries'
p2354
S'0'
sS'Pts'
p2355
S'0'
sa(dp2356
S'Pens'
p2357
S'0'
sS'Sub'
p2358
S'0'
sS'Lost'
p2359
S'2'
sS'Drop'
p2360
S'0'
sS'Start'
p2361
S'4'
sS'Won'
p2362
S'2'
sS'GfM'
p2363
S'0'
sS'Draw'
p2364
S'0'
sS'Mat'
p2365
S'4'
sS'Conv'
p2366
S'0'
sS'Tries'
p2367
S'0'
sS'Pts'
p2368
S'0'
sa(dp2369
S'Pens'
p2370
S'0'
sS'Sub'
p2371
S'0'
sS'Lost'
p2372
S'0'
sS'Drop'
p2373
S'0'
sS'Start'
p2374
S'1'
sS'Won'
p2375
S'1'
sS'GfM'
p2376
S'0'
sS'Draw'
p2377
S'0'
sS'Mat'
p2378
S'1'
sS'Conv'
p2379
S'0'
sS'Tries'
p2380
S'0'
sS'Pts'
p2381
S'0'
sa(dp2382
S'Pens'
p2383
S'0'
sS'Sub'
p2384
S'0'
sS'Lost'
p2385
S'1'
sS'Drop'
p2386
S'0'
sS'Start'
p2387
S'2'
sS'Won'
p2388
S'1'
sS'GfM'
p2389
S'0'
sS'Draw'
p2390
S'0'
sS'Mat'
p2391
S'2'
sS'Conv'
p2392
S'0'
sS'Tries'
p2393
S'0'
sS'Pts'
p2394
S'0'
sa(dp2395
S'Pens'
p2396
S'7'
sS'Sub'
p2397
S'0'
sS'Lost'
p2398
S'3'
sS'Drop'
p2399
S'2'
sS'Start'
p2400
S'16'
p2401
sS'Won'
p2402
S'13'
p2403
sS'GfM'
p2404
S'0'
sS'Draw'
p2405
S'0'
sS'Mat'
p2406
S'16'
p2407
sS'Conv'
p2408
S'13'
p2409
sS'Tries'
p2410
S'0'
sS'Pts'
p2411
S'55'
p2412
sa(dp2413
S'Pens'
p2414
S'0'
sS'Sub'
p2415
S'0'
sS'Lost'
p2416
S'1'
sS'Drop'
p2417
S'0'
sS'Start'
p2418
S'1'
sS'Won'
p2419
S'0'
sS'GfM'
p2420
S'0'
sS'Draw'
p2421
S'0'
sS'Mat'
p2422
S'1'
sS'Conv'
p2423
S'0'
sS'Tries'
p2424
S'0'
sS'Pts'
p2425
S'0'
sa(dp2426
S'Pens'
p2427
S'0'
sS'Sub'
p2428
S'0'
sS'Lost'
p2429
S'1'
sS'Drop'
p2430
S'0'
sS'Start'
p2431
S'1'
sS'Won'
p2432
S'0'
sS'GfM'
p2433
S'0'
sS'Draw'
p2434
S'0'
sS'Mat'
p2435
S'1'
sS'Conv'
p2436
S'0'
sS'Tries'
p2437
S'0'
sS'Pts'
p2438
S'0'
sa(dp2439
S'Pens'
p2440
S'0'
sS'Sub'
p2441
S'0'
sS'Lost'
p2442
S'2'
sS'Drop'
p2443
S'0'
sS'Start'
p2444
S'4'
sS'Won'
p2445
S'2'
sS'GfM'
p2446
S'0'
sS'Draw'
p2447
S'0'
sS'Mat'
p2448
S'4'
sS'Conv'
p2449
S'0'
sS'Tries'
p2450
S'1'
sS'Pts'
p2451
S'3'
sa(dp2452
S'Pens'
p2453
S'0'
sS'Sub'
p2454
S'0'
sS'Lost'
p2455
S'0'
sS'Drop'
p2456
S'0'
sS'Start'
p2457
S'1'
sS'Won'
p2458
S'1'
sS'GfM'
p2459
S'0'
sS'Draw'
p2460
S'0'
sS'Mat'
p2461
S'1'
sS'Conv'
p2462
S'0'
sS'Tries'
p2463
S'1'
sS'Pts'
p2464
S'3'
sa(dp2465
S'Pens'
p2466
S'0'
sS'Sub'
p2467
S'0'
sS'Lost'
p2468
S'1'
sS'Drop'
p2469
S'0'
sS'Start'
p2470
S'2'
sS'Won'
p2471
S'1'
sS'GfM'
p2472
S'0'
sS'Draw'
p2473
S'0'
sS'Mat'
p2474
S'2'
sS'Conv'
p2475
S'0'
sS'Tries'
p2476
S'0'
sS'Pts'
p2477
S'0'
sa(dp2478
S'Pens'
p2479
S'0'
sS'Sub'
p2480
S'0'
sS'Lost'
p2481
S'4'
sS'Drop'
p2482
S'0'
sS'Start'
p2483
S'18'
p2484
sS'Won'
p2485
S'14'
p2486
sS'GfM'
p2487
S'0'
sS'Draw'
p2488
S'0'
sS'Mat'
p2489
S'18'
p2490
sS'Conv'
p2491
S'0'
sS'Tries'
p2492
S'1'
sS'Pts'
p2493
S'3'
sa(dp2494
S'Pens'
p2495
S'0'
sS'Sub'
p2496
S'0'
sS'Lost'
p2497
S'1'
sS'Drop'
p2498
S'0'
sS'Start'
p2499
S'2'
sS'Won'
p2500
S'1'
sS'GfM'
p2501
S'0'
sS'Draw'
p2502
S'0'
sS'Mat'
p2503
S'2'
sS'Conv'
p2504
S'0'
sS'Tries'
p2505
S'0'
sS'Pts'
p2506
S'0'
sa(dp2507
S'Pens'
p2508
S'0'
sS'Sub'
p2509
S'0'
sS'Lost'
p2510
S'1'
sS'Drop'
p2511
S'0'
sS'Start'
p2512
S'2'
sS'Won'
p2513
S'1'
sS'GfM'
p2514
S'0'
sS'Draw'
p2515
S'0'
sS'Mat'
p2516
S'2'
sS'Conv'
p2517
S'0'
sS'Tries'
p2518
S'0'
sS'Pts'
p2519
S'0'
sa(dp2520
S'Pens'
p2521
S'0'
sS'Sub'
p2522
S'0'
sS'Lost'
p2523
S'1'
sS'Drop'
p2524
S'0'
sS'Start'
p2525
S'1'
sS'Won'
p2526
S'0'
sS'GfM'
p2527
S'0'
sS'Draw'
p2528
S'0'
sS'Mat'
p2529
S'1'
sS'Conv'
p2530
S'0'
sS'Tries'
p2531
S'0'
sS'Pts'
p2532
S'0'
sa(dp2533
S'Pens'
p2534
S'0'
sS'Sub'
p2535
S'0'
sS'Lost'
p2536
S'1'
sS'Drop'
p2537
S'0'
sS'Start'
p2538
S'1'
sS'Won'
p2539
S'0'
sS'GfM'
p2540
S'0'
sS'Draw'
p2541
S'0'
sS'Mat'
p2542
S'1'
sS'Conv'
p2543
S'0'
sS'Tries'
p2544
S'0'
sS'Pts'
p2545
S'0'
sa(dp2546
S'Pens'
p2547
S'0'
sS'Sub'
p2548
S'0'
sS'Lost'
p2549
S'4'
sS'Drop'
p2550
S'0'
sS'Start'
p2551
S'17'
p2552
sS'Won'
p2553
S'13'
p2554
sS'GfM'
p2555
S'0'
sS'Draw'
p2556
S'0'
sS'Mat'
p2557
S'17'
p2558
sS'Conv'
p2559
S'0'
sS'Tries'
p2560
S'7'
sS'Pts'
p2561
S'21'
p2562
sa(dp2563
S'Pens'
p2564
S'0'
sS'Sub'
p2565
S'0'
sS'Lost'
p2566
S'4'
sS'Drop'
p2567
S'0'
sS'Start'
p2568
S'16'
p2569
sS'Won'
p2570
S'12'
p2571
sS'GfM'
p2572
S'0'
sS'Draw'
p2573
S'0'
sS'Mat'
p2574
S'16'
p2575
sS'Conv'
p2576
S'0'
sS'Tries'
p2577
S'2'
sS'Pts'
p2578
S'6'
sa(dp2579
S'Pens'
p2580
S'0'
sS'Sub'
p2581
S'0'
sS'Lost'
p2582
S'1'
sS'Drop'
p2583
S'0'
sS'Start'
p2584
S'4'
sS'Won'
p2585
S'3'
sS'GfM'
p2586
S'0'
sS'Draw'
p2587
S'0'
sS'Mat'
p2588
S'4'
sS'Conv'
p2589
S'0'
sS'Tries'
p2590
S'0'
sS'Pts'
p2591
S'0'
sa(dp2592
S'Pens'
p2593
S'0'
sS'Sub'
p2594
S'0'
sS'Lost'
p2595
S'2'
sS'Drop'
p2596
S'0'
sS'Start'
p2597
S'9'
sS'Won'
p2598
S'7'
sS'GfM'
p2599
S'0'
sS'Draw'
p2600
S'0'
sS'Mat'
p2601
S'9'
sS'Conv'
p2602
S'0'
sS'Tries'
p2603
S'0'
sS'Pts'
p2604
S'0'
sa(dp2605
S'Pens'
p2606
S'0'
sS'Sub'
p2607
S'0'
sS'Lost'
p2608
S'0'
sS'Drop'
p2609
S'0'
sS'Start'
p2610
S'4'
sS'Won'
p2611
S'4'
sS'GfM'
p2612
S'0'
sS'Draw'
p2613
S'0'
sS'Mat'
p2614
S'4'
sS'Conv'
p2615
S'0'
sS'Tries'
p2616
S'0'
sS'Pts'
p2617
S'0'
sa(dp2618
S'Pens'
p2619
S'0'
sS'Sub'
p2620
S'0'
sS'Lost'
p2621
S'0'
sS'Drop'
p2622
S'0'
sS'Start'
p2623
S'1'
sS'Won'
p2624
S'1'
sS'GfM'
p2625
S'0'
sS'Draw'
p2626
S'0'
sS'Mat'
p2627
S'1'
sS'Conv'
p2628
S'0'
sS'Tries'
p2629
S'0'
sS'Pts'
p2630
S'0'
sa(dp2631
S'Pens'
p2632
S'0'
sS'Sub'
p2633
S'0'
sS'Lost'
p2634
S'0'
sS'Drop'
p2635
S'0'
sS'Start'
p2636
S'3'
sS'Won'
p2637
S'3'
sS'GfM'
p2638
S'0'
sS'Draw'
p2639
S'0'
sS'Mat'
p2640
S'3'
sS'Conv'
p2641
S'0'
sS'Tries'
p2642
S'0'
sS'Pts'
p2643
S'0'
sa(dp2644
S'Pens'
p2645
S'0'
sS'Sub'
p2646
S'0'
sS'Lost'
p2647
S'3'
sS'Drop'
p2648
S'1'
sS'Start'
p2649
S'10'
p2650
sS'Won'
p2651
S'7'
sS'GfM'
p2652
S'0'
sS'Draw'
p2653
S'0'
sS'Mat'
p2654
S'10'
p2655
sS'Conv'
p2656
S'0'
sS'Tries'
p2657
S'2'
sS'Pts'
p2658
S'10'
p2659
sa(dp2660
S'Pens'
p2661
S'0'
sS'Sub'
p2662
S'0'
sS'Lost'
p2663
S'0'
sS'Drop'
p2664
S'0'
sS'Start'
p2665
S'4'
sS'Won'
p2666
S'4'
sS'GfM'
p2667
S'0'
sS'Draw'
p2668
S'0'
sS'Mat'
p2669
S'4'
sS'Conv'
p2670
S'0'
sS'Tries'
p2671
S'1'
sS'Pts'
p2672
S'3'
sa(dp2673
S'Pens'
p2674
S'0'
sS'Sub'
p2675
S'0'
sS'Lost'
p2676
S'0'
sS'Drop'
p2677
S'0'
sS'Start'
p2678
S'1'
sS'Won'
p2679
S'1'
sS'GfM'
p2680
S'0'
sS'Draw'
p2681
S'0'
sS'Mat'
p2682
S'1'
sS'Conv'
p2683
S'0'
sS'Tries'
p2684
S'0'
sS'Pts'
p2685
S'0'
sa(dp2686
S'Pens'
p2687
S'0'
sS'Sub'
p2688
S'0'
sS'Lost'
p2689
S'0'
sS'Drop'
p2690
S'0'
sS'Start'
p2691
S'3'
sS'Won'
p2692
S'3'
sS'GfM'
p2693
S'0'
sS'Draw'
p2694
S'0'
sS'Mat'
p2695
S'3'
sS'Conv'
p2696
S'0'
sS'Tries'
p2697
S'0'
sS'Pts'
p2698
S'0'
sa(dp2699
S'Pens'
p2700
S'0'
sS'Sub'
p2701
S'0'
sS'Lost'
p2702
S'2'
sS'Drop'
p2703
S'0'
sS'Start'
p2704
S'7'
sS'Won'
p2705
S'5'
sS'GfM'
p2706
S'0'
sS'Draw'
p2707
S'0'
sS'Mat'
p2708
S'7'
sS'Conv'
p2709
S'0'
sS'Tries'
p2710
S'2'
sS'Pts'
p2711
S'6'
sa(dp2712
S'Pens'
p2713
S'0'
sS'Sub'
p2714
S'0'
sS'Lost'
p2715
S'2'
sS'Drop'
p2716
S'0'
sS'Start'
p2717
S'10'
p2718
sS'Won'
p2719
S'8'
sS'GfM'
p2720
S'0'
sS'Draw'
p2721
S'0'
sS'Mat'
p2722
S'10'
p2723
sS'Conv'
p2724
S'0'
sS'Tries'
p2725
S'0'
sS'Pts'
p2726
S'0'
sa(dp2727
S'Pens'
p2728
S'0'
sS'Sub'
p2729
S'0'
sS'Lost'
p2730
S'0'
sS'Drop'
p2731
S'0'
sS'Start'
p2732
S'1'
sS'Won'
p2733
S'1'
sS'GfM'
p2734
S'0'
sS'Draw'
p2735
S'0'
sS'Mat'
p2736
S'1'
sS'Conv'
p2737
S'0'
sS'Tries'
p2738
S'0'
sS'Pts'
p2739
S'0'
sa(dp2740
S'Pens'
p2741
S'0'
sS'Sub'
p2742
S'0'
sS'Lost'
p2743
S'0'
sS'Drop'
p2744
S'0'
sS'Start'
p2745
S'1'
sS'Won'
p2746
S'1'
sS'GfM'
p2747
S'0'
sS'Draw'
p2748
S'0'
sS'Mat'
p2749
S'1'
sS'Conv'
p2750
S'0'
sS'Tries'
p2751
S'0'
sS'Pts'
p2752
S'0'
sa(dp2753
S'Pens'
p2754
S'0'
sS'Sub'
p2755
S'0'
sS'Lost'
p2756
S'1'
sS'Drop'
p2757
S'0'
sS'Start'
p2758
S'5'
sS'Won'
p2759
S'4'
sS'GfM'
p2760
S'0'
sS'Draw'
p2761
S'0'
sS'Mat'
p2762
S'5'
sS'Conv'
p2763
S'0'
sS'Tries'
p2764
S'1'
sS'Pts'
p2765
S'3'
sa(dp2766
S'Pens'
p2767
S'0'
sS'Sub'
p2768
S'0'
sS'Lost'
p2769
S'2'
sS'Drop'
p2770
S'0'
sS'Start'
p2771
S'5'
sS'Won'
p2772
S'3'
sS'GfM'
p2773
S'0'
sS'Draw'
p2774
S'0'
sS'Mat'
p2775
S'5'
sS'Conv'
p2776
S'0'
sS'Tries'
p2777
S'0'
sS'Pts'
p2778
S'0'
sa(dp2779
S'Pens'
p2780
S'0'
sS'Sub'
p2781
S'0'
sS'Lost'
p2782
S'4'
sS'Drop'
p2783
S'0'
sS'Start'
p2784
S'12'
p2785
sS'Won'
p2786
S'8'
sS'GfM'
p2787
S'0'
sS'Draw'
p2788
S'0'
sS'Mat'
p2789
S'12'
p2790
sS'Conv'
p2791
S'0'
sS'Tries'
p2792
S'2'
sS'Pts'
p2793
S'6'
sa(dp2794
S'Pens'
p2795
S'3'
sS'Sub'
p2796
S'0'
sS'Lost'
p2797
S'3'
sS'Drop'
p2798
S'0'
sS'Start'
p2799
S'11'
p2800
sS'Won'
p2801
S'8'
sS'GfM'
p2802
S'0'
sS'Draw'
p2803
S'0'
sS'Mat'
p2804
S'11'
p2805
sS'Conv'
p2806
S'4'
sS'Tries'
p2807
S'4'
sS'Pts'
p2808
S'29'
p2809
sa(dp2810
S'Pens'
p2811
S'0'
sS'Sub'
p2812
S'0'
sS'Lost'
p2813
S'1'
sS'Drop'
p2814
S'0'
sS'Start'
p2815
S'1'
sS'Won'
p2816
S'0'
sS'GfM'
p2817
S'0'
sS'Draw'
p2818
S'0'
sS'Mat'
p2819
S'1'
sS'Conv'
p2820
S'0'
sS'Tries'
p2821
S'0'
sS'Pts'
p2822
S'0'
sa(dp2823
S'Pens'
p2824
S'0'
sS'Sub'
p2825
S'0'
sS'Lost'
p2826
S'3'
sS'Drop'
p2827
S'0'
sS'Start'
p2828
S'3'
sS'Won'
p2829
S'0'
sS'GfM'
p2830
S'0'
sS'Draw'
p2831
S'0'
sS'Mat'
p2832
S'3'
sS'Conv'
p2833
S'0'
sS'Tries'
p2834
S'0'
sS'Pts'
p2835
S'0'
sa(dp2836
S'Pens'
p2837
S'0'
sS'Sub'
p2838
S'0'
sS'Lost'
p2839
S'1'
sS'Drop'
p2840
S'0'
sS'Start'
p2841
S'1'
sS'Won'
p2842
S'0'
sS'GfM'
p2843
S'0'
sS'Draw'
p2844
S'0'
sS'Mat'
p2845
S'1'
sS'Conv'
p2846
S'0'
sS'Tries'
p2847
S'0'
sS'Pts'
p2848
S'0'
sa(dp2849
S'Pens'
p2850
S'0'
sS'Sub'
p2851
S'0'
sS'Lost'
p2852
S'1'
sS'Drop'
p2853
S'0'
sS'Start'
p2854
S'1'
sS'Won'
p2855
S'0'
sS'GfM'
p2856
S'0'
sS'Draw'
p2857
S'0'
sS'Mat'
p2858
S'1'
sS'Conv'
p2859
S'0'
sS'Tries'
p2860
S'0'
sS'Pts'
p2861
S'0'
sa(dp2862
S'Pens'
p2863
S'0'
sS'Sub'
p2864
S'0'
sS'Lost'
p2865
S'0'
sS'Drop'
p2866
S'0'
sS'Start'
p2867
S'1'
sS'Won'
p2868
S'1'
sS'GfM'
p2869
S'0'
sS'Draw'
p2870
S'0'
sS'Mat'
p2871
S'1'
sS'Conv'
p2872
S'0'
sS'Tries'
p2873
S'0'
sS'Pts'
p2874
S'0'
sa(dp2875
S'Pens'
p2876
S'0'
sS'Sub'
p2877
S'0'
sS'Lost'
p2878
S'1'
sS'Drop'
p2879
S'0'
sS'Start'
p2880
S'3'
sS'Won'
p2881
S'2'
sS'GfM'
p2882
S'0'
sS'Draw'
p2883
S'0'
sS'Mat'
p2884
S'3'
sS'Conv'
p2885
S'0'
sS'Tries'
p2886
S'0'
sS'Pts'
p2887
S'0'
sa(dp2888
S'Pens'
p2889
S'0'
sS'Sub'
p2890
S'0'
sS'Lost'
p2891
S'1'
sS'Drop'
p2892
S'0'
sS'Start'
p2893
S'3'
sS'Won'
p2894
S'2'
sS'GfM'
p2895
S'0'
sS'Draw'
p2896
S'0'
sS'Mat'
p2897
S'3'
sS'Conv'
p2898
S'0'
sS'Tries'
p2899
S'0'
sS'Pts'
p2900
S'0'
sa(dp2901
S'Pens'
p2902
S'0'
sS'Sub'
p2903
S'0'
sS'Lost'
p2904
S'0'
sS'Drop'
p2905
S'0'
sS'Start'
p2906
S'1'
sS'Won'
p2907
S'1'
sS'GfM'
p2908
S'0'
sS'Draw'
p2909
S'0'
sS'Mat'
p2910
S'1'
sS'Conv'
p2911
S'0'
sS'Tries'
p2912
S'0'
sS'Pts'
p2913
S'0'
sa(dp2914
S'Pens'
p2915
S'0'
sS'Sub'
p2916
S'0'
sS'Lost'
p2917
S'1'
sS'Drop'
p2918
S'0'
sS'Start'
p2919
S'5'
sS'Won'
p2920
S'4'
sS'GfM'
p2921
S'0'
sS'Draw'
p2922
S'0'
sS'Mat'
p2923
S'5'
sS'Conv'
p2924
S'0'
sS'Tries'
p2925
S'3'
sS'Pts'
p2926
S'9'
sa(dp2927
S'Pens'
p2928
S'0'
sS'Sub'
p2929
S'0'
sS'Lost'
p2930
S'2'
sS'Drop'
p2931
S'0'
sS'Start'
p2932
S'6'
sS'Won'
p2933
S'4'
sS'GfM'
p2934
S'0'
sS'Draw'
p2935
S'0'
sS'Mat'
p2936
S'6'
sS'Conv'
p2937
S'0'
sS'Tries'
p2938
S'2'
sS'Pts'
p2939
S'6'
sa(dp2940
S'Pens'
p2941
S'0'
sS'Sub'
p2942
S'0'
sS'Lost'
p2943
S'2'
sS'Drop'
p2944
S'0'
sS'Start'
p2945
S'8'
sS'Won'
p2946
S'6'
sS'GfM'
p2947
S'0'
sS'Draw'
p2948
S'0'
sS'Mat'
p2949
S'8'
sS'Conv'
p2950
S'0'
sS'Tries'
p2951
S'1'
sS'Pts'
p2952
S'3'
sa(dp2953
S'Pens'
p2954
S'0'
sS'Sub'
p2955
S'0'
sS'Lost'
p2956
S'1'
sS'Drop'
p2957
S'0'
sS'Start'
p2958
S'4'
sS'Won'
p2959
S'3'
sS'GfM'
p2960
S'0'
sS'Draw'
p2961
S'0'
sS'Mat'
p2962
S'4'
sS'Conv'
p2963
S'0'
sS'Tries'
p2964
S'0'
sS'Pts'
p2965
S'0'
sa(dp2966
S'Pens'
p2967
S'0'
sS'Sub'
p2968
S'0'
sS'Lost'
p2969
S'2'
sS'Drop'
p2970
S'0'
sS'Start'
p2971
S'8'
sS'Won'
p2972
S'6'
sS'GfM'
p2973
S'0'
sS'Draw'
p2974
S'0'
sS'Mat'
p2975
S'8'
sS'Conv'
p2976
S'0'
sS'Tries'
p2977
S'5'
sS'Pts'
p2978
S'15'
p2979
sa(dp2980
S'Pens'
p2981
S'0'
sS'Sub'
p2982
S'0'
sS'Lost'
p2983
S'0'
sS'Drop'
p2984
S'0'
sS'Start'
p2985
S'1'
sS'Won'
p2986
S'1'
sS'GfM'
p2987
S'0'
sS'Draw'
p2988
S'0'
sS'Mat'
p2989
S'1'
sS'Conv'
p2990
S'0'
sS'Tries'
p2991
S'0'
sS'Pts'
p2992
S'0'
sa(dp2993
S'Pens'
p2994
S'0'
sS'Sub'
p2995
S'0'
sS'Lost'
p2996
S'0'
sS'Drop'
p2997
S'0'
sS'Start'
p2998
S'1'
sS'Won'
p2999
S'1'
sS'GfM'
p3000
S'0'
sS'Draw'
p3001
S'0'
sS'Mat'
p3002
S'1'
sS'Conv'
p3003
S'0'
sS'Tries'
p3004
S'0'
sS'Pts'
p3005
S'0'
sa(dp3006
S'Pens'
p3007
S'0'
sS'Sub'
p3008
S'0'
sS'Lost'
p3009
S'1'
sS'Drop'
p3010
S'0'
sS'Start'
p3011
S'2'
sS'Won'
p3012
S'1'
sS'GfM'
p3013
S'0'
sS'Draw'
p3014
S'0'
sS'Mat'
p3015
S'2'
sS'Conv'
p3016
S'0'
sS'Tries'
p3017
S'2'
sS'Pts'
p3018
S'6'
sa(dp3019
S'Pens'
p3020
S'0'
sS'Sub'
p3021
S'0'
sS'Lost'
p3022
S'1'
sS'Drop'
p3023
S'0'
sS'Start'
p3024
S'1'
sS'Won'
p3025
S'0'
sS'GfM'
p3026
S'0'
sS'Draw'
p3027
S'0'
sS'Mat'
p3028
S'1'
sS'Conv'
p3029
S'0'
sS'Tries'
p3030
S'0'
sS'Pts'
p3031
S'0'
sa(dp3032
S'Pens'
p3033
S'0'
sS'Sub'
p3034
S'0'
sS'Lost'
p3035
S'1'
sS'Drop'
p3036
S'0'
sS'Start'
p3037
S'5'
sS'Won'
p3038
S'4'
sS'GfM'
p3039
S'0'
sS'Draw'
p3040
S'0'
sS'Mat'
p3041
S'5'
sS'Conv'
p3042
S'0'
sS'Tries'
p3043
S'1'
sS'Pts'
p3044
S'3'
sa(dp3045
S'Pens'
p3046
S'0'
sS'Sub'
p3047
S'0'
sS'Lost'
p3048
S'0'
sS'Drop'
p3049
S'0'
sS'Start'
p3050
S'3'
sS'Won'
p3051
S'3'
sS'GfM'
p3052
S'0'
sS'Draw'
p3053
S'0'
sS'Mat'
p3054
S'3'
sS'Conv'
p3055
S'0'
sS'Tries'
p3056
S'1'
sS'Pts'
p3057
S'3'
sa(dp3058
S'Pens'
p3059
S'0'
sS'Sub'
p3060
S'0'
sS'Lost'
p3061
S'1'
sS'Drop'
p3062
S'0'
sS'Start'
p3063
S'3'
sS'Won'
p3064
S'2'
sS'GfM'
p3065
S'0'
sS'Draw'
p3066
S'0'
sS'Mat'
p3067
S'3'
sS'Conv'
p3068
S'0'
sS'Tries'
p3069
S'0'
sS'Pts'
p3070
S'0'
sa(dp3071
S'Pens'
p3072
S'0'
sS'Sub'
p3073
S'0'
sS'Lost'
p3074
S'1'
sS'Drop'
p3075
S'0'
sS'Start'
p3076
S'3'
sS'Won'
p3077
S'2'
sS'GfM'
p3078
S'0'
sS'Draw'
p3079
S'0'
sS'Mat'
p3080
S'3'
sS'Conv'
p3081
S'0'
sS'Tries'
p3082
S'1'
sS'Pts'
p3083
S'3'
sa(dp3084
S'Pens'
p3085
S'0'
sS'Sub'
p3086
S'0'
sS'Lost'
p3087
S'1'
sS'Drop'
p3088
S'0'
sS'Start'
p3089
S'3'
sS'Won'
p3090
S'2'
sS'GfM'
p3091
S'0'
sS'Draw'
p3092
S'0'
sS'Mat'
p3093
S'3'
sS'Conv'
p3094
S'0'
sS'Tries'
p3095
S'0'
sS'Pts'
p3096
S'0'
sa(dp3097
S'Pens'
p3098
S'0'
sS'Sub'
p3099
S'0'
sS'Lost'
p3100
S'1'
sS'Drop'
p3101
S'0'
sS'Start'
p3102
S'2'
sS'Won'
p3103
S'1'
sS'GfM'
p3104
S'0'
sS'Draw'
p3105
S'0'
sS'Mat'
p3106
S'2'
sS'Conv'
p3107
S'0'
sS'Tries'
p3108
S'2'
sS'Pts'
p3109
S'6'
sa(dp3110
S'Pens'
p3111
S'0'
sS'Sub'
p3112
S'0'
sS'Lost'
p3113
S'1'
sS'Drop'
p3114
S'0'
sS'Start'
p3115
S'1'
sS'Won'
p3116
S'0'
sS'GfM'
p3117
S'0'
sS'Draw'
p3118
S'0'
sS'Mat'
p3119
S'1'
sS'Conv'
p3120
S'0'
sS'Tries'
p3121
S'0'
sS'Pts'
p3122
S'0'
sa(dp3123
S'Pens'
p3124
S'0'
sS'Sub'
p3125
S'0'
sS'Lost'
p3126
S'0'
sS'Drop'
p3127
S'5'
sS'Start'
p3128
S'10'
p3129
sS'Won'
p3130
S'10'
p3131
sS'GfM'
p3132
S'0'
sS'Draw'
p3133
S'0'
sS'Mat'
p3134
S'10'
p3135
sS'Conv'
p3136
S'0'
sS'Tries'
p3137
S'1'
sS'Pts'
p3138
S'18'
p3139
sa(dp3140
S'Pens'
p3141
S'0'
sS'Sub'
p3142
S'0'
sS'Lost'
p3143
S'0'
sS'Drop'
p3144
S'0'
sS'Start'
p3145
S'3'
sS'Won'
p3146
S'3'
sS'GfM'
p3147
S'0'
sS'Draw'
p3148
S'0'
sS'Mat'
p3149
S'3'
sS'Conv'
p3150
S'0'
sS'Tries'
p3151
S'0'
sS'Pts'
p3152
S'0'
sa(dp3153
S'Pens'
p3154
S'0'
sS'Sub'
p3155
S'0'
sS'Lost'
p3156
S'0'
sS'Drop'
p3157
S'0'
sS'Start'
p3158
S'2'
sS'Won'
p3159
S'2'
sS'GfM'
p3160
S'0'
sS'Draw'
p3161
S'0'
sS'Mat'
p3162
S'2'
sS'Conv'
p3163
S'0'
sS'Tries'
p3164
S'0'
sS'Pts'
p3165
S'0'
sa(dp3166
S'Pens'
p3167
S'10'
p3168
sS'Sub'
p3169
S'0'
sS'Lost'
p3170
S'0'
sS'Drop'
p3171
S'0'
sS'Start'
p3172
S'7'
sS'Won'
p3173
S'7'
sS'GfM'
p3174
S'0'
sS'Draw'
p3175
S'0'
sS'Mat'
p3176
S'7'
sS'Conv'
p3177
S'9'
sS'Tries'
p3178
S'0'
sS'Pts'
p3179
S'48'
p3180
sa(dp3181
S'Pens'
p3182
S'0'
sS'Sub'
p3183
S'0'
sS'Lost'
p3184
S'0'
sS'Drop'
p3185
S'0'
sS'Start'
p3186
S'4'
sS'Won'
p3187
S'4'
sS'GfM'
p3188
S'0'
sS'Draw'
p3189
S'0'
sS'Mat'
p3190
S'4'
sS'Conv'
p3191
S'0'
sS'Tries'
p3192
S'0'
sS'Pts'
p3193
S'0'
sa(dp3194
S'Pens'
p3195
S'0'
sS'Sub'
p3196
S'0'
sS'Lost'
p3197
S'0'
sS'Drop'
p3198
S'0'
sS'Start'
p3199
S'4'
sS'Won'
p3200
S'4'
sS'GfM'
p3201
S'0'
sS'Draw'
p3202
S'0'
sS'Mat'
p3203
S'4'
sS'Conv'
p3204
S'0'
sS'Tries'
p3205
S'0'
sS'Pts'
p3206
S'0'
sa(dp3207
S'Pens'
p3208
S'0'
sS'Sub'
p3209
S'0'
sS'Lost'
p3210
S'1'
sS'Drop'
p3211
S'0'
sS'Start'
p3212
S'11'
p3213
sS'Won'
p3214
S'10'
p3215
sS'GfM'
p3216
S'0'
sS'Draw'
p3217
S'0'
sS'Mat'
p3218
S'11'
p3219
sS'Conv'
p3220
S'0'
sS'Tries'
p3221
S'3'
sS'Pts'
p3222
S'9'
sa(dp3223
S'Pens'
p3224
S'1'
sS'Sub'
p3225
S'0'
sS'Lost'
p3226
S'1'
sS'Drop'
p3227
S'0'
sS'Start'
p3228
S'5'
sS'Won'
p3229
S'4'
sS'GfM'
p3230
S'0'
sS'Draw'
p3231
S'0'
sS'Mat'
p3232
S'5'
sS'Conv'
p3233
S'2'
sS'Tries'
p3234
S'1'
sS'Pts'
p3235
S'10'
p3236
sa(dp3237
S'Pens'
p3238
S'0'
sS'Sub'
p3239
S'0'
sS'Lost'
p3240
S'0'
sS'Drop'
p3241
S'0'
sS'Start'
p3242
S'4'
sS'Won'
p3243
S'4'
sS'GfM'
p3244
S'0'
sS'Draw'
p3245
S'0'
sS'Mat'
p3246
S'4'
sS'Conv'
p3247
S'0'
sS'Tries'
p3248
S'0'
sS'Pts'
p3249
S'0'
sa(dp3250
S'Pens'
p3251
S'1'
sS'Sub'
p3252
S'0'
sS'Lost'
p3253
S'1'
sS'Drop'
p3254
S'0'
sS'Start'
p3255
S'13'
p3256
sS'Won'
p3257
S'12'
p3258
sS'GfM'
p3259
S'0'
sS'Draw'
p3260
S'0'
sS'Mat'
p3261
S'13'
p3262
sS'Conv'
p3263
S'2'
sS'Tries'
p3264
S'3'
sS'Pts'
p3265
S'16'
p3266
sa(dp3267
S'Pens'
p3268
S'0'
sS'Sub'
p3269
S'0'
sS'Lost'
p3270
S'0'
sS'Drop'
p3271
S'0'
sS'Start'
p3272
S'2'
sS'Won'
p3273
S'2'
sS'GfM'
p3274
S'0'
sS'Draw'
p3275
S'0'
sS'Mat'
p3276
S'2'
sS'Conv'
p3277
S'0'
sS'Tries'
p3278
S'0'
sS'Pts'
p3279
S'0'
sa(dp3280
S'Pens'
p3281
S'0'
sS'Sub'
p3282
S'0'
sS'Lost'
p3283
S'0'
sS'Drop'
p3284
S'0'
sS'Start'
p3285
S'1'
sS'Won'
p3286
S'1'
sS'GfM'
p3287
S'0'
sS'Draw'
p3288
S'0'
sS'Mat'
p3289
S'1'
sS'Conv'
p3290
S'0'
sS'Tries'
p3291
S'0'
sS'Pts'
p3292
S'0'
sa(dp3293
S'Pens'
p3294
S'2'
sS'Sub'
p3295
S'0'
sS'Lost'
p3296
S'1'
sS'Drop'
p3297
S'0'
sS'Start'
p3298
S'5'
sS'Won'
p3299
S'4'
sS'GfM'
p3300
S'0'
sS'Draw'
p3301
S'0'
sS'Mat'
p3302
S'5'
sS'Conv'
p3303
S'2'
sS'Tries'
p3304
S'0'
sS'Pts'
p3305
S'10'
p3306
sa(dp3307
S'Pens'
p3308
S'0'
sS'Sub'
p3309
S'0'
sS'Lost'
p3310
S'0'
sS'Drop'
p3311
S'0'
sS'Start'
p3312
S'1'
sS'Won'
p3313
S'1'
sS'GfM'
p3314
S'0'
sS'Draw'
p3315
S'0'
sS'Mat'
p3316
S'1'
sS'Conv'
p3317
S'0'
sS'Tries'
p3318
S'0'
sS'Pts'
p3319
S'0'
sa(dp3320
S'Pens'
p3321
S'0'
sS'Sub'
p3322
S'0'
sS'Lost'
p3323
S'0'
sS'Drop'
p3324
S'0'
sS'Start'
p3325
S'1'
sS'Won'
p3326
S'1'
sS'GfM'
p3327
S'0'
sS'Draw'
p3328
S'0'
sS'Mat'
p3329
S'1'
sS'Conv'
p3330
S'0'
sS'Tries'
p3331
S'0'
sS'Pts'
p3332
S'0'
sa(dp3333
S'Pens'
p3334
S'0'
sS'Sub'
p3335
S'0'
sS'Lost'
p3336
S'6'
sS'Drop'
p3337
S'0'
sS'Start'
p3338
S'21'
p3339
sS'Won'
p3340
S'15'
p3341
sS'GfM'
p3342
S'0'
sS'Draw'
p3343
S'0'
sS'Mat'
p3344
S'21'
p3345
sS'Conv'
p3346
S'0'
sS'Tries'
p3347
S'4'
sS'Pts'
p3348
S'12'
p3349
sa(dp3350
S'Pens'
p3351
S'0'
sS'Sub'
p3352
S'0'
sS'Lost'
p3353
S'0'
sS'Drop'
p3354
S'0'
sS'Start'
p3355
S'8'
sS'Won'
p3356
S'8'
sS'GfM'
p3357
S'0'
sS'Draw'
p3358
S'0'
sS'Mat'
p3359
S'8'
sS'Conv'
p3360
S'0'
sS'Tries'
p3361
S'2'
sS'Pts'
p3362
S'6'
sa(dp3363
S'Pens'
p3364
S'0'
sS'Sub'
p3365
S'0'
sS'Lost'
p3366
S'6'
sS'Drop'
p3367
S'0'
sS'Start'
p3368
S'22'
p3369
sS'Won'
p3370
S'15'
p3371
sS'GfM'
p3372
S'0'
sS'Draw'
p3373
S'1'
sS'Mat'
p3374
S'22'
p3375
sS'Conv'
p3376
S'0'
sS'Tries'
p3377
S'5'
sS'Pts'
p3378
S'15'
p3379
sa(dp3380
S'Pens'
p3381
S'0'
sS'Sub'
p3382
S'0'
sS'Lost'
p3383
S'1'
sS'Drop'
p3384
S'0'
sS'Start'
p3385
S'12'
p3386
sS'Won'
p3387
S'11'
p3388
sS'GfM'
p3389
S'0'
sS'Draw'
p3390
S'0'
sS'Mat'
p3391
S'12'
p3392
sS'Conv'
p3393
S'0'
sS'Tries'
p3394
S'2'
sS'Pts'
p3395
S'6'
sa(dp3396
S'Pens'
p3397
S'0'
sS'Sub'
p3398
S'0'
sS'Lost'
p3399
S'0'
sS'Drop'
p3400
S'0'
sS'Start'
p3401
S'1'
sS'Won'
p3402
S'1'
sS'GfM'
p3403
S'0'
sS'Draw'
p3404
S'0'
sS'Mat'
p3405
S'1'
sS'Conv'
p3406
S'0'
sS'Tries'
p3407
S'0'
sS'Pts'
p3408
S'0'
sa(dp3409
S'Pens'
p3410
S'0'
sS'Sub'
p3411
S'0'
sS'Lost'
p3412
S'0'
sS'Drop'
p3413
S'0'
sS'Start'
p3414
S'2'
sS'Won'
p3415
S'2'
sS'GfM'
p3416
S'0'
sS'Draw'
p3417
S'0'
sS'Mat'
p3418
S'2'
sS'Conv'
p3419
S'0'
sS'Tries'
p3420
S'0'
sS'Pts'
p3421
S'0'
sa(dp3422
S'Pens'
p3423
S'0'
sS'Sub'
p3424
S'0'
sS'Lost'
p3425
S'0'
sS'Drop'
p3426
S'0'
sS'Start'
p3427
S'1'
sS'Won'
p3428
S'1'
sS'GfM'
p3429
S'0'
sS'Draw'
p3430
S'0'
sS'Mat'
p3431
S'1'
sS'Conv'
p3432
S'0'
sS'Tries'
p3433
S'0'
sS'Pts'
p3434
S'0'
sa(dp3435
S'Pens'
p3436
S'0'
sS'Sub'
p3437
S'0'
sS'Lost'
p3438
S'0'
sS'Drop'
p3439
S'0'
sS'Start'
p3440
S'1'
sS'Won'
p3441
S'1'
sS'GfM'
p3442
S'0'
sS'Draw'
p3443
S'0'
sS'Mat'
p3444
S'1'
sS'Conv'
p3445
S'0'
sS'Tries'
p3446
S'0'
sS'Pts'
p3447
S'0'
sa(dp3448
S'Pens'
p3449
S'0'
sS'Sub'
p3450
S'0'
sS'Lost'
p3451
S'0'
sS'Drop'
p3452
S'0'
sS'Start'
p3453
S'1'
sS'Won'
p3454
S'1'
sS'GfM'
p3455
S'0'
sS'Draw'
p3456
S'0'
sS'Mat'
p3457
S'1'
sS'Conv'
p3458
S'0'
sS'Tries'
p3459
S'0'
sS'Pts'
p3460
S'0'
sa(dp3461
S'Pens'
p3462
S'1'
sS'Sub'
p3463
S'0'
sS'Lost'
p3464
S'1'
sS'Drop'
p3465
S'1'
sS'Start'
p3466
S'10'
p3467
sS'Won'
p3468
S'9'
sS'GfM'
p3469
S'0'
sS'Draw'
p3470
S'0'
sS'Mat'
p3471
S'10'
p3472
sS'Conv'
p3473
S'1'
sS'Tries'
p3474
S'0'
sS'Pts'
p3475
S'8'
sa(dp3476
S'Pens'
p3477
S'0'
sS'Sub'
p3478
S'0'
sS'Lost'
p3479
S'1'
sS'Drop'
p3480
S'0'
sS'Start'
p3481
S'9'
sS'Won'
p3482
S'8'
sS'GfM'
p3483
S'0'
sS'Draw'
p3484
S'0'
sS'Mat'
p3485
S'9'
sS'Conv'
p3486
S'0'
sS'Tries'
p3487
S'2'
sS'Pts'
p3488
S'6'
sa(dp3489
S'Pens'
p3490
S'0'
sS'Sub'
p3491
S'0'
sS'Lost'
p3492
S'1'
sS'Drop'
p3493
S'0'
sS'Start'
p3494
S'6'
sS'Won'
p3495
S'5'
sS'GfM'
p3496
S'0'
sS'Draw'
p3497
S'0'
sS'Mat'
p3498
S'6'
sS'Conv'
p3499
S'0'
sS'Tries'
p3500
S'2'
sS'Pts'
p3501
S'6'
sa(dp3502
S'Pens'
p3503
S'0'
sS'Sub'
p3504
S'0'
sS'Lost'
p3505
S'3'
sS'Drop'
p3506
S'0'
sS'Start'
p3507
S'13'
p3508
sS'Won'
p3509
S'10'
p3510
sS'GfM'
p3511
S'0'
sS'Draw'
p3512
S'0'
sS'Mat'
p3513
S'13'
p3514
sS'Conv'
p3515
S'0'
sS'Tries'
p3516
S'0'
sS'Pts'
p3517
S'0'
sa(dp3518
S'Pens'
p3519
S'1'
sS'Sub'
p3520
S'0'
sS'Lost'
p3521
S'2'
sS'Drop'
p3522
S'0'
sS'Start'
p3523
S'9'
sS'Won'
p3524
S'7'
sS'GfM'
p3525
S'0'
sS'Draw'
p3526
S'0'
sS'Mat'
p3527
S'9'
sS'Conv'
p3528
S'1'
sS'Tries'
p3529
S'2'
sS'Pts'
p3530
S'11'
p3531
sa(dp3532
S'Pens'
p3533
S'0'
sS'Sub'
p3534
S'0'
sS'Lost'
p3535
S'2'
sS'Drop'
p3536
S'0'
sS'Start'
p3537
S'10'
p3538
sS'Won'
p3539
S'8'
sS'GfM'
p3540
S'0'
sS'Draw'
p3541
S'0'
sS'Mat'
p3542
S'10'
p3543
sS'Conv'
p3544
S'0'
sS'Tries'
p3545
S'6'
sS'Pts'
p3546
S'18'
p3547
sa(dp3548
S'Pens'
p3549
S'0'
sS'Sub'
p3550
S'0'
sS'Lost'
p3551
S'1'
sS'Drop'
p3552
S'0'
sS'Start'
p3553
S'7'
sS'Won'
p3554
S'6'
sS'GfM'
p3555
S'0'
sS'Draw'
p3556
S'0'
sS'Mat'
p3557
S'7'
sS'Conv'
p3558
S'0'
sS'Tries'
p3559
S'3'
sS'Pts'
p3560
S'9'
sa(dp3561
S'Pens'
p3562
S'0'
sS'Sub'
p3563
S'0'
sS'Lost'
p3564
S'5'
sS'Drop'
p3565
S'0'
sS'Start'
p3566
S'15'
p3567
sS'Won'
p3568
S'10'
p3569
sS'GfM'
p3570
S'0'
sS'Draw'
p3571
S'0'
sS'Mat'
p3572
S'15'
p3573
sS'Conv'
p3574
S'0'
sS'Tries'
p3575
S'1'
sS'Pts'
p3576
S'3'
sa(dp3577
S'Pens'
p3578
S'0'
sS'Sub'
p3579
S'0'
sS'Lost'
p3580
S'1'
sS'Drop'
p3581
S'0'
sS'Start'
p3582
S'4'
sS'Won'
p3583
S'3'
sS'GfM'
p3584
S'0'
sS'Draw'
p3585
S'0'
sS'Mat'
p3586
S'4'
sS'Conv'
p3587
S'0'
sS'Tries'
p3588
S'2'
sS'Pts'
p3589
S'6'
sa(dp3590
S'Pens'
p3591
S'0'
sS'Sub'
p3592
S'0'
sS'Lost'
p3593
S'2'
sS'Drop'
p3594
S'0'
sS'Start'
p3595
S'13'
p3596
sS'Won'
p3597
S'8'
sS'GfM'
p3598
S'0'
sS'Draw'
p3599
S'3'
sS'Mat'
p3600
S'13'
p3601
sS'Conv'
p3602
S'0'
sS'Tries'
p3603
S'0'
sS'Pts'
p3604
S'0'
sa(dp3605
S'Pens'
p3606
S'0'
sS'Sub'
p3607
S'0'
sS'Lost'
p3608
S'0'
sS'Drop'
p3609
S'0'
sS'Start'
p3610
S'2'
sS'Won'
p3611
S'2'
sS'GfM'
p3612
S'0'
sS'Draw'
p3613
S'0'
sS'Mat'
p3614
S'2'
sS'Conv'
p3615
S'0'
sS'Tries'
p3616
S'1'
sS'Pts'
p3617
S'3'
sa(dp3618
S'Pens'
p3619
S'0'
sS'Sub'
p3620
S'0'
sS'Lost'
p3621
S'0'
sS'Drop'
p3622
S'0'
sS'Start'
p3623
S'1'
sS'Won'
p3624
S'1'
sS'GfM'
p3625
S'0'
sS'Draw'
p3626
S'0'
sS'Mat'
p3627
S'1'
sS'Conv'
p3628
S'0'
sS'Tries'
p3629
S'0'
sS'Pts'
p3630
S'0'
sa(dp3631
S'Pens'
p3632
S'0'
sS'Sub'
p3633
S'0'
sS'Lost'
p3634
S'1'
sS'Drop'
p3635
S'0'
sS'Start'
p3636
S'4'
sS'Won'
p3637
S'3'
sS'GfM'
p3638
S'0'
sS'Draw'
p3639
S'0'
sS'Mat'
p3640
S'4'
sS'Conv'
p3641
S'0'
sS'Tries'
p3642
S'0'
sS'Pts'
p3643
S'0'
sa(dp3644
S'Pens'
p3645
S'2'
sS'Sub'
p3646
S'0'
sS'Lost'
p3647
S'0'
sS'Drop'
p3648
S'1'
sS'Start'
p3649
S'2'
sS'Won'
p3650
S'2'
sS'GfM'
p3651
S'0'
sS'Draw'
p3652
S'0'
sS'Mat'
p3653
S'2'
sS'Conv'
p3654
S'5'
sS'Tries'
p3655
S'0'
sS'Pts'
p3656
S'19'
p3657
sa(dp3658
S'Pens'
p3659
S'0'
sS'Sub'
p3660
S'0'
sS'Lost'
p3661
S'0'
sS'Drop'
p3662
S'0'
sS'Start'
p3663
S'2'
sS'Won'
p3664
S'2'
sS'GfM'
p3665
S'0'
sS'Draw'
p3666
S'0'
sS'Mat'
p3667
S'2'
sS'Conv'
p3668
S'0'
sS'Tries'
p3669
S'1'
sS'Pts'
p3670
S'3'
sa(dp3671
S'Pens'
p3672
S'0'
sS'Sub'
p3673
S'0'
sS'Lost'
p3674
S'2'
sS'Drop'
p3675
S'0'
sS'Start'
p3676
S'4'
sS'Won'
p3677
S'2'
sS'GfM'
p3678
S'0'
sS'Draw'
p3679
S'0'
sS'Mat'
p3680
S'4'
sS'Conv'
p3681
S'0'
sS'Tries'
p3682
S'0'
sS'Pts'
p3683
S'0'
sa(dp3684
S'Pens'
p3685
S'0'
sS'Sub'
p3686
S'0'
sS'Lost'
p3687
S'4'
sS'Drop'
p3688
S'0'
sS'Start'
p3689
S'7'
sS'Won'
p3690
S'3'
sS'GfM'
p3691
S'0'
sS'Draw'
p3692
S'0'
sS'Mat'
p3693
S'7'
sS'Conv'
p3694
S'0'
sS'Tries'
p3695
S'5'
sS'Pts'
p3696
S'15'
p3697
sa(dp3698
S'Pens'
p3699
S'0'
sS'Sub'
p3700
S'0'
sS'Lost'
p3701
S'7'
sS'Drop'
p3702
S'0'
sS'Start'
p3703
S'28'
p3704
sS'Won'
p3705
S'17'
p3706
sS'GfM'
p3707
S'0'
sS'Draw'
p3708
S'4'
sS'Mat'
p3709
S'28'
p3710
sS'Conv'
p3711
S'2'
sS'Tries'
p3712
S'2'
sS'Pts'
p3713
S'10'
p3714
sa(dp3715
S'Pens'
p3716
S'0'
sS'Sub'
p3717
S'0'
sS'Lost'
p3718
S'1'
sS'Drop'
p3719
S'0'
sS'Start'
p3720
S'1'
sS'Won'
p3721
S'0'
sS'GfM'
p3722
S'0'
sS'Draw'
p3723
S'0'
sS'Mat'
p3724
S'1'
sS'Conv'
p3725
S'0'
sS'Tries'
p3726
S'0'
sS'Pts'
p3727
S'0'
sa(dp3728
S'Pens'
p3729
S'0'
sS'Sub'
p3730
S'0'
sS'Lost'
p3731
S'3'
sS'Drop'
p3732
S'0'
sS'Start'
p3733
S'6'
sS'Won'
p3734
S'3'
sS'GfM'
p3735
S'0'
sS'Draw'
p3736
S'0'
sS'Mat'
p3737
S'6'
sS'Conv'
p3738
S'0'
sS'Tries'
p3739
S'0'
sS'Pts'
p3740
S'0'
sa(dp3741
S'Pens'
p3742
S'0'
sS'Sub'
p3743
S'0'
sS'Lost'
p3744
S'1'
sS'Drop'
p3745
S'0'
sS'Start'
p3746
S'1'
sS'Won'
p3747
S'0'
sS'GfM'
p3748
S'0'
sS'Draw'
p3749
S'0'
sS'Mat'
p3750
S'1'
sS'Conv'
p3751
S'0'
sS'Tries'
p3752
S'0'
sS'Pts'
p3753
S'0'
sa(dp3754
S'Pens'
p3755
S'0'
sS'Sub'
p3756
S'0'
sS'Lost'
p3757
S'4'
sS'Drop'
p3758
S'0'
sS'Start'
p3759
S'9'
sS'Won'
p3760
S'5'
sS'GfM'
p3761
S'0'
sS'Draw'
p3762
S'0'
sS'Mat'
p3763
S'9'
sS'Conv'
p3764
S'0'
sS'Tries'
p3765
S'4'
sS'Pts'
p3766
S'12'
p3767
sa(dp3768
S'Pens'
p3769
S'0'
sS'Sub'
p3770
S'0'
sS'Lost'
p3771
S'2'
sS'Drop'
p3772
S'0'
sS'Start'
p3773
S'4'
sS'Won'
p3774
S'2'
sS'GfM'
p3775
S'0'
sS'Draw'
p3776
S'0'
sS'Mat'
p3777
S'4'
sS'Conv'
p3778
S'0'
sS'Tries'
p3779
S'0'
sS'Pts'
p3780
S'0'
sa(dp3781
S'Pens'
p3782
S'0'
sS'Sub'
p3783
S'0'
sS'Lost'
p3784
S'1'
sS'Drop'
p3785
S'0'
sS'Start'
p3786
S'1'
sS'Won'
p3787
S'0'
sS'GfM'
p3788
S'0'
sS'Draw'
p3789
S'0'
sS'Mat'
p3790
S'1'
sS'Conv'
p3791
S'0'
sS'Tries'
p3792
S'1'
sS'Pts'
p3793
S'3'
sa(dp3794
S'Pens'
p3795
S'0'
sS'Sub'
p3796
S'0'
sS'Lost'
p3797
S'4'
sS'Drop'
p3798
S'1'
sS'Start'
p3799
S'7'
sS'Won'
p3800
S'3'
sS'GfM'
p3801
S'0'
sS'Draw'
p3802
S'0'
sS'Mat'
p3803
S'7'
sS'Conv'
p3804
S'0'
sS'Tries'
p3805
S'1'
sS'Pts'
p3806
S'6'
sa(dp3807
S'Pens'
p3808
S'0'
sS'Sub'
p3809
S'0'
sS'Lost'
p3810
S'3'
sS'Drop'
p3811
S'1'
sS'Start'
p3812
S'7'
sS'Won'
p3813
S'4'
sS'GfM'
p3814
S'0'
sS'Draw'
p3815
S'0'
sS'Mat'
p3816
S'7'
sS'Conv'
p3817
S'0'
sS'Tries'
p3818
S'4'
sS'Pts'
p3819
S'15'
p3820
sa(dp3821
S'Pens'
p3822
S'0'
sS'Sub'
p3823
S'0'
sS'Lost'
p3824
S'4'
sS'Drop'
p3825
S'0'
sS'Start'
p3826
S'8'
sS'Won'
p3827
S'4'
sS'GfM'
p3828
S'0'
sS'Draw'
p3829
S'0'
sS'Mat'
p3830
S'8'
sS'Conv'
p3831
S'0'
sS'Tries'
p3832
S'1'
sS'Pts'
p3833
S'3'
sa(dp3834
S'Pens'
p3835
S'3'
sS'Sub'
p3836
S'0'
sS'Lost'
p3837
S'4'
sS'Drop'
p3838
S'0'
sS'Start'
p3839
S'8'
sS'Won'
p3840
S'4'
sS'GfM'
p3841
S'0'
sS'Draw'
p3842
S'0'
sS'Mat'
p3843
S'8'
sS'Conv'
p3844
S'5'
sS'Tries'
p3845
S'3'
sS'Pts'
p3846
S'28'
p3847
sa(dp3848
S'Pens'
p3849
S'0'
sS'Sub'
p3850
S'0'
sS'Lost'
p3851
S'2'
sS'Drop'
p3852
S'0'
sS'Start'
p3853
S'5'
sS'Won'
p3854
S'2'
sS'GfM'
p3855
S'0'
sS'Draw'
p3856
S'1'
sS'Mat'
p3857
S'5'
sS'Conv'
p3858
S'0'
sS'Tries'
p3859
S'2'
sS'Pts'
p3860
S'6'
sa(dp3861
S'Pens'
p3862
S'0'
sS'Sub'
p3863
S'0'
sS'Lost'
p3864
S'5'
sS'Drop'
p3865
S'0'
sS'Start'
p3866
S'12'
p3867
sS'Won'
p3868
S'6'
sS'GfM'
p3869
S'0'
sS'Draw'
p3870
S'1'
sS'Mat'
p3871
S'12'
p3872
sS'Conv'
p3873
S'0'
sS'Tries'
p3874
S'0'
sS'Pts'
p3875
S'0'
sa(dp3876
S'Pens'
p3877
S'0'
sS'Sub'
p3878
S'0'
sS'Lost'
p3879
S'5'
sS'Drop'
p3880
S'0'
sS'Start'
p3881
S'9'
sS'Won'
p3882
S'3'
sS'GfM'
p3883
S'0'
sS'Draw'
p3884
S'1'
sS'Mat'
p3885
S'9'
sS'Conv'
p3886
S'0'
sS'Tries'
p3887
S'2'
sS'Pts'
p3888
S'6'
sa(dp3889
S'Pens'
p3890
S'0'
sS'Sub'
p3891
S'0'
sS'Lost'
p3892
S'3'
sS'Drop'
p3893
S'0'
sS'Start'
p3894
S'6'
sS'Won'
p3895
S'2'
sS'GfM'
p3896
S'0'
sS'Draw'
p3897
S'1'
sS'Mat'
p3898
S'6'
sS'Conv'
p3899
S'0'
sS'Tries'
p3900
S'0'
sS'Pts'
p3901
S'0'
sa(dp3902
S'Pens'
p3903
S'0'
sS'Sub'
p3904
S'0'
sS'Lost'
p3905
S'0'
sS'Drop'
p3906
S'0'
sS'Start'
p3907
S'2'
sS'Won'
p3908
S'2'
sS'GfM'
p3909
S'0'
sS'Draw'
p3910
S'0'
sS'Mat'
p3911
S'2'
sS'Conv'
p3912
S'0'
sS'Tries'
p3913
S'0'
sS'Pts'
p3914
S'0'
sa(dp3915
S'Pens'
p3916
S'0'
sS'Sub'
p3917
S'0'
sS'Lost'
p3918
S'4'
sS'Drop'
p3919
S'0'
sS'Start'
p3920
S'8'
sS'Won'
p3921
S'3'
sS'GfM'
p3922
S'0'
sS'Draw'
p3923
S'1'
sS'Mat'
p3924
S'8'
sS'Conv'
p3925
S'0'
sS'Tries'
p3926
S'1'
sS'Pts'
p3927
S'3'
sa(dp3928
S'Pens'
p3929
S'0'
sS'Sub'
p3930
S'0'
sS'Lost'
p3931
S'0'
sS'Drop'
p3932
S'0'
sS'Start'
p3933
S'1'
sS'Won'
p3934
S'1'
sS'GfM'
p3935
S'0'
sS'Draw'
p3936
S'0'
sS'Mat'
p3937
S'1'
sS'Conv'
p3938
S'0'
sS'Tries'
p3939
S'0'
sS'Pts'
p3940
S'0'
sa(dp3941
S'Pens'
p3942
S'1'
sS'Sub'
p3943
S'0'
sS'Lost'
p3944
S'2'
sS'Drop'
p3945
S'0'
sS'Start'
p3946
S'5'
sS'Won'
p3947
S'3'
sS'GfM'
p3948
S'0'
sS'Draw'
p3949
S'0'
sS'Mat'
p3950
S'5'
sS'Conv'
p3951
S'4'
sS'Tries'
p3952
S'0'
sS'Pts'
p3953
S'11'
p3954
sa(dp3955
S'Pens'
p3956
S'0'
sS'Sub'
p3957
S'0'
sS'Lost'
p3958
S'1'
sS'Drop'
p3959
S'0'
sS'Start'
p3960
S'1'
sS'Won'
p3961
S'0'
sS'GfM'
p3962
S'0'
sS'Draw'
p3963
S'0'
sS'Mat'
p3964
S'1'
sS'Conv'
p3965
S'0'
sS'Tries'
p3966
S'0'
sS'Pts'
p3967
S'0'
sa(dp3968
S'Pens'
p3969
S'0'
sS'Sub'
p3970
S'0'
sS'Lost'
p3971
S'2'
sS'Drop'
p3972
S'0'
sS'Start'
p3973
S'2'
sS'Won'
p3974
S'0'
sS'GfM'
p3975
S'0'
sS'Draw'
p3976
S'0'
sS'Mat'
p3977
S'2'
sS'Conv'
p3978
S'0'
sS'Tries'
p3979
S'1'
sS'Pts'
p3980
S'3'
sa(dp3981
S'Pens'
p3982
S'0'
sS'Sub'
p3983
S'0'
sS'Lost'
p3984
S'1'
sS'Drop'
p3985
S'0'
sS'Start'
p3986
S'1'
sS'Won'
p3987
S'0'
sS'GfM'
p3988
S'0'
sS'Draw'
p3989
S'0'
sS'Mat'
p3990
S'1'
sS'Conv'
p3991
S'0'
sS'Tries'
p3992
S'0'
sS'Pts'
p3993
S'0'
sa(dp3994
S'Pens'
p3995
S'0'
sS'Sub'
p3996
S'0'
sS'Lost'
p3997
S'2'
sS'Drop'
p3998
S'0'
sS'Start'
p3999
S'14'
p4000
sS'Won'
p4001
S'9'
sS'GfM'
p4002
S'0'
sS'Draw'
p4003
S'3'
sS'Mat'
p4004
S'14'
p4005
sS'Conv'
p4006
S'0'
sS'Tries'
p4007
S'0'
sS'Pts'
p4008
S'0'
sa(dp4009
S'Pens'
p4010
S'0'
sS'Sub'
p4011
S'0'
sS'Lost'
p4012
S'1'
sS'Drop'
p4013
S'0'
sS'Start'
p4014
S'2'
sS'Won'
p4015
S'0'
sS'GfM'
p4016
S'0'
sS'Draw'
p4017
S'1'
sS'Mat'
p4018
S'2'
sS'Conv'
p4019
S'0'
sS'Tries'
p4020
S'1'
sS'Pts'
p4021
S'3'
sa(dp4022
S'Pens'
p4023
S'0'
sS'Sub'
p4024
S'0'
sS'Lost'
p4025
S'1'
sS'Drop'
p4026
S'0'
sS'Start'
p4027
S'3'
sS'Won'
p4028
S'1'
sS'GfM'
p4029
S'0'
sS'Draw'
p4030
S'1'
sS'Mat'
p4031
S'3'
sS'Conv'
p4032
S'4'
sS'Tries'
p4033
S'0'
sS'Pts'
p4034
S'8'
sa(dp4035
S'Pens'
p4036
S'0'
sS'Sub'
p4037
S'0'
sS'Lost'
p4038
S'1'
sS'Drop'
p4039
S'0'
sS'Start'
p4040
S'11'
p4041
sS'Won'
p4042
S'7'
sS'GfM'
p4043
S'0'
sS'Draw'
p4044
S'3'
sS'Mat'
p4045
S'11'
p4046
sS'Conv'
p4047
S'0'
sS'Tries'
p4048
S'2'
sS'Pts'
p4049
S'6'
sa(dp4050
S'Pens'
p4051
S'0'
sS'Sub'
p4052
S'0'
sS'Lost'
p4053
S'1'
sS'Drop'
p4054
S'0'
sS'Start'
p4055
S'2'
sS'Won'
p4056
S'0'
sS'GfM'
p4057
S'0'
sS'Draw'
p4058
S'1'
sS'Mat'
p4059
S'2'
sS'Conv'
p4060
S'0'
sS'Tries'
p4061
S'0'
sS'Pts'
p4062
S'0'
sa(dp4063
S'Pens'
p4064
S'0'
sS'Sub'
p4065
S'0'
sS'Lost'
p4066
S'0'
sS'Drop'
p4067
S'0'
sS'Start'
p4068
S'1'
sS'Won'
p4069
S'0'
sS'GfM'
p4070
S'0'
sS'Draw'
p4071
S'1'
sS'Mat'
p4072
S'1'
sS'Conv'
p4073
S'0'
sS'Tries'
p4074
S'0'
sS'Pts'
p4075
S'0'
sa(dp4076
S'Pens'
p4077
S'0'
sS'Sub'
p4078
S'0'
sS'Lost'
p4079
S'1'
sS'Drop'
p4080
S'0'
sS'Start'
p4081
S'17'
p4082
sS'Won'
p4083
S'12'
p4084
sS'GfM'
p4085
S'0'
sS'Draw'
p4086
S'4'
sS'Mat'
p4087
S'17'
p4088
sS'Conv'
p4089
S'0'
sS'Tries'
p4090
S'4'
sS'Pts'
p4091
S'12'
p4092
sa(dp4093
S'Pens'
p4094
S'0'
sS'Sub'
p4095
S'0'
sS'Lost'
p4096
S'1'
sS'Drop'
p4097
S'0'
sS'Start'
p4098
S'1'
sS'Won'
p4099
S'0'
sS'GfM'
p4100
S'0'
sS'Draw'
p4101
S'0'
sS'Mat'
p4102
S'1'
sS'Conv'
p4103
S'0'
sS'Tries'
p4104
S'0'
sS'Pts'
p4105
S'0'
sa(dp4106
S'Pens'
p4107
S'0'
sS'Sub'
p4108
S'0'
sS'Lost'
p4109
S'6'
sS'Drop'
p4110
S'0'
sS'Start'
p4111
S'18'
p4112
sS'Won'
p4113
S'9'
sS'GfM'
p4114
S'0'
sS'Draw'
p4115
S'3'
sS'Mat'
p4116
S'18'
p4117
sS'Conv'
p4118
S'0'
sS'Tries'
p4119
S'1'
sS'Pts'
p4120
S'3'
sa(dp4121
S'Pens'
p4122
S'0'
sS'Sub'
p4123
S'0'
sS'Lost'
p4124
S'1'
sS'Drop'
p4125
S'0'
sS'Start'
p4126
S'2'
sS'Won'
p4127
S'1'
sS'GfM'
p4128
S'0'
sS'Draw'
p4129
S'0'
sS'Mat'
p4130
S'2'
sS'Conv'
p4131
S'0'
sS'Tries'
p4132
S'0'
sS'Pts'
p4133
S'0'
sa(dp4134
S'Pens'
p4135
S'0'
sS'Sub'
p4136
S'0'
sS'Lost'
p4137
S'1'
sS'Drop'
p4138
S'0'
sS'Start'
p4139
S'1'
sS'Won'
p4140
S'0'
sS'GfM'
p4141
S'0'
sS'Draw'
p4142
S'0'
sS'Mat'
p4143
S'1'
sS'Conv'
p4144
S'0'
sS'Tries'
p4145
S'0'
sS'Pts'
p4146
S'0'
sa(dp4147
S'Pens'
p4148
S'0'
sS'Sub'
p4149
S'0'
sS'Lost'
p4150
S'0'
sS'Drop'
p4151
S'0'
sS'Start'
p4152
S'1'
sS'Won'
p4153
S'1'
sS'GfM'
p4154
S'0'
sS'Draw'
p4155
S'0'
sS'Mat'
p4156
S'1'
sS'Conv'
p4157
S'0'
sS'Tries'
p4158
S'0'
sS'Pts'
p4159
S'0'
sa(dp4160
S'Pens'
p4161
S'0'
sS'Sub'
p4162
S'0'
sS'Lost'
p4163
S'0'
sS'Drop'
p4164
S'0'
sS'Start'
p4165
S'1'
sS'Won'
p4166
S'1'
sS'GfM'
p4167
S'0'
sS'Draw'
p4168
S'0'
sS'Mat'
p4169
S'1'
sS'Conv'
p4170
S'0'
sS'Tries'
p4171
S'0'
sS'Pts'
p4172
S'0'
sa(dp4173
S'Pens'
p4174
S'0'
sS'Sub'
p4175
S'0'
sS'Lost'
p4176
S'11'
p4177
sS'Drop'
p4178
S'0'
sS'Start'
p4179
S'33'
p4180
sS'Won'
p4181
S'19'
p4182
sS'GfM'
p4183
S'0'
sS'Draw'
p4184
S'3'
sS'Mat'
p4185
S'33'
p4186
sS'Conv'
p4187
S'0'
sS'Tries'
p4188
S'8'
sS'Pts'
p4189
S'24'
p4190
sa(dp4191
S'Pens'
p4192
S'0'
sS'Sub'
p4193
S'0'
sS'Lost'
p4194
S'12'
p4195
sS'Drop'
p4196
S'0'
sS'Start'
p4197
S'33'
p4198
sS'Won'
p4199
S'18'
p4200
sS'GfM'
p4201
S'0'
sS'Draw'
p4202
S'3'
sS'Mat'
p4203
S'33'
p4204
sS'Conv'
p4205
S'0'
sS'Tries'
p4206
S'8'
sS'Pts'
p4207
S'24'
p4208
sa(dp4209
S'Pens'
p4210
S'0'
sS'Sub'
p4211
S'0'
sS'Lost'
p4212
S'0'
sS'Drop'
p4213
S'0'
sS'Start'
p4214
S'1'
sS'Won'
p4215
S'1'
sS'GfM'
p4216
S'0'
sS'Draw'
p4217
S'0'
sS'Mat'
p4218
S'1'
sS'Conv'
p4219
S'0'
sS'Tries'
p4220
S'1'
sS'Pts'
p4221
S'3'
sa(dp4222
S'Pens'
p4223
S'0'
sS'Sub'
p4224
S'0'
sS'Lost'
p4225
S'0'
sS'Drop'
p4226
S'0'
sS'Start'
p4227
S'1'
sS'Won'
p4228
S'1'
sS'GfM'
p4229
S'0'
sS'Draw'
p4230
S'0'
sS'Mat'
p4231
S'1'
sS'Conv'
p4232
S'0'
sS'Tries'
p4233
S'0'
sS'Pts'
p4234
S'0'
sa(dp4235
S'Pens'
p4236
S'0'
sS'Sub'
p4237
S'0'
sS'Lost'
p4238
S'4'
sS'Drop'
p4239
S'0'
sS'Start'
p4240
S'22'
p4241
sS'Won'
p4242
S'15'
p4243
sS'GfM'
p4244
S'0'
sS'Draw'
p4245
S'3'
sS'Mat'
p4246
S'22'
p4247
sS'Conv'
p4248
S'0'
sS'Tries'
p4249
S'5'
sS'Pts'
p4250
S'15'
p4251
sa(dp4252
S'Pens'
p4253
S'2'
sS'Sub'
p4254
S'0'
sS'Lost'
p4255
S'3'
sS'Drop'
p4256
S'0'
sS'Start'
p4257
S'11'
p4258
sS'Won'
p4259
S'7'
sS'GfM'
p4260
S'0'
sS'Draw'
p4261
S'1'
sS'Mat'
p4262
S'11'
p4263
sS'Conv'
p4264
S'0'
sS'Tries'
p4265
S'1'
sS'Pts'
p4266
S'9'
sa(dp4267
S'Pens'
p4268
S'0'
sS'Sub'
p4269
S'0'
sS'Lost'
p4270
S'0'
sS'Drop'
p4271
S'0'
sS'Start'
p4272
S'1'
sS'Won'
p4273
S'1'
sS'GfM'
p4274
S'0'
sS'Draw'
p4275
S'0'
sS'Mat'
p4276
S'1'
sS'Conv'
p4277
S'0'
sS'Tries'
p4278
S'0'
sS'Pts'
p4279
S'0'
sa(dp4280
S'Pens'
p4281
S'0'
sS'Sub'
p4282
S'0'
sS'Lost'
p4283
S'0'
sS'Drop'
p4284
S'0'
sS'Start'
p4285
S'1'
sS'Won'
p4286
S'1'
sS'GfM'
p4287
S'0'
sS'Draw'
p4288
S'0'
sS'Mat'
p4289
S'1'
sS'Conv'
p4290
S'0'
sS'Tries'
p4291
S'1'
sS'Pts'
p4292
S'3'
sa(dp4293
S'Pens'
p4294
S'0'
sS'Sub'
p4295
S'0'
sS'Lost'
p4296
S'1'
sS'Drop'
p4297
S'0'
sS'Start'
p4298
S'5'
sS'Won'
p4299
S'2'
sS'GfM'
p4300
S'0'
sS'Draw'
p4301
S'2'
sS'Mat'
p4302
S'5'
sS'Conv'
p4303
S'0'
sS'Tries'
p4304
S'0'
sS'Pts'
p4305
S'0'
sa(dp4306
S'Pens'
p4307
S'4'
sS'Sub'
p4308
S'0'
sS'Lost'
p4309
S'1'
sS'Drop'
p4310
S'0'
sS'Start'
p4311
S'6'
sS'Won'
p4312
S'3'
sS'GfM'
p4313
S'0'
sS'Draw'
p4314
S'2'
sS'Mat'
p4315
S'6'
sS'Conv'
p4316
S'4'
sS'Tries'
p4317
S'0'
sS'Pts'
p4318
S'20'
p4319
sa(dp4320
S'Pens'
p4321
S'0'
sS'Sub'
p4322
S'0'
sS'Lost'
p4323
S'5'
sS'Drop'
p4324
S'0'
sS'Start'
p4325
S'16'
p4326
sS'Won'
p4327
S'8'
sS'GfM'
p4328
S'0'
sS'Draw'
p4329
S'3'
sS'Mat'
p4330
S'16'
p4331
sS'Conv'
p4332
S'0'
sS'Tries'
p4333
S'0'
sS'Pts'
p4334
S'0'
sa(dp4335
S'Pens'
p4336
S'0'
sS'Sub'
p4337
S'0'
sS'Lost'
p4338
S'6'
sS'Drop'
p4339
S'0'
sS'Start'
p4340
S'11'
p4341
sS'Won'
p4342
S'5'
sS'GfM'
p4343
S'0'
sS'Draw'
p4344
S'0'
sS'Mat'
p4345
S'11'
p4346
sS'Conv'
p4347
S'0'
sS'Tries'
p4348
S'0'
sS'Pts'
p4349
S'0'
sa(dp4350
S'Pens'
p4351
S'14'
p4352
sS'Sub'
p4353
S'0'
sS'Lost'
p4354
S'4'
sS'Drop'
p4355
S'1'
sS'Start'
p4356
S'19'
p4357
sS'Won'
p4358
S'13'
p4359
sS'GfM'
p4360
S'0'
sS'Draw'
p4361
S'2'
sS'Mat'
p4362
S'19'
p4363
sS'Conv'
p4364
S'14'
p4365
sS'Tries'
p4366
S'5'
sS'Pts'
p4367
S'88'
p4368
sa(dp4369
S'Pens'
p4370
S'0'
sS'Sub'
p4371
S'0'
sS'Lost'
p4372
S'1'
sS'Drop'
p4373
S'0'
sS'Start'
p4374
S'10'
p4375
sS'Won'
p4376
S'8'
sS'GfM'
p4377
S'0'
sS'Draw'
p4378
S'1'
sS'Mat'
p4379
S'10'
p4380
sS'Conv'
p4381
S'0'
sS'Tries'
p4382
S'6'
sS'Pts'
p4383
S'18'
p4384
sa(dp4385
S'Pens'
p4386
S'0'
sS'Sub'
p4387
S'0'
sS'Lost'
p4388
S'4'
sS'Drop'
p4389
S'0'
sS'Start'
p4390
S'19'
p4391
sS'Won'
p4392
S'12'
p4393
sS'GfM'
p4394
S'0'
sS'Draw'
p4395
S'3'
sS'Mat'
p4396
S'19'
p4397
sS'Conv'
p4398
S'0'
sS'Tries'
p4399
S'0'
sS'Pts'
p4400
S'0'
sa(dp4401
S'Pens'
p4402
S'0'
sS'Sub'
p4403
S'0'
sS'Lost'
p4404
S'10'
p4405
sS'Drop'
p4406
S'2'
sS'Start'
p4407
S'27'
p4408
sS'Won'
p4409
S'14'
p4410
sS'GfM'
p4411
S'0'
sS'Draw'
p4412
S'3'
sS'Mat'
p4413
S'27'
p4414
sS'Conv'
p4415
S'0'
sS'Tries'
p4416
S'0'
sS'Pts'
p4417
S'6'
sa(dp4418
S'Pens'
p4419
S'0'
sS'Sub'
p4420
S'0'
sS'Lost'
p4421
S'3'
sS'Drop'
p4422
S'0'
sS'Start'
p4423
S'5'
sS'Won'
p4424
S'2'
sS'GfM'
p4425
S'0'
sS'Draw'
p4426
S'0'
sS'Mat'
p4427
S'5'
sS'Conv'
p4428
S'0'
sS'Tries'
p4429
S'0'
sS'Pts'
p4430
S'0'
sa(dp4431
S'Pens'
p4432
S'0'
sS'Sub'
p4433
S'0'
sS'Lost'
p4434
S'1'
sS'Drop'
p4435
S'0'
sS'Start'
p4436
S'7'
sS'Won'
p4437
S'6'
sS'GfM'
p4438
S'0'
sS'Draw'
p4439
S'0'
sS'Mat'
p4440
S'7'
sS'Conv'
p4441
S'0'
sS'Tries'
p4442
S'0'
sS'Pts'
p4443
S'0'
sa(dp4444
S'Pens'
p4445
S'0'
sS'Sub'
p4446
S'0'
sS'Lost'
p4447
S'7'
sS'Drop'
p4448
S'0'
sS'Start'
p4449
S'27'
p4450
sS'Won'
p4451
S'18'
p4452
sS'GfM'
p4453
S'0'
sS'Draw'
p4454
S'2'
sS'Mat'
p4455
S'27'
p4456
sS'Conv'
p4457
S'0'
sS'Tries'
p4458
S'6'
sS'Pts'
p4459
S'18'
p4460
sa(dp4461
S'Pens'
p4462
S'0'
sS'Sub'
p4463
S'1'
sS'Lost'
p4464
S'1'
sS'Drop'
p4465
S'0'
sS'Start'
p4466
S'11'
p4467
sS'Won'
p4468
S'10'
p4469
sS'GfM'
p4470
S'0'
sS'Draw'
p4471
S'1'
sS'Mat'
p4472
S'12'
p4473
sS'Conv'
p4474
S'0'
sS'Tries'
p4475
S'0'
sS'Pts'
p4476
S'0'
sa(dp4477
S'Pens'
p4478
S'0'
sS'Sub'
p4479
S'0'
sS'Lost'
p4480
S'0'
sS'Drop'
p4481
S'0'
sS'Start'
p4482
S'1'
sS'Won'
p4483
S'1'
sS'GfM'
p4484
S'0'
sS'Draw'
p4485
S'0'
sS'Mat'
p4486
S'1'
sS'Conv'
p4487
S'0'
sS'Tries'
p4488
S'0'
sS'Pts'
p4489
S'0'
sa(dp4490
S'Pens'
p4491
S'2'
sS'Sub'
p4492
S'0'
sS'Lost'
p4493
S'8'
sS'Drop'
p4494
S'0'
sS'Start'
p4495
S'38'
p4496
sS'Won'
p4497
S'24'
p4498
sS'GfM'
p4499
S'0'
sS'Draw'
p4500
S'6'
sS'Mat'
p4501
S'38'
p4502
sS'Conv'
p4503
S'1'
sS'Tries'
p4504
S'1'
sS'Pts'
p4505
S'11'
p4506
sa(dp4507
S'Pens'
p4508
S'0'
sS'Sub'
p4509
S'0'
sS'Lost'
p4510
S'0'
sS'Drop'
p4511
S'0'
sS'Start'
p4512
S'1'
sS'Won'
p4513
S'1'
sS'GfM'
p4514
S'0'
sS'Draw'
p4515
S'0'
sS'Mat'
p4516
S'1'
sS'Conv'
p4517
S'0'
sS'Tries'
p4518
S'2'
sS'Pts'
p4519
S'6'
sa(dp4520
S'Pens'
p4521
S'1'
sS'Sub'
p4522
S'0'
sS'Lost'
p4523
S'0'
sS'Drop'
p4524
S'0'
sS'Start'
p4525
S'1'
sS'Won'
p4526
S'1'
sS'GfM'
p4527
S'0'
sS'Draw'
p4528
S'0'
sS'Mat'
p4529
S'1'
sS'Conv'
p4530
S'3'
sS'Tries'
p4531
S'0'
sS'Pts'
p4532
S'9'
sa(dp4533
S'Pens'
p4534
S'0'
sS'Sub'
p4535
S'0'
sS'Lost'
p4536
S'0'
sS'Drop'
p4537
S'0'
sS'Start'
p4538
S'1'
sS'Won'
p4539
S'1'
sS'GfM'
p4540
S'0'
sS'Draw'
p4541
S'0'
sS'Mat'
p4542
S'1'
sS'Conv'
p4543
S'0'
sS'Tries'
p4544
S'2'
sS'Pts'
p4545
S'6'
sa(dp4546
S'Pens'
p4547
S'0'
sS'Sub'
p4548
S'0'
sS'Lost'
p4549
S'0'
sS'Drop'
p4550
S'0'
sS'Start'
p4551
S'1'
sS'Won'
p4552
S'1'
sS'GfM'
p4553
S'0'
sS'Draw'
p4554
S'0'
sS'Mat'
p4555
S'1'
sS'Conv'
p4556
S'0'
sS'Tries'
p4557
S'0'
sS'Pts'
p4558
S'0'
sa(dp4559
S'Pens'
p4560
S'0'
sS'Sub'
p4561
S'0'
sS'Lost'
p4562
S'2'
sS'Drop'
p4563
S'0'
sS'Start'
p4564
S'18'
p4565
sS'Won'
p4566
S'12'
p4567
sS'GfM'
p4568
S'0'
sS'Draw'
p4569
S'4'
sS'Mat'
p4570
S'18'
p4571
sS'Conv'
p4572
S'0'
sS'Tries'
p4573
S'0'
sS'Pts'
p4574
S'0'
sa(dp4575
S'Pens'
p4576
S'0'
sS'Sub'
p4577
S'0'
sS'Lost'
p4578
S'0'
sS'Drop'
p4579
S'0'
sS'Start'
p4580
S'1'
sS'Won'
p4581
S'0'
sS'GfM'
p4582
S'0'
sS'Draw'
p4583
S'1'
sS'Mat'
p4584
S'1'
sS'Conv'
p4585
S'0'
sS'Tries'
p4586
S'0'
sS'Pts'
p4587
S'0'
sa(dp4588
S'Pens'
p4589
S'0'
sS'Sub'
p4590
S'0'
sS'Lost'
p4591
S'1'
sS'Drop'
p4592
S'0'
sS'Start'
p4593
S'5'
sS'Won'
p4594
S'3'
sS'GfM'
p4595
S'0'
sS'Draw'
p4596
S'1'
sS'Mat'
p4597
S'5'
sS'Conv'
p4598
S'0'
sS'Tries'
p4599
S'1'
sS'Pts'
p4600
S'3'
sa(dp4601
S'Pens'
p4602
S'0'
sS'Sub'
p4603
S'0'
sS'Lost'
p4604
S'0'
sS'Drop'
p4605
S'0'
sS'Start'
p4606
S'3'
sS'Won'
p4607
S'3'
sS'GfM'
p4608
S'0'
sS'Draw'
p4609
S'0'
sS'Mat'
p4610
S'3'
sS'Conv'
p4611
S'0'
sS'Tries'
p4612
S'0'
sS'Pts'
p4613
S'0'
sa(dp4614
S'Pens'
p4615
S'0'
sS'Sub'
p4616
S'0'
sS'Lost'
p4617
S'0'
sS'Drop'
p4618
S'0'
sS'Start'
p4619
S'3'
sS'Won'
p4620
S'3'
sS'GfM'
p4621
S'0'
sS'Draw'
p4622
S'0'
sS'Mat'
p4623
S'3'
sS'Conv'
p4624
S'0'
sS'Tries'
p4625
S'0'
sS'Pts'
p4626
S'0'
sa(dp4627
S'Pens'
p4628
S'0'
sS'Sub'
p4629
S'0'
sS'Lost'
p4630
S'6'
sS'Drop'
p4631
S'0'
sS'Start'
p4632
S'25'
p4633
sS'Won'
p4634
S'15'
p4635
sS'GfM'
p4636
S'0'
sS'Draw'
p4637
S'4'
sS'Mat'
p4638
S'25'
p4639
sS'Conv'
p4640
S'0'
sS'Tries'
p4641
S'3'
sS'Pts'
p4642
S'9'
sa(dp4643
S'Pens'
p4644
S'0'
sS'Sub'
p4645
S'0'
sS'Lost'
p4646
S'8'
sS'Drop'
p4647
S'0'
sS'Start'
p4648
S'25'
p4649
sS'Won'
p4650
S'13'
p4651
sS'GfM'
p4652
S'0'
sS'Draw'
p4653
S'4'
sS'Mat'
p4654
S'25'
p4655
sS'Conv'
p4656
S'0'
sS'Tries'
p4657
S'1'
sS'Pts'
p4658
S'3'
sa(dp4659
S'Pens'
p4660
S'0'
sS'Sub'
p4661
S'0'
sS'Lost'
p4662
S'1'
sS'Drop'
p4663
S'0'
sS'Start'
p4664
S'3'
sS'Won'
p4665
S'2'
sS'GfM'
p4666
S'0'
sS'Draw'
p4667
S'0'
sS'Mat'
p4668
S'3'
sS'Conv'
p4669
S'0'
sS'Tries'
p4670
S'1'
sS'Pts'
p4671
S'3'
sa(dp4672
S'Pens'
p4673
S'0'
sS'Sub'
p4674
S'0'
sS'Lost'
p4675
S'1'
sS'Drop'
p4676
S'0'
sS'Start'
p4677
S'3'
sS'Won'
p4678
S'2'
sS'GfM'
p4679
S'0'
sS'Draw'
p4680
S'0'
sS'Mat'
p4681
S'3'
sS'Conv'
p4682
S'0'
sS'Tries'
p4683
S'0'
sS'Pts'
p4684
S'0'
sa(dp4685
S'Pens'
p4686
S'0'
sS'Sub'
p4687
S'0'
sS'Lost'
p4688
S'2'
sS'Drop'
p4689
S'0'
sS'Start'
p4690
S'3'
sS'Won'
p4691
S'1'
sS'GfM'
p4692
S'0'
sS'Draw'
p4693
S'0'
sS'Mat'
p4694
S'3'
sS'Conv'
p4695
S'0'
sS'Tries'
p4696
S'1'
sS'Pts'
p4697
S'3'
sa(dp4698
S'Pens'
p4699
S'0'
sS'Sub'
p4700
S'0'
sS'Lost'
p4701
S'11'
p4702
sS'Drop'
p4703
S'0'
sS'Start'
p4704
S'35'
p4705
sS'Won'
p4706
S'19'
p4707
sS'GfM'
p4708
S'0'
sS'Draw'
p4709
S'5'
sS'Mat'
p4710
S'35'
p4711
sS'Conv'
p4712
S'0'
sS'Tries'
p4713
S'1'
sS'Pts'
p4714
S'3'
sa(dp4715
S'Pens'
p4716
S'0'
sS'Sub'
p4717
S'0'
sS'Lost'
p4718
S'1'
sS'Drop'
p4719
S'0'
sS'Start'
p4720
S'1'
sS'Won'
p4721
S'0'
sS'GfM'
p4722
S'0'
sS'Draw'
p4723
S'0'
sS'Mat'
p4724
S'1'
sS'Conv'
p4725
S'0'
sS'Tries'
p4726
S'0'
sS'Pts'
p4727
S'0'
sa(dp4728
S'Pens'
p4729
S'0'
sS'Sub'
p4730
S'0'
sS'Lost'
p4731
S'1'
sS'Drop'
p4732
S'0'
sS'Start'
p4733
S'1'
sS'Won'
p4734
S'0'
sS'GfM'
p4735
S'0'
sS'Draw'
p4736
S'0'
sS'Mat'
p4737
S'1'
sS'Conv'
p4738
S'0'
sS'Tries'
p4739
S'0'
sS'Pts'
p4740
S'0'
sa(dp4741
S'Pens'
p4742
S'0'
sS'Sub'
p4743
S'0'
sS'Lost'
p4744
S'6'
sS'Drop'
p4745
S'0'
sS'Start'
p4746
S'7'
sS'Won'
p4747
S'1'
sS'GfM'
p4748
S'0'
sS'Draw'
p4749
S'0'
sS'Mat'
p4750
S'7'
sS'Conv'
p4751
S'0'
sS'Tries'
p4752
S'0'
sS'Pts'
p4753
S'0'
sa(dp4754
S'Pens'
p4755
S'3'
sS'Sub'
p4756
S'0'
sS'Lost'
p4757
S'5'
sS'Drop'
p4758
S'0'
sS'Start'
p4759
S'7'
sS'Won'
p4760
S'2'
sS'GfM'
p4761
S'0'
sS'Draw'
p4762
S'0'
sS'Mat'
p4763
S'7'
sS'Conv'
p4764
S'0'
sS'Tries'
p4765
S'1'
sS'Pts'
p4766
S'12'
p4767
sa(dp4768
S'Pens'
p4769
S'0'
sS'Sub'
p4770
S'0'
sS'Lost'
p4771
S'3'
sS'Drop'
p4772
S'0'
sS'Start'
p4773
S'10'
p4774
sS'Won'
p4775
S'5'
sS'GfM'
p4776
S'0'
sS'Draw'
p4777
S'2'
sS'Mat'
p4778
S'10'
p4779
sS'Conv'
p4780
S'0'
sS'Tries'
p4781
S'3'
sS'Pts'
p4782
S'9'
sa(dp4783
S'Pens'
p4784
S'11'
p4785
sS'Sub'
p4786
S'0'
sS'Lost'
p4787
S'5'
sS'Drop'
p4788
S'0'
sS'Start'
p4789
S'14'
p4790
sS'Won'
p4791
S'7'
sS'GfM'
p4792
S'0'
sS'Draw'
p4793
S'2'
sS'Mat'
p4794
S'14'
p4795
sS'Conv'
p4796
S'4'
sS'Tries'
p4797
S'2'
sS'Pts'
p4798
S'47'
p4799
sa(dp4800
S'Pens'
p4801
S'0'
sS'Sub'
p4802
S'0'
sS'Lost'
p4803
S'5'
sS'Drop'
p4804
S'0'
sS'Start'
p4805
S'14'
p4806
sS'Won'
p4807
S'9'
sS'GfM'
p4808
S'0'
sS'Draw'
p4809
S'0'
sS'Mat'
p4810
S'14'
p4811
sS'Conv'
p4812
S'0'
sS'Tries'
p4813
S'0'
sS'Pts'
p4814
S'0'
sa(dp4815
S'Pens'
p4816
S'0'
sS'Sub'
p4817
S'1'
sS'Lost'
p4818
S'2'
sS'Drop'
p4819
S'0'
sS'Start'
p4820
S'3'
sS'Won'
p4821
S'0'
sS'GfM'
p4822
S'0'
sS'Draw'
p4823
S'2'
sS'Mat'
p4824
S'4'
sS'Conv'
p4825
S'0'
sS'Tries'
p4826
S'0'
sS'Pts'
p4827
S'0'
sa(dp4828
S'Pens'
p4829
S'0'
sS'Sub'
p4830
S'0'
sS'Lost'
p4831
S'5'
sS'Drop'
p4832
S'0'
sS'Start'
p4833
S'8'
sS'Won'
p4834
S'3'
sS'GfM'
p4835
S'0'
sS'Draw'
p4836
S'0'
sS'Mat'
p4837
S'8'
sS'Conv'
p4838
S'0'
sS'Tries'
p4839
S'0'
sS'Pts'
p4840
S'0'
sa(dp4841
S'Pens'
p4842
S'0'
sS'Sub'
p4843
S'0'
sS'Lost'
p4844
S'2'
sS'Drop'
p4845
S'0'
sS'Start'
p4846
S'2'
sS'Won'
p4847
S'0'
sS'GfM'
p4848
S'0'
sS'Draw'
p4849
S'0'
sS'Mat'
p4850
S'2'
sS'Conv'
p4851
S'1'
sS'Tries'
p4852
S'1'
sS'Pts'
p4853
S'5'
sa(dp4854
S'Pens'
p4855
S'0'
sS'Sub'
p4856
S'0'
sS'Lost'
p4857
S'2'
sS'Drop'
p4858
S'0'
sS'Start'
p4859
S'2'
sS'Won'
p4860
S'0'
sS'GfM'
p4861
S'0'
sS'Draw'
p4862
S'0'
sS'Mat'
p4863
S'2'
sS'Conv'
p4864
S'0'
sS'Tries'
p4865
S'0'
sS'Pts'
p4866
S'0'
sa(dp4867
S'Pens'
p4868
S'0'
sS'Sub'
p4869
S'0'
sS'Lost'
p4870
S'4'
sS'Drop'
p4871
S'0'
sS'Start'
p4872
S'5'
sS'Won'
p4873
S'1'
sS'GfM'
p4874
S'0'
sS'Draw'
p4875
S'0'
sS'Mat'
p4876
S'5'
sS'Conv'
p4877
S'0'
sS'Tries'
p4878
S'0'
sS'Pts'
p4879
S'0'
sa(dp4880
S'Pens'
p4881
S'0'
sS'Sub'
p4882
S'0'
sS'Lost'
p4883
S'2'
sS'Drop'
p4884
S'0'
sS'Start'
p4885
S'3'
sS'Won'
p4886
S'1'
sS'GfM'
p4887
S'0'
sS'Draw'
p4888
S'0'
sS'Mat'
p4889
S'3'
sS'Conv'
p4890
S'0'
sS'Tries'
p4891
S'0'
sS'Pts'
p4892
S'0'
sa(dp4893
S'Pens'
p4894
S'0'
sS'Sub'
p4895
S'0'
sS'Lost'
p4896
S'2'
sS'Drop'
p4897
S'0'
sS'Start'
p4898
S'2'
sS'Won'
p4899
S'0'
sS'GfM'
p4900
S'0'
sS'Draw'
p4901
S'0'
sS'Mat'
p4902
S'2'
sS'Conv'
p4903
S'0'
sS'Tries'
p4904
S'0'
sS'Pts'
p4905
S'0'
sa(dp4906
S'Pens'
p4907
S'0'
sS'Sub'
p4908
S'0'
sS'Lost'
p4909
S'4'
sS'Drop'
p4910
S'0'
sS'Start'
p4911
S'7'
sS'Won'
p4912
S'3'
sS'GfM'
p4913
S'0'
sS'Draw'
p4914
S'0'
sS'Mat'
p4915
S'7'
sS'Conv'
p4916
S'0'
sS'Tries'
p4917
S'2'
sS'Pts'
p4918
S'6'
sa(dp4919
S'Pens'
p4920
S'0'
sS'Sub'
p4921
S'0'
sS'Lost'
p4922
S'4'
sS'Drop'
p4923
S'0'
sS'Start'
p4924
S'5'
sS'Won'
p4925
S'1'
sS'GfM'
p4926
S'0'
sS'Draw'
p4927
S'0'
sS'Mat'
p4928
S'5'
sS'Conv'
p4929
S'0'
sS'Tries'
p4930
S'0'
sS'Pts'
p4931
S'0'
sa(dp4932
S'Pens'
p4933
S'0'
sS'Sub'
p4934
S'0'
sS'Lost'
p4935
S'2'
sS'Drop'
p4936
S'0'
sS'Start'
p4937
S'2'
sS'Won'
p4938
S'0'
sS'GfM'
p4939
S'0'
sS'Draw'
p4940
S'0'
sS'Mat'
p4941
S'2'
sS'Conv'
p4942
S'0'
sS'Tries'
p4943
S'0'
sS'Pts'
p4944
S'0'
sa(dp4945
S'Pens'
p4946
S'0'
sS'Sub'
p4947
S'0'
sS'Lost'
p4948
S'10'
p4949
sS'Drop'
p4950
S'0'
sS'Start'
p4951
S'38'
p4952
sS'Won'
p4953
S'22'
p4954
sS'GfM'
p4955
S'0'
sS'Draw'
p4956
S'6'
sS'Mat'
p4957
S'38'
p4958
sS'Conv'
p4959
S'0'
sS'Tries'
p4960
S'7'
sS'Pts'
p4961
S'21'
p4962
sa(dp4963
S'Pens'
p4964
S'0'
sS'Sub'
p4965
S'0'
sS'Lost'
p4966
S'3'
sS'Drop'
p4967
S'0'
sS'Start'
p4968
S'4'
sS'Won'
p4969
S'1'
sS'GfM'
p4970
S'0'
sS'Draw'
p4971
S'0'
sS'Mat'
p4972
S'4'
sS'Conv'
p4973
S'0'
sS'Tries'
p4974
S'0'
sS'Pts'
p4975
S'0'
sa(dp4976
S'Pens'
p4977
S'0'
sS'Sub'
p4978
S'0'
sS'Lost'
p4979
S'1'
sS'Drop'
p4980
S'0'
sS'Start'
p4981
S'1'
sS'Won'
p4982
S'0'
sS'GfM'
p4983
S'0'
sS'Draw'
p4984
S'0'
sS'Mat'
p4985
S'1'
sS'Conv'
p4986
S'0'
sS'Tries'
p4987
S'0'
sS'Pts'
p4988
S'0'
sa(dp4989
S'Pens'
p4990
S'4'
sS'Sub'
p4991
S'0'
sS'Lost'
p4992
S'3'
sS'Drop'
p4993
S'0'
sS'Start'
p4994
S'14'
p4995
sS'Won'
p4996
S'8'
sS'GfM'
p4997
S'0'
sS'Draw'
p4998
S'3'
sS'Mat'
p4999
S'14'
p5000
sS'Conv'
p5001
S'7'
sS'Tries'
p5002
S'0'
sS'Pts'
p5003
S'26'
p5004
sa(dp5005
S'Pens'
p5006
S'0'
sS'Sub'
p5007
S'0'
sS'Lost'
p5008
S'1'
sS'Drop'
p5009
S'0'
sS'Start'
p5010
S'4'
sS'Won'
p5011
S'2'
sS'GfM'
p5012
S'0'
sS'Draw'
p5013
S'1'
sS'Mat'
p5014
S'4'
sS'Conv'
p5015
S'0'
sS'Tries'
p5016
S'0'
sS'Pts'
p5017
S'0'
sa(dp5018
S'Pens'
p5019
S'0'
sS'Sub'
p5020
S'0'
sS'Lost'
p5021
S'5'
sS'Drop'
p5022
S'0'
sS'Start'
p5023
S'25'
p5024
sS'Won'
p5025
S'16'
p5026
sS'GfM'
p5027
S'0'
sS'Draw'
p5028
S'4'
sS'Mat'
p5029
S'25'
p5030
sS'Conv'
p5031
S'0'
sS'Tries'
p5032
S'5'
sS'Pts'
p5033
S'15'
p5034
sa(dp5035
S'Pens'
p5036
S'0'
sS'Sub'
p5037
S'0'
sS'Lost'
p5038
S'1'
sS'Drop'
p5039
S'0'
sS'Start'
p5040
S'4'
sS'Won'
p5041
S'2'
sS'GfM'
p5042
S'0'
sS'Draw'
p5043
S'1'
sS'Mat'
p5044
S'4'
sS'Conv'
p5045
S'0'
sS'Tries'
p5046
S'0'
sS'Pts'
p5047
S'0'
sa(dp5048
S'Pens'
p5049
S'0'
sS'Sub'
p5050
S'0'
sS'Lost'
p5051
S'3'
sS'Drop'
p5052
S'0'
sS'Start'
p5053
S'8'
sS'Won'
p5054
S'4'
sS'GfM'
p5055
S'0'
sS'Draw'
p5056
S'1'
sS'Mat'
p5057
S'8'
sS'Conv'
p5058
S'0'
sS'Tries'
p5059
S'0'
sS'Pts'
p5060
S'0'
sa(dp5061
S'Pens'
p5062
S'0'
sS'Sub'
p5063
S'0'
sS'Lost'
p5064
S'3'
sS'Drop'
p5065
S'0'
sS'Start'
p5066
S'16'
p5067
sS'Won'
p5068
S'11'
p5069
sS'GfM'
p5070
S'0'
sS'Draw'
p5071
S'2'
sS'Mat'
p5072
S'16'
p5073
sS'Conv'
p5074
S'0'
sS'Tries'
p5075
S'5'
sS'Pts'
p5076
S'15'
p5077
sa(dp5078
S'Pens'
p5079
S'0'
sS'Sub'
p5080
S'0'
sS'Lost'
p5081
S'1'
sS'Drop'
p5082
S'0'
sS'Start'
p5083
S'12'
p5084
sS'Won'
p5085
S'9'
sS'GfM'
p5086
S'0'
sS'Draw'
p5087
S'2'
sS'Mat'
p5088
S'12'
p5089
sS'Conv'
p5090
S'0'
sS'Tries'
p5091
S'0'
sS'Pts'
p5092
S'0'
sa(dp5093
S'Pens'
p5094
S'19'
p5095
sS'Sub'
p5096
S'0'
sS'Lost'
p5097
S'4'
sS'Drop'
p5098
S'5'
sS'Start'
p5099
S'25'
p5100
sS'Won'
p5101
S'18'
p5102
sS'GfM'
p5103
S'0'
sS'Draw'
p5104
S'3'
sS'Mat'
p5105
S'25'
p5106
sS'Conv'
p5107
S'20'
p5108
sS'Tries'
p5109
S'6'
sS'Pts'
p5110
S'130'
p5111
sa(dp5112
S'Pens'
p5113
S'0'
sS'Sub'
p5114
S'0'
sS'Lost'
p5115
S'4'
sS'Drop'
p5116
S'0'
sS'Start'
p5117
S'25'
p5118
sS'Won'
p5119
S'16'
p5120
sS'GfM'
p5121
S'0'
sS'Draw'
p5122
S'5'
sS'Mat'
p5123
S'25'
p5124
sS'Conv'
p5125
S'0'
sS'Tries'
p5126
S'6'
sS'Pts'
p5127
S'18'
p5128
sa(dp5129
S'Pens'
p5130
S'0'
sS'Sub'
p5131
S'0'
sS'Lost'
p5132
S'0'
sS'Drop'
p5133
S'1'
sS'Start'
p5134
S'4'
sS'Won'
p5135
S'3'
sS'GfM'
p5136
S'0'
sS'Draw'
p5137
S'1'
sS'Mat'
p5138
S'4'
sS'Conv'
p5139
S'0'
sS'Tries'
p5140
S'0'
sS'Pts'
p5141
S'3'
sa(dp5142
S'Pens'
p5143
S'0'
sS'Sub'
p5144
S'0'
sS'Lost'
p5145
S'0'
sS'Drop'
p5146
S'0'
sS'Start'
p5147
S'3'
sS'Won'
p5148
S'2'
sS'GfM'
p5149
S'0'
sS'Draw'
p5150
S'1'
sS'Mat'
p5151
S'3'
sS'Conv'
p5152
S'0'
sS'Tries'
p5153
S'1'
sS'Pts'
p5154
S'3'
sa(dp5155
S'Pens'
p5156
S'0'
sS'Sub'
p5157
S'0'
sS'Lost'
p5158
S'1'
sS'Drop'
p5159
S'0'
sS'Start'
p5160
S'3'
sS'Won'
p5161
S'2'
sS'GfM'
p5162
S'0'
sS'Draw'
p5163
S'0'
sS'Mat'
p5164
S'3'
sS'Conv'
p5165
S'0'
sS'Tries'
p5166
S'0'
sS'Pts'
p5167
S'0'
sa(dp5168
S'Pens'
p5169
S'0'
sS'Sub'
p5170
S'0'
sS'Lost'
p5171
S'5'
sS'Drop'
p5172
S'0'
sS'Start'
p5173
S'14'
p5174
sS'Won'
p5175
S'6'
sS'GfM'
p5176
S'0'
sS'Draw'
p5177
S'3'
sS'Mat'
p5178
S'14'
p5179
sS'Conv'
p5180
S'0'
sS'Tries'
p5181
S'4'
sS'Pts'
p5182
S'12'
p5183
sa(dp5184
S'Pens'
p5185
S'0'
sS'Sub'
p5186
S'0'
sS'Lost'
p5187
S'1'
sS'Drop'
p5188
S'0'
sS'Start'
p5189
S'3'
sS'Won'
p5190
S'0'
sS'GfM'
p5191
S'0'
sS'Draw'
p5192
S'2'
sS'Mat'
p5193
S'3'
sS'Conv'
p5194
S'0'
sS'Tries'
p5195
S'0'
sS'Pts'
p5196
S'0'
sa(dp5197
S'Pens'
p5198
S'0'
sS'Sub'
p5199
S'0'
sS'Lost'
p5200
S'4'
sS'Drop'
p5201
S'0'
sS'Start'
p5202
S'7'
sS'Won'
p5203
S'0'
sS'GfM'
p5204
S'0'
sS'Draw'
p5205
S'3'
sS'Mat'
p5206
S'7'
sS'Conv'
p5207
S'0'
sS'Tries'
p5208
S'0'
sS'Pts'
p5209
S'0'
sa(dp5210
S'Pens'
p5211
S'0'
sS'Sub'
p5212
S'1'
sS'Lost'
p5213
S'2'
sS'Drop'
p5214
S'0'
sS'Start'
p5215
S'2'
sS'Won'
p5216
S'0'
sS'GfM'
p5217
S'0'
sS'Draw'
p5218
S'1'
sS'Mat'
p5219
S'3'
sS'Conv'
p5220
S'0'
sS'Tries'
p5221
S'0'
sS'Pts'
p5222
S'0'
sa(dp5223
S'Pens'
p5224
S'0'
sS'Sub'
p5225
S'0'
sS'Lost'
p5226
S'3'
sS'Drop'
p5227
S'0'
sS'Start'
p5228
S'4'
sS'Won'
p5229
S'1'
sS'GfM'
p5230
S'0'
sS'Draw'
p5231
S'0'
sS'Mat'
p5232
S'4'
sS'Conv'
p5233
S'0'
sS'Tries'
p5234
S'0'
sS'Pts'
p5235
S'0'
sa(dp5236
S'Pens'
p5237
S'0'
sS'Sub'
p5238
S'0'
sS'Lost'
p5239
S'1'
sS'Drop'
p5240
S'0'
sS'Start'
p5241
S'3'
sS'Won'
p5242
S'0'
sS'GfM'
p5243
S'0'
sS'Draw'
p5244
S'2'
sS'Mat'
p5245
S'3'
sS'Conv'
p5246
S'0'
sS'Tries'
p5247
S'0'
sS'Pts'
p5248
S'0'
sa(dp5249
S'Pens'
p5250
S'0'
sS'Sub'
p5251
S'0'
sS'Lost'
p5252
S'0'
sS'Drop'
p5253
S'0'
sS'Start'
p5254
S'1'
sS'Won'
p5255
S'0'
sS'GfM'
p5256
S'0'
sS'Draw'
p5257
S'1'
sS'Mat'
p5258
S'1'
sS'Conv'
p5259
S'0'
sS'Tries'
p5260
S'0'
sS'Pts'
p5261
S'0'
sa(dp5262
S'Pens'
p5263
S'0'
sS'Sub'
p5264
S'0'
sS'Lost'
p5265
S'2'
sS'Drop'
p5266
S'0'
sS'Start'
p5267
S'10'
p5268
sS'Won'
p5269
S'7'
sS'GfM'
p5270
S'0'
sS'Draw'
p5271
S'1'
sS'Mat'
p5272
S'10'
p5273
sS'Conv'
p5274
S'0'
sS'Tries'
p5275
S'1'
sS'Pts'
p5276
S'3'
sa(dp5277
S'Pens'
p5278
S'14'
p5279
sS'Sub'
p5280
S'0'
sS'Lost'
p5281
S'3'
sS'Drop'
p5282
S'0'
sS'Start'
p5283
S'11'
p5284
sS'Won'
p5285
S'7'
sS'GfM'
p5286
S'0'
sS'Draw'
p5287
S'1'
sS'Mat'
p5288
S'11'
p5289
sS'Conv'
p5290
S'10'
p5291
sS'Tries'
p5292
S'0'
sS'Pts'
p5293
S'62'
p5294
sa(dp5295
S'Pens'
p5296
S'0'
sS'Sub'
p5297
S'0'
sS'Lost'
p5298
S'1'
sS'Drop'
p5299
S'0'
sS'Start'
p5300
S'4'
sS'Won'
p5301
S'3'
sS'GfM'
p5302
S'0'
sS'Draw'
p5303
S'0'
sS'Mat'
p5304
S'4'
sS'Conv'
p5305
S'0'
sS'Tries'
p5306
S'0'
sS'Pts'
p5307
S'0'
sa(dp5308
S'Pens'
p5309
S'0'
sS'Sub'
p5310
S'0'
sS'Lost'
p5311
S'4'
sS'Drop'
p5312
S'0'
sS'Start'
p5313
S'15'
p5314
sS'Won'
p5315
S'9'
sS'GfM'
p5316
S'0'
sS'Draw'
p5317
S'2'
sS'Mat'
p5318
S'15'
p5319
sS'Conv'
p5320
S'0'
sS'Tries'
p5321
S'0'
sS'Pts'
p5322
S'0'
sa(dp5323
S'Pens'
p5324
S'0'
sS'Sub'
p5325
S'1'
sS'Lost'
p5326
S'1'
sS'Drop'
p5327
S'0'
sS'Start'
p5328
S'0'
sS'Won'
p5329
S'0'
sS'GfM'
p5330
S'0'
sS'Draw'
p5331
S'0'
sS'Mat'
p5332
S'1'
sS'Conv'
p5333
S'0'
sS'Tries'
p5334
S'0'
sS'Pts'
p5335
S'0'
sa(dp5336
S'Pens'
p5337
S'0'
sS'Sub'
p5338
S'0'
sS'Lost'
p5339
S'1'
sS'Drop'
p5340
S'0'
sS'Start'
p5341
S'7'
sS'Won'
p5342
S'4'
sS'GfM'
p5343
S'0'
sS'Draw'
p5344
S'2'
sS'Mat'
p5345
S'7'
sS'Conv'
p5346
S'0'
sS'Tries'
p5347
S'3'
sS'Pts'
p5348
S'10'
p5349
sa(dp5350
S'Pens'
p5351
S'0'
sS'Sub'
p5352
S'0'
sS'Lost'
p5353
S'2'
sS'Drop'
p5354
S'0'
sS'Start'
p5355
S'5'
sS'Won'
p5356
S'2'
sS'GfM'
p5357
S'0'
sS'Draw'
p5358
S'1'
sS'Mat'
p5359
S'5'
sS'Conv'
p5360
S'0'
sS'Tries'
p5361
S'0'
sS'Pts'
p5362
S'0'
sa(dp5363
S'Pens'
p5364
S'0'
sS'Sub'
p5365
S'0'
sS'Lost'
p5366
S'1'
sS'Drop'
p5367
S'0'
sS'Start'
p5368
S'6'
sS'Won'
p5369
S'4'
sS'GfM'
p5370
S'0'
sS'Draw'
p5371
S'1'
sS'Mat'
p5372
S'6'
sS'Conv'
p5373
S'0'
sS'Tries'
p5374
S'2'
sS'Pts'
p5375
S'6'
sa(dp5376
S'Pens'
p5377
S'0'
sS'Sub'
p5378
S'0'
sS'Lost'
p5379
S'4'
sS'Drop'
p5380
S'0'
sS'Start'
p5381
S'13'
p5382
sS'Won'
p5383
S'7'
sS'GfM'
p5384
S'0'
sS'Draw'
p5385
S'2'
sS'Mat'
p5386
S'13'
p5387
sS'Conv'
p5388
S'0'
sS'Tries'
p5389
S'0'
sS'Pts'
p5390
S'0'
sa(dp5391
S'Pens'
p5392
S'0'
sS'Sub'
p5393
S'0'
sS'Lost'
p5394
S'4'
sS'Drop'
p5395
S'0'
sS'Start'
p5396
S'22'
p5397
sS'Won'
p5398
S'18'
p5399
sS'GfM'
p5400
S'0'
sS'Draw'
p5401
S'0'
sS'Mat'
p5402
S'22'
p5403
sS'Conv'
p5404
S'0'
sS'Tries'
p5405
S'3'
sS'Pts'
p5406
S'12'
p5407
sa(dp5408
S'Pens'
p5409
S'0'
sS'Sub'
p5410
S'0'
sS'Lost'
p5411
S'0'
sS'Drop'
p5412
S'0'
sS'Start'
p5413
S'3'
sS'Won'
p5414
S'3'
sS'GfM'
p5415
S'0'
sS'Draw'
p5416
S'0'
sS'Mat'
p5417
S'3'
sS'Conv'
p5418
S'0'
sS'Tries'
p5419
S'2'
sS'Pts'
p5420
S'6'
sa(dp5421
S'Pens'
p5422
S'0'
sS'Sub'
p5423
S'0'
sS'Lost'
p5424
S'0'
sS'Drop'
p5425
S'0'
sS'Start'
p5426
S'2'
sS'Won'
p5427
S'2'
sS'GfM'
p5428
S'0'
sS'Draw'
p5429
S'0'
sS'Mat'
p5430
S'2'
sS'Conv'
p5431
S'0'
sS'Tries'
p5432
S'0'
sS'Pts'
p5433
S'0'
sa(dp5434
S'Pens'
p5435
S'0'
sS'Sub'
p5436
S'0'
sS'Lost'
p5437
S'3'
sS'Drop'
p5438
S'0'
sS'Start'
p5439
S'9'
sS'Won'
p5440
S'5'
sS'GfM'
p5441
S'0'
sS'Draw'
p5442
S'1'
sS'Mat'
p5443
S'9'
sS'Conv'
p5444
S'0'
sS'Tries'
p5445
S'0'
sS'Pts'
p5446
S'0'
sa(dp5447
S'Pens'
p5448
S'0'
sS'Sub'
p5449
S'0'
sS'Lost'
p5450
S'1'
sS'Drop'
p5451
S'0'
sS'Start'
p5452
S'1'
sS'Won'
p5453
S'0'
sS'GfM'
p5454
S'0'
sS'Draw'
p5455
S'0'
sS'Mat'
p5456
S'1'
sS'Conv'
p5457
S'0'
sS'Tries'
p5458
S'0'
sS'Pts'
p5459
S'0'
sa(dp5460
S'Pens'
p5461
S'0'
sS'Sub'
p5462
S'0'
sS'Lost'
p5463
S'1'
sS'Drop'
p5464
S'0'
sS'Start'
p5465
S'1'
sS'Won'
p5466
S'0'
sS'GfM'
p5467
S'0'
sS'Draw'
p5468
S'0'
sS'Mat'
p5469
S'1'
sS'Conv'
p5470
S'0'
sS'Tries'
p5471
S'0'
sS'Pts'
p5472
S'0'
sa(dp5473
S'Pens'
p5474
S'4'
sS'Sub'
p5475
S'1'
sS'Lost'
p5476
S'4'
sS'Drop'
p5477
S'2'
sS'Start'
p5478
S'9'
sS'Won'
p5479
S'6'
sS'GfM'
p5480
S'0'
sS'Draw'
p5481
S'0'
sS'Mat'
p5482
S'10'
p5483
sS'Conv'
p5484
S'1'
sS'Tries'
p5485
S'1'
sS'Pts'
p5486
S'24'
p5487
sa(dp5488
S'Pens'
p5489
S'0'
sS'Sub'
p5490
S'1'
sS'Lost'
p5491
S'2'
sS'Drop'
p5492
S'0'
sS'Start'
p5493
S'5'
sS'Won'
p5494
S'4'
sS'GfM'
p5495
S'0'
sS'Draw'
p5496
S'0'
sS'Mat'
p5497
S'6'
sS'Conv'
p5498
S'0'
sS'Tries'
p5499
S'0'
sS'Pts'
p5500
S'0'
sa(dp5501
S'Pens'
p5502
S'0'
sS'Sub'
p5503
S'2'
sS'Lost'
p5504
S'4'
sS'Drop'
p5505
S'0'
sS'Start'
p5506
S'11'
p5507
sS'Won'
p5508
S'9'
sS'GfM'
p5509
S'0'
sS'Draw'
p5510
S'0'
sS'Mat'
p5511
S'13'
p5512
sS'Conv'
p5513
S'0'
sS'Tries'
p5514
S'0'
sS'Pts'
p5515
S'0'
sa(dp5516
S'Pens'
p5517
S'0'
sS'Sub'
p5518
S'0'
sS'Lost'
p5519
S'1'
sS'Drop'
p5520
S'0'
sS'Start'
p5521
S'1'
sS'Won'
p5522
S'0'
sS'GfM'
p5523
S'0'
sS'Draw'
p5524
S'0'
sS'Mat'
p5525
S'1'
sS'Conv'
p5526
S'0'
sS'Tries'
p5527
S'0'
sS'Pts'
p5528
S'0'
sa(dp5529
S'Pens'
p5530
S'0'
sS'Sub'
p5531
S'0'
sS'Lost'
p5532
S'2'
sS'Drop'
p5533
S'0'
sS'Start'
p5534
S'9'
sS'Won'
p5535
S'7'
sS'GfM'
p5536
S'0'
sS'Draw'
p5537
S'0'
sS'Mat'
p5538
S'9'
sS'Conv'
p5539
S'0'
sS'Tries'
p5540
S'2'
sS'Pts'
p5541
S'8'
sa(dp5542
S'Pens'
p5543
S'0'
sS'Sub'
p5544
S'0'
sS'Lost'
p5545
S'4'
sS'Drop'
p5546
S'0'
sS'Start'
p5547
S'9'
sS'Won'
p5548
S'4'
sS'GfM'
p5549
S'0'
sS'Draw'
p5550
S'1'
sS'Mat'
p5551
S'9'
sS'Conv'
p5552
S'0'
sS'Tries'
p5553
S'1'
sS'Pts'
p5554
S'4'
sa(dp5555
S'Pens'
p5556
S'0'
sS'Sub'
p5557
S'0'
sS'Lost'
p5558
S'2'
sS'Drop'
p5559
S'0'
sS'Start'
p5560
S'8'
sS'Won'
p5561
S'6'
sS'GfM'
p5562
S'0'
sS'Draw'
p5563
S'0'
sS'Mat'
p5564
S'8'
sS'Conv'
p5565
S'0'
sS'Tries'
p5566
S'1'
sS'Pts'
p5567
S'4'
sa(dp5568
S'Pens'
p5569
S'0'
sS'Sub'
p5570
S'0'
sS'Lost'
p5571
S'2'
sS'Drop'
p5572
S'0'
sS'Start'
p5573
S'10'
p5574
sS'Won'
p5575
S'7'
sS'GfM'
p5576
S'0'
sS'Draw'
p5577
S'1'
sS'Mat'
p5578
S'10'
p5579
sS'Conv'
p5580
S'0'
sS'Tries'
p5581
S'0'
sS'Pts'
p5582
S'0'
sa(dp5583
S'Pens'
p5584
S'23'
p5585
sS'Sub'
p5586
S'0'
sS'Lost'
p5587
S'2'
sS'Drop'
p5588
S'2'
sS'Start'
p5589
S'9'
sS'Won'
p5590
S'7'
sS'GfM'
p5591
S'0'
sS'Draw'
p5592
S'0'
sS'Mat'
p5593
S'9'
sS'Conv'
p5594
S'7'
sS'Tries'
p5595
S'0'
sS'Pts'
p5596
S'89'
p5597
sa(dp5598
S'Pens'
p5599
S'0'
sS'Sub'
p5600
S'0'
sS'Lost'
p5601
S'1'
sS'Drop'
p5602
S'0'
sS'Start'
p5603
S'3'
sS'Won'
p5604
S'2'
sS'GfM'
p5605
S'0'
sS'Draw'
p5606
S'0'
sS'Mat'
p5607
S'3'
sS'Conv'
p5608
S'0'
sS'Tries'
p5609
S'0'
sS'Pts'
p5610
S'0'
sa(dp5611
S'Pens'
p5612
S'0'
sS'Sub'
p5613
S'0'
sS'Lost'
p5614
S'4'
sS'Drop'
p5615
S'0'
sS'Start'
p5616
S'20'
p5617
sS'Won'
p5618
S'16'
p5619
sS'GfM'
p5620
S'0'
sS'Draw'
p5621
S'0'
sS'Mat'
p5622
S'20'
p5623
sS'Conv'
p5624
S'0'
sS'Tries'
p5625
S'12'
p5626
sS'Pts'
p5627
S'48'
p5628
sa(dp5629
S'Pens'
p5630
S'0'
sS'Sub'
p5631
S'0'
sS'Lost'
p5632
S'1'
sS'Drop'
p5633
S'0'
sS'Start'
p5634
S'1'
sS'Won'
p5635
S'0'
sS'GfM'
p5636
S'0'
sS'Draw'
p5637
S'0'
sS'Mat'
p5638
S'1'
sS'Conv'
p5639
S'0'
sS'Tries'
p5640
S'0'
sS'Pts'
p5641
S'0'
sa(dp5642
S'Pens'
p5643
S'6'
sS'Sub'
p5644
S'0'
sS'Lost'
p5645
S'2'
sS'Drop'
p5646
S'0'
sS'Start'
p5647
S'3'
sS'Won'
p5648
S'0'
sS'GfM'
p5649
S'0'
sS'Draw'
p5650
S'1'
sS'Mat'
p5651
S'3'
sS'Conv'
p5652
S'0'
sS'Tries'
p5653
S'0'
sS'Pts'
p5654
S'18'
p5655
sa(dp5656
S'Pens'
p5657
S'0'
sS'Sub'
p5658
S'1'
sS'Lost'
p5659
S'1'
sS'Drop'
p5660
S'0'
sS'Start'
p5661
S'0'
sS'Won'
p5662
S'0'
sS'GfM'
p5663
S'0'
sS'Draw'
p5664
S'0'
sS'Mat'
p5665
S'1'
sS'Conv'
p5666
S'0'
sS'Tries'
p5667
S'0'
sS'Pts'
p5668
S'0'
sa(dp5669
S'Pens'
p5670
S'0'
sS'Sub'
p5671
S'0'
sS'Lost'
p5672
S'1'
sS'Drop'
p5673
S'0'
sS'Start'
p5674
S'1'
sS'Won'
p5675
S'0'
sS'GfM'
p5676
S'0'
sS'Draw'
p5677
S'0'
sS'Mat'
p5678
S'1'
sS'Conv'
p5679
S'0'
sS'Tries'
p5680
S'0'
sS'Pts'
p5681
S'0'
sa(dp5682
S'Pens'
p5683
S'0'
sS'Sub'
p5684
S'0'
sS'Lost'
p5685
S'1'
sS'Drop'
p5686
S'0'
sS'Start'
p5687
S'1'
sS'Won'
p5688
S'0'
sS'GfM'
p5689
S'0'
sS'Draw'
p5690
S'0'
sS'Mat'
p5691
S'1'
sS'Conv'
p5692
S'0'
sS'Tries'
p5693
S'0'
sS'Pts'
p5694
S'0'
sa(dp5695
S'Pens'
p5696
S'0'
sS'Sub'
p5697
S'0'
sS'Lost'
p5698
S'1'
sS'Drop'
p5699
S'0'
sS'Start'
p5700
S'7'
sS'Won'
p5701
S'5'
sS'GfM'
p5702
S'0'
sS'Draw'
p5703
S'1'
sS'Mat'
p5704
S'7'
sS'Conv'
p5705
S'0'
sS'Tries'
p5706
S'1'
sS'Pts'
p5707
S'4'
sa(dp5708
S'Pens'
p5709
S'0'
sS'Sub'
p5710
S'0'
sS'Lost'
p5711
S'1'
sS'Drop'
p5712
S'0'
sS'Start'
p5713
S'3'
sS'Won'
p5714
S'1'
sS'GfM'
p5715
S'0'
sS'Draw'
p5716
S'1'
sS'Mat'
p5717
S'3'
sS'Conv'
p5718
S'0'
sS'Tries'
p5719
S'0'
sS'Pts'
p5720
S'0'
sa(dp5721
S'Pens'
p5722
S'0'
sS'Sub'
p5723
S'0'
sS'Lost'
p5724
S'1'
sS'Drop'
p5725
S'0'
sS'Start'
p5726
S'3'
sS'Won'
p5727
S'2'
sS'GfM'
p5728
S'0'
sS'Draw'
p5729
S'0'
sS'Mat'
p5730
S'3'
sS'Conv'
p5731
S'0'
sS'Tries'
p5732
S'1'
sS'Pts'
p5733
S'4'
sa(dp5734
S'Pens'
p5735
S'0'
sS'Sub'
p5736
S'0'
sS'Lost'
p5737
S'3'
sS'Drop'
p5738
S'0'
sS'Start'
p5739
S'17'
p5740
sS'Won'
p5741
S'13'
p5742
sS'GfM'
p5743
S'0'
sS'Draw'
p5744
S'1'
sS'Mat'
p5745
S'17'
p5746
sS'Conv'
p5747
S'0'
sS'Tries'
p5748
S'1'
sS'Pts'
p5749
S'4'
sa(dp5750
S'Pens'
p5751
S'0'
sS'Sub'
p5752
S'0'
sS'Lost'
p5753
S'0'
sS'Drop'
p5754
S'0'
sS'Start'
p5755
S'3'
sS'Won'
p5756
S'2'
sS'GfM'
p5757
S'0'
sS'Draw'
p5758
S'1'
sS'Mat'
p5759
S'3'
sS'Conv'
p5760
S'0'
sS'Tries'
p5761
S'1'
sS'Pts'
p5762
S'4'
sa(dp5763
S'Pens'
p5764
S'0'
sS'Sub'
p5765
S'1'
sS'Lost'
p5766
S'1'
sS'Drop'
p5767
S'0'
sS'Start'
p5768
S'4'
sS'Won'
p5769
S'3'
sS'GfM'
p5770
S'0'
sS'Draw'
p5771
S'1'
sS'Mat'
p5772
S'5'
sS'Conv'
p5773
S'0'
sS'Tries'
p5774
S'0'
sS'Pts'
p5775
S'0'
sa(dp5776
S'Pens'
p5777
S'0'
sS'Sub'
p5778
S'1'
sS'Lost'
p5779
S'3'
sS'Drop'
p5780
S'0'
sS'Start'
p5781
S'10'
p5782
sS'Won'
p5783
S'8'
sS'GfM'
p5784
S'0'
sS'Draw'
p5785
S'0'
sS'Mat'
p5786
S'11'
p5787
sS'Conv'
p5788
S'0'
sS'Tries'
p5789
S'1'
sS'Pts'
p5790
S'4'
sa(dp5791
S'Pens'
p5792
S'2'
sS'Sub'
p5793
S'0'
sS'Lost'
p5794
S'0'
sS'Drop'
p5795
S'0'
sS'Start'
p5796
S'4'
sS'Won'
p5797
S'4'
sS'GfM'
p5798
S'0'
sS'Draw'
p5799
S'0'
sS'Mat'
p5800
S'4'
sS'Conv'
p5801
S'0'
sS'Tries'
p5802
S'1'
sS'Pts'
p5803
S'10'
p5804
sa(dp5805
S'Pens'
p5806
S'0'
sS'Sub'
p5807
S'0'
sS'Lost'
p5808
S'1'
sS'Drop'
p5809
S'1'
sS'Start'
p5810
S'5'
sS'Won'
p5811
S'4'
sS'GfM'
p5812
S'0'
sS'Draw'
p5813
S'0'
sS'Mat'
p5814
S'5'
sS'Conv'
p5815
S'0'
sS'Tries'
p5816
S'0'
sS'Pts'
p5817
S'3'
sa(dp5818
S'Pens'
p5819
S'0'
sS'Sub'
p5820
S'0'
sS'Lost'
p5821
S'0'
sS'Drop'
p5822
S'0'
sS'Start'
p5823
S'2'
sS'Won'
p5824
S'2'
sS'GfM'
p5825
S'0'
sS'Draw'
p5826
S'0'
sS'Mat'
p5827
S'2'
sS'Conv'
p5828
S'0'
sS'Tries'
p5829
S'2'
sS'Pts'
p5830
S'8'
sa(dp5831
S'Pens'
p5832
S'0'
sS'Sub'
p5833
S'1'
sS'Lost'
p5834
S'0'
sS'Drop'
p5835
S'0'
sS'Start'
p5836
S'0'
sS'Won'
p5837
S'1'
sS'GfM'
p5838
S'0'
sS'Draw'
p5839
S'0'
sS'Mat'
p5840
S'1'
sS'Conv'
p5841
S'0'
sS'Tries'
p5842
S'0'
sS'Pts'
p5843
S'0'
sa(dp5844
S'Pens'
p5845
S'0'
sS'Sub'
p5846
S'0'
sS'Lost'
p5847
S'1'
sS'Drop'
p5848
S'0'
sS'Start'
p5849
S'4'
sS'Won'
p5850
S'3'
sS'GfM'
p5851
S'0'
sS'Draw'
p5852
S'0'
sS'Mat'
p5853
S'4'
sS'Conv'
p5854
S'0'
sS'Tries'
p5855
S'0'
sS'Pts'
p5856
S'0'
sa(dp5857
S'Pens'
p5858
S'0'
sS'Sub'
p5859
S'0'
sS'Lost'
p5860
S'0'
sS'Drop'
p5861
S'0'
sS'Start'
p5862
S'2'
sS'Won'
p5863
S'2'
sS'GfM'
p5864
S'0'
sS'Draw'
p5865
S'0'
sS'Mat'
p5866
S'2'
sS'Conv'
p5867
S'0'
sS'Tries'
p5868
S'1'
sS'Pts'
p5869
S'4'
sa(dp5870
S'Pens'
p5871
S'0'
sS'Sub'
p5872
S'2'
sS'Lost'
p5873
S'0'
sS'Drop'
p5874
S'0'
sS'Start'
p5875
S'0'
sS'Won'
p5876
S'2'
sS'GfM'
p5877
S'0'
sS'Draw'
p5878
S'0'
sS'Mat'
p5879
S'2'
sS'Conv'
p5880
S'0'
sS'Tries'
p5881
S'0'
sS'Pts'
p5882
S'0'
sa(dp5883
S'Pens'
p5884
S'0'
sS'Sub'
p5885
S'0'
sS'Lost'
p5886
S'4'
sS'Drop'
p5887
S'0'
sS'Start'
p5888
S'21'
p5889
sS'Won'
p5890
S'17'
p5891
sS'GfM'
p5892
S'0'
sS'Draw'
p5893
S'0'
sS'Mat'
p5894
S'21'
p5895
sS'Conv'
p5896
S'0'
sS'Tries'
p5897
S'6'
sS'Pts'
p5898
S'24'
p5899
sa(dp5900
S'Pens'
p5901
S'0'
sS'Sub'
p5902
S'0'
sS'Lost'
p5903
S'0'
sS'Drop'
p5904
S'0'
sS'Start'
p5905
S'3'
sS'Won'
p5906
S'3'
sS'GfM'
p5907
S'0'
sS'Draw'
p5908
S'0'
sS'Mat'
p5909
S'3'
sS'Conv'
p5910
S'0'
sS'Tries'
p5911
S'0'
sS'Pts'
p5912
S'0'
sa(dp5913
S'Pens'
p5914
S'5'
sS'Sub'
p5915
S'0'
sS'Lost'
p5916
S'0'
sS'Drop'
p5917
S'0'
sS'Start'
p5918
S'1'
sS'Won'
p5919
S'1'
sS'GfM'
p5920
S'0'
sS'Draw'
p5921
S'0'
sS'Mat'
p5922
S'1'
sS'Conv'
p5923
S'3'
sS'Tries'
p5924
S'0'
sS'Pts'
p5925
S'21'
p5926
sa(dp5927
S'Pens'
p5928
S'0'
sS'Sub'
p5929
S'0'
sS'Lost'
p5930
S'0'
sS'Drop'
p5931
S'0'
sS'Start'
p5932
S'2'
sS'Won'
p5933
S'2'
sS'GfM'
p5934
S'0'
sS'Draw'
p5935
S'0'
sS'Mat'
p5936
S'2'
sS'Conv'
p5937
S'0'
sS'Tries'
p5938
S'0'
sS'Pts'
p5939
S'0'
sa.