(lp1
Vdate unknown
p2
aVdate unknown
p3
aVdate unknown
p4
aVdate unknown
p5
aVdate unknown
p6
aVdate unknown
p7
aVdate unknown
p8
aVdate unknown
p9
aVdate unknown
p10
aVdate unknown
p11
aVdate unknown
p12
aVdate unknown
p13
aVdate unknown
p14
aVdate unknown
p15
aVdate unknown
p16
aVdate unknown
p17
aVdate unknown
p18
aVdate unknown
p19
aVdate unknown
p20
aVdate unknown
p21
aVdate unknown
p22
aVdate unknown
p23
aVdate unknown
p24
aVdate unknown
p25
aVdate unknown
p26
aVdate unknown
p27
aVdate unknown
p28
aVdate unknown
p29
aVdate unknown
p30
aVdate unknown
p31
aVdate unknown
p32
aVdate unknown
p33
aVdate unknown
p34
aVdate unknown
p35
aVdate unknown
p36
aVdate unknown
p37
aVdate unknown
p38
aVdate unknown
p39
aVdate unknown
p40
aVdate unknown
p41
aVdate unknown
p42
aVdate unknown
p43
aVdate unknown
p44
aVdate unknown
p45
aVdate unknown
p46
aVdate unknown
p47
aVdate unknown
p48
aVdate unknown
p49
aVdate unknown
p50
aVdate unknown
p51
aVdate unknown
p52
aVdate unknown
p53
aVdate unknown
p54
aVdate unknown
p55
aVdate unknown
p56
aVdate unknown
p57
aVdate unknown
p58
aVdate unknown
p59
aVdate unknown
p60
aVdate unknown
p61
aVdate unknown
p62
aVdate unknown
p63
aVdate unknown
p64
aVdate unknown
p65
aVdate unknown
p66
aVdate unknown
p67
aVdate unknown
p68
aVdate unknown
p69
aVdate unknown
p70
aVAugust 20, 1931, Akita
p71
aVdate unknown
p72
aVdate unknown
p73
aVdate unknown
p74
aVdate unknown
p75
aVdate unknown
p76
aVdate unknown
p77
aVdate unknown
p78
aVdate unknown
p79
aVdate unknown
p80
aVdate unknown
p81
aVdate unknown
p82
aVdate unknown
p83
aVdate unknown
p84
aVdate unknown
p85
aVdate unknown
p86
aVdate unknown
p87
aVdate unknown
p88
aVdate unknown
p89
aVdate unknown
p90
aVdate unknown
p91
aVdate unknown
p92
aVdate unknown
p93
aVdate unknown
p94
aVdate unknown
p95
aVdate unknown
p96
aVJanuary 7, 1933, Akita
p97
aVdate unknown
p98
aVdate unknown
p99
aVdate unknown
p100
aVdate unknown
p101
aVdate unknown
p102
aVdate unknown
p103
aVdate unknown
p104
aVdate unknown
p105
aVdate unknown
p106
aVdate unknown
p107
aVdate unknown
p108
aVdate unknown
p109
aVdate unknown
p110
aVdate unknown
p111
aVdate unknown
p112
aVdate unknown
p113
aVdate unknown
p114
aVdate unknown
p115
aVApril 20, 1937, Akita
p116
aVdate unknown
p117
aVdate unknown
p118
aVdate unknown
p119
aVdate unknown
p120
aVdate unknown
p121
aVdate unknown
p122
aVdate unknown
p123
aVdate unknown
p124
aVdate unknown
p125
aVdate unknown
p126
aVdate unknown
p127
aVdate unknown
p128
aVdate unknown
p129
aVdate unknown
p130
aVdate unknown
p131
aVdate unknown
p132
aVdate unknown
p133
aVdate unknown
p134
aVdate unknown
p135
aVdate unknown
p136
aVdate unknown
p137
aVdate unknown
p138
aVdate unknown
p139
aVdate unknown
p140
aVdate unknown
p141
aVdate unknown
p142
aVdate unknown
p143
aVdate unknown
p144
aVdate unknown
p145
aVdate unknown
p146
aVdate unknown
p147
aVdate unknown
p148
aVdate unknown
p149
aVdate unknown
p150
aVdate unknown
p151
aVdate unknown
p152
aVdate unknown
p153
aVdate unknown
p154
aVdate unknown
p155
aVdate unknown
p156
aVdate unknown
p157
aVdate unknown
p158
aVdate unknown
p159
aVdate unknown
p160
aVdate unknown
p161
aVdate unknown
p162
aVdate unknown
p163
aVdate unknown
p164
aVdate unknown
p165
aVdate unknown
p166
aVdate unknown
p167
aVdate unknown
p168
aVdate unknown
p169
aVdate unknown
p170
aVdate unknown
p171
aVdate unknown
p172
aVdate unknown
p173
aVdate unknown
p174
aVdate unknown
p175
aVdate unknown
p176
aVdate unknown
p177
aVdate unknown
p178
aVdate unknown
p179
aVdate unknown
p180
aVdate unknown
p181
aVdate unknown
p182
aVdate unknown
p183
aVdate unknown
p184
aVdate unknown
p185
aVdate unknown
p186
aVdate unknown
p187
aVdate unknown
p188
aVdate unknown
p189
aVdate unknown
p190
aVdate unknown
p191
aVdate unknown
p192
aVdate unknown
p193
aVdate unknown
p194
aVdate unknown
p195
aVdate unknown
p196
aVdate unknown
p197
aVdate unknown
p198
aVJanuary 20, 1954
p199
aVdate unknown
p200
aVdate unknown
p201
aVdate unknown
p202
aVdate unknown
p203
aVdate unknown
p204
aVdate unknown
p205
aVdate unknown
p206
aVdate unknown
p207
aVdate unknown
p208
aVdate unknown
p209
aVdate unknown
p210
aVdate unknown
p211
aVdate unknown
p212
aVdate unknown
p213
aVdate unknown
p214
aVdate unknown
p215
aVdate unknown
p216
aVdate unknown
p217
aVdate unknown
p218
aVdate unknown
p219
aVdate unknown
p220
aVdate unknown
p221
aVdate unknown
p222
aVdate unknown
p223
aVdate unknown
p224
aVdate unknown
p225
aVdate unknown
p226
aVdate unknown
p227
aVdate unknown
p228
aVdate unknown
p229
aVdate unknown
p230
aVdate unknown
p231
aVNovember 3, 1953
p232
aVdate unknown
p233
aVdate unknown
p234
aVdate unknown
p235
aVdate unknown
p236
aVDecember 22, 1958
p237
aVdate unknown
p238
aVdate unknown
p239
aVJanuary 27, 1961
p240
aVdate unknown
p241
aVdate unknown
p242
aVdate unknown
p243
aVFebruary 8, 1960, Tokushima
p244
aVdate unknown
p245
aVdate unknown
p246
aVdate unknown
p247
aVdate unknown
p248
aVdate unknown
p249
aVdate unknown
p250
aVdate unknown
p251
aVdate unknown
p252
aVdate unknown
p253
aVdate unknown
p254
aVJanuary 21, 1963, Kyoto
p255
aVJune 15, 1959
p256
aVdate unknown
p257
aVdate unknown
p258
aVdate unknown
p259
aVdate unknown
p260
aVAugust 15, 1961
p261
aVdate unknown
p262
aVdate unknown
p263
aVJune 25, 1963
p264
aVdate unknown
p265
aVMarch 16, 1962
p266
aVdate unknown
p267
aVMay 12, 1958
p268
aVSeptember 5, 1960
p269
aVOctober 2, 1961
p270
aVAugust 24, 1962
p271
aVdate unknown
p272
aVDecember 25, 1962
p273
aVdate unknown
p274
aVJune 21, 1956
p275
aVdate unknown
p276
aVdate unknown
p277
aVJanuary 6, 1964, Miyazaki
p278
aVMarch 23, 1965, Akitai
p279
aVNovember 1957
p280
aVJuly 13, 1957
p281
aVdate unknown
p282
aVNovember 16, 1964
p283
aVSeptember 22, 1966, Akita
p284
aVMarch 19, 1966
p285
aVdate unknown
p286
aVJune 8, 1961
p287
aVNovember 20, 1962
p288
aVAugust 22, 1965, Ha'apai
p289
aVFebruary 10, 1959
p290
aVFebruary 7, 1965
p291
aVJune 24, 1963
p292
aVdate unknown
p293
aVNovember 27, 1968, Tokyo
p294
aVdate unknown
p295
aVdate unknown
p296
aVdate unknown
p297
aVdate unknown
p298
aVFebruary 18, 1969, Akita
p299
aVdate unknown
p300
aVdate unknown
p301
aVSeptember 13, 1967, Tokyo
p302
aVJanuary 26, 1968
p303
aVSeptember 28, 1966, Yamanasi
p304
aVJuly 8, 1965
p305
aVSeptember 30, 1966, Kyoto
p306
aVMay 8, 1963, Western Samoa
p307
aVdate unknown
p308
aVJanuary 31, 1968, Tokyo
p309
aVApril 1, 1967
p310
aVdate unknown
p311
aVSeptember 29, 1966, Aichi
p312
aVdate unknown
p313
aVdate unknown
p314
aVNovember 7, 1966
p315
aVJanuary 25, 1968, Fukuoka
p316
aVAugust 27, 1971, Osaka
p317
aVSeptember 23, 1968
p318
aVJanuary 29, 1972, Tokyo
p319
aVMarch 9, 1966
p320
aVMarch 17, 1970
p321
aVFebruary 23, 1971
p322
aVApril 30, 1970, Saitama
p323
aVNovember 2, 1971
p324
aVdate unknown
p325
aVdate unknown
p326
aVdate unknown
p327
aVJuly 25, 1969, Suva
p328
aVdate unknown
p329
aVdate unknown
p330
aVSeptember 23, 1963, Sydney, NSW
p331
aVSeptember 8, 1973, Osaka
p332
aVMay 1, 1972, Kumamoto
p333
aVdate unknown
p334
aVApril 16, 1973, Osaka
p335
aVdate unknown
p336
aVDecember 21, 1968, Osaka
p337
aVNovember 24, 1967, Yamaguchi
p338
aVJune 16, 1970, Kanagawa
p339
aVAugust 13, 1971, Kyoto
p340
aVAugust 21, 1970, Edinburgh
p341
aVApril 11, 1971, Tokyo
p342
aVFebruary 5, 1967, Christchurch
p343
aVJuly 16, 1971, Osaka
p344
aVdate unknown
p345
aVJune 2, 1974, Tokyo
p346
aVDecember 29, 1968
p347
aVdate unknown
p348
aVMay 31, 1971
p349
aVNovember 25, 1972, Kyoto
p350
aVApril 2, 1974, Nara
p351
aVNovember 11, 1975, Osaka
p352
aVMarch 22, 1971, Aichi
p353
aVMay 24, 1973, Kanagawa
p354
aVdate unknown
p355
aVAugust 7, 1965, Te Awamutu
p356
aVDecember 30, 1975, Tokyo
p357
aVdate unknown
p358
aVJuly 29, 1969, Lautoka
p359
aVNovember 10, 1972
p360
aVMarch 2, 1973, Akita
p361
aVOctober 6, 1968, Saitama
p362
aVJune 9, 1973, Yamanasi
p363
aVMarch 31, 1972, Kyoto
p364
aVFebruary 26, 1967
p365
aVJanuary 18, 1969
p366
aVJuly 16, 1968
p367
aVJuly 15, 1962
p368
aVApril 12, 1975, Akita
p369
aVJuly 5, 1971
p370
aVApril 30, 1975, Tochigi
p371
aVMay 3, 1975, Osaka
p372
aVdate unknown
p373
aVdate unknown
p374
aVJune 11, 1967, Christchurch
p375
aVNovember 21, 1969, Blenheim
p376
aVJune 7, 1976, Tokyo
p377
aVNovember 25, 1976, Saga
p378
aVSeptember 27, 1975, Osaka
p379
aVApril 7, 1978, Akita
p380
aVMarch 13, 1970, Fukuoka
p381
aVMarch 24, 1978, Shanghai
p382
aVAugust 25, 1975, Shiga
p383
aVJuly 8, 1976, Kanagawa
p384
aVAugust 15, 1976, Kanagawa
p385
aVJuly 5, 1973, Osaka
p386
aVFebruary 5, 1976, Gifu
p387
aVJanuary 21, 1972
p388
aVAugust 18, 1976, Osaka
p389
aVAugust 12, 1978, Ibaraki
p390
aVNovember 18, 1978, Osaka
p391
aVNovember 15, 1974, Miyazaki
p392
aVAugust 26, 1977, Kanagawa
p393
aVJune 12, 1977, Fukuoka
p394
aVMay 26, 1973, Osaka
p395
aVDecember 8, 1975, Akita
p396
aVApril 24, 1979, Tokyo
p397
aVOctober 20, 1972, Kyoto
p398
aVAugust 9, 1980, Oita
p399
aVJanuary 7, 1980, Fukuoka
p400
aVOctober 14, 1974, Yamanasi
p401
aVOctober 21, 1976, Nara
p402
aVMarch 10, 1974, Osaka
p403
aVFebruary 17, 1975, Osaka
p404
aVMarch 31, 1972
p405
aVJanuary 13, 1976, Saitama
p406
aVApril 17, 1977, Fukuoka
p407
aVMay 16, 1978
p408
aVOctober 17, 1976, Osaka
p409
aVJuly 24, 1975, Osaka
p410
aVJuly 14, 1975, Fukuoka
p411
aVDecember 8, 1977
p412
aVMay 29, 1978, Aichi
p413
aVSeptember 18, 1976, Akita
p414
aVNovember 7, 1978, Osaka
p415
aVJanuary 6, 1974, Kanagawa
p416
aVApril 28, 1977, Tokyo
p417
aVSeptember 20, 1979, Fukuoka
p418
aVMarch 29, 1978, Shizuoka
p419
aVJune 5, 1977
p420
aVAugust 9, 1981, Saga
p421
aVMarch 3, 1977, Gunma
p422
aVAugust 11, 1978, Saga
p423
aVSeptember 13, 1972, Te Puke
p424
aVDecember 11, 1975, Fukuoka
p425
aVApril 21, 1973, Christchurch
p426
aVDecember 9, 1969
p427
aVJuly 5, 1975, Hyogo
p428
aVMay 11, 1975, Nagasaki
p429
aVMarch 2, 1977, Iwate
p430
aVOctober 24, 1973, Ibaraki
p431
aVApril 13, 1979, Saitama
p432
aVNovember 26, 1974, Nagano
p433
aVMay 1, 1983, Osaka
p434
aVSeptember 12, 1977, Saitama
p435
aVAugust 9, 1969, Putaruru
p436
aVDecember 8, 1978, Kanagawa
p437
aVJuly 19, 1973, Opotiki
p438
aVSeptember 25, 1979, Chiba
p439
aVOctober 21, 1976, Fukuoka
p440
aVApril 24, 1977, Ibaraki
p441
aVNovember 17, 1975, Tokyo
p442
aVMay 31, 1978, Fukuoka
p443
aVSeptember 5, 1979, Osaka
p444
aVMay 20, 1975, Kumamoto
p445
aVOctober 3, 1979, Osaka
p446
aVNovember 17, 1975, Miyagi
p447
aVMay 6, 1978, Fukushima
p448
aVAugust 21, 1977
p449
aVFebruary 6, 1984, Osaka
p450
aVMay 12, 1981, Okayama
p451
aVNovember 11, 1980, Hokkaido
p452
aVJune 1, 1980, Kanagawa
p453
aVApril 24, 1976, Yamagata
p454
aVAugust 22, 1979, Hokkaido
p455
aVSeptember 15, 1978, Yamanasi
p456
aVSeptember 20, 1981, Gunma
p457
aVDecember 28, 1975, Hyogo
p458
aVNovember 9, 1977, Iwate
p459
aVSeptember 28, 1981, Kyoto
p460
aVFebruary 20, 1976, Fukuoka
p461
aVJanuary 31, 1982, Saga
p462
aVMay 13, 1986, Tatakamotonga
p463
aVMay 31, 1978, Thames
p464
aVSeptember 18, 1981, Kumamoto
p465
aVSeptember 9, 1974, Tokyo
p466
aVJune 6, 1974
p467
aVMarch 1, 1986, Fukuoka
p468
aVJanuary 7, 1983, Kanagawa
p469
aVOctober 16, 1975, Hyogo
p470
aVMarch 7, 1979, Kyoto
p471
aVAugust 23, 1982
p472
aVJuly 24, 1980
p473
aVMarch 1, 1977, Fukuoka
p474
aVNovember 30, 1979, Tokyo
p475
aVFebruary 24, 1980, Nara
p476
aVFebruary 7, 1981, Kyoto
p477
aVMay 2, 1980, Kyoto
p478
aVJuly 16, 1977, Saitama
p479
aVJune 5, 1977, Kanagawa
p480
aVMay 14, 1982, Saitama
p481
aVOctober 31, 1984, Mie
p482
aVFebruary 16, 1985, Kyoto
p483
aVDecember 28, 1981, Kyoto
p484
aVAugust 26, 1982, Hyogo
p485
aVNovember 3, 1983, Yamanasi
p486
aVJuly 25, 1983, Kyoto
p487
aVAugust 11, 1979, Hamilton
p488
aVSeptember 19, 1980, New Plymouth
p489
aVJanuary 12, 1983, Nagasaki
p490
aVFebruary 22, 1982, Kyoto
p491
aVJune 19, 1983, Tokyo
p492
aVAugust 11, 1986, Osaka
p493
aVApril 17, 1987, Aichi
p494
aVOctober 17, 1981, Osaka
p495
aVOctober 30, 1983, Osaka
p496
aVApril 16, 1981, Christchurch
p497
aVOctober 5, 1982, Tokyo
p498
aVOctober 4, 1983, Aichi
p499
aVAugust 12, 1972, Rotorua
p500
aVMarch 20, 1981, Osaka
p501
aVJanuary 22, 1984, Seoul
p502
aVMay 23, 1979, Broken Hill
p503
aVJuly 13, 1983, Saitama
p504
aVNovember 16, 1981, Fukushima
p505
aVAugust 6, 1982, Fukuoka
p506
aVApril 5, 1978, Nagasaki
p507
aVJune 10, 1981, Osaka
p508
aVAugust 24, 1979, Hiroshima
p509
aVMarch 15, 1982, Ibaraki
p510
aVFebruary 6, 1982, Akita
p511
aVJanuary 3, 1985, Kyoto
p512
aVDecember 30, 1981, Driffield
p513
aVOctober 25, 1981, Nuku'alofa
p514
aVMarch 15, 1982, Hyogo
p515
aVAugust 2, 1985, Miyagi
p516
aVJanuary 15, 1983, Kyoto
p517
aVNovember 23, 1983, Hyogo
p518
aVMay 7, 1980, Osaka
p519
aVOctober 7, 1988, Burwood
p520
aVSeptember 30, 1981, Fukuoka
p521
aVOctober 31, 1985, Tokyo
p522
aVMarch 3, 1986
p523
aVNovember 29, 1984, Kyoto
p524
aVOctober 8, 1980, Nuku'alofa
p525
aVJanuary 1, 1986, Osaka
p526
aVNovember 5, 1984, Gunma
p527
aVAugust 18, 1987, Hyogo
p528
aVFebruary 4, 1980
p529
aVAugust 25, 1984, Tokyo
p530
aVMay 15, 1986, Fukuoka
p531
aVJanuary 21, 1986, Osaka
p532
aVApril 2, 1980, Napier
p533
aVFebruary 1, 1982, Manunu, Western Samoa
p534
aVJuly 15, 1988, Osaka
p535
aVMarch 26, 1987, Miyagi
p536
aVMay 3, 1985, Miyazaki
p537
aVMarch 14, 1983, Nuku'alofa
p538
aVOctober 2, 1984, Saitama
p539
aVJanuary 21, 1984, Chiba
p540
aVJuly 13, 1981, Osaka
p541
aVApril 14, 1985, Fukuoka
p542
aVJune 22, 1988, Osaka
p543
aVJune 25, 1978, Nara
p544
aVOctober 1, 1984, Ibaraki
p545
aVMay 22, 1987, Hyogo
p546
aVMay 24, 1984, Mosiel
p547
aVMarch 3, 1982, Fukuoka
p548
aVSeptember 28, 1985, Osaka
p549
aVOctober 2, 1985, Kyoto
p550
aVJanuary 2, 1988, Osaka
p551
aVJune 27, 1982, Auckland
p552
aVMarch 21, 1989, Fukuoka
p553
aVAugust 10, 1982, Aichi
p554
aVDecember 2, 1980, Hyogo
p555
aVJuly 19, 1985, Gifu
p556
aVOctober 26, 1982, Shiga
p557
aVJanuary 9, 1989, Aichi
p558
aVAugust 21, 1981, Kanagawa
p559
aVDecember 2, 1989, Nara
p560
aVMarch 21, 1989
p561
aVFebruary 22, 1992
p562
aVOctober 8, 1993, Kyoto
p563
aVFebruary 7, 1987, Fukuoka
p564
aVOctober 23, 1985, Kagoshima
p565
aVMay 27, 1988, Chiba
p566
aVDecember 13, 1987, Auckland
p567
aVOctober 30, 1986
p568
aVJune 4, 1988, Aomori
p569
aVOctober 13, 1987
p570
aVSeptember 7, 1987, Yamanasi
p571
aVSeptember 7, 1992
p572
aVDecember 26, 1979, Sydney, NSW
p573
aVJune 3, 1991, Japan
p574
aVDecember 6, 1989, Kyoto
p575
aVJuly 26, 1985, Fukuoka
p576
aVJuly 30, 1980, Christchurch
p577
aVFebruary 26, 1993
p578
aVMay 29, 1988, Nagasaki
p579
aVApril 26, 1985, Osaka
p580
aVJuly 11, 1990, Tokyo
p581
aVAugust 1, 1985
p582
aVJanuary 11, 1990
p583
aVJune 2, 1990, Niigata
p584
aVDecember 19, 1991, Fukuoka
p585
aVNovember 11, 1994
p586
aVDecember 15, 1988, Kanagawa
p587
aVMarch 17, 1992
p588
a.