(lp1
S'Ko Chu Chang'
p2
aS'Tomoo Chiba'
p3
aS'Mitsugu Fujii'
p4
aS'Takeo Hagiwara-Maekawa'
p5
aS'Shuzaburo Iwashita'
p6
aS'Takeo Kitano'
p7
aS'Kenichi Matsubara'
p8
aS'Minoru Mishima'
p9
aS'Hideo Miyaji-Yoshizawa'
p10
aS'Giichi Ota'
p11
aS'Seizo Shimizu'
p12
aS'Seiichi Teramura'
p13
aS'Zenjiro Toba-Nakajima'
p14
aS'Shiro Wada'
p15
aS'Tadayuki Yagai'
p16
aS'Hidemaru Suzuki'
p17
aS'Takao Adachi'
p18
aS'Takeo Baba'
p19
aS'Saburo Hirao'
p20
aS'Hiroshi Ijyuin'
p21
aS'Tsunehiko Kasahara'
p22
aS'Taro Kinoshita'
p23
aS'Takeshi Matsubara'
p24
aS'Saburou Nishigaki'
p25
aS'Masahiko Niwa'
p26
aS'Yoshio Okada'
p27
aS'Shinji Ono'
p28
aS'Teiji Toshi'
p29
aS'Ichiro Nogami'
p30
aS'Ryuichi Iimori'
p31
aS'Shinshiro Komehana'
p32
aS'Kihei Mano'
p33
aS'Kyuji Matsuda'
p34
aS'Taro Sasakura-Yamamoto'
p35
aS'Sheizo Taji'
p36
aS'Tsutomu Tsujita'
p37
aS'Takashi Naito'
p38
aS'Hiroshi Tachibana'
p39
aS'Hiroshi Tagawa'
p40
aS'Hideo Ito'
p41
aS'Toichiro Kawagoe'
p42
aS'Ryohei Kinoshita'
p43
aS'Hiroyuki Nabeka'
p44
aS'Kazutsugu Nishiumi'
p45
aS'Shoji Sakaguchi'
p46
aS'Michihiro Sakai'
p47
aS'Isao Suzuki'
p48
aS'Kazuo Yamaguchi'
p49
aS'Haruki Yamamoto'
p50
aS'Zenji Nishi'
p51
aS'Iwao Ota'
p52
aS'Masao Wada'
p53
aS'Yoshiaki Aoki'
p54
aS'Atsushi Fujii'
p55
aS'Shinichi Hashimoto'
p56
aS'Noboru Hirohata'
p57
aS'Ryotarou Kadoto'
p58
aS'Syoichiro Koyama'
p59
aS'Genpei Kuroiwa'
p60
aS'Yoshinobu Nakajima'
p61
aS'Takao Otsuka'
p62
aS'Ryo Saito'
p63
aS'Hidehiko Sato'
p64
aS'Tetsuo Sekikawa'
p65
aS'Fukuo Shibagaki'
p66
aS'Yusaku Takahashi'
p67
aS'Akira Tanaka'
p68
aS'Ryuichi Imamura'
p69
aS'Haruo Matsuoka'
p70
aS'Sueharu Natsui'
p71
aS'Takeshi Takeda'
p72
aS'Hideaki Tsichiya'
p73
aS'Toshiaki Tsuchiya'
p74
aS'Akihiko Watanabe'
p75
aS'Sada Yamato'
p76
aS'Hideo Harada'
p77
aS'Keizo Kamisaka'
p78
aS'Teruo Kitajima'
p79
aS'Masaya Matsuoka'
p80
aS'Mitsuya Ohotsuka'
p81
aS'Toshiro Sasaki'
p82
aS'Yoshiharu Umei'
p83
aS'Junzo Aso'
p84
aS'Masaaki Matsushige'
p85
aS'Manabu Mitoma'
p86
aS'Hirotoshi Hori'
p87
aS'Koji Kikkawa'
p88
aS'Isao Kondo'
p89
aS'Katsuhiro Mano'
p90
aS'Kunio Miyai'
p91
aS'Kazumitsu Ninoguchi'
p92
aS'Takashi Shibata'
p93
aS'Hiroshi Teranishi'
p94
aS'Haruhiko Yamazaki'
p95
aS'Taisei-Shigehir Arai'
p96
aS'Kazuo Natsui'
p97
aS'Takashi Sudo'
p98
aS'Koichi Takaoka'
p99
aS'Ryuichi Ohara'
p100
aS'Syozaburo Yamamoto'
p101
aS'Tatsuya Aoi'
p102
aS'Rikio Enomoto'
p103
aS'Terukazu Fuji'
p104
aS'Koichi Imamura'
p105
aS'Yoshiaki Kaimoto'
p106
aS'Yutaka Katakura'
p107
aS'Hirosgi Hibino'
p108
aS'Kiyoshi Kobayashi'
p109
aS'Fumio Saito-Horikawa'
p110
aS'Ryuzo Taniguchi'
p111
aS'Masao Ozaki'
p112
aS'Susumu Kitaoka'
p113
aS'Kinichi Miyajima'
p114
aS'Kenji Ohotsuka'
p115
aS'Eiichi Shiga'
p116
aS'Seiji Tanaka'
p117
aS'Hideki Tominaga'
p118
aS'Terumi Harada'
p119
aS'Kiichirou Akatsu'
p120
aS'Masato Hirashima'
p121
aS'Kenji Ishii'
p122
aS'Yozo Matsuoka'
p123
aS'Kazuhisa Tsutsumi-Tatsuno'
p124
aS'Teruyasu Yuki'
p125
aS'Keisuke Yamada'
p126
aS'Koji Ishizuka'
p127
aS'Tadayuki Ito'
p128
aS'Kazuo Kawasaki'
p129
aS'Haruhiko Kitajima'
p130
aS'Masatake Kusatsu'
p131
aS'Shugoro Miura'
p132
aS'Kazuo Murata'
p133
aS'Hirohisa Nishizumi'
p134
aS'Eiji Okabe'
p135
aS'Masayoshi Ozaki'
p136
aS'Shiro Ueki'
p137
aS'Koji Yamada'
p138
aS'Tadamasa Fujimoto-Kamohara'
p139
aS'Megumi Horikoshi'
p140
aS'Motonari Ishida'
p141
aS'Takashi Jinno'
p142
aS'Katsumi Kamata'
p143
aS'Tsutomu Katsuraguchi'
p144
aS'Morio Kawasaki'
p145
aS'Yoshinori Okubo'
p146
aS'Yoshihiro Sakata'
p147
aS'Toru Tenmyo'
p148
aS'Yoshiharu Yamaguchi'
p149
aS'Akira Yokoi'
p150
aS'Katsutoshi Azuma'
p151
aS'Shozo Fujita'
p152
aS'Nobuo Ikaida'
p153
aS'Kazumasa Inubuse'
p154
aS'Takeshi Kato'
p155
aS'Haruhiko Komiya'
p156
aS'Shigeru Murayama'
p157
aS'Hisashi Yamaoka'
p158
aS'Mitsuo Atokawa'
p159
aS'Yoshiaki Izawa'
p160
aS'Masaharu Mantani'
p161
aS'Hiroshi Ogasawara'
p162
aS'Takeo Saruta'
p163
aS'Ryozo Imazato'
p164
aS'Masayoshi Ito'
p165
aS'Katsumi Miyaji'
p166
aS'Yoshio Tanigawa'
p167
aS'Toshio Terai'
p168
aS'Masahiro Uchida'
p169
aS'Satoru Matsuoka'
p170
aS'Makoto Mizutani'
p171
aS'Fumiharu Shimazaki'
p172
aS'Masaaki Shimozono'
p173
aS'Tadahiko Omata'
p174
aS'Kishio Ishiyama'
p175
aS'Asura Hara'
p176
aS'Toshio Kurosaka'
p177
aS'Koji Miyata'
p178
aS'Yoshihiro Murata'
p179
aS'Sachio Iburi'
p180
aS'Koichi Shibata'
p181
aS'Masaru Fujiwara'
p182
aS'Kazumi Ohigashi'
p183
aS'Iwao Yamamoto'
p184
aS'Junji Yoshida'
p185
aS'Kazuhito Yoshino'
p186
aS'Hideo Akama'
p187
aS'Hiroaki Shukuzawa'
p188
aS'Nobuyuki Ueyama'
p189
aS'Masakatsu Iguchi'
p190
aS'Ken Aruga'
p191
aS'Takeo Ishizuka'
p192
aS'Tsukasa Takada'
p193
aS'Shigetaka Mori'
p194
aS'Masao Yoshida'
p195
aS'Hitoshi Kano'
p196
aS'Osamu Koyabu'
p197
aS'Susumu Kurihara'
p198
aS'Yuji Matsuo'
p199
aS'Nobufumi Tanaka'
p200
aS'Shigeru Toyoda'
p201
aS'Osamu Yamashita'
p202
aS'Akio Hiraki'
p203
aS'Ichiro Kobayashi'
p204
aS'Toru Wada'
p205
aS'Shigekazu Hoshino'
p206
aS'Masayuki Miyauchi'
p207
aS'Ryutaro Fukurodate'
p208
aS'Atsuhiko Kanasashi'
p209
aS'Takeshi Nakayama'
p210
aS'Akio Ueda'
p211
aS'Hirotsugu Ato'
p212
aS'Manabu Sasada'
p213
aS'Kyoichi Toyoyama'
p214
aS'Takeo Tsuyama'
p215
aS'Hirotaka Ujino'
p216
aS'Yoichiro Minamikawa'
p217
aS'Toshiaki Yasui'
p218
aS'Kazuo Muraguchi'
p219
aS'Naoshi Kymagai'
p220
aS'Takeshi Hatakeyama'
p221
aS'Isao Saito'
p222
aS'Kiyoshi Segawa'
p223
aS'Akemi Namura'
p224
aS'Naoshi Kumagai'
p225
aS'Junya Matsumoto'
p226
aS'Mitsuru Hohokabe'
p227
aS'Mitsuru Sakamoto'
p228
aS'Toshihiko Kitahara'
p229
aS'Takeaki Toyoda'
p230
aS'Tetsuro Yajima'
p231
aS'Koji Horaguchi'
p232
aS'Naohisa Tanifuji'
p233
aS'Takashi Kudo-Nakayama'
p234
aS'Hideo Toshima'
p235
aS'Kazuo Sejimo'
p236
aS'Michihito Chida'
p237
aS'Jiro Ishiyama'
p238
aS'Hiroaki Takahashi'
p239
aS'Tsuyoshi Fujita'
p240
aS'Takashi Ito'
p241
aS'Hikaru Kawachi'
p242
aS'Shinichi Oikawa'
p243
aS'Toshiyuki Hayashi'
p244
aS'Fukumi Kanaya'
p245
aS'Yoshimitsu Konishi'
p246
aS'Esturo Tsuji'
p247
aS'Toshihiro Hirai'
p248
aS'Yoshichiro Ikeda'
p249
aS'Nortitoshi Toyoda'
p250
aS'Kazuhiko Honjo'
p251
aS'Masahiro Inoue'
p252
aS'Takao Ooba'
p253
aS'Takanobu Kondo'
p254
aS'Seiji Hirao'
p255
aS'Yasuharu Kawase'
p256
aS'Kimitaka Morioka'
p257
aS'Noboru Watanabe'
p258
aS'Koji Kawachi'
p259
aS'Hideo Kobayashi'
p260
aS'Atsushi Oyagi'
p261
aS'Kenzo Takada'
p262
aS'Tetsuya Higashida'
p263
aS'Toshitaka Kimura'
p264
aS'Masahiko Koshiyama'
p265
aS'Shinji Onuki'
p266
aS'Masato Yasuda'
p267
aS'Masaharu Aizawa'
p268
aS'Toshiro Yoshino'
p269
aS'Shogo Mukai'
p270
aS'Daijiro Murai'
p271
aS'Yoshifumi Kasai'
p272
aS'Eiji Kutsuki'
p273
aS'Toshihiro Matsunaga'
p274
aS'Nofomuli Taumoefolau'
p275
aS'Masato Tsuchida'
p276
aS'Kinya Konishi'
p277
aS'Katsuhiro Matsuo'
p278
aS'Osamu Ota'
p279
aS'Hopoi Taione'
p280
aS'Koji Yasumi'
p281
aS'Katsunori Ishii'
p282
aS'Seiji Kurihara'
p283
aS'Yoshihiko Sakuraba'
p284
aS'Katsufumi Miyamoto'
p285
aS'Yuji Masutome'
p286
aS'Kojiro Yoshinaga'
p287
aS'Hisataka Ikuta'
p288
aS'Sinali-Tui Latu'
p289
aS'Mitsutake Hagimoto'
p290
aS'Minoru Okidoi'
p291
aS'Tsutomu Hirose'
p292
aS'Katsumi Sogumo'
p293
aS'Masami Horikoshi'
p294
aS'Kenji Imakoma'
p295
aS'Takanori Nagata'
p296
aS'Koda Tsunejiro'
p297
aS'Seigo Umeki-Kunisada'
p298
aS'Yoshihito Yoshida'
p299
aS'Masayuki Nagai'
p300
aS'Toshitsugu Yamamoto'
p301
aS'Kiyoshi Imaizumi'
p302
aS'Shinobu Aoki'
p303
aS'Hiroyuki Kajihara'
p304
aS'Shuji Nakashima'
p305
aS'Masanori Takura'
p306
aS'Ekeroma Lauaiufi'
p307
aS'Tadashi Goda'
p308
aS'Kazuaki Takahashi'
p309
aS'Takahiro Hosokawa'
p310
aS'Narihiro Watanabe'
p311
aS'Masahiro Kunda'
p312
aS'Kiyomi Fukumoro'
p313
aS'Susumu Fukuoka'
p314
aS'Hirofumi Ouchi'
p315
aS'Wataru Murata'
p316
aS'Yukio Motoki'
p317
aS'Tatsuya Maeda'
p318
aS'Terunori Masuho'
p319
aS'Sam Kaleta'
p320
aS'Jun Komura'
p321
aS'Sione-Tupo Latu Mailangi'
p322
aS'Tsutomu Matsuda'
p323
aS'Lopeti Oto'
p324
aS'Noriyuki Owashi'
p325
aS'Hirohisa Kato'
p326
aS'Hidco Kaneshiro'
p327
aS'Bruce Ferguson'
p328
aS'Mitsuo Fujikake'
p329
aS'Yogi Nagatomo'
p330
aS'Ian Williams'
p331
aS'Takashi Akatsuka'
p332
aS'Hideki Nishida'
p333
aS'Yasunobu Sato'
p334
aS'Keiji Hirose'
p335
aS'Tetsuya Takeyama'
p336
aS'Tomoya Haneda'
p337
aS'Eiji Hirotsu'
p338
aS'Ko Izawa-Nakamura'
p339
aS'Akira Yoshida'
p340
aS'David Bickle'
p341
aS'Takeomi Ito'
p342
aS'Andrew McCormick'
p343
aS'Toshikazu Nakamichi'
p344
aS'Hiroki Ozeki'
p345
aS'Yasunori Watanabe'
p346
aS'Kenichi Kimura'
p347
aS'Kenji Sato'
p348
aS'Kazu Hamabe'
p349
aS'Masaaki Sakata'
p350
aS'Osami Yatsuhashi'
p351
aS'Daisuke Ohata'
p352
aS'Shuji Shimizu'
p353
aS'Hiroyuki Tanuma'
p354
aS'Isikeli Basiyalo'
p355
aS'Robert Gordon'
p356
aS'Ken Iwabuchi'
p357
aS'Keiji Mizobe'
p358
aS'Pat Tuidraki'
p359
aS'Kenichi Wada'
p360
aS'Jun Oyamada'
p361
aS'Kohei Oguchi'
p362
aS'Kazuya Koizumi'
p363
aS'Shin Hasegawa'
p364
aS'Stephen Miln'
p365
aS'Naoto Nakamura'
p366
aS'Greg Smith'
p367
aS'Ross Thompson'
p368
aS'Keisuke Sawaki'
p369
aS'Katsuji Ohara'
p370
aS'Masahiro Kurokawa'
p371
aS'Takafumi Hirao'
p372
aS'Masamitsu Oyabu'
p373
aS'Takayuki Sugata'
p374
aS'Graeme Bachop'
p375
aS'Jamie Joseph'
p376
aS'Kenji Kasai'
p377
aS'Goshi Tachikawa'
p378
aS'Naoya Okubo'
p379
aS'Junji Hiratsuka'
p380
aS'Ryuji Ishi'
p381
aS'Ryohei Miki'
p382
aS'Koji Fukuoka'
p383
aS'Hideki Nanba'
p384
aS'Naoya Okubo'
p385
aS'Yuji Sonoda'
p386
aS'Hiroshi Sugawara'
p387
aS'Karl Todd'
p388
aS'Masahiko Toyoyoma'
p389
aS'Toru Kurihara'
p390
aS'Shotaro Onishi'
p391
aS'Takahiro Hirata'
p392
aS'Yasuhiko Iwama'
p393
aS'Takuo Kawasaki'
p394
aS'Michinori Oda'
p395
aS'Mamoru Ito'
p396
aS'Takeshi Nozawa'
p397
aS'Masanori Tatsukawa'
p398
aS'Kousuke Fujii'
p399
aS'Yasuharu Uryu'
p400
aS'Masao Amino'
p401
aS'Masanao Washiya'
p402
aS'Noboru Yasuda'
p403
aS'Toshikazu Fumihara'
p404
aS'Reo Kawai'
p405
aS'Koichi Kubo'
p406
aS'Soushi Fuchigami'
p407
aS'Nataniela Oto'
p408
aS'Kenichi Takayanagi'
p409
aS'Yutaka Tsujimoto'
p410
aS'Shinichi Tsukita'
p411
aS'Lautangi Vatuvei'
p412
aS'Masahito Yamamoto'
p413
aS'Akihito Kato'
p414
aS'Hajime Kiso'
p415
aS'Kazunaka Motoyoshi'
p416
aS'Yuya Saito'
p417
aS'Eiji Yamamoto'
p418
aS'Hirotoki Onozawa'
p419
aS'Jun Akune'
p420
aS'Ryo Yamamura'
p421
aS'Hideyuki Yoshida'
p422
aS'Yuichi Hisadomi'
p423
aS'Andy Miller'
p424
aS'Takuro Miuchi'
p425
aS'Adam Parker'
p426
aS'Dean Anglesey'
p427
aS'Tsuyoshi Kinoshita'
p428
aS'Takashi Yoshida'
p429
aS'Masahiro Shichinohe'
p430
aS'Takamasa Sawaguchi'
p431
aS'Tetsuya Watanabe'
p432
aS'Dai Katsuno'
p433
aS'Kenji Shomen'
p434
aS'Ken Tsukagoshi'
p435
aS'George Konia'
p436
aS'Yohei Shinomiya'
p437
aS'Reuben Parkinson'
p438
aS'Ryota Asano Inose'
p439
aS'Hiroki Matsuo'
p440
aS'Takashi Tsuji'
p441
aS'Hiroaki Ito'
p442
aS'Takanori Kumagae'
p443
aS'Yuji Matsubara'
p444
aS'Masatoshi Mukoyama'
p445
aS'Koichi Ohigashi'
p446
aS'Wataru Ikeda'
p447
aS'Hitoshi Ono'
p448
aS'Feletikiki Mau'
p449
aS'Kyohei Morita'
p450
aS'Mitsugu Yamamoto'
p451
aS'Kosuke Endo'
p452
aS'Keiji Takei'
p453
aS'Takashi Yamaoka'
p454
aS'Hayato Daimon'
p455
aS'Koichiro Kubota'
p456
aS'Seiichi Shimonura'
p457
aS'Kiyonori Tanaka'
p458
aS'Takatoyo Yamaguchi'
p459
aS'Hiroki Mizuno'
p460
aS'Tatsukichi Nishiura'
p461
aS'Tatsuhiko Otao'
p462
aS'Christian Loamanu'
p463
aS'Hare Makiri'
p464
aS'Tomoaki Nakai'
p465
aS'Hiroshi Takahashi'
p466
aS'Jamie Washington'
p467
aS'Ayumu Goromaru'
p468
aS'Shota Goto'
p469
aS'Shigeyasu Takagi'
p470
aS'Masakazu Nakabayashi'
p471
aS'Katoni Otukolo'
p472
aS"Philip O'Reilly"
p473
aS'Teppei Tomioka'
p474
aS'Jumpei Enomoto'
p475
aS'Takashi Kikutani'
p476
aS'Toshizumi Kitagawa'
p477
aS'Takashi Miyake'
p478
aS'Tsuyoshi Sato'
p479
aS'Tomokazu Soma'
p480
aS'Eiji Ando'
p481
aS'Yuta Imamura'
p482
aS'Yuki Yatomi'
p483
aS'Atsushi Moriya'
p484
aS'Tomoaki Taniguchi'
p485
aS'Go Aruga'
p486
aS'Tomoki Kitagawa'
p487
aS'James Arlidge'
p488
aS'Bryce Robins'
p489
aS'Koji Taira'
p490
aS'Tomoki Yoshida'
p491
aS'Yusuke Aoki'
p492
aS'Yuji Kitagawa'
p493
aS'Kosei Ono'
p494
aS'Toshiaki Hirose'
p495
aS'Takamichi Sasaki'
p496
aS'Luke Thompson'
p497
aS'Taku Inokuchi'
p498
aS'Takahiro Sugiura'
p499
aS'Glen Marsh'
p500
aS'Tatsuya Kusumi'
p501
aS'Chul-Won Kim'
p502
aS'Ryan Nicholas'
p503
aS'Koji Shinozuka'
p504
aS'Hiroki Yoshida'
p505
aS'Yoshitaka Nakayama'
p506
aS'Akira Ozaki'
p507
aS'Takashi Sato'
p508
aS'Yosuke Ikegaya'
p509
aS'Yuta Inose'
p510
aS'Taira Sato'
p511
aS'Fumiaki Tanaka'
p512
aS'Shaun Webb'
p513
aS'Koliniashi Holani'
p514
aS'Naonori Mizuyama'
p515
aS'Kensuke Hatakeyama'
p516
aS'Hisateru Hirashima'
p517
aS'Kaoru Matsushita'
p518
aS'Koji Tomioka'
p519
aS'Michael Leitch'
p520
aS'Masakazu Irie'
p521
aS'Naoki Kawamata'
p522
aS'Piei Mafileo'
p523
aS'Masato Toyoda'
p524
aS'Toetuu Taufa'
p525
aS'Hiroshi Yamashita'
p526
aS'Tateo Kanai'
p527
aS'Shinsuke Nakamura'
p528
aS'Jack Tarrant'
p529
aS'Yoshimitsu Yasue'
p530
aS'Masakazu Toyota'
p531
aS'Shota Horie'
p532
aS'Daniel Quate'
p533
aS'Alisi Tupuailei'
p534
aS'Takeshi Kizu'
p535
aS'Shinya Makabe'
p536
aS'Yasunori Nagatomo'
p537
aS'Sione Vatuvei'
p538
aS'Nozomu Fujita'
p539
aS'Hiroki Yuhara'
p540
aS'Ryo Kanazawa'
p541
aS'Koji Wada'
p542
aS'Ryohei Yamanaka'
p543
aS'Atsushi Tanabe'
p544
aS'Itaru Taniguchi'
p545
aS'Atsushi Hiwasa'
p546
aS'Justin Ives'
p547
aS'Taihei Ueda'
p548
aS'Takehisa Usuzuki'
p549
aS'Ryuta Ueno'
p550
aS'Tadasuke Nishihara'
p551
aS'Murray Williams'
p552
aS'Ryuhei Arita'
p553
aS'Jun Fujii'
p554
aS'Shoji Ito'
p555
aS'Yuusuke Nagae'
p556
aS'Tomohiro Senba'
p557
aS'Yuu Tamura'
p558
aS'Yuta Mochizuki'
p559
aS'Harumichi Tatekawa'
p560
aS'Hidetatsu Tsuboi'
p561
aS'Keisuke Uchida'
p562
aS'Yoshikazu Fujita'
p563
aS'Daiki Hashimoto'
p564
aS'Yusaku Kuwazuru'
p565
aS'Kaito Morikawa'
p566
aS'Hendrik Tui'
p567
aS'Michael Broadhurst'
p568
aS'Masataka Mikami'
p569
aS"Male Sa'u"
p570
aS'Takuma Asahara'
p571
aS'Kenki Fukuoka'
p572
aS'Craig Wing'
p573
aS'Ryoto Nakamura'
p574
aS'Ryuta Yasui'
p575
aS'Akihito Yamada'
p576
aS'Hayden Hopgood'
p577
aS'Kotaro Matsushima'
p578
aS'Daishi Murata'
p579
aS'Yasuki Hayashi'
p580
aS'Kyosuke Horie'
p581
aS'Karne Hesketh'
p582
aS'Amanaki Mafi'
p583
aS'Keita Inagaki'
p584
aS'Shinnosuke Kakinaga'
p585
aS'Chihito Matsui'
p586
aS'Tsuyoshi Murata'
p587
aS'Kazuhiko Usami'
p588
a.