(lp1
VCentre
p2
aVLock
p3
aVCentre
p4
aVScrum-half
p5
aVProp
p6
aVWing
p7
aVFly-half
p8
aVLock
p9
aVFlanker
p10
aVProp
p11
aVNo. 8
p12
aVFullback
p13
aVWing
p14
aVFlanker
p15
aVHooker
p16
aVWing
p17
aVNo. 8
p18
aVWing
p19
aVCentre
p20
aVProp
p21
aVFullback
p22
aVScrum-half
p23
aVHooker
p24
aVProp
p25
aVFly-half
p26
aVFlanker
p27
aVLock
p28
aVFlanker
p29
aVFly-half
p30
aVScrum-half
p31
aVFlanker
p32
aVLock
p33
aVHooker
p34
aVProp
p35
aVFlanker
p36
aVCentre
p37
aVWing
p38
aVCentre
p39
aVLock
p40
aVLock
p41
aVCentre
p42
aVScrum-half
p43
aVFlanker
p44
aVProp
p45
aVWing
p46
aVHooker
p47
aVFullback
p48
aVLock
p49
aVNo. 8
p50
aVWing
p51
aVProp
p52
aVScrum-half
p53
aVWing
p54
aVFlanker
p55
aVLock
p56
aVNo. 8
p57
aVScrum-half
p58
aVCentre
p59
aVWing
p60
aVHooker
p61
aVCentre
p62
aVProp
p63
aVFullback
p64
aVProp
p65
aVFly-half
p66
aVFlanker
p67
aVLock
p68
aVCentre
p69
aVFly-half
p70
aVProp
p71
aVLock
p72
aVScrum-half
p73
aVFlanker
p74
aVCentre
p75
aVNo. 8
p76
aVNo. 8
p77
aVFly-half
p78
aVProp
p79
aVHooker
p80
aVScrum-half
p81
aVWing
p82
aVLock
p83
aVFly-half
p84
aVFlanker
p85
aVScrum-half
p86
aVFly-half
p87
aVHooker
p88
aVWing
p89
aVLock
p90
aVWing
p91
aVProp
p92
aVLock
p93
aVCentre
p94
aVFlanker
p95
aVFly-half
p96
aVProp
p97
aVFlanker
p98
aVCentre
p99
aVLock
p100
aVScrum-half
p101
aVCentre
p102
aVWing
p103
aVProp
p104
aVScrum-half
p105
aVProp
p106
aVLock
p107
aVWing
p108
aVProp
p109
aVScrum-half
p110
aVCentre
p111
aVNo. 8
p112
aVFullback
p113
aVFlanker
p114
aVFlanker
p115
aVHooker
p116
aVLock
p117
aVNo. 8
p118
aVFullback
p119
aVHooker
p120
aVFly-half
p121
aVCentre
p122
aVFullback
p123
aVNo. 8
p124
aVProp
p125
aVFlanker
p126
aVNo. 8
p127
aVWing
p128
aVProp
p129
aVFly-half
p130
aVLock
p131
aVScrum-half
p132
aVHooker
p133
aVFlanker
p134
aVLock
p135
aVCentre
p136
aVNo. 8
p137
aVProp
p138
aVFly-half
p139
aVLock
p140
aVFlanker
p141
aVProp
p142
aVLock
p143
aVFullback
p144
aVProp
p145
aVScrum-half
p146
aVWing
p147
aVHooker
p148
aVFlanker
p149
aVCentre
p150
aVScrum-half
p151
aVFlanker
p152
aVFullback
p153
aVCentre
p154
aVFlanker
p155
aVProp
p156
aVHooker
p157
aVWing
p158
aVHooker
p159
aVFlanker
p160
aVFullback
p161
aVLock
p162
aVProp
p163
aVScrum-half
p164
aVLock
p165
aVProp
p166
aVFlanker
p167
aVLock
p168
aVFlanker
p169
aVNo. 8
p170
aVWing
p171
aVCentre
p172
aVProp
p173
aVHooker
p174
aVCentre
p175
aVProp
p176
aVProp
p177
aVCentre
p178
aVNo. 8
p179
aVProp
p180
aVLock
p181
aVWing
p182
aVHooker
p183
aVFullback
p184
aVFlanker
p185
aVProp
p186
aVFlanker
p187
aVScrum-half
p188
aVFullback
p189
aVFly-half
p190
aVWing
p191
aVFlanker
p192
aVProp
p193
aVCentre
p194
aVCentre
p195
aVCentre
p196
aVFly-half
p197
aVWing
p198
aVFly-half
p199
aVFullback, Centre
p200
aVLock
p201
aVFlanker
p202
aVWing
p203
aVFlanker
p204
aVProp
p205
aVFly-half
p206
aVProp
p207
aVScrum-half
p208
aVLock
p209
aVWing
p210
aVProp
p211
aVFlanker
p212
aVHooker
p213
aVFlanker
p214
aVScrum-half
p215
aVWing
p216
aVCentre
p217
aVProp
p218
aVWing
p219
aVLock
p220
aVLock
p221
aVFlanker
p222
aVLock
p223
aVScrum-half
p224
aVLock
p225
aVScrum-half
p226
aVHooker
p227
aVFlanker
p228
aVLock
p229
aVProp
p230
aVCentre
p231
aVProp
p232
aVFullback
p233
aVWing
p234
aVCentre
p235
aVNo. 8
p236
aVNo. 8
p237
aVProp
p238
aVFlanker
p239
aVHooker
p240
aVFlanker
p241
aVFlanker
p242
aVFly-half
p243
aVProp, Lock
p244
aVWing
p245
aVScrum-half
p246
aVWing
p247
aVHooker
p248
aVProp
p249
aV
aVFly-half
p250
aVHooker
p251
aVProp
p252
aVLock
p253
aVFly-half
p254
aVFlanker
p255
aVFly-half
p256
aV
aVLock
p257
aVCentre
p258
aVLock
p259
aVFlanker
p260
aVWing
p261
aVProp
p262
aVFlanker
p263
aVWing
p264
aVFullback
p265
aVProp
p266
aVUtility back
p267
aVFullback
p268
aVFullback
p269
aVFlanker
p270
aVCentre
p271
aVCentre
p272
aVWing
p273
aVFlanker
p274
aVLock
p275
aVFly-half
p276
aVProp
p277
aVNo. 8
p278
aVProp
p279
aVFullback
p280
aVLock
p281
aVLock
p282
aVFlanker
p283
aVHooker
p284
aVCentre
p285
aVScrum-half
p286
aVNo. 8
p287
aVScrum-half
p288
aVWing
p289
aVHooker
p290
aVFlanker
p291
aVScrum-half
p292
aVCentre
p293
aVProp
p294
aVFlanker
p295
aVWing
p296
aVWing
p297
aVProp
p298
aVFullback
p299
aVFullback
p300
aVFly-half
p301
aVFlanker
p302
aVFlanker
p303
aVProp
p304
aVLock
p305
aVWing
p306
aVProp
p307
aVFullback
p308
aVScrum-half
p309
aVHooker
p310
aVFullback
p311
aVCentre
p312
aVFlanker
p313
aVScrum-half
p314
aVCentre
p315
aVFullback
p316
aVWing
p317
aVFlanker
p318
aVFlanker
p319
aVNo. 8
p320
aVWing, Fullback
p321
aVWing
p322
aVFly-half
p323
aVCentre
p324
aVFlanker
p325
aVLock
p326
aVCentre
p327
aVScrum-half
p328
aVWing
p329
aVLock
p330
aVScrum-half
p331
aVProp
p332
aVFly-half
p333
aVCentre
p334
aVLock
p335
aVHooker
p336
aVFlanker
p337
aVCentre
p338
aVLock
p339
aVBack-row
p340
aVCentre
p341
aVProp, Hooker
p342
aVWing
p343
aVLock, Flanker
p344
aVProp
p345
aVFlanker
p346
aVProp
p347
aVHooker
p348
aVCentre
p349
aVWing
p350
aVProp
p351
aVLock
p352
aVLock
p353
aVNo. 8
p354
aVFly-half
p355
aVProp
p356
aVWing
p357
aVWing
p358
aVWing
p359
aVProp
p360
aVLock
p361
aVProp, Hooker
p362
aVFullback
p363
aVProp
p364
aVFlanker
p365
aVLock, No. 8
p366
aVFly-half
p367
aVScrum-half
p368
aVNo. 8
p369
aVWing
p370
aVCentre
p371
aVFlanker
p372
aVScrum-half
p373
aVFlanker
p374
aVProp
p375
aVFullback, Centre
p376
aVLock, Flanker
p377
aVLock
p378
aVFlanker
p379
aVCentre, Wing
p380
aVFullback
p381
aVCentre
p382
aVLock
p383
aVScrum-half
p384
aVBack-row
p385
aVLock
p386
aVProp
p387
aVFullback
p388
aVCentre, Fly-half
p389
aV
aVProp
p390
aVBack-row
p391
aVFullback
p392
aVScrum-half
p393
aVFlanker
p394
aVHooker, Prop
p395
aVLock
p396
aVCentre
p397
aVHooker
p398
aVNo. 8
p399
aVHooker
p400
aVProp
p401
aVCentre
p402
aVBack-row
p403
aVFly-half
p404
aVFlanker
p405
aVProp
p406
aVHooker
p407
aVScrum-half
p408
aVLock
p409
aVProp
p410
aVHooker
p411
aVLock, Back-row
p412
aVProp
p413
aVNo. 8
p414
aVNo. 8
p415
aVWing
p416
aVLock
p417
aVProp
p418
aVFullback, Fly-half
p419
aVProp
p420
aVFly-half
p421
aVBack-row
p422
aVLock
p423
aVFlanker
p424
aVLock
p425
aVFullback, Wing
p426
aVHooker
p427
aVLock
p428
aVCentre
p429
aVCentre
p430
aVFly-half, Fullback
p431
aVHooker
p432
aVCentre
p433
aVWing
p434
aVCentre
p435
aVFlanker
p436
aVHooker
p437
aVScrum-half
p438
aVFly-half
p439
aVLock
p440
aVHooker
p441
aVCentre
p442
aVFullback
p443
aVScrum-half
p444
aVLock
p445
aVFlanker
p446
aVFly-half, Fullback
p447
aVHooker
p448
aVFullback, Wing
p449
aVFullback
p450
aVHooker
p451
aVFullback
p452
aVWing
p453
aVCentre
p454
aVScrum-half
p455
aVBack-row
p456
aVFullback, Wing
p457
aVProp
p458
aVCentre, Fly-half
p459
aVCentre
p460
aVLock, Flanker
p461
aVFlanker
p462
aVProp
p463
aVLock
p464
aVFullback
p465
aVScrum-half
p466
a.