(lp1
(dp2
S'Pens'
p3
S'0'
sS'Sub'
p4
S'0'
sS'Lost'
p5
S'1'
sS'Drop'
p6
S'0'
sS'Start'
p7
S'4'
sS'Won'
p8
S'2'
sS'GfM'
p9
S'0'
sS'Draw'
p10
S'1'
sS'Mat'
p11
S'4'
sS'Conv'
p12
S'0'
sS'Tries'
p13
S'1'
sS'Pts'
p14
S'3'
sa(dp15
S'Pens'
p16
S'0'
sS'Sub'
p17
S'0'
sS'Lost'
p18
S'0'
sS'Drop'
p19
S'0'
sS'Start'
p20
S'1'
sS'Won'
p21
S'0'
sS'GfM'
p22
S'0'
sS'Draw'
p23
S'1'
sS'Mat'
p24
S'1'
sS'Conv'
p25
S'0'
sS'Tries'
p26
S'0'
sS'Pts'
p27
S'0'
sa(dp28
S'Pens'
p29
S'0'
sS'Sub'
p30
S'0'
sS'Lost'
p31
S'0'
sS'Drop'
p32
S'0'
sS'Start'
p33
S'1'
sS'Won'
p34
S'0'
sS'GfM'
p35
S'0'
sS'Draw'
p36
S'1'
sS'Mat'
p37
S'1'
sS'Conv'
p38
S'0'
sS'Tries'
p39
S'0'
sS'Pts'
p40
S'0'
sa(dp41
S'Pens'
p42
S'0'
sS'Sub'
p43
S'0'
sS'Lost'
p44
S'0'
sS'Drop'
p45
S'0'
sS'Start'
p46
S'1'
sS'Won'
p47
S'0'
sS'GfM'
p48
S'0'
sS'Draw'
p49
S'1'
sS'Mat'
p50
S'1'
sS'Conv'
p51
S'0'
sS'Tries'
p52
S'0'
sS'Pts'
p53
S'0'
sa(dp54
S'Pens'
p55
S'0'
sS'Sub'
p56
S'0'
sS'Lost'
p57
S'0'
sS'Drop'
p58
S'0'
sS'Start'
p59
S'1'
sS'Won'
p60
S'0'
sS'GfM'
p61
S'0'
sS'Draw'
p62
S'1'
sS'Mat'
p63
S'1'
sS'Conv'
p64
S'0'
sS'Tries'
p65
S'0'
sS'Pts'
p66
S'0'
sa(dp67
S'Pens'
p68
S'0'
sS'Sub'
p69
S'0'
sS'Lost'
p70
S'2'
sS'Drop'
p71
S'0'
sS'Start'
p72
S'6'
sS'Won'
p73
S'2'
sS'GfM'
p74
S'0'
sS'Draw'
p75
S'2'
sS'Mat'
p76
S'6'
sS'Conv'
p77
S'1'
sS'Tries'
p78
S'2'
sS'Pts'
p79
S'8'
sa(dp80
S'Pens'
p81
S'0'
sS'Sub'
p82
S'0'
sS'Lost'
p83
S'0'
sS'Drop'
p84
S'0'
sS'Start'
p85
S'1'
sS'Won'
p86
S'0'
sS'GfM'
p87
S'0'
sS'Draw'
p88
S'1'
sS'Mat'
p89
S'1'
sS'Conv'
p90
S'0'
sS'Tries'
p91
S'0'
sS'Pts'
p92
S'0'
sa(dp93
S'Pens'
p94
S'0'
sS'Sub'
p95
S'0'
sS'Lost'
p96
S'0'
sS'Drop'
p97
S'0'
sS'Start'
p98
S'3'
sS'Won'
p99
S'2'
sS'GfM'
p100
S'0'
sS'Draw'
p101
S'1'
sS'Mat'
p102
S'3'
sS'Conv'
p103
S'0'
sS'Tries'
p104
S'0'
sS'Pts'
p105
S'0'
sa(dp106
S'Pens'
p107
S'0'
sS'Sub'
p108
S'0'
sS'Lost'
p109
S'0'
sS'Drop'
p110
S'0'
sS'Start'
p111
S'1'
sS'Won'
p112
S'0'
sS'GfM'
p113
S'0'
sS'Draw'
p114
S'1'
sS'Mat'
p115
S'1'
sS'Conv'
p116
S'0'
sS'Tries'
p117
S'0'
sS'Pts'
p118
S'0'
sa(dp119
S'Pens'
p120
S'0'
sS'Sub'
p121
S'0'
sS'Lost'
p122
S'0'
sS'Drop'
p123
S'0'
sS'Start'
p124
S'1'
sS'Won'
p125
S'0'
sS'GfM'
p126
S'0'
sS'Draw'
p127
S'1'
sS'Mat'
p128
S'1'
sS'Conv'
p129
S'0'
sS'Tries'
p130
S'0'
sS'Pts'
p131
S'0'
sa(dp132
S'Pens'
p133
S'0'
sS'Sub'
p134
S'0'
sS'Lost'
p135
S'1'
sS'Drop'
p136
S'0'
sS'Start'
p137
S'3'
sS'Won'
p138
S'1'
sS'GfM'
p139
S'0'
sS'Draw'
p140
S'1'
sS'Mat'
p141
S'3'
sS'Conv'
p142
S'0'
sS'Tries'
p143
S'0'
sS'Pts'
p144
S'0'
sa(dp145
S'Pens'
p146
S'0'
sS'Sub'
p147
S'0'
sS'Lost'
p148
S'0'
sS'Drop'
p149
S'0'
sS'Start'
p150
S'1'
sS'Won'
p151
S'0'
sS'GfM'
p152
S'0'
sS'Draw'
p153
S'1'
sS'Mat'
p154
S'1'
sS'Conv'
p155
S'0'
sS'Tries'
p156
S'0'
sS'Pts'
p157
S'0'
sa(dp158
S'Pens'
p159
S'0'
sS'Sub'
p160
S'0'
sS'Lost'
p161
S'1'
sS'Drop'
p162
S'0'
sS'Start'
p163
S'4'
sS'Won'
p164
S'2'
sS'GfM'
p165
S'0'
sS'Draw'
p166
S'1'
sS'Mat'
p167
S'4'
sS'Conv'
p168
S'0'
sS'Tries'
p169
S'5'
sS'Pts'
p170
S'15'
p171
sa(dp172
S'Pens'
p173
S'0'
sS'Sub'
p174
S'0'
sS'Lost'
p175
S'0'
sS'Drop'
p176
S'0'
sS'Start'
p177
S'1'
sS'Won'
p178
S'0'
sS'GfM'
p179
S'0'
sS'Draw'
p180
S'1'
sS'Mat'
p181
S'1'
sS'Conv'
p182
S'0'
sS'Tries'
p183
S'0'
sS'Pts'
p184
S'0'
sa(dp185
S'Pens'
p186
S'0'
sS'Sub'
p187
S'0'
sS'Lost'
p188
S'0'
sS'Drop'
p189
S'0'
sS'Start'
p190
S'1'
sS'Won'
p191
S'0'
sS'GfM'
p192
S'0'
sS'Draw'
p193
S'1'
sS'Mat'
p194
S'1'
sS'Conv'
p195
S'0'
sS'Tries'
p196
S'0'
sS'Pts'
p197
S'0'
sa(dp198
S'Pens'
p199
S'0'
sS'Sub'
p200
S'1'
sS'Lost'
p201
S'0'
sS'Drop'
p202
S'0'
sS'Start'
p203
S'0'
sS'Won'
p204
S'0'
sS'GfM'
p205
S'0'
sS'Draw'
p206
S'1'
sS'Mat'
p207
S'1'
sS'Conv'
p208
S'0'
sS'Tries'
p209
S'0'
sS'Pts'
p210
S'0'
sa(dp211
S'Pens'
p212
S'0'
sS'Sub'
p213
S'0'
sS'Lost'
p214
S'0'
sS'Drop'
p215
S'0'
sS'Start'
p216
S'2'
sS'Won'
p217
S'2'
sS'GfM'
p218
S'0'
sS'Draw'
p219
S'0'
sS'Mat'
p220
S'2'
sS'Conv'
p221
S'0'
sS'Tries'
p222
S'0'
sS'Pts'
p223
S'0'
sa(dp224
S'Pens'
p225
S'0'
sS'Sub'
p226
S'0'
sS'Lost'
p227
S'0'
sS'Drop'
p228
S'0'
sS'Start'
p229
S'1'
sS'Won'
p230
S'1'
sS'GfM'
p231
S'0'
sS'Draw'
p232
S'0'
sS'Mat'
p233
S'1'
sS'Conv'
p234
S'0'
sS'Tries'
p235
S'0'
sS'Pts'
p236
S'0'
sa(dp237
S'Pens'
p238
S'0'
sS'Sub'
p239
S'0'
sS'Lost'
p240
S'0'
sS'Drop'
p241
S'0'
sS'Start'
p242
S'2'
sS'Won'
p243
S'2'
sS'GfM'
p244
S'0'
sS'Draw'
p245
S'0'
sS'Mat'
p246
S'2'
sS'Conv'
p247
S'0'
sS'Tries'
p248
S'1'
sS'Pts'
p249
S'3'
sa(dp250
S'Pens'
p251
S'0'
sS'Sub'
p252
S'0'
sS'Lost'
p253
S'0'
sS'Drop'
p254
S'0'
sS'Start'
p255
S'2'
sS'Won'
p256
S'2'
sS'GfM'
p257
S'0'
sS'Draw'
p258
S'0'
sS'Mat'
p259
S'2'
sS'Conv'
p260
S'0'
sS'Tries'
p261
S'0'
sS'Pts'
p262
S'0'
sa(dp263
S'Pens'
p264
S'7'
sS'Sub'
p265
S'0'
sS'Lost'
p266
S'2'
sS'Drop'
p267
S'0'
sS'Start'
p268
S'6'
sS'Won'
p269
S'3'
sS'GfM'
p270
S'0'
sS'Draw'
p271
S'1'
sS'Mat'
p272
S'6'
sS'Conv'
p273
S'6'
sS'Tries'
p274
S'0'
sS'Pts'
p275
S'33'
p276
sa(dp277
S'Pens'
p278
S'0'
sS'Sub'
p279
S'0'
sS'Lost'
p280
S'0'
sS'Drop'
p281
S'0'
sS'Start'
p282
S'2'
sS'Won'
p283
S'2'
sS'GfM'
p284
S'0'
sS'Draw'
p285
S'0'
sS'Mat'
p286
S'2'
sS'Conv'
p287
S'0'
sS'Tries'
p288
S'0'
sS'Pts'
p289
S'0'
sa(dp290
S'Pens'
p291
S'0'
sS'Sub'
p292
S'0'
sS'Lost'
p293
S'0'
sS'Drop'
p294
S'0'
sS'Start'
p295
S'3'
sS'Won'
p296
S'3'
sS'GfM'
p297
S'0'
sS'Draw'
p298
S'0'
sS'Mat'
p299
S'3'
sS'Conv'
p300
S'0'
sS'Tries'
p301
S'0'
sS'Pts'
p302
S'0'
sa(dp303
S'Pens'
p304
S'0'
sS'Sub'
p305
S'0'
sS'Lost'
p306
S'2'
sS'Drop'
p307
S'0'
sS'Start'
p308
S'6'
sS'Won'
p309
S'3'
sS'GfM'
p310
S'0'
sS'Draw'
p311
S'1'
sS'Mat'
p312
S'6'
sS'Conv'
p313
S'0'
sS'Tries'
p314
S'0'
sS'Pts'
p315
S'0'
sa(dp316
S'Pens'
p317
S'0'
sS'Sub'
p318
S'0'
sS'Lost'
p319
S'0'
sS'Drop'
p320
S'0'
sS'Start'
p321
S'2'
sS'Won'
p322
S'2'
sS'GfM'
p323
S'0'
sS'Draw'
p324
S'0'
sS'Mat'
p325
S'2'
sS'Conv'
p326
S'0'
sS'Tries'
p327
S'1'
sS'Pts'
p328
S'3'
sa(dp329
S'Pens'
p330
S'0'
sS'Sub'
p331
S'0'
sS'Lost'
p332
S'0'
sS'Drop'
p333
S'0'
sS'Start'
p334
S'2'
sS'Won'
p335
S'2'
sS'GfM'
p336
S'0'
sS'Draw'
p337
S'0'
sS'Mat'
p338
S'2'
sS'Conv'
p339
S'0'
sS'Tries'
p340
S'1'
sS'Pts'
p341
S'3'
sa(dp342
S'Pens'
p343
S'0'
sS'Sub'
p344
S'0'
sS'Lost'
p345
S'1'
sS'Drop'
p346
S'0'
sS'Start'
p347
S'4'
sS'Won'
p348
S'3'
sS'GfM'
p349
S'0'
sS'Draw'
p350
S'0'
sS'Mat'
p351
S'4'
sS'Conv'
p352
S'0'
sS'Tries'
p353
S'0'
sS'Pts'
p354
S'0'
sa(dp355
S'Pens'
p356
S'0'
sS'Sub'
p357
S'0'
sS'Lost'
p358
S'0'
sS'Drop'
p359
S'0'
sS'Start'
p360
S'2'
sS'Won'
p361
S'2'
sS'GfM'
p362
S'0'
sS'Draw'
p363
S'0'
sS'Mat'
p364
S'2'
sS'Conv'
p365
S'0'
sS'Tries'
p366
S'1'
sS'Pts'
p367
S'3'
sa(dp368
S'Pens'
p369
S'0'
sS'Sub'
p370
S'0'
sS'Lost'
p371
S'2'
sS'Drop'
p372
S'0'
sS'Start'
p373
S'4'
sS'Won'
p374
S'2'
sS'GfM'
p375
S'0'
sS'Draw'
p376
S'0'
sS'Mat'
p377
S'4'
sS'Conv'
p378
S'0'
sS'Tries'
p379
S'1'
sS'Pts'
p380
S'3'
sa(dp381
S'Pens'
p382
S'0'
sS'Sub'
p383
S'0'
sS'Lost'
p384
S'1'
sS'Drop'
p385
S'0'
sS'Start'
p386
S'2'
sS'Won'
p387
S'1'
sS'GfM'
p388
S'0'
sS'Draw'
p389
S'0'
sS'Mat'
p390
S'2'
sS'Conv'
p391
S'0'
sS'Tries'
p392
S'0'
sS'Pts'
p393
S'0'
sa(dp394
S'Pens'
p395
S'0'
sS'Sub'
p396
S'0'
sS'Lost'
p397
S'2'
sS'Drop'
p398
S'0'
sS'Start'
p399
S'4'
sS'Won'
p400
S'1'
sS'GfM'
p401
S'0'
sS'Draw'
p402
S'1'
sS'Mat'
p403
S'4'
sS'Conv'
p404
S'0'
sS'Tries'
p405
S'0'
sS'Pts'
p406
S'0'
sa(dp407
S'Pens'
p408
S'0'
sS'Sub'
p409
S'0'
sS'Lost'
p410
S'1'
sS'Drop'
p411
S'0'
sS'Start'
p412
S'1'
sS'Won'
p413
S'0'
sS'GfM'
p414
S'0'
sS'Draw'
p415
S'0'
sS'Mat'
p416
S'1'
sS'Conv'
p417
S'0'
sS'Tries'
p418
S'0'
sS'Pts'
p419
S'0'
sa(dp420
S'Pens'
p421
S'0'
sS'Sub'
p422
S'0'
sS'Lost'
p423
S'1'
sS'Drop'
p424
S'0'
sS'Start'
p425
S'1'
sS'Won'
p426
S'0'
sS'GfM'
p427
S'0'
sS'Draw'
p428
S'0'
sS'Mat'
p429
S'1'
sS'Conv'
p430
S'0'
sS'Tries'
p431
S'0'
sS'Pts'
p432
S'0'
sa(dp433
S'Pens'
p434
S'0'
sS'Sub'
p435
S'0'
sS'Lost'
p436
S'1'
sS'Drop'
p437
S'0'
sS'Start'
p438
S'2'
sS'Won'
p439
S'1'
sS'GfM'
p440
S'0'
sS'Draw'
p441
S'0'
sS'Mat'
p442
S'2'
sS'Conv'
p443
S'0'
sS'Tries'
p444
S'0'
sS'Pts'
p445
S'0'
sa(dp446
S'Pens'
p447
S'0'
sS'Sub'
p448
S'0'
sS'Lost'
p449
S'1'
sS'Drop'
p450
S'0'
sS'Start'
p451
S'2'
sS'Won'
p452
S'1'
sS'GfM'
p453
S'0'
sS'Draw'
p454
S'0'
sS'Mat'
p455
S'2'
sS'Conv'
p456
S'0'
sS'Tries'
p457
S'0'
sS'Pts'
p458
S'0'
sa(dp459
S'Pens'
p460
S'0'
sS'Sub'
p461
S'0'
sS'Lost'
p462
S'1'
sS'Drop'
p463
S'0'
sS'Start'
p464
S'2'
sS'Won'
p465
S'0'
sS'GfM'
p466
S'0'
sS'Draw'
p467
S'1'
sS'Mat'
p468
S'2'
sS'Conv'
p469
S'0'
sS'Tries'
p470
S'0'
sS'Pts'
p471
S'0'
sa(dp472
S'Pens'
p473
S'0'
sS'Sub'
p474
S'0'
sS'Lost'
p475
S'0'
sS'Drop'
p476
S'0'
sS'Start'
p477
S'1'
sS'Won'
p478
S'1'
sS'GfM'
p479
S'0'
sS'Draw'
p480
S'0'
sS'Mat'
p481
S'1'
sS'Conv'
p482
S'0'
sS'Tries'
p483
S'1'
sS'Pts'
p484
S'3'
sa(dp485
S'Pens'
p486
S'0'
sS'Sub'
p487
S'0'
sS'Lost'
p488
S'0'
sS'Drop'
p489
S'0'
sS'Start'
p490
S'1'
sS'Won'
p491
S'1'
sS'GfM'
p492
S'0'
sS'Draw'
p493
S'0'
sS'Mat'
p494
S'1'
sS'Conv'
p495
S'0'
sS'Tries'
p496
S'0'
sS'Pts'
p497
S'0'
sa(dp498
S'Pens'
p499
S'0'
sS'Sub'
p500
S'0'
sS'Lost'
p501
S'0'
sS'Drop'
p502
S'0'
sS'Start'
p503
S'2'
sS'Won'
p504
S'1'
sS'GfM'
p505
S'0'
sS'Draw'
p506
S'1'
sS'Mat'
p507
S'2'
sS'Conv'
p508
S'0'
sS'Tries'
p509
S'0'
sS'Pts'
p510
S'0'
sa(dp511
S'Pens'
p512
S'0'
sS'Sub'
p513
S'0'
sS'Lost'
p514
S'1'
sS'Drop'
p515
S'0'
sS'Start'
p516
S'1'
sS'Won'
p517
S'0'
sS'GfM'
p518
S'0'
sS'Draw'
p519
S'0'
sS'Mat'
p520
S'1'
sS'Conv'
p521
S'0'
sS'Tries'
p522
S'0'
sS'Pts'
p523
S'0'
sa(dp524
S'Pens'
p525
S'0'
sS'Sub'
p526
S'0'
sS'Lost'
p527
S'1'
sS'Drop'
p528
S'0'
sS'Start'
p529
S'1'
sS'Won'
p530
S'0'
sS'GfM'
p531
S'0'
sS'Draw'
p532
S'0'
sS'Mat'
p533
S'1'
sS'Conv'
p534
S'0'
sS'Tries'
p535
S'0'
sS'Pts'
p536
S'0'
sa(dp537
S'Pens'
p538
S'0'
sS'Sub'
p539
S'0'
sS'Lost'
p540
S'1'
sS'Drop'
p541
S'0'
sS'Start'
p542
S'2'
sS'Won'
p543
S'0'
sS'GfM'
p544
S'0'
sS'Draw'
p545
S'1'
sS'Mat'
p546
S'2'
sS'Conv'
p547
S'0'
sS'Tries'
p548
S'0'
sS'Pts'
p549
S'0'
sa(dp550
S'Pens'
p551
S'0'
sS'Sub'
p552
S'0'
sS'Lost'
p553
S'1'
sS'Drop'
p554
S'0'
sS'Start'
p555
S'2'
sS'Won'
p556
S'0'
sS'GfM'
p557
S'0'
sS'Draw'
p558
S'1'
sS'Mat'
p559
S'2'
sS'Conv'
p560
S'0'
sS'Tries'
p561
S'0'
sS'Pts'
p562
S'0'
sa(dp563
S'Pens'
p564
S'0'
sS'Sub'
p565
S'0'
sS'Lost'
p566
S'1'
sS'Drop'
p567
S'0'
sS'Start'
p568
S'2'
sS'Won'
p569
S'0'
sS'GfM'
p570
S'0'
sS'Draw'
p571
S'1'
sS'Mat'
p572
S'2'
sS'Conv'
p573
S'0'
sS'Tries'
p574
S'0'
sS'Pts'
p575
S'0'
sa(dp576
S'Pens'
p577
S'0'
sS'Sub'
p578
S'0'
sS'Lost'
p579
S'1'
sS'Drop'
p580
S'0'
sS'Start'
p581
S'2'
sS'Won'
p582
S'0'
sS'GfM'
p583
S'0'
sS'Draw'
p584
S'1'
sS'Mat'
p585
S'2'
sS'Conv'
p586
S'0'
sS'Tries'
p587
S'1'
sS'Pts'
p588
S'3'
sa(dp589
S'Pens'
p590
S'0'
sS'Sub'
p591
S'0'
sS'Lost'
p592
S'1'
sS'Drop'
p593
S'0'
sS'Start'
p594
S'1'
sS'Won'
p595
S'0'
sS'GfM'
p596
S'0'
sS'Draw'
p597
S'0'
sS'Mat'
p598
S'1'
sS'Conv'
p599
S'0'
sS'Tries'
p600
S'0'
sS'Pts'
p601
S'0'
sa(dp602
S'Pens'
p603
S'0'
sS'Sub'
p604
S'0'
sS'Lost'
p605
S'1'
sS'Drop'
p606
S'0'
sS'Start'
p607
S'2'
sS'Won'
p608
S'0'
sS'GfM'
p609
S'0'
sS'Draw'
p610
S'1'
sS'Mat'
p611
S'2'
sS'Conv'
p612
S'0'
sS'Tries'
p613
S'0'
sS'Pts'
p614
S'0'
sa(dp615
S'Pens'
p616
S'0'
sS'Sub'
p617
S'0'
sS'Lost'
p618
S'1'
sS'Drop'
p619
S'0'
sS'Start'
p620
S'2'
sS'Won'
p621
S'0'
sS'GfM'
p622
S'0'
sS'Draw'
p623
S'1'
sS'Mat'
p624
S'2'
sS'Conv'
p625
S'0'
sS'Tries'
p626
S'0'
sS'Pts'
p627
S'0'
sa(dp628
S'Pens'
p629
S'0'
sS'Sub'
p630
S'0'
sS'Lost'
p631
S'1'
sS'Drop'
p632
S'0'
sS'Start'
p633
S'1'
sS'Won'
p634
S'0'
sS'GfM'
p635
S'0'
sS'Draw'
p636
S'0'
sS'Mat'
p637
S'1'
sS'Conv'
p638
S'0'
sS'Tries'
p639
S'0'
sS'Pts'
p640
S'0'
sa(dp641
S'Pens'
p642
S'0'
sS'Sub'
p643
S'0'
sS'Lost'
p644
S'0'
sS'Drop'
p645
S'0'
sS'Start'
p646
S'1'
sS'Won'
p647
S'0'
sS'GfM'
p648
S'0'
sS'Draw'
p649
S'1'
sS'Mat'
p650
S'1'
sS'Conv'
p651
S'0'
sS'Tries'
p652
S'0'
sS'Pts'
p653
S'0'
sa(dp654
S'Pens'
p655
S'0'
sS'Sub'
p656
S'0'
sS'Lost'
p657
S'0'
sS'Drop'
p658
S'0'
sS'Start'
p659
S'1'
sS'Won'
p660
S'0'
sS'GfM'
p661
S'0'
sS'Draw'
p662
S'1'
sS'Mat'
p663
S'1'
sS'Conv'
p664
S'0'
sS'Tries'
p665
S'0'
sS'Pts'
p666
S'0'
sa(dp667
S'Pens'
p668
S'0'
sS'Sub'
p669
S'0'
sS'Lost'
p670
S'0'
sS'Drop'
p671
S'0'
sS'Start'
p672
S'1'
sS'Won'
p673
S'0'
sS'GfM'
p674
S'0'
sS'Draw'
p675
S'1'
sS'Mat'
p676
S'1'
sS'Conv'
p677
S'0'
sS'Tries'
p678
S'0'
sS'Pts'
p679
S'0'
sa(dp680
S'Pens'
p681
S'0'
sS'Sub'
p682
S'0'
sS'Lost'
p683
S'2'
sS'Drop'
p684
S'0'
sS'Start'
p685
S'2'
sS'Won'
p686
S'0'
sS'GfM'
p687
S'0'
sS'Draw'
p688
S'0'
sS'Mat'
p689
S'2'
sS'Conv'
p690
S'0'
sS'Tries'
p691
S'0'
sS'Pts'
p692
S'0'
sa(dp693
S'Pens'
p694
S'0'
sS'Sub'
p695
S'0'
sS'Lost'
p696
S'2'
sS'Drop'
p697
S'0'
sS'Start'
p698
S'2'
sS'Won'
p699
S'0'
sS'GfM'
p700
S'0'
sS'Draw'
p701
S'0'
sS'Mat'
p702
S'2'
sS'Conv'
p703
S'0'
sS'Tries'
p704
S'0'
sS'Pts'
p705
S'0'
sa(dp706
S'Pens'
p707
S'0'
sS'Sub'
p708
S'0'
sS'Lost'
p709
S'4'
sS'Drop'
p710
S'0'
sS'Start'
p711
S'4'
sS'Won'
p712
S'0'
sS'GfM'
p713
S'0'
sS'Draw'
p714
S'0'
sS'Mat'
p715
S'4'
sS'Conv'
p716
S'0'
sS'Tries'
p717
S'0'
sS'Pts'
p718
S'0'
sa(dp719
S'Pens'
p720
S'0'
sS'Sub'
p721
S'0'
sS'Lost'
p722
S'2'
sS'Drop'
p723
S'0'
sS'Start'
p724
S'2'
sS'Won'
p725
S'0'
sS'GfM'
p726
S'0'
sS'Draw'
p727
S'0'
sS'Mat'
p728
S'2'
sS'Conv'
p729
S'0'
sS'Tries'
p730
S'1'
sS'Pts'
p731
S'3'
sa(dp732
S'Pens'
p733
S'0'
sS'Sub'
p734
S'0'
sS'Lost'
p735
S'1'
sS'Drop'
p736
S'0'
sS'Start'
p737
S'1'
sS'Won'
p738
S'0'
sS'GfM'
p739
S'0'
sS'Draw'
p740
S'0'
sS'Mat'
p741
S'1'
sS'Conv'
p742
S'0'
sS'Tries'
p743
S'0'
sS'Pts'
p744
S'0'
sa(dp745
S'Pens'
p746
S'0'
sS'Sub'
p747
S'0'
sS'Lost'
p748
S'1'
sS'Drop'
p749
S'0'
sS'Start'
p750
S'1'
sS'Won'
p751
S'0'
sS'GfM'
p752
S'0'
sS'Draw'
p753
S'0'
sS'Mat'
p754
S'1'
sS'Conv'
p755
S'0'
sS'Tries'
p756
S'0'
sS'Pts'
p757
S'0'
sa(dp758
S'Pens'
p759
S'0'
sS'Sub'
p760
S'0'
sS'Lost'
p761
S'4'
sS'Drop'
p762
S'0'
sS'Start'
p763
S'4'
sS'Won'
p764
S'0'
sS'GfM'
p765
S'0'
sS'Draw'
p766
S'0'
sS'Mat'
p767
S'4'
sS'Conv'
p768
S'0'
sS'Tries'
p769
S'0'
sS'Pts'
p770
S'0'
sa(dp771
S'Pens'
p772
S'0'
sS'Sub'
p773
S'0'
sS'Lost'
p774
S'2'
sS'Drop'
p775
S'0'
sS'Start'
p776
S'2'
sS'Won'
p777
S'0'
sS'GfM'
p778
S'0'
sS'Draw'
p779
S'0'
sS'Mat'
p780
S'2'
sS'Conv'
p781
S'0'
sS'Tries'
p782
S'0'
sS'Pts'
p783
S'0'
sa(dp784
S'Pens'
p785
S'0'
sS'Sub'
p786
S'0'
sS'Lost'
p787
S'1'
sS'Drop'
p788
S'0'
sS'Start'
p789
S'1'
sS'Won'
p790
S'0'
sS'GfM'
p791
S'0'
sS'Draw'
p792
S'0'
sS'Mat'
p793
S'1'
sS'Conv'
p794
S'0'
sS'Tries'
p795
S'0'
sS'Pts'
p796
S'0'
sa(dp797
S'Pens'
p798
S'0'
sS'Sub'
p799
S'0'
sS'Lost'
p800
S'4'
sS'Drop'
p801
S'0'
sS'Start'
p802
S'4'
sS'Won'
p803
S'0'
sS'GfM'
p804
S'0'
sS'Draw'
p805
S'0'
sS'Mat'
p806
S'4'
sS'Conv'
p807
S'0'
sS'Tries'
p808
S'0'
sS'Pts'
p809
S'0'
sa(dp810
S'Pens'
p811
S'0'
sS'Sub'
p812
S'0'
sS'Lost'
p813
S'10'
p814
sS'Drop'
p815
S'0'
sS'Start'
p816
S'10'
p817
sS'Won'
p818
S'0'
sS'GfM'
p819
S'0'
sS'Draw'
p820
S'0'
sS'Mat'
p821
S'10'
p822
sS'Conv'
p823
S'0'
sS'Tries'
p824
S'0'
sS'Pts'
p825
S'0'
sa(dp826
S'Pens'
p827
S'0'
sS'Sub'
p828
S'0'
sS'Lost'
p829
S'2'
sS'Drop'
p830
S'0'
sS'Start'
p831
S'2'
sS'Won'
p832
S'0'
sS'GfM'
p833
S'0'
sS'Draw'
p834
S'0'
sS'Mat'
p835
S'2'
sS'Conv'
p836
S'0'
sS'Tries'
p837
S'0'
sS'Pts'
p838
S'0'
sa(dp839
S'Pens'
p840
S'0'
sS'Sub'
p841
S'0'
sS'Lost'
p842
S'1'
sS'Drop'
p843
S'0'
sS'Start'
p844
S'1'
sS'Won'
p845
S'0'
sS'GfM'
p846
S'0'
sS'Draw'
p847
S'0'
sS'Mat'
p848
S'1'
sS'Conv'
p849
S'0'
sS'Tries'
p850
S'0'
sS'Pts'
p851
S'0'
sa(dp852
S'Pens'
p853
S'0'
sS'Sub'
p854
S'0'
sS'Lost'
p855
S'1'
sS'Drop'
p856
S'0'
sS'Start'
p857
S'1'
sS'Won'
p858
S'0'
sS'GfM'
p859
S'0'
sS'Draw'
p860
S'0'
sS'Mat'
p861
S'1'
sS'Conv'
p862
S'0'
sS'Tries'
p863
S'0'
sS'Pts'
p864
S'0'
sa(dp865
S'Pens'
p866
S'0'
sS'Sub'
p867
S'0'
sS'Lost'
p868
S'2'
sS'Drop'
p869
S'0'
sS'Start'
p870
S'2'
sS'Won'
p871
S'0'
sS'GfM'
p872
S'0'
sS'Draw'
p873
S'0'
sS'Mat'
p874
S'2'
sS'Conv'
p875
S'0'
sS'Tries'
p876
S'0'
sS'Pts'
p877
S'0'
sa(dp878
S'Pens'
p879
S'0'
sS'Sub'
p880
S'0'
sS'Lost'
p881
S'5'
sS'Drop'
p882
S'0'
sS'Start'
p883
S'6'
sS'Won'
p884
S'0'
sS'GfM'
p885
S'0'
sS'Draw'
p886
S'1'
sS'Mat'
p887
S'6'
sS'Conv'
p888
S'0'
sS'Tries'
p889
S'0'
sS'Pts'
p890
S'0'
sa(dp891
S'Pens'
p892
S'2'
sS'Sub'
p893
S'0'
sS'Lost'
p894
S'3'
sS'Drop'
p895
S'0'
sS'Start'
p896
S'3'
sS'Won'
p897
S'0'
sS'GfM'
p898
S'0'
sS'Draw'
p899
S'0'
sS'Mat'
p900
S'3'
sS'Conv'
p901
S'1'
sS'Tries'
p902
S'1'
sS'Pts'
p903
S'11'
p904
sa(dp905
S'Pens'
p906
S'0'
sS'Sub'
p907
S'0'
sS'Lost'
p908
S'3'
sS'Drop'
p909
S'0'
sS'Start'
p910
S'3'
sS'Won'
p911
S'0'
sS'GfM'
p912
S'0'
sS'Draw'
p913
S'0'
sS'Mat'
p914
S'3'
sS'Conv'
p915
S'0'
sS'Tries'
p916
S'0'
sS'Pts'
p917
S'0'
sa(dp918
S'Pens'
p919
S'0'
sS'Sub'
p920
S'0'
sS'Lost'
p921
S'1'
sS'Drop'
p922
S'0'
sS'Start'
p923
S'1'
sS'Won'
p924
S'0'
sS'GfM'
p925
S'0'
sS'Draw'
p926
S'0'
sS'Mat'
p927
S'1'
sS'Conv'
p928
S'0'
sS'Tries'
p929
S'0'
sS'Pts'
p930
S'0'
sa(dp931
S'Pens'
p932
S'0'
sS'Sub'
p933
S'0'
sS'Lost'
p934
S'1'
sS'Drop'
p935
S'0'
sS'Start'
p936
S'1'
sS'Won'
p937
S'0'
sS'GfM'
p938
S'0'
sS'Draw'
p939
S'0'
sS'Mat'
p940
S'1'
sS'Conv'
p941
S'0'
sS'Tries'
p942
S'0'
sS'Pts'
p943
S'0'
sa(dp944
S'Pens'
p945
S'0'
sS'Sub'
p946
S'0'
sS'Lost'
p947
S'11'
p948
sS'Drop'
p949
S'0'
sS'Start'
p950
S'12'
p951
sS'Won'
p952
S'0'
sS'GfM'
p953
S'0'
sS'Draw'
p954
S'1'
sS'Mat'
p955
S'12'
p956
sS'Conv'
p957
S'0'
sS'Tries'
p958
S'3'
sS'Pts'
p959
S'9'
sa(dp960
S'Pens'
p961
S'2'
sS'Sub'
p962
S'0'
sS'Lost'
p963
S'3'
sS'Drop'
p964
S'0'
sS'Start'
p965
S'3'
sS'Won'
p966
S'0'
sS'GfM'
p967
S'0'
sS'Draw'
p968
S'0'
sS'Mat'
p969
S'3'
sS'Conv'
p970
S'0'
sS'Tries'
p971
S'1'
sS'Pts'
p972
S'9'
sa(dp973
S'Pens'
p974
S'0'
sS'Sub'
p975
S'0'
sS'Lost'
p976
S'1'
sS'Drop'
p977
S'0'
sS'Start'
p978
S'1'
sS'Won'
p979
S'0'
sS'GfM'
p980
S'0'
sS'Draw'
p981
S'0'
sS'Mat'
p982
S'1'
sS'Conv'
p983
S'0'
sS'Tries'
p984
S'0'
sS'Pts'
p985
S'0'
sa(dp986
S'Pens'
p987
S'0'
sS'Sub'
p988
S'0'
sS'Lost'
p989
S'2'
sS'Drop'
p990
S'0'
sS'Start'
p991
S'2'
sS'Won'
p992
S'0'
sS'GfM'
p993
S'0'
sS'Draw'
p994
S'0'
sS'Mat'
p995
S'2'
sS'Conv'
p996
S'0'
sS'Tries'
p997
S'1'
sS'Pts'
p998
S'3'
sa(dp999
S'Pens'
p1000
S'0'
sS'Sub'
p1001
S'0'
sS'Lost'
p1002
S'2'
sS'Drop'
p1003
S'0'
sS'Start'
p1004
S'2'
sS'Won'
p1005
S'0'
sS'GfM'
p1006
S'0'
sS'Draw'
p1007
S'0'
sS'Mat'
p1008
S'2'
sS'Conv'
p1009
S'0'
sS'Tries'
p1010
S'0'
sS'Pts'
p1011
S'0'
sa(dp1012
S'Pens'
p1013
S'0'
sS'Sub'
p1014
S'0'
sS'Lost'
p1015
S'4'
sS'Drop'
p1016
S'0'
sS'Start'
p1017
S'4'
sS'Won'
p1018
S'0'
sS'GfM'
p1019
S'0'
sS'Draw'
p1020
S'0'
sS'Mat'
p1021
S'4'
sS'Conv'
p1022
S'0'
sS'Tries'
p1023
S'0'
sS'Pts'
p1024
S'0'
sa(dp1025
S'Pens'
p1026
S'0'
sS'Sub'
p1027
S'0'
sS'Lost'
p1028
S'1'
sS'Drop'
p1029
S'0'
sS'Start'
p1030
S'1'
sS'Won'
p1031
S'0'
sS'GfM'
p1032
S'0'
sS'Draw'
p1033
S'0'
sS'Mat'
p1034
S'1'
sS'Conv'
p1035
S'0'
sS'Tries'
p1036
S'0'
sS'Pts'
p1037
S'0'
sa(dp1038
S'Pens'
p1039
S'0'
sS'Sub'
p1040
S'0'
sS'Lost'
p1041
S'1'
sS'Drop'
p1042
S'0'
sS'Start'
p1043
S'1'
sS'Won'
p1044
S'0'
sS'GfM'
p1045
S'0'
sS'Draw'
p1046
S'0'
sS'Mat'
p1047
S'1'
sS'Conv'
p1048
S'0'
sS'Tries'
p1049
S'0'
sS'Pts'
p1050
S'0'
sa(dp1051
S'Pens'
p1052
S'0'
sS'Sub'
p1053
S'0'
sS'Lost'
p1054
S'2'
sS'Drop'
p1055
S'0'
sS'Start'
p1056
S'2'
sS'Won'
p1057
S'0'
sS'GfM'
p1058
S'0'
sS'Draw'
p1059
S'0'
sS'Mat'
p1060
S'2'
sS'Conv'
p1061
S'0'
sS'Tries'
p1062
S'0'
sS'Pts'
p1063
S'0'
sa(dp1064
S'Pens'
p1065
S'0'
sS'Sub'
p1066
S'0'
sS'Lost'
p1067
S'6'
sS'Drop'
p1068
S'0'
sS'Start'
p1069
S'6'
sS'Won'
p1070
S'0'
sS'GfM'
p1071
S'0'
sS'Draw'
p1072
S'0'
sS'Mat'
p1073
S'6'
sS'Conv'
p1074
S'0'
sS'Tries'
p1075
S'0'
sS'Pts'
p1076
S'0'
sa(dp1077
S'Pens'
p1078
S'2'
sS'Sub'
p1079
S'0'
sS'Lost'
p1080
S'2'
sS'Drop'
p1081
S'0'
sS'Start'
p1082
S'2'
sS'Won'
p1083
S'0'
sS'GfM'
p1084
S'0'
sS'Draw'
p1085
S'0'
sS'Mat'
p1086
S'2'
sS'Conv'
p1087
S'0'
sS'Tries'
p1088
S'0'
sS'Pts'
p1089
S'6'
sa(dp1090
S'Pens'
p1091
S'0'
sS'Sub'
p1092
S'0'
sS'Lost'
p1093
S'4'
sS'Drop'
p1094
S'0'
sS'Start'
p1095
S'4'
sS'Won'
p1096
S'0'
sS'GfM'
p1097
S'0'
sS'Draw'
p1098
S'0'
sS'Mat'
p1099
S'4'
sS'Conv'
p1100
S'0'
sS'Tries'
p1101
S'1'
sS'Pts'
p1102
S'3'
sa(dp1103
S'Pens'
p1104
S'0'
sS'Sub'
p1105
S'0'
sS'Lost'
p1106
S'3'
sS'Drop'
p1107
S'0'
sS'Start'
p1108
S'3'
sS'Won'
p1109
S'0'
sS'GfM'
p1110
S'0'
sS'Draw'
p1111
S'0'
sS'Mat'
p1112
S'3'
sS'Conv'
p1113
S'0'
sS'Tries'
p1114
S'0'
sS'Pts'
p1115
S'0'
sa(dp1116
S'Pens'
p1117
S'0'
sS'Sub'
p1118
S'0'
sS'Lost'
p1119
S'1'
sS'Drop'
p1120
S'0'
sS'Start'
p1121
S'1'
sS'Won'
p1122
S'0'
sS'GfM'
p1123
S'0'
sS'Draw'
p1124
S'0'
sS'Mat'
p1125
S'1'
sS'Conv'
p1126
S'0'
sS'Tries'
p1127
S'0'
sS'Pts'
p1128
S'0'
sa(dp1129
S'Pens'
p1130
S'0'
sS'Sub'
p1131
S'0'
sS'Lost'
p1132
S'6'
sS'Drop'
p1133
S'0'
sS'Start'
p1134
S'6'
sS'Won'
p1135
S'0'
sS'GfM'
p1136
S'0'
sS'Draw'
p1137
S'0'
sS'Mat'
p1138
S'6'
sS'Conv'
p1139
S'0'
sS'Tries'
p1140
S'0'
sS'Pts'
p1141
S'0'
sa(dp1142
S'Pens'
p1143
S'0'
sS'Sub'
p1144
S'0'
sS'Lost'
p1145
S'2'
sS'Drop'
p1146
S'0'
sS'Start'
p1147
S'2'
sS'Won'
p1148
S'0'
sS'GfM'
p1149
S'0'
sS'Draw'
p1150
S'0'
sS'Mat'
p1151
S'2'
sS'Conv'
p1152
S'0'
sS'Tries'
p1153
S'0'
sS'Pts'
p1154
S'0'
sa(dp1155
S'Pens'
p1156
S'0'
sS'Sub'
p1157
S'0'
sS'Lost'
p1158
S'6'
sS'Drop'
p1159
S'0'
sS'Start'
p1160
S'6'
sS'Won'
p1161
S'0'
sS'GfM'
p1162
S'0'
sS'Draw'
p1163
S'0'
sS'Mat'
p1164
S'6'
sS'Conv'
p1165
S'0'
sS'Tries'
p1166
S'0'
sS'Pts'
p1167
S'0'
sa(dp1168
S'Pens'
p1169
S'0'
sS'Sub'
p1170
S'0'
sS'Lost'
p1171
S'9'
sS'Drop'
p1172
S'0'
sS'Start'
p1173
S'11'
p1174
sS'Won'
p1175
S'1'
sS'GfM'
p1176
S'0'
sS'Draw'
p1177
S'1'
sS'Mat'
p1178
S'11'
p1179
sS'Conv'
p1180
S'0'
sS'Tries'
p1181
S'3'
sS'Pts'
p1182
S'9'
sa(dp1183
S'Pens'
p1184
S'0'
sS'Sub'
p1185
S'0'
sS'Lost'
p1186
S'1'
sS'Drop'
p1187
S'0'
sS'Start'
p1188
S'1'
sS'Won'
p1189
S'0'
sS'GfM'
p1190
S'0'
sS'Draw'
p1191
S'0'
sS'Mat'
p1192
S'1'
sS'Conv'
p1193
S'0'
sS'Tries'
p1194
S'0'
sS'Pts'
p1195
S'0'
sa(dp1196
S'Pens'
p1197
S'0'
sS'Sub'
p1198
S'0'
sS'Lost'
p1199
S'1'
sS'Drop'
p1200
S'0'
sS'Start'
p1201
S'1'
sS'Won'
p1202
S'0'
sS'GfM'
p1203
S'0'
sS'Draw'
p1204
S'0'
sS'Mat'
p1205
S'1'
sS'Conv'
p1206
S'0'
sS'Tries'
p1207
S'0'
sS'Pts'
p1208
S'0'
sa(dp1209
S'Pens'
p1210
S'0'
sS'Sub'
p1211
S'0'
sS'Lost'
p1212
S'5'
sS'Drop'
p1213
S'0'
sS'Start'
p1214
S'5'
sS'Won'
p1215
S'0'
sS'GfM'
p1216
S'0'
sS'Draw'
p1217
S'0'
sS'Mat'
p1218
S'5'
sS'Conv'
p1219
S'0'
sS'Tries'
p1220
S'0'
sS'Pts'
p1221
S'0'
sa(dp1222
S'Pens'
p1223
S'0'
sS'Sub'
p1224
S'0'
sS'Lost'
p1225
S'1'
sS'Drop'
p1226
S'0'
sS'Start'
p1227
S'1'
sS'Won'
p1228
S'0'
sS'GfM'
p1229
S'0'
sS'Draw'
p1230
S'0'
sS'Mat'
p1231
S'1'
sS'Conv'
p1232
S'0'
sS'Tries'
p1233
S'1'
sS'Pts'
p1234
S'3'
sa(dp1235
S'Pens'
p1236
S'2'
sS'Sub'
p1237
S'0'
sS'Lost'
p1238
S'5'
sS'Drop'
p1239
S'0'
sS'Start'
p1240
S'6'
sS'Won'
p1241
S'0'
sS'GfM'
p1242
S'0'
sS'Draw'
p1243
S'1'
sS'Mat'
p1244
S'6'
sS'Conv'
p1245
S'0'
sS'Tries'
p1246
S'0'
sS'Pts'
p1247
S'6'
sa(dp1248
S'Pens'
p1249
S'0'
sS'Sub'
p1250
S'0'
sS'Lost'
p1251
S'2'
sS'Drop'
p1252
S'0'
sS'Start'
p1253
S'2'
sS'Won'
p1254
S'0'
sS'GfM'
p1255
S'0'
sS'Draw'
p1256
S'0'
sS'Mat'
p1257
S'2'
sS'Conv'
p1258
S'0'
sS'Tries'
p1259
S'1'
sS'Pts'
p1260
S'3'
sa(dp1261
S'Pens'
p1262
S'0'
sS'Sub'
p1263
S'0'
sS'Lost'
p1264
S'3'
sS'Drop'
p1265
S'0'
sS'Start'
p1266
S'3'
sS'Won'
p1267
S'0'
sS'GfM'
p1268
S'0'
sS'Draw'
p1269
S'0'
sS'Mat'
p1270
S'3'
sS'Conv'
p1271
S'0'
sS'Tries'
p1272
S'0'
sS'Pts'
p1273
S'0'
sa(dp1274
S'Pens'
p1275
S'0'
sS'Sub'
p1276
S'0'
sS'Lost'
p1277
S'1'
sS'Drop'
p1278
S'0'
sS'Start'
p1279
S'1'
sS'Won'
p1280
S'0'
sS'GfM'
p1281
S'0'
sS'Draw'
p1282
S'0'
sS'Mat'
p1283
S'1'
sS'Conv'
p1284
S'0'
sS'Tries'
p1285
S'0'
sS'Pts'
p1286
S'0'
sa(dp1287
S'Pens'
p1288
S'0'
sS'Sub'
p1289
S'0'
sS'Lost'
p1290
S'1'
sS'Drop'
p1291
S'0'
sS'Start'
p1292
S'1'
sS'Won'
p1293
S'0'
sS'GfM'
p1294
S'0'
sS'Draw'
p1295
S'0'
sS'Mat'
p1296
S'1'
sS'Conv'
p1297
S'0'
sS'Tries'
p1298
S'0'
sS'Pts'
p1299
S'0'
sa(dp1300
S'Pens'
p1301
S'0'
sS'Sub'
p1302
S'0'
sS'Lost'
p1303
S'1'
sS'Drop'
p1304
S'0'
sS'Start'
p1305
S'1'
sS'Won'
p1306
S'0'
sS'GfM'
p1307
S'0'
sS'Draw'
p1308
S'0'
sS'Mat'
p1309
S'1'
sS'Conv'
p1310
S'0'
sS'Tries'
p1311
S'0'
sS'Pts'
p1312
S'0'
sa(dp1313
S'Pens'
p1314
S'0'
sS'Sub'
p1315
S'0'
sS'Lost'
p1316
S'4'
sS'Drop'
p1317
S'0'
sS'Start'
p1318
S'6'
sS'Won'
p1319
S'1'
sS'GfM'
p1320
S'0'
sS'Draw'
p1321
S'1'
sS'Mat'
p1322
S'6'
sS'Conv'
p1323
S'4'
sS'Tries'
p1324
S'0'
sS'Pts'
p1325
S'8'
sa(dp1326
S'Pens'
p1327
S'0'
sS'Sub'
p1328
S'0'
sS'Lost'
p1329
S'3'
sS'Drop'
p1330
S'0'
sS'Start'
p1331
S'4'
sS'Won'
p1332
S'0'
sS'GfM'
p1333
S'0'
sS'Draw'
p1334
S'1'
sS'Mat'
p1335
S'4'
sS'Conv'
p1336
S'0'
sS'Tries'
p1337
S'3'
sS'Pts'
p1338
S'9'
sa(dp1339
S'Pens'
p1340
S'0'
sS'Sub'
p1341
S'0'
sS'Lost'
p1342
S'4'
sS'Drop'
p1343
S'0'
sS'Start'
p1344
S'5'
sS'Won'
p1345
S'0'
sS'GfM'
p1346
S'0'
sS'Draw'
p1347
S'1'
sS'Mat'
p1348
S'5'
sS'Conv'
p1349
S'0'
sS'Tries'
p1350
S'1'
sS'Pts'
p1351
S'3'
sa(dp1352
S'Pens'
p1353
S'0'
sS'Sub'
p1354
S'0'
sS'Lost'
p1355
S'4'
sS'Drop'
p1356
S'0'
sS'Start'
p1357
S'5'
sS'Won'
p1358
S'0'
sS'GfM'
p1359
S'0'
sS'Draw'
p1360
S'1'
sS'Mat'
p1361
S'5'
sS'Conv'
p1362
S'0'
sS'Tries'
p1363
S'0'
sS'Pts'
p1364
S'0'
sa(dp1365
S'Pens'
p1366
S'0'
sS'Sub'
p1367
S'0'
sS'Lost'
p1368
S'2'
sS'Drop'
p1369
S'0'
sS'Start'
p1370
S'2'
sS'Won'
p1371
S'0'
sS'GfM'
p1372
S'0'
sS'Draw'
p1373
S'0'
sS'Mat'
p1374
S'2'
sS'Conv'
p1375
S'0'
sS'Tries'
p1376
S'0'
sS'Pts'
p1377
S'0'
sa(dp1378
S'Pens'
p1379
S'0'
sS'Sub'
p1380
S'0'
sS'Lost'
p1381
S'4'
sS'Drop'
p1382
S'0'
sS'Start'
p1383
S'5'
sS'Won'
p1384
S'0'
sS'GfM'
p1385
S'0'
sS'Draw'
p1386
S'1'
sS'Mat'
p1387
S'5'
sS'Conv'
p1388
S'0'
sS'Tries'
p1389
S'0'
sS'Pts'
p1390
S'0'
sa(dp1391
S'Pens'
p1392
S'0'
sS'Sub'
p1393
S'0'
sS'Lost'
p1394
S'3'
sS'Drop'
p1395
S'0'
sS'Start'
p1396
S'3'
sS'Won'
p1397
S'0'
sS'GfM'
p1398
S'0'
sS'Draw'
p1399
S'0'
sS'Mat'
p1400
S'3'
sS'Conv'
p1401
S'0'
sS'Tries'
p1402
S'1'
sS'Pts'
p1403
S'3'
sa(dp1404
S'Pens'
p1405
S'0'
sS'Sub'
p1406
S'0'
sS'Lost'
p1407
S'5'
sS'Drop'
p1408
S'0'
sS'Start'
p1409
S'6'
sS'Won'
p1410
S'0'
sS'GfM'
p1411
S'0'
sS'Draw'
p1412
S'1'
sS'Mat'
p1413
S'6'
sS'Conv'
p1414
S'0'
sS'Tries'
p1415
S'1'
sS'Pts'
p1416
S'3'
sa(dp1417
S'Pens'
p1418
S'0'
sS'Sub'
p1419
S'0'
sS'Lost'
p1420
S'2'
sS'Drop'
p1421
S'0'
sS'Start'
p1422
S'2'
sS'Won'
p1423
S'0'
sS'GfM'
p1424
S'0'
sS'Draw'
p1425
S'0'
sS'Mat'
p1426
S'2'
sS'Conv'
p1427
S'0'
sS'Tries'
p1428
S'0'
sS'Pts'
p1429
S'0'
sa(dp1430
S'Pens'
p1431
S'0'
sS'Sub'
p1432
S'0'
sS'Lost'
p1433
S'2'
sS'Drop'
p1434
S'0'
sS'Start'
p1435
S'2'
sS'Won'
p1436
S'0'
sS'GfM'
p1437
S'0'
sS'Draw'
p1438
S'0'
sS'Mat'
p1439
S'2'
sS'Conv'
p1440
S'0'
sS'Tries'
p1441
S'0'
sS'Pts'
p1442
S'0'
sa(dp1443
S'Pens'
p1444
S'0'
sS'Sub'
p1445
S'0'
sS'Lost'
p1446
S'2'
sS'Drop'
p1447
S'0'
sS'Start'
p1448
S'2'
sS'Won'
p1449
S'0'
sS'GfM'
p1450
S'0'
sS'Draw'
p1451
S'0'
sS'Mat'
p1452
S'2'
sS'Conv'
p1453
S'0'
sS'Tries'
p1454
S'1'
sS'Pts'
p1455
S'3'
sa(dp1456
S'Pens'
p1457
S'2'
sS'Sub'
p1458
S'0'
sS'Lost'
p1459
S'2'
sS'Drop'
p1460
S'0'
sS'Start'
p1461
S'2'
sS'Won'
p1462
S'0'
sS'GfM'
p1463
S'0'
sS'Draw'
p1464
S'0'
sS'Mat'
p1465
S'2'
sS'Conv'
p1466
S'2'
sS'Tries'
p1467
S'0'
sS'Pts'
p1468
S'10'
p1469
sa(dp1470
S'Pens'
p1471
S'2'
sS'Sub'
p1472
S'0'
sS'Lost'
p1473
S'2'
sS'Drop'
p1474
S'0'
sS'Start'
p1475
S'3'
sS'Won'
p1476
S'0'
sS'GfM'
p1477
S'0'
sS'Draw'
p1478
S'1'
sS'Mat'
p1479
S'3'
sS'Conv'
p1480
S'0'
sS'Tries'
p1481
S'0'
sS'Pts'
p1482
S'6'
sa(dp1483
S'Pens'
p1484
S'0'
sS'Sub'
p1485
S'0'
sS'Lost'
p1486
S'2'
sS'Drop'
p1487
S'0'
sS'Start'
p1488
S'2'
sS'Won'
p1489
S'0'
sS'GfM'
p1490
S'0'
sS'Draw'
p1491
S'0'
sS'Mat'
p1492
S'2'
sS'Conv'
p1493
S'0'
sS'Tries'
p1494
S'0'
sS'Pts'
p1495
S'0'
sa(dp1496
S'Pens'
p1497
S'0'
sS'Sub'
p1498
S'0'
sS'Lost'
p1499
S'2'
sS'Drop'
p1500
S'0'
sS'Start'
p1501
S'3'
sS'Won'
p1502
S'0'
sS'GfM'
p1503
S'0'
sS'Draw'
p1504
S'1'
sS'Mat'
p1505
S'3'
sS'Conv'
p1506
S'0'
sS'Tries'
p1507
S'0'
sS'Pts'
p1508
S'0'
sa(dp1509
S'Pens'
p1510
S'0'
sS'Sub'
p1511
S'0'
sS'Lost'
p1512
S'3'
sS'Drop'
p1513
S'0'
sS'Start'
p1514
S'4'
sS'Won'
p1515
S'0'
sS'GfM'
p1516
S'0'
sS'Draw'
p1517
S'1'
sS'Mat'
p1518
S'4'
sS'Conv'
p1519
S'0'
sS'Tries'
p1520
S'0'
sS'Pts'
p1521
S'0'
sa(dp1522
S'Pens'
p1523
S'0'
sS'Sub'
p1524
S'0'
sS'Lost'
p1525
S'2'
sS'Drop'
p1526
S'0'
sS'Start'
p1527
S'3'
sS'Won'
p1528
S'0'
sS'GfM'
p1529
S'0'
sS'Draw'
p1530
S'1'
sS'Mat'
p1531
S'3'
sS'Conv'
p1532
S'0'
sS'Tries'
p1533
S'0'
sS'Pts'
p1534
S'0'
sa(dp1535
S'Pens'
p1536
S'0'
sS'Sub'
p1537
S'0'
sS'Lost'
p1538
S'0'
sS'Drop'
p1539
S'0'
sS'Start'
p1540
S'1'
sS'Won'
p1541
S'0'
sS'GfM'
p1542
S'0'
sS'Draw'
p1543
S'1'
sS'Mat'
p1544
S'1'
sS'Conv'
p1545
S'1'
sS'Tries'
p1546
S'0'
sS'Pts'
p1547
S'2'
sa(dp1548
S'Pens'
p1549
S'0'
sS'Sub'
p1550
S'0'
sS'Lost'
p1551
S'1'
sS'Drop'
p1552
S'0'
sS'Start'
p1553
S'1'
sS'Won'
p1554
S'0'
sS'GfM'
p1555
S'0'
sS'Draw'
p1556
S'0'
sS'Mat'
p1557
S'1'
sS'Conv'
p1558
S'0'
sS'Tries'
p1559
S'0'
sS'Pts'
p1560
S'0'
sa(dp1561
S'Pens'
p1562
S'0'
sS'Sub'
p1563
S'0'
sS'Lost'
p1564
S'1'
sS'Drop'
p1565
S'0'
sS'Start'
p1566
S'1'
sS'Won'
p1567
S'0'
sS'GfM'
p1568
S'0'
sS'Draw'
p1569
S'0'
sS'Mat'
p1570
S'1'
sS'Conv'
p1571
S'0'
sS'Tries'
p1572
S'0'
sS'Pts'
p1573
S'0'
sa(dp1574
S'Pens'
p1575
S'0'
sS'Sub'
p1576
S'0'
sS'Lost'
p1577
S'2'
sS'Drop'
p1578
S'0'
sS'Start'
p1579
S'2'
sS'Won'
p1580
S'0'
sS'GfM'
p1581
S'0'
sS'Draw'
p1582
S'0'
sS'Mat'
p1583
S'2'
sS'Conv'
p1584
S'0'
sS'Tries'
p1585
S'0'
sS'Pts'
p1586
S'0'
sa(dp1587
S'Pens'
p1588
S'0'
sS'Sub'
p1589
S'0'
sS'Lost'
p1590
S'1'
sS'Drop'
p1591
S'0'
sS'Start'
p1592
S'2'
sS'Won'
p1593
S'1'
sS'GfM'
p1594
S'0'
sS'Draw'
p1595
S'0'
sS'Mat'
p1596
S'2'
sS'Conv'
p1597
S'0'
sS'Tries'
p1598
S'0'
sS'Pts'
p1599
S'0'
sa(dp1600
S'Pens'
p1601
S'0'
sS'Sub'
p1602
S'0'
sS'Lost'
p1603
S'1'
sS'Drop'
p1604
S'0'
sS'Start'
p1605
S'1'
sS'Won'
p1606
S'0'
sS'GfM'
p1607
S'0'
sS'Draw'
p1608
S'0'
sS'Mat'
p1609
S'1'
sS'Conv'
p1610
S'0'
sS'Tries'
p1611
S'0'
sS'Pts'
p1612
S'0'
sa(dp1613
S'Pens'
p1614
S'0'
sS'Sub'
p1615
S'0'
sS'Lost'
p1616
S'1'
sS'Drop'
p1617
S'0'
sS'Start'
p1618
S'1'
sS'Won'
p1619
S'0'
sS'GfM'
p1620
S'0'
sS'Draw'
p1621
S'0'
sS'Mat'
p1622
S'1'
sS'Conv'
p1623
S'0'
sS'Tries'
p1624
S'0'
sS'Pts'
p1625
S'0'
sa(dp1626
S'Pens'
p1627
S'0'
sS'Sub'
p1628
S'0'
sS'Lost'
p1629
S'1'
sS'Drop'
p1630
S'0'
sS'Start'
p1631
S'1'
sS'Won'
p1632
S'0'
sS'GfM'
p1633
S'0'
sS'Draw'
p1634
S'0'
sS'Mat'
p1635
S'1'
sS'Conv'
p1636
S'0'
sS'Tries'
p1637
S'0'
sS'Pts'
p1638
S'0'
sa(dp1639
S'Pens'
p1640
S'0'
sS'Sub'
p1641
S'0'
sS'Lost'
p1642
S'3'
sS'Drop'
p1643
S'0'
sS'Start'
p1644
S'5'
sS'Won'
p1645
S'2'
sS'GfM'
p1646
S'0'
sS'Draw'
p1647
S'0'
sS'Mat'
p1648
S'5'
sS'Conv'
p1649
S'0'
sS'Tries'
p1650
S'1'
sS'Pts'
p1651
S'3'
sa(dp1652
S'Pens'
p1653
S'0'
sS'Sub'
p1654
S'1'
sS'Lost'
p1655
S'10'
p1656
sS'Drop'
p1657
S'0'
sS'Start'
p1658
S'18'
p1659
sS'Won'
p1660
S'8'
sS'GfM'
p1661
S'0'
sS'Draw'
p1662
S'1'
sS'Mat'
p1663
S'19'
p1664
sS'Conv'
p1665
S'0'
sS'Tries'
p1666
S'19'
p1667
sS'Pts'
p1668
S'63'
p1669
sa(dp1670
S'Pens'
p1671
S'0'
sS'Sub'
p1672
S'0'
sS'Lost'
p1673
S'0'
sS'Drop'
p1674
S'0'
sS'Start'
p1675
S'1'
sS'Won'
p1676
S'1'
sS'GfM'
p1677
S'0'
sS'Draw'
p1678
S'0'
sS'Mat'
p1679
S'1'
sS'Conv'
p1680
S'0'
sS'Tries'
p1681
S'0'
sS'Pts'
p1682
S'0'
sa(dp1683
S'Pens'
p1684
S'0'
sS'Sub'
p1685
S'0'
sS'Lost'
p1686
S'0'
sS'Drop'
p1687
S'0'
sS'Start'
p1688
S'1'
sS'Won'
p1689
S'1'
sS'GfM'
p1690
S'0'
sS'Draw'
p1691
S'0'
sS'Mat'
p1692
S'1'
sS'Conv'
p1693
S'0'
sS'Tries'
p1694
S'1'
sS'Pts'
p1695
S'3'
sa(dp1696
S'Pens'
p1697
S'0'
sS'Sub'
p1698
S'0'
sS'Lost'
p1699
S'0'
sS'Drop'
p1700
S'0'
sS'Start'
p1701
S'1'
sS'Won'
p1702
S'1'
sS'GfM'
p1703
S'0'
sS'Draw'
p1704
S'0'
sS'Mat'
p1705
S'1'
sS'Conv'
p1706
S'0'
sS'Tries'
p1707
S'0'
sS'Pts'
p1708
S'0'
sa(dp1709
S'Pens'
p1710
S'0'
sS'Sub'
p1711
S'0'
sS'Lost'
p1712
S'0'
sS'Drop'
p1713
S'0'
sS'Start'
p1714
S'1'
sS'Won'
p1715
S'1'
sS'GfM'
p1716
S'0'
sS'Draw'
p1717
S'0'
sS'Mat'
p1718
S'1'
sS'Conv'
p1719
S'0'
sS'Tries'
p1720
S'0'
sS'Pts'
p1721
S'0'
sa(dp1722
S'Pens'
p1723
S'0'
sS'Sub'
p1724
S'0'
sS'Lost'
p1725
S'0'
sS'Drop'
p1726
S'0'
sS'Start'
p1727
S'1'
sS'Won'
p1728
S'1'
sS'GfM'
p1729
S'0'
sS'Draw'
p1730
S'0'
sS'Mat'
p1731
S'1'
sS'Conv'
p1732
S'0'
sS'Tries'
p1733
S'0'
sS'Pts'
p1734
S'0'
sa(dp1735
S'Pens'
p1736
S'0'
sS'Sub'
p1737
S'0'
sS'Lost'
p1738
S'0'
sS'Drop'
p1739
S'0'
sS'Start'
p1740
S'1'
sS'Won'
p1741
S'1'
sS'GfM'
p1742
S'0'
sS'Draw'
p1743
S'0'
sS'Mat'
p1744
S'1'
sS'Conv'
p1745
S'0'
sS'Tries'
p1746
S'0'
sS'Pts'
p1747
S'0'
sa(dp1748
S'Pens'
p1749
S'0'
sS'Sub'
p1750
S'0'
sS'Lost'
p1751
S'1'
sS'Drop'
p1752
S'0'
sS'Start'
p1753
S'2'
sS'Won'
p1754
S'1'
sS'GfM'
p1755
S'0'
sS'Draw'
p1756
S'0'
sS'Mat'
p1757
S'2'
sS'Conv'
p1758
S'0'
sS'Tries'
p1759
S'0'
sS'Pts'
p1760
S'0'
sa(dp1761
S'Pens'
p1762
S'0'
sS'Sub'
p1763
S'0'
sS'Lost'
p1764
S'2'
sS'Drop'
p1765
S'0'
sS'Start'
p1766
S'5'
sS'Won'
p1767
S'3'
sS'GfM'
p1768
S'0'
sS'Draw'
p1769
S'0'
sS'Mat'
p1770
S'5'
sS'Conv'
p1771
S'2'
sS'Tries'
p1772
S'2'
sS'Pts'
p1773
S'10'
p1774
sa(dp1775
S'Pens'
p1776
S'0'
sS'Sub'
p1777
S'0'
sS'Lost'
p1778
S'0'
sS'Drop'
p1779
S'0'
sS'Start'
p1780
S'1'
sS'Won'
p1781
S'1'
sS'GfM'
p1782
S'0'
sS'Draw'
p1783
S'0'
sS'Mat'
p1784
S'1'
sS'Conv'
p1785
S'0'
sS'Tries'
p1786
S'0'
sS'Pts'
p1787
S'0'
sa(dp1788
S'Pens'
p1789
S'0'
sS'Sub'
p1790
S'0'
sS'Lost'
p1791
S'0'
sS'Drop'
p1792
S'0'
sS'Start'
p1793
S'1'
sS'Won'
p1794
S'1'
sS'GfM'
p1795
S'0'
sS'Draw'
p1796
S'0'
sS'Mat'
p1797
S'1'
sS'Conv'
p1798
S'0'
sS'Tries'
p1799
S'0'
sS'Pts'
p1800
S'0'
sa(dp1801
S'Pens'
p1802
S'0'
sS'Sub'
p1803
S'0'
sS'Lost'
p1804
S'9'
sS'Drop'
p1805
S'0'
sS'Start'
p1806
S'14'
p1807
sS'Won'
p1808
S'4'
sS'GfM'
p1809
S'0'
sS'Draw'
p1810
S'1'
sS'Mat'
p1811
S'14'
p1812
sS'Conv'
p1813
S'0'
sS'Tries'
p1814
S'3'
sS'Pts'
p1815
S'10'
p1816
sa(dp1817
S'Pens'
p1818
S'0'
sS'Sub'
p1819
S'0'
sS'Lost'
p1820
S'3'
sS'Drop'
p1821
S'0'
sS'Start'
p1822
S'4'
sS'Won'
p1823
S'1'
sS'GfM'
p1824
S'0'
sS'Draw'
p1825
S'0'
sS'Mat'
p1826
S'4'
sS'Conv'
p1827
S'0'
sS'Tries'
p1828
S'0'
sS'Pts'
p1829
S'0'
sa(dp1830
S'Pens'
p1831
S'0'
sS'Sub'
p1832
S'0'
sS'Lost'
p1833
S'3'
sS'Drop'
p1834
S'0'
sS'Start'
p1835
S'4'
sS'Won'
p1836
S'1'
sS'GfM'
p1837
S'0'
sS'Draw'
p1838
S'0'
sS'Mat'
p1839
S'4'
sS'Conv'
p1840
S'0'
sS'Tries'
p1841
S'0'
sS'Pts'
p1842
S'0'
sa(dp1843
S'Pens'
p1844
S'0'
sS'Sub'
p1845
S'0'
sS'Lost'
p1846
S'1'
sS'Drop'
p1847
S'0'
sS'Start'
p1848
S'1'
sS'Won'
p1849
S'0'
sS'GfM'
p1850
S'0'
sS'Draw'
p1851
S'0'
sS'Mat'
p1852
S'1'
sS'Conv'
p1853
S'0'
sS'Tries'
p1854
S'0'
sS'Pts'
p1855
S'0'
sa(dp1856
S'Pens'
p1857
S'0'
sS'Sub'
p1858
S'0'
sS'Lost'
p1859
S'4'
sS'Drop'
p1860
S'0'
sS'Start'
p1861
S'5'
sS'Won'
p1862
S'1'
sS'GfM'
p1863
S'0'
sS'Draw'
p1864
S'0'
sS'Mat'
p1865
S'5'
sS'Conv'
p1866
S'0'
sS'Tries'
p1867
S'0'
sS'Pts'
p1868
S'0'
sa(dp1869
S'Pens'
p1870
S'2'
sS'Sub'
p1871
S'0'
sS'Lost'
p1872
S'3'
sS'Drop'
p1873
S'0'
sS'Start'
p1874
S'5'
sS'Won'
p1875
S'2'
sS'GfM'
p1876
S'0'
sS'Draw'
p1877
S'0'
sS'Mat'
p1878
S'5'
sS'Conv'
p1879
S'1'
sS'Tries'
p1880
S'0'
sS'Pts'
p1881
S'8'
sa(dp1882
S'Pens'
p1883
S'0'
sS'Sub'
p1884
S'0'
sS'Lost'
p1885
S'5'
sS'Drop'
p1886
S'0'
sS'Start'
p1887
S'7'
sS'Won'
p1888
S'2'
sS'GfM'
p1889
S'0'
sS'Draw'
p1890
S'0'
sS'Mat'
p1891
S'7'
sS'Conv'
p1892
S'0'
sS'Tries'
p1893
S'0'
sS'Pts'
p1894
S'0'
sa(dp1895
S'Pens'
p1896
S'0'
sS'Sub'
p1897
S'0'
sS'Lost'
p1898
S'2'
sS'Drop'
p1899
S'0'
sS'Start'
p1900
S'3'
sS'Won'
p1901
S'1'
sS'GfM'
p1902
S'0'
sS'Draw'
p1903
S'0'
sS'Mat'
p1904
S'3'
sS'Conv'
p1905
S'0'
sS'Tries'
p1906
S'1'
sS'Pts'
p1907
S'3'
sa(dp1908
S'Pens'
p1909
S'0'
sS'Sub'
p1910
S'0'
sS'Lost'
p1911
S'11'
p1912
sS'Drop'
p1913
S'0'
sS'Start'
p1914
S'16'
p1915
sS'Won'
p1916
S'5'
sS'GfM'
p1917
S'0'
sS'Draw'
p1918
S'0'
sS'Mat'
p1919
S'16'
p1920
sS'Conv'
p1921
S'0'
sS'Tries'
p1922
S'13'
p1923
sS'Pts'
p1924
S'40'
p1925
sa(dp1926
S'Pens'
p1927
S'0'
sS'Sub'
p1928
S'0'
sS'Lost'
p1929
S'2'
sS'Drop'
p1930
S'0'
sS'Start'
p1931
S'2'
sS'Won'
p1932
S'0'
sS'GfM'
p1933
S'0'
sS'Draw'
p1934
S'0'
sS'Mat'
p1935
S'2'
sS'Conv'
p1936
S'0'
sS'Tries'
p1937
S'0'
sS'Pts'
p1938
S'0'
sa(dp1939
S'Pens'
p1940
S'18'
p1941
sS'Sub'
p1942
S'0'
sS'Lost'
p1943
S'8'
sS'Drop'
p1944
S'0'
sS'Start'
p1945
S'13'
p1946
sS'Won'
p1947
S'4'
sS'GfM'
p1948
S'0'
sS'Draw'
p1949
S'1'
sS'Mat'
p1950
S'13'
p1951
sS'Conv'
p1952
S'17'
p1953
sS'Tries'
p1954
S'2'
sS'Pts'
p1955
S'94'
p1956
sa(dp1957
S'Pens'
p1958
S'1'
sS'Sub'
p1959
S'0'
sS'Lost'
p1960
S'11'
p1961
sS'Drop'
p1962
S'0'
sS'Start'
p1963
S'17'
p1964
sS'Won'
p1965
S'5'
sS'GfM'
p1966
S'0'
sS'Draw'
p1967
S'1'
sS'Mat'
p1968
S'17'
p1969
sS'Conv'
p1970
S'1'
sS'Tries'
p1971
S'1'
sS'Pts'
p1972
S'8'
sa(dp1973
S'Pens'
p1974
S'0'
sS'Sub'
p1975
S'0'
sS'Lost'
p1976
S'1'
sS'Drop'
p1977
S'0'
sS'Start'
p1978
S'1'
sS'Won'
p1979
S'0'
sS'GfM'
p1980
S'0'
sS'Draw'
p1981
S'0'
sS'Mat'
p1982
S'1'
sS'Conv'
p1983
S'0'
sS'Tries'
p1984
S'0'
sS'Pts'
p1985
S'0'
sa(dp1986
S'Pens'
p1987
S'0'
sS'Sub'
p1988
S'0'
sS'Lost'
p1989
S'1'
sS'Drop'
p1990
S'0'
sS'Start'
p1991
S'1'
sS'Won'
p1992
S'0'
sS'GfM'
p1993
S'0'
sS'Draw'
p1994
S'0'
sS'Mat'
p1995
S'1'
sS'Conv'
p1996
S'0'
sS'Tries'
p1997
S'0'
sS'Pts'
p1998
S'0'
sa(dp1999
S'Pens'
p2000
S'0'
sS'Sub'
p2001
S'0'
sS'Lost'
p2002
S'1'
sS'Drop'
p2003
S'0'
sS'Start'
p2004
S'1'
sS'Won'
p2005
S'0'
sS'GfM'
p2006
S'0'
sS'Draw'
p2007
S'0'
sS'Mat'
p2008
S'1'
sS'Conv'
p2009
S'0'
sS'Tries'
p2010
S'0'
sS'Pts'
p2011
S'0'
sa(dp2012
S'Pens'
p2013
S'0'
sS'Sub'
p2014
S'0'
sS'Lost'
p2015
S'1'
sS'Drop'
p2016
S'0'
sS'Start'
p2017
S'1'
sS'Won'
p2018
S'0'
sS'GfM'
p2019
S'0'
sS'Draw'
p2020
S'0'
sS'Mat'
p2021
S'1'
sS'Conv'
p2022
S'0'
sS'Tries'
p2023
S'0'
sS'Pts'
p2024
S'0'
sa(dp2025
S'Pens'
p2026
S'0'
sS'Sub'
p2027
S'0'
sS'Lost'
p2028
S'1'
sS'Drop'
p2029
S'0'
sS'Start'
p2030
S'1'
sS'Won'
p2031
S'0'
sS'GfM'
p2032
S'0'
sS'Draw'
p2033
S'0'
sS'Mat'
p2034
S'1'
sS'Conv'
p2035
S'0'
sS'Tries'
p2036
S'1'
sS'Pts'
p2037
S'3'
sa(dp2038
S'Pens'
p2039
S'0'
sS'Sub'
p2040
S'0'
sS'Lost'
p2041
S'1'
sS'Drop'
p2042
S'0'
sS'Start'
p2043
S'1'
sS'Won'
p2044
S'0'
sS'GfM'
p2045
S'0'
sS'Draw'
p2046
S'0'
sS'Mat'
p2047
S'1'
sS'Conv'
p2048
S'0'
sS'Tries'
p2049
S'0'
sS'Pts'
p2050
S'0'
sa(dp2051
S'Pens'
p2052
S'0'
sS'Sub'
p2053
S'0'
sS'Lost'
p2054
S'1'
sS'Drop'
p2055
S'0'
sS'Start'
p2056
S'1'
sS'Won'
p2057
S'0'
sS'GfM'
p2058
S'0'
sS'Draw'
p2059
S'0'
sS'Mat'
p2060
S'1'
sS'Conv'
p2061
S'0'
sS'Tries'
p2062
S'0'
sS'Pts'
p2063
S'0'
sa(dp2064
S'Pens'
p2065
S'0'
sS'Sub'
p2066
S'0'
sS'Lost'
p2067
S'1'
sS'Drop'
p2068
S'0'
sS'Start'
p2069
S'1'
sS'Won'
p2070
S'0'
sS'GfM'
p2071
S'0'
sS'Draw'
p2072
S'0'
sS'Mat'
p2073
S'1'
sS'Conv'
p2074
S'0'
sS'Tries'
p2075
S'0'
sS'Pts'
p2076
S'0'
sa(dp2077
S'Pens'
p2078
S'0'
sS'Sub'
p2079
S'0'
sS'Lost'
p2080
S'5'
sS'Drop'
p2081
S'0'
sS'Start'
p2082
S'12'
p2083
sS'Won'
p2084
S'6'
sS'GfM'
p2085
S'0'
sS'Draw'
p2086
S'1'
sS'Mat'
p2087
S'12'
p2088
sS'Conv'
p2089
S'0'
sS'Tries'
p2090
S'0'
sS'Pts'
p2091
S'0'
sa(dp2092
S'Pens'
p2093
S'0'
sS'Sub'
p2094
S'0'
sS'Lost'
p2095
S'16'
p2096
sS'Drop'
p2097
S'0'
sS'Start'
p2098
S'24'
p2099
sS'Won'
p2100
S'7'
sS'GfM'
p2101
S'0'
sS'Draw'
p2102
S'1'
sS'Mat'
p2103
S'24'
p2104
sS'Conv'
p2105
S'0'
sS'Tries'
p2106
S'2'
sS'Pts'
p2107
S'8'
sa(dp2108
S'Pens'
p2109
S'1'
sS'Sub'
p2110
S'0'
sS'Lost'
p2111
S'6'
sS'Drop'
p2112
S'0'
sS'Start'
p2113
S'13'
p2114
sS'Won'
p2115
S'6'
sS'GfM'
p2116
S'0'
sS'Draw'
p2117
S'1'
sS'Mat'
p2118
S'13'
p2119
sS'Conv'
p2120
S'1'
sS'Tries'
p2121
S'2'
sS'Pts'
p2122
S'11'
p2123
sa(dp2124
S'Pens'
p2125
S'0'
sS'Sub'
p2126
S'0'
sS'Lost'
p2127
S'16'
p2128
sS'Drop'
p2129
S'0'
sS'Start'
p2130
S'24'
p2131
sS'Won'
p2132
S'7'
sS'GfM'
p2133
S'0'
sS'Draw'
p2134
S'1'
sS'Mat'
p2135
S'24'
p2136
sS'Conv'
p2137
S'0'
sS'Tries'
p2138
S'0'
sS'Pts'
p2139
S'0'
sa(dp2140
S'Pens'
p2141
S'0'
sS'Sub'
p2142
S'0'
sS'Lost'
p2143
S'1'
sS'Drop'
p2144
S'0'
sS'Start'
p2145
S'3'
sS'Won'
p2146
S'2'
sS'GfM'
p2147
S'0'
sS'Draw'
p2148
S'0'
sS'Mat'
p2149
S'3'
sS'Conv'
p2150
S'0'
sS'Tries'
p2151
S'0'
sS'Pts'
p2152
S'0'
sa(dp2153
S'Pens'
p2154
S'0'
sS'Sub'
p2155
S'0'
sS'Lost'
p2156
S'17'
p2157
sS'Drop'
p2158
S'0'
sS'Start'
p2159
S'24'
p2160
sS'Won'
p2161
S'6'
sS'GfM'
p2162
S'0'
sS'Draw'
p2163
S'1'
sS'Mat'
p2164
S'24'
p2165
sS'Conv'
p2166
S'0'
sS'Tries'
p2167
S'0'
sS'Pts'
p2168
S'0'
sa(dp2169
S'Pens'
p2170
S'0'
sS'Sub'
p2171
S'0'
sS'Lost'
p2172
S'0'
sS'Drop'
p2173
S'0'
sS'Start'
p2174
S'1'
sS'Won'
p2175
S'1'
sS'GfM'
p2176
S'0'
sS'Draw'
p2177
S'0'
sS'Mat'
p2178
S'1'
sS'Conv'
p2179
S'0'
sS'Tries'
p2180
S'0'
sS'Pts'
p2181
S'0'
sa(dp2182
S'Pens'
p2183
S'0'
sS'Sub'
p2184
S'0'
sS'Lost'
p2185
S'0'
sS'Drop'
p2186
S'0'
sS'Start'
p2187
S'1'
sS'Won'
p2188
S'1'
sS'GfM'
p2189
S'0'
sS'Draw'
p2190
S'0'
sS'Mat'
p2191
S'1'
sS'Conv'
p2192
S'0'
sS'Tries'
p2193
S'0'
sS'Pts'
p2194
S'0'
sa(dp2195
S'Pens'
p2196
S'0'
sS'Sub'
p2197
S'0'
sS'Lost'
p2198
S'0'
sS'Drop'
p2199
S'0'
sS'Start'
p2200
S'1'
sS'Won'
p2201
S'1'
sS'GfM'
p2202
S'0'
sS'Draw'
p2203
S'0'
sS'Mat'
p2204
S'1'
sS'Conv'
p2205
S'0'
sS'Tries'
p2206
S'0'
sS'Pts'
p2207
S'0'
sa(dp2208
S'Pens'
p2209
S'0'
sS'Sub'
p2210
S'0'
sS'Lost'
p2211
S'13'
p2212
sS'Drop'
p2213
S'0'
sS'Start'
p2214
S'21'
p2215
sS'Won'
p2216
S'7'
sS'GfM'
p2217
S'0'
sS'Draw'
p2218
S'1'
sS'Mat'
p2219
S'21'
p2220
sS'Conv'
p2221
S'0'
sS'Tries'
p2222
S'0'
sS'Pts'
p2223
S'0'
sa(dp2224
S'Pens'
p2225
S'0'
sS'Sub'
p2226
S'0'
sS'Lost'
p2227
S'0'
sS'Drop'
p2228
S'0'
sS'Start'
p2229
S'1'
sS'Won'
p2230
S'1'
sS'GfM'
p2231
S'0'
sS'Draw'
p2232
S'0'
sS'Mat'
p2233
S'1'
sS'Conv'
p2234
S'0'
sS'Tries'
p2235
S'0'
sS'Pts'
p2236
S'0'
sa(dp2237
S'Pens'
p2238
S'0'
sS'Sub'
p2239
S'0'
sS'Lost'
p2240
S'2'
sS'Drop'
p2241
S'0'
sS'Start'
p2242
S'3'
sS'Won'
p2243
S'1'
sS'GfM'
p2244
S'0'
sS'Draw'
p2245
S'0'
sS'Mat'
p2246
S'3'
sS'Conv'
p2247
S'0'
sS'Tries'
p2248
S'0'
sS'Pts'
p2249
S'0'
sa(dp2250
S'Pens'
p2251
S'0'
sS'Sub'
p2252
S'0'
sS'Lost'
p2253
S'1'
sS'Drop'
p2254
S'0'
sS'Start'
p2255
S'4'
sS'Won'
p2256
S'2'
sS'GfM'
p2257
S'0'
sS'Draw'
p2258
S'1'
sS'Mat'
p2259
S'4'
sS'Conv'
p2260
S'0'
sS'Tries'
p2261
S'4'
sS'Pts'
p2262
S'14'
p2263
sa(dp2264
S'Pens'
p2265
S'1'
sS'Sub'
p2266
S'2'
sS'Lost'
p2267
S'6'
sS'Drop'
p2268
S'0'
sS'Start'
p2269
S'8'
sS'Won'
p2270
S'3'
sS'GfM'
p2271
S'0'
sS'Draw'
p2272
S'1'
sS'Mat'
p2273
S'10'
p2274
sS'Conv'
p2275
S'0'
sS'Tries'
p2276
S'2'
sS'Pts'
p2277
S'10'
p2278
sa(dp2279
S'Pens'
p2280
S'0'
sS'Sub'
p2281
S'0'
sS'Lost'
p2282
S'7'
sS'Drop'
p2283
S'0'
sS'Start'
p2284
S'11'
p2285
sS'Won'
p2286
S'3'
sS'GfM'
p2287
S'0'
sS'Draw'
p2288
S'1'
sS'Mat'
p2289
S'11'
p2290
sS'Conv'
p2291
S'0'
sS'Tries'
p2292
S'0'
sS'Pts'
p2293
S'0'
sa(dp2294
S'Pens'
p2295
S'0'
sS'Sub'
p2296
S'0'
sS'Lost'
p2297
S'2'
sS'Drop'
p2298
S'0'
sS'Start'
p2299
S'3'
sS'Won'
p2300
S'1'
sS'GfM'
p2301
S'0'
sS'Draw'
p2302
S'0'
sS'Mat'
p2303
S'3'
sS'Conv'
p2304
S'0'
sS'Tries'
p2305
S'0'
sS'Pts'
p2306
S'0'
sa(dp2307
S'Pens'
p2308
S'0'
sS'Sub'
p2309
S'1'
sS'Lost'
p2310
S'2'
sS'Drop'
p2311
S'0'
sS'Start'
p2312
S'1'
sS'Won'
p2313
S'0'
sS'GfM'
p2314
S'0'
sS'Draw'
p2315
S'0'
sS'Mat'
p2316
S'2'
sS'Conv'
p2317
S'0'
sS'Tries'
p2318
S'0'
sS'Pts'
p2319
S'0'
sa(dp2320
S'Pens'
p2321
S'0'
sS'Sub'
p2322
S'1'
sS'Lost'
p2323
S'11'
p2324
sS'Drop'
p2325
S'0'
sS'Start'
p2326
S'16'
p2327
sS'Won'
p2328
S'5'
sS'GfM'
p2329
S'0'
sS'Draw'
p2330
S'1'
sS'Mat'
p2331
S'17'
p2332
sS'Conv'
p2333
S'0'
sS'Tries'
p2334
S'1'
sS'Pts'
p2335
S'4'
sa(dp2336
S'Pens'
p2337
S'0'
sS'Sub'
p2338
S'1'
sS'Lost'
p2339
S'6'
sS'Drop'
p2340
S'0'
sS'Start'
p2341
S'8'
sS'Won'
p2342
S'3'
sS'GfM'
p2343
S'0'
sS'Draw'
p2344
S'0'
sS'Mat'
p2345
S'9'
sS'Conv'
p2346
S'0'
sS'Tries'
p2347
S'0'
sS'Pts'
p2348
S'0'
sa(dp2349
S'Pens'
p2350
S'0'
sS'Sub'
p2351
S'0'
sS'Lost'
p2352
S'2'
sS'Drop'
p2353
S'0'
sS'Start'
p2354
S'4'
sS'Won'
p2355
S'2'
sS'GfM'
p2356
S'0'
sS'Draw'
p2357
S'0'
sS'Mat'
p2358
S'4'
sS'Conv'
p2359
S'0'
sS'Tries'
p2360
S'0'
sS'Pts'
p2361
S'0'
sa(dp2362
S'Pens'
p2363
S'0'
sS'Sub'
p2364
S'0'
sS'Lost'
p2365
S'5'
sS'Drop'
p2366
S'0'
sS'Start'
p2367
S'11'
p2368
sS'Won'
p2369
S'5'
sS'GfM'
p2370
S'0'
sS'Draw'
p2371
S'1'
sS'Mat'
p2372
S'11'
p2373
sS'Conv'
p2374
S'0'
sS'Tries'
p2375
S'7'
sS'Pts'
p2376
S'28'
p2377
sa(dp2378
S'Pens'
p2379
S'0'
sS'Sub'
p2380
S'0'
sS'Lost'
p2381
S'0'
sS'Drop'
p2382
S'0'
sS'Start'
p2383
S'1'
sS'Won'
p2384
S'1'
sS'GfM'
p2385
S'0'
sS'Draw'
p2386
S'0'
sS'Mat'
p2387
S'1'
sS'Conv'
p2388
S'0'
sS'Tries'
p2389
S'0'
sS'Pts'
p2390
S'0'
sa(dp2391
S'Pens'
p2392
S'0'
sS'Sub'
p2393
S'1'
sS'Lost'
p2394
S'8'
sS'Drop'
p2395
S'0'
sS'Start'
p2396
S'9'
sS'Won'
p2397
S'2'
sS'GfM'
p2398
S'0'
sS'Draw'
p2399
S'0'
sS'Mat'
p2400
S'10'
p2401
sS'Conv'
p2402
S'0'
sS'Tries'
p2403
S'0'
sS'Pts'
p2404
S'0'
sa(dp2405
S'Pens'
p2406
S'0'
sS'Sub'
p2407
S'0'
sS'Lost'
p2408
S'17'
p2409
sS'Drop'
p2410
S'0'
sS'Start'
p2411
S'22'
p2412
sS'Won'
p2413
S'4'
sS'GfM'
p2414
S'0'
sS'Draw'
p2415
S'1'
sS'Mat'
p2416
S'22'
p2417
sS'Conv'
p2418
S'0'
sS'Tries'
p2419
S'12'
p2420
sS'Pts'
p2421
S'48'
p2422
sa(dp2423
S'Pens'
p2424
S'0'
sS'Sub'
p2425
S'0'
sS'Lost'
p2426
S'4'
sS'Drop'
p2427
S'0'
sS'Start'
p2428
S'6'
sS'Won'
p2429
S'2'
sS'GfM'
p2430
S'0'
sS'Draw'
p2431
S'0'
sS'Mat'
p2432
S'6'
sS'Conv'
p2433
S'0'
sS'Tries'
p2434
S'1'
sS'Pts'
p2435
S'4'
sa(dp2436
S'Pens'
p2437
S'2'
sS'Sub'
p2438
S'0'
sS'Lost'
p2439
S'1'
sS'Drop'
p2440
S'0'
sS'Start'
p2441
S'1'
sS'Won'
p2442
S'0'
sS'GfM'
p2443
S'0'
sS'Draw'
p2444
S'0'
sS'Mat'
p2445
S'1'
sS'Conv'
p2446
S'0'
sS'Tries'
p2447
S'0'
sS'Pts'
p2448
S'6'
sa(dp2449
S'Pens'
p2450
S'0'
sS'Sub'
p2451
S'0'
sS'Lost'
p2452
S'2'
sS'Drop'
p2453
S'0'
sS'Start'
p2454
S'2'
sS'Won'
p2455
S'0'
sS'GfM'
p2456
S'0'
sS'Draw'
p2457
S'0'
sS'Mat'
p2458
S'2'
sS'Conv'
p2459
S'0'
sS'Tries'
p2460
S'0'
sS'Pts'
p2461
S'0'
sa(dp2462
S'Pens'
p2463
S'0'
sS'Sub'
p2464
S'0'
sS'Lost'
p2465
S'1'
sS'Drop'
p2466
S'0'
sS'Start'
p2467
S'1'
sS'Won'
p2468
S'0'
sS'GfM'
p2469
S'0'
sS'Draw'
p2470
S'0'
sS'Mat'
p2471
S'1'
sS'Conv'
p2472
S'0'
sS'Tries'
p2473
S'0'
sS'Pts'
p2474
S'0'
sa(dp2475
S'Pens'
p2476
S'0'
sS'Sub'
p2477
S'1'
sS'Lost'
p2478
S'11'
p2479
sS'Drop'
p2480
S'0'
sS'Start'
p2481
S'12'
p2482
sS'Won'
p2483
S'2'
sS'GfM'
p2484
S'0'
sS'Draw'
p2485
S'0'
sS'Mat'
p2486
S'13'
p2487
sS'Conv'
p2488
S'0'
sS'Tries'
p2489
S'0'
sS'Pts'
p2490
S'0'
sa(dp2491
S'Pens'
p2492
S'0'
sS'Sub'
p2493
S'0'
sS'Lost'
p2494
S'1'
sS'Drop'
p2495
S'0'
sS'Start'
p2496
S'2'
sS'Won'
p2497
S'1'
sS'GfM'
p2498
S'0'
sS'Draw'
p2499
S'0'
sS'Mat'
p2500
S'2'
sS'Conv'
p2501
S'0'
sS'Tries'
p2502
S'0'
sS'Pts'
p2503
S'0'
sa(dp2504
S'Pens'
p2505
S'16'
p2506
sS'Sub'
p2507
S'0'
sS'Lost'
p2508
S'15'
p2509
sS'Drop'
p2510
S'1'
sS'Start'
p2511
S'20'
p2512
sS'Won'
p2513
S'5'
sS'GfM'
p2514
S'0'
sS'Draw'
p2515
S'0'
sS'Mat'
p2516
S'20'
p2517
sS'Conv'
p2518
S'14'
p2519
sS'Tries'
p2520
S'5'
sS'Pts'
p2521
S'99'
p2522
sa(dp2523
S'Pens'
p2524
S'0'
sS'Sub'
p2525
S'0'
sS'Lost'
p2526
S'6'
sS'Drop'
p2527
S'1'
sS'Start'
p2528
S'8'
sS'Won'
p2529
S'2'
sS'GfM'
p2530
S'0'
sS'Draw'
p2531
S'0'
sS'Mat'
p2532
S'8'
sS'Conv'
p2533
S'0'
sS'Tries'
p2534
S'0'
sS'Pts'
p2535
S'3'
sa(dp2536
S'Pens'
p2537
S'0'
sS'Sub'
p2538
S'0'
sS'Lost'
p2539
S'13'
p2540
sS'Drop'
p2541
S'0'
sS'Start'
p2542
S'15'
p2543
sS'Won'
p2544
S'2'
sS'GfM'
p2545
S'0'
sS'Draw'
p2546
S'0'
sS'Mat'
p2547
S'15'
p2548
sS'Conv'
p2549
S'0'
sS'Tries'
p2550
S'6'
sS'Pts'
p2551
S'24'
p2552
sa(dp2553
S'Pens'
p2554
S'0'
sS'Sub'
p2555
S'1'
sS'Lost'
p2556
S'17'
p2557
sS'Drop'
p2558
S'0'
sS'Start'
p2559
S'27'
p2560
sS'Won'
p2561
S'10'
p2562
sS'GfM'
p2563
S'0'
sS'Draw'
p2564
S'1'
sS'Mat'
p2565
S'28'
p2566
sS'Conv'
p2567
S'0'
sS'Tries'
p2568
S'2'
sS'Pts'
p2569
S'8'
sa(dp2570
S'Pens'
p2571
S'0'
sS'Sub'
p2572
S'0'
sS'Lost'
p2573
S'15'
p2574
sS'Drop'
p2575
S'0'
sS'Start'
p2576
S'18'
p2577
sS'Won'
p2578
S'3'
sS'GfM'
p2579
S'0'
sS'Draw'
p2580
S'0'
sS'Mat'
p2581
S'18'
p2582
sS'Conv'
p2583
S'0'
sS'Tries'
p2584
S'0'
sS'Pts'
p2585
S'0'
sa(dp2586
S'Pens'
p2587
S'0'
sS'Sub'
p2588
S'0'
sS'Lost'
p2589
S'20'
p2590
sS'Drop'
p2591
S'0'
sS'Start'
p2592
S'27'
p2593
sS'Won'
p2594
S'6'
sS'GfM'
p2595
S'0'
sS'Draw'
p2596
S'1'
sS'Mat'
p2597
S'27'
p2598
sS'Conv'
p2599
S'0'
sS'Tries'
p2600
S'5'
sS'Pts'
p2601
S'20'
p2602
sa(dp2603
S'Pens'
p2604
S'0'
sS'Sub'
p2605
S'0'
sS'Lost'
p2606
S'14'
p2607
sS'Drop'
p2608
S'0'
sS'Start'
p2609
S'18'
p2610
sS'Won'
p2611
S'4'
sS'GfM'
p2612
S'0'
sS'Draw'
p2613
S'0'
sS'Mat'
p2614
S'18'
p2615
sS'Conv'
p2616
S'0'
sS'Tries'
p2617
S'3'
sS'Pts'
p2618
S'12'
p2619
sa(dp2620
S'Pens'
p2621
S'0'
sS'Sub'
p2622
S'0'
sS'Lost'
p2623
S'1'
sS'Drop'
p2624
S'0'
sS'Start'
p2625
S'2'
sS'Won'
p2626
S'1'
sS'GfM'
p2627
S'0'
sS'Draw'
p2628
S'0'
sS'Mat'
p2629
S'2'
sS'Conv'
p2630
S'1'
sS'Tries'
p2631
S'1'
sS'Pts'
p2632
S'6'
sa(dp2633
S'Pens'
p2634
S'0'
sS'Sub'
p2635
S'0'
sS'Lost'
p2636
S'0'
sS'Drop'
p2637
S'0'
sS'Start'
p2638
S'1'
sS'Won'
p2639
S'1'
sS'GfM'
p2640
S'0'
sS'Draw'
p2641
S'0'
sS'Mat'
p2642
S'1'
sS'Conv'
p2643
S'0'
sS'Tries'
p2644
S'1'
sS'Pts'
p2645
S'4'
sa(dp2646
S'Pens'
p2647
S'0'
sS'Sub'
p2648
S'0'
sS'Lost'
p2649
S'0'
sS'Drop'
p2650
S'0'
sS'Start'
p2651
S'1'
sS'Won'
p2652
S'1'
sS'GfM'
p2653
S'0'
sS'Draw'
p2654
S'0'
sS'Mat'
p2655
S'1'
sS'Conv'
p2656
S'0'
sS'Tries'
p2657
S'1'
sS'Pts'
p2658
S'4'
sa(dp2659
S'Pens'
p2660
S'14'
p2661
sS'Sub'
p2662
S'0'
sS'Lost'
p2663
S'15'
p2664
sS'Drop'
p2665
S'3'
sS'Start'
p2666
S'24'
p2667
sS'Won'
p2668
S'8'
sS'GfM'
p2669
S'0'
sS'Draw'
p2670
S'1'
sS'Mat'
p2671
S'24'
p2672
sS'Conv'
p2673
S'5'
sS'Tries'
p2674
S'3'
sS'Pts'
p2675
S'73'
p2676
sa(dp2677
S'Pens'
p2678
S'8'
sS'Sub'
p2679
S'4'
sS'Lost'
p2680
S'10'
p2681
sS'Drop'
p2682
S'0'
sS'Start'
p2683
S'11'
p2684
sS'Won'
p2685
S'5'
sS'GfM'
p2686
S'0'
sS'Draw'
p2687
S'0'
sS'Mat'
p2688
S'15'
p2689
sS'Conv'
p2690
S'6'
sS'Tries'
p2691
S'2'
sS'Pts'
p2692
S'44'
p2693
sa(dp2694
S'Pens'
p2695
S'0'
sS'Sub'
p2696
S'0'
sS'Lost'
p2697
S'0'
sS'Drop'
p2698
S'0'
sS'Start'
p2699
S'1'
sS'Won'
p2700
S'1'
sS'GfM'
p2701
S'0'
sS'Draw'
p2702
S'0'
sS'Mat'
p2703
S'1'
sS'Conv'
p2704
S'0'
sS'Tries'
p2705
S'0'
sS'Pts'
p2706
S'0'
sa(dp2707
S'Pens'
p2708
S'0'
sS'Sub'
p2709
S'0'
sS'Lost'
p2710
S'0'
sS'Drop'
p2711
S'0'
sS'Start'
p2712
S'1'
sS'Won'
p2713
S'1'
sS'GfM'
p2714
S'0'
sS'Draw'
p2715
S'0'
sS'Mat'
p2716
S'1'
sS'Conv'
p2717
S'0'
sS'Tries'
p2718
S'0'
sS'Pts'
p2719
S'0'
sa(dp2720
S'Pens'
p2721
S'0'
sS'Sub'
p2722
S'0'
sS'Lost'
p2723
S'0'
sS'Drop'
p2724
S'0'
sS'Start'
p2725
S'1'
sS'Won'
p2726
S'1'
sS'GfM'
p2727
S'0'
sS'Draw'
p2728
S'0'
sS'Mat'
p2729
S'1'
sS'Conv'
p2730
S'0'
sS'Tries'
p2731
S'0'
sS'Pts'
p2732
S'0'
sa(dp2733
S'Pens'
p2734
S'0'
sS'Sub'
p2735
S'0'
sS'Lost'
p2736
S'16'
p2737
sS'Drop'
p2738
S'0'
sS'Start'
p2739
S'18'
p2740
sS'Won'
p2741
S'2'
sS'GfM'
p2742
S'0'
sS'Draw'
p2743
S'0'
sS'Mat'
p2744
S'18'
p2745
sS'Conv'
p2746
S'0'
sS'Tries'
p2747
S'1'
sS'Pts'
p2748
S'4'
sa(dp2749
S'Pens'
p2750
S'0'
sS'Sub'
p2751
S'0'
sS'Lost'
p2752
S'7'
sS'Drop'
p2753
S'0'
sS'Start'
p2754
S'8'
sS'Won'
p2755
S'0'
sS'GfM'
p2756
S'0'
sS'Draw'
p2757
S'1'
sS'Mat'
p2758
S'8'
sS'Conv'
p2759
S'0'
sS'Tries'
p2760
S'0'
sS'Pts'
p2761
S'0'
sa(dp2762
S'Pens'
p2763
S'0'
sS'Sub'
p2764
S'0'
sS'Lost'
p2765
S'5'
sS'Drop'
p2766
S'1'
sS'Start'
p2767
S'6'
sS'Won'
p2768
S'1'
sS'GfM'
p2769
S'0'
sS'Draw'
p2770
S'0'
sS'Mat'
p2771
S'6'
sS'Conv'
p2772
S'0'
sS'Tries'
p2773
S'0'
sS'Pts'
p2774
S'3'
sa(dp2775
S'Pens'
p2776
S'0'
sS'Sub'
p2777
S'0'
sS'Lost'
p2778
S'3'
sS'Drop'
p2779
S'0'
sS'Start'
p2780
S'4'
sS'Won'
p2781
S'1'
sS'GfM'
p2782
S'0'
sS'Draw'
p2783
S'0'
sS'Mat'
p2784
S'4'
sS'Conv'
p2785
S'0'
sS'Tries'
p2786
S'0'
sS'Pts'
p2787
S'0'
sa(dp2788
S'Pens'
p2789
S'0'
sS'Sub'
p2790
S'0'
sS'Lost'
p2791
S'8'
sS'Drop'
p2792
S'0'
sS'Start'
p2793
S'11'
p2794
sS'Won'
p2795
S'2'
sS'GfM'
p2796
S'0'
sS'Draw'
p2797
S'1'
sS'Mat'
p2798
S'11'
p2799
sS'Conv'
p2800
S'0'
sS'Tries'
p2801
S'0'
sS'Pts'
p2802
S'0'
sa(dp2803
S'Pens'
p2804
S'0'
sS'Sub'
p2805
S'0'
sS'Lost'
p2806
S'1'
sS'Drop'
p2807
S'0'
sS'Start'
p2808
S'1'
sS'Won'
p2809
S'0'
sS'GfM'
p2810
S'0'
sS'Draw'
p2811
S'0'
sS'Mat'
p2812
S'1'
sS'Conv'
p2813
S'0'
sS'Tries'
p2814
S'0'
sS'Pts'
p2815
S'0'
sa(dp2816
S'Pens'
p2817
S'0'
sS'Sub'
p2818
S'1'
sS'Lost'
p2819
S'6'
sS'Drop'
p2820
S'0'
sS'Start'
p2821
S'7'
sS'Won'
p2822
S'2'
sS'GfM'
p2823
S'0'
sS'Draw'
p2824
S'0'
sS'Mat'
p2825
S'8'
sS'Conv'
p2826
S'0'
sS'Tries'
p2827
S'0'
sS'Pts'
p2828
S'0'
sa(dp2829
S'Pens'
p2830
S'0'
sS'Sub'
p2831
S'0'
sS'Lost'
p2832
S'4'
sS'Drop'
p2833
S'0'
sS'Start'
p2834
S'5'
sS'Won'
p2835
S'1'
sS'GfM'
p2836
S'0'
sS'Draw'
p2837
S'0'
sS'Mat'
p2838
S'5'
sS'Conv'
p2839
S'0'
sS'Tries'
p2840
S'0'
sS'Pts'
p2841
S'0'
sa(dp2842
S'Pens'
p2843
S'0'
sS'Sub'
p2844
S'0'
sS'Lost'
p2845
S'1'
sS'Drop'
p2846
S'0'
sS'Start'
p2847
S'1'
sS'Won'
p2848
S'0'
sS'GfM'
p2849
S'0'
sS'Draw'
p2850
S'0'
sS'Mat'
p2851
S'1'
sS'Conv'
p2852
S'0'
sS'Tries'
p2853
S'0'
sS'Pts'
p2854
S'0'
sa(dp2855
S'Pens'
p2856
S'0'
sS'Sub'
p2857
S'2'
sS'Lost'
p2858
S'7'
sS'Drop'
p2859
S'0'
sS'Start'
p2860
S'6'
sS'Won'
p2861
S'1'
sS'GfM'
p2862
S'0'
sS'Draw'
p2863
S'0'
sS'Mat'
p2864
S'8'
sS'Conv'
p2865
S'0'
sS'Tries'
p2866
S'0'
sS'Pts'
p2867
S'0'
sa(dp2868
S'Pens'
p2869
S'0'
sS'Sub'
p2870
S'1'
sS'Lost'
p2871
S'6'
sS'Drop'
p2872
S'0'
sS'Start'
p2873
S'5'
sS'Won'
p2874
S'0'
sS'GfM'
p2875
S'0'
sS'Draw'
p2876
S'0'
sS'Mat'
p2877
S'6'
sS'Conv'
p2878
S'0'
sS'Tries'
p2879
S'0'
sS'Pts'
p2880
S'0'
sa(dp2881
S'Pens'
p2882
S'0'
sS'Sub'
p2883
S'0'
sS'Lost'
p2884
S'1'
sS'Drop'
p2885
S'0'
sS'Start'
p2886
S'2'
sS'Won'
p2887
S'1'
sS'GfM'
p2888
S'0'
sS'Draw'
p2889
S'0'
sS'Mat'
p2890
S'2'
sS'Conv'
p2891
S'0'
sS'Tries'
p2892
S'0'
sS'Pts'
p2893
S'0'
sa(dp2894
S'Pens'
p2895
S'0'
sS'Sub'
p2896
S'0'
sS'Lost'
p2897
S'8'
sS'Drop'
p2898
S'0'
sS'Start'
p2899
S'12'
p2900
sS'Won'
p2901
S'3'
sS'GfM'
p2902
S'0'
sS'Draw'
p2903
S'1'
sS'Mat'
p2904
S'12'
p2905
sS'Conv'
p2906
S'0'
sS'Tries'
p2907
S'6'
sS'Pts'
p2908
S'24'
p2909
sa(dp2910
S'Pens'
p2911
S'2'
sS'Sub'
p2912
S'1'
sS'Lost'
p2913
S'11'
p2914
sS'Drop'
p2915
S'0'
sS'Start'
p2916
S'18'
p2917
sS'Won'
p2918
S'7'
sS'GfM'
p2919
S'0'
sS'Draw'
p2920
S'1'
sS'Mat'
p2921
S'19'
p2922
sS'Conv'
p2923
S'2'
sS'Tries'
p2924
S'2'
sS'Pts'
p2925
S'18'
p2926
sa(dp2927
S'Pens'
p2928
S'0'
sS'Sub'
p2929
S'1'
sS'Lost'
p2930
S'7'
sS'Drop'
p2931
S'0'
sS'Start'
p2932
S'7'
sS'Won'
p2933
S'1'
sS'GfM'
p2934
S'0'
sS'Draw'
p2935
S'0'
sS'Mat'
p2936
S'8'
sS'Conv'
p2937
S'0'
sS'Tries'
p2938
S'0'
sS'Pts'
p2939
S'0'
sa(dp2940
S'Pens'
p2941
S'0'
sS'Sub'
p2942
S'1'
sS'Lost'
p2943
S'1'
sS'Drop'
p2944
S'0'
sS'Start'
p2945
S'1'
sS'Won'
p2946
S'1'
sS'GfM'
p2947
S'0'
sS'Draw'
p2948
S'0'
sS'Mat'
p2949
S'2'
sS'Conv'
p2950
S'0'
sS'Tries'
p2951
S'0'
sS'Pts'
p2952
S'0'
sa(dp2953
S'Pens'
p2954
S'0'
sS'Sub'
p2955
S'0'
sS'Lost'
p2956
S'2'
sS'Drop'
p2957
S'0'
sS'Start'
p2958
S'2'
sS'Won'
p2959
S'0'
sS'GfM'
p2960
S'0'
sS'Draw'
p2961
S'0'
sS'Mat'
p2962
S'2'
sS'Conv'
p2963
S'0'
sS'Tries'
p2964
S'0'
sS'Pts'
p2965
S'0'
sa(dp2966
S'Pens'
p2967
S'0'
sS'Sub'
p2968
S'0'
sS'Lost'
p2969
S'7'
sS'Drop'
p2970
S'0'
sS'Start'
p2971
S'9'
sS'Won'
p2972
S'2'
sS'GfM'
p2973
S'0'
sS'Draw'
p2974
S'0'
sS'Mat'
p2975
S'9'
sS'Conv'
p2976
S'0'
sS'Tries'
p2977
S'0'
sS'Pts'
p2978
S'0'
sa(dp2979
S'Pens'
p2980
S'0'
sS'Sub'
p2981
S'0'
sS'Lost'
p2982
S'1'
sS'Drop'
p2983
S'0'
sS'Start'
p2984
S'1'
sS'Won'
p2985
S'0'
sS'GfM'
p2986
S'0'
sS'Draw'
p2987
S'0'
sS'Mat'
p2988
S'1'
sS'Conv'
p2989
S'0'
sS'Tries'
p2990
S'0'
sS'Pts'
p2991
S'0'
sa(dp2992
S'Pens'
p2993
S'0'
sS'Sub'
p2994
S'1'
sS'Lost'
p2995
S'4'
sS'Drop'
p2996
S'0'
sS'Start'
p2997
S'4'
sS'Won'
p2998
S'1'
sS'GfM'
p2999
S'0'
sS'Draw'
p3000
S'0'
sS'Mat'
p3001
S'5'
sS'Conv'
p3002
S'0'
sS'Tries'
p3003
S'0'
sS'Pts'
p3004
S'0'
sa(dp3005
S'Pens'
p3006
S'0'
sS'Sub'
p3007
S'1'
sS'Lost'
p3008
S'1'
sS'Drop'
p3009
S'0'
sS'Start'
p3010
S'0'
sS'Won'
p3011
S'0'
sS'GfM'
p3012
S'0'
sS'Draw'
p3013
S'0'
sS'Mat'
p3014
S'1'
sS'Conv'
p3015
S'0'
sS'Tries'
p3016
S'0'
sS'Pts'
p3017
S'0'
sa(dp3018
S'Pens'
p3019
S'0'
sS'Sub'
p3020
S'0'
sS'Lost'
p3021
S'1'
sS'Drop'
p3022
S'0'
sS'Start'
p3023
S'1'
sS'Won'
p3024
S'0'
sS'Draw'
p3025
S'0'
sS'%'
S'0.00'
p3026
sS'Mat'
p3027
S'1'
sS'Conv'
p3028
S'0'
sS'Tries'
p3029
S'0'
sS'Pts'
p3030
S'0'
sa(dp3031
S'Pens'
p3032
S'0'
sS'Sub'
p3033
S'0'
sS'Lost'
p3034
S'7'
sS'Drop'
p3035
S'0'
sS'Start'
p3036
S'10'
p3037
sS'Won'
p3038
S'2'
sS'Draw'
p3039
S'1'
sS'%'
S'25.00'
p3040
sS'Mat'
p3041
S'10'
p3042
sS'Conv'
p3043
S'0'
sS'Tries'
p3044
S'0'
sS'Pts'
p3045
S'0'
sa(dp3046
S'Pens'
p3047
S'0'
sS'Sub'
p3048
S'0'
sS'Lost'
p3049
S'1'
sS'Drop'
p3050
S'0'
sS'Start'
p3051
S'2'
sS'Won'
p3052
S'1'
sS'Draw'
p3053
S'0'
sS'%'
S'50.00'
p3054
sS'Mat'
p3055
S'2'
sS'Conv'
p3056
S'0'
sS'Tries'
p3057
S'0'
sS'Pts'
p3058
S'0'
sa(dp3059
S'Pens'
p3060
S'0'
sS'Sub'
p3061
S'0'
sS'Lost'
p3062
S'1'
sS'Drop'
p3063
S'0'
sS'Start'
p3064
S'3'
sS'Won'
p3065
S'2'
sS'Draw'
p3066
S'0'
sS'%'
S'66.66'
p3067
sS'Mat'
p3068
S'3'
sS'Conv'
p3069
S'0'
sS'Tries'
p3070
S'1'
sS'Pts'
p3071
S'4'
sa(dp3072
S'Pens'
p3073
S'0'
sS'Sub'
p3074
S'0'
sS'Lost'
p3075
S'0'
sS'Drop'
p3076
S'0'
sS'Start'
p3077
S'1'
sS'Won'
p3078
S'1'
sS'Draw'
p3079
S'0'
sS'%'
S'100.00'
p3080
sS'Mat'
p3081
S'1'
sS'Conv'
p3082
S'0'
sS'Tries'
p3083
S'0'
sS'Pts'
p3084
S'0'
sa(dp3085
S'Pens'
p3086
S'0'
sS'Sub'
p3087
S'0'
sS'Lost'
p3088
S'0'
sS'Drop'
p3089
S'0'
sS'Start'
p3090
S'1'
sS'Won'
p3091
S'1'
sS'Draw'
p3092
S'0'
sS'%'
S'100.00'
p3093
sS'Mat'
p3094
S'1'
sS'Conv'
p3095
S'0'
sS'Tries'
p3096
S'1'
sS'Pts'
p3097
S'4'
sa(dp3098
S'Pens'
p3099
S'0'
sS'Sub'
p3100
S'0'
sS'Lost'
p3101
S'2'
sS'Drop'
p3102
S'0'
sS'Start'
p3103
S'3'
sS'Won'
p3104
S'1'
sS'Draw'
p3105
S'0'
sS'%'
S'33.33'
p3106
sS'Mat'
p3107
S'3'
sS'Conv'
p3108
S'0'
sS'Tries'
p3109
S'0'
sS'Pts'
p3110
S'0'
sa(dp3111
S'Pens'
p3112
S'0'
sS'Sub'
p3113
S'0'
sS'Lost'
p3114
S'18'
p3115
sS'Drop'
p3116
S'0'
sS'Start'
p3117
S'24'
p3118
sS'Won'
p3119
S'5'
sS'Draw'
p3120
S'1'
sS'%'
S'22.91'
p3121
sS'Mat'
p3122
S'24'
p3123
sS'Conv'
p3124
S'0'
sS'Tries'
p3125
S'0'
sS'Pts'
p3126
S'0'
sa(dp3127
S'Pens'
p3128
S'0'
sS'Sub'
p3129
S'0'
sS'Lost'
p3130
S'10'
p3131
sS'Drop'
p3132
S'0'
sS'Start'
p3133
S'14'
p3134
sS'Won'
p3135
S'4'
sS'Draw'
p3136
S'0'
sS'%'
S'28.57'
p3137
sS'Mat'
p3138
S'14'
p3139
sS'Conv'
p3140
S'0'
sS'Tries'
p3141
S'2'
sS'Pts'
p3142
S'8'
sa(dp3143
S'Pens'
p3144
S'0'
sS'Sub'
p3145
S'1'
sS'Lost'
p3146
S'1'
sS'Drop'
p3147
S'0'
sS'Start'
p3148
S'0'
sS'Won'
p3149
S'0'
sS'Draw'
p3150
S'0'
sS'%'
S'0.00'
p3151
sS'Mat'
p3152
S'1'
sS'Conv'
p3153
S'0'
sS'Tries'
p3154
S'0'
sS'Pts'
p3155
S'0'
sa(dp3156
S'Pens'
p3157
S'0'
sS'Sub'
p3158
S'0'
sS'Lost'
p3159
S'8'
sS'Drop'
p3160
S'0'
sS'Start'
p3161
S'14'
p3162
sS'Won'
p3163
S'5'
sS'Draw'
p3164
S'1'
sS'%'
S'39.28'
p3165
sS'Mat'
p3166
S'14'
p3167
sS'Conv'
p3168
S'0'
sS'Tries'
p3169
S'8'
sS'Pts'
p3170
S'32'
p3171
sa(dp3172
S'Pens'
p3173
S'0'
sS'Sub'
p3174
S'1'
sS'Lost'
p3175
S'7'
sS'Drop'
p3176
S'0'
sS'Start'
p3177
S'12'
p3178
sS'Won'
p3179
S'5'
sS'Draw'
p3180
S'1'
sS'%'
S'42.30'
p3181
sS'Mat'
p3182
S'13'
p3183
sS'Conv'
p3184
S'0'
sS'Tries'
p3185
S'1'
sS'Pts'
p3186
S'4'
sa(dp3187
S'Pens'
p3188
S'0'
sS'Sub'
p3189
S'0'
sS'Lost'
p3190
S'16'
p3191
sS'Drop'
p3192
S'0'
sS'Start'
p3193
S'26'
p3194
sS'Won'
p3195
S'8'
sS'Draw'
p3196
S'2'
sS'%'
S'34.61'
p3197
sS'Mat'
p3198
S'26'
p3199
sS'Conv'
p3200
S'0'
sS'Tries'
p3201
S'4'
sS'Pts'
p3202
S'16'
p3203
sa(dp3204
S'Pens'
p3205
S'0'
sS'Sub'
p3206
S'0'
sS'Lost'
p3207
S'12'
p3208
sS'Drop'
p3209
S'0'
sS'Start'
p3210
S'18'
p3211
sS'Won'
p3212
S'5'
sS'Draw'
p3213
S'1'
sS'%'
S'30.55'
p3214
sS'Mat'
p3215
S'18'
p3216
sS'Conv'
p3217
S'0'
sS'Tries'
p3218
S'1'
sS'Pts'
p3219
S'4'
sa(dp3220
S'Pens'
p3221
S'0'
sS'Sub'
p3222
S'0'
sS'Lost'
p3223
S'0'
sS'Drop'
p3224
S'0'
sS'Start'
p3225
S'1'
sS'Won'
p3226
S'0'
sS'Draw'
p3227
S'1'
sS'%'
S'50.00'
p3228
sS'Mat'
p3229
S'1'
sS'Conv'
p3230
S'0'
sS'Tries'
p3231
S'0'
sS'Pts'
p3232
S'0'
sa(dp3233
S'Pens'
p3234
S'0'
sS'Sub'
p3235
S'0'
sS'Lost'
p3236
S'24'
p3237
sS'Drop'
p3238
S'0'
sS'Start'
p3239
S'32'
p3240
sS'Won'
p3241
S'7'
sS'Draw'
p3242
S'1'
sS'%'
S'23.43'
p3243
sS'Mat'
p3244
S'32'
p3245
sS'Conv'
p3246
S'0'
sS'Tries'
p3247
S'4'
sS'Pts'
p3248
S'16'
p3249
sa(dp3250
S'Pens'
p3251
S'0'
sS'Sub'
p3252
S'0'
sS'Lost'
p3253
S'4'
sS'Drop'
p3254
S'0'
sS'Start'
p3255
S'8'
sS'Won'
p3256
S'4'
sS'Draw'
p3257
S'0'
sS'%'
S'50.00'
p3258
sS'Mat'
p3259
S'8'
sS'Conv'
p3260
S'0'
sS'Tries'
p3261
S'0'
sS'Pts'
p3262
S'0'
sa(dp3263
S'Pens'
p3264
S'0'
sS'Sub'
p3265
S'0'
sS'Lost'
p3266
S'7'
sS'Drop'
p3267
S'0'
sS'Start'
p3268
S'10'
p3269
sS'Won'
p3270
S'3'
sS'Draw'
p3271
S'0'
sS'%'
S'30.00'
p3272
sS'Mat'
p3273
S'10'
p3274
sS'Conv'
p3275
S'0'
sS'Tries'
p3276
S'2'
sS'Pts'
p3277
S'8'
sa(dp3278
S'Pens'
p3279
S'1'
sS'Sub'
p3280
S'0'
sS'Lost'
p3281
S'1'
sS'Drop'
p3282
S'0'
sS'Start'
p3283
S'1'
sS'Won'
p3284
S'0'
sS'Draw'
p3285
S'0'
sS'%'
S'0.00'
p3286
sS'Mat'
p3287
S'1'
sS'Conv'
p3288
S'1'
sS'Tries'
p3289
S'0'
sS'Pts'
p3290
S'5'
sa(dp3291
S'Pens'
p3292
S'0'
sS'Sub'
p3293
S'0'
sS'Lost'
p3294
S'27'
p3295
sS'Drop'
p3296
S'0'
sS'Start'
p3297
S'38'
p3298
sS'Won'
p3299
S'10'
p3300
sS'Draw'
p3301
S'1'
sS'%'
S'27.63'
p3302
sS'Mat'
p3303
S'38'
p3304
sS'Conv'
p3305
S'0'
sS'Tries'
p3306
S'3'
sS'Pts'
p3307
S'12'
p3308
sa(dp3309
S'Pens'
p3310
S'0'
sS'Sub'
p3311
S'0'
sS'Lost'
p3312
S'7'
sS'Drop'
p3313
S'0'
sS'Start'
p3314
S'12'
p3315
sS'Won'
p3316
S'5'
sS'Draw'
p3317
S'0'
sS'%'
S'41.66'
p3318
sS'Mat'
p3319
S'12'
p3320
sS'Conv'
p3321
S'0'
sS'Tries'
p3322
S'3'
sS'Pts'
p3323
S'12'
p3324
sa(dp3325
S'Pens'
p3326
S'0'
sS'Sub'
p3327
S'0'
sS'Lost'
p3328
S'16'
p3329
sS'Drop'
p3330
S'0'
sS'Start'
p3331
S'23'
p3332
sS'Won'
p3333
S'6'
sS'Draw'
p3334
S'1'
sS'%'
S'28.26'
p3335
sS'Mat'
p3336
S'23'
p3337
sS'Conv'
p3338
S'0'
sS'Tries'
p3339
S'7'
sS'Pts'
p3340
S'28'
p3341
sa(dp3342
S'Pens'
p3343
S'0'
sS'Sub'
p3344
S'2'
sS'Lost'
p3345
S'4'
sS'Drop'
p3346
S'0'
sS'Start'
p3347
S'4'
sS'Won'
p3348
S'2'
sS'Draw'
p3349
S'0'
sS'%'
S'33.33'
p3350
sS'Mat'
p3351
S'6'
sS'Conv'
p3352
S'0'
sS'Tries'
p3353
S'4'
sS'Pts'
p3354
S'16'
p3355
sa(dp3356
S'Pens'
p3357
S'0'
sS'Sub'
p3358
S'0'
sS'Lost'
p3359
S'1'
sS'Drop'
p3360
S'0'
sS'Start'
p3361
S'3'
sS'Won'
p3362
S'2'
sS'Draw'
p3363
S'0'
sS'%'
S'66.66'
p3364
sS'Mat'
p3365
S'3'
sS'Conv'
p3366
S'0'
sS'Tries'
p3367
S'0'
sS'Pts'
p3368
S'0'
sa(dp3369
S'Pens'
p3370
S'0'
sS'Sub'
p3371
S'2'
sS'Lost'
p3372
S'3'
sS'Drop'
p3373
S'0'
sS'Start'
p3374
S'2'
sS'Won'
p3375
S'1'
sS'Draw'
p3376
S'0'
sS'%'
S'25.00'
p3377
sS'Mat'
p3378
S'4'
sS'Conv'
p3379
S'0'
sS'Tries'
p3380
S'0'
sS'Pts'
p3381
S'0'
sa(dp3382
S'Pens'
p3383
S'0'
sS'Sub'
p3384
S'1'
sS'Lost'
p3385
S'0'
sS'Drop'
p3386
S'0'
sS'Start'
p3387
S'0'
sS'Won'
p3388
S'1'
sS'Draw'
p3389
S'0'
sS'%'
S'100.00'
p3390
sS'Mat'
p3391
S'1'
sS'Conv'
p3392
S'0'
sS'Tries'
p3393
S'0'
sS'Pts'
p3394
S'0'
sa(dp3395
S'Pens'
p3396
S'11'
p3397
sS'Sub'
p3398
S'0'
sS'Lost'
p3399
S'7'
sS'Drop'
p3400
S'0'
sS'Start'
p3401
S'10'
p3402
sS'Won'
p3403
S'3'
sS'Draw'
p3404
S'0'
sS'%'
S'30.00'
p3405
sS'Mat'
p3406
S'10'
p3407
sS'Conv'
p3408
S'13'
p3409
sS'Tries'
p3410
S'2'
sS'Pts'
p3411
S'67'
p3412
sa(dp3413
S'Pens'
p3414
S'0'
sS'Sub'
p3415
S'1'
sS'Lost'
p3416
S'3'
sS'Drop'
p3417
S'0'
sS'Start'
p3418
S'4'
sS'Won'
p3419
S'2'
sS'Draw'
p3420
S'0'
sS'%'
S'40.00'
p3421
sS'Mat'
p3422
S'5'
sS'Conv'
p3423
S'0'
sS'Tries'
p3424
S'0'
sS'Pts'
p3425
S'0'
sa(dp3426
S'Pens'
p3427
S'0'
sS'Sub'
p3428
S'0'
sS'Lost'
p3429
S'1'
sS'Drop'
p3430
S'0'
sS'Start'
p3431
S'1'
sS'Won'
p3432
S'0'
sS'Draw'
p3433
S'0'
sS'%'
S'0.00'
p3434
sS'Mat'
p3435
S'1'
sS'Conv'
p3436
S'0'
sS'Tries'
p3437
S'0'
sS'Pts'
p3438
S'0'
sa(dp3439
S'Pens'
p3440
S'0'
sS'Sub'
p3441
S'1'
sS'Lost'
p3442
S'2'
sS'Drop'
p3443
S'0'
sS'Start'
p3444
S'1'
sS'Won'
p3445
S'0'
sS'Draw'
p3446
S'0'
sS'%'
S'0.00'
p3447
sS'Mat'
p3448
S'2'
sS'Conv'
p3449
S'0'
sS'Tries'
p3450
S'0'
sS'Pts'
p3451
S'0'
sa(dp3452
S'Pens'
p3453
S'1'
sS'Sub'
p3454
S'0'
sS'Lost'
p3455
S'27'
p3456
sS'Drop'
p3457
S'0'
sS'Start'
p3458
S'35'
p3459
sS'Won'
p3460
S'7'
sS'Draw'
p3461
S'1'
sS'%'
S'21.42'
p3462
sS'Mat'
p3463
S'35'
p3464
sS'Conv'
p3465
S'5'
sS'Tries'
p3466
S'1'
sS'Pts'
p3467
S'18'
p3468
sa(dp3469
S'Pens'
p3470
S'0'
sS'Sub'
p3471
S'2'
sS'Lost'
p3472
S'9'
sS'Drop'
p3473
S'0'
sS'Start'
p3474
S'8'
sS'Won'
p3475
S'1'
sS'Draw'
p3476
S'0'
sS'%'
S'10.00'
p3477
sS'Mat'
p3478
S'10'
p3479
sS'Conv'
p3480
S'0'
sS'Tries'
p3481
S'0'
sS'Pts'
p3482
S'0'
sa(dp3483
S'Pens'
p3484
S'0'
sS'Sub'
p3485
S'0'
sS'Lost'
p3486
S'1'
sS'Drop'
p3487
S'0'
sS'Start'
p3488
S'1'
sS'Won'
p3489
S'0'
sS'Draw'
p3490
S'0'
sS'%'
S'0.00'
p3491
sS'Mat'
p3492
S'1'
sS'Conv'
p3493
S'0'
sS'Tries'
p3494
S'0'
sS'Pts'
p3495
S'0'
sa(dp3496
S'Pens'
p3497
S'0'
sS'Sub'
p3498
S'1'
sS'Lost'
p3499
S'1'
sS'Drop'
p3500
S'0'
sS'Start'
p3501
S'0'
sS'Won'
p3502
S'0'
sS'Draw'
p3503
S'0'
sS'%'
S'0.00'
p3504
sS'Mat'
p3505
S'1'
sS'Conv'
p3506
S'0'
sS'Tries'
p3507
S'0'
sS'Pts'
p3508
S'0'
sa(dp3509
S'Pens'
p3510
S'0'
sS'Sub'
p3511
S'0'
sS'Lost'
p3512
S'1'
sS'Drop'
p3513
S'0'
sS'Start'
p3514
S'2'
sS'Won'
p3515
S'1'
sS'Draw'
p3516
S'0'
sS'%'
S'50.00'
p3517
sS'Mat'
p3518
S'2'
sS'Conv'
p3519
S'0'
sS'Tries'
p3520
S'0'
sS'Pts'
p3521
S'0'
sa(dp3522
S'Pens'
p3523
S'5'
sS'Sub'
p3524
S'3'
sS'Lost'
p3525
S'6'
sS'Drop'
p3526
S'0'
sS'Start'
p3527
S'4'
sS'Won'
p3528
S'1'
sS'Draw'
p3529
S'0'
sS'%'
S'14.28'
p3530
sS'Mat'
p3531
S'7'
sS'Conv'
p3532
S'4'
sS'Tries'
p3533
S'0'
sS'Pts'
p3534
S'23'
p3535
sa(dp3536
S'Pens'
p3537
S'0'
sS'Sub'
p3538
S'0'
sS'Lost'
p3539
S'23'
p3540
sS'Drop'
p3541
S'0'
sS'Start'
p3542
S'30'
p3543
sS'Won'
p3544
S'6'
sS'Draw'
p3545
S'1'
sS'%'
S'21.66'
p3546
sS'Mat'
p3547
S'30'
p3548
sS'Conv'
p3549
S'0'
sS'Tries'
p3550
S'3'
sS'Pts'
p3551
S'12'
p3552
sa(dp3553
S'Pens'
p3554
S'0'
sS'Sub'
p3555
S'0'
sS'Lost'
p3556
S'1'
sS'Drop'
p3557
S'0'
sS'Start'
p3558
S'1'
sS'Won'
p3559
S'0'
sS'Draw'
p3560
S'0'
sS'%'
S'0.00'
p3561
sS'Mat'
p3562
S'1'
sS'Conv'
p3563
S'0'
sS'Tries'
p3564
S'0'
sS'Pts'
p3565
S'0'
sa(dp3566
S'Pens'
p3567
S'0'
sS'Sub'
p3568
S'0'
sS'Lost'
p3569
S'1'
sS'Drop'
p3570
S'0'
sS'Start'
p3571
S'1'
sS'Won'
p3572
S'0'
sS'Draw'
p3573
S'0'
sS'%'
S'0.00'
p3574
sS'Mat'
p3575
S'1'
sS'Conv'
p3576
S'0'
sS'Tries'
p3577
S'0'
sS'Pts'
p3578
S'0'
sa(dp3579
S'Pens'
p3580
S'0'
sS'Sub'
p3581
S'1'
sS'Lost'
p3582
S'9'
sS'Drop'
p3583
S'0'
sS'Start'
p3584
S'9'
sS'Won'
p3585
S'1'
sS'Draw'
p3586
S'0'
sS'%'
S'10.00'
p3587
sS'Mat'
p3588
S'10'
p3589
sS'Conv'
p3590
S'0'
sS'Tries'
p3591
S'0'
sS'Pts'
p3592
S'0'
sa(dp3593
S'Pens'
p3594
S'0'
sS'Sub'
p3595
S'0'
sS'Lost'
p3596
S'8'
sS'Drop'
p3597
S'0'
sS'Start'
p3598
S'10'
p3599
sS'Won'
p3600
S'2'
sS'Draw'
p3601
S'0'
sS'%'
S'20.00'
p3602
sS'Mat'
p3603
S'10'
p3604
sS'Conv'
p3605
S'0'
sS'Tries'
p3606
S'1'
sS'Pts'
p3607
S'4'
sa(dp3608
S'Pens'
p3609
S'0'
sS'Sub'
p3610
S'0'
sS'Lost'
p3611
S'12'
p3612
sS'Drop'
p3613
S'0'
sS'Start'
p3614
S'15'
p3615
sS'Won'
p3616
S'2'
sS'Draw'
p3617
S'1'
sS'%'
S'16.66'
p3618
sS'Mat'
p3619
S'15'
p3620
sS'Conv'
p3621
S'0'
sS'Tries'
p3622
S'3'
sS'Pts'
p3623
S'12'
p3624
sa(dp3625
S'Pens'
p3626
S'0'
sS'Sub'
p3627
S'0'
sS'Lost'
p3628
S'1'
sS'Drop'
p3629
S'0'
sS'Start'
p3630
S'1'
sS'Won'
p3631
S'0'
sS'Draw'
p3632
S'0'
sS'%'
S'0.00'
p3633
sS'Mat'
p3634
S'1'
sS'Conv'
p3635
S'0'
sS'Tries'
p3636
S'0'
sS'Pts'
p3637
S'0'
sa(dp3638
S'Pens'
p3639
S'0'
sS'Sub'
p3640
S'0'
sS'Lost'
p3641
S'8'
sS'Drop'
p3642
S'0'
sS'Start'
p3643
S'11'
p3644
sS'Won'
p3645
S'2'
sS'Draw'
p3646
S'1'
sS'%'
S'22.72'
p3647
sS'Mat'
p3648
S'11'
p3649
sS'Conv'
p3650
S'0'
sS'Tries'
p3651
S'0'
sS'Pts'
p3652
S'0'
sa(dp3653
S'Pens'
p3654
S'0'
sS'Sub'
p3655
S'0'
sS'Lost'
p3656
S'7'
sS'Drop'
p3657
S'0'
sS'Start'
p3658
S'7'
sS'Won'
p3659
S'0'
sS'Draw'
p3660
S'0'
sS'%'
S'0.00'
p3661
sS'Mat'
p3662
S'7'
sS'Conv'
p3663
S'0'
sS'Tries'
p3664
S'1'
sS'Pts'
p3665
S'4'
sa(dp3666
S'Pens'
p3667
S'0'
sS'Sub'
p3668
S'1'
sS'Lost'
p3669
S'11'
p3670
sS'Drop'
p3671
S'0'
sS'Start'
p3672
S'12'
p3673
sS'Won'
p3674
S'1'
sS'Draw'
p3675
S'1'
sS'%'
S'11.53'
p3676
sS'Mat'
p3677
S'13'
p3678
sS'Conv'
p3679
S'0'
sS'Tries'
p3680
S'0'
sS'Pts'
p3681
S'0'
sa(dp3682
S'Pens'
p3683
S'0'
sS'Sub'
p3684
S'2'
sS'Lost'
p3685
S'8'
sS'Drop'
p3686
S'0'
sS'Start'
p3687
S'6'
sS'Won'
p3688
S'0'
sS'Draw'
p3689
S'0'
sS'%'
S'0.00'
p3690
sS'Mat'
p3691
S'8'
sS'Conv'
p3692
S'0'
sS'Tries'
p3693
S'1'
sS'Pts'
p3694
S'4'
sa(dp3695
S'Pens'
p3696
S'0'
sS'Sub'
p3697
S'0'
sS'Lost'
p3698
S'2'
sS'Drop'
p3699
S'0'
sS'Start'
p3700
S'2'
sS'Won'
p3701
S'0'
sS'Draw'
p3702
S'0'
sS'%'
S'0.00'
p3703
sS'Mat'
p3704
S'2'
sS'Conv'
p3705
S'0'
sS'Tries'
p3706
S'0'
sS'Pts'
p3707
S'0'
sa(dp3708
S'Pens'
p3709
S'1'
sS'Sub'
p3710
S'0'
sS'Lost'
p3711
S'19'
p3712
sS'Drop'
p3713
S'0'
sS'Start'
p3714
S'30'
p3715
sS'Won'
p3716
S'10'
p3717
sS'Draw'
p3718
S'1'
sS'%'
S'35.00'
p3719
sS'Mat'
p3720
S'30'
p3721
sS'Conv'
p3722
S'0'
sS'Tries'
p3723
S'9'
sS'Pts'
p3724
S'39'
p3725
sa(dp3726
S'Pens'
p3727
S'0'
sS'Sub'
p3728
S'0'
sS'Lost'
p3729
S'2'
sS'Drop'
p3730
S'0'
sS'Start'
p3731
S'2'
sS'Won'
p3732
S'0'
sS'Draw'
p3733
S'0'
sS'%'
S'0.00'
p3734
sS'Mat'
p3735
S'2'
sS'Conv'
p3736
S'0'
sS'Tries'
p3737
S'0'
sS'Pts'
p3738
S'0'
sa(dp3739
S'Pens'
p3740
S'0'
sS'Sub'
p3741
S'0'
sS'Lost'
p3742
S'13'
p3743
sS'Drop'
p3744
S'0'
sS'Start'
p3745
S'18'
p3746
sS'Won'
p3747
S'4'
sS'Draw'
p3748
S'1'
sS'%'
S'25.00'
p3749
sS'Mat'
p3750
S'18'
p3751
sS'Conv'
p3752
S'0'
sS'Tries'
p3753
S'5'
sS'Pts'
p3754
S'20'
p3755
sa(dp3756
S'Pens'
p3757
S'0'
sS'Sub'
p3758
S'0'
sS'Lost'
p3759
S'1'
sS'Drop'
p3760
S'0'
sS'Start'
p3761
S'1'
sS'Won'
p3762
S'0'
sS'Draw'
p3763
S'0'
sS'%'
S'0.00'
p3764
sS'Mat'
p3765
S'1'
sS'Conv'
p3766
S'0'
sS'Tries'
p3767
S'0'
sS'Pts'
p3768
S'0'
sa(dp3769
S'Pens'
p3770
S'0'
sS'Sub'
p3771
S'0'
sS'Lost'
p3772
S'1'
sS'Drop'
p3773
S'0'
sS'Start'
p3774
S'2'
sS'Won'
p3775
S'0'
sS'Draw'
p3776
S'1'
sS'%'
S'25.00'
p3777
sS'Mat'
p3778
S'2'
sS'Conv'
p3779
S'0'
sS'Tries'
p3780
S'0'
sS'Pts'
p3781
S'0'
sa(dp3782
S'Pens'
p3783
S'11'
p3784
sS'Sub'
p3785
S'0'
sS'Lost'
p3786
S'14'
p3787
sS'Drop'
p3788
S'2'
sS'Start'
p3789
S'23'
p3790
sS'Won'
p3791
S'8'
sS'Draw'
p3792
S'1'
sS'%'
S'36.95'
p3793
sS'Mat'
p3794
S'23'
p3795
sS'Conv'
p3796
S'5'
sS'Tries'
p3797
S'3'
sS'Pts'
p3798
S'61'
p3799
sa(dp3800
S'Pens'
p3801
S'0'
sS'Sub'
p3802
S'0'
sS'Lost'
p3803
S'16'
p3804
sS'Drop'
p3805
S'0'
sS'Start'
p3806
S'27'
p3807
sS'Won'
p3808
S'10'
p3809
sS'Draw'
p3810
S'1'
sS'%'
S'38.88'
p3811
sS'Mat'
p3812
S'27'
p3813
sS'Conv'
p3814
S'0'
sS'Tries'
p3815
S'1'
sS'Pts'
p3816
S'5'
sa(dp3817
S'Pens'
p3818
S'0'
sS'Sub'
p3819
S'0'
sS'Lost'
p3820
S'2'
sS'Drop'
p3821
S'0'
sS'Start'
p3822
S'4'
sS'Won'
p3823
S'1'
sS'Draw'
p3824
S'1'
sS'%'
S'37.50'
p3825
sS'Mat'
p3826
S'4'
sS'Conv'
p3827
S'0'
sS'Tries'
p3828
S'0'
sS'Pts'
p3829
S'0'
sa(dp3830
S'Pens'
p3831
S'0'
sS'Sub'
p3832
S'0'
sS'Lost'
p3833
S'2'
sS'Drop'
p3834
S'0'
sS'Start'
p3835
S'3'
sS'Won'
p3836
S'1'
sS'Draw'
p3837
S'0'
sS'%'
S'33.33'
p3838
sS'Mat'
p3839
S'3'
sS'Conv'
p3840
S'0'
sS'Tries'
p3841
S'0'
sS'Pts'
p3842
S'0'
sa(dp3843
S'Pens'
p3844
S'0'
sS'Sub'
p3845
S'0'
sS'Lost'
p3846
S'1'
sS'Drop'
p3847
S'0'
sS'Start'
p3848
S'1'
sS'Won'
p3849
S'0'
sS'Draw'
p3850
S'0'
sS'%'
S'0.00'
p3851
sS'Mat'
p3852
S'1'
sS'Conv'
p3853
S'0'
sS'Tries'
p3854
S'0'
sS'Pts'
p3855
S'0'
sa(dp3856
S'Pens'
p3857
S'0'
sS'Sub'
p3858
S'0'
sS'Lost'
p3859
S'3'
sS'Drop'
p3860
S'0'
sS'Start'
p3861
S'3'
sS'Won'
p3862
S'0'
sS'Draw'
p3863
S'0'
sS'%'
S'0.00'
p3864
sS'Mat'
p3865
S'3'
sS'Conv'
p3866
S'0'
sS'Tries'
p3867
S'0'
sS'Pts'
p3868
S'0'
sa(dp3869
S'Pens'
p3870
S'0'
sS'Sub'
p3871
S'5'
sS'Lost'
p3872
S'26'
p3873
sS'Drop'
p3874
S'0'
sS'Start'
p3875
S'38'
p3876
sS'Won'
p3877
S'17'
p3878
sS'Draw'
p3879
S'0'
sS'%'
S'39.53'
p3880
sS'Mat'
p3881
S'43'
p3882
sS'Conv'
p3883
S'0'
sS'Tries'
p3884
S'1'
sS'Pts'
p3885
S'5'
sa(dp3886
S'Pens'
p3887
S'0'
sS'Sub'
p3888
S'2'
sS'Lost'
p3889
S'9'
sS'Drop'
p3890
S'0'
sS'Start'
p3891
S'7'
sS'Won'
p3892
S'0'
sS'Draw'
p3893
S'0'
sS'%'
S'0.00'
p3894
sS'Mat'
p3895
S'9'
sS'Conv'
p3896
S'0'
sS'Tries'
p3897
S'1'
sS'Pts'
p3898
S'4'
sa(dp3899
S'Pens'
p3900
S'0'
sS'Sub'
p3901
S'0'
sS'Lost'
p3902
S'1'
sS'Drop'
p3903
S'0'
sS'Start'
p3904
S'1'
sS'Won'
p3905
S'0'
sS'Draw'
p3906
S'0'
sS'%'
S'0.00'
p3907
sS'Mat'
p3908
S'1'
sS'Conv'
p3909
S'0'
sS'Tries'
p3910
S'0'
sS'Pts'
p3911
S'0'
sa(dp3912
S'Pens'
p3913
S'1'
sS'Sub'
p3914
S'0'
sS'Lost'
p3915
S'6'
sS'Drop'
p3916
S'0'
sS'Start'
p3917
S'6'
sS'Won'
p3918
S'0'
sS'Draw'
p3919
S'0'
sS'%'
S'0.00'
p3920
sS'Mat'
p3921
S'6'
sS'Conv'
p3922
S'0'
sS'Tries'
p3923
S'2'
sS'Pts'
p3924
S'11'
p3925
sa(dp3926
S'Pens'
p3927
S'0'
sS'Sub'
p3928
S'0'
sS'Lost'
p3929
S'4'
sS'Drop'
p3930
S'0'
sS'Start'
p3931
S'4'
sS'Won'
p3932
S'0'
sS'Draw'
p3933
S'0'
sS'%'
S'0.00'
p3934
sS'Mat'
p3935
S'4'
sS'Conv'
p3936
S'0'
sS'Tries'
p3937
S'0'
sS'Pts'
p3938
S'0'
sa(dp3939
S'Pens'
p3940
S'0'
sS'Sub'
p3941
S'0'
sS'Lost'
p3942
S'23'
p3943
sS'Drop'
p3944
S'0'
sS'Start'
p3945
S'34'
p3946
sS'Won'
p3947
S'11'
p3948
sS'Draw'
p3949
S'0'
sS'%'
S'32.35'
p3950
sS'Mat'
p3951
S'34'
p3952
sS'Conv'
p3953
S'0'
sS'Tries'
p3954
S'4'
sS'Pts'
p3955
S'18'
p3956
sa(dp3957
S'Pens'
p3958
S'0'
sS'Sub'
p3959
S'0'
sS'Lost'
p3960
S'1'
sS'Drop'
p3961
S'0'
sS'Start'
p3962
S'1'
sS'Won'
p3963
S'0'
sS'Draw'
p3964
S'0'
sS'%'
S'0.00'
p3965
sS'Mat'
p3966
S'1'
sS'Conv'
p3967
S'0'
sS'Tries'
p3968
S'0'
sS'Pts'
p3969
S'0'
sa(dp3970
S'Pens'
p3971
S'4'
sS'Sub'
p3972
S'0'
sS'Lost'
p3973
S'4'
sS'Drop'
p3974
S'1'
sS'Start'
p3975
S'4'
sS'Won'
p3976
S'0'
sS'Draw'
p3977
S'0'
sS'%'
S'0.00'
p3978
sS'Mat'
p3979
S'4'
sS'Conv'
p3980
S'1'
sS'Tries'
p3981
S'2'
sS'Pts'
p3982
S'25'
p3983
sa(dp3984
S'Pens'
p3985
S'0'
sS'Sub'
p3986
S'0'
sS'Lost'
p3987
S'3'
sS'Drop'
p3988
S'0'
sS'Start'
p3989
S'3'
sS'Won'
p3990
S'0'
sS'Draw'
p3991
S'0'
sS'%'
S'0.00'
p3992
sS'Mat'
p3993
S'3'
sS'Conv'
p3994
S'0'
sS'Tries'
p3995
S'0'
sS'Pts'
p3996
S'0'
sa(dp3997
S'Pens'
p3998
S'0'
sS'Sub'
p3999
S'0'
sS'Lost'
p4000
S'1'
sS'Drop'
p4001
S'0'
sS'Start'
p4002
S'1'
sS'Won'
p4003
S'0'
sS'Draw'
p4004
S'0'
sS'%'
S'0.00'
p4005
sS'Mat'
p4006
S'1'
sS'Conv'
p4007
S'0'
sS'Tries'
p4008
S'0'
sS'Pts'
p4009
S'0'
sa(dp4010
S'Pens'
p4011
S'0'
sS'Sub'
p4012
S'1'
sS'Lost'
p4013
S'17'
p4014
sS'Drop'
p4015
S'0'
sS'Start'
p4016
S'26'
p4017
sS'Won'
p4018
S'10'
p4019
sS'Draw'
p4020
S'0'
sS'%'
S'37.03'
p4021
sS'Mat'
p4022
S'27'
p4023
sS'Conv'
p4024
S'0'
sS'Tries'
p4025
S'5'
sS'Pts'
p4026
S'21'
p4027
sa(dp4028
S'Pens'
p4029
S'0'
sS'Sub'
p4030
S'0'
sS'Lost'
p4031
S'2'
sS'Drop'
p4032
S'0'
sS'Start'
p4033
S'2'
sS'Won'
p4034
S'0'
sS'Draw'
p4035
S'0'
sS'%'
S'0.00'
p4036
sS'Mat'
p4037
S'2'
sS'Conv'
p4038
S'0'
sS'Tries'
p4039
S'3'
sS'Pts'
p4040
S'12'
p4041
sa(dp4042
S'Pens'
p4043
S'0'
sS'Sub'
p4044
S'0'
sS'Lost'
p4045
S'1'
sS'Drop'
p4046
S'0'
sS'Start'
p4047
S'1'
sS'Won'
p4048
S'0'
sS'Draw'
p4049
S'0'
sS'%'
S'0.00'
p4050
sS'Mat'
p4051
S'1'
sS'Conv'
p4052
S'0'
sS'Tries'
p4053
S'0'
sS'Pts'
p4054
S'0'
sa(dp4055
S'Pens'
p4056
S'0'
sS'Sub'
p4057
S'0'
sS'Lost'
p4058
S'2'
sS'Drop'
p4059
S'0'
sS'Start'
p4060
S'2'
sS'Won'
p4061
S'0'
sS'Draw'
p4062
S'0'
sS'%'
S'0.00'
p4063
sS'Mat'
p4064
S'2'
sS'Conv'
p4065
S'0'
sS'Tries'
p4066
S'0'
sS'Pts'
p4067
S'0'
sa(dp4068
S'Pens'
p4069
S'0'
sS'Sub'
p4070
S'0'
sS'Lost'
p4071
S'1'
sS'Drop'
p4072
S'0'
sS'Start'
p4073
S'1'
sS'Won'
p4074
S'0'
sS'Draw'
p4075
S'0'
sS'%'
S'0.00'
p4076
sS'Mat'
p4077
S'1'
sS'Conv'
p4078
S'0'
sS'Tries'
p4079
S'0'
sS'Pts'
p4080
S'0'
sa(dp4081
S'Pens'
p4082
S'1'
sS'Sub'
p4083
S'1'
sS'Lost'
p4084
S'20'
p4085
sS'Drop'
p4086
S'0'
sS'Start'
p4087
S'30'
p4088
sS'Won'
p4089
S'11'
p4090
sS'Draw'
p4091
S'0'
sS'%'
S'35.48'
p4092
sS'Mat'
p4093
S'31'
p4094
sS'Conv'
p4095
S'7'
sS'Tries'
p4096
S'19'
p4097
sS'Pts'
p4098
S'97'
p4099
sa(dp4100
S'Pens'
p4101
S'0'
sS'Sub'
p4102
S'1'
sS'Lost'
p4103
S'2'
sS'Drop'
p4104
S'0'
sS'Start'
p4105
S'1'
sS'Won'
p4106
S'0'
sS'Draw'
p4107
S'0'
sS'%'
S'0.00'
p4108
sS'Mat'
p4109
S'2'
sS'Conv'
p4110
S'0'
sS'Tries'
p4111
S'0'
sS'Pts'
p4112
S'0'
sa(dp4113
S'Pens'
p4114
S'2'
sS'Sub'
p4115
S'0'
sS'Lost'
p4116
S'2'
sS'Drop'
p4117
S'0'
sS'Start'
p4118
S'3'
sS'Won'
p4119
S'1'
sS'Draw'
p4120
S'0'
sS'%'
S'33.33'
p4121
sS'Mat'
p4122
S'3'
sS'Conv'
p4123
S'2'
sS'Tries'
p4124
S'1'
sS'Pts'
p4125
S'14'
p4126
sa(dp4127
S'Pens'
p4128
S'0'
sS'Sub'
p4129
S'3'
sS'Lost'
p4130
S'4'
sS'Drop'
p4131
S'0'
sS'Start'
p4132
S'5'
sS'Won'
p4133
S'4'
sS'Draw'
p4134
S'0'
sS'%'
S'50.00'
p4135
sS'Mat'
p4136
S'8'
sS'Conv'
p4137
S'0'
sS'Tries'
p4138
S'3'
sS'Pts'
p4139
S'15'
p4140
sa(dp4141
S'Pens'
p4142
S'0'
sS'Sub'
p4143
S'0'
sS'Lost'
p4144
S'4'
sS'Drop'
p4145
S'0'
sS'Start'
p4146
S'5'
sS'Won'
p4147
S'1'
sS'Draw'
p4148
S'0'
sS'%'
S'20.00'
p4149
sS'Mat'
p4150
S'5'
sS'Conv'
p4151
S'0'
sS'Tries'
p4152
S'1'
sS'Pts'
p4153
S'4'
sa(dp4154
S'Pens'
p4155
S'0'
sS'Sub'
p4156
S'0'
sS'Lost'
p4157
S'19'
p4158
sS'Drop'
p4159
S'0'
sS'Start'
p4160
S'31'
p4161
sS'Won'
p4162
S'12'
p4163
sS'Draw'
p4164
S'0'
sS'%'
S'38.70'
p4165
sS'Mat'
p4166
S'31'
p4167
sS'Conv'
p4168
S'0'
sS'Tries'
p4169
S'6'
sS'Pts'
p4170
S'28'
p4171
sa(dp4172
S'Pens'
p4173
S'0'
sS'Sub'
p4174
S'0'
sS'Lost'
p4175
S'7'
sS'Drop'
p4176
S'0'
sS'Start'
p4177
S'11'
p4178
sS'Won'
p4179
S'4'
sS'Draw'
p4180
S'0'
sS'%'
S'36.36'
p4181
sS'Mat'
p4182
S'11'
p4183
sS'Conv'
p4184
S'0'
sS'Tries'
p4185
S'0'
sS'Pts'
p4186
S'0'
sa(dp4187
S'Pens'
p4188
S'0'
sS'Sub'
p4189
S'0'
sS'Lost'
p4190
S'8'
sS'Drop'
p4191
S'0'
sS'Start'
p4192
S'16'
p4193
sS'Won'
p4194
S'8'
sS'Draw'
p4195
S'0'
sS'%'
S'50.00'
p4196
sS'Mat'
p4197
S'16'
p4198
sS'Conv'
p4199
S'0'
sS'Tries'
p4200
S'1'
sS'Pts'
p4201
S'5'
sa(dp4202
S'Pens'
p4203
S'0'
sS'Sub'
p4204
S'1'
sS'Lost'
p4205
S'9'
sS'Drop'
p4206
S'0'
sS'Start'
p4207
S'14'
p4208
sS'Won'
p4209
S'5'
sS'Draw'
p4210
S'1'
sS'%'
S'36.66'
p4211
sS'Mat'
p4212
S'15'
p4213
sS'Conv'
p4214
S'0'
sS'Tries'
p4215
S'1'
sS'Pts'
p4216
S'4'
sa(dp4217
S'Pens'
p4218
S'0'
sS'Sub'
p4219
S'1'
sS'Lost'
p4220
S'6'
sS'Drop'
p4221
S'0'
sS'Start'
p4222
S'7'
sS'Won'
p4223
S'2'
sS'Draw'
p4224
S'0'
sS'%'
S'25.00'
p4225
sS'Mat'
p4226
S'8'
sS'Conv'
p4227
S'0'
sS'Tries'
p4228
S'1'
sS'Pts'
p4229
S'4'
sa(dp4230
S'Pens'
p4231
S'0'
sS'Sub'
p4232
S'3'
sS'Lost'
p4233
S'17'
p4234
sS'Drop'
p4235
S'0'
sS'Start'
p4236
S'19'
p4237
sS'Won'
p4238
S'5'
sS'Draw'
p4239
S'0'
sS'%'
S'22.72'
p4240
sS'Mat'
p4241
S'22'
p4242
sS'Conv'
p4243
S'0'
sS'Tries'
p4244
S'1'
sS'Pts'
p4245
S'5'
sa(dp4246
S'Pens'
p4247
S'24'
p4248
sS'Sub'
p4249
S'0'
sS'Lost'
p4250
S'7'
sS'Drop'
p4251
S'1'
sS'Start'
p4252
S'10'
p4253
sS'Won'
p4254
S'3'
sS'Draw'
p4255
S'0'
sS'%'
S'30.00'
p4256
sS'Mat'
p4257
S'10'
p4258
sS'Conv'
p4259
S'14'
p4260
sS'Tries'
p4261
S'3'
sS'Pts'
p4262
S'115'
p4263
sa(dp4264
S'Pens'
p4265
S'0'
sS'Sub'
p4266
S'0'
sS'Lost'
p4267
S'1'
sS'Drop'
p4268
S'0'
sS'Start'
p4269
S'1'
sS'Won'
p4270
S'0'
sS'Draw'
p4271
S'0'
sS'%'
S'0.00'
p4272
sS'Mat'
p4273
S'1'
sS'Conv'
p4274
S'0'
sS'Tries'
p4275
S'0'
sS'Pts'
p4276
S'0'
sa(dp4277
S'Pens'
p4278
S'0'
sS'Sub'
p4279
S'3'
sS'Lost'
p4280
S'28'
p4281
sS'Drop'
p4282
S'0'
sS'Start'
p4283
S'45'
p4284
sS'Won'
p4285
S'20'
p4286
sS'Draw'
p4287
S'0'
sS'%'
S'41.66'
p4288
sS'Mat'
p4289
S'48'
p4290
sS'Conv'
p4291
S'0'
sS'Tries'
p4292
S'1'
sS'Pts'
p4293
S'5'
sa(dp4294
S'Pens'
p4295
S'1'
sS'Sub'
p4296
S'0'
sS'Lost'
p4297
S'1'
sS'Drop'
p4298
S'0'
sS'Start'
p4299
S'1'
sS'Won'
p4300
S'0'
sS'Draw'
p4301
S'0'
sS'%'
S'0.00'
p4302
sS'Mat'
p4303
S'1'
sS'Conv'
p4304
S'1'
sS'Tries'
p4305
S'0'
sS'Pts'
p4306
S'5'
sa(dp4307
S'Pens'
p4308
S'0'
sS'Sub'
p4309
S'0'
sS'Lost'
p4310
S'1'
sS'Drop'
p4311
S'0'
sS'Start'
p4312
S'1'
sS'Won'
p4313
S'0'
sS'Draw'
p4314
S'0'
sS'%'
S'0.00'
p4315
sS'Mat'
p4316
S'1'
sS'Conv'
p4317
S'0'
sS'Tries'
p4318
S'0'
sS'Pts'
p4319
S'0'
sa(dp4320
S'Pens'
p4321
S'0'
sS'Sub'
p4322
S'0'
sS'Lost'
p4323
S'4'
sS'Drop'
p4324
S'0'
sS'Start'
p4325
S'5'
sS'Won'
p4326
S'1'
sS'Draw'
p4327
S'0'
sS'%'
S'20.00'
p4328
sS'Mat'
p4329
S'5'
sS'Conv'
p4330
S'0'
sS'Tries'
p4331
S'0'
sS'Pts'
p4332
S'0'
sa(dp4333
S'Pens'
p4334
S'11'
p4335
sS'Sub'
p4336
S'8'
sS'Lost'
p4337
S'26'
p4338
sS'Drop'
p4339
S'0'
sS'Start'
p4340
S'33'
p4341
sS'Won'
p4342
S'15'
p4343
sS'Draw'
p4344
S'0'
sS'%'
S'36.58'
p4345
sS'Mat'
p4346
S'41'
p4347
sS'Conv'
p4348
S'13'
p4349
sS'Tries'
p4350
S'5'
sS'Pts'
p4351
S'84'
p4352
sa(dp4353
S'Pens'
p4354
S'0'
sS'Sub'
p4355
S'6'
sS'Lost'
p4356
S'47'
p4357
sS'Drop'
p4358
S'0'
sS'Start'
p4359
S'73'
p4360
sS'Won'
p4361
S'31'
p4362
sS'Draw'
p4363
S'1'
sS'%'
S'39.87'
p4364
sS'Mat'
p4365
S'79'
p4366
sS'Conv'
p4367
S'0'
sS'Tries'
p4368
S'9'
sS'Pts'
p4369
S'45'
p4370
sa(dp4371
S'Pens'
p4372
S'4'
sS'Sub'
p4373
S'0'
sS'Lost'
p4374
S'3'
sS'Drop'
p4375
S'0'
sS'Start'
p4376
S'4'
sS'Won'
p4377
S'1'
sS'Draw'
p4378
S'0'
sS'%'
S'25.00'
p4379
sS'Mat'
p4380
S'4'
sS'Conv'
p4381
S'7'
sS'Tries'
p4382
S'0'
sS'Pts'
p4383
S'26'
p4384
sa(dp4385
S'Pens'
p4386
S'1'
sS'Sub'
p4387
S'1'
sS'Lost'
p4388
S'27'
p4389
sS'Drop'
p4390
S'0'
sS'Start'
p4391
S'46'
p4392
sS'Won'
p4393
S'20'
p4394
sS'Draw'
p4395
S'0'
sS'%'
S'42.55'
p4396
sS'Mat'
p4397
S'47'
p4398
sS'Conv'
p4399
S'1'
sS'Tries'
p4400
S'29'
p4401
sS'Pts'
p4402
S'147'
p4403
sa(dp4404
S'Pens'
p4405
S'0'
sS'Sub'
p4406
S'2'
sS'Lost'
p4407
S'5'
sS'Drop'
p4408
S'0'
sS'Start'
p4409
S'9'
sS'Won'
p4410
S'5'
sS'Draw'
p4411
S'1'
sS'%'
S'50.00'
p4412
sS'Mat'
p4413
S'11'
p4414
sS'Conv'
p4415
S'0'
sS'Tries'
p4416
S'1'
sS'Pts'
p4417
S'5'
sa(dp4418
S'Pens'
p4419
S'0'
sS'Sub'
p4420
S'0'
sS'Lost'
p4421
S'2'
sS'Drop'
p4422
S'0'
sS'Start'
p4423
S'4'
sS'Won'
p4424
S'2'
sS'Draw'
p4425
S'0'
sS'%'
S'50.00'
p4426
sS'Mat'
p4427
S'4'
sS'Conv'
p4428
S'0'
sS'Tries'
p4429
S'0'
sS'Pts'
p4430
S'0'
sa(dp4431
S'Pens'
p4432
S'0'
sS'Sub'
p4433
S'0'
sS'Lost'
p4434
S'3'
sS'Drop'
p4435
S'0'
sS'Start'
p4436
S'9'
sS'Won'
p4437
S'6'
sS'Draw'
p4438
S'0'
sS'%'
S'66.66'
p4439
sS'Mat'
p4440
S'9'
sS'Conv'
p4441
S'0'
sS'Tries'
p4442
S'4'
sS'Pts'
p4443
S'20'
p4444
sa(dp4445
S'Pens'
p4446
S'0'
sS'Sub'
p4447
S'3'
sS'Lost'
p4448
S'23'
p4449
sS'Drop'
p4450
S'0'
sS'Start'
p4451
S'40'
p4452
sS'Won'
p4453
S'20'
p4454
sS'Draw'
p4455
S'0'
sS'%'
S'46.51'
p4456
sS'Mat'
p4457
S'43'
p4458
sS'Conv'
p4459
S'0'
sS'Tries'
p4460
S'14'
p4461
sS'Pts'
p4462
S'70'
p4463
sa(dp4464
S'Pens'
p4465
S'0'
sS'Sub'
p4466
S'0'
sS'Lost'
p4467
S'6'
sS'Drop'
p4468
S'0'
sS'Start'
p4469
S'8'
sS'Won'
p4470
S'2'
sS'Draw'
p4471
S'0'
sS'%'
S'25.00'
p4472
sS'Mat'
p4473
S'8'
sS'Conv'
p4474
S'0'
sS'Tries'
p4475
S'7'
sS'Pts'
p4476
S'35'
p4477
sa(dp4478
S'Pens'
p4479
S'1'
sS'Sub'
p4480
S'0'
sS'Lost'
p4481
S'0'
sS'Drop'
p4482
S'0'
sS'Start'
p4483
S'1'
sS'Won'
p4484
S'1'
sS'Draw'
p4485
S'0'
sS'%'
S'100.00'
p4486
sS'Mat'
p4487
S'1'
sS'Conv'
p4488
S'2'
sS'Tries'
p4489
S'0'
sS'Pts'
p4490
S'7'
sa(dp4491
S'Pens'
p4492
S'0'
sS'Sub'
p4493
S'0'
sS'Lost'
p4494
S'2'
sS'Drop'
p4495
S'0'
sS'Start'
p4496
S'2'
sS'Won'
p4497
S'0'
sS'Draw'
p4498
S'0'
sS'%'
S'0.00'
p4499
sS'Mat'
p4500
S'2'
sS'Conv'
p4501
S'0'
sS'Tries'
p4502
S'0'
sS'Pts'
p4503
S'0'
sa(dp4504
S'Pens'
p4505
S'0'
sS'Sub'
p4506
S'0'
sS'Lost'
p4507
S'1'
sS'Drop'
p4508
S'0'
sS'Start'
p4509
S'1'
sS'Won'
p4510
S'0'
sS'Draw'
p4511
S'0'
sS'%'
S'0.00'
p4512
sS'Mat'
p4513
S'1'
sS'Conv'
p4514
S'0'
sS'Tries'
p4515
S'0'
sS'Pts'
p4516
S'0'
sa(dp4517
S'Pens'
p4518
S'0'
sS'Sub'
p4519
S'0'
sS'Lost'
p4520
S'10'
p4521
sS'Drop'
p4522
S'0'
sS'Start'
p4523
S'17'
p4524
sS'Won'
p4525
S'7'
sS'Draw'
p4526
S'0'
sS'%'
S'41.17'
p4527
sS'Mat'
p4528
S'17'
p4529
sS'Conv'
p4530
S'0'
sS'Tries'
p4531
S'0'
sS'Pts'
p4532
S'0'
sa(dp4533
S'Pens'
p4534
S'0'
sS'Sub'
p4535
S'1'
sS'Lost'
p4536
S'2'
sS'Drop'
p4537
S'0'
sS'Start'
p4538
S'3'
sS'Won'
p4539
S'2'
sS'Draw'
p4540
S'0'
sS'%'
S'50.00'
p4541
sS'Mat'
p4542
S'4'
sS'Conv'
p4543
S'0'
sS'Tries'
p4544
S'1'
sS'Pts'
p4545
S'5'
sa(dp4546
S'Pens'
p4547
S'10'
p4548
sS'Sub'
p4549
S'3'
sS'Lost'
p4550
S'5'
sS'Drop'
p4551
S'0'
sS'Start'
p4552
S'5'
sS'Won'
p4553
S'3'
sS'Draw'
p4554
S'0'
sS'%'
S'37.50'
p4555
sS'Mat'
p4556
S'8'
sS'Conv'
p4557
S'4'
sS'Tries'
p4558
S'0'
sS'Pts'
p4559
S'38'
p4560
sa(dp4561
S'Pens'
p4562
S'0'
sS'Sub'
p4563
S'0'
sS'Lost'
p4564
S'10'
p4565
sS'Drop'
p4566
S'0'
sS'Start'
p4567
S'18'
p4568
sS'Won'
p4569
S'6'
sS'Draw'
p4570
S'2'
sS'%'
S'38.88'
p4571
sS'Mat'
p4572
S'18'
p4573
sS'Conv'
p4574
S'0'
sS'Tries'
p4575
S'11'
p4576
sS'Pts'
p4577
S'45'
p4578
sa(dp4579
S'Pens'
p4580
S'0'
sS'Sub'
p4581
S'4'
sS'Lost'
p4582
S'2'
sS'Drop'
p4583
S'0'
sS'Start'
p4584
S'3'
sS'Won'
p4585
S'5'
sS'Draw'
p4586
S'0'
sS'%'
S'71.42'
p4587
sS'Mat'
p4588
S'7'
sS'Conv'
p4589
S'0'
sS'Tries'
p4590
S'2'
sS'Pts'
p4591
S'10'
p4592
sa(dp4593
S'Pens'
p4594
S'0'
sS'Sub'
p4595
S'0'
sS'Lost'
p4596
S'0'
sS'Drop'
p4597
S'0'
sS'Start'
p4598
S'1'
sS'Won'
p4599
S'1'
sS'Draw'
p4600
S'0'
sS'%'
S'100.00'
p4601
sS'Mat'
p4602
S'1'
sS'Conv'
p4603
S'0'
sS'Tries'
p4604
S'2'
sS'Pts'
p4605
S'10'
p4606
sa(dp4607
S'Pens'
p4608
S'0'
sS'Sub'
p4609
S'0'
sS'Lost'
p4610
S'1'
sS'Drop'
p4611
S'0'
sS'Start'
p4612
S'2'
sS'Won'
p4613
S'1'
sS'Draw'
p4614
S'0'
sS'%'
S'50.00'
p4615
sS'Mat'
p4616
S'2'
sS'Conv'
p4617
S'0'
sS'Tries'
p4618
S'0'
sS'Pts'
p4619
S'0'
sa(dp4620
S'Pens'
p4621
S'79'
p4622
sS'Sub'
p4623
S'6'
sS'Lost'
p4624
S'22'
p4625
sS'Drop'
p4626
S'2'
sS'Start'
p4627
S'34'
p4628
sS'Won'
p4629
S'18'
p4630
sS'Draw'
p4631
S'0'
sS'%'
S'45.00'
p4632
sS'Mat'
p4633
S'40'
p4634
sS'Conv'
p4635
S'77'
p4636
sS'Tries'
p4637
S'5'
sS'Pts'
p4638
S'422'
p4639
sa(dp4640
S'Pens'
p4641
S'0'
sS'Sub'
p4642
S'0'
sS'Lost'
p4643
S'1'
sS'Drop'
p4644
S'0'
sS'Start'
p4645
S'2'
sS'Won'
p4646
S'1'
sS'Draw'
p4647
S'0'
sS'%'
S'50.00'
p4648
sS'Mat'
p4649
S'2'
sS'Conv'
p4650
S'0'
sS'Tries'
p4651
S'0'
sS'Pts'
p4652
S'0'
sa(dp4653
S'Pens'
p4654
S'0'
sS'Sub'
p4655
S'0'
sS'Lost'
p4656
S'1'
sS'Drop'
p4657
S'0'
sS'Start'
p4658
S'1'
sS'Won'
p4659
S'0'
sS'Draw'
p4660
S'0'
sS'%'
S'0.00'
p4661
sS'Mat'
p4662
S'1'
sS'Conv'
p4663
S'0'
sS'Tries'
p4664
S'0'
sS'Pts'
p4665
S'0'
sa(dp4666
S'Pens'
p4667
S'0'
sS'Sub'
p4668
S'0'
sS'Lost'
p4669
S'1'
sS'Drop'
p4670
S'0'
sS'Start'
p4671
S'1'
sS'Won'
p4672
S'0'
sS'Draw'
p4673
S'0'
sS'%'
S'0.00'
p4674
sS'Mat'
p4675
S'1'
sS'Conv'
p4676
S'0'
sS'Tries'
p4677
S'0'
sS'Pts'
p4678
S'0'
sa(dp4679
S'Pens'
p4680
S'0'
sS'Sub'
p4681
S'6'
sS'Lost'
p4682
S'11'
p4683
sS'Drop'
p4684
S'0'
sS'Start'
p4685
S'11'
p4686
sS'Won'
p4687
S'6'
sS'Draw'
p4688
S'0'
sS'%'
S'35.29'
p4689
sS'Mat'
p4690
S'17'
p4691
sS'Conv'
p4692
S'0'
sS'Tries'
p4693
S'6'
sS'Pts'
p4694
S'30'
p4695
sa(dp4696
S'Pens'
p4697
S'0'
sS'Sub'
p4698
S'3'
sS'Lost'
p4699
S'13'
p4700
sS'Drop'
p4701
S'0'
sS'Start'
p4702
S'13'
p4703
sS'Won'
p4704
S'3'
sS'Draw'
p4705
S'0'
sS'%'
S'18.75'
p4706
sS'Mat'
p4707
S'16'
p4708
sS'Conv'
p4709
S'0'
sS'Tries'
p4710
S'1'
sS'Pts'
p4711
S'5'
sa(dp4712
S'Pens'
p4713
S'0'
sS'Sub'
p4714
S'0'
sS'Lost'
p4715
S'4'
sS'Drop'
p4716
S'0'
sS'Start'
p4717
S'6'
sS'Won'
p4718
S'2'
sS'Draw'
p4719
S'0'
sS'%'
S'33.33'
p4720
sS'Mat'
p4721
S'6'
sS'Conv'
p4722
S'0'
sS'Tries'
p4723
S'1'
sS'Pts'
p4724
S'5'
sa(dp4725
S'Pens'
p4726
S'0'
sS'Sub'
p4727
S'23'
p4728
sS'Lost'
p4729
S'36'
p4730
sS'Drop'
p4731
S'0'
sS'Start'
p4732
S'40'
p4733
sS'Won'
p4734
S'26'
p4735
sS'Draw'
p4736
S'1'
sS'%'
S'42.06'
p4737
sS'Mat'
p4738
S'63'
p4739
sS'Conv'
p4740
S'0'
sS'Tries'
p4741
S'6'
sS'Pts'
p4742
S'30'
p4743
sa(dp4744
S'Pens'
p4745
S'0'
sS'Sub'
p4746
S'0'
sS'Lost'
p4747
S'12'
p4748
sS'Drop'
p4749
S'0'
sS'Start'
p4750
S'25'
p4751
sS'Won'
p4752
S'13'
p4753
sS'Draw'
p4754
S'0'
sS'%'
S'52.00'
p4755
sS'Mat'
p4756
S'25'
p4757
sS'Conv'
p4758
S'0'
sS'Tries'
p4759
S'3'
sS'Pts'
p4760
S'15'
p4761
sa(dp4762
S'Pens'
p4763
S'0'
sS'Sub'
p4764
S'3'
sS'Lost'
p4765
S'9'
sS'Drop'
p4766
S'0'
sS'Start'
p4767
S'13'
p4768
sS'Won'
p4769
S'7'
sS'Draw'
p4770
S'0'
sS'%'
S'43.75'
p4771
sS'Mat'
p4772
S'16'
p4773
sS'Conv'
p4774
S'0'
sS'Tries'
p4775
S'0'
sS'Pts'
p4776
S'0'
sa(dp4777
S'Pens'
p4778
S'0'
sS'Sub'
p4779
S'0'
sS'Lost'
p4780
S'2'
sS'Drop'
p4781
S'0'
sS'Start'
p4782
S'5'
sS'Won'
p4783
S'3'
sS'Draw'
p4784
S'0'
sS'%'
S'60.00'
p4785
sS'Mat'
p4786
S'5'
sS'Conv'
p4787
S'0'
sS'Tries'
p4788
S'2'
sS'Pts'
p4789
S'10'
p4790
sa(dp4791
S'Pens'
p4792
S'0'
sS'Sub'
p4793
S'11'
p4794
sS'Lost'
p4795
S'19'
p4796
sS'Drop'
p4797
S'0'
sS'Start'
p4798
S'23'
p4799
sS'Won'
p4800
S'14'
p4801
sS'Draw'
p4802
S'1'
sS'%'
S'42.64'
p4803
sS'Mat'
p4804
S'34'
p4805
sS'Conv'
p4806
S'0'
sS'Tries'
p4807
S'8'
sS'Pts'
p4808
S'40'
p4809
sa(dp4810
S'Pens'
p4811
S'0'
sS'Sub'
p4812
S'0'
sS'Lost'
p4813
S'1'
sS'Drop'
p4814
S'0'
sS'Start'
p4815
S'1'
sS'Won'
p4816
S'0'
sS'Draw'
p4817
S'0'
sS'%'
S'0.00'
p4818
sS'Mat'
p4819
S'1'
sS'Conv'
p4820
S'0'
sS'Tries'
p4821
S'0'
sS'Pts'
p4822
S'0'
sa(dp4823
S'Pens'
p4824
S'0'
sS'Sub'
p4825
S'1'
sS'Lost'
p4826
S'4'
sS'Drop'
p4827
S'0'
sS'Start'
p4828
S'4'
sS'Won'
p4829
S'1'
sS'Draw'
p4830
S'0'
sS'%'
S'20.00'
p4831
sS'Mat'
p4832
S'5'
sS'Conv'
p4833
S'0'
sS'Tries'
p4834
S'0'
sS'Pts'
p4835
S'0'
sa(dp4836
S'Pens'
p4837
S'0'
sS'Sub'
p4838
S'3'
sS'Lost'
p4839
S'8'
sS'Drop'
p4840
S'0'
sS'Start'
p4841
S'9'
sS'Won'
p4842
S'4'
sS'Draw'
p4843
S'0'
sS'%'
S'33.33'
p4844
sS'Mat'
p4845
S'12'
p4846
sS'Conv'
p4847
S'0'
sS'Tries'
p4848
S'0'
sS'Pts'
p4849
S'0'
sa(dp4850
S'Pens'
p4851
S'0'
sS'Sub'
p4852
S'10'
p4853
sS'Lost'
p4854
S'20'
p4855
sS'Drop'
p4856
S'0'
sS'Start'
p4857
S'20'
p4858
sS'Won'
p4859
S'10'
p4860
sS'Draw'
p4861
S'0'
sS'%'
S'33.33'
p4862
sS'Mat'
p4863
S'30'
p4864
sS'Conv'
p4865
S'0'
sS'Tries'
p4866
S'5'
sS'Pts'
p4867
S'25'
p4868
sa(dp4869
S'Pens'
p4870
S'0'
sS'Sub'
p4871
S'5'
sS'Lost'
p4872
S'7'
sS'Drop'
p4873
S'0'
sS'Start'
p4874
S'7'
sS'Won'
p4875
S'5'
sS'Draw'
p4876
S'0'
sS'%'
S'41.66'
p4877
sS'Mat'
p4878
S'12'
p4879
sS'Conv'
p4880
S'0'
sS'Tries'
p4881
S'5'
sS'Pts'
p4882
S'25'
p4883
sa(dp4884
S'Pens'
p4885
S'0'
sS'Sub'
p4886
S'3'
sS'Lost'
p4887
S'30'
p4888
sS'Drop'
p4889
S'0'
sS'Start'
p4890
S'55'
p4891
sS'Won'
p4892
S'27'
p4893
sS'Draw'
p4894
S'1'
sS'%'
S'47.41'
p4895
sS'Mat'
p4896
S'58'
p4897
sS'Conv'
p4898
S'0'
sS'Tries'
p4899
S'69'
p4900
sS'Pts'
p4901
S'345'
p4902
sa(dp4903
S'Pens'
p4904
S'0'
sS'Sub'
p4905
S'0'
sS'Lost'
p4906
S'0'
sS'Drop'
p4907
S'0'
sS'Start'
p4908
S'1'
sS'Won'
p4909
S'1'
sS'Draw'
p4910
S'0'
sS'%'
S'100.00'
p4911
sS'Mat'
p4912
S'1'
sS'Conv'
p4913
S'0'
sS'Tries'
p4914
S'0'
sS'Pts'
p4915
S'0'
sa(dp4916
S'Pens'
p4917
S'0'
sS'Sub'
p4918
S'11'
p4919
sS'Lost'
p4920
S'26'
p4921
sS'Drop'
p4922
S'0'
sS'Start'
p4923
S'31'
p4924
sS'Won'
p4925
S'16'
p4926
sS'Draw'
p4927
S'0'
sS'%'
S'38.09'
p4928
sS'Mat'
p4929
S'42'
p4930
sS'Conv'
p4931
S'0'
sS'Tries'
p4932
S'2'
sS'Pts'
p4933
S'10'
p4934
sa(dp4935
S'Pens'
p4936
S'0'
sS'Sub'
p4937
S'2'
sS'Lost'
p4938
S'6'
sS'Drop'
p4939
S'0'
sS'Start'
p4940
S'4'
sS'Won'
p4941
S'0'
sS'Draw'
p4942
S'0'
sS'%'
S'0.00'
p4943
sS'Mat'
p4944
S'6'
sS'Conv'
p4945
S'0'
sS'Tries'
p4946
S'0'
sS'Pts'
p4947
S'0'
sa(dp4948
S'Pens'
p4949
S'0'
sS'Sub'
p4950
S'0'
sS'Lost'
p4951
S'11'
p4952
sS'Drop'
p4953
S'0'
sS'Start'
p4954
S'17'
p4955
sS'Won'
p4956
S'6'
sS'Draw'
p4957
S'0'
sS'%'
S'35.29'
p4958
sS'Mat'
p4959
S'17'
p4960
sS'Conv'
p4961
S'0'
sS'Tries'
p4962
S'2'
sS'Pts'
p4963
S'10'
p4964
sa(dp4965
S'Pens'
p4966
S'1'
sS'Sub'
p4967
S'7'
sS'Lost'
p4968
S'12'
p4969
sS'Drop'
p4970
S'2'
sS'Start'
p4971
S'14'
p4972
sS'Won'
p4973
S'9'
sS'Draw'
p4974
S'0'
sS'%'
S'42.85'
p4975
sS'Mat'
p4976
S'21'
p4977
sS'Conv'
p4978
S'3'
sS'Tries'
p4979
S'5'
sS'Pts'
p4980
S'40'
p4981
sa(dp4982
S'Pens'
p4983
S'0'
sS'Sub'
p4984
S'2'
sS'Lost'
p4985
S'3'
sS'Drop'
p4986
S'0'
sS'Start'
p4987
S'2'
sS'Won'
p4988
S'1'
sS'Draw'
p4989
S'0'
sS'%'
S'25.00'
p4990
sS'Mat'
p4991
S'4'
sS'Conv'
p4992
S'0'
sS'Tries'
p4993
S'0'
sS'Pts'
p4994
S'0'
sa(dp4995
S'Pens'
p4996
S'0'
sS'Sub'
p4997
S'2'
sS'Lost'
p4998
S'17'
p4999
sS'Drop'
p5000
S'0'
sS'Start'
p5001
S'23'
p5002
sS'Won'
p5003
S'8'
sS'Draw'
p5004
S'0'
sS'%'
S'32.00'
p5005
sS'Mat'
p5006
S'25'
p5007
sS'Conv'
p5008
S'0'
sS'Tries'
p5009
S'10'
p5010
sS'Pts'
p5011
S'50'
p5012
sa(dp5013
S'Pens'
p5014
S'0'
sS'Sub'
p5015
S'1'
sS'Lost'
p5016
S'5'
sS'Drop'
p5017
S'0'
sS'Start'
p5018
S'4'
sS'Won'
p5019
S'0'
sS'Draw'
p5020
S'0'
sS'%'
S'0.00'
p5021
sS'Mat'
p5022
S'5'
sS'Conv'
p5023
S'0'
sS'Tries'
p5024
S'1'
sS'Pts'
p5025
S'5'
sa(dp5026
S'Pens'
p5027
S'0'
sS'Sub'
p5028
S'1'
sS'Lost'
p5029
S'2'
sS'Drop'
p5030
S'0'
sS'Start'
p5031
S'1'
sS'Won'
p5032
S'0'
sS'Draw'
p5033
S'0'
sS'%'
S'0.00'
p5034
sS'Mat'
p5035
S'2'
sS'Conv'
p5036
S'0'
sS'Tries'
p5037
S'0'
sS'Pts'
p5038
S'0'
sa(dp5039
S'Pens'
p5040
S'0'
sS'Sub'
p5041
S'3'
sS'Lost'
p5042
S'8'
sS'Drop'
p5043
S'0'
sS'Start'
p5044
S'7'
sS'Won'
p5045
S'2'
sS'Draw'
p5046
S'0'
sS'%'
S'20.00'
p5047
sS'Mat'
p5048
S'10'
p5049
sS'Conv'
p5050
S'0'
sS'Tries'
p5051
S'0'
sS'Pts'
p5052
S'0'
sa(dp5053
S'Pens'
p5054
S'0'
sS'Sub'
p5055
S'5'
sS'Lost'
p5056
S'11'
p5057
sS'Drop'
p5058
S'0'
sS'Start'
p5059
S'8'
sS'Won'
p5060
S'2'
sS'Draw'
p5061
S'0'
sS'%'
S'15.38'
p5062
sS'Mat'
p5063
S'13'
p5064
sS'Conv'
p5065
S'0'
sS'Tries'
p5066
S'0'
sS'Pts'
p5067
S'0'
sa(dp5068
S'Pens'
p5069
S'0'
sS'Sub'
p5070
S'6'
sS'Lost'
p5071
S'26'
p5072
sS'Drop'
p5073
S'0'
sS'Start'
p5074
S'34'
p5075
sS'Won'
p5076
S'14'
p5077
sS'Draw'
p5078
S'0'
sS'%'
S'35.00'
p5079
sS'Mat'
p5080
S'40'
p5081
sS'Conv'
p5082
S'0'
sS'Tries'
p5083
S'1'
sS'Pts'
p5084
S'5'
sa(dp5085
S'Pens'
p5086
S'6'
sS'Sub'
p5087
S'0'
sS'Lost'
p5088
S'3'
sS'Drop'
p5089
S'0'
sS'Start'
p5090
S'5'
sS'Won'
p5091
S'2'
sS'Draw'
p5092
S'0'
sS'%'
S'40.00'
p5093
sS'Mat'
p5094
S'5'
sS'Conv'
p5095
S'8'
sS'Tries'
p5096
S'0'
sS'Pts'
p5097
S'34'
p5098
sa(dp5099
S'Pens'
p5100
S'0'
sS'Sub'
p5101
S'2'
sS'Lost'
p5102
S'9'
sS'Drop'
p5103
S'0'
sS'Start'
p5104
S'18'
p5105
sS'Won'
p5106
S'11'
p5107
sS'Draw'
p5108
S'0'
sS'%'
S'55.00'
p5109
sS'Mat'
p5110
S'20'
p5111
sS'Conv'
p5112
S'0'
sS'Tries'
p5113
S'2'
sS'Pts'
p5114
S'10'
p5115
sa(dp5116
S'Pens'
p5117
S'0'
sS'Sub'
p5118
S'0'
sS'Lost'
p5119
S'8'
sS'Drop'
p5120
S'0'
sS'Start'
p5121
S'17'
p5122
sS'Won'
p5123
S'9'
sS'Draw'
p5124
S'0'
sS'%'
S'52.94'
p5125
sS'Mat'
p5126
S'17'
p5127
sS'Conv'
p5128
S'0'
sS'Tries'
p5129
S'3'
sS'Pts'
p5130
S'15'
p5131
sa(dp5132
S'Pens'
p5133
S'0'
sS'Sub'
p5134
S'0'
sS'Lost'
p5135
S'4'
sS'Drop'
p5136
S'0'
sS'Start'
p5137
S'6'
sS'Won'
p5138
S'2'
sS'Draw'
p5139
S'0'
sS'%'
S'33.33'
p5140
sS'Mat'
p5141
S'6'
sS'Conv'
p5142
S'0'
sS'Tries'
p5143
S'5'
sS'Pts'
p5144
S'25'
p5145
sa(dp5146
S'Pens'
p5147
S'1'
sS'Sub'
p5148
S'4'
sS'Lost'
p5149
S'2'
sS'Drop'
p5150
S'0'
sS'Start'
p5151
S'4'
sS'Won'
p5152
S'6'
sS'Draw'
p5153
S'0'
sS'%'
S'75.00'
p5154
sS'Mat'
p5155
S'8'
sS'Conv'
p5156
S'7'
sS'Tries'
p5157
S'2'
sS'Pts'
p5158
S'27'
p5159
sa(dp5160
S'Pens'
p5161
S'0'
sS'Sub'
p5162
S'2'
sS'Lost'
p5163
S'2'
sS'Drop'
p5164
S'0'
sS'Start'
p5165
S'3'
sS'Won'
p5166
S'3'
sS'Draw'
p5167
S'0'
sS'%'
S'60.00'
p5168
sS'Mat'
p5169
S'5'
sS'Conv'
p5170
S'0'
sS'Tries'
p5171
S'0'
sS'Pts'
p5172
S'0'
sa(dp5173
S'Pens'
p5174
S'0'
sS'Sub'
p5175
S'3'
sS'Lost'
p5176
S'5'
sS'Drop'
p5177
S'0'
sS'Start'
p5178
S'5'
sS'Won'
p5179
S'3'
sS'Draw'
p5180
S'0'
sS'%'
S'37.50'
p5181
sS'Mat'
p5182
S'8'
sS'Conv'
p5183
S'0'
sS'Tries'
p5184
S'1'
sS'Pts'
p5185
S'5'
sa(dp5186
S'Pens'
p5187
S'0'
sS'Sub'
p5188
S'3'
sS'Lost'
p5189
S'5'
sS'Drop'
p5190
S'0'
sS'Start'
p5191
S'9'
sS'Won'
p5192
S'6'
sS'Draw'
p5193
S'1'
sS'%'
S'54.16'
p5194
sS'Mat'
p5195
S'12'
p5196
sS'Conv'
p5197
S'0'
sS'Tries'
p5198
S'5'
sS'Pts'
p5199
S'25'
p5200
sa(dp5201
S'Pens'
p5202
S'0'
sS'Sub'
p5203
S'0'
sS'Lost'
p5204
S'1'
sS'Drop'
p5205
S'0'
sS'Start'
p5206
S'1'
sS'Won'
p5207
S'0'
sS'Draw'
p5208
S'0'
sS'%'
S'0.00'
p5209
sS'Mat'
p5210
S'1'
sS'Conv'
p5211
S'0'
sS'Tries'
p5212
S'0'
sS'Pts'
p5213
S'0'
sa(dp5214
S'Pens'
p5215
S'0'
sS'Sub'
p5216
S'1'
sS'Lost'
p5217
S'1'
sS'Drop'
p5218
S'0'
sS'Start'
p5219
S'0'
sS'Won'
p5220
S'0'
sS'Draw'
p5221
S'0'
sS'%'
S'0.00'
p5222
sS'Mat'
p5223
S'1'
sS'Conv'
p5224
S'0'
sS'Tries'
p5225
S'0'
sS'Pts'
p5226
S'0'
sa(dp5227
S'Pens'
p5228
S'0'
sS'Sub'
p5229
S'0'
sS'Lost'
p5230
S'10'
p5231
sS'Drop'
p5232
S'0'
sS'Start'
p5233
S'39'
p5234
sS'Won'
p5235
S'28'
p5236
sS'Draw'
p5237
S'1'
sS'%'
S'73.07'
p5238
sS'Mat'
p5239
S'39'
p5240
sS'Conv'
p5241
S'0'
sS'Tries'
p5242
S'4'
sS'Pts'
p5243
S'18'
p5244
sa(dp5245
S'Pens'
p5246
S'0'
sS'Sub'
p5247
S'5'
sS'Lost'
p5248
S'8'
sS'Drop'
p5249
S'0'
sS'Start'
p5250
S'24'
p5251
sS'Won'
p5252
S'21'
p5253
sS'Draw'
p5254
S'0'
sS'%'
S'72.41'
p5255
sS'Mat'
p5256
S'29'
p5257
sS'Conv'
p5258
S'0'
sS'Tries'
p5259
S'3'
sS'Pts'
p5260
S'15'
p5261
sa(dp5262
S'Pens'
p5263
S'0'
sS'Sub'
p5264
S'7'
sS'Lost'
p5265
S'6'
sS'Drop'
p5266
S'0'
sS'Start'
p5267
S'4'
sS'Won'
p5268
S'5'
sS'Draw'
p5269
S'0'
sS'%'
S'45.45'
p5270
sS'Mat'
p5271
S'11'
p5272
sS'Conv'
p5273
S'0'
sS'Tries'
p5274
S'1'
sS'Pts'
p5275
S'5'
sa(dp5276
S'Pens'
p5277
S'0'
sS'Sub'
p5278
S'4'
sS'Lost'
p5279
S'7'
sS'Drop'
p5280
S'0'
sS'Start'
p5281
S'16'
p5282
sS'Won'
p5283
S'13'
p5284
sS'Draw'
p5285
S'0'
sS'%'
S'65.00'
p5286
sS'Mat'
p5287
S'20'
p5288
sS'Conv'
p5289
S'0'
sS'Tries'
p5290
S'7'
sS'Pts'
p5291
S'35'
p5292
sa(dp5293
S'Pens'
p5294
S'0'
sS'Sub'
p5295
S'0'
sS'Lost'
p5296
S'14'
p5297
sS'Drop'
p5298
S'0'
sS'Start'
p5299
S'23'
p5300
sS'Won'
p5301
S'9'
sS'Draw'
p5302
S'0'
sS'%'
S'39.13'
p5303
sS'Mat'
p5304
S'23'
p5305
sS'Conv'
p5306
S'0'
sS'Tries'
p5307
S'0'
sS'Pts'
p5308
S'0'
sa(dp5309
S'Pens'
p5310
S'0'
sS'Sub'
p5311
S'1'
sS'Lost'
p5312
S'0'
sS'Drop'
p5313
S'0'
sS'Start'
p5314
S'0'
sS'Won'
p5315
S'1'
sS'Draw'
p5316
S'0'
sS'%'
S'100.00'
p5317
sS'Mat'
p5318
S'1'
sS'Conv'
p5319
S'0'
sS'Tries'
p5320
S'0'
sS'Pts'
p5321
S'0'
sa(dp5322
S'Pens'
p5323
S'0'
sS'Sub'
p5324
S'0'
sS'Lost'
p5325
S'0'
sS'Drop'
p5326
S'0'
sS'Start'
p5327
S'1'
sS'Won'
p5328
S'1'
sS'Draw'
p5329
S'0'
sS'%'
S'100.00'
p5330
sS'Mat'
p5331
S'1'
sS'Conv'
p5332
S'0'
sS'Tries'
p5333
S'0'
sS'Pts'
p5334
S'0'
sa(dp5335
S'Pens'
p5336
S'0'
sS'Sub'
p5337
S'3'
sS'Lost'
p5338
S'5'
sS'Drop'
p5339
S'0'
sS'Start'
p5340
S'6'
sS'Won'
p5341
S'4'
sS'Draw'
p5342
S'0'
sS'%'
S'44.44'
p5343
sS'Mat'
p5344
S'9'
sS'Conv'
p5345
S'0'
sS'Tries'
p5346
S'8'
sS'Pts'
p5347
S'40'
p5348
sa(dp5349
S'Pens'
p5350
S'0'
sS'Sub'
p5351
S'1'
sS'Lost'
p5352
S'2'
sS'Drop'
p5353
S'0'
sS'Start'
p5354
S'1'
sS'Won'
p5355
S'0'
sS'Draw'
p5356
S'0'
sS'%'
S'0.00'
p5357
sS'Mat'
p5358
S'2'
sS'Conv'
p5359
S'0'
sS'Tries'
p5360
S'0'
sS'Pts'
p5361
S'0'
sa(dp5362
S'Pens'
p5363
S'0'
sS'Sub'
p5364
S'1'
sS'Lost'
p5365
S'16'
p5366
sS'Drop'
p5367
S'0'
sS'Start'
p5368
S'23'
p5369
sS'Won'
p5370
S'8'
sS'Draw'
p5371
S'0'
sS'%'
S'33.33'
p5372
sS'Mat'
p5373
S'24'
p5374
sS'Conv'
p5375
S'0'
sS'Tries'
p5376
S'6'
sS'Pts'
p5377
S'30'
p5378
sa(dp5379
S'Pens'
p5380
S'0'
sS'Sub'
p5381
S'0'
sS'Lost'
p5382
S'5'
sS'Drop'
p5383
S'0'
sS'Start'
p5384
S'6'
sS'Won'
p5385
S'1'
sS'Draw'
p5386
S'0'
sS'%'
S'16.66'
p5387
sS'Mat'
p5388
S'6'
sS'Conv'
p5389
S'0'
sS'Tries'
p5390
S'0'
sS'Pts'
p5391
S'0'
sa(dp5392
S'Pens'
p5393
S'0'
sS'Sub'
p5394
S'5'
sS'Lost'
p5395
S'13'
p5396
sS'Drop'
p5397
S'0'
sS'Start'
p5398
S'13'
p5399
sS'Won'
p5400
S'5'
sS'Draw'
p5401
S'0'
sS'%'
S'27.77'
p5402
sS'Mat'
p5403
S'18'
p5404
sS'Conv'
p5405
S'0'
sS'Tries'
p5406
S'2'
sS'Pts'
p5407
S'10'
p5408
sa(dp5409
S'Pens'
p5410
S'0'
sS'Sub'
p5411
S'0'
sS'Lost'
p5412
S'5'
sS'Drop'
p5413
S'0'
sS'Start'
p5414
S'6'
sS'Won'
p5415
S'1'
sS'Draw'
p5416
S'0'
sS'%'
S'16.66'
p5417
sS'Mat'
p5418
S'6'
sS'Conv'
p5419
S'0'
sS'Tries'
p5420
S'0'
sS'Pts'
p5421
S'0'
sa(dp5422
S'Pens'
p5423
S'0'
sS'Sub'
p5424
S'1'
sS'Lost'
p5425
S'3'
sS'Drop'
p5426
S'0'
sS'Start'
p5427
S'2'
sS'Won'
p5428
S'0'
sS'Draw'
p5429
S'0'
sS'%'
S'0.00'
p5430
sS'Mat'
p5431
S'3'
sS'Conv'
p5432
S'0'
sS'Tries'
p5433
S'0'
sS'Pts'
p5434
S'0'
sa(dp5435
S'Pens'
p5436
S'0'
sS'Sub'
p5437
S'3'
sS'Lost'
p5438
S'15'
p5439
sS'Drop'
p5440
S'0'
sS'Start'
p5441
S'21'
p5442
sS'Won'
p5443
S'9'
sS'Draw'
p5444
S'0'
sS'%'
S'37.50'
p5445
sS'Mat'
p5446
S'24'
p5447
sS'Conv'
p5448
S'0'
sS'Tries'
p5449
S'3'
sS'Pts'
p5450
S'15'
p5451
sa(dp5452
S'Pens'
p5453
S'35'
p5454
sS'Sub'
p5455
S'5'
sS'Lost'
p5456
S'19'
p5457
sS'Drop'
p5458
S'0'
sS'Start'
p5459
S'23'
p5460
sS'Won'
p5461
S'9'
sS'Draw'
p5462
S'0'
sS'%'
S'32.14'
p5463
sS'Mat'
p5464
S'28'
p5465
sS'Conv'
p5466
S'71'
p5467
sS'Tries'
p5468
S'20'
p5469
sS'Pts'
p5470
S'347'
p5471
sa(dp5472
S'Pens'
p5473
S'9'
sS'Sub'
p5474
S'7'
sS'Lost'
p5475
S'17'
p5476
sS'Drop'
p5477
S'0'
sS'Start'
p5478
S'26'
p5479
sS'Won'
p5480
S'15'
p5481
sS'Draw'
p5482
S'1'
sS'%'
S'46.96'
p5483
sS'Mat'
p5484
S'33'
p5485
sS'Conv'
p5486
S'17'
p5487
sS'Tries'
p5488
S'2'
sS'Pts'
p5489
S'71'
p5490
sa(dp5491
S'Pens'
p5492
S'0'
sS'Sub'
p5493
S'2'
sS'Lost'
p5494
S'2'
sS'Drop'
p5495
S'0'
sS'Start'
p5496
S'0'
sS'Won'
p5497
S'0'
sS'Draw'
p5498
S'0'
sS'%'
S'0.00'
p5499
sS'Mat'
p5500
S'2'
sS'Conv'
p5501
S'0'
sS'Tries'
p5502
S'0'
sS'Pts'
p5503
S'0'
sa(dp5504
S'Pens'
p5505
S'0'
sS'Sub'
p5506
S'3'
sS'Lost'
p5507
S'4'
sS'Drop'
p5508
S'0'
sS'Start'
p5509
S'3'
sS'Won'
p5510
S'2'
sS'Draw'
p5511
S'0'
sS'%'
S'33.33'
p5512
sS'Mat'
p5513
S'6'
sS'Conv'
p5514
S'0'
sS'Tries'
p5515
S'0'
sS'Pts'
p5516
S'0'
sa(dp5517
S'Pens'
p5518
S'0'
sS'Sub'
p5519
S'2'
sS'Lost'
p5520
S'2'
sS'Drop'
p5521
S'0'
sS'Start'
p5522
S'0'
sS'Won'
p5523
S'0'
sS'Draw'
p5524
S'0'
sS'%'
S'0.00'
p5525
sS'Mat'
p5526
S'2'
sS'Conv'
p5527
S'0'
sS'Tries'
p5528
S'0'
sS'Pts'
p5529
S'0'
sa(dp5530
S'Pens'
p5531
S'0'
sS'Sub'
p5532
S'2'
sS'Lost'
p5533
S'4'
sS'Drop'
p5534
S'0'
sS'Start'
p5535
S'3'
sS'Won'
p5536
S'1'
sS'Draw'
p5537
S'0'
sS'%'
S'20.00'
p5538
sS'Mat'
p5539
S'5'
sS'Conv'
p5540
S'0'
sS'Tries'
p5541
S'2'
sS'Pts'
p5542
S'10'
p5543
sa(dp5544
S'Pens'
p5545
S'0'
sS'Sub'
p5546
S'7'
sS'Lost'
p5547
S'7'
sS'Drop'
p5548
S'0'
sS'Start'
p5549
S'9'
sS'Won'
p5550
S'8'
sS'Draw'
p5551
S'1'
sS'%'
S'53.12'
p5552
sS'Mat'
p5553
S'16'
p5554
sS'Conv'
p5555
S'0'
sS'Tries'
p5556
S'2'
sS'Pts'
p5557
S'10'
p5558
sa(dp5559
S'Pens'
p5560
S'0'
sS'Sub'
p5561
S'2'
sS'Lost'
p5562
S'3'
sS'Drop'
p5563
S'0'
sS'Start'
p5564
S'2'
sS'Won'
p5565
S'1'
sS'Draw'
p5566
S'0'
sS'%'
S'25.00'
p5567
sS'Mat'
p5568
S'4'
sS'Conv'
p5569
S'0'
sS'Tries'
p5570
S'0'
sS'Pts'
p5571
S'0'
sa(dp5572
S'Pens'
p5573
S'0'
sS'Sub'
p5574
S'0'
sS'Lost'
p5575
S'1'
sS'Drop'
p5576
S'0'
sS'Start'
p5577
S'1'
sS'Won'
p5578
S'0'
sS'Draw'
p5579
S'0'
sS'%'
S'0.00'
p5580
sS'Mat'
p5581
S'1'
sS'Conv'
p5582
S'0'
sS'Tries'
p5583
S'0'
sS'Pts'
p5584
S'0'
sa(dp5585
S'Pens'
p5586
S'0'
sS'Sub'
p5587
S'1'
sS'Lost'
p5588
S'1'
sS'Drop'
p5589
S'0'
sS'Start'
p5590
S'0'
sS'Won'
p5591
S'0'
sS'Draw'
p5592
S'0'
sS'%'
S'0.00'
p5593
sS'Mat'
p5594
S'1'
sS'Conv'
p5595
S'0'
sS'Tries'
p5596
S'0'
sS'Pts'
p5597
S'0'
sa(dp5598
S'Pens'
p5599
S'0'
sS'Sub'
p5600
S'1'
sS'Lost'
p5601
S'1'
sS'Drop'
p5602
S'0'
sS'Start'
p5603
S'1'
sS'Won'
p5604
S'1'
sS'Draw'
p5605
S'0'
sS'%'
S'50.00'
p5606
sS'Mat'
p5607
S'2'
sS'Conv'
p5608
S'0'
sS'Tries'
p5609
S'0'
sS'Pts'
p5610
S'0'
sa(dp5611
S'Pens'
p5612
S'0'
sS'Sub'
p5613
S'2'
sS'Lost'
p5614
S'8'
sS'Drop'
p5615
S'0'
sS'Start'
p5616
S'8'
sS'Won'
p5617
S'2'
sS'Draw'
p5618
S'0'
sS'%'
S'20.00'
p5619
sS'Mat'
p5620
S'10'
p5621
sS'Conv'
p5622
S'0'
sS'Tries'
p5623
S'0'
sS'Pts'
p5624
S'0'
sa(dp5625
S'Pens'
p5626
S'0'
sS'Sub'
p5627
S'0'
sS'Lost'
p5628
S'1'
sS'Drop'
p5629
S'0'
sS'Start'
p5630
S'2'
sS'Won'
p5631
S'1'
sS'Draw'
p5632
S'0'
sS'%'
S'50.00'
p5633
sS'Mat'
p5634
S'2'
sS'Conv'
p5635
S'0'
sS'Tries'
p5636
S'0'
sS'Pts'
p5637
S'0'
sa(dp5638
S'Pens'
p5639
S'0'
sS'Sub'
p5640
S'1'
sS'Lost'
p5641
S'1'
sS'Drop'
p5642
S'0'
sS'Start'
p5643
S'1'
sS'Won'
p5644
S'1'
sS'Draw'
p5645
S'0'
sS'%'
S'50.00'
p5646
sS'Mat'
p5647
S'2'
sS'Conv'
p5648
S'0'
sS'Tries'
p5649
S'0'
sS'Pts'
p5650
S'0'
sa(dp5651
S'Pens'
p5652
S'0'
sS'Sub'
p5653
S'0'
sS'Lost'
p5654
S'1'
sS'Drop'
p5655
S'0'
sS'Start'
p5656
S'1'
sS'Won'
p5657
S'0'
sS'Draw'
p5658
S'0'
sS'%'
S'0.00'
p5659
sS'Mat'
p5660
S'1'
sS'Conv'
p5661
S'0'
sS'Tries'
p5662
S'0'
sS'Pts'
p5663
S'0'
sa(dp5664
S'Pens'
p5665
S'0'
sS'Sub'
p5666
S'0'
sS'Lost'
p5667
S'1'
sS'Drop'
p5668
S'0'
sS'Start'
p5669
S'1'
sS'Won'
p5670
S'0'
sS'Draw'
p5671
S'0'
sS'%'
S'0.00'
p5672
sS'Mat'
p5673
S'1'
sS'Conv'
p5674
S'0'
sS'Tries'
p5675
S'0'
sS'Pts'
p5676
S'0'
sa(dp5677
S'Pens'
p5678
S'0'
sS'Sub'
p5679
S'7'
sS'Lost'
p5680
S'11'
p5681
sS'Drop'
p5682
S'0'
sS'Start'
p5683
S'13'
p5684
sS'Won'
p5685
S'8'
sS'Draw'
p5686
S'1'
sS'%'
S'42.50'
p5687
sS'Mat'
p5688
S'20'
p5689
sS'Conv'
p5690
S'0'
sS'Tries'
p5691
S'3'
sS'Pts'
p5692
S'15'
p5693
sa(dp5694
S'Pens'
p5695
S'1'
sS'Sub'
p5696
S'2'
sS'Lost'
p5697
S'3'
sS'Drop'
p5698
S'0'
sS'Start'
p5699
S'3'
sS'Won'
p5700
S'2'
sS'Draw'
p5701
S'0'
sS'%'
S'40.00'
p5702
sS'Mat'
p5703
S'5'
sS'Conv'
p5704
S'2'
sS'Tries'
p5705
S'3'
sS'Pts'
p5706
S'22'
p5707
sa(dp5708
S'Pens'
p5709
S'0'
sS'Sub'
p5710
S'1'
sS'Lost'
p5711
S'8'
sS'Drop'
p5712
S'0'
sS'Start'
p5713
S'11'
p5714
sS'Won'
p5715
S'4'
sS'Draw'
p5716
S'0'
sS'%'
S'33.33'
p5717
sS'Mat'
p5718
S'12'
p5719
sS'Conv'
p5720
S'0'
sS'Tries'
p5721
S'4'
sS'Pts'
p5722
S'20'
p5723
sa(dp5724
S'Pens'
p5725
S'0'
sS'Sub'
p5726
S'0'
sS'Lost'
p5727
S'0'
sS'Drop'
p5728
S'0'
sS'Start'
p5729
S'1'
sS'Won'
p5730
S'1'
sS'Draw'
p5731
S'0'
sS'%'
S'100.00'
p5732
sS'Mat'
p5733
S'1'
sS'Conv'
p5734
S'0'
sS'Tries'
p5735
S'0'
sS'Pts'
p5736
S'0'
sa(dp5737
S'Pens'
p5738
S'0'
sS'Sub'
p5739
S'0'
sS'Lost'
p5740
S'0'
sS'Drop'
p5741
S'0'
sS'Start'
p5742
S'1'
sS'Won'
p5743
S'1'
sS'Draw'
p5744
S'0'
sS'%'
S'100.00'
p5745
sS'Mat'
p5746
S'1'
sS'Conv'
p5747
S'0'
sS'Tries'
p5748
S'0'
sS'Pts'
p5749
S'0'
sa(dp5750
S'Pens'
p5751
S'1'
sS'Sub'
p5752
S'5'
sS'Lost'
p5753
S'4'
sS'Drop'
p5754
S'0'
sS'Start'
p5755
S'4'
sS'Won'
p5756
S'5'
sS'Draw'
p5757
S'0'
sS'%'
S'55.55'
p5758
sS'Mat'
p5759
S'9'
sS'Conv'
p5760
S'3'
sS'Tries'
p5761
S'0'
sS'Pts'
p5762
S'9'
sa(dp5763
S'Pens'
p5764
S'0'
sS'Sub'
p5765
S'7'
sS'Lost'
p5766
S'10'
p5767
sS'Drop'
p5768
S'0'
sS'Start'
p5769
S'16'
p5770
sS'Won'
p5771
S'11'
p5772
sS'Draw'
p5773
S'2'
sS'%'
S'52.17'
p5774
sS'Mat'
p5775
S'23'
p5776
sS'Conv'
p5777
S'0'
sS'Tries'
p5778
S'9'
sS'Pts'
p5779
S'45'
p5780
sa(dp5781
S'Pens'
p5782
S'0'
sS'Sub'
p5783
S'12'
p5784
sS'Lost'
p5785
S'17'
p5786
sS'Drop'
p5787
S'0'
sS'Start'
p5788
S'14'
p5789
sS'Won'
p5790
S'8'
sS'Draw'
p5791
S'1'
sS'%'
S'32.69'
p5792
sS'Mat'
p5793
S'26'
p5794
sS'Conv'
p5795
S'0'
sS'Tries'
p5796
S'1'
sS'Pts'
p5797
S'5'
sa(dp5798
S'Pens'
p5799
S'0'
sS'Sub'
p5800
S'2'
sS'Lost'
p5801
S'1'
sS'Drop'
p5802
S'0'
sS'Start'
p5803
S'1'
sS'Won'
p5804
S'2'
sS'Draw'
p5805
S'0'
sS'%'
S'66.66'
p5806
sS'Mat'
p5807
S'3'
sS'Conv'
p5808
S'0'
sS'Tries'
p5809
S'0'
sS'Pts'
p5810
S'0'
sa(dp5811
S'Pens'
p5812
S'0'
sS'Sub'
p5813
S'3'
sS'Lost'
p5814
S'19'
p5815
sS'Drop'
p5816
S'0'
sS'Start'
p5817
S'29'
p5818
sS'Won'
p5819
S'12'
p5820
sS'Draw'
p5821
S'1'
sS'%'
S'39.06'
p5822
sS'Mat'
p5823
S'32'
p5824
sS'Conv'
p5825
S'0'
sS'Tries'
p5826
S'0'
sS'Pts'
p5827
S'0'
sa(dp5828
S'Pens'
p5829
S'0'
sS'Sub'
p5830
S'0'
sS'Lost'
p5831
S'0'
sS'Drop'
p5832
S'0'
sS'Start'
p5833
S'1'
sS'Won'
p5834
S'1'
sS'Draw'
p5835
S'0'
sS'%'
S'100.00'
p5836
sS'Mat'
p5837
S'1'
sS'Conv'
p5838
S'0'
sS'Tries'
p5839
S'0'
sS'Pts'
p5840
S'0'
sa(dp5841
S'Pens'
p5842
S'0'
sS'Sub'
p5843
S'1'
sS'Lost'
p5844
S'6'
sS'Drop'
p5845
S'0'
sS'Start'
p5846
S'13'
p5847
sS'Won'
p5848
S'7'
sS'Draw'
p5849
S'1'
sS'%'
S'53.57'
p5850
sS'Mat'
p5851
S'14'
p5852
sS'Conv'
p5853
S'0'
sS'Tries'
p5854
S'4'
sS'Pts'
p5855
S'20'
p5856
sa(dp5857
S'Pens'
p5858
S'0'
sS'Sub'
p5859
S'2'
sS'Lost'
p5860
S'3'
sS'Drop'
p5861
S'0'
sS'Start'
p5862
S'1'
sS'Won'
p5863
S'0'
sS'Draw'
p5864
S'0'
sS'%'
S'0.00'
p5865
sS'Mat'
p5866
S'3'
sS'Conv'
p5867
S'0'
sS'Tries'
p5868
S'0'
sS'Pts'
p5869
S'0'
sa(dp5870
S'Pens'
p5871
S'0'
sS'Sub'
p5872
S'8'
sS'Lost'
p5873
S'37'
p5874
sS'Drop'
p5875
S'0'
sS'Start'
p5876
S'73'
p5877
sS'Won'
p5878
S'41'
p5879
sS'Draw'
p5880
S'3'
sS'%'
S'52.46'
p5881
sS'Mat'
p5882
S'81'
p5883
sS'Conv'
p5884
S'0'
sS'Tries'
p5885
S'55'
p5886
sS'Pts'
p5887
S'275'
p5888
sa(dp5889
S'Pens'
p5890
S'0'
sS'Sub'
p5891
S'2'
sS'Lost'
p5892
S'1'
sS'Drop'
p5893
S'0'
sS'Start'
p5894
S'0'
sS'Won'
p5895
S'1'
sS'Draw'
p5896
S'0'
sS'%'
S'50.00'
p5897
sS'Mat'
p5898
S'2'
sS'Conv'
p5899
S'0'
sS'Tries'
p5900
S'0'
sS'Pts'
p5901
S'0'
sa(dp5902
S'Pens'
p5903
S'0'
sS'Sub'
p5904
S'11'
p5905
sS'Lost'
p5906
S'24'
p5907
sS'Drop'
p5908
S'0'
sS'Start'
p5909
S'29'
p5910
sS'Won'
p5911
S'14'
p5912
sS'Draw'
p5913
S'2'
sS'%'
S'37.50'
p5914
sS'Mat'
p5915
S'40'
p5916
sS'Conv'
p5917
S'0'
sS'Tries'
p5918
S'1'
sS'Pts'
p5919
S'5'
sa(dp5920
S'Pens'
p5921
S'0'
sS'Sub'
p5922
S'5'
sS'Lost'
p5923
S'9'
sS'Drop'
p5924
S'0'
sS'Start'
p5925
S'11'
p5926
sS'Won'
p5927
S'7'
sS'Draw'
p5928
S'0'
sS'%'
S'43.75'
p5929
sS'Mat'
p5930
S'16'
p5931
sS'Conv'
p5932
S'0'
sS'Tries'
p5933
S'1'
sS'Pts'
p5934
S'5'
sa(dp5935
S'Pens'
p5936
S'0'
sS'Sub'
p5937
S'8'
sS'Lost'
p5938
S'11'
p5939
sS'Drop'
p5940
S'0'
sS'Start'
p5941
S'13'
p5942
sS'Won'
p5943
S'9'
sS'Draw'
p5944
S'1'
sS'%'
S'45.23'
p5945
sS'Mat'
p5946
S'21'
p5947
sS'Conv'
p5948
S'0'
sS'Tries'
p5949
S'1'
sS'Pts'
p5950
S'5'
sa(dp5951
S'Pens'
p5952
S'1'
sS'Sub'
p5953
S'3'
sS'Lost'
p5954
S'4'
sS'Drop'
p5955
S'1'
sS'Start'
p5956
S'7'
sS'Won'
p5957
S'6'
sS'Draw'
p5958
S'0'
sS'%'
S'60.00'
p5959
sS'Mat'
p5960
S'10'
p5961
sS'Conv'
p5962
S'17'
p5963
sS'Tries'
p5964
S'6'
sS'Pts'
p5965
S'70'
p5966
sa(dp5967
S'Pens'
p5968
S'0'
sS'Sub'
p5969
S'1'
sS'Lost'
p5970
S'27'
p5971
sS'Drop'
p5972
S'0'
sS'Start'
p5973
S'47'
p5974
sS'Won'
p5975
S'20'
p5976
sS'Draw'
p5977
S'1'
sS'%'
S'42.70'
p5978
sS'Mat'
p5979
S'48'
p5980
sS'Conv'
p5981
S'0'
sS'Tries'
p5982
S'7'
sS'Pts'
p5983
S'35'
p5984
sa(dp5985
S'Pens'
p5986
S'0'
sS'Sub'
p5987
S'5'
sS'Lost'
p5988
S'12'
p5989
sS'Drop'
p5990
S'0'
sS'Start'
p5991
S'13'
p5992
sS'Won'
p5993
S'6'
sS'Draw'
p5994
S'0'
sS'%'
S'33.33'
p5995
sS'Mat'
p5996
S'18'
p5997
sS'Conv'
p5998
S'0'
sS'Tries'
p5999
S'2'
sS'Pts'
p6000
S'10'
p6001
sa(dp6002
S'Pens'
p6003
S'0'
sS'Sub'
p6004
S'1'
sS'Lost'
p6005
S'1'
sS'Drop'
p6006
S'0'
sS'Start'
p6007
S'2'
sS'Won'
p6008
S'2'
sS'Draw'
p6009
S'0'
sS'%'
S'66.66'
p6010
sS'Mat'
p6011
S'3'
sS'Conv'
p6012
S'0'
sS'Tries'
p6013
S'2'
sS'Pts'
p6014
S'10'
p6015
sa(dp6016
S'Pens'
p6017
S'0'
sS'Sub'
p6018
S'0'
sS'Lost'
p6019
S'2'
sS'Drop'
p6020
S'0'
sS'Start'
p6021
S'2'
sS'Won'
p6022
S'0'
sS'Draw'
p6023
S'0'
sS'%'
S'0.00'
p6024
sS'Mat'
p6025
S'2'
sS'Conv'
p6026
S'0'
sS'Tries'
p6027
S'1'
sS'Pts'
p6028
S'5'
sa(dp6029
S'Pens'
p6030
S'0'
sS'Sub'
p6031
S'1'
sS'Lost'
p6032
S'3'
sS'Drop'
p6033
S'0'
sS'Start'
p6034
S'3'
sS'Won'
p6035
S'1'
sS'Draw'
p6036
S'0'
sS'%'
S'25.00'
p6037
sS'Mat'
p6038
S'4'
sS'Conv'
p6039
S'0'
sS'Tries'
p6040
S'3'
sS'Pts'
p6041
S'15'
p6042
sa(dp6043
S'Pens'
p6044
S'0'
sS'Sub'
p6045
S'0'
sS'Lost'
p6046
S'1'
sS'Drop'
p6047
S'0'
sS'Start'
p6048
S'2'
sS'Won'
p6049
S'1'
sS'Draw'
p6050
S'0'
sS'%'
S'50.00'
p6051
sS'Mat'
p6052
S'2'
sS'Conv'
p6053
S'0'
sS'Tries'
p6054
S'0'
sS'Pts'
p6055
S'0'
sa(dp6056
S'Pens'
p6057
S'0'
sS'Sub'
p6058
S'0'
sS'Lost'
p6059
S'1'
sS'Drop'
p6060
S'0'
sS'Start'
p6061
S'1'
sS'Won'
p6062
S'0'
sS'Draw'
p6063
S'0'
sS'%'
S'0.00'
p6064
sS'Mat'
p6065
S'1'
sS'Conv'
p6066
S'0'
sS'Tries'
p6067
S'0'
sS'Pts'
p6068
S'0'
sa(dp6069
S'Pens'
p6070
S'0'
sS'Sub'
p6071
S'0'
sS'Lost'
p6072
S'1'
sS'Drop'
p6073
S'0'
sS'Start'
p6074
S'1'
sS'Won'
p6075
S'0'
sS'Draw'
p6076
S'0'
sS'%'
S'0.00'
p6077
sS'Mat'
p6078
S'1'
sS'Conv'
p6079
S'0'
sS'Tries'
p6080
S'1'
sS'Pts'
p6081
S'5'
sa(dp6082
S'Pens'
p6083
S'0'
sS'Sub'
p6084
S'1'
sS'Lost'
p6085
S'1'
sS'Drop'
p6086
S'0'
sS'Start'
p6087
S'0'
sS'Won'
p6088
S'0'
sS'Draw'
p6089
S'0'
sS'%'
S'0.00'
p6090
sS'Mat'
p6091
S'1'
sS'Conv'
p6092
S'0'
sS'Tries'
p6093
S'0'
sS'Pts'
p6094
S'0'
sa(dp6095
S'Pens'
p6096
S'0'
sS'Sub'
p6097
S'2'
sS'Lost'
p6098
S'1'
sS'Drop'
p6099
S'0'
sS'Start'
p6100
S'0'
sS'Won'
p6101
S'1'
sS'Draw'
p6102
S'0'
sS'%'
S'50.00'
p6103
sS'Mat'
p6104
S'2'
sS'Conv'
p6105
S'0'
sS'Tries'
p6106
S'0'
sS'Pts'
p6107
S'0'
sa(dp6108
S'Pens'
p6109
S'0'
sS'Sub'
p6110
S'3'
sS'Lost'
p6111
S'6'
sS'Drop'
p6112
S'0'
sS'Start'
p6113
S'6'
sS'Won'
p6114
S'3'
sS'Draw'
p6115
S'0'
sS'%'
S'33.33'
p6116
sS'Mat'
p6117
S'9'
sS'Conv'
p6118
S'0'
sS'Tries'
p6119
S'0'
sS'Pts'
p6120
S'0'
sa(dp6121
S'Pens'
p6122
S'0'
sS'Sub'
p6123
S'1'
sS'Lost'
p6124
S'6'
sS'Drop'
p6125
S'0'
sS'Start'
p6126
S'5'
sS'Won'
p6127
S'0'
sS'Draw'
p6128
S'0'
sS'%'
S'0.00'
p6129
sS'Mat'
p6130
S'6'
sS'Conv'
p6131
S'0'
sS'Tries'
p6132
S'2'
sS'Pts'
p6133
S'10'
p6134
sa(dp6135
S'Pens'
p6136
S'0'
sS'Sub'
p6137
S'2'
sS'Lost'
p6138
S'2'
sS'Drop'
p6139
S'0'
sS'Start'
p6140
S'1'
sS'Won'
p6141
S'1'
sS'Draw'
p6142
S'0'
sS'%'
S'33.33'
p6143
sS'Mat'
p6144
S'3'
sS'Conv'
p6145
S'0'
sS'Tries'
p6146
S'2'
sS'Pts'
p6147
S'10'
p6148
sa(dp6149
S'Pens'
p6150
S'0'
sS'Sub'
p6151
S'2'
sS'Lost'
p6152
S'9'
sS'Drop'
p6153
S'0'
sS'Start'
p6154
S'8'
sS'Won'
p6155
S'1'
sS'Draw'
p6156
S'0'
sS'%'
S'10.00'
p6157
sS'Mat'
p6158
S'10'
p6159
sS'Conv'
p6160
S'0'
sS'Tries'
p6161
S'0'
sS'Pts'
p6162
S'0'
sa(dp6163
S'Pens'
p6164
S'0'
sS'Sub'
p6165
S'11'
p6166
sS'Lost'
p6167
S'12'
p6168
sS'Drop'
p6169
S'0'
sS'Start'
p6170
S'11'
p6171
sS'Won'
p6172
S'10'
p6173
sS'Draw'
p6174
S'0'
sS'%'
S'45.45'
p6175
sS'Mat'
p6176
S'22'
p6177
sS'Conv'
p6178
S'0'
sS'Tries'
p6179
S'0'
sS'Pts'
p6180
S'0'
sa(dp6181
S'Pens'
p6182
S'0'
sS'Sub'
p6183
S'5'
sS'Lost'
p6184
S'4'
sS'Drop'
p6185
S'0'
sS'Start'
p6186
S'0'
sS'Won'
p6187
S'1'
sS'Draw'
p6188
S'0'
sS'%'
S'20.00'
p6189
sS'Mat'
p6190
S'5'
sS'Conv'
p6191
S'0'
sS'Tries'
p6192
S'0'
sS'Pts'
p6193
S'0'
sa(dp6194
S'Pens'
p6195
S'0'
sS'Sub'
p6196
S'2'
sS'Lost'
p6197
S'4'
sS'Drop'
p6198
S'0'
sS'Start'
p6199
S'5'
sS'Won'
p6200
S'3'
sS'Draw'
p6201
S'0'
sS'%'
S'42.85'
p6202
sS'Mat'
p6203
S'7'
sS'Conv'
p6204
S'0'
sS'Tries'
p6205
S'0'
sS'Pts'
p6206
S'0'
sa(dp6207
S'Pens'
p6208
S'0'
sS'Sub'
p6209
S'0'
sS'Lost'
p6210
S'0'
sS'Drop'
p6211
S'0'
sS'Start'
p6212
S'2'
sS'Won'
p6213
S'1'
sS'Draw'
p6214
S'1'
sS'%'
S'75.00'
p6215
sS'Mat'
p6216
S'2'
sS'Conv'
p6217
S'2'
sS'Tries'
p6218
S'0'
sS'Pts'
p6219
S'4'
sa(dp6220
S'Pens'
p6221
S'0'
sS'Sub'
p6222
S'8'
sS'Lost'
p6223
S'16'
p6224
sS'Drop'
p6225
S'0'
sS'Start'
p6226
S'18'
p6227
sS'Won'
p6228
S'9'
sS'Draw'
p6229
S'1'
sS'%'
S'36.53'
p6230
sS'Mat'
p6231
S'26'
p6232
sS'Conv'
p6233
S'0'
sS'Tries'
p6234
S'1'
sS'Pts'
p6235
S'5'
sa(dp6236
S'Pens'
p6237
S'0'
sS'Sub'
p6238
S'3'
sS'Lost'
p6239
S'12'
p6240
sS'Drop'
p6241
S'0'
sS'Start'
p6242
S'20'
p6243
sS'Won'
p6244
S'9'
sS'Draw'
p6245
S'2'
sS'%'
S'43.47'
p6246
sS'Mat'
p6247
S'23'
p6248
sS'Conv'
p6249
S'0'
sS'Tries'
p6250
S'2'
sS'Pts'
p6251
S'10'
p6252
sa(dp6253
S'Pens'
p6254
S'0'
sS'Sub'
p6255
S'3'
sS'Lost'
p6256
S'4'
sS'Drop'
p6257
S'0'
sS'Start'
p6258
S'3'
sS'Won'
p6259
S'1'
sS'Draw'
p6260
S'1'
sS'%'
S'25.00'
p6261
sS'Mat'
p6262
S'6'
sS'Conv'
p6263
S'0'
sS'Tries'
p6264
S'2'
sS'Pts'
p6265
S'10'
p6266
sa(dp6267
S'Pens'
p6268
S'0'
sS'Sub'
p6269
S'4'
sS'Lost'
p6270
S'2'
sS'Drop'
p6271
S'0'
sS'Start'
p6272
S'3'
sS'Won'
p6273
S'4'
sS'Draw'
p6274
S'1'
sS'%'
S'64.28'
p6275
sS'Mat'
p6276
S'7'
sS'Conv'
p6277
S'0'
sS'Tries'
p6278
S'3'
sS'Pts'
p6279
S'15'
p6280
sa(dp6281
S'Pens'
p6282
S'14'
p6283
sS'Sub'
p6284
S'4'
sS'Lost'
p6285
S'8'
sS'Drop'
p6286
S'0'
sS'Start'
p6287
S'10'
p6288
sS'Won'
p6289
S'5'
sS'Draw'
p6290
S'1'
sS'%'
S'39.28'
p6291
sS'Mat'
p6292
S'14'
p6293
sS'Conv'
p6294
S'7'
sS'Tries'
p6295
S'1'
sS'Pts'
p6296
S'61'
p6297
sa(dp6298
S'Pens'
p6299
S'0'
sS'Sub'
p6300
S'19'
p6301
sS'Lost'
p6302
S'30'
p6303
sS'Drop'
p6304
S'0'
sS'Start'
p6305
S'68'
p6306
sS'Won'
p6307
S'54'
p6308
sS'Draw'
p6309
S'3'
sS'%'
S'63.79'
p6310
sS'Mat'
p6311
S'87'
p6312
sS'Conv'
p6313
S'0'
sS'Tries'
p6314
S'13'
p6315
sS'Pts'
p6316
S'65'
p6317
sa(dp6318
S'Pens'
p6319
S'0'
sS'Sub'
p6320
S'2'
sS'Lost'
p6321
S'4'
sS'Drop'
p6322
S'0'
sS'Start'
p6323
S'4'
sS'Won'
p6324
S'2'
sS'Draw'
p6325
S'0'
sS'%'
S'33.33'
p6326
sS'Mat'
p6327
S'6'
sS'Conv'
p6328
S'0'
sS'Tries'
p6329
S'0'
sS'Pts'
p6330
S'0'
sa(dp6331
S'Pens'
p6332
S'11'
p6333
sS'Sub'
p6334
S'0'
sS'Lost'
p6335
S'5'
sS'Drop'
p6336
S'5'
sS'Start'
p6337
S'8'
sS'Won'
p6338
S'3'
sS'Draw'
p6339
S'0'
sS'%'
S'37.50'
p6340
sS'Mat'
p6341
S'8'
sS'Conv'
p6342
S'12'
p6343
sS'Tries'
p6344
S'0'
sS'Pts'
p6345
S'72'
p6346
sa(dp6347
S'Pens'
p6348
S'0'
sS'Sub'
p6349
S'6'
sS'Lost'
p6350
S'5'
sS'Drop'
p6351
S'0'
sS'Start'
p6352
S'4'
sS'Won'
p6353
S'5'
sS'Draw'
p6354
S'0'
sS'%'
S'50.00'
p6355
sS'Mat'
p6356
S'10'
p6357
sS'Conv'
p6358
S'0'
sS'Tries'
p6359
S'3'
sS'Pts'
p6360
S'15'
p6361
sa(dp6362
S'Pens'
p6363
S'0'
sS'Sub'
p6364
S'1'
sS'Lost'
p6365
S'20'
p6366
sS'Drop'
p6367
S'0'
sS'Start'
p6368
S'40'
p6369
sS'Won'
p6370
S'19'
p6371
sS'Draw'
p6372
S'2'
sS'%'
S'48.78'
p6373
sS'Mat'
p6374
S'41'
p6375
sS'Conv'
p6376
S'0'
sS'Tries'
p6377
S'18'
p6378
sS'Pts'
p6379
S'90'
p6380
sa(dp6381
S'Pens'
p6382
S'0'
sS'Sub'
p6383
S'3'
sS'Lost'
p6384
S'3'
sS'Drop'
p6385
S'0'
sS'Start'
p6386
S'3'
sS'Won'
p6387
S'3'
sS'Draw'
p6388
S'0'
sS'%'
S'50.00'
p6389
sS'Mat'
p6390
S'6'
sS'Conv'
p6391
S'0'
sS'Tries'
p6392
S'5'
sS'Pts'
p6393
S'25'
p6394
sa(dp6395
S'Pens'
p6396
S'0'
sS'Sub'
p6397
S'8'
sS'Lost'
p6398
S'9'
sS'Drop'
p6399
S'0'
sS'Start'
p6400
S'5'
sS'Won'
p6401
S'4'
sS'Draw'
p6402
S'0'
sS'%'
S'30.76'
p6403
sS'Mat'
p6404
S'13'
p6405
sS'Conv'
p6406
S'0'
sS'Tries'
p6407
S'0'
sS'Pts'
p6408
S'0'
sa(dp6409
S'Pens'
p6410
S'0'
sS'Sub'
p6411
S'0'
sS'Lost'
p6412
S'2'
sS'Drop'
p6413
S'0'
sS'Start'
p6414
S'2'
sS'Won'
p6415
S'0'
sS'Draw'
p6416
S'0'
sS'%'
S'0.00'
p6417
sS'Mat'
p6418
S'2'
sS'Conv'
p6419
S'0'
sS'Tries'
p6420
S'1'
sS'Pts'
p6421
S'5'
sa(dp6422
S'Pens'
p6423
S'0'
sS'Sub'
p6424
S'0'
sS'Lost'
p6425
S'3'
sS'Drop'
p6426
S'0'
sS'Start'
p6427
S'3'
sS'Won'
p6428
S'0'
sS'Draw'
p6429
S'0'
sS'%'
S'0.00'
p6430
sS'Mat'
p6431
S'3'
sS'Conv'
p6432
S'0'
sS'Tries'
p6433
S'0'
sS'Pts'
p6434
S'0'
sa(dp6435
S'Pens'
p6436
S'1'
sS'Sub'
p6437
S'2'
sS'Lost'
p6438
S'2'
sS'Drop'
p6439
S'0'
sS'Start'
p6440
S'4'
sS'Won'
p6441
S'4'
sS'Draw'
p6442
S'0'
sS'%'
S'66.66'
p6443
sS'Mat'
p6444
S'6'
sS'Conv'
p6445
S'1'
sS'Tries'
p6446
S'0'
sS'Pts'
p6447
S'5'
sa(dp6448
S'Pens'
p6449
S'0'
sS'Sub'
p6450
S'2'
sS'Lost'
p6451
S'3'
sS'Drop'
p6452
S'0'
sS'Start'
p6453
S'1'
sS'Won'
p6454
S'0'
sS'Draw'
p6455
S'0'
sS'%'
S'0.00'
p6456
sS'Mat'
p6457
S'3'
sS'Conv'
p6458
S'0'
sS'Tries'
p6459
S'0'
sS'Pts'
p6460
S'0'
sa(dp6461
S'Pens'
p6462
S'0'
sS'Sub'
p6463
S'2'
sS'Lost'
p6464
S'3'
sS'Drop'
p6465
S'0'
sS'Start'
p6466
S'1'
sS'Won'
p6467
S'0'
sS'Draw'
p6468
S'0'
sS'%'
S'0.00'
p6469
sS'Mat'
p6470
S'3'
sS'Conv'
p6471
S'0'
sS'Tries'
p6472
S'0'
sS'Pts'
p6473
S'0'
sa(dp6474
S'Pens'
p6475
S'0'
sS'Sub'
p6476
S'5'
sS'Lost'
p6477
S'7'
sS'Drop'
p6478
S'0'
sS'Start'
p6479
S'7'
sS'Won'
p6480
S'5'
sS'Draw'
p6481
S'0'
sS'%'
S'41.66'
p6482
sS'Mat'
p6483
S'12'
p6484
sS'Conv'
p6485
S'0'
sS'Tries'
p6486
S'2'
sS'Pts'
p6487
S'10'
p6488
sa(dp6489
S'Pens'
p6490
S'0'
sS'Sub'
p6491
S'1'
sS'Lost'
p6492
S'9'
sS'Drop'
p6493
S'0'
sS'Start'
p6494
S'16'
p6495
sS'Won'
p6496
S'7'
sS'Draw'
p6497
S'1'
sS'%'
S'44.11'
p6498
sS'Mat'
p6499
S'17'
p6500
sS'Conv'
p6501
S'0'
sS'Tries'
p6502
S'1'
sS'Pts'
p6503
S'5'
sa(dp6504
S'Pens'
p6505
S'0'
sS'Sub'
p6506
S'5'
sS'Lost'
p6507
S'2'
sS'Drop'
p6508
S'0'
sS'Start'
p6509
S'2'
sS'Won'
p6510
S'5'
sS'Draw'
p6511
S'0'
sS'%'
S'71.42'
p6512
sS'Mat'
p6513
S'7'
sS'Conv'
p6514
S'0'
sS'Tries'
p6515
S'0'
sS'Pts'
p6516
S'0'
sa(dp6517
S'Pens'
p6518
S'0'
sS'Sub'
p6519
S'4'
sS'Lost'
p6520
S'11'
p6521
sS'Drop'
p6522
S'0'
sS'Start'
p6523
S'12'
p6524
sS'Won'
p6525
S'4'
sS'Draw'
p6526
S'1'
sS'%'
S'28.12'
p6527
sS'Mat'
p6528
S'16'
p6529
sS'Conv'
p6530
S'0'
sS'Tries'
p6531
S'5'
sS'Pts'
p6532
S'25'
p6533
sa(dp6534
S'Pens'
p6535
S'0'
sS'Sub'
p6536
S'3'
sS'Lost'
p6537
S'18'
p6538
sS'Drop'
p6539
S'0'
sS'Start'
p6540
S'23'
p6541
sS'Won'
p6542
S'7'
sS'Draw'
p6543
S'1'
sS'%'
S'28.84'
p6544
sS'Mat'
p6545
S'26'
p6546
sS'Conv'
p6547
S'0'
sS'Tries'
p6548
S'4'
sS'Pts'
p6549
S'20'
p6550
sa(dp6551
S'Pens'
p6552
S'0'
sS'Sub'
p6553
S'8'
sS'Lost'
p6554
S'7'
sS'Drop'
p6555
S'0'
sS'Start'
p6556
S'4'
sS'Won'
p6557
S'5'
sS'Draw'
p6558
S'0'
sS'%'
S'41.66'
p6559
sS'Mat'
p6560
S'12'
p6561
sS'Conv'
p6562
S'0'
sS'Tries'
p6563
S'0'
sS'Pts'
p6564
S'0'
sa(dp6565
S'Pens'
p6566
S'0'
sS'Sub'
p6567
S'0'
sS'Lost'
p6568
S'4'
sS'Drop'
p6569
S'0'
sS'Start'
p6570
S'5'
sS'Won'
p6571
S'1'
sS'Draw'
p6572
S'0'
sS'%'
S'20.00'
p6573
sS'Mat'
p6574
S'5'
sS'Conv'
p6575
S'0'
sS'Tries'
p6576
S'0'
sS'Pts'
p6577
S'0'
sa(dp6578
S'Pens'
p6579
S'0'
sS'Sub'
p6580
S'0'
sS'Lost'
p6581
S'4'
sS'Drop'
p6582
S'0'
sS'Start'
p6583
S'7'
sS'Won'
p6584
S'3'
sS'Draw'
p6585
S'0'
sS'%'
S'42.85'
p6586
sS'Mat'
p6587
S'7'
sS'Conv'
p6588
S'0'
sS'Tries'
p6589
S'0'
sS'Pts'
p6590
S'0'
sa(dp6591
S'Pens'
p6592
S'66'
p6593
sS'Sub'
p6594
S'5'
sS'Lost'
p6595
S'14'
p6596
sS'Drop'
p6597
S'0'
sS'Start'
p6598
S'41'
p6599
sS'Won'
p6600
S'32'
p6601
sS'Draw'
p6602
S'0'
sS'%'
S'69.56'
p6603
sS'Mat'
p6604
S'46'
p6605
sS'Conv'
p6606
S'146'
p6607
sS'Tries'
p6608
S'16'
p6609
sS'Pts'
p6610
S'570'
p6611
sa(dp6612
S'Pens'
p6613
S'0'
sS'Sub'
p6614
S'7'
sS'Lost'
p6615
S'5'
sS'Drop'
p6616
S'0'
sS'Start'
p6617
S'1'
sS'Won'
p6618
S'3'
sS'Draw'
p6619
S'0'
sS'%'
S'37.50'
p6620
sS'Mat'
p6621
S'8'
sS'Conv'
p6622
S'0'
sS'Tries'
p6623
S'0'
sS'Pts'
p6624
S'0'
sa(dp6625
S'Pens'
p6626
S'0'
sS'Sub'
p6627
S'2'
sS'Lost'
p6628
S'3'
sS'Drop'
p6629
S'0'
sS'Start'
p6630
S'3'
sS'Won'
p6631
S'2'
sS'Draw'
p6632
S'0'
sS'%'
S'40.00'
p6633
sS'Mat'
p6634
S'5'
sS'Conv'
p6635
S'0'
sS'Tries'
p6636
S'1'
sS'Pts'
p6637
S'5'
sa(dp6638
S'Pens'
p6639
S'0'
sS'Sub'
p6640
S'2'
sS'Lost'
p6641
S'1'
sS'Drop'
p6642
S'0'
sS'Start'
p6643
S'2'
sS'Won'
p6644
S'3'
sS'Draw'
p6645
S'0'
sS'%'
S'75.00'
p6646
sS'Mat'
p6647
S'4'
sS'Conv'
p6648
S'0'
sS'Tries'
p6649
S'0'
sS'Pts'
p6650
S'0'
sa(dp6651
S'Pens'
p6652
S'0'
sS'Sub'
p6653
S'1'
sS'Lost'
p6654
S'1'
sS'Drop'
p6655
S'0'
sS'Start'
p6656
S'2'
sS'Won'
p6657
S'2'
sS'Draw'
p6658
S'0'
sS'%'
S'66.66'
p6659
sS'Mat'
p6660
S'3'
sS'Conv'
p6661
S'0'
sS'Tries'
p6662
S'3'
sS'Pts'
p6663
S'15'
p6664
sa(dp6665
S'Pens'
p6666
S'0'
sS'Sub'
p6667
S'1'
sS'Lost'
p6668
S'4'
sS'Drop'
p6669
S'0'
sS'Start'
p6670
S'10'
p6671
sS'Won'
p6672
S'6'
sS'Draw'
p6673
S'1'
sS'%'
S'59.09'
p6674
sS'Mat'
p6675
S'11'
p6676
sS'Conv'
p6677
S'0'
sS'Tries'
p6678
S'7'
sS'Pts'
p6679
S'35'
p6680
sa(dp6681
S'Pens'
p6682
S'0'
sS'Sub'
p6683
S'2'
sS'Lost'
p6684
S'2'
sS'Drop'
p6685
S'0'
sS'Start'
p6686
S'0'
sS'Won'
p6687
S'0'
sS'Draw'
p6688
S'0'
sS'%'
S'0.00'
p6689
sS'Mat'
p6690
S'2'
sS'Conv'
p6691
S'0'
sS'Tries'
p6692
S'0'
sS'Pts'
p6693
S'0'
sa(dp6694
S'Pens'
p6695
S'0'
sS'Sub'
p6696
S'0'
sS'Lost'
p6697
S'0'
sS'Drop'
p6698
S'0'
sS'Start'
p6699
S'1'
sS'Won'
p6700
S'1'
sS'Draw'
p6701
S'0'
sS'%'
S'100.00'
p6702
sS'Mat'
p6703
S'1'
sS'Conv'
p6704
S'0'
sS'Tries'
p6705
S'0'
sS'Pts'
p6706
S'0'
sa(dp6707
S'Pens'
p6708
S'0'
sS'Sub'
p6709
S'11'
p6710
sS'Lost'
p6711
S'26'
p6712
sS'Drop'
p6713
S'0'
sS'Start'
p6714
S'57'
p6715
sS'Won'
p6716
S'41'
p6717
sS'Draw'
p6718
S'1'
sS'%'
S'61.02'
p6719
sS'Mat'
p6720
S'68'
p6721
sS'Conv'
p6722
S'0'
sS'Tries'
p6723
S'32'
p6724
sS'Pts'
p6725
S'160'
p6726
sa(dp6727
S'Pens'
p6728
S'0'
sS'Sub'
p6729
S'9'
sS'Lost'
p6730
S'19'
p6731
sS'Drop'
p6732
S'0'
sS'Start'
p6733
S'34'
p6734
sS'Won'
p6735
S'23'
p6736
sS'Draw'
p6737
S'1'
sS'%'
S'54.65'
p6738
sS'Mat'
p6739
S'43'
p6740
sS'Conv'
p6741
S'0'
sS'Tries'
p6742
S'2'
sS'Pts'
p6743
S'10'
p6744
sa(dp6745
S'Pens'
p6746
S'0'
sS'Sub'
p6747
S'1'
sS'Lost'
p6748
S'3'
sS'Drop'
p6749
S'0'
sS'Start'
p6750
S'3'
sS'Won'
p6751
S'1'
sS'Draw'
p6752
S'0'
sS'%'
S'25.00'
p6753
sS'Mat'
p6754
S'4'
sS'Conv'
p6755
S'0'
sS'Tries'
p6756
S'1'
sS'Pts'
p6757
S'5'
sa(dp6758
S'Pens'
p6759
S'0'
sS'Sub'
p6760
S'1'
sS'Lost'
p6761
S'4'
sS'Drop'
p6762
S'0'
sS'Start'
p6763
S'8'
sS'Won'
p6764
S'5'
sS'Draw'
p6765
S'0'
sS'%'
S'55.55'
p6766
sS'Mat'
p6767
S'9'
sS'Conv'
p6768
S'0'
sS'Tries'
p6769
S'1'
sS'Pts'
p6770
S'5'
sa(dp6771
S'Pens'
p6772
S'0'
sS'Sub'
p6773
S'6'
sS'Lost'
p6774
S'13'
p6775
sS'Drop'
p6776
S'0'
sS'Start'
p6777
S'18'
p6778
sS'Won'
p6779
S'10'
p6780
sS'Draw'
p6781
S'1'
sS'%'
S'43.75'
p6782
sS'Mat'
p6783
S'24'
p6784
sS'Conv'
p6785
S'0'
sS'Tries'
p6786
S'1'
sS'Pts'
p6787
S'5'
sa(dp6788
S'Pens'
p6789
S'10'
p6790
sS'Sub'
p6791
S'4'
sS'Lost'
p6792
S'8'
sS'Drop'
p6793
S'1'
sS'Start'
p6794
S'9'
sS'Won'
p6795
S'5'
sS'Draw'
p6796
S'0'
sS'%'
S'38.46'
p6797
sS'Mat'
p6798
S'13'
p6799
sS'Conv'
p6800
S'11'
p6801
sS'Tries'
p6802
S'0'
sS'Pts'
p6803
S'55'
p6804
sa(dp6805
S'Pens'
p6806
S'0'
sS'Sub'
p6807
S'11'
p6808
sS'Lost'
p6809
S'18'
p6810
sS'Drop'
p6811
S'0'
sS'Start'
p6812
S'28'
p6813
sS'Won'
p6814
S'20'
p6815
sS'Draw'
p6816
S'1'
sS'%'
S'52.56'
p6817
sS'Mat'
p6818
S'39'
p6819
sS'Conv'
p6820
S'0'
sS'Tries'
p6821
S'16'
p6822
sS'Pts'
p6823
S'80'
p6824
sa(dp6825
S'Pens'
p6826
S'0'
sS'Sub'
p6827
S'10'
p6828
sS'Lost'
p6829
S'8'
sS'Drop'
p6830
S'0'
sS'Start'
p6831
S'5'
sS'Won'
p6832
S'7'
sS'Draw'
p6833
S'0'
sS'%'
S'46.66'
p6834
sS'Mat'
p6835
S'15'
p6836
sS'Conv'
p6837
S'0'
sS'Tries'
p6838
S'2'
sS'Pts'
p6839
S'10'
p6840
sa(dp6841
S'Pens'
p6842
S'0'
sS'Sub'
p6843
S'2'
sS'Lost'
p6844
S'5'
sS'Drop'
p6845
S'0'
sS'Start'
p6846
S'5'
sS'Won'
p6847
S'2'
sS'Draw'
p6848
S'0'
sS'%'
S'28.57'
p6849
sS'Mat'
p6850
S'7'
sS'Conv'
p6851
S'0'
sS'Tries'
p6852
S'0'
sS'Pts'
p6853
S'0'
sa(dp6854
S'Pens'
p6855
S'0'
sS'Sub'
p6856
S'7'
sS'Lost'
p6857
S'7'
sS'Drop'
p6858
S'0'
sS'Start'
p6859
S'5'
sS'Won'
p6860
S'5'
sS'Draw'
p6861
S'0'
sS'%'
S'41.66'
p6862
sS'Mat'
p6863
S'12'
p6864
sS'Conv'
p6865
S'0'
sS'Tries'
p6866
S'2'
sS'Pts'
p6867
S'10'
p6868
sa(dp6869
S'Pens'
p6870
S'0'
sS'Sub'
p6871
S'8'
sS'Lost'
p6872
S'5'
sS'Drop'
p6873
S'0'
sS'Start'
p6874
S'10'
p6875
sS'Won'
p6876
S'12'
p6877
sS'Draw'
p6878
S'1'
sS'%'
S'69.44'
p6879
sS'Mat'
p6880
S'18'
p6881
sS'Conv'
p6882
S'11'
p6883
sS'Tries'
p6884
S'9'
sS'Pts'
p6885
S'67'
p6886
sa(dp6887
S'Pens'
p6888
S'0'
sS'Sub'
p6889
S'1'
sS'Lost'
p6890
S'1'
sS'Drop'
p6891
S'0'
sS'Start'
p6892
S'2'
sS'Won'
p6893
S'2'
sS'Draw'
p6894
S'0'
sS'%'
S'66.66'
p6895
sS'Mat'
p6896
S'3'
sS'Conv'
p6897
S'0'
sS'Tries'
p6898
S'2'
sS'Pts'
p6899
S'10'
p6900
sa(dp6901
S'Pens'
p6902
S'28'
p6903
sS'Sub'
p6904
S'9'
sS'Lost'
p6905
S'12'
p6906
sS'Drop'
p6907
S'2'
sS'Start'
p6908
S'23'
p6909
sS'Won'
p6910
S'19'
p6911
sS'Draw'
p6912
S'1'
sS'%'
S'60.93'
p6913
sS'Mat'
p6914
S'32'
p6915
sS'Conv'
p6916
S'78'
p6917
sS'Tries'
p6918
S'8'
sS'Pts'
p6919
S'286'
p6920
sa(dp6921
S'Pens'
p6922
S'0'
sS'Sub'
p6923
S'6'
sS'Lost'
p6924
S'12'
p6925
sS'Drop'
p6926
S'0'
sS'Start'
p6927
S'19'
p6928
sS'Won'
p6929
S'11'
p6930
sS'Draw'
p6931
S'2'
sS'%'
S'48.00'
p6932
sS'Mat'
p6933
S'25'
p6934
sS'Conv'
p6935
S'1'
sS'Tries'
p6936
S'14'
p6937
sS'Pts'
p6938
S'72'
p6939
sa(dp6940
S'Pens'
p6941
S'0'
sS'Sub'
p6942
S'5'
sS'Lost'
p6943
S'15'
p6944
sS'Drop'
p6945
S'0'
sS'Start'
p6946
S'27'
p6947
sS'Won'
p6948
S'16'
p6949
sS'Draw'
p6950
S'1'
sS'%'
S'51.56'
p6951
sS'Mat'
p6952
S'32'
p6953
sS'Conv'
p6954
S'0'
sS'Tries'
p6955
S'12'
p6956
sS'Pts'
p6957
S'60'
p6958
sa(dp6959
S'Pens'
p6960
S'0'
sS'Sub'
p6961
S'7'
sS'Lost'
p6962
S'11'
p6963
sS'Drop'
p6964
S'0'
sS'Start'
p6965
S'18'
p6966
sS'Won'
p6967
S'13'
p6968
sS'Draw'
p6969
S'1'
sS'%'
S'54.00'
p6970
sS'Mat'
p6971
S'25'
p6972
sS'Conv'
p6973
S'0'
sS'Tries'
p6974
S'2'
sS'Pts'
p6975
S'10'
p6976
sa(dp6977
S'Pens'
p6978
S'0'
sS'Sub'
p6979
S'11'
p6980
sS'Lost'
p6981
S'14'
p6982
sS'Drop'
p6983
S'0'
sS'Start'
p6984
S'19'
p6985
sS'Won'
p6986
S'16'
p6987
sS'Draw'
p6988
S'0'
sS'%'
S'53.33'
p6989
sS'Mat'
p6990
S'30'
p6991
sS'Conv'
p6992
S'0'
sS'Tries'
p6993
S'3'
sS'Pts'
p6994
S'15'
p6995
sa(dp6996
S'Pens'
p6997
S'0'
sS'Sub'
p6998
S'4'
sS'Lost'
p6999
S'2'
sS'Drop'
p7000
S'0'
sS'Start'
p7001
S'2'
sS'Won'
p7002
S'4'
sS'Draw'
p7003
S'0'
sS'%'
S'66.66'
p7004
sS'Mat'
p7005
S'6'
sS'Conv'
p7006
S'0'
sS'Tries'
p7007
S'0'
sS'Pts'
p7008
S'0'
sa(dp7009
S'Pens'
p7010
S'2'
sS'Sub'
p7011
S'6'
sS'Lost'
p7012
S'11'
p7013
sS'Drop'
p7014
S'1'
sS'Start'
p7015
S'18'
p7016
sS'Won'
p7017
S'13'
p7018
sS'Draw'
p7019
S'0'
sS'%'
S'54.16'
p7020
sS'Mat'
p7021
S'24'
p7022
sS'Conv'
p7023
S'2'
sS'Tries'
p7024
S'4'
sS'Pts'
p7025
S'33'
p7026
sa(dp7027
S'Pens'
p7028
S'0'
sS'Sub'
p7029
S'7'
sS'Lost'
p7030
S'6'
sS'Drop'
p7031
S'0'
sS'Start'
p7032
S'19'
p7033
sS'Won'
p7034
S'20'
p7035
sS'Draw'
p7036
S'0'
sS'%'
S'76.92'
p7037
sS'Mat'
p7038
S'26'
p7039
sS'Conv'
p7040
S'0'
sS'Tries'
p7041
S'11'
p7042
sS'Pts'
p7043
S'55'
p7044
sa(dp7045
S'Pens'
p7046
S'0'
sS'Sub'
p7047
S'3'
sS'Lost'
p7048
S'7'
sS'Drop'
p7049
S'0'
sS'Start'
p7050
S'10'
p7051
sS'Won'
p7052
S'6'
sS'Draw'
p7053
S'0'
sS'%'
S'46.15'
p7054
sS'Mat'
p7055
S'13'
p7056
sS'Conv'
p7057
S'0'
sS'Tries'
p7058
S'4'
sS'Pts'
p7059
S'20'
p7060
sa(dp7061
S'Pens'
p7062
S'0'
sS'Sub'
p7063
S'10'
p7064
sS'Lost'
p7065
S'19'
p7066
sS'Drop'
p7067
S'0'
sS'Start'
p7068
S'42'
p7069
sS'Won'
p7070
S'31'
p7071
sS'Draw'
p7072
S'2'
sS'%'
S'61.53'
p7073
sS'Mat'
p7074
S'52'
p7075
sS'Conv'
p7076
S'0'
sS'Tries'
p7077
S'9'
sS'Pts'
p7078
S'45'
p7079
sa(dp7080
S'Pens'
p7081
S'0'
sS'Sub'
p7082
S'3'
sS'Lost'
p7083
S'4'
sS'Drop'
p7084
S'0'
sS'Start'
p7085
S'4'
sS'Won'
p7086
S'3'
sS'Draw'
p7087
S'0'
sS'%'
S'42.85'
p7088
sS'Mat'
p7089
S'7'
sS'Conv'
p7090
S'0'
sS'Tries'
p7091
S'1'
sS'Pts'
p7092
S'5'
sa(dp7093
S'Pens'
p7094
S'0'
sS'Sub'
p7095
S'1'
sS'Lost'
p7096
S'0'
sS'Drop'
p7097
S'0'
sS'Start'
p7098
S'0'
sS'Won'
p7099
S'1'
sS'Draw'
p7100
S'0'
sS'%'
S'100.00'
p7101
sS'Mat'
p7102
S'1'
sS'Conv'
p7103
S'0'
sS'Tries'
p7104
S'0'
sS'Pts'
p7105
S'0'
sa(dp7106
S'Pens'
p7107
S'0'
sS'Sub'
p7108
S'1'
sS'Lost'
p7109
S'3'
sS'Drop'
p7110
S'0'
sS'Start'
p7111
S'2'
sS'Won'
p7112
S'0'
sS'Draw'
p7113
S'0'
sS'%'
S'0.00'
p7114
sS'Mat'
p7115
S'3'
sS'Conv'
p7116
S'0'
sS'Tries'
p7117
S'0'
sS'Pts'
p7118
S'0'
sa(dp7119
S'Pens'
p7120
S'0'
sS'Sub'
p7121
S'2'
sS'Lost'
p7122
S'2'
sS'Drop'
p7123
S'0'
sS'Start'
p7124
S'1'
sS'Won'
p7125
S'1'
sS'Draw'
p7126
S'0'
sS'%'
S'33.33'
p7127
sS'Mat'
p7128
S'3'
sS'Conv'
p7129
S'0'
sS'Tries'
p7130
S'2'
sS'Pts'
p7131
S'10'
p7132
sa(dp7133
S'Pens'
p7134
S'0'
sS'Sub'
p7135
S'2'
sS'Lost'
p7136
S'1'
sS'Drop'
p7137
S'0'
sS'Start'
p7138
S'0'
sS'Won'
p7139
S'0'
sS'Draw'
p7140
S'1'
sS'%'
S'25.00'
p7141
sS'Mat'
p7142
S'2'
sS'Conv'
p7143
S'0'
sS'Tries'
p7144
S'0'
sS'Pts'
p7145
S'0'
sa(dp7146
S'Pens'
p7147
S'14'
p7148
sS'Sub'
p7149
S'1'
sS'Lost'
p7150
S'15'
p7151
sS'Drop'
p7152
S'0'
sS'Start'
p7153
S'37'
p7154
sS'Won'
p7155
S'22'
p7156
sS'Draw'
p7157
S'1'
sS'%'
S'59.21'
p7158
sS'Mat'
p7159
S'38'
p7160
sS'Conv'
p7161
S'53'
p7162
sS'Tries'
p7163
S'9'
sS'Pts'
p7164
S'193'
p7165
sa(dp7166
S'Pens'
p7167
S'0'
sS'Sub'
p7168
S'4'
sS'Lost'
p7169
S'1'
sS'Drop'
p7170
S'0'
sS'Start'
p7171
S'2'
sS'Won'
p7172
S'5'
sS'Draw'
p7173
S'0'
sS'%'
S'83.33'
p7174
sS'Mat'
p7175
S'6'
sS'Conv'
p7176
S'0'
sS'Tries'
p7177
S'2'
sS'Pts'
p7178
S'10'
p7179
sa(dp7180
S'Pens'
p7181
S'0'
sS'Sub'
p7182
S'1'
sS'Lost'
p7183
S'1'
sS'Drop'
p7184
S'0'
sS'Start'
p7185
S'6'
sS'Won'
p7186
S'6'
sS'Draw'
p7187
S'0'
sS'%'
S'85.71'
p7188
sS'Mat'
p7189
S'7'
sS'Conv'
p7190
S'9'
sS'Tries'
p7191
S'5'
sS'Pts'
p7192
S'43'
p7193
sa(dp7194
S'Pens'
p7195
S'0'
sS'Sub'
p7196
S'5'
sS'Lost'
p7197
S'2'
sS'Drop'
p7198
S'0'
sS'Start'
p7199
S'6'
sS'Won'
p7200
S'9'
sS'Draw'
p7201
S'0'
sS'%'
S'81.81'
p7202
sS'Mat'
p7203
S'11'
p7204
sS'Conv'
p7205
S'0'
sS'Tries'
p7206
S'3'
sS'Pts'
p7207
S'15'
p7208
sa(dp7209
S'Pens'
p7210
S'0'
sS'Sub'
p7211
S'2'
sS'Lost'
p7212
S'0'
sS'Drop'
p7213
S'0'
sS'Start'
p7214
S'1'
sS'Won'
p7215
S'3'
sS'Draw'
p7216
S'0'
sS'%'
S'100.00'
p7217
sS'Mat'
p7218
S'3'
sS'Conv'
p7219
S'0'
sS'Tries'
p7220
S'1'
sS'Pts'
p7221
S'5'
sa(dp7222
S'Pens'
p7223
S'0'
sS'Sub'
p7224
S'3'
sS'Lost'
p7225
S'0'
sS'Drop'
p7226
S'0'
sS'Start'
p7227
S'1'
sS'Won'
p7228
S'4'
sS'Draw'
p7229
S'0'
sS'%'
S'100.00'
p7230
sS'Mat'
p7231
S'4'
sS'Conv'
p7232
S'0'
sS'Tries'
p7233
S'0'
sS'Pts'
p7234
S'0'
sa(dp7235
S'Pens'
p7236
S'0'
sS'Sub'
p7237
S'1'
sS'Lost'
p7238
S'1'
sS'Drop'
p7239
S'0'
sS'Start'
p7240
S'2'
sS'Won'
p7241
S'2'
sS'Draw'
p7242
S'0'
sS'%'
S'66.66'
p7243
sS'Mat'
p7244
S'3'
sS'Conv'
p7245
S'0'
sS'Tries'
p7246
S'0'
sS'Pts'
p7247
S'0'
sa(dp7248
S'Pens'
p7249
S'0'
sS'Sub'
p7250
S'4'
sS'Lost'
p7251
S'3'
sS'Drop'
p7252
S'0'
sS'Start'
p7253
S'2'
sS'Won'
p7254
S'3'
sS'Draw'
p7255
S'0'
sS'%'
S'50.00'
p7256
sS'Mat'
p7257
S'6'
sS'Conv'
p7258
S'0'
sS'Tries'
p7259
S'0'
sS'Pts'
p7260
S'0'
sa(dp7261
S'Pens'
p7262
S'0'
sS'Sub'
p7263
S'1'
sS'Lost'
p7264
S'0'
sS'Drop'
p7265
S'0'
sS'Start'
p7266
S'2'
sS'Won'
p7267
S'3'
sS'Draw'
p7268
S'0'
sS'%'
S'100.00'
p7269
sS'Mat'
p7270
S'3'
sS'Conv'
p7271
S'0'
sS'Tries'
p7272
S'1'
sS'Pts'
p7273
S'5'
sa(dp7274
S'Pens'
p7275
S'0'
sS'Sub'
p7276
S'5'
sS'Lost'
p7277
S'14'
p7278
sS'Drop'
p7279
S'0'
sS'Start'
p7280
S'39'
p7281
sS'Won'
p7282
S'29'
p7283
sS'Draw'
p7284
S'1'
sS'%'
S'67.04'
p7285
sS'Mat'
p7286
S'44'
p7287
sS'Conv'
p7288
S'0'
sS'Tries'
p7289
S'8'
sS'Pts'
p7290
S'40'
p7291
sa(dp7292
S'Pens'
p7293
S'6'
sS'Sub'
p7294
S'9'
sS'Lost'
p7295
S'11'
p7296
sS'Drop'
p7297
S'0'
sS'Start'
p7298
S'26'
p7299
sS'Won'
p7300
S'23'
p7301
sS'Draw'
p7302
S'1'
sS'%'
S'67.14'
p7303
sS'Mat'
p7304
S'35'
p7305
sS'Conv'
p7306
S'45'
p7307
sS'Tries'
p7308
S'18'
p7309
sS'Pts'
p7310
S'198'
p7311
sa(dp7312
S'Pens'
p7313
S'0'
sS'Sub'
p7314
S'5'
sS'Lost'
p7315
S'11'
p7316
sS'Drop'
p7317
S'0'
sS'Start'
p7318
S'33'
p7319
sS'Won'
p7320
S'27'
p7321
sS'Draw'
p7322
S'0'
sS'%'
S'71.05'
p7323
sS'Mat'
p7324
S'38'
p7325
sS'Conv'
p7326
S'0'
sS'Tries'
p7327
S'22'
p7328
sS'Pts'
p7329
S'110'
p7330
sa(dp7331
S'Pens'
p7332
S'0'
sS'Sub'
p7333
S'4'
sS'Lost'
p7334
S'2'
sS'Drop'
p7335
S'0'
sS'Start'
p7336
S'0'
sS'Won'
p7337
S'2'
sS'Draw'
p7338
S'0'
sS'%'
S'50.00'
p7339
sS'Mat'
p7340
S'4'
sS'Conv'
p7341
S'0'
sS'Tries'
p7342
S'0'
sS'Pts'
p7343
S'0'
sa(dp7344
S'Pens'
p7345
S'0'
sS'Sub'
p7346
S'15'
p7347
sS'Lost'
p7348
S'17'
p7349
sS'Drop'
p7350
S'0'
sS'Start'
p7351
S'47'
p7352
sS'Won'
p7353
S'44'
p7354
sS'Draw'
p7355
S'1'
sS'%'
S'71.77'
p7356
sS'Mat'
p7357
S'62'
p7358
sS'Conv'
p7359
S'0'
sS'Tries'
p7360
S'10'
p7361
sS'Pts'
p7362
S'50'
p7363
sa(dp7364
S'Pens'
p7365
S'0'
sS'Sub'
p7366
S'12'
p7367
sS'Lost'
p7368
S'9'
sS'Drop'
p7369
S'0'
sS'Start'
p7370
S'25'
p7371
sS'Won'
p7372
S'27'
p7373
sS'Draw'
p7374
S'1'
sS'%'
S'74.32'
p7375
sS'Mat'
p7376
S'37'
p7377
sS'Conv'
p7378
S'0'
sS'Tries'
p7379
S'0'
sS'Pts'
p7380
S'0'
sa(dp7381
S'Pens'
p7382
S'0'
sS'Sub'
p7383
S'1'
sS'Lost'
p7384
S'1'
sS'Drop'
p7385
S'0'
sS'Start'
p7386
S'6'
sS'Won'
p7387
S'6'
sS'Draw'
p7388
S'0'
sS'%'
S'85.71'
p7389
sS'Mat'
p7390
S'7'
sS'Conv'
p7391
S'1'
sS'Tries'
p7392
S'3'
sS'Pts'
p7393
S'17'
p7394
sa(dp7395
S'Pens'
p7396
S'0'
sS'Sub'
p7397
S'1'
sS'Lost'
p7398
S'2'
sS'Drop'
p7399
S'0'
sS'Start'
p7400
S'5'
sS'Won'
p7401
S'4'
sS'Draw'
p7402
S'0'
sS'%'
S'66.66'
p7403
sS'Mat'
p7404
S'6'
sS'Conv'
p7405
S'0'
sS'Tries'
p7406
S'1'
sS'Pts'
p7407
S'5'
sa(dp7408
S'Pens'
p7409
S'0'
sS'Sub'
p7410
S'4'
sS'Lost'
p7411
S'9'
sS'Drop'
p7412
S'0'
sS'Start'
p7413
S'34'
p7414
sS'Won'
p7415
S'28'
p7416
sS'Draw'
p7417
S'1'
sS'%'
S'75.00'
p7418
sS'Mat'
p7419
S'38'
p7420
sS'Conv'
p7421
S'0'
sS'Tries'
p7422
S'11'
p7423
sS'Pts'
p7424
S'55'
p7425
sa(dp7426
S'Pens'
p7427
S'0'
sS'Sub'
p7428
S'1'
sS'Lost'
p7429
S'0'
sS'Drop'
p7430
S'0'
sS'Start'
p7431
S'0'
sS'Won'
p7432
S'1'
sS'Draw'
p7433
S'0'
sS'%'
S'100.00'
p7434
sS'Mat'
p7435
S'1'
sS'Conv'
p7436
S'0'
sS'Tries'
p7437
S'0'
sS'Pts'
p7438
S'0'
sa(dp7439
S'Pens'
p7440
S'0'
sS'Sub'
p7441
S'9'
sS'Lost'
p7442
S'3'
sS'Drop'
p7443
S'0'
sS'Start'
p7444
S'9'
sS'Won'
p7445
S'15'
p7446
sS'Draw'
p7447
S'0'
sS'%'
S'83.33'
p7448
sS'Mat'
p7449
S'18'
p7450
sS'Conv'
p7451
S'0'
sS'Tries'
p7452
S'1'
sS'Pts'
p7453
S'5'
sa(dp7454
S'Pens'
p7455
S'0'
sS'Sub'
p7456
S'1'
sS'Lost'
p7457
S'0'
sS'Drop'
p7458
S'0'
sS'Start'
p7459
S'0'
sS'Won'
p7460
S'1'
sS'Draw'
p7461
S'0'
sS'%'
S'100.00'
p7462
sS'Mat'
p7463
S'1'
sS'Conv'
p7464
S'0'
sS'Tries'
p7465
S'0'
sS'Pts'
p7466
S'0'
sa(dp7467
S'Pens'
p7468
S'0'
sS'Sub'
p7469
S'1'
sS'Lost'
p7470
S'0'
sS'Drop'
p7471
S'0'
sS'Start'
p7472
S'0'
sS'Won'
p7473
S'1'
sS'Draw'
p7474
S'0'
sS'%'
S'100.00'
p7475
sS'Mat'
p7476
S'1'
sS'Conv'
p7477
S'0'
sS'Tries'
p7478
S'0'
sS'Pts'
p7479
S'0'
sa(dp7480
S'Pens'
p7481
S'0'
sS'Sub'
p7482
S'7'
sS'Lost'
p7483
S'5'
sS'Drop'
p7484
S'0'
sS'Start'
p7485
S'15'
p7486
sS'Won'
p7487
S'16'
p7488
sS'Draw'
p7489
S'1'
sS'%'
S'75.00'
p7490
sS'Mat'
p7491
S'22'
p7492
sS'Conv'
p7493
S'0'
sS'Tries'
p7494
S'2'
sS'Pts'
p7495
S'10'
p7496
sa(dp7497
S'Pens'
p7498
S'0'
sS'Sub'
p7499
S'26'
p7500
sS'Lost'
p7501
S'11'
p7502
sS'Drop'
p7503
S'0'
sS'Start'
p7504
S'13'
p7505
sS'Won'
p7506
S'28'
p7507
sS'Draw'
p7508
S'0'
sS'%'
S'71.79'
p7509
sS'Mat'
p7510
S'39'
p7511
sS'Conv'
p7512
S'0'
sS'Tries'
p7513
S'0'
sS'Pts'
p7514
S'0'
sa(dp7515
S'Pens'
p7516
S'0'
sS'Sub'
p7517
S'4'
sS'Lost'
p7518
S'2'
sS'Drop'
p7519
S'0'
sS'Start'
p7520
S'1'
sS'Won'
p7521
S'3'
sS'Draw'
p7522
S'0'
sS'%'
S'60.00'
p7523
sS'Mat'
p7524
S'5'
sS'Conv'
p7525
S'0'
sS'Tries'
p7526
S'0'
sS'Pts'
p7527
S'0'
sa(dp7528
S'Pens'
p7529
S'0'
sS'Sub'
p7530
S'2'
sS'Lost'
p7531
S'1'
sS'Drop'
p7532
S'0'
sS'Start'
p7533
S'4'
sS'Won'
p7534
S'5'
sS'Draw'
p7535
S'0'
sS'%'
S'83.33'
p7536
sS'Mat'
p7537
S'6'
sS'Conv'
p7538
S'0'
sS'Tries'
p7539
S'0'
sS'Pts'
p7540
S'0'
sa(dp7541
S'Pens'
p7542
S'0'
sS'Sub'
p7543
S'1'
sS'Lost'
p7544
S'3'
sS'Drop'
p7545
S'0'
sS'Start'
p7546
S'6'
sS'Won'
p7547
S'4'
sS'Draw'
p7548
S'0'
sS'%'
S'57.14'
p7549
sS'Mat'
p7550
S'7'
sS'Conv'
p7551
S'0'
sS'Tries'
p7552
S'7'
sS'Pts'
p7553
S'35'
p7554
sa(dp7555
S'Pens'
p7556
S'0'
sS'Sub'
p7557
S'1'
sS'Lost'
p7558
S'0'
sS'Drop'
p7559
S'0'
sS'Start'
p7560
S'1'
sS'Won'
p7561
S'2'
sS'Draw'
p7562
S'0'
sS'%'
S'100.00'
p7563
sS'Mat'
p7564
S'2'
sS'Conv'
p7565
S'0'
sS'Tries'
p7566
S'0'
sS'Pts'
p7567
S'0'
sa(dp7568
S'Pens'
p7569
S'0'
sS'Sub'
p7570
S'4'
sS'Lost'
p7571
S'3'
sS'Drop'
p7572
S'0'
sS'Start'
p7573
S'5'
sS'Won'
p7574
S'6'
sS'Draw'
p7575
S'0'
sS'%'
S'66.66'
p7576
sS'Mat'
p7577
S'9'
sS'Conv'
p7578
S'0'
sS'Tries'
p7579
S'1'
sS'Pts'
p7580
S'5'
sa(dp7581
S'Pens'
p7582
S'0'
sS'Sub'
p7583
S'4'
sS'Lost'
p7584
S'8'
sS'Drop'
p7585
S'0'
sS'Start'
p7586
S'28'
p7587
sS'Won'
p7588
S'23'
p7589
sS'Draw'
p7590
S'1'
sS'%'
S'73.43'
p7591
sS'Mat'
p7592
S'32'
p7593
sS'Conv'
p7594
S'0'
sS'Tries'
p7595
S'6'
sS'Pts'
p7596
S'30'
p7597
sa(dp7598
S'Pens'
p7599
S'0'
sS'Sub'
p7600
S'1'
sS'Lost'
p7601
S'0'
sS'Drop'
p7602
S'0'
sS'Start'
p7603
S'0'
sS'Won'
p7604
S'1'
sS'Draw'
p7605
S'0'
sS'%'
S'100.00'
p7606
sS'Mat'
p7607
S'1'
sS'Conv'
p7608
S'0'
sS'Tries'
p7609
S'0'
sS'Pts'
p7610
S'0'
sa(dp7611
S'Pens'
p7612
S'0'
sS'Sub'
p7613
S'7'
sS'Lost'
p7614
S'6'
sS'Drop'
p7615
S'0'
sS'Start'
p7616
S'13'
p7617
sS'Won'
p7618
S'13'
p7619
sS'Draw'
p7620
S'1'
sS'%'
S'67.50'
p7621
sS'Mat'
p7622
S'20'
p7623
sS'Conv'
p7624
S'0'
sS'Tries'
p7625
S'20'
p7626
sS'Pts'
p7627
S'100'
p7628
sa(dp7629
S'Pens'
p7630
S'0'
sS'Sub'
p7631
S'17'
p7632
sS'Lost'
p7633
S'8'
sS'Drop'
p7634
S'0'
sS'Start'
p7635
S'16'
p7636
sS'Won'
p7637
S'25'
p7638
sS'Draw'
p7639
S'0'
sS'%'
S'75.75'
p7640
sS'Mat'
p7641
S'33'
p7642
sS'Conv'
p7643
S'0'
sS'Tries'
p7644
S'12'
p7645
sS'Pts'
p7646
S'60'
p7647
sa(dp7648
S'Pens'
p7649
S'0'
sS'Sub'
p7650
S'12'
p7651
sS'Lost'
p7652
S'6'
sS'Drop'
p7653
S'0'
sS'Start'
p7654
S'17'
p7655
sS'Won'
p7656
S'23'
p7657
sS'Draw'
p7658
S'0'
sS'%'
S'79.31'
p7659
sS'Mat'
p7660
S'29'
p7661
sS'Conv'
p7662
S'0'
sS'Tries'
p7663
S'4'
sS'Pts'
p7664
S'20'
p7665
sa(dp7666
S'Pens'
p7667
S'0'
sS'Sub'
p7668
S'6'
sS'Lost'
p7669
S'2'
sS'Drop'
p7670
S'0'
sS'Start'
p7671
S'3'
sS'Won'
p7672
S'7'
sS'Draw'
p7673
S'0'
sS'%'
S'77.77'
p7674
sS'Mat'
p7675
S'9'
sS'Conv'
p7676
S'0'
sS'Tries'
p7677
S'4'
sS'Pts'
p7678
S'20'
p7679
sa(dp7680
S'Pens'
p7681
S'0'
sS'Sub'
p7682
S'3'
sS'Lost'
p7683
S'2'
sS'Drop'
p7684
S'0'
sS'Start'
p7685
S'5'
sS'Won'
p7686
S'5'
sS'Draw'
p7687
S'1'
sS'%'
S'68.75'
p7688
sS'Mat'
p7689
S'8'
sS'Conv'
p7690
S'0'
sS'Tries'
p7691
S'2'
sS'Pts'
p7692
S'10'
p7693
sa(dp7694
S'Pens'
p7695
S'0'
sS'Sub'
p7696
S'6'
sS'Lost'
p7697
S'4'
sS'Drop'
p7698
S'0'
sS'Start'
p7699
S'8'
sS'Won'
p7700
S'9'
sS'Draw'
p7701
S'1'
sS'%'
S'67.85'
p7702
sS'Mat'
p7703
S'14'
p7704
sS'Conv'
p7705
S'0'
sS'Tries'
p7706
S'0'
sS'Pts'
p7707
S'0'
sa(dp7708
S'Pens'
p7709
S'0'
sS'Sub'
p7710
S'12'
p7711
sS'Lost'
p7712
S'3'
sS'Drop'
p7713
S'0'
sS'Start'
p7714
S'8'
sS'Won'
p7715
S'17'
p7716
sS'Draw'
p7717
S'0'
sS'%'
S'85.00'
p7718
sS'Mat'
p7719
S'20'
p7720
sS'Conv'
p7721
S'0'
sS'Tries'
p7722
S'3'
sS'Pts'
p7723
S'15'
p7724
sa(dp7725
S'Pens'
p7726
S'0'
sS'Sub'
p7727
S'2'
sS'Lost'
p7728
S'0'
sS'Drop'
p7729
S'0'
sS'Start'
p7730
S'1'
sS'Won'
p7731
S'3'
sS'Draw'
p7732
S'0'
sS'%'
S'100.00'
p7733
sS'Mat'
p7734
S'3'
sS'Conv'
p7735
S'0'
sS'Tries'
p7736
S'1'
sS'Pts'
p7737
S'5'
sa(dp7738
S'Pens'
p7739
S'0'
sS'Sub'
p7740
S'4'
sS'Lost'
p7741
S'1'
sS'Drop'
p7742
S'0'
sS'Start'
p7743
S'1'
sS'Won'
p7744
S'4'
sS'Draw'
p7745
S'0'
sS'%'
S'80.00'
p7746
sS'Mat'
p7747
S'5'
sS'Conv'
p7748
S'0'
sS'Tries'
p7749
S'2'
sS'Pts'
p7750
S'10'
p7751
sa(dp7752
S'Pens'
p7753
S'0'
sS'Sub'
p7754
S'3'
sS'Lost'
p7755
S'0'
sS'Drop'
p7756
S'0'
sS'Start'
p7757
S'0'
sS'Won'
p7758
S'3'
sS'Draw'
p7759
S'0'
sS'%'
S'100.00'
p7760
sS'Mat'
p7761
S'3'
sS'Conv'
p7762
S'0'
sS'Tries'
p7763
S'0'
sS'Pts'
p7764
S'0'
sa(dp7765
S'Pens'
p7766
S'0'
sS'Sub'
p7767
S'1'
sS'Lost'
p7768
S'0'
sS'Drop'
p7769
S'0'
sS'Start'
p7770
S'2'
sS'Won'
p7771
S'3'
sS'Draw'
p7772
S'0'
sS'%'
S'100.00'
p7773
sS'Mat'
p7774
S'3'
sS'Conv'
p7775
S'21'
p7776
sS'Tries'
p7777
S'2'
sS'Pts'
p7778
S'52'
p7779
sa(dp7780
S'Pens'
p7781
S'0'
sS'Sub'
p7782
S'5'
sS'Lost'
p7783
S'4'
sS'Drop'
p7784
S'0'
sS'Start'
p7785
S'5'
sS'Won'
p7786
S'6'
sS'Draw'
p7787
S'0'
sS'%'
S'60.00'
p7788
sS'Mat'
p7789
S'10'
p7790
sS'Conv'
p7791
S'0'
sS'Tries'
p7792
S'0'
sS'Pts'
p7793
S'0'
sa(dp7794
S'Pens'
p7795
S'0'
sS'Sub'
p7796
S'18'
p7797
sS'Lost'
p7798
S'13'
p7799
sS'Drop'
p7800
S'0'
sS'Start'
p7801
S'23'
p7802
sS'Won'
p7803
S'27'
p7804
sS'Draw'
p7805
S'1'
sS'%'
S'67.07'
p7806
sS'Mat'
p7807
S'41'
p7808
sS'Conv'
p7809
S'0'
sS'Tries'
p7810
S'1'
sS'Pts'
p7811
S'5'
sa(dp7812
S'Pens'
p7813
S'0'
sS'Sub'
p7814
S'10'
p7815
sS'Lost'
p7816
S'2'
sS'Drop'
p7817
S'0'
sS'Start'
p7818
S'16'
p7819
sS'Won'
p7820
S'24'
p7821
sS'Draw'
p7822
S'0'
sS'%'
S'92.30'
p7823
sS'Mat'
p7824
S'26'
p7825
sS'Conv'
p7826
S'0'
sS'Tries'
p7827
S'5'
sS'Pts'
p7828
S'25'
p7829
sa(dp7830
S'Pens'
p7831
S'0'
sS'Sub'
p7832
S'1'
sS'Lost'
p7833
S'1'
sS'Drop'
p7834
S'0'
sS'Start'
p7835
S'5'
sS'Won'
p7836
S'5'
sS'Draw'
p7837
S'0'
sS'%'
S'83.33'
p7838
sS'Mat'
p7839
S'6'
sS'Conv'
p7840
S'0'
sS'Tries'
p7841
S'1'
sS'Pts'
p7842
S'5'
sa(dp7843
S'Pens'
p7844
S'0'
sS'Sub'
p7845
S'0'
sS'Lost'
p7846
S'3'
sS'Drop'
p7847
S'0'
sS'Start'
p7848
S'7'
sS'Won'
p7849
S'4'
sS'Draw'
p7850
S'0'
sS'%'
S'57.14'
p7851
sS'Mat'
p7852
S'7'
sS'Conv'
p7853
S'0'
sS'Tries'
p7854
S'8'
sS'Pts'
p7855
S'40'
p7856
sa(dp7857
S'Pens'
p7858
S'0'
sS'Sub'
p7859
S'1'
sS'Lost'
p7860
S'0'
sS'Drop'
p7861
S'0'
sS'Start'
p7862
S'0'
sS'Won'
p7863
S'1'
sS'Draw'
p7864
S'0'
sS'%'
S'100.00'
p7865
sS'Mat'
p7866
S'1'
sS'Conv'
p7867
S'0'
sS'Tries'
p7868
S'0'
sS'Pts'
p7869
S'0'
sa(dp7870
S'Pens'
p7871
S'0'
sS'Sub'
p7872
S'1'
sS'Lost'
p7873
S'2'
sS'Drop'
p7874
S'0'
sS'Start'
p7875
S'2'
sS'Won'
p7876
S'1'
sS'Draw'
p7877
S'0'
sS'%'
S'33.33'
p7878
sS'Mat'
p7879
S'3'
sS'Conv'
p7880
S'0'
sS'Tries'
p7881
S'0'
sS'Pts'
p7882
S'0'
sa(dp7883
S'Pens'
p7884
S'0'
sS'Sub'
p7885
S'3'
sS'Lost'
p7886
S'3'
sS'Drop'
p7887
S'0'
sS'Start'
p7888
S'3'
sS'Won'
p7889
S'2'
sS'Draw'
p7890
S'1'
sS'%'
S'41.66'
p7891
sS'Mat'
p7892
S'6'
sS'Conv'
p7893
S'1'
sS'Tries'
p7894
S'0'
sS'Pts'
p7895
S'2'
sa(dp7896
S'Pens'
p7897
S'0'
sS'Sub'
p7898
S'5'
sS'Lost'
p7899
S'3'
sS'Drop'
p7900
S'0'
sS'Start'
p7901
S'3'
sS'Won'
p7902
S'5'
sS'Draw'
p7903
S'0'
sS'%'
S'62.50'
p7904
sS'Mat'
p7905
S'8'
sS'Conv'
p7906
S'0'
sS'Tries'
p7907
S'1'
sS'Pts'
p7908
S'5'
sa(dp7909
S'Pens'
p7910
S'0'
sS'Sub'
p7911
S'3'
sS'Lost'
p7912
S'2'
sS'Drop'
p7913
S'0'
sS'Start'
p7914
S'3'
sS'Won'
p7915
S'4'
sS'Draw'
p7916
S'0'
sS'%'
S'66.66'
p7917
sS'Mat'
p7918
S'6'
sS'Conv'
p7919
S'0'
sS'Tries'
p7920
S'1'
sS'Pts'
p7921
S'5'
sa(dp7922
S'Pens'
p7923
S'0'
sS'Sub'
p7924
S'17'
p7925
sS'Lost'
p7926
S'8'
sS'Drop'
p7927
S'0'
sS'Start'
p7928
S'14'
p7929
sS'Won'
p7930
S'23'
p7931
sS'Draw'
p7932
S'0'
sS'%'
S'74.19'
p7933
sS'Mat'
p7934
S'31'
p7935
sS'Conv'
p7936
S'0'
sS'Tries'
p7937
S'1'
sS'Pts'
p7938
S'5'
sa(dp7939
S'Pens'
p7940
S'0'
sS'Sub'
p7941
S'9'
sS'Lost'
p7942
S'6'
sS'Drop'
p7943
S'0'
sS'Start'
p7944
S'9'
sS'Won'
p7945
S'12'
p7946
sS'Draw'
p7947
S'0'
sS'%'
S'66.66'
p7948
sS'Mat'
p7949
S'18'
p7950
sS'Conv'
p7951
S'0'
sS'Tries'
p7952
S'1'
sS'Pts'
p7953
S'5'
sa(dp7954
S'Pens'
p7955
S'0'
sS'Sub'
p7956
S'1'
sS'Lost'
p7957
S'3'
sS'Drop'
p7958
S'0'
sS'Start'
p7959
S'8'
sS'Won'
p7960
S'6'
sS'Draw'
p7961
S'0'
sS'%'
S'66.66'
p7962
sS'Mat'
p7963
S'9'
sS'Conv'
p7964
S'0'
sS'Tries'
p7965
S'2'
sS'Pts'
p7966
S'10'
p7967
sa(dp7968
S'Pens'
p7969
S'0'
sS'Sub'
p7970
S'10'
p7971
sS'Lost'
p7972
S'6'
sS'Drop'
p7973
S'0'
sS'Start'
p7974
S'19'
p7975
sS'Won'
p7976
S'23'
p7977
sS'Draw'
p7978
S'0'
sS'%'
S'79.31'
p7979
sS'Mat'
p7980
S'29'
p7981
sS'Conv'
p7982
S'4'
sS'Tries'
p7983
S'5'
sS'Pts'
p7984
S'33'
p7985
sa(dp7986
S'Pens'
p7987
S'0'
sS'Sub'
p7988
S'1'
sS'Lost'
p7989
S'3'
sS'Drop'
p7990
S'0'
sS'Start'
p7991
S'6'
sS'Won'
p7992
S'4'
sS'Draw'
p7993
S'0'
sS'%'
S'57.14'
p7994
sS'Mat'
p7995
S'7'
sS'Conv'
p7996
S'0'
sS'Tries'
p7997
S'2'
sS'Pts'
p7998
S'10'
p7999
sa(dp8000
S'Pens'
p8001
S'0'
sS'Sub'
p8002
S'4'
sS'Lost'
p8003
S'8'
sS'Drop'
p8004
S'0'
sS'Start'
p8005
S'27'
p8006
sS'Won'
p8007
S'23'
p8008
sS'Draw'
p8009
S'0'
sS'%'
S'74.19'
p8010
sS'Mat'
p8011
S'31'
p8012
sS'Conv'
p8013
S'8'
sS'Tries'
p8014
S'7'
sS'Pts'
p8015
S'51'
p8016
sa(dp8017
S'Pens'
p8018
S'0'
sS'Sub'
p8019
S'1'
sS'Lost'
p8020
S'0'
sS'Drop'
p8021
S'0'
sS'Start'
p8022
S'1'
sS'Won'
p8023
S'2'
sS'Draw'
p8024
S'0'
sS'%'
S'100.00'
p8025
sS'Mat'
p8026
S'2'
sS'Conv'
p8027
S'0'
sS'Tries'
p8028
S'0'
sS'Pts'
p8029
S'0'
sa(dp8030
S'Pens'
p8031
S'0'
sS'Sub'
p8032
S'9'
sS'Lost'
p8033
S'1'
sS'Drop'
p8034
S'0'
sS'Start'
p8035
S'1'
sS'Won'
p8036
S'9'
sS'Draw'
p8037
S'0'
sS'%'
S'90.00'
p8038
sS'Mat'
p8039
S'10'
p8040
sS'Conv'
p8041
S'0'
sS'Tries'
p8042
S'2'
sS'Pts'
p8043
S'10'
p8044
sa(dp8045
S'Pens'
p8046
S'0'
sS'Sub'
p8047
S'6'
sS'Lost'
p8048
S'4'
sS'Drop'
p8049
S'0'
sS'Start'
p8050
S'15'
p8051
sS'Won'
p8052
S'17'
p8053
sS'Draw'
p8054
S'0'
sS'%'
S'80.95'
p8055
sS'Mat'
p8056
S'21'
p8057
sS'Conv'
p8058
S'0'
sS'Tries'
p8059
S'24'
p8060
sS'Pts'
p8061
S'120'
p8062
sa(dp8063
S'Pens'
p8064
S'0'
sS'Sub'
p8065
S'0'
sS'Lost'
p8066
S'0'
sS'Drop'
p8067
S'0'
sS'Start'
p8068
S'1'
sS'Won'
p8069
S'1'
sS'Draw'
p8070
S'0'
sS'%'
S'100.00'
p8071
sS'Mat'
p8072
S'1'
sS'Conv'
p8073
S'0'
sS'Tries'
p8074
S'0'
sS'Pts'
p8075
S'0'
sa(dp8076
S'Pens'
p8077
S'0'
sS'Sub'
p8078
S'3'
sS'Lost'
p8079
S'0'
sS'Drop'
p8080
S'0'
sS'Start'
p8081
S'0'
sS'Won'
p8082
S'3'
sS'Draw'
p8083
S'0'
sS'%'
S'100.00'
p8084
sS'Mat'
p8085
S'3'
sS'Conv'
p8086
S'0'
sS'Tries'
p8087
S'2'
sS'Pts'
p8088
S'10'
p8089
sa(dp8090
S'Pens'
p8091
S'0'
sS'Sub'
p8092
S'1'
sS'Lost'
p8093
S'0'
sS'Drop'
p8094
S'0'
sS'Start'
p8095
S'0'
sS'Won'
p8096
S'1'
sS'Draw'
p8097
S'0'
sS'%'
S'100.00'
p8098
sS'Mat'
p8099
S'1'
sS'Conv'
p8100
S'0'
sS'Tries'
p8101
S'1'
sS'Pts'
p8102
S'5'
sa(dp8103
S'Pens'
p8104
S'0'
sS'Sub'
p8105
S'6'
sS'Lost'
p8106
S'8'
sS'Drop'
p8107
S'0'
sS'Start'
p8108
S'21'
p8109
sS'Won'
p8110
S'19'
p8111
sS'Draw'
p8112
S'0'
sS'%'
S'70.37'
p8113
sS'Mat'
p8114
S'27'
p8115
sS'Conv'
p8116
S'0'
sS'Tries'
p8117
S'11'
p8118
sS'Pts'
p8119
S'55'
p8120
sa(dp8121
S'Pens'
p8122
S'0'
sS'Sub'
p8123
S'2'
sS'Lost'
p8124
S'5'
sS'Drop'
p8125
S'0'
sS'Start'
p8126
S'14'
p8127
sS'Won'
p8128
S'11'
p8129
sS'Draw'
p8130
S'0'
sS'%'
S'68.75'
p8131
sS'Mat'
p8132
S'16'
p8133
sS'Conv'
p8134
S'0'
sS'Tries'
p8135
S'6'
sS'Pts'
p8136
S'30'
p8137
sa(dp8138
S'Pens'
p8139
S'0'
sS'Sub'
p8140
S'3'
sS'Lost'
p8141
S'6'
sS'Drop'
p8142
S'0'
sS'Start'
p8143
S'23'
p8144
sS'Won'
p8145
S'20'
p8146
sS'Draw'
p8147
S'0'
sS'%'
S'76.92'
p8148
sS'Mat'
p8149
S'26'
p8150
sS'Conv'
p8151
S'0'
sS'Tries'
p8152
S'1'
sS'Pts'
p8153
S'5'
sa(dp8154
S'Pens'
p8155
S'0'
sS'Sub'
p8156
S'0'
sS'Lost'
p8157
S'6'
sS'Drop'
p8158
S'0'
sS'Start'
p8159
S'20'
p8160
sS'Won'
p8161
S'14'
p8162
sS'Draw'
p8163
S'0'
sS'%'
S'70.00'
p8164
sS'Mat'
p8165
S'20'
p8166
sS'Conv'
p8167
S'0'
sS'Tries'
p8168
S'8'
sS'Pts'
p8169
S'40'
p8170
sa(dp8171
S'Pens'
p8172
S'0'
sS'Sub'
p8173
S'4'
sS'Lost'
p8174
S'1'
sS'Drop'
p8175
S'0'
sS'Start'
p8176
S'1'
sS'Won'
p8177
S'4'
sS'Draw'
p8178
S'0'
sS'%'
S'80.00'
p8179
sS'Mat'
p8180
S'5'
sS'Conv'
p8181
S'0'
sS'Tries'
p8182
S'2'
sS'Pts'
p8183
S'10'
p8184
sa(dp8185
S'Pens'
p8186
S'0'
sS'Sub'
p8187
S'3'
sS'Lost'
p8188
S'5'
sS'Drop'
p8189
S'0'
sS'Start'
p8190
S'9'
sS'Won'
p8191
S'7'
sS'Draw'
p8192
S'0'
sS'%'
S'58.33'
p8193
sS'Mat'
p8194
S'12'
p8195
sS'Conv'
p8196
S'0'
sS'Tries'
p8197
S'10'
p8198
sS'Pts'
p8199
S'50'
p8200
sa(dp8201
S'Pens'
p8202
S'0'
sS'Sub'
p8203
S'1'
sS'Lost'
p8204
S'4'
sS'Drop'
p8205
S'0'
sS'Start'
p8206
S'6'
sS'Won'
p8207
S'3'
sS'Draw'
p8208
S'0'
sS'%'
S'42.85'
p8209
sS'Mat'
p8210
S'7'
sS'Conv'
p8211
S'0'
sS'Tries'
p8212
S'1'
sS'Pts'
p8213
S'5'
sa(dp8214
S'Pens'
p8215
S'0'
sS'Sub'
p8216
S'3'
sS'Lost'
p8217
S'0'
sS'Drop'
p8218
S'0'
sS'Start'
p8219
S'1'
sS'Won'
p8220
S'4'
sS'Draw'
p8221
S'0'
sS'%'
S'100.00'
p8222
sS'Mat'
p8223
S'4'
sS'Conv'
p8224
S'2'
sS'Tries'
p8225
S'0'
sS'Pts'
p8226
S'4'
sa(dp8227
S'Pens'
p8228
S'0'
sS'Sub'
p8229
S'2'
sS'Lost'
p8230
S'1'
sS'Drop'
p8231
S'0'
sS'Start'
p8232
S'0'
sS'Won'
p8233
S'1'
sS'Draw'
p8234
S'0'
sS'%'
S'50.00'
p8235
sS'Mat'
p8236
S'2'
sS'Conv'
p8237
S'0'
sS'Tries'
p8238
S'1'
sS'Pts'
p8239
S'5'
sa(dp8240
S'Pens'
p8241
S'0'
sS'Sub'
p8242
S'1'
sS'Lost'
p8243
S'0'
sS'Drop'
p8244
S'0'
sS'Start'
p8245
S'10'
p8246
sS'Won'
p8247
S'11'
p8248
sS'Draw'
p8249
S'0'
sS'%'
S'100.00'
p8250
sS'Mat'
p8251
S'11'
p8252
sS'Conv'
p8253
S'0'
sS'Tries'
p8254
S'10'
p8255
sS'Pts'
p8256
S'50'
p8257
sa(dp8258
S'Pens'
p8259
S'0'
sS'Sub'
p8260
S'3'
sS'Lost'
p8261
S'1'
sS'Drop'
p8262
S'0'
sS'Start'
p8263
S'3'
sS'Won'
p8264
S'5'
sS'Draw'
p8265
S'0'
sS'%'
S'83.33'
p8266
sS'Mat'
p8267
S'6'
sS'Conv'
p8268
S'0'
sS'Tries'
p8269
S'4'
sS'Pts'
p8270
S'20'
p8271
sa(dp8272
S'Pens'
p8273
S'0'
sS'Sub'
p8274
S'2'
sS'Lost'
p8275
S'1'
sS'Drop'
p8276
S'0'
sS'Start'
p8277
S'4'
sS'Won'
p8278
S'5'
sS'Draw'
p8279
S'0'
sS'%'
S'83.33'
p8280
sS'Mat'
p8281
S'6'
sS'Conv'
p8282
S'0'
sS'Tries'
p8283
S'4'
sS'Pts'
p8284
S'20'
p8285
sa(dp8286
S'Pens'
p8287
S'0'
sS'Sub'
p8288
S'0'
sS'Lost'
p8289
S'0'
sS'Drop'
p8290
S'0'
sS'Start'
p8291
S'2'
sS'Won'
p8292
S'2'
sS'Draw'
p8293
S'0'
sS'%'
S'100.00'
p8294
sS'Mat'
p8295
S'2'
sS'Conv'
p8296
S'0'
sS'Tries'
p8297
S'1'
sS'Pts'
p8298
S'5'
sa(dp8299
S'Pens'
p8300
S'0'
sS'Sub'
p8301
S'2'
sS'Lost'
p8302
S'0'
sS'Drop'
p8303
S'0'
sS'Start'
p8304
S'1'
sS'Won'
p8305
S'3'
sS'Draw'
p8306
S'0'
sS'%'
S'100.00'
p8307
sS'Mat'
p8308
S'3'
sS'Conv'
p8309
S'0'
sS'Tries'
p8310
S'1'
sS'Pts'
p8311
S'5'
sa(dp8312
S'Pens'
p8313
S'0'
sS'Sub'
p8314
S'2'
sS'Lost'
p8315
S'0'
sS'Drop'
p8316
S'0'
sS'Start'
p8317
S'0'
sS'Won'
p8318
S'2'
sS'Draw'
p8319
S'0'
sS'%'
S'100.00'
p8320
sS'Mat'
p8321
S'2'
sS'Conv'
p8322
S'0'
sS'Tries'
p8323
S'2'
sS'Pts'
p8324
S'10'
p8325
sa(dp8326
S'Pens'
p8327
S'0'
sS'Sub'
p8328
S'0'
sS'Lost'
p8329
S'1'
sS'Drop'
p8330
S'0'
sS'Start'
p8331
S'5'
sS'Won'
p8332
S'4'
sS'Draw'
p8333
S'0'
sS'%'
S'80.00'
p8334
sS'Mat'
p8335
S'5'
sS'Conv'
p8336
S'0'
sS'Tries'
p8337
S'6'
sS'Pts'
p8338
S'30'
p8339
sa(dp8340
S'Pens'
p8341
S'0'
sS'Sub'
p8342
S'0'
sS'Lost'
p8343
S'1'
sS'Drop'
p8344
S'0'
sS'Start'
p8345
S'2'
sS'Won'
p8346
S'1'
sS'Draw'
p8347
S'0'
sS'%'
S'50.00'
p8348
sS'Mat'
p8349
S'2'
sS'Conv'
p8350
S'0'
sS'Tries'
p8351
S'0'
sS'Pts'
p8352
S'0'
sa(dp8353
S'Pens'
p8354
S'0'
sS'Sub'
p8355
S'2'
sS'Lost'
p8356
S'1'
sS'Drop'
p8357
S'0'
sS'Start'
p8358
S'0'
sS'Won'
p8359
S'1'
sS'Draw'
p8360
S'0'
sS'%'
S'50.00'
p8361
sS'Mat'
p8362
S'2'
sS'Conv'
p8363
S'0'
sS'Tries'
p8364
S'0'
sS'Pts'
p8365
S'0'
sa(dp8366
S'Pens'
p8367
S'0'
sS'Sub'
p8368
S'2'
sS'Lost'
p8369
S'1'
sS'Drop'
p8370
S'0'
sS'Start'
p8371
S'0'
sS'Won'
p8372
S'1'
sS'Draw'
p8373
S'0'
sS'%'
S'50.00'
p8374
sS'Mat'
p8375
S'2'
sS'Conv'
p8376
S'0'
sS'Tries'
p8377
S'0'
sS'Pts'
p8378
S'0'
sa(dp8379
S'Pens'
p8380
S'0'
sS'Sub'
p8381
S'0'
sS'Lost'
p8382
S'0'
sS'Drop'
p8383
S'0'
sS'Start'
p8384
S'2'
sS'Won'
p8385
S'2'
sS'Draw'
p8386
S'0'
sS'%'
S'100.00'
p8387
sS'Mat'
p8388
S'2'
sS'Conv'
p8389
S'0'
sS'Tries'
p8390
S'1'
sS'Pts'
p8391
S'5'
sa(dp8392
S'Pens'
p8393
S'0'
sS'Sub'
p8394
S'1'
sS'Lost'
p8395
S'0'
sS'Drop'
p8396
S'0'
sS'Start'
p8397
S'2'
sS'Won'
p8398
S'3'
sS'Draw'
p8399
S'0'
sS'%'
S'100.00'
p8400
sS'Mat'
p8401
S'3'
sS'Conv'
p8402
S'0'
sS'Tries'
p8403
S'0'
sS'Pts'
p8404
S'0'
sa(dp8405
S'Pens'
p8406
S'0'
sS'Sub'
p8407
S'2'
sS'Lost'
p8408
S'0'
sS'Drop'
p8409
S'0'
sS'Start'
p8410
S'1'
sS'Won'
p8411
S'3'
sS'Draw'
p8412
S'0'
sS'%'
S'100.00'
p8413
sS'Mat'
p8414
S'3'
sS'Conv'
p8415
S'0'
sS'Tries'
p8416
S'0'
sS'Pts'
p8417
S'0'
sa.