(lp1
S'http://www.espnscrum.com/wales/rugby/player/537.html'
p2
aS'http://www.espnscrum.com/wales/rugby/player/538.html'
p3
aS'http://www.espnscrum.com/wales/rugby/player/539.html'
p4
aS'http://www.espnscrum.com/wales/rugby/player/540.html'
p5
aS'http://www.espnscrum.com/wales/rugby/player/542.html'
p6
aS'http://www.espnscrum.com/wales/rugby/player/544.html'
p7
aS'http://www.espnscrum.com/wales/rugby/player/545.html'
p8
aS'http://www.espnscrum.com/wales/rugby/player/546.html'
p9
aS'http://www.espnscrum.com/wales/rugby/player/547.html'
p10
aS'http://www.espnscrum.com/wales/rugby/player/548.html'
p11
aS'http://www.espnscrum.com/wales/rugby/player/549.html'
p12
aS'http://www.espnscrum.com/wales/rugby/player/553.html'
p13
aS'http://www.espnscrum.com/wales/rugby/player/554.html'
p14
aS'http://www.espnscrum.com/wales/rugby/player/557.html'
p15
aS'http://www.espnscrum.com/wales/rugby/player/558.html'
p16
aS'http://www.espnscrum.com/wales/rugby/player/577.html'
p17
aS'http://www.espnscrum.com/wales/rugby/player/568.html'
p18
aS'http://www.espnscrum.com/wales/rugby/player/569.html'
p19
aS'http://www.espnscrum.com/wales/rugby/player/570.html'
p20
aS'http://www.espnscrum.com/wales/rugby/player/572.html'
p21
aS'http://www.espnscrum.com/wales/rugby/player/574.html'
p22
aS'http://www.espnscrum.com/wales/rugby/player/579.html'
p23
aS'http://www.espnscrum.com/wales/rugby/player/582.html'
p24
aS'http://www.espnscrum.com/wales/rugby/player/583.html'
p25
aS'http://www.espnscrum.com/wales/rugby/player/585.html'
p26
aS'http://www.espnscrum.com/wales/rugby/player/586.html'
p27
aS'http://www.espnscrum.com/wales/rugby/player/613.html'
p28
aS'http://www.espnscrum.com/wales/rugby/player/614.html'
p29
aS'http://www.espnscrum.com/wales/rugby/player/615.html'
p30
aS'http://www.espnscrum.com/wales/rugby/player/617.html'
p31
aS'http://www.espnscrum.com/wales/rugby/player/620.html'
p32
aS'http://www.espnscrum.com/wales/rugby/player/627.html'
p33
aS'http://www.espnscrum.com/wales/rugby/player/630.html'
p34
aS'http://www.espnscrum.com/wales/rugby/player/632.html'
p35
aS'http://www.espnscrum.com/wales/rugby/player/647.html'
p36
aS'http://www.espnscrum.com/wales/rugby/player/648.html'
p37
aS'http://www.espnscrum.com/wales/rugby/player/651.html'
p38
aS'http://www.espnscrum.com/wales/rugby/player/652.html'
p39
aS'http://www.espnscrum.com/wales/rugby/player/654.html'
p40
aS'http://www.espnscrum.com/wales/rugby/player/655.html'
p41
aS'http://www.espnscrum.com/wales/rugby/player/657.html'
p42
aS'http://www.espnscrum.com/wales/rugby/player/682.html'
p43
aS'http://www.espnscrum.com/wales/rugby/player/686.html'
p44
aS'http://www.espnscrum.com/wales/rugby/player/689.html'
p45
aS'http://www.espnscrum.com/wales/rugby/player/690.html'
p46
aS'http://www.espnscrum.com/wales/rugby/player/696.html'
p47
aS'http://www.espnscrum.com/wales/rugby/player/697.html'
p48
aS'http://www.espnscrum.com/wales/rugby/player/699.html'
p49
aS'http://www.espnscrum.com/wales/rugby/player/701.html'
p50
aS'http://www.espnscrum.com/wales/rugby/player/704.html'
p51
aS'http://www.espnscrum.com/wales/rugby/player/705.html'
p52
aS'http://www.espnscrum.com/wales/rugby/player/708.html'
p53
aS'http://www.espnscrum.com/wales/rugby/player/709.html'
p54
aS'http://www.espnscrum.com/wales/rugby/player/711.html'
p55
aS'http://www.espnscrum.com/wales/rugby/player/714.html'
p56
aS'http://www.espnscrum.com/wales/rugby/player/716.html'
p57
aS'http://www.espnscrum.com/wales/rugby/player/733.html'
p58
aS'http://www.espnscrum.com/wales/rugby/player/735.html'
p59
aS'http://www.espnscrum.com/wales/rugby/player/740.html'
p60
aS'http://www.espnscrum.com/wales/rugby/player/741.html'
p61
aS'http://www.espnscrum.com/wales/rugby/player/744.html'
p62
aS'http://www.espnscrum.com/wales/rugby/player/750.html'
p63
aS'http://www.espnscrum.com/wales/rugby/player/770.html'
p64
aS'http://www.espnscrum.com/wales/rugby/player/773.html'
p65
aS'http://www.espnscrum.com/wales/rugby/player/775.html'
p66
aS'http://www.espnscrum.com/wales/rugby/player/778.html'
p67
aS'http://www.espnscrum.com/wales/rugby/player/799.html'
p68
aS'http://www.espnscrum.com/wales/rugby/player/801.html'
p69
aS'http://www.espnscrum.com/wales/rugby/player/207407.html'
p70
aS'http://www.espnscrum.com/wales/rugby/player/804.html'
p71
aS'http://www.espnscrum.com/wales/rugby/player/807.html'
p72
aS'http://www.espnscrum.com/wales/rugby/player/812.html'
p73
aS'http://www.espnscrum.com/wales/rugby/player/813.html'
p74
aS'http://www.espnscrum.com/wales/rugby/player/814.html'
p75
aS'http://www.espnscrum.com/wales/rugby/player/815.html'
p76
aS'http://www.espnscrum.com/wales/rugby/player/816.html'
p77
aS'http://www.espnscrum.com/wales/rugby/player/817.html'
p78
aS'http://www.espnscrum.com/wales/rugby/player/821.html'
p79
aS'http://www.espnscrum.com/wales/rugby/player/822.html'
p80
aS'http://www.espnscrum.com/wales/rugby/player/827.html'
p81
aS'http://www.espnscrum.com/wales/rugby/player/840.html'
p82
aS'http://www.espnscrum.com/wales/rugby/player/844.html'
p83
aS'http://www.espnscrum.com/wales/rugby/player/845.html'
p84
aS'http://www.espnscrum.com/wales/rugby/player/846.html'
p85
aS'http://www.espnscrum.com/wales/rugby/player/847.html'
p86
aS'http://www.espnscrum.com/wales/rugby/player/853.html'
p87
aS'http://www.espnscrum.com/wales/rugby/player/855.html'
p88
aS'http://www.espnscrum.com/wales/rugby/player/859.html'
p89
aS'http://www.espnscrum.com/wales/rugby/player/865.html'
p90
aS'http://www.espnscrum.com/wales/rugby/player/867.html'
p91
aS'http://www.espnscrum.com/wales/rugby/player/868.html'
p92
aS'http://www.espnscrum.com/wales/rugby/player/873.html'
p93
aS'http://www.espnscrum.com/wales/rugby/player/902.html'
p94
aS'http://www.espnscrum.com/wales/rugby/player/904.html'
p95
aS'http://www.espnscrum.com/wales/rugby/player/906.html'
p96
aS'http://www.espnscrum.com/wales/rugby/player/908.html'
p97
aS'http://www.espnscrum.com/wales/rugby/player/912.html'
p98
aS'http://www.espnscrum.com/wales/rugby/player/913.html'
p99
aS'http://www.espnscrum.com/wales/rugby/player/910.html'
p100
aS'http://www.espnscrum.com/wales/rugby/player/916.html'
p101
aS'http://www.espnscrum.com/wales/rugby/player/936.html'
p102
aS'http://www.espnscrum.com/wales/rugby/player/938.html'
p103
aS'http://www.espnscrum.com/wales/rugby/player/943.html'
p104
aS'http://www.espnscrum.com/wales/rugby/player/950.html'
p105
aS'http://www.espnscrum.com/wales/rugby/player/951.html'
p106
aS'http://www.espnscrum.com/wales/rugby/player/952.html'
p107
aS'http://www.espnscrum.com/wales/rugby/player/956.html'
p108
aS'http://www.espnscrum.com/wales/rugby/player/961.html'
p109
aS'http://www.espnscrum.com/wales/rugby/player/958.html'
p110
aS'http://www.espnscrum.com/wales/rugby/player/974.html'
p111
aS'http://www.espnscrum.com/wales/rugby/player/976.html'
p112
aS'http://www.espnscrum.com/wales/rugby/player/977.html'
p113
aS'http://www.espnscrum.com/wales/rugby/player/980.html'
p114
aS'http://www.espnscrum.com/wales/rugby/player/981.html'
p115
aS'http://www.espnscrum.com/wales/rugby/player/1021.html'
p116
aS'http://www.espnscrum.com/wales/rugby/player/1026.html'
p117
aS'http://www.espnscrum.com/wales/rugby/player/1028.html'
p118
aS'http://www.espnscrum.com/wales/rugby/player/1030.html'
p119
aS'http://www.espnscrum.com/wales/rugby/player/1032.html'
p120
aS'http://www.espnscrum.com/wales/rugby/player/1041.html'
p121
aS'http://www.espnscrum.com/wales/rugby/player/1053.html'
p122
aS'http://www.espnscrum.com/wales/rugby/player/1054.html'
p123
aS'http://www.espnscrum.com/wales/rugby/player/1056.html'
p124
aS'http://www.espnscrum.com/wales/rugby/player/1064.html'
p125
aS'http://www.espnscrum.com/wales/rugby/player/1104.html'
p126
aS'http://www.espnscrum.com/wales/rugby/player/1109.html'
p127
aS'http://www.espnscrum.com/wales/rugby/player/1116.html'
p128
aS'http://www.espnscrum.com/wales/rugby/player/1117.html'
p129
aS'http://www.espnscrum.com/wales/rugby/player/1118.html'
p130
aS'http://www.espnscrum.com/wales/rugby/player/1123.html'
p131
aS'http://www.espnscrum.com/wales/rugby/player/1125.html'
p132
aS'http://www.espnscrum.com/wales/rugby/player/1128.html'
p133
aS'http://www.espnscrum.com/wales/rugby/player/1129.html'
p134
aS'http://www.espnscrum.com/wales/rugby/player/1132.html'
p135
aS'http://www.espnscrum.com/wales/rugby/player/1140.html'
p136
aS'http://www.espnscrum.com/wales/rugby/player/1141.html'
p137
aS'http://www.espnscrum.com/wales/rugby/player/1142.html'
p138
aS'http://www.espnscrum.com/wales/rugby/player/1161.html'
p139
aS'http://www.espnscrum.com/wales/rugby/player/1162.html'
p140
aS'http://www.espnscrum.com/wales/rugby/player/1163.html'
p141
aS'http://www.espnscrum.com/wales/rugby/player/1164.html'
p142
aS'http://www.espnscrum.com/wales/rugby/player/1168.html'
p143
aS'http://www.espnscrum.com/wales/rugby/player/1174.html'
p144
aS'http://www.espnscrum.com/wales/rugby/player/1176.html'
p145
aS'http://www.espnscrum.com/wales/rugby/player/1177.html'
p146
aS'http://www.espnscrum.com/wales/rugby/player/1178.html'
p147
aS'http://www.espnscrum.com/wales/rugby/player/1180.html'
p148
aS'http://www.espnscrum.com/wales/rugby/player/1182.html'
p149
aS'http://www.espnscrum.com/wales/rugby/player/1196.html'
p150
aS'http://www.espnscrum.com/wales/rugby/player/1197.html'
p151
aS'http://www.espnscrum.com/wales/rugby/player/1245.html'
p152
aS'http://www.espnscrum.com/wales/rugby/player/1248.html'
p153
aS'http://www.espnscrum.com/wales/rugby/player/1250.html'
p154
aS'http://www.espnscrum.com/wales/rugby/player/1253.html'
p155
aS'http://www.espnscrum.com/wales/rugby/player/1297.html'
p156
aS'http://www.espnscrum.com/wales/rugby/player/1299.html'
p157
aS'http://www.espnscrum.com/wales/rugby/player/1300.html'
p158
aS'http://www.espnscrum.com/wales/rugby/player/1301.html'
p159
aS'http://www.espnscrum.com/wales/rugby/player/1302.html'
p160
aS'http://www.espnscrum.com/wales/rugby/player/1303.html'
p161
aS'http://www.espnscrum.com/wales/rugby/player/1304.html'
p162
aS'http://www.espnscrum.com/wales/rugby/player/1309.html'
p163
aS'http://www.espnscrum.com/wales/rugby/player/1310.html'
p164
aS'http://www.espnscrum.com/wales/rugby/player/1317.html'
p165
aS'http://www.espnscrum.com/wales/rugby/player/1318.html'
p166
aS'http://www.espnscrum.com/wales/rugby/player/1319.html'
p167
aS'http://www.espnscrum.com/wales/rugby/player/1320.html'
p168
aS'http://www.espnscrum.com/wales/rugby/player/1321.html'
p169
aS'http://www.espnscrum.com/wales/rugby/player/1401.html'
p170
aS'http://www.espnscrum.com/wales/rugby/player/1403.html'
p171
aS'http://www.espnscrum.com/wales/rugby/player/1404.html'
p172
aS'http://www.espnscrum.com/wales/rugby/player/1408.html'
p173
aS'http://www.espnscrum.com/wales/rugby/player/1409.html'
p174
aS'http://www.espnscrum.com/wales/rugby/player/1410.html'
p175
aS'http://www.espnscrum.com/wales/rugby/player/1412.html'
p176
aS'http://www.espnscrum.com/wales/rugby/player/1454.html'
p177
aS'http://www.espnscrum.com/wales/rugby/player/1485.html'
p178
aS'http://www.espnscrum.com/wales/rugby/player/1486.html'
p179
aS'http://www.espnscrum.com/wales/rugby/player/1487.html'
p180
aS'http://www.espnscrum.com/wales/rugby/player/1488.html'
p181
aS'http://www.espnscrum.com/wales/rugby/player/1491.html'
p182
aS'http://www.espnscrum.com/wales/rugby/player/1493.html'
p183
aS'http://www.espnscrum.com/wales/rugby/player/1494.html'
p184
aS'http://www.espnscrum.com/wales/rugby/player/1495.html'
p185
aS'http://www.espnscrum.com/wales/rugby/player/1496.html'
p186
aS'http://www.espnscrum.com/wales/rugby/player/1498.html'
p187
aS'http://www.espnscrum.com/wales/rugby/player/1501.html'
p188
aS'http://www.espnscrum.com/wales/rugby/player/1505.html'
p189
aS'http://www.espnscrum.com/wales/rugby/player/1525.html'
p190
aS'http://www.espnscrum.com/wales/rugby/player/1528.html'
p191
aS'http://www.espnscrum.com/wales/rugby/player/1529.html'
p192
aS'http://www.espnscrum.com/wales/rugby/player/1548.html'
p193
aS'http://www.espnscrum.com/wales/rugby/player/1616.html'
p194
aS'http://www.espnscrum.com/wales/rugby/player/1621.html'
p195
aS'http://www.espnscrum.com/wales/rugby/player/1624.html'
p196
aS'http://www.espnscrum.com/wales/rugby/player/1628.html'
p197
aS'http://www.espnscrum.com/wales/rugby/player/1629.html'
p198
aS'http://www.espnscrum.com/wales/rugby/player/1626.html'
p199
aS'http://www.espnscrum.com/wales/rugby/player/1631.html'
p200
aS'http://www.espnscrum.com/wales/rugby/player/1640.html'
p201
aS'http://www.espnscrum.com/wales/rugby/player/1642.html'
p202
aS'http://www.espnscrum.com/wales/rugby/player/1646.html'
p203
aS'http://www.espnscrum.com/wales/rugby/player/1706.html'
p204
aS'http://www.espnscrum.com/wales/rugby/player/1707.html'
p205
aS'http://www.espnscrum.com/wales/rugby/player/1650.html'
p206
aS'http://www.espnscrum.com/wales/rugby/player/1792.html'
p207
aS'http://www.espnscrum.com/wales/rugby/player/1796.html'
p208
aS'http://www.espnscrum.com/wales/rugby/player/1807.html'
p209
aS'http://www.espnscrum.com/wales/rugby/player/1808.html'
p210
aS'http://www.espnscrum.com/wales/rugby/player/1809.html'
p211
aS'http://www.espnscrum.com/wales/rugby/player/1844.html'
p212
aS'http://www.espnscrum.com/wales/rugby/player/1845.html'
p213
aS'http://www.espnscrum.com/wales/rugby/player/1847.html'
p214
aS'http://www.espnscrum.com/wales/rugby/player/1848.html'
p215
aS'http://www.espnscrum.com/wales/rugby/player/1866.html'
p216
aS'http://www.espnscrum.com/wales/rugby/player/1867.html'
p217
aS'http://www.espnscrum.com/wales/rugby/player/1868.html'
p218
aS'http://www.espnscrum.com/wales/rugby/player/1869.html'
p219
aS'http://www.espnscrum.com/wales/rugby/player/1871.html'
p220
aS'http://www.espnscrum.com/wales/rugby/player/1874.html'
p221
aS'http://www.espnscrum.com/wales/rugby/player/1884.html'
p222
aS'http://www.espnscrum.com/wales/rugby/player/1887.html'
p223
aS'http://www.espnscrum.com/wales/rugby/player/1670.html'
p224
aS'http://www.espnscrum.com/wales/rugby/player/1941.html'
p225
aS'http://www.espnscrum.com/wales/rugby/player/1991.html'
p226
aS'http://www.espnscrum.com/wales/rugby/player/1967.html'
p227
aS'http://www.espnscrum.com/wales/rugby/player/1993.html'
p228
aS'http://www.espnscrum.com/wales/rugby/player/1996.html'
p229
aS'http://www.espnscrum.com/wales/rugby/player/2011.html'
p230
aS'http://www.espnscrum.com/wales/rugby/player/2012.html'
p231
aS'http://www.espnscrum.com/wales/rugby/player/2025.html'
p232
aS'http://www.espnscrum.com/wales/rugby/player/2037.html'
p233
aS'http://www.espnscrum.com/wales/rugby/player/2038.html'
p234
aS'http://www.espnscrum.com/wales/rugby/player/2062.html'
p235
aS'http://www.espnscrum.com/wales/rugby/player/2065.html'
p236
aS'http://www.espnscrum.com/wales/rugby/player/2069.html'
p237
aS'http://www.espnscrum.com/wales/rugby/player/2072.html'
p238
aS'http://www.espnscrum.com/wales/rugby/player/2083.html'
p239
aS'http://www.espnscrum.com/wales/rugby/player/1980.html'
p240
aS'http://www.espnscrum.com/wales/rugby/player/2085.html'
p241
aS'http://www.espnscrum.com/wales/rugby/player/2107.html'
p242
aS'http://www.espnscrum.com/wales/rugby/player/2206.html'
p243
aS'http://www.espnscrum.com/wales/rugby/player/2208.html'
p244
aS'http://www.espnscrum.com/wales/rugby/player/2211.html'
p245
aS'http://www.espnscrum.com/wales/rugby/player/2217.html'
p246
aS'http://www.espnscrum.com/wales/rugby/player/2229.html'
p247
aS'http://www.espnscrum.com/wales/rugby/player/2252.html'
p248
aS'http://www.espnscrum.com/wales/rugby/player/2253.html'
p249
aS'http://www.espnscrum.com/wales/rugby/player/2261.html'
p250
aS'http://www.espnscrum.com/wales/rugby/player/2267.html'
p251
aS'http://www.espnscrum.com/wales/rugby/player/2268.html'
p252
aS'http://www.espnscrum.com/wales/rugby/player/2269.html'
p253
aS'http://www.espnscrum.com/wales/rugby/player/2272.html'
p254
aS'http://www.espnscrum.com/wales/rugby/player/2273.html'
p255
aS'http://www.espnscrum.com/wales/rugby/player/2274.html'
p256
aS'http://www.espnscrum.com/wales/rugby/player/2279.html'
p257
aS'http://www.espnscrum.com/wales/rugby/player/2280.html'
p258
aS'http://www.espnscrum.com/wales/rugby/player/2281.html'
p259
aS'http://www.espnscrum.com/wales/rugby/player/2282.html'
p260
aS'http://www.espnscrum.com/wales/rugby/player/2283.html'
p261
aS'http://www.espnscrum.com/wales/rugby/player/2284.html'
p262
aS'http://www.espnscrum.com/wales/rugby/player/2285.html'
p263
aS'http://www.espnscrum.com/wales/rugby/player/2293.html'
p264
aS'http://www.espnscrum.com/wales/rugby/player/2339.html'
p265
aS'http://www.espnscrum.com/wales/rugby/player/2340.html'
p266
aS'http://www.espnscrum.com/wales/rugby/player/2341.html'
p267
aS'http://www.espnscrum.com/wales/rugby/player/2342.html'
p268
aS'http://www.espnscrum.com/wales/rugby/player/2343.html'
p269
aS'http://www.espnscrum.com/wales/rugby/player/2344.html'
p270
aS'http://www.espnscrum.com/wales/rugby/player/2345.html'
p271
aS'http://www.espnscrum.com/wales/rugby/player/2346.html'
p272
aS'http://www.espnscrum.com/wales/rugby/player/2347.html'
p273
aS'http://www.espnscrum.com/wales/rugby/player/2369.html'
p274
aS'http://www.espnscrum.com/wales/rugby/player/1978.html'
p275
aS'http://www.espnscrum.com/wales/rugby/player/2370.html'
p276
aS'http://www.espnscrum.com/wales/rugby/player/2371.html'
p277
aS'http://www.espnscrum.com/wales/rugby/player/2373.html'
p278
aS'http://www.espnscrum.com/wales/rugby/player/2385.html'
p279
aS'http://www.espnscrum.com/wales/rugby/player/2386.html'
p280
aS'http://www.espnscrum.com/wales/rugby/player/2475.html'
p281
aS'http://www.espnscrum.com/wales/rugby/player/2476.html'
p282
aS'http://www.espnscrum.com/wales/rugby/player/1979.html'
p283
aS'http://www.espnscrum.com/wales/rugby/player/2480.html'
p284
aS'http://www.espnscrum.com/wales/rugby/player/2481.html'
p285
aS'http://www.espnscrum.com/wales/rugby/player/2483.html'
p286
aS'http://www.espnscrum.com/wales/rugby/player/2493.html'
p287
aS'http://www.espnscrum.com/wales/rugby/player/2531.html'
p288
aS'http://www.espnscrum.com/wales/rugby/player/2535.html'
p289
aS'http://www.espnscrum.com/wales/rugby/player/2536.html'
p290
aS'http://www.espnscrum.com/wales/rugby/player/2537.html'
p291
aS'http://www.espnscrum.com/wales/rugby/player/2538.html'
p292
aS'http://www.espnscrum.com/wales/rugby/player/2541.html'
p293
aS'http://www.espnscrum.com/wales/rugby/player/2542.html'
p294
aS'http://www.espnscrum.com/wales/rugby/player/2543.html'
p295
aS'http://www.espnscrum.com/wales/rugby/player/2544.html'
p296
aS'http://www.espnscrum.com/wales/rugby/player/2545.html'
p297
aS'http://www.espnscrum.com/wales/rugby/player/2546.html'
p298
aS'http://www.espnscrum.com/wales/rugby/player/2549.html'
p299
aS'http://www.espnscrum.com/wales/rugby/player/2551.html'
p300
aS'http://www.espnscrum.com/wales/rugby/player/2592.html'
p301
aS'http://www.espnscrum.com/wales/rugby/player/2595.html'
p302
aS'http://www.espnscrum.com/wales/rugby/player/2598.html'
p303
aS'http://www.espnscrum.com/wales/rugby/player/2599.html'
p304
aS'http://www.espnscrum.com/wales/rugby/player/2605.html'
p305
aS'http://www.espnscrum.com/wales/rugby/player/2606.html'
p306
aS'http://www.espnscrum.com/wales/rugby/player/2607.html'
p307
aS'http://www.espnscrum.com/wales/rugby/player/2608.html'
p308
aS'http://www.espnscrum.com/wales/rugby/player/2610.html'
p309
aS'http://www.espnscrum.com/wales/rugby/player/2625.html'
p310
aS'http://www.espnscrum.com/wales/rugby/player/2643.html'
p311
aS'http://www.espnscrum.com/wales/rugby/player/2644.html'
p312
aS'http://www.espnscrum.com/wales/rugby/player/2654.html'
p313
aS'http://www.espnscrum.com/wales/rugby/player/2725.html'
p314
aS'http://www.espnscrum.com/wales/rugby/player/2726.html'
p315
aS'http://www.espnscrum.com/wales/rugby/player/2729.html'
p316
aS'http://www.espnscrum.com/wales/rugby/player/2730.html'
p317
aS'http://www.espnscrum.com/wales/rugby/player/2731.html'
p318
aS'http://www.espnscrum.com/wales/rugby/player/2732.html'
p319
aS'http://www.espnscrum.com/wales/rugby/player/2734.html'
p320
aS'http://www.espnscrum.com/wales/rugby/player/2753.html'
p321
aS'http://www.espnscrum.com/wales/rugby/player/2748.html'
p322
aS'http://www.espnscrum.com/wales/rugby/player/2752.html'
p323
aS'http://www.espnscrum.com/wales/rugby/player/2754.html'
p324
aS'http://www.espnscrum.com/wales/rugby/player/2763.html'
p325
aS'http://www.espnscrum.com/wales/rugby/player/2765.html'
p326
aS'http://www.espnscrum.com/wales/rugby/player/2768.html'
p327
aS'http://www.espnscrum.com/wales/rugby/player/2769.html'
p328
aS'http://www.espnscrum.com/wales/rugby/player/2770.html'
p329
aS'http://www.espnscrum.com/wales/rugby/player/2771.html'
p330
aS'http://www.espnscrum.com/wales/rugby/player/2772.html'
p331
aS'http://www.espnscrum.com/wales/rugby/player/2856.html'
p332
aS'http://www.espnscrum.com/wales/rugby/player/2858.html'
p333
aS'http://www.espnscrum.com/wales/rugby/player/2859.html'
p334
aS'http://www.espnscrum.com/wales/rugby/player/2860.html'
p335
aS'http://www.espnscrum.com/wales/rugby/player/2861.html'
p336
aS'http://www.espnscrum.com/wales/rugby/player/2862.html'
p337
aS'http://www.espnscrum.com/wales/rugby/player/2863.html'
p338
aS'http://www.espnscrum.com/wales/rugby/player/2864.html'
p339
aS'http://www.espnscrum.com/wales/rugby/player/2868.html'
p340
aS'http://www.espnscrum.com/wales/rugby/player/2943.html'
p341
aS'http://www.espnscrum.com/wales/rugby/player/2944.html'
p342
aS'http://www.espnscrum.com/wales/rugby/player/2948.html'
p343
aS'http://www.espnscrum.com/wales/rugby/player/2954.html'
p344
aS'http://www.espnscrum.com/wales/rugby/player/2956.html'
p345
aS'http://www.espnscrum.com/wales/rugby/player/2957.html'
p346
aS'http://www.espnscrum.com/wales/rugby/player/2958.html'
p347
aS'http://www.espnscrum.com/wales/rugby/player/2972.html'
p348
aS'http://www.espnscrum.com/wales/rugby/player/2975.html'
p349
aS'http://www.espnscrum.com/wales/rugby/player/2977.html'
p350
aS'http://www.espnscrum.com/wales/rugby/player/2979.html'
p351
aS'http://www.espnscrum.com/wales/rugby/player/2980.html'
p352
aS'http://www.espnscrum.com/wales/rugby/player/2981.html'
p353
aS'http://www.espnscrum.com/wales/rugby/player/2982.html'
p354
aS'http://www.espnscrum.com/wales/rugby/player/2983.html'
p355
aS'http://www.espnscrum.com/wales/rugby/player/2984.html'
p356
aS'http://www.espnscrum.com/wales/rugby/player/3055.html'
p357
aS'http://www.espnscrum.com/wales/rugby/player/3056.html'
p358
aS'http://www.espnscrum.com/wales/rugby/player/3058.html'
p359
aS'http://www.espnscrum.com/wales/rugby/player/3059.html'
p360
aS'http://www.espnscrum.com/wales/rugby/player/3060.html'
p361
aS'http://www.espnscrum.com/wales/rugby/player/3061.html'
p362
aS'http://www.espnscrum.com/wales/rugby/player/3062.html'
p363
aS'http://www.espnscrum.com/wales/rugby/player/3064.html'
p364
aS'http://www.espnscrum.com/wales/rugby/player/3065.html'
p365
aS'http://www.espnscrum.com/wales/rugby/player/3076.html'
p366
aS'http://www.espnscrum.com/wales/rugby/player/3077.html'
p367
aS'http://www.espnscrum.com/wales/rugby/player/3079.html'
p368
aS'http://www.espnscrum.com/wales/rugby/player/3080.html'
p369
aS'http://www.espnscrum.com/wales/rugby/player/3089.html'
p370
aS'http://www.espnscrum.com/wales/rugby/player/3090.html'
p371
aS'http://www.espnscrum.com/wales/rugby/player/3091.html'
p372
aS'http://www.espnscrum.com/wales/rugby/player/3094.html'
p373
aS'http://www.espnscrum.com/wales/rugby/player/3095.html'
p374
aS'http://www.espnscrum.com/wales/rugby/player/3096.html'
p375
aS'http://www.espnscrum.com/wales/rugby/player/3100.html'
p376
aS'http://www.espnscrum.com/wales/rugby/player/3101.html'
p377
aS'http://www.espnscrum.com/wales/rugby/player/3102.html'
p378
aS'http://www.espnscrum.com/wales/rugby/player/3104.html'
p379
aS'http://www.espnscrum.com/wales/rugby/player/3189.html'
p380
aS'http://www.espnscrum.com/wales/rugby/player/3190.html'
p381
aS'http://www.espnscrum.com/wales/rugby/player/3203.html'
p382
aS'http://www.espnscrum.com/wales/rugby/player/3204.html'
p383
aS'http://www.espnscrum.com/wales/rugby/player/3205.html'
p384
aS'http://www.espnscrum.com/wales/rugby/player/3208.html'
p385
aS'http://www.espnscrum.com/wales/rugby/player/3209.html'
p386
aS'http://www.espnscrum.com/wales/rugby/player/3210.html'
p387
aS'http://www.espnscrum.com/wales/rugby/player/3211.html'
p388
aS'http://www.espnscrum.com/wales/rugby/player/3224.html'
p389
aS'http://www.espnscrum.com/wales/rugby/player/3226.html'
p390
aS'http://www.espnscrum.com/wales/rugby/player/3232.html'
p391
aS'http://www.espnscrum.com/wales/rugby/player/3234.html'
p392
aS'http://www.espnscrum.com/wales/rugby/player/3235.html'
p393
aS'http://www.espnscrum.com/wales/rugby/player/3239.html'
p394
aS'http://www.espnscrum.com/wales/rugby/player/3240.html'
p395
aS'http://www.espnscrum.com/wales/rugby/player/3241.html'
p396
aS'http://www.espnscrum.com/wales/rugby/player/3243.html'
p397
aS'http://www.espnscrum.com/wales/rugby/player/3290.html'
p398
aS'http://www.espnscrum.com/wales/rugby/player/3293.html'
p399
aS'http://www.espnscrum.com/wales/rugby/player/3296.html'
p400
aS'http://www.espnscrum.com/wales/rugby/player/3297.html'
p401
aS'http://www.espnscrum.com/wales/rugby/player/3298.html'
p402
aS'http://www.espnscrum.com/wales/rugby/player/3299.html'
p403
aS'http://www.espnscrum.com/wales/rugby/player/3300.html'
p404
aS'http://www.espnscrum.com/wales/rugby/player/3301.html'
p405
aS'http://www.espnscrum.com/wales/rugby/player/3312.html'
p406
aS'http://www.espnscrum.com/wales/rugby/player/3314.html'
p407
aS'http://www.espnscrum.com/wales/rugby/player/3316.html'
p408
aS'http://www.espnscrum.com/wales/rugby/player/3326.html'
p409
aS'http://www.espnscrum.com/wales/rugby/player/3327.html'
p410
aS'http://www.espnscrum.com/wales/rugby/player/3328.html'
p411
aS'http://www.espnscrum.com/wales/rugby/player/3396.html'
p412
aS'http://www.espnscrum.com/wales/rugby/player/3397.html'
p413
aS'http://www.espnscrum.com/wales/rugby/player/3400.html'
p414
aS'http://www.espnscrum.com/wales/rugby/player/3401.html'
p415
aS'http://www.espnscrum.com/wales/rugby/player/3404.html'
p416
aS'http://www.espnscrum.com/wales/rugby/player/3405.html'
p417
aS'http://www.espnscrum.com/wales/rugby/player/3406.html'
p418
aS'http://www.espnscrum.com/wales/rugby/player/3407.html'
p419
aS'http://www.espnscrum.com/wales/rugby/player/3414.html'
p420
aS'http://www.espnscrum.com/wales/rugby/player/3416.html'
p421
aS'http://www.espnscrum.com/wales/rugby/player/3492.html'
p422
aS'http://www.espnscrum.com/wales/rugby/player/3493.html'
p423
aS'http://www.espnscrum.com/wales/rugby/player/3494.html'
p424
aS'http://www.espnscrum.com/wales/rugby/player/3495.html'
p425
aS'http://www.espnscrum.com/wales/rugby/player/3496.html'
p426
aS'http://www.espnscrum.com/wales/rugby/player/3497.html'
p427
aS'http://www.espnscrum.com/wales/rugby/player/3498.html'
p428
aS'http://www.espnscrum.com/wales/rugby/player/3499.html'
p429
aS'http://www.espnscrum.com/wales/rugby/player/3515.html'
p430
aS'http://www.espnscrum.com/wales/rugby/player/3516.html'
p431
aS'http://www.espnscrum.com/wales/rugby/player/3543.html'
p432
aS'http://www.espnscrum.com/wales/rugby/player/3640.html'
p433
aS'http://www.espnscrum.com/wales/rugby/player/3643.html'
p434
aS'http://www.espnscrum.com/wales/rugby/player/3644.html'
p435
aS'http://www.espnscrum.com/wales/rugby/player/3646.html'
p436
aS'http://www.espnscrum.com/wales/rugby/player/3647.html'
p437
aS'http://www.espnscrum.com/wales/rugby/player/3655.html'
p438
aS'http://www.espnscrum.com/wales/rugby/player/3656.html'
p439
aS'http://www.espnscrum.com/wales/rugby/player/3658.html'
p440
aS'http://www.espnscrum.com/wales/rugby/player/3659.html'
p441
aS'http://www.espnscrum.com/wales/rugby/player/3666.html'
p442
aS'http://www.espnscrum.com/wales/rugby/player/3747.html'
p443
aS'http://www.espnscrum.com/wales/rugby/player/3750.html'
p444
aS'http://www.espnscrum.com/wales/rugby/player/3753.html'
p445
aS'http://www.espnscrum.com/wales/rugby/player/3755.html'
p446
aS'http://www.espnscrum.com/wales/rugby/player/3760.html'
p447
aS'http://www.espnscrum.com/wales/rugby/player/3761.html'
p448
aS'http://www.espnscrum.com/wales/rugby/player/3764.html'
p449
aS'http://www.espnscrum.com/wales/rugby/player/3765.html'
p450
aS'http://www.espnscrum.com/wales/rugby/player/3773.html'
p451
aS'http://www.espnscrum.com/wales/rugby/player/3774.html'
p452
aS'http://www.espnscrum.com/wales/rugby/player/3781.html'
p453
aS'http://www.espnscrum.com/wales/rugby/player/3782.html'
p454
aS'http://www.espnscrum.com/wales/rugby/player/3783.html'
p455
aS'http://www.espnscrum.com/wales/rugby/player/3838.html'
p456
aS'http://www.espnscrum.com/wales/rugby/player/3862.html'
p457
aS'http://www.espnscrum.com/wales/rugby/player/3863.html'
p458
aS'http://www.espnscrum.com/wales/rugby/player/3865.html'
p459
aS'http://www.espnscrum.com/wales/rugby/player/3908.html'
p460
aS'http://www.espnscrum.com/wales/rugby/player/4061.html'
p461
aS'http://www.espnscrum.com/wales/rugby/player/4062.html'
p462
aS'http://www.espnscrum.com/wales/rugby/player/4063.html'
p463
aS'http://www.espnscrum.com/wales/rugby/player/4064.html'
p464
aS'http://www.espnscrum.com/wales/rugby/player/4065.html'
p465
aS'http://www.espnscrum.com/wales/rugby/player/4067.html'
p466
aS'http://www.espnscrum.com/wales/rugby/player/4068.html'
p467
aS'http://www.espnscrum.com/wales/rugby/player/4069.html'
p468
aS'http://www.espnscrum.com/wales/rugby/player/4071.html'
p469
aS'http://www.espnscrum.com/wales/rugby/player/4076.html'
p470
aS'http://www.espnscrum.com/wales/rugby/player/4095.html'
p471
aS'http://www.espnscrum.com/wales/rugby/player/4096.html'
p472
aS'http://www.espnscrum.com/wales/rugby/player/4135.html'
p473
aS'http://www.espnscrum.com/wales/rugby/player/4137.html'
p474
aS'http://www.espnscrum.com/wales/rugby/player/4139.html'
p475
aS'http://www.espnscrum.com/wales/rugby/player/4140.html'
p476
aS'http://www.espnscrum.com/wales/rugby/player/4143.html'
p477
aS'http://www.espnscrum.com/wales/rugby/player/4144.html'
p478
aS'http://www.espnscrum.com/wales/rugby/player/4145.html'
p479
aS'http://www.espnscrum.com/wales/rugby/player/4146.html'
p480
aS'http://www.espnscrum.com/wales/rugby/player/4147.html'
p481
aS'http://www.espnscrum.com/wales/rugby/player/4150.html'
p482
aS'http://www.espnscrum.com/wales/rugby/player/4151.html'
p483
aS'http://www.espnscrum.com/wales/rugby/player/4152.html'
p484
aS'http://www.espnscrum.com/wales/rugby/player/4153.html'
p485
aS'http://www.espnscrum.com/wales/rugby/player/4158.html'
p486
aS'http://www.espnscrum.com/wales/rugby/player/4159.html'
p487
aS'http://www.espnscrum.com/wales/rugby/player/4160.html'
p488
aS'http://www.espnscrum.com/wales/rugby/player/4165.html'
p489
aS'http://www.espnscrum.com/wales/rugby/player/4168.html'
p490
aS'http://www.espnscrum.com/wales/rugby/player/4192.html'
p491
aS'http://www.espnscrum.com/wales/rugby/player/4251.html'
p492
aS'http://www.espnscrum.com/wales/rugby/player/4257.html'
p493
aS'http://www.espnscrum.com/wales/rugby/player/4258.html'
p494
aS'http://www.espnscrum.com/wales/rugby/player/4268.html'
p495
aS'http://www.espnscrum.com/wales/rugby/player/4314.html'
p496
aS'http://www.espnscrum.com/wales/rugby/player/4315.html'
p497
aS'http://www.espnscrum.com/wales/rugby/player/4316.html'
p498
aS'http://www.espnscrum.com/wales/rugby/player/4317.html'
p499
aS'http://www.espnscrum.com/wales/rugby/player/4323.html'
p500
aS'http://www.espnscrum.com/wales/rugby/player/4324.html'
p501
aS'http://www.espnscrum.com/wales/rugby/player/4325.html'
p502
aS'http://www.espnscrum.com/wales/rugby/player/4326.html'
p503
aS'http://www.espnscrum.com/wales/rugby/player/4349.html'
p504
aS'http://www.espnscrum.com/wales/rugby/player/4463.html'
p505
aS'http://www.espnscrum.com/wales/rugby/player/4464.html'
p506
aS'http://www.espnscrum.com/wales/rugby/player/4467.html'
p507
aS'http://www.espnscrum.com/wales/rugby/player/4470.html'
p508
aS'http://www.espnscrum.com/wales/rugby/player/4475.html'
p509
aS'http://www.espnscrum.com/wales/rugby/player/4477.html'
p510
aS'http://www.espnscrum.com/wales/rugby/player/4487.html'
p511
aS'http://www.espnscrum.com/wales/rugby/player/4488.html'
p512
aS'http://www.espnscrum.com/wales/rugby/player/4492.html'
p513
aS'http://www.espnscrum.com/wales/rugby/player/4556.html'
p514
aS'http://www.espnscrum.com/wales/rugby/player/4557.html'
p515
aS'http://www.espnscrum.com/wales/rugby/player/4558.html'
p516
aS'http://www.espnscrum.com/wales/rugby/player/4560.html'
p517
aS'http://www.espnscrum.com/wales/rugby/player/4672.html'
p518
aS'http://www.espnscrum.com/wales/rugby/player/4674.html'
p519
aS'http://www.espnscrum.com/wales/rugby/player/4675.html'
p520
aS'http://www.espnscrum.com/wales/rugby/player/4676.html'
p521
aS'http://www.espnscrum.com/wales/rugby/player/4682.html'
p522
aS'http://www.espnscrum.com/wales/rugby/player/4686.html'
p523
aS'http://www.espnscrum.com/wales/rugby/player/4687.html'
p524
aS'http://www.espnscrum.com/wales/rugby/player/4688.html'
p525
aS'http://www.espnscrum.com/wales/rugby/player/207409.html'
p526
aS'http://www.espnscrum.com/wales/rugby/player/4691.html'
p527
aS'http://www.espnscrum.com/wales/rugby/player/4692.html'
p528
aS'http://www.espnscrum.com/wales/rugby/player/4705.html'
p529
aS'http://www.espnscrum.com/wales/rugby/player/4706.html'
p530
aS'http://www.espnscrum.com/wales/rugby/player/4783.html'
p531
aS'http://www.espnscrum.com/wales/rugby/player/4900.html'
p532
aS'http://www.espnscrum.com/wales/rugby/player/4784.html'
p533
aS'http://www.espnscrum.com/wales/rugby/player/4901.html'
p534
aS'http://www.espnscrum.com/wales/rugby/player/4905.html'
p535
aS'http://www.espnscrum.com/wales/rugby/player/4906.html'
p536
aS'http://www.espnscrum.com/wales/rugby/player/4796.html'
p537
aS'http://www.espnscrum.com/wales/rugby/player/4824.html'
p538
aS'http://www.espnscrum.com/wales/rugby/player/4913.html'
p539
aS'http://www.espnscrum.com/wales/rugby/player/4800.html'
p540
aS'http://www.espnscrum.com/wales/rugby/player/4918.html'
p541
aS'http://www.espnscrum.com/wales/rugby/player/4919.html'
p542
aS'http://www.espnscrum.com/wales/rugby/player/4920.html'
p543
aS'http://www.espnscrum.com/wales/rugby/player/4819.html'
p544
aS'http://www.espnscrum.com/wales/rugby/player/4934.html'
p545
aS'http://www.espnscrum.com/wales/rugby/player/4788.html'
p546
aS'http://www.espnscrum.com/wales/rugby/player/4936.html'
p547
aS'http://www.espnscrum.com/wales/rugby/player/4938.html'
p548
aS'http://www.espnscrum.com/wales/rugby/player/4787.html'
p549
aS'http://www.espnscrum.com/wales/rugby/player/4955.html'
p550
aS'http://www.espnscrum.com/wales/rugby/player/5015.html'
p551
aS'http://www.espnscrum.com/wales/rugby/player/5016.html'
p552
aS'http://www.espnscrum.com/wales/rugby/player/5017.html'
p553
aS'http://www.espnscrum.com/wales/rugby/player/4791.html'
p554
aS'http://www.espnscrum.com/wales/rugby/player/5031.html'
p555
aS'http://www.espnscrum.com/wales/rugby/player/5032.html'
p556
aS'http://www.espnscrum.com/wales/rugby/player/5034.html'
p557
aS'http://www.espnscrum.com/wales/rugby/player/5136.html'
p558
aS'http://www.espnscrum.com/wales/rugby/player/5137.html'
p559
aS'http://www.espnscrum.com/wales/rugby/player/5142.html'
p560
aS'http://www.espnscrum.com/wales/rugby/player/5145.html'
p561
aS'http://www.espnscrum.com/wales/rugby/player/5153.html'
p562
aS'http://www.espnscrum.com/wales/rugby/player/5163.html'
p563
aS'http://www.espnscrum.com/wales/rugby/player/5164.html'
p564
aS'http://www.espnscrum.com/wales/rugby/player/5165.html'
p565
aS'http://www.espnscrum.com/wales/rugby/player/5166.html'
p566
aS'http://www.espnscrum.com/wales/rugby/player/5294.html'
p567
aS'http://www.espnscrum.com/wales/rugby/player/5296.html'
p568
aS'http://www.espnscrum.com/wales/rugby/player/5299.html'
p569
aS'http://www.espnscrum.com/wales/rugby/player/5300.html'
p570
aS'http://www.espnscrum.com/wales/rugby/player/5302.html'
p571
aS'http://www.espnscrum.com/wales/rugby/player/5305.html'
p572
aS'http://www.espnscrum.com/wales/rugby/player/5322.html'
p573
aS'http://www.espnscrum.com/wales/rugby/player/5354.html'
p574
aS'http://www.espnscrum.com/wales/rugby/player/5372.html'
p575
aS'http://www.espnscrum.com/wales/rugby/player/5384.html'
p576
aS'http://www.espnscrum.com/wales/rugby/player/5386.html'
p577
aS'http://www.espnscrum.com/wales/rugby/player/5389.html'
p578
aS'http://www.espnscrum.com/wales/rugby/player/5390.html'
p579
aS'http://www.espnscrum.com/wales/rugby/player/5493.html'
p580
aS'http://www.espnscrum.com/wales/rugby/player/5515.html'
p581
aS'http://www.espnscrum.com/wales/rugby/player/4826.html'
p582
aS'http://www.espnscrum.com/wales/rugby/player/5532.html'
p583
aS'http://www.espnscrum.com/wales/rugby/player/5651.html'
p584
aS'http://www.espnscrum.com/wales/rugby/player/5652.html'
p585
aS'http://www.espnscrum.com/wales/rugby/player/5653.html'
p586
aS'http://www.espnscrum.com/wales/rugby/player/5654.html'
p587
aS'http://www.espnscrum.com/wales/rugby/player/5655.html'
p588
aS'http://www.espnscrum.com/wales/rugby/player/5656.html'
p589
aS'http://www.espnscrum.com/wales/rugby/player/5661.html'
p590
aS'http://www.espnscrum.com/wales/rugby/player/5662.html'
p591
aS'http://www.espnscrum.com/wales/rugby/player/5676.html'
p592
aS'http://www.espnscrum.com/wales/rugby/player/5746.html'
p593
aS'http://www.espnscrum.com/wales/rugby/player/5759.html'
p594
aS'http://www.espnscrum.com/wales/rugby/player/5777.html'
p595
aS'http://www.espnscrum.com/wales/rugby/player/5778.html'
p596
aS'http://www.espnscrum.com/wales/rugby/player/5780.html'
p597
aS'http://www.espnscrum.com/wales/rugby/player/5781.html'
p598
aS'http://www.espnscrum.com/wales/rugby/player/5782.html'
p599
aS'http://www.espnscrum.com/wales/rugby/player/5783.html'
p600
aS'http://www.espnscrum.com/wales/rugby/player/5788.html'
p601
aS'http://www.espnscrum.com/wales/rugby/player/5807.html'
p602
aS'http://www.espnscrum.com/wales/rugby/player/5881.html'
p603
aS'http://www.espnscrum.com/wales/rugby/player/5882.html'
p604
aS'http://www.espnscrum.com/wales/rugby/player/5892.html'
p605
aS'http://www.espnscrum.com/wales/rugby/player/5909.html'
p606
aS'http://www.espnscrum.com/wales/rugby/player/5920.html'
p607
aS'http://www.espnscrum.com/wales/rugby/player/5998.html'
p608
aS'http://www.espnscrum.com/wales/rugby/player/6000.html'
p609
aS'http://www.espnscrum.com/wales/rugby/player/6004.html'
p610
aS'http://www.espnscrum.com/wales/rugby/player/6014.html'
p611
aS'http://www.espnscrum.com/wales/rugby/player/6034.html'
p612
aS'http://www.espnscrum.com/wales/rugby/player/6035.html'
p613
aS'http://www.espnscrum.com/wales/rugby/player/6107.html'
p614
aS'http://www.espnscrum.com/wales/rugby/player/6108.html'
p615
aS'http://www.espnscrum.com/wales/rugby/player/6109.html'
p616
aS'http://www.espnscrum.com/wales/rugby/player/6070.html'
p617
aS'http://www.espnscrum.com/wales/rugby/player/6115.html'
p618
aS'http://www.espnscrum.com/wales/rugby/player/6122.html'
p619
aS'http://www.espnscrum.com/wales/rugby/player/6123.html'
p620
aS'http://www.espnscrum.com/wales/rugby/player/6124.html'
p621
aS'http://www.espnscrum.com/wales/rugby/player/6125.html'
p622
aS'http://www.espnscrum.com/wales/rugby/player/6198.html'
p623
aS'http://www.espnscrum.com/wales/rugby/player/6200.html'
p624
aS'http://www.espnscrum.com/wales/rugby/player/6201.html'
p625
aS'http://www.espnscrum.com/wales/rugby/player/6202.html'
p626
aS'http://www.espnscrum.com/wales/rugby/player/6203.html'
p627
aS'http://www.espnscrum.com/wales/rugby/player/6215.html'
p628
aS'http://www.espnscrum.com/wales/rugby/player/6246.html'
p629
aS'http://www.espnscrum.com/wales/rugby/player/6247.html'
p630
aS'http://www.espnscrum.com/wales/rugby/player/6248.html'
p631
aS'http://www.espnscrum.com/wales/rugby/player/6249.html'
p632
aS'http://www.espnscrum.com/wales/rugby/player/6350.html'
p633
aS'http://www.espnscrum.com/wales/rugby/player/6351.html'
p634
aS'http://www.espnscrum.com/wales/rugby/player/6353.html'
p635
aS'http://www.espnscrum.com/wales/rugby/player/6354.html'
p636
aS'http://www.espnscrum.com/wales/rugby/player/6355.html'
p637
aS'http://www.espnscrum.com/wales/rugby/player/6356.html'
p638
aS'http://www.espnscrum.com/wales/rugby/player/6357.html'
p639
aS'http://www.espnscrum.com/wales/rugby/player/6367.html'
p640
aS'http://www.espnscrum.com/wales/rugby/player/6383.html'
p641
aS'http://www.espnscrum.com/wales/rugby/player/6384.html'
p642
aS'http://www.espnscrum.com/wales/rugby/player/6385.html'
p643
aS'http://www.espnscrum.com/wales/rugby/player/6467.html'
p644
aS'http://www.espnscrum.com/wales/rugby/player/6468.html'
p645
aS'http://www.espnscrum.com/wales/rugby/player/6469.html'
p646
aS'http://www.espnscrum.com/wales/rugby/player/6473.html'
p647
aS'http://www.espnscrum.com/wales/rugby/player/6471.html'
p648
aS'http://www.espnscrum.com/wales/rugby/player/6478.html'
p649
aS'http://www.espnscrum.com/wales/rugby/player/6480.html'
p650
aS'http://www.espnscrum.com/wales/rugby/player/6492.html'
p651
aS'http://www.espnscrum.com/wales/rugby/player/6493.html'
p652
aS'http://www.espnscrum.com/wales/rugby/player/6085.html'
p653
aS'http://www.espnscrum.com/wales/rugby/player/6548.html'
p654
aS'http://www.espnscrum.com/wales/rugby/player/6550.html'
p655
aS'http://www.espnscrum.com/wales/rugby/player/6551.html'
p656
aS'http://www.espnscrum.com/wales/rugby/player/6446.html'
p657
aS'http://www.espnscrum.com/wales/rugby/player/6552.html'
p658
aS'http://www.espnscrum.com/wales/rugby/player/6553.html'
p659
aS'http://www.espnscrum.com/wales/rugby/player/6569.html'
p660
aS'http://www.espnscrum.com/wales/rugby/player/6570.html'
p661
aS'http://www.espnscrum.com/wales/rugby/player/6572.html'
p662
aS'http://www.espnscrum.com/wales/rugby/player/6583.html'
p663
aS'http://www.espnscrum.com/wales/rugby/player/6584.html'
p664
aS'http://www.espnscrum.com/wales/rugby/player/6586.html'
p665
aS'http://www.espnscrum.com/wales/rugby/player/6587.html'
p666
aS'http://www.espnscrum.com/wales/rugby/player/6588.html'
p667
aS'http://www.espnscrum.com/wales/rugby/player/6655.html'
p668
aS'http://www.espnscrum.com/wales/rugby/player/6656.html'
p669
aS'http://www.espnscrum.com/wales/rugby/player/6658.html'
p670
aS'http://www.espnscrum.com/wales/rugby/player/6659.html'
p671
aS'http://www.espnscrum.com/wales/rugby/player/6661.html'
p672
aS'http://www.espnscrum.com/wales/rugby/player/6676.html'
p673
aS'http://www.espnscrum.com/wales/rugby/player/6730.html'
p674
aS'http://www.espnscrum.com/wales/rugby/player/6731.html'
p675
aS'http://www.espnscrum.com/wales/rugby/player/6735.html'
p676
aS'http://www.espnscrum.com/wales/rugby/player/6746.html'
p677
aS'http://www.espnscrum.com/wales/rugby/player/6762.html'
p678
aS'http://www.espnscrum.com/wales/rugby/player/6764.html'
p679
aS'http://www.espnscrum.com/wales/rugby/player/6766.html'
p680
aS'http://www.espnscrum.com/wales/rugby/player/6767.html'
p681
aS'http://www.espnscrum.com/wales/rugby/player/6769.html'
p682
aS'http://www.espnscrum.com/wales/rugby/player/6770.html'
p683
aS'http://www.espnscrum.com/wales/rugby/player/6775.html'
p684
aS'http://www.espnscrum.com/wales/rugby/player/6776.html'
p685
aS'http://www.espnscrum.com/wales/rugby/player/6777.html'
p686
aS'http://www.espnscrum.com/wales/rugby/player/6791.html'
p687
aS'http://www.espnscrum.com/wales/rugby/player/6862.html'
p688
aS'http://www.espnscrum.com/wales/rugby/player/6863.html'
p689
aS'http://www.espnscrum.com/wales/rugby/player/6872.html'
p690
aS'http://www.espnscrum.com/wales/rugby/player/6874.html'
p691
aS'http://www.espnscrum.com/wales/rugby/player/6876.html'
p692
aS'http://www.espnscrum.com/wales/rugby/player/6877.html'
p693
aS'http://www.espnscrum.com/wales/rugby/player/6878.html'
p694
aS'http://www.espnscrum.com/wales/rugby/player/6889.html'
p695
aS'http://www.espnscrum.com/wales/rugby/player/6950.html'
p696
aS'http://www.espnscrum.com/wales/rugby/player/6971.html'
p697
aS'http://www.espnscrum.com/wales/rugby/player/6977.html'
p698
aS'http://www.espnscrum.com/wales/rugby/player/7077.html'
p699
aS'http://www.espnscrum.com/wales/rugby/player/6948.html'
p700
aS'http://www.espnscrum.com/wales/rugby/player/6949.html'
p701
aS'http://www.espnscrum.com/wales/rugby/player/7158.html'
p702
aS'http://www.espnscrum.com/wales/rugby/player/7159.html'
p703
aS'http://www.espnscrum.com/wales/rugby/player/7160.html'
p704
aS'http://www.espnscrum.com/wales/rugby/player/7120.html'
p705
aS'http://www.espnscrum.com/wales/rugby/player/7175.html'
p706
aS'http://www.espnscrum.com/wales/rugby/player/7176.html'
p707
aS'http://www.espnscrum.com/wales/rugby/player/7177.html'
p708
aS'http://www.espnscrum.com/wales/rugby/player/7178.html'
p709
aS'http://www.espnscrum.com/wales/rugby/player/7055.html'
p710
aS'http://www.espnscrum.com/wales/rugby/player/7179.html'
p711
aS'http://www.espnscrum.com/wales/rugby/player/7225.html'
p712
aS'http://www.espnscrum.com/wales/rugby/player/7226.html'
p713
aS'http://www.espnscrum.com/wales/rugby/player/7227.html'
p714
aS'http://www.espnscrum.com/wales/rugby/player/7228.html'
p715
aS'http://www.espnscrum.com/wales/rugby/player/7318.html'
p716
aS'http://www.espnscrum.com/wales/rugby/player/7319.html'
p717
aS'http://www.espnscrum.com/wales/rugby/player/7320.html'
p718
aS'http://www.espnscrum.com/wales/rugby/player/7321.html'
p719
aS'http://www.espnscrum.com/wales/rugby/player/7322.html'
p720
aS'http://www.espnscrum.com/wales/rugby/player/7323.html'
p721
aS'http://www.espnscrum.com/wales/rugby/player/7335.html'
p722
aS'http://www.espnscrum.com/wales/rugby/player/7337.html'
p723
aS'http://www.espnscrum.com/wales/rugby/player/7342.html'
p724
aS'http://www.espnscrum.com/wales/rugby/player/7348.html'
p725
aS'http://www.espnscrum.com/wales/rugby/player/7349.html'
p726
aS'http://www.espnscrum.com/wales/rugby/player/7054.html'
p727
aS'http://www.espnscrum.com/wales/rugby/player/6951.html'
p728
aS'http://www.espnscrum.com/wales/rugby/player/7475.html'
p729
aS'http://www.espnscrum.com/wales/rugby/player/7443.html'
p730
aS'http://www.espnscrum.com/wales/rugby/player/7435.html'
p731
aS'http://www.espnscrum.com/wales/rugby/player/7602.html'
p732
aS'http://www.espnscrum.com/wales/rugby/player/7514.html'
p733
aS'http://www.espnscrum.com/wales/rugby/player/7603.html'
p734
aS'http://www.espnscrum.com/wales/rugby/player/7438.html'
p735
aS'http://www.espnscrum.com/wales/rugby/player/7513.html'
p736
aS'http://www.espnscrum.com/wales/rugby/player/7617.html'
p737
aS'http://www.espnscrum.com/wales/rugby/player/7627.html'
p738
aS'http://www.espnscrum.com/wales/rugby/player/7628.html'
p739
aS'http://www.espnscrum.com/wales/rugby/player/7629.html'
p740
aS'http://www.espnscrum.com/wales/rugby/player/7605.html'
p741
aS'http://www.espnscrum.com/wales/rugby/player/7704.html'
p742
aS'http://www.espnscrum.com/wales/rugby/player/7718.html'
p743
aS'http://www.espnscrum.com/wales/rugby/player/7870.html'
p744
aS'http://www.espnscrum.com/wales/rugby/player/7604.html'
p745
aS'http://www.espnscrum.com/wales/rugby/player/7985.html'
p746
aS'http://www.espnscrum.com/wales/rugby/player/8037.html'
p747
aS'http://www.espnscrum.com/wales/rugby/player/8014.html'
p748
aS'http://www.espnscrum.com/wales/rugby/player/8045.html'
p749
aS'http://www.espnscrum.com/wales/rugby/player/8128.html'
p750
aS'http://www.espnscrum.com/wales/rugby/player/7988.html'
p751
aS'http://www.espnscrum.com/wales/rugby/player/7986.html'
p752
aS'http://www.espnscrum.com/wales/rugby/player/8195.html'
p753
aS'http://www.espnscrum.com/wales/rugby/player/7980.html'
p754
aS'http://www.espnscrum.com/wales/rugby/player/8201.html'
p755
aS'http://www.espnscrum.com/wales/rugby/player/8174.html'
p756
aS'http://www.espnscrum.com/wales/rugby/player/7447.html'
p757
aS'http://www.espnscrum.com/wales/rugby/player/8131.html'
p758
aS'http://www.espnscrum.com/wales/rugby/player/8168.html'
p759
aS'http://www.espnscrum.com/wales/rugby/player/8194.html'
p760
aS'http://www.espnscrum.com/wales/rugby/player/8306.html'
p761
aS'http://www.espnscrum.com/wales/rugby/player/8341.html'
p762
aS'http://www.espnscrum.com/wales/rugby/player/8307.html'
p763
aS'http://www.espnscrum.com/wales/rugby/player/8308.html'
p764
aS'http://www.espnscrum.com/wales/rugby/player/8130.html'
p765
aS'http://www.espnscrum.com/wales/rugby/player/8461.html'
p766
aS'http://www.espnscrum.com/wales/rugby/player/8654.html'
p767
aS'http://www.espnscrum.com/wales/rugby/player/8655.html'
p768
aS'http://www.espnscrum.com/wales/rugby/player/8634.html'
p769
aS'http://www.espnscrum.com/wales/rugby/player/8656.html'
p770
aS'http://www.espnscrum.com/wales/rugby/player/8670.html'
p771
aS'http://www.espnscrum.com/wales/rugby/player/8470.html'
p772
aS'http://www.espnscrum.com/wales/rugby/player/8310.html'
p773
aS'http://www.espnscrum.com/wales/rugby/player/8042.html'
p774
aS'http://www.espnscrum.com/wales/rugby/player/8850.html'
p775
aS'http://www.espnscrum.com/wales/rugby/player/8851.html'
p776
aS'http://www.espnscrum.com/wales/rugby/player/8852.html'
p777
aS'http://www.espnscrum.com/wales/rugby/player/8838.html'
p778
aS'http://www.espnscrum.com/wales/rugby/player/8899.html'
p779
aS'http://www.espnscrum.com/wales/rugby/player/8740.html'
p780
aS'http://www.espnscrum.com/wales/rugby/player/8356.html'
p781
aS'http://www.espnscrum.com/wales/rugby/player/8917.html'
p782
aS'http://www.espnscrum.com/wales/rugby/player/8669.html'
p783
aS'http://www.espnscrum.com/wales/rugby/player/8916.html'
p784
aS'http://www.espnscrum.com/wales/rugby/player/9032.html'
p785
aS'http://www.espnscrum.com/wales/rugby/player/9098.html'
p786
aS'http://www.espnscrum.com/wales/rugby/player/8897.html'
p787
aS'http://www.espnscrum.com/wales/rugby/player/9286.html'
p788
aS'http://www.espnscrum.com/wales/rugby/player/9162.html'
p789
aS'http://www.espnscrum.com/wales/rugby/player/9185.html'
p790
aS'http://www.espnscrum.com/wales/rugby/player/9300.html'
p791
aS'http://www.espnscrum.com/wales/rugby/player/9119.html'
p792
aS'http://www.espnscrum.com/wales/rugby/player/9155.html'
p793
aS'http://www.espnscrum.com/wales/rugby/player/9188.html'
p794
aS'http://www.espnscrum.com/wales/rugby/player/8900.html'
p795
aS'http://www.espnscrum.com/wales/rugby/player/9152.html'
p796
aS'http://www.espnscrum.com/wales/rugby/player/9396.html'
p797
aS'http://www.espnscrum.com/wales/rugby/player/9397.html'
p798
aS'http://www.espnscrum.com/wales/rugby/player/9410.html'
p799
aS'http://www.espnscrum.com/wales/rugby/player/9070.html'
p800
aS'http://www.espnscrum.com/wales/rugby/player/9413.html'
p801
aS'http://www.espnscrum.com/wales/rugby/player/9097.html'
p802
aS'http://www.espnscrum.com/wales/rugby/player/9558.html'
p803
aS'http://www.espnscrum.com/wales/rugby/player/9559.html'
p804
aS'http://www.espnscrum.com/wales/rugby/player/9399.html'
p805
aS'http://www.espnscrum.com/wales/rugby/player/9563.html'
p806
aS'http://www.espnscrum.com/wales/rugby/player/9157.html'
p807
aS'http://www.espnscrum.com/wales/rugby/player/9564.html'
p808
aS'http://www.espnscrum.com/wales/rugby/player/9566.html'
p809
aS'http://www.espnscrum.com/wales/rugby/player/9682.html'
p810
aS'http://www.espnscrum.com/wales/rugby/player/9683.html'
p811
aS'http://www.espnscrum.com/wales/rugby/player/9685.html'
p812
aS'http://www.espnscrum.com/wales/rugby/player/9686.html'
p813
aS'http://www.espnscrum.com/wales/rugby/player/9692.html'
p814
aS'http://www.espnscrum.com/wales/rugby/player/9693.html'
p815
aS'http://www.espnscrum.com/wales/rugby/player/9684.html'
p816
aS'http://www.espnscrum.com/wales/rugby/player/9313.html'
p817
aS'http://www.espnscrum.com/wales/rugby/player/9691.html'
p818
aS'http://www.espnscrum.com/wales/rugby/player/8661.html'
p819
aS'http://www.espnscrum.com/wales/rugby/player/9823.html'
p820
aS'http://www.espnscrum.com/wales/rugby/player/9824.html'
p821
aS'http://www.espnscrum.com/wales/rugby/player/9825.html'
p822
aS'http://www.espnscrum.com/wales/rugby/player/9694.html'
p823
aS'http://www.espnscrum.com/wales/rugby/player/9850.html'
p824
aS'http://www.espnscrum.com/wales/rugby/player/9857.html'
p825
aS'http://www.espnscrum.com/wales/rugby/player/9859.html'
p826
aS'http://www.espnscrum.com/wales/rugby/player/9560.html'
p827
aS'http://www.espnscrum.com/wales/rugby/player/9856.html'
p828
aS'http://www.espnscrum.com/wales/rugby/player/9878.html'
p829
aS'http://www.espnscrum.com/wales/rugby/player/9689.html'
p830
aS'http://www.espnscrum.com/wales/rugby/player/9988.html'
p831
aS'http://www.espnscrum.com/wales/rugby/player/9994.html'
p832
aS'http://www.espnscrum.com/wales/rugby/player/9973.html'
p833
aS'http://www.espnscrum.com/wales/rugby/player/10000.html'
p834
aS'http://www.espnscrum.com/wales/rugby/player/10063.html'
p835
aS'http://www.espnscrum.com/wales/rugby/player/10067.html'
p836
aS'http://www.espnscrum.com/wales/rugby/player/10151.html'
p837
aS'http://www.espnscrum.com/wales/rugby/player/10154.html'
p838
aS'http://www.espnscrum.com/wales/rugby/player/10149.html'
p839
aS'http://www.espnscrum.com/wales/rugby/player/10164.html'
p840
aS'http://www.espnscrum.com/wales/rugby/player/9993.html'
p841
aS'http://www.espnscrum.com/wales/rugby/player/10165.html'
p842
aS'http://www.espnscrum.com/wales/rugby/player/10147.html'
p843
aS'http://www.espnscrum.com/wales/rugby/player/10267.html'
p844
aS'http://www.espnscrum.com/wales/rugby/player/10268.html'
p845
aS'http://www.espnscrum.com/wales/rugby/player/10309.html'
p846
aS'http://www.espnscrum.com/wales/rugby/player/10311.html'
p847
aS'http://www.espnscrum.com/wales/rugby/player/10314.html'
p848
aS'http://www.espnscrum.com/wales/rugby/player/10302.html'
p849
aS'http://www.espnscrum.com/wales/rugby/player/10345.html'
p850
aS'http://www.espnscrum.com/wales/rugby/player/10316.html'
p851
aS'http://www.espnscrum.com/wales/rugby/player/10380.html'
p852
aS'http://www.espnscrum.com/wales/rugby/player/10381.html'
p853
aS'http://www.espnscrum.com/wales/rugby/player/10344.html'
p854
aS'http://www.espnscrum.com/wales/rugby/player/10399.html'
p855
aS'http://www.espnscrum.com/wales/rugby/player/10152.html'
p856
aS'http://www.espnscrum.com/wales/rugby/player/10402.html'
p857
aS'http://www.espnscrum.com/wales/rugby/player/10405.html'
p858
aS'http://www.espnscrum.com/wales/rugby/player/10404.html'
p859
aS'http://www.espnscrum.com/wales/rugby/player/10500.html'
p860
aS'http://www.espnscrum.com/wales/rugby/player/10504.html'
p861
aS'http://www.espnscrum.com/wales/rugby/player/10505.html'
p862
aS'http://www.espnscrum.com/wales/rugby/player/10507.html'
p863
aS'http://www.espnscrum.com/wales/rugby/player/10509.html'
p864
aS'http://www.espnscrum.com/wales/rugby/player/10522.html'
p865
aS'http://www.espnscrum.com/wales/rugby/player/10508.html'
p866
aS'http://www.espnscrum.com/wales/rugby/player/9999.html'
p867
aS'http://www.espnscrum.com/wales/rugby/player/10531.html'
p868
aS'http://www.espnscrum.com/wales/rugby/player/10440.html'
p869
aS'http://www.espnscrum.com/wales/rugby/player/10533.html'
p870
aS'http://www.espnscrum.com/wales/rugby/player/10672.html'
p871
aS'http://www.espnscrum.com/wales/rugby/player/10312.html'
p872
aS'http://www.espnscrum.com/wales/rugby/player/10691.html'
p873
aS'http://www.espnscrum.com/wales/rugby/player/10706.html'
p874
aS'http://www.espnscrum.com/wales/rugby/player/10697.html'
p875
aS'http://www.espnscrum.com/wales/rugby/player/10712.html'
p876
aS'http://www.espnscrum.com/wales/rugby/player/10700.html'
p877
aS'http://www.espnscrum.com/wales/rugby/player/10725.html'
p878
aS'http://www.espnscrum.com/wales/rugby/player/10828.html'
p879
aS'http://www.espnscrum.com/wales/rugby/player/10707.html'
p880
aS'http://www.espnscrum.com/wales/rugby/player/10837.html'
p881
aS'http://www.espnscrum.com/wales/rugby/player/10838.html'
p882
aS'http://www.espnscrum.com/wales/rugby/player/10844.html'
p883
aS'http://www.espnscrum.com/wales/rugby/player/10843.html'
p884
aS'http://www.espnscrum.com/wales/rugby/player/10851.html'
p885
aS'http://www.espnscrum.com/wales/rugby/player/10850.html'
p886
aS'http://www.espnscrum.com/wales/rugby/player/10899.html'
p887
aS'http://www.espnscrum.com/wales/rugby/player/10947.html'
p888
aS'http://www.espnscrum.com/wales/rugby/player/10948.html'
p889
aS'http://www.espnscrum.com/wales/rugby/player/10949.html'
p890
aS'http://www.espnscrum.com/wales/rugby/player/10951.html'
p891
aS'http://www.espnscrum.com/wales/rugby/player/10967.html'
p892
aS'http://www.espnscrum.com/wales/rugby/player/10953.html'
p893
aS'http://www.espnscrum.com/wales/rugby/player/11041.html'
p894
aS'http://www.espnscrum.com/wales/rugby/player/10694.html'
p895
aS'http://www.espnscrum.com/wales/rugby/player/11049.html'
p896
aS'http://www.espnscrum.com/wales/rugby/player/10958.html'
p897
aS'http://www.espnscrum.com/wales/rugby/player/10678.html'
p898
aS'http://www.espnscrum.com/wales/rugby/player/11120.html'
p899
aS'http://www.espnscrum.com/wales/rugby/player/11121.html'
p900
aS'http://www.espnscrum.com/wales/rugby/player/11134.html'
p901
aS'http://www.espnscrum.com/wales/rugby/player/11152.html'
p902
aS'http://www.espnscrum.com/wales/rugby/player/11374.html'
p903
aS'http://www.espnscrum.com/wales/rugby/player/11391.html'
p904
aS'http://www.espnscrum.com/wales/rugby/player/11373.html'
p905
aS'http://www.espnscrum.com/wales/rugby/player/11402.html'
p906
aS'http://www.espnscrum.com/wales/rugby/player/11396.html'
p907
aS'http://www.espnscrum.com/wales/rugby/player/11130.html'
p908
aS'http://www.espnscrum.com/wales/rugby/player/11463.html'
p909
aS'http://www.espnscrum.com/wales/rugby/player/11464.html'
p910
aS'http://www.espnscrum.com/wales/rugby/player/11460.html'
p911
aS'http://www.espnscrum.com/wales/rugby/player/11663.html'
p912
aS'http://www.espnscrum.com/wales/rugby/player/11664.html'
p913
aS'http://www.espnscrum.com/wales/rugby/player/11398.html'
p914
aS'http://www.espnscrum.com/wales/rugby/player/11389.html'
p915
aS'http://www.espnscrum.com/wales/rugby/player/11808.html'
p916
aS'http://www.espnscrum.com/wales/rugby/player/11846.html'
p917
aS'http://www.espnscrum.com/wales/rugby/player/11811.html'
p918
aS'http://www.espnscrum.com/wales/rugby/player/11859.html'
p919
aS'http://www.espnscrum.com/wales/rugby/player/11919.html'
p920
aS'http://www.espnscrum.com/wales/rugby/player/11918.html'
p921
aS'http://www.espnscrum.com/wales/rugby/player/11952.html'
p922
aS'http://www.espnscrum.com/wales/rugby/player/11970.html'
p923
aS'http://www.espnscrum.com/wales/rugby/player/12032.html'
p924
aS'http://www.espnscrum.com/wales/rugby/player/12033.html'
p925
aS'http://www.espnscrum.com/wales/rugby/player/11132.html'
p926
aS'http://www.espnscrum.com/wales/rugby/player/12038.html'
p927
aS'http://www.espnscrum.com/wales/rugby/player/12031.html'
p928
aS'http://www.espnscrum.com/wales/rugby/player/12039.html'
p929
aS'http://www.espnscrum.com/wales/rugby/player/12071.html'
p930
aS'http://www.espnscrum.com/wales/rugby/player/12073.html'
p931
aS'http://www.espnscrum.com/wales/rugby/player/11955.html'
p932
aS'http://www.espnscrum.com/wales/rugby/player/12074.html'
p933
aS'http://www.espnscrum.com/wales/rugby/player/11399.html'
p934
aS'http://www.espnscrum.com/wales/rugby/player/12122.html'
p935
aS'http://www.espnscrum.com/wales/rugby/player/12152.html'
p936
aS'http://www.espnscrum.com/wales/rugby/player/12154.html'
p937
aS'http://www.espnscrum.com/wales/rugby/player/12155.html'
p938
aS'http://www.espnscrum.com/wales/rugby/player/12156.html'
p939
aS'http://www.espnscrum.com/wales/rugby/player/12158.html'
p940
aS'http://www.espnscrum.com/wales/rugby/player/11392.html'
p941
aS'http://www.espnscrum.com/wales/rugby/player/12268.html'
p942
aS'http://www.espnscrum.com/wales/rugby/player/12274.html'
p943
aS'http://www.espnscrum.com/wales/rugby/player/12316.html'
p944
aS'http://www.espnscrum.com/wales/rugby/player/12317.html'
p945
aS'http://www.espnscrum.com/wales/rugby/player/11695.html'
p946
aS'http://www.espnscrum.com/wales/rugby/player/12344.html'
p947
aS'http://www.espnscrum.com/wales/rugby/player/11688.html'
p948
aS'http://www.espnscrum.com/wales/rugby/player/12418.html'
p949
aS'http://www.espnscrum.com/wales/rugby/player/12419.html'
p950
aS'http://www.espnscrum.com/wales/rugby/player/12612.html'
p951
aS'http://www.espnscrum.com/wales/rugby/player/12607.html'
p952
aS'http://www.espnscrum.com/wales/rugby/player/12616.html'
p953
aS'http://www.espnscrum.com/wales/rugby/player/12617.html'
p954
aS'http://www.espnscrum.com/wales/rugby/player/12610.html'
p955
aS'http://www.espnscrum.com/wales/rugby/player/12719.html'
p956
aS'http://www.espnscrum.com/wales/rugby/player/12750.html'
p957
aS'http://www.espnscrum.com/wales/rugby/player/12870.html'
p958
aS'http://www.espnscrum.com/wales/rugby/player/12879.html'
p959
aS'http://www.espnscrum.com/wales/rugby/player/12883.html'
p960
aS'http://www.espnscrum.com/wales/rugby/player/12865.html'
p961
aS'http://www.espnscrum.com/wales/rugby/player/12754.html'
p962
aS'http://www.espnscrum.com/wales/rugby/player/12886.html'
p963
aS'http://www.espnscrum.com/wales/rugby/player/12921.html'
p964
aS'http://www.espnscrum.com/wales/rugby/player/12923.html'
p965
aS'http://www.espnscrum.com/wales/rugby/player/12924.html'
p966
aS'http://www.espnscrum.com/wales/rugby/player/12925.html'
p967
aS'http://www.espnscrum.com/wales/rugby/player/12926.html'
p968
aS'http://www.espnscrum.com/wales/rugby/player/12930.html'
p969
aS'http://www.espnscrum.com/wales/rugby/player/11338.html'
p970
aS'http://www.espnscrum.com/wales/rugby/player/13034.html'
p971
aS'http://www.espnscrum.com/wales/rugby/player/13092.html'
p972
aS'http://www.espnscrum.com/wales/rugby/player/13103.html'
p973
aS'http://www.espnscrum.com/wales/rugby/player/13104.html'
p974
aS'http://www.espnscrum.com/wales/rugby/player/13111.html'
p975
aS'http://www.espnscrum.com/wales/rugby/player/13248.html'
p976
aS'http://www.espnscrum.com/wales/rugby/player/13282.html'
p977
aS'http://www.espnscrum.com/wales/rugby/player/13285.html'
p978
aS'http://www.espnscrum.com/wales/rugby/player/13329.html'
p979
aS'http://www.espnscrum.com/wales/rugby/player/13316.html'
p980
aS'http://www.espnscrum.com/wales/rugby/player/13340.html'
p981
aS'http://www.espnscrum.com/wales/rugby/player/13515.html'
p982
aS'http://www.espnscrum.com/wales/rugby/player/13530.html'
p983
aS'http://www.espnscrum.com/wales/rugby/player/13513.html'
p984
aS'http://www.espnscrum.com/wales/rugby/player/13568.html'
p985
aS'http://www.espnscrum.com/wales/rugby/player/13589.html'
p986
aS'http://www.espnscrum.com/wales/rugby/player/13660.html'
p987
aS'http://www.espnscrum.com/wales/rugby/player/13663.html'
p988
aS'http://www.espnscrum.com/wales/rugby/player/13667.html'
p989
aS'http://www.espnscrum.com/wales/rugby/player/13661.html'
p990
aS'http://www.espnscrum.com/wales/rugby/player/13662.html'
p991
aS'http://www.espnscrum.com/wales/rugby/player/13665.html'
p992
aS'http://www.espnscrum.com/wales/rugby/player/13666.html'
p993
aS'http://www.espnscrum.com/wales/rugby/player/13691.html'
p994
aS'http://www.espnscrum.com/wales/rugby/player/13664.html'
p995
aS'http://www.espnscrum.com/wales/rugby/player/13752.html'
p996
aS'http://www.espnscrum.com/wales/rugby/player/13767.html'
p997
aS'http://www.espnscrum.com/wales/rugby/player/13831.html'
p998
aS'http://www.espnscrum.com/wales/rugby/player/13854.html'
p999
aS'http://www.espnscrum.com/wales/rugby/player/13833.html'
p1000
aS'http://www.espnscrum.com/wales/rugby/player/13951.html'
p1001
aS'http://www.espnscrum.com/wales/rugby/player/13817.html'
p1002
aS'http://www.espnscrum.com/wales/rugby/player/13953.html'
p1003
aS'http://www.espnscrum.com/wales/rugby/player/13954.html'
p1004
aS'http://www.espnscrum.com/wales/rugby/player/13957.html'
p1005
aS'http://www.espnscrum.com/wales/rugby/player/13810.html'
p1006
aS'http://www.espnscrum.com/wales/rugby/player/13814.html'
p1007
aS'http://www.espnscrum.com/wales/rugby/player/14069.html'
p1008
aS'http://www.espnscrum.com/wales/rugby/player/14079.html'
p1009
aS'http://www.espnscrum.com/wales/rugby/player/14097.html'
p1010
aS'http://www.espnscrum.com/wales/rugby/player/14125.html'
p1011
aS'http://www.espnscrum.com/wales/rugby/player/13826.html'
p1012
aS'http://www.espnscrum.com/wales/rugby/player/13829.html'
p1013
aS'http://www.espnscrum.com/wales/rugby/player/14240.html'
p1014
aS'http://www.espnscrum.com/wales/rugby/player/13332.html'
p1015
aS'http://www.espnscrum.com/wales/rugby/player/14296.html'
p1016
aS'http://www.espnscrum.com/wales/rugby/player/13820.html'
p1017
aS'http://www.espnscrum.com/wales/rugby/player/14294.html'
p1018
aS'http://www.espnscrum.com/wales/rugby/player/14309.html'
p1019
aS'http://www.espnscrum.com/wales/rugby/player/14295.html'
p1020
aS'http://www.espnscrum.com/wales/rugby/player/14320.html'
p1021
aS'http://www.espnscrum.com/wales/rugby/player/14321.html'
p1022
aS'http://www.espnscrum.com/wales/rugby/player/14312.html'
p1023
aS'http://www.espnscrum.com/wales/rugby/player/14318.html'
p1024
aS'http://www.espnscrum.com/wales/rugby/player/14319.html'
p1025
aS'http://www.espnscrum.com/wales/rugby/player/13828.html'
p1026
aS'http://www.espnscrum.com/wales/rugby/player/14323.html'
p1027
aS'http://www.espnscrum.com/wales/rugby/player/14326.html'
p1028
aS'http://www.espnscrum.com/wales/rugby/player/14531.html'
p1029
aS'http://www.espnscrum.com/wales/rugby/player/14631.html'
p1030
aS'http://www.espnscrum.com/wales/rugby/player/14624.html'
p1031
aS'http://www.espnscrum.com/wales/rugby/player/14701.html'
p1032
aS'http://www.espnscrum.com/wales/rugby/player/14297.html'
p1033
aS'http://www.espnscrum.com/wales/rugby/player/14861.html'
p1034
aS'http://www.espnscrum.com/wales/rugby/player/14856.html'
p1035
aS'http://www.espnscrum.com/wales/rugby/player/14860.html'
p1036
aS'http://www.espnscrum.com/wales/rugby/player/14862.html'
p1037
aS'http://www.espnscrum.com/wales/rugby/player/14863.html'
p1038
aS'http://www.espnscrum.com/wales/rugby/player/14878.html'
p1039
aS'http://www.espnscrum.com/wales/rugby/player/14884.html'
p1040
aS'http://www.espnscrum.com/wales/rugby/player/15023.html'
p1041
aS'http://www.espnscrum.com/wales/rugby/player/15027.html'
p1042
aS'http://www.espnscrum.com/wales/rugby/player/15104.html'
p1043
aS'http://www.espnscrum.com/wales/rugby/player/15111.html'
p1044
aS'http://www.espnscrum.com/wales/rugby/player/14555.html'
p1045
aS'http://www.espnscrum.com/wales/rugby/player/15076.html'
p1046
aS'http://www.espnscrum.com/wales/rugby/player/15288.html'
p1047
aS'http://www.espnscrum.com/wales/rugby/player/15286.html'
p1048
aS'http://www.espnscrum.com/wales/rugby/player/15287.html'
p1049
aS'http://www.espnscrum.com/wales/rugby/player/15294.html'
p1050
aS'http://www.espnscrum.com/wales/rugby/player/15413.html'
p1051
aS'http://www.espnscrum.com/wales/rugby/player/15446.html'
p1052
aS'http://www.espnscrum.com/wales/rugby/player/15618.html'
p1053
aS'http://www.espnscrum.com/wales/rugby/player/15620.html'
p1054
aS'http://www.espnscrum.com/wales/rugby/player/15732.html'
p1055
aS'http://www.espnscrum.com/wales/rugby/player/15731.html'
p1056
aS'http://www.espnscrum.com/wales/rugby/player/15778.html'
p1057
aS'http://www.espnscrum.com/wales/rugby/player/15822.html'
p1058
aS'http://www.espnscrum.com/wales/rugby/player/15902.html'
p1059
aS'http://www.espnscrum.com/wales/rugby/player/16014.html'
p1060
aS'http://www.espnscrum.com/wales/rugby/player/27644.html'
p1061
aS'http://www.espnscrum.com/wales/rugby/player/27643.html'
p1062
aS'http://www.espnscrum.com/wales/rugby/player/27633.html'
p1063
aS'http://www.espnscrum.com/wales/rugby/player/27691.html'
p1064
aS'http://www.espnscrum.com/wales/rugby/player/27767.html'
p1065
aS'http://www.espnscrum.com/wales/rugby/player/27646.html'
p1066
aS'http://www.espnscrum.com/wales/rugby/player/27626.html'
p1067
aS'http://www.espnscrum.com/wales/rugby/player/93045.html'
p1068
aS'http://www.espnscrum.com/wales/rugby/player/84538.html'
p1069
aS'http://www.espnscrum.com/wales/rugby/player/92220.html'
p1070
aS'http://www.espnscrum.com/wales/rugby/player/94300.html'
p1071
aS'http://www.espnscrum.com/wales/rugby/player/27713.html'
p1072
aS'http://www.espnscrum.com/wales/rugby/player/79290.html'
p1073
aS'http://www.espnscrum.com/wales/rugby/player/88821.html'
p1074
aS'http://www.espnscrum.com/wales/rugby/player/107156.html'
p1075
aS'http://www.espnscrum.com/wales/rugby/player/87271.html'
p1076
aS'http://www.espnscrum.com/wales/rugby/player/103053.html'
p1077
aS'http://www.espnscrum.com/wales/rugby/player/103555.html'
p1078
aS'http://www.espnscrum.com/wales/rugby/player/122371.html'
p1079
aS'http://www.espnscrum.com/wales/rugby/player/82089.html'
p1080
aS'http://www.espnscrum.com/wales/rugby/player/78599.html'
p1081
aS'http://www.espnscrum.com/wales/rugby/player/87285.html'
p1082
aS'http://www.espnscrum.com/wales/rugby/player/104729.html'
p1083
aS'http://www.espnscrum.com/wales/rugby/player/95749.html'
p1084
aS'http://www.espnscrum.com/wales/rugby/player/81941.html'
p1085
aS'http://www.espnscrum.com/wales/rugby/player/105006.html'
p1086
aS'http://www.espnscrum.com/wales/rugby/player/104964.html'
p1087
aS'http://www.espnscrum.com/wales/rugby/player/112291.html'
p1088
aS'http://www.espnscrum.com/wales/rugby/player/27632.html'
p1089
aS'http://www.espnscrum.com/wales/rugby/player/148751.html'
p1090
aS'http://www.espnscrum.com/wales/rugby/player/95540.html'
p1091
aS'http://www.espnscrum.com/wales/rugby/player/27631.html'
p1092
aS'http://www.espnscrum.com/wales/rugby/player/27687.html'
p1093
aS'http://www.espnscrum.com/wales/rugby/player/117378.html'
p1094
aS'http://www.espnscrum.com/wales/rugby/player/133293.html'
p1095
aS'http://www.espnscrum.com/wales/rugby/player/136556.html'
p1096
aS'http://www.espnscrum.com/wales/rugby/player/135376.html'
p1097
aS'http://www.espnscrum.com/wales/rugby/player/87287.html'
p1098
aS'http://www.espnscrum.com/wales/rugby/player/27280.html'
p1099
aS'http://www.espnscrum.com/wales/rugby/player/112795.html'
p1100
aS'http://www.espnscrum.com/wales/rugby/player/27799.html'
p1101
aS'http://www.espnscrum.com/wales/rugby/player/176116.html'
p1102
aS'http://www.espnscrum.com/wales/rugby/player/104685.html'
p1103
aS'http://www.espnscrum.com/wales/rugby/player/96700.html'
p1104
aS'http://www.espnscrum.com/wales/rugby/player/125885.html'
p1105
aS'http://www.espnscrum.com/wales/rugby/player/159930.html'
p1106
aS'http://www.espnscrum.com/wales/rugby/player/149226.html'
p1107
aS'http://www.espnscrum.com/wales/rugby/player/106882.html'
p1108
aS'http://www.espnscrum.com/wales/rugby/player/104727.html'
p1109
aS'http://www.espnscrum.com/wales/rugby/player/93060.html'
p1110
aS'http://www.espnscrum.com/wales/rugby/player/152276.html'
p1111
aS'http://www.espnscrum.com/wales/rugby/player/159928.html'
p1112
aS'http://www.espnscrum.com/wales/rugby/player/152825.html'
p1113
aS'http://www.espnscrum.com/wales/rugby/player/147695.html'
p1114
aS'http://www.espnscrum.com/wales/rugby/player/169811.html'
p1115
aS'http://www.espnscrum.com/wales/rugby/player/175533.html'
p1116
aS'http://www.espnscrum.com/wales/rugby/player/128537.html'
p1117
aS'http://www.espnscrum.com/wales/rugby/player/172276.html'
p1118
aS'http://www.espnscrum.com/wales/rugby/player/135377.html'
p1119
aS'http://www.espnscrum.com/wales/rugby/player/27629.html'
p1120
aS'http://www.espnscrum.com/wales/rugby/player/205139.html'
p1121
aS'http://www.espnscrum.com/wales/rugby/player/172278.html'
p1122
aS'http://www.espnscrum.com/wales/rugby/player/123850.html'
p1123
aS'http://www.espnscrum.com/wales/rugby/player/122375.html'
p1124
aS'http://www.espnscrum.com/wales/rugby/player/123702.html'
p1125
aS'http://www.espnscrum.com/wales/rugby/player/239727.html'
p1126
aS'http://www.espnscrum.com/wales/rugby/player/152278.html'
p1127
aS'http://www.espnscrum.com/wales/rugby/player/158308.html'
p1128
aS'http://www.espnscrum.com/wales/rugby/player/159302.html'
p1129
a.