(lp1
Vdate unknown
p2
aVdate unknown
p3
aVdate unknown
p4
aVdate unknown
p5
aVdate unknown
p6
aVdate unknown
p7
aVdate unknown
p8
aVdate unknown
p9
aVdate unknown
p10
aVdate unknown
p11
aVdate unknown
p12
aVdate unknown
p13
aVdate unknown
p14
aVdate unknown
p15
aVdate unknown
p16
aVdate unknown
p17
aVdate unknown
p18
aVdate unknown
p19
aVdate unknown
p20
aVdate unknown
p21
aVdate unknown
p22
aVdate unknown
p23
aVdate unknown
p24
aVdate unknown
p25
aVdate unknown
p26
aVdate unknown
p27
aVdate unknown
p28
aVdate unknown
p29
aVdate unknown
p30
aVdate unknown
p31
aVdate unknown
p32
aVdate unknown
p33
aVdate unknown
p34
aVdate unknown
p35
aVdate unknown
p36
aVdate unknown
p37
aVdate unknown
p38
aVdate unknown
p39
aVdate unknown
p40
aVdate unknown
p41
aVdate unknown
p42
aVdate unknown
p43
aVdate unknown
p44
aVdate unknown
p45
aVdate unknown
p46
aVdate unknown
p47
aVdate unknown
p48
aVdate unknown
p49
aVdate unknown
p50
aVdate unknown
p51
aVdate unknown
p52
aVdate unknown
p53
aVdate unknown
p54
aVdate unknown
p55
aVdate unknown
p56
aVdate unknown
p57
aVcirca 1915
p58
aVdate unknown
p59
aVdate unknown
p60
aVdate unknown
p61
aVdate unknown
p62
aVdate unknown
p63
aVdate unknown
p64
aVdate unknown
p65
aVdate unknown
p66
aVdate unknown
p67
aVdate unknown
p68
aVdate unknown
p69
aVdate unknown
p70
aVdate unknown
p71
aVdate unknown
p72
aVdate unknown
p73
aVdate unknown
p74
aVdate unknown
p75
aVdate unknown
p76
aVdate unknown
p77
aVdate unknown
p78
aVNovember 6, 1912, Bau
p79
aVdate unknown
p80
aVdate unknown
p81
aVdate unknown
p82
aVdate unknown
p83
aVdate unknown
p84
aVdate unknown
p85
aVdate unknown
p86
aVdate unknown
p87
aVdate unknown
p88
aVdate unknown
p89
aVcirca 1910
p90
aVdate unknown
p91
aVdate unknown
p92
aVdate unknown
p93
aVdate unknown
p94
aVdate unknown
p95
aVdate unknown
p96
aVdate unknown
p97
aVdate unknown
p98
aVdate unknown
p99
aVdate unknown
p100
aVdate unknown
p101
aVdate unknown
p102
aVdate unknown
p103
aVdate unknown
p104
aVdate unknown
p105
aVdate unknown
p106
aVdate unknown
p107
aVdate unknown
p108
aVdate unknown
p109
aVdate unknown
p110
aVdate unknown
p111
aVdate unknown
p112
aVdate unknown
p113
aVdate unknown
p114
aVdate unknown
p115
aVdate unknown
p116
aVdate unknown
p117
aVdate unknown
p118
aVdate unknown
p119
aVdate unknown
p120
aVdate unknown
p121
aVdate unknown
p122
aVdate unknown
p123
aVdate unknown
p124
aVDecember 25, 1968
p125
aVdate unknown
p126
aVdate unknown
p127
aVdate unknown
p128
aVdate unknown
p129
aVdate unknown
p130
aVdate unknown
p131
aVdate unknown
p132
aVcirca 1932, Malomalo
p133
aVdate unknown
p134
aVdate unknown
p135
aVdate unknown
p136
aVdate unknown
p137
aVdate unknown
p138
aVdate unknown
p139
aVdate unknown
p140
aVdate unknown
p141
aVdate unknown
p142
aVdate unknown
p143
aVdate unknown
p144
aVdate unknown
p145
aVMay 19, 1932, Natauloa
p146
aVdate unknown
p147
aVcirca 1932
p148
aVdate unknown
p149
aVdate unknown
p150
aVdate unknown
p151
aVcirca 1936
p152
aVdate unknown
p153
aVdate unknown
p154
aVdate unknown
p155
aVdate unknown
p156
aVdate unknown
p157
aVdate unknown
p158
aVdate unknown
p159
aVdate unknown
p160
aVcirca 1938
p161
aVdate unknown
p162
aVApril 20, 1939, Kumi
p163
aVdate unknown
p164
aVdate unknown
p165
aVdate unknown
p166
aVdate unknown
p167
aVdate unknown
p168
aVdate unknown
p169
aVdate unknown
p170
aVdate unknown
p171
aVdate unknown
p172
aVdate unknown
p173
aVdate unknown
p174
aVdate unknown
p175
aVdate unknown
p176
aVdate unknown
p177
aVdate unknown
p178
aVFebruary 20, 1933, Savu
p179
aVdate unknown
p180
aVdate unknown
p181
aVdate unknown
p182
aVdate unknown
p183
aVdate unknown
p184
aVdate unknown
p185
aVdate unknown
p186
aVdate unknown
p187
aVdate unknown
p188
aVdate unknown
p189
aVdate unknown
p190
aVdate unknown
p191
aVdate unknown
p192
aVdate unknown
p193
aVdate unknown
p194
aVdate unknown
p195
aVcirca 1944
p196
aVdate unknown
p197
aVcirca 1945
p198
aVdate unknown
p199
aVdate unknown
p200
aVdate unknown
p201
aVdate unknown, Naitasiri
p202
aVdate unknown
p203
aVdate unknown
p204
aVdate unknown
p205
aVdate unknown
p206
aVdate unknown
p207
aVdate unknown
p208
aVdate unknown
p209
aVdate unknown
p210
aVdate unknown
p211
aVdate unknown
p212
aVdate unknown
p213
aVdate unknown
p214
aVdate unknown
p215
aVdate unknown
p216
aVdate unknown
p217
aVdate unknown
p218
aVdate unknown
p219
aVdate unknown
p220
aVdate unknown
p221
aVcirca 1950, Nayawa
p222
aVdate unknown
p223
aVdate unknown
p224
aVdate unknown
p225
aVdate unknown
p226
aVdate unknown
p227
aVdate unknown
p228
aVcirca 1951
p229
aVdate unknown
p230
aVdate unknown
p231
aVdate unknown
p232
aVdate unknown
p233
aVdate unknown
p234
aVcirca 1948
p235
aVcirca 1953
p236
aVdate unknown
p237
aVdate unknown
p238
aVdate unknown
p239
aVdate unknown
p240
aVdate unknown
p241
aVcirca 1946
p242
aVAugust 7, 1950, Vitawa, Rakiraki
p243
aVdate unknown
p244
aVdate unknown
p245
aVdate unknown
p246
aVdate unknown
p247
aVdate unknown
p248
aVdate unknown
p249
aVdate unknown
p250
aVdate unknown
p251
aVMarch 27, 1944, Toki
p252
aVdate unknown
p253
aVcirca 1946
p254
aVdate unknown
p255
aVdate unknown
p256
aVdate unknown
p257
aVdate unknown
p258
aVdate unknown
p259
aVdate unknown
p260
aVdate unknown
p261
aVdate unknown
p262
aVdate unknown
p263
aVdate unknown
p264
aVdate unknown
p265
aVdate unknown
p266
aVdate unknown
p267
aVdate unknown
p268
aVdate unknown
p269
aVdate unknown
p270
aVdate unknown
p271
aVdate unknown
p272
aVdate unknown
p273
aVdate unknown
p274
aVdate unknown
p275
aVdate unknown
p276
aVdate unknown
p277
aVdate unknown
p278
aVdate unknown
p279
aVdate unknown
p280
aVdate unknown
p281
aVdate unknown
p282
aVdate unknown
p283
aVdate unknown
p284
aVdate unknown
p285
aVdate unknown
p286
aVdate unknown
p287
aVdate unknown
p288
aVdate unknown
p289
aVdate unknown
p290
aVdate unknown
p291
aVdate unknown
p292
aVdate unknown
p293
aVdate unknown
p294
aVdate unknown
p295
aVdate unknown
p296
aVdate unknown
p297
aVdate unknown
p298
aVcirca 1955
p299
aVdate unknown
p300
aVdate unknown
p301
aVdate unknown
p302
aVdate unknown
p303
aVdate unknown
p304
aVcirca 1956
p305
aVdate unknown
p306
aVdate unknown
p307
aVdate unknown
p308
aVdate unknown
p309
aVdate unknown
p310
aVdate unknown
p311
aVdate unknown
p312
aVdate unknown
p313
aVdate unknown
p314
aVdate unknown
p315
aVdate unknown
p316
aVdate unknown
p317
aVdate unknown
p318
aVdate unknown
p319
aVdate unknown
p320
aVJuly 22, 1958
p321
aVdate unknown
p322
aVdate unknown
p323
aVdate unknown
p324
aVOctober 21, 1954, Suva
p325
aVdate unknown
p326
aVcirca 1957
p327
aVDecember 22, 1960, Galoa
p328
aVdate unknown
p329
aVdate unknown
p330
aVdate unknown
p331
aVcirca 1962
p332
aVcirca 1956
p333
aVdate unknown
p334
aVdate unknown
p335
aVJanuary 31, 1961, Wainibokasi
p336
aVdate unknown
p337
aVcirca 1961
p338
aVcirca 1961
p339
aVdate unknown
p340
aVdate unknown
p341
aVdate unknown
p342
aVJuly 12, 1960, Nakalawaca
p343
aVdate unknown
p344
aVdate unknown
p345
aVdate unknown
p346
aVcirca 1957
p347
aVdate unknown
p348
aVdate unknown
p349
aVdate unknown
p350
aVdate unknown
p351
aVdate unknown
p352
aVdate unknown
p353
aVdate unknown
p354
aVdate unknown
p355
aVdate unknown
p356
aVcirca 1961
p357
aVdate unknown
p358
aVcirca 1963
p359
aVdate unknown
p360
aVAugust 10, 1962
p361
aVJune 6, 1963
p362
aVcirca 1961
p363
aVApril 30, 1964
p364
aVSeptember 29, 1961
p365
aVcirca 1965
p366
aVSeptember 21, 1962, Sigatoka
p367
aVMarch 3, 1963
p368
aVcirca 1959
p369
aVdate unknown
p370
aVMay 10, 1958, Taveuni
p371
aVFebruary 14, 1961
p372
aVJuly 15, 1965
p373
aVdate unknown
p374
aVdate unknown
p375
aVcirca 1965
p376
aVcirca 1965
p377
aVdate unknown
p378
aVdate unknown
p379
aVcirca 1965
p380
aVcirca 1960
p381
aVcirca 1957
p382
aVdate unknown
p383
aVcirca 1959
p384
aVSeptember 17, 1964, Nailaga
p385
aVJuly 13, 1964
p386
aVdate unknown
p387
aVdate unknown
p388
aVdate unknown
p389
aVSeptember 19, 1967
p390
aVdate unknown
p391
aVNovember 27, 1959
p392
aVJuly 19, 1967
p393
aVdate unknown
p394
aVdate unknown
p395
aVApril 18, 1965
p396
aVdate unknown
p397
aVdate unknown
p398
aVdate unknown
p399
aVdate unknown
p400
aVJanuary 21, 1969
p401
aVNovember 29, 1963
p402
aVJune 1, 1965
p403
aVdate unknown
p404
aVdate unknown
p405
aVdate unknown
p406
aVMay 20, 1968, Suva
p407
aVNovember 17, 1960
p408
aVdate unknown
p409
aVdate unknown
p410
aVdate unknown
p411
aVdate unknown
p412
aVSeptember 30, 1964, Naivicula
p413
aVOctober 25, 1964
p414
aVdate unknown
p415
aVMay 22, 1962
p416
aVMarch 11, 1970
p417
aVAugust 28, 1965
p418
aVApril 17, 1964
p419
aVDecember 25, 1968
p420
aVdate unknown
p421
aVdate unknown
p422
aVJune 8, 1967
p423
aVdate unknown
p424
aVFebruary 14, 1969
p425
aVDecember 5, 1965
p426
aVApril 21, 1965
p427
aVdate unknown
p428
aVNovember 14, 1966
p429
aVNovember 3, 1964
p430
aVJune 28, 1962
p431
aVJune 6, 1960
p432
aVDecember 29, 1969
p433
aVApril 19, 1969, Nadi
p434
aVApril 29, 1969, Vunavutu
p435
aVdate unknown
p436
aVdate unknown
p437
aVMarch 1, 1969
p438
aVdate unknown
p439
aVdate unknown
p440
aVdate unknown
p441
aVdate unknown
p442
aVdate unknown
p443
aVdate unknown
p444
aVdate unknown
p445
aVJuly 6, 1967
p446
aVJuly 1, 1967
p447
aVdate unknown
p448
aVdate unknown
p449
aVdate unknown
p450
aVSeptember 3, 1970
p451
aVdate unknown
p452
aVdate unknown
p453
aVJuly 29, 1971
p454
aVdate unknown
p455
aVdate unknown
p456
aVdate unknown
p457
aVdate unknown
p458
aVJuly 29, 1969, Lautoka
p459
aVdate unknown
p460
aVdate unknown
p461
aVdate unknown
p462
aVJanuary 23, 1973, Nausori Highland
p463
aVdate unknown
p464
aVJanuary 6, 1974, Nadi
p465
aVOctober 30, 1973
p466
aVdate unknown
p467
aVOctober 2, 1969
p468
aVdate unknown
p469
aVJanuary 12, 1967, Matuku
p470
aVdate unknown
p471
aVSeptember 28, 1971
p472
a.