(lp1
VSamoa v Fiji at Apia, Aug 18, 1924
p2
aVSamoa v Fiji at Apia, Aug 18, 1924
p3
aVSamoa v Fiji at Apia, Aug 18, 1924
p4
aVSamoa v Fiji at Apia, Aug 18, 1924
p5
aVSamoa v Fiji at Apia, Aug 18, 1924
p6
aVSamoa v Fiji at Apia, Aug 18, 1924
p7
aVSamoa v Fiji at Apia, Aug 18, 1924
p8
aVSamoa v Fiji at Apia, Aug 18, 1924
p9
aVSamoa v Fiji at Apia, Aug 18, 1924
p10
aVSamoa v Fiji at Apia, Aug 18, 1924
p11
aVSamoa v Fiji at Apia, Aug 18, 1924
p12
aVSamoa v Fiji at Apia, Aug 18, 1924
p13
aVSamoa v Fiji at Apia, Aug 18, 1924
p14
aVSamoa v Fiji at Apia, Aug 18, 1924
p15
aVSamoa v Fiji at Apia, Aug 18, 1924
p16
aVSamoa v Fiji at Apia, Aug 18, 1924
p17
aVSamoa v Fiji at Apia, Aug 18, 1924
p18
aVSamoa v Fiji at Apia, Aug 18, 1924
p19
aVSamoa v Fiji at Apia, Aug 18, 1924
p20
aVSamoa v Fiji at Apia, Aug 18, 1924
p21
aVFiji v Tonga at Suva, Aug 14, 1926
p22
aVFiji v Tonga at Suva, Aug 14, 1926
p23
aVFiji v Tonga at Suva, Aug 14, 1926
p24
aVFiji v Tonga at Suva, Aug 14, 1926
p25
aVFiji v Tonga at Suva, Aug 14, 1926
p26
aVFiji v Tonga at Suva, Aug 14, 1926
p27
aVFiji v Tonga at Suva, Aug 14, 1926
p28
aVFiji v Tonga at Suva, Aug 14, 1926
p29
aVFiji v Tonga at Suva, Aug 14, 1926
p30
aVFiji v Tonga at Suva, Aug 14, 1926
p31
aVFiji v Tonga at Suva, Aug 14, 1926
p32
aVFiji v Tonga at Suva, Aug 14, 1926
p33
aVFiji v Tonga at Suva, Aug 16, 1926
p34
aVFiji v Tonga at Suva, Aug 18, 1926
p35
aVFiji v Tonga at Suva, Aug 18, 1926
p36
aVTonga v Fiji at Nuku A'lofa, Aug 25, 1928
p37
aVTonga v Fiji at Nuku A'lofa, Aug 25, 1928
p38
aVTonga v Fiji at Nuku A'lofa, Aug 25, 1928
p39
aVTonga v Fiji at Nuku A'lofa, Aug 25, 1928
p40
aVTonga v Fiji at Nuku A'lofa, Aug 25, 1928
p41
aVTonga v Fiji at Nuku A'lofa, Aug 25, 1928
p42
aVTonga v Fiji at Nuku A'lofa, Aug 25, 1928
p43
aVTonga v Fiji at Nuku A'lofa, Aug 25, 1928
p44
aVTonga v Fiji at Nuku A'lofa, Aug 25, 1928
p45
aVSamoa v Fiji at Apia, Sep 21, 1928
p46
aVFiji v Tonga at Suva, Aug 27, 1932
p47
aVFiji v Tonga at Suva, Aug 27, 1932
p48
aVFiji v Tonga at Suva, Aug 27, 1932
p49
aVFiji v Tonga at Suva, Aug 27, 1932
p50
aVFiji v Tonga at Suva, Aug 27, 1932
p51
aVFiji v Tonga at Suva, Aug 27, 1932
p52
aVFiji v Tonga at Suva, Aug 27, 1932
p53
aVFiji v Tonga at Suva, Aug 27, 1932
p54
aVFiji v Tonga at Suva, Aug 27, 1932
p55
aVFiji v Tonga at Suva, Aug 27, 1932
p56
aVFiji v Tonga at Suva, Aug 27, 1932
p57
aVTonga v Fiji at Nuku A'lofa, Aug 8, 1934
p58
aVTonga v Fiji at Nuku A'lofa, Aug 8, 1934
p59
aVTonga v Fiji at Nuku A'lofa, Aug 8, 1934
p60
aVTonga v Fiji at Nuku A'lofa, Aug 8, 1934
p61
aVTonga v Fiji at Nuku A'lofa, Aug 8, 1934
p62
aVTonga v Fiji at Nuku A'lofa, Aug 8, 1934
p63
aVTonga v Fiji at Nuku A'lofa, Aug 12, 1934
p64
aVTonga v Fiji at Nuku A'lofa, Aug 12, 1934
p65
aVTonga v Fiji at Nuku A'lofa, Aug 15, 1934
p66
aVFiji v New Zealand Maori at Suva, Aug 20, 1938
p67
aVFiji v New Zealand Maori at Suva, Aug 20, 1938
p68
aVFiji v New Zealand Maori at Suva, Aug 20, 1938
p69
aVFiji v New Zealand Maori at Suva, Aug 20, 1938
p70
aVFiji v New Zealand Maori at Suva, Aug 20, 1938
p71
aVFiji v New Zealand Maori at Suva, Aug 20, 1938
p72
aVFiji v New Zealand Maori at Suva, Aug 20, 1938
p73
aVFiji v New Zealand Maori at Suva, Aug 20, 1938
p74
aVFiji v New Zealand Maori at Suva, Aug 20, 1938
p75
aVFiji v New Zealand Maori at Suva, Aug 24, 1938
p76
aVFiji v New Zealand Maori at Suva, Aug 27, 1938
p77
aVNew Zealand Maori v Fiji at Hamilton, Sep 16, 1939
p78
aVNew Zealand Maori v Fiji at Hamilton, Sep 16, 1939
p79
aVNew Zealand Maori v Fiji at Hamilton, Sep 16, 1939
p80
aVNew Zealand Maori v Fiji at Hamilton, Sep 16, 1939
p81
aVNew Zealand Maori v Fiji at Hamilton, Sep 16, 1939
p82
aVNew Zealand Maori v Fiji at Hamilton, Sep 16, 1939
p83
aVNew Zealand Maori v Fiji at Hamilton, Sep 16, 1939
p84
aVFiji v Tonga at Suva, Jul 26, 1947
p85
aVFiji v Tonga at Suva, Jul 26, 1947
p86
aVFiji v Tonga at Suva, Jul 26, 1947
p87
aVFiji v Tonga at Suva, Jul 26, 1947
p88
aVFiji v Tonga at Suva, Jul 26, 1947
p89
aVFiji v Tonga at Suva, Jul 26, 1947
p90
aVFiji v Tonga at Suva, Jul 26, 1947
p91
aVFiji v Tonga at Suva, Jul 26, 1947
p92
aVFiji v Tonga at Suva, Jul 26, 1947
p93
aVFiji v Tonga at Suva, Jul 26, 1947
p94
aVFiji v Tonga at Suva, Jul 26, 1947
p95
aVFiji v Tonga at Suva, Jul 26, 1947
p96
aVFiji v Tonga at Suva, Jul 26, 1947
p97
aVFiji v Tonga at Suva, Jul 26, 1947
p98
aVFiji v New Zealand Maori at Suva, Jul 31, 1948
p99
aVFiji v New Zealand Maori at Suva, Jul 31, 1948
p100
aVFiji v New Zealand Maori at Suva, Jul 31, 1948
p101
aVFiji v New Zealand Maori at Suva, Jul 31, 1948
p102
aVFiji v New Zealand Maori at Suva, Jul 31, 1948
p103
aVFiji v New Zealand Maori at Suva, Aug 4, 1948
p104
aVFiji v New Zealand Maori at Suva, Aug 4, 1948
p105
aVFiji v New Zealand Maori at Suva, Aug 4, 1948
p106
aVFiji v New Zealand Maori at Suva, Aug 4, 1948
p107
aVFiji v New Zealand Maori at Suva, Aug 7, 1948
p108
aVNew Zealand Maori v Fiji at Wellington, Sep 5, 1951
p109
aVNew Zealand Maori v Fiji at Wellington, Sep 5, 1951
p110
aVNew Zealand Maori v Fiji at Wellington, Sep 5, 1951
p111
aVNew Zealand Maori v Fiji at Wellington, Sep 5, 1951
p112
aVNew Zealand Maori v Fiji at Wellington, Sep 5, 1951
p113
aVNew Zealand Maori v Fiji at Wellington, Sep 5, 1951
p114
aVNew Zealand Maori v Fiji at Wellington, Sep 5, 1951
p115
aVNew Zealand Maori v Fiji at Wellington, Sep 5, 1951
p116
aVNew Zealand Maori v Fiji at Wellington, Sep 5, 1951
p117
aVNew Zealand Maori v Fiji at Wellington, Sep 5, 1951
p118
aVNew Zealand Maori v Fiji at Wellington, Sep 5, 1951
p119
aVNew Zealand Maori v Fiji at Wellington, Sep 5, 1951
p120
aVNew Zealand Maori v Fiji at Wellington, Sep 5, 1951
p121
aVNew Zealand Maori v Fiji at Wellington, Sep 5, 1951
p122
aVAustralia v Fiji at Sydney, Jul 26, 1952
p123
aVAustralia v Fiji at Sydney, Aug 9, 1952
p124
aVAustralia v Fiji at Sydney, Aug 9, 1952
p125
aVAustralia v Fiji at Sydney, Aug 9, 1952
p126
aVAustralia v Fiji at Brisbane, Jun 5, 1954
p127
aVAustralia v Fiji at Brisbane, Jun 5, 1954
p128
aVAustralia v Fiji at Brisbane, Jun 5, 1954
p129
aVAustralia v Fiji at Brisbane, Jun 5, 1954
p130
aVAustralia v Fiji at Brisbane, Jun 5, 1954
p131
aVAustralia v Fiji at Sydney, Jun 26, 1954
p132
aVFiji v New Zealand Maori at Lautoka, Aug 14, 1954
p133
aVFiji v New Zealand Maori at Lautoka, Aug 14, 1954
p134
aVFiji v New Zealand Maori at Lautoka, Aug 14, 1954
p135
aVFiji v New Zealand Maori at Suva, Aug 21, 1954
p136
aVNew Zealand Maori v Fiji at Wellington, Aug 10, 1957
p137
aVNew Zealand Maori v Fiji at Wellington, Aug 10, 1957
p138
aVNew Zealand Maori v Fiji at Wellington, Aug 10, 1957
p139
aVNew Zealand Maori v Fiji at Wellington, Aug 10, 1957
p140
aVNew Zealand Maori v Fiji at Wellington, Aug 10, 1957
p141
aVNew Zealand Maori v Fiji at Wellington, Aug 10, 1957
p142
aVNew Zealand Maori v Fiji at Wellington, Aug 10, 1957
p143
aVNew Zealand Maori v Fiji at Wellington, Aug 10, 1957
p144
aVNew Zealand Maori v Fiji at Wellington, Aug 10, 1957
p145
aVNew Zealand Maori v Fiji at Wellington, Aug 10, 1957
p146
aVNew Zealand Maori v Fiji at Dunedin, Aug 24, 1957
p147
aVNew Zealand Maori v Fiji at Dunedin, Aug 24, 1957
p148
aVTonga v Fiji at Nuku A'lofa, Aug 2, 1958
p149
aVTonga v Fiji at Nuku A'lofa, Aug 2, 1958
p150
aVTonga v Fiji at Nuku A'lofa, Aug 2, 1958
p151
aVTonga v Fiji at Nuku A'lofa, Aug 2, 1958
p152
aVTonga v Fiji at Nuku A'lofa, Aug 2, 1958
p153
aVTonga v Fiji at Nuku A'lofa, Aug 2, 1958
p154
aVTonga v Fiji at Nuku A'lofa, Aug 9, 1958
p155
aVTonga v Fiji at Nuku A'lofa, Aug 9, 1958
p156
aVTonga v Fiji at Nuku A'lofa, Aug 13, 1958
p157
aVFiji v Tonga at Suva, Sep 26, 1959
p158
aVFiji v Tonga at Suva, Sep 26, 1959
p159
aVAustralia v Fiji at Brisbane, Jun 10, 1961
p160
aVAustralia v Fiji at Brisbane, Jun 10, 1961
p161
aVAustralia v Fiji at Brisbane, Jun 10, 1961
p162
aVAustralia v Fiji at Brisbane, Jun 10, 1961
p163
aVAustralia v Fiji at Brisbane, Jun 10, 1961
p164
aVAustralia v Fiji at Brisbane, Jun 10, 1961
p165
aVAustralia v Fiji at Brisbane, Jun 10, 1961
p166
aVAustralia v Fiji at Brisbane, Jun 10, 1961
p167
aVAustralia v Fiji at Brisbane, Jun 10, 1961
p168
aVAustralia v Fiji at Sydney, Jun 17, 1961
p169
aVAustralia v Fiji at Sydney, Jun 17, 1961
p170
aVAustralia v Fiji at Melbourne, Jul 1, 1961
p171
aVFiji v Samoa at Suva, Aug 30, 1963
p172
aVFiji v Samoa at Suva, Aug 30, 1963
p173
aVFiji v Samoa at Suva, Aug 30, 1963
p174
aVFiji v Samoa at Suva, Aug 30, 1963
p175
aVFiji v Samoa at Suva, Aug 30, 1963
p176
aVFiji v Samoa at Suva, Aug 30, 1963
p177
aVFiji v Samoa at Suva, Aug 30, 1963
p178
aVFiji v Samoa at Suva, Aug 30, 1963
p179
aVFiji v Tonga at Lautoka, Aug 31, 1963
p180
aVFiji v Tonga at Lautoka, Aug 31, 1963
p181
aVFiji v Tonga at Lautoka, Aug 31, 1963
p182
aVFiji v Samoa at Suva, Sep 5, 1963
p183
aVFiji v New Zealand Maori at Suva, Jul 25, 1964
p184
aVFiji v New Zealand Maori at Suva, Jul 25, 1964
p185
aVWales XV v Fiji at Cardiff, Sep 26, 1964
p186
aVWales XV v Fiji at Cardiff, Sep 26, 1964
p187
aVWales XV v Fiji at Cardiff, Sep 26, 1964
p188
aVFrance v Fiji at Colombes, Oct 17, 1964
p189
aVFrance v Fiji at Colombes, Oct 17, 1964
p190
aVFrance v Fiji at Colombes, Oct 17, 1964
p191
aVCanada XV v Fiji at Victoria, Oct 24, 1964
p192
aVTonga v Fiji at Nuku A'lofa, Jul 8, 1967
p193
aVTonga v Fiji at Nuku A'lofa, Jul 8, 1967
p194
aVTonga v Fiji at Nuku A'lofa, Jul 8, 1967
p195
aVTonga v Fiji at Nuku A'lofa, Jul 8, 1967
p196
aVTonga v Fiji at Nuku A'lofa, Jul 8, 1967
p197
aVTonga v Fiji at Nuku A'lofa, Jul 8, 1967
p198
aVTonga v Fiji at Nuku A'lofa, Jul 8, 1967
p199
aVTonga v Fiji at Nuku A'lofa, Jul 8, 1967
p200
aVTonga v Fiji at Nuku A'lofa, Jul 8, 1967
p201
aVTonga v Fiji at Nuku A'lofa, Jul 15, 1967
p202
aVTonga v Fiji at Nuku A'lofa, Jul 15, 1967
p203
aVTonga v Fiji at Nuku A'lofa, Jul 22, 1967
p204
aVTonga v Fiji at Nuku A'lofa, Jul 22, 1967
p205
aVFiji v New Zealand XV at Suva, Jun 25, 1968
p206
aVFiji v New Zealand XV at Suva, Jun 25, 1968
p207
aVFiji v New Zealand XV at Suva, Jun 25, 1968
p208
aVFiji v New Zealand XV at Suva, Jun 25, 1968
p209
aVFiji v New Zealand XV at Suva, Jun 25, 1968
p210
aVFiji v New Zealand XV at Suva, Jun 25, 1968
p211
aVFiji v New Zealand XV at Suva, Jun 25, 1968
p212
aVFiji v Tonga at Suva, Aug 17, 1968
p213
aVFiji v Tonga at Suva, Aug 17, 1968
p214
aVFiji v Tonga at Suva, Aug 17, 1968
p215
aVFiji v Tonga at Suva, Aug 17, 1968
p216
aVFiji v Tonga at Lautoka, Aug 24, 1968
p217
aVFiji v Tonga at Lautoka, Aug 24, 1968
p218
aVFiji v Tonga at Lautoka, Aug 24, 1968
p219
aVFiji v Tonga at Lautoka, Aug 24, 1968
p220
aVFiji v Tonga at Suva, Sep 7, 1968
p221
aVFiji v Wales XV at Suva, Jun 25, 1969
p222
aVFiji v Wales XV at Suva, Jun 25, 1969
p223
aVFiji v Wales XV at Suva, Jun 25, 1969
p224
aVFiji v Wales XV at Suva, Jun 25, 1969
p225
aVPapua New Guinea v Fiji at Port Moresby, Aug 18, 1969
p226
aVFiji v Solomon Islands at Port Moresby, Aug 21, 1969
p227
aVNew Zealand Maori v Fiji at Christchurch, Jul 25, 1970
p228
aVNew Zealand Maori v Fiji at Christchurch, Jul 25, 1970
p229
aVNew Zealand Maori v Fiji at Christchurch, Jul 25, 1970
p230
aVCanada v Fiji at Burnaby Lake, Nov 28, 1970
p231
aVCanada v Fiji at Burnaby Lake, Nov 28, 1970
p232
aVCanada v Fiji at Burnaby Lake, Nov 28, 1970
p233
aVCanada v Fiji at Burnaby Lake, Nov 28, 1970
p234
aVCanada v Fiji at Burnaby Lake, Nov 28, 1970
p235
aVTonga v Fiji at Nuku A'lofa, Jul 15, 1972
p236
aVTonga v Fiji at Nuku A'lofa, Jul 15, 1972
p237
aVTonga v Fiji at Nuku A'lofa, Jul 15, 1972
p238
aVTonga v Fiji at Nuku A'lofa, Jul 22, 1972
p239
aVTonga v Fiji at Nuku A'lofa, Jul 22, 1972
p240
aVFiji v Australia at Suva, Sep 19, 1972
p241
aVFiji v Australia at Suva, Sep 19, 1972
p242
aVFiji v New Zealand Maori at Suva, Jun 2, 1973
p243
aVFiji v New Zealand Maori at Suva, Jun 2, 1973
p244
aVFiji v New Zealand Maori at Suva, Jun 2, 1973
p245
aVFiji v New Zealand Maori at Lautoka, Jun 9, 1973
p246
aVFiji v Tonga at Suva, Jul 11, 1973
p247
aVFiji v Tonga at Suva, Jul 11, 1973
p248
aVFiji v Tonga at Suva, Jul 11, 1973
p249
aVFiji v England XV at Suva, Aug 28, 1973
p250
aVFiji v New Zealand XV at Suva, Jun 11, 1974
p251
aVFiji v New Zealand XV at Suva, Jun 11, 1974
p252
aVFiji v New Zealand XV at Suva, Jun 11, 1974
p253
aVFiji v New Zealand XV at Suva, Jun 11, 1974
p254
aVNew Zealand Maori v Fiji at Auckland, Aug 17, 1974
p255
aVNew Zealand Maori v Fiji at Auckland, Aug 17, 1974
p256
aVNew Zealand Maori v Fiji at Auckland, Aug 17, 1974
p257
aVNew Zealand Maori v Fiji at Wellington, Aug 31, 1974
p258
aVFiji v Ireland XV at Suva, Jun 9, 1976
p259
aVFiji v Ireland XV at Suva, Jun 9, 1976
p260
aVFiji v Ireland XV at Suva, Jun 9, 1976
p261
aVFiji v Ireland XV at Suva, Jun 9, 1976
p262
aVFiji v Ireland XV at Suva, Jun 9, 1976
p263
aVFiji v Ireland XV at Suva, Jun 9, 1976
p264
aVFiji v Ireland XV at Suva, Jun 9, 1976
p265
aVFiji v Ireland XV at Suva, Jun 9, 1976
p266
aVFiji v Ireland XV at Suva, Jun 9, 1976
p267
aVFiji v Ireland XV at Suva, Jun 9, 1976
p268
aVFiji v Ireland XV at Suva, Jun 9, 1976
p269
aVAustralia v Fiji at Sydney, Jun 12, 1976
p270
aVAustralia v Fiji at Sydney, Jun 12, 1976
p271
aVAustralia v Fiji at Sydney, Jun 12, 1976
p272
aVAustralia v Fiji at Sydney, Jun 12, 1976
p273
aVAustralia v Fiji at Sydney, Jun 12, 1976
p274
aVAustralia v Fiji at Sydney, Jun 12, 1976
p275
aVAustralia v Fiji at Brisbane, Jun 19, 1976
p276
aVAustralia v Fiji at Brisbane, Jun 19, 1976
p277
aVAustralia v Fiji at Sydney, Jun 26, 1976
p278
aVFiji v Tonga at Lautoka, Jul 9, 1977
p279
aVFiji v Tonga at Lautoka, Jul 9, 1977
p280
aVFiji v Tonga at Lautoka, Jul 9, 1977
p281
aVFiji v Tonga at Lautoka, Jul 9, 1977
p282
aVFiji v New Zealand Maori at Suva, May 19, 1979
p283
aVFiji v New Zealand Maori at Suva, May 19, 1979
p284
aVFiji v England XV at Suva, May 29, 1979
p285
aVFiji v France XV at Suva, Jun 16, 1979
p286
aVFiji v France XV at Suva, Jun 16, 1979
p287
aVFiji v France XV at Suva, Jun 16, 1979
p288
aVFiji v France XV at Suva, Jun 16, 1979
p289
aVFiji v Papua New Guinea at Suva, Aug 30, 1979
p290
aVFiji v Papua New Guinea at Suva, Aug 30, 1979
p291
aVFiji v Papua New Guinea at Suva, Aug 30, 1979
p292
aVFiji v Tonga at Suva, Sep 8, 1979
p293
aVFiji v Australia at Suva, May 24, 1980
p294
aVFiji v Australia at Suva, May 24, 1980
p295
aVFiji v Australia at Suva, May 24, 1980
p296
aVFiji v Australia at Suva, May 24, 1980
p297
aVFiji v Australia at Suva, May 24, 1980
p298
aVFiji v Australia at Suva, May 24, 1980
p299
aVFiji v Australia at Suva, May 24, 1980
p300
aVFiji v Australia at Suva, May 24, 1980
p301
aVNew Zealand Maori v Fiji at Rotorua, Aug 30, 1980
p302
aVNew Zealand Maori v Fiji at Rotorua, Aug 30, 1980
p303
aVNew Zealand Maori v Fiji at Rotorua, Aug 30, 1980
p304
aVNew Zealand Maori v Fiji at Rotorua, Aug 30, 1980
p305
aVNew Zealand XV v Fiji at Auckland, Sep 13, 1980
p306
aVNew Zealand XV v Fiji at Auckland, Sep 13, 1980
p307
aVNew Zealand XV v Fiji at Auckland, Sep 13, 1980
p308
aVFiji v Samoa at Lautoka, Jun 27, 1981
p309
aVFiji v Samoa at Lautoka, Jun 27, 1981
p310
aVFiji v Samoa at Lautoka, Jun 27, 1981
p311
aVFiji v Samoa at Lautoka, Jun 27, 1981
p312
aVFiji v Samoa at Suva, Jul 4, 1981
p313
aVTonga v Fiji at Nuku A'lofa, Aug 8, 1981
p314
aVTonga v Fiji at Nuku A'lofa, Aug 8, 1981
p315
aVTonga v Fiji at Nuku A'lofa, Aug 15, 1981
p316
aVSamoa v Fiji at Apia, Jun 2, 1982
p317
aVSamoa v Fiji at Apia, Jun 2, 1982
p318
aVSamoa v Fiji at Apia, Jun 12, 1982
p319
aVSamoa v Fiji at Apia, Jun 12, 1982
p320
aVSamoa v Fiji at Apia, Jun 12, 1982
p321
aVFiji v Samoa at Suva, Aug 21, 1982
p322
aVFiji v Samoa at Suva, Aug 21, 1982
p323
aVFiji v Samoa at Suva, Aug 21, 1982
p324
aVFiji v Samoa at Suva, Aug 21, 1982
p325
aVFiji v Samoa at Suva, Aug 21, 1982
p326
aVFiji v Tonga at Suva, Aug 28, 1982
p327
aVScotland XV v Fiji at Murrayfield, Sep 25, 1982
p328
aVScotland XV v Fiji at Murrayfield, Sep 25, 1982
p329
aVScotland XV v Fiji at Murrayfield, Sep 25, 1982
p330
aVFiji v Tonga at Suva, Jun 18, 1983
p331
aVFiji v Tonga at Suva, Jun 18, 1983
p332
aVFiji v Tonga at Suva, Jun 18, 1983
p333
aVFiji v Tonga at Suva, Jun 18, 1983
p334
aVFiji v Samoa at Suva, Jun 25, 1983
p335
aVFiji v Samoa at Suva, Jun 25, 1983
p336
aVFiji v Samoa at Suva, Jun 25, 1983
p337
aVSamoa v Fiji at Apia, Sep 5, 1983
p338
aVFiji v Solomon Islands at Apia, Sep 8, 1983
p339
aVFiji v Australia at Suva, Jun 9, 1984
p340
aVFiji v Australia at Suva, Jun 9, 1984
p341
aVFiji v Australia at Suva, Jun 9, 1984
p342
aVFiji v Australia at Suva, Jun 9, 1984
p343
aVFiji v Samoa at Suva, Jun 30, 1984
p344
aVFiji v Tonga at Suva, Jul 7, 1984
p345
aVFiji v Tonga at Suva, Jul 7, 1984
p346
aVFiji v Tonga at Suva, Jul 21, 1984
p347
aVFiji v Tonga at Suva, Jul 21, 1984
p348
aVFiji v Tonga at Suva, Jul 21, 1984
p349
aVFiji v Tonga at Suva, Jul 21, 1984
p350
aVFiji v New Zealand XV at Suva, Oct 27, 1984
p351
aVSamoa v Fiji at Apia, Jun 1, 1985
p352
aVSamoa v Fiji at Apia, Jun 1, 1985
p353
aVFiji v Tonga at Apia, Jun 5, 1985
p354
aVFiji v Tonga at Apia, Jun 5, 1985
p355
aVFiji v Tonga at Apia, Jun 5, 1985
p356
aVAustralia v Fiji at Brisbane, Aug 10, 1985
p357
aVAustralia v Fiji at Brisbane, Aug 10, 1985
p358
aVAustralia v Fiji at Sydney, Aug 17, 1985
p359
aVAustralia v Fiji at Sydney, Aug 17, 1985
p360
aVIreland XV v Fiji at Lansdowne Road, Oct 19, 1985
p361
aVWales v Fiji at Cardiff, Nov 9, 1985
p362
aVWales v Fiji at Cardiff, Nov 9, 1985
p363
aVFiji v Wales at Suva, May 31, 1986
p364
aVFiji v Wales at Suva, May 31, 1986
p365
aVFiji v Wales at Suva, May 31, 1986
p366
aVFiji v Wales at Suva, May 31, 1986
p367
aVTonga v Fiji at Nuku A'lofa, Jun 28, 1986
p368
aVTonga v Fiji at Nuku A'lofa, Jun 28, 1986
p369
aVTonga v Fiji at Nuku A'lofa, Jun 28, 1986
p370
aVTonga v Fiji at Nuku A'lofa, Jun 28, 1986
p371
aVTonga v Fiji at Nuku A'lofa, Jun 28, 1986
p372
aVTonga v Fiji at Nuku A'lofa, Jun 28, 1986
p373
aVTonga v Fiji at Nuku A'lofa, Jun 28, 1986
p374
aVTonga v Fiji at Nuku A'lofa, Jun 28, 1986
p375
aVFiji v Samoa at Nuku A'lofa, Jul 2, 1986
p376
aVFiji v Samoa at Nuku A'lofa, Jul 2, 1986
p377
aVFiji v Samoa at Nuku A'lofa, Jul 2, 1986
p378
aVArgentina v Fiji at Hamilton, May 24, 1987
p379
aVArgentina v Fiji at Hamilton, May 24, 1987
p380
aVArgentina v Fiji at Hamilton, May 24, 1987
p381
aVArgentina v Fiji at Hamilton, May 24, 1987
p382
aVNew Zealand v Fiji at Christchurch, May 27, 1987
p383
aVNew Zealand v Fiji at Christchurch, May 27, 1987
p384
aVNew Zealand v Fiji at Christchurch, May 27, 1987
p385
aVFiji v Italy at Dunedin, May 31, 1987
p386
aVFiji v Samoa at Suva, Aug 22, 1987
p387
aVFiji v Tonga at Apia, May 31, 1988
p388
aVFiji v Tonga at Apia, May 31, 1988
p389
aVFiji v Tonga at Apia, May 31, 1988
p390
aVFiji v Tonga at Apia, May 31, 1988
p391
aVFiji v Tonga at Apia, May 31, 1988
p392
aVFiji v Tonga at Apia, May 31, 1988
p393
aVFiji v Tonga at Apia, May 31, 1988
p394
aVFiji v Tonga at Apia, May 31, 1988
p395
aVFiji v Tonga at Apia, May 31, 1988
p396
aVSamoa v Fiji at Apia, Jun 4, 1988
p397
aVTonga v Fiji at Nuku A'lofa, Jul 2, 1988
p398
aVTonga v Fiji at Nuku A'lofa, Jul 2, 1988
p399
aVTonga v Fiji at Nuku A'lofa, Jul 2, 1988
p400
aVFiji v Tonga at Nadi, Oct 8, 1988
p401
aVFiji v Tonga at Nadi, Oct 8, 1988
p402
aVFiji v Tonga at Suva, Jul 15, 1989
p403
aVFiji v Tonga at Suva, Jul 15, 1989
p404
aVFiji v Tonga at Suva, Jul 15, 1989
p405
aVTonga v Fiji at Nuku A'lofa, Jul 22, 1989
p406
aVBelgium v Fiji at Liege, Oct 7, 1989
p407
aVScotland v Fiji at Murrayfield, Oct 28, 1989
p408
aVScotland v Fiji at Murrayfield, Oct 28, 1989
p409
aVEngland v Fiji at Twickenham, Nov 4, 1989
p410
aVJapan v Fiji at Tokyo, Mar 4, 1990
p411
aVJapan v Fiji at Tokyo, Mar 4, 1990
p412
aVJapan v Fiji at Tokyo, Mar 4, 1990
p413
aVJapan v Fiji at Tokyo, Mar 4, 1990
p414
aVTonga v Fiji at Nuku A'lofa, Mar 24, 1990
p415
aVTonga v Fiji at Nuku A'lofa, Mar 24, 1990
p416
aVTonga v Fiji at Nuku A'lofa, Mar 24, 1990
p417
aVFiji v Samoa at Nausori, Jun 23, 1990
p418
aVHong Kong v Fiji at Hong Kong, Dec 5, 1990
p419
aVHong Kong v Fiji at Hong Kong, Dec 5, 1990
p420
aVHong Kong v Fiji at Hong Kong, Dec 5, 1990
p421
aVHong Kong v Fiji at Hong Kong, Dec 5, 1990
p422
aVHong Kong v Fiji at Hong Kong, Dec 5, 1990
p423
aVSamoa v Fiji at Apia, Jun 1, 1991
p424
aVSamoa v Fiji at Apia, Jun 1, 1991
p425
aVSamoa v Fiji at Apia, Jun 1, 1991
p426
aVSamoa v Fiji at Apia, Jun 1, 1991
p427
aVSamoa v Fiji at Apia, Jun 1, 1991
p428
aVFiji v Tonga at Suva, Jun 8, 1991
p429
aVFiji v Tonga at Suva, Jun 11, 1991
p430
aVFiji v Tonga at Suva, Jun 11, 1991
p431
aVFrance v Fiji at Grenoble, Oct 8, 1991
p432
aVFiji v Samoa at Suva, Jun 20, 1992
p433
aVFiji v Samoa at Suva, Jun 20, 1992
p434
aVFiji v Samoa at Suva, Jun 20, 1992
p435
aVFiji v Samoa at Suva, Jun 20, 1992
p436
aVFiji v Samoa at Suva, Jun 20, 1992
p437
aVFiji v Samoa at Suva, Jun 20, 1992
p438
aVFiji v Samoa at Suva, Jun 20, 1992
p439
aVFiji v Samoa at Suva, Jun 20, 1992
p440
aVTonga v Fiji at Nuku A'lofa, Jul 25, 1992
p441
aVTonga v Fiji at Nuku A'lofa, Jul 25, 1992
p442
aVTonga v Fiji at Nuku A'lofa, Jul 25, 1992
p443
aVTonga v Fiji at Nuku A'lofa, Jul 25, 1992
p444
aVFiji v New Zealand Maori at Suva, Oct 31, 1992
p445
aVFiji v New Zealand Maori at Suva, Oct 31, 1992
p446
aVFiji v New Zealand Maori at Suva, Oct 31, 1992
p447
aVSamoa v Fiji at Apia, Jun 5, 1993
p448
aVSamoa v Fiji at Apia, Jun 5, 1993
p449
aVTonga v Fiji at Nuku A'lofa, Jul 17, 1993
p450
aVJapan v Fiji at Ehime, May 8, 1994
p451
aVJapan v Fiji at Ehime, May 8, 1994
p452
aVJapan v Fiji at Ehime, May 8, 1994
p453
aVJapan v Fiji at Ehime, May 8, 1994
p454
aVJapan v Fiji at Ehime, May 8, 1994
p455
aVJapan v Fiji at Ehime, May 8, 1994
p456
aVJapan v Fiji at Ehime, May 8, 1994
p457
aVJapan v Fiji at Ehime, May 8, 1994
p458
aVJapan v Fiji at Ehime, May 8, 1994
p459
aVJapan v Fiji at Ehime, May 8, 1994
p460
aVJapan v Fiji at Ehime, May 8, 1994
p461
aVJapan v Fiji at Ehime, May 8, 1994
p462
aVJapan v Fiji at Ehime, May 8, 1994
p463
aVJapan v Fiji at Ehime, May 8, 1994
p464
aVJapan v Fiji at Tokyo, May 15, 1994
p465
aVNew Zealand Maori v Fiji at Christchurch, Jun 4, 1994
p466
aVNew Zealand Maori v Fiji at Christchurch, Jun 4, 1994
p467
aVNew Zealand Maori v Fiji at Christchurch, Jun 4, 1994
p468
aVNew Zealand Maori v Fiji at Christchurch, Jun 4, 1994
p469
aVNew Zealand Maori v Fiji at Christchurch, Jun 4, 1994
p470
aVFiji v Wales at Suva, Jun 18, 1994
p471
aVFiji v Wales at Suva, Jun 18, 1994
p472
a.