(lp1
S'Apimeleki Amaraki'
p2
aS'Kuruka Bogiwalu'
p3
aS'Viliame Devo'
p4
aS'Esava Kobiti'
p5
aS'Jioji Koroibanuve'
p6
aS'Samisoni Koroitamudu'
p7
aS'Atunaisa Laqeretabua'
p8
aS'Filimone Masivulo'
p9
aS'Lepani Matea'
p10
aS'Fereti Naceba'
p11
aS'Sairusi Natuna'
p12
aS'Aloesi Qio'
p13
aS'Lepani Tamani'
p14
aS'Savenaca Tamanibeka'
p15
aS'Isikeli Taukei'
p16
aS'Kemueli Tolili'
p17
aS'Nalovu Tubutubu'
p18
aS'Solomone Tuicakau'
p19
aS'Ilaisa Tulele'
p20
aS'Ulaiasi Vosabalavu'
p21
aS'Kitione Kida'
p22
aS'Rafaele Kuruisiga'
p23
aS'Osea Nabavu'
p24
aS'Kinivuai Nabili'
p25
aS'Apenisa Nayacalagilagi'
p26
aS'Saimone Rabici'
p27
aS'Pita Ravaga'
p28
aS'Manasa Seniloli'
p29
aS'Taniela Uluiviti'
p30
aS'Semi Vakarua'
p31
aS'Jese Baleiwei'
p32
aS'Tevita Seniloli'
p33
aS'Delana'
p34
aS'Livai'
p35
aS'Poasa Waqa'
p36
aS'Josefa Bibi'
p37
aS'Isikeli Cawa'
p38
aS'Avaiata Durusolo'
p39
aS'Anare Mara'
p40
aS'Saimone Matasarasara'
p41
aS'Joeli Ravai'
p42
aS'Manasa Ravai'
p43
aS'Epeli Ravouvou'
p44
aS'Veresi Taliqa'
p45
aS'Jo Waqa'
p46
aS'Asela Batikaciwa'
p47
aS'Aseri Bose'
p48
aS'Vula Daunibau'
p49
aS'Isikeli Daveta'
p50
aS'Alifereti Koroi'
p51
aS'Akuila Matanibukaca'
p52
aS'Sakeasi Rabitu'
p53
aS'Joape Suluaqalo'
p54
aS'Sunia Tubuna'
p55
aS'Peni Tuidraki'
p56
aS'Vilitati Vavaitamana'
p57
aS'Samu Baravilala'
p58
aS'Sairusi Bola'
p59
aS'Isoa Gavidi'
p60
aS'Seru Ralawa'
p61
aS'Raiwalui Seniloli'
p62
aS'Eroni Vavaitamana'
p63
aS'Vilisi Nadaku'
p64
aS'Jone Wesele'
p65
aS'Peni Sailasa'
p66
aS'Ratu Dovi'
p67
aS'Atunaisa Kororua'
p68
aS'Vetaia Naisoro'
p69
aS'Solomone Qurai'
p70
aS'Ulaiasi Radike'
p71
aS'Apakuki Tuitavua'
p72
aS'Esava Vavaitamana'
p73
aS'Josaia Voreqe'
p74
aS'Tomasi Vosaicake'
p75
aS'Isireli Korovulavula'
p76
aS'Isimeli Wea'
p77
aS'Epeli Bola'
p78
aS'George Cakobau'
p79
aS'Penaia Ganilau'
p80
aS'Peni Lagilagi'
p81
aS'Vereniki Loba'
p82
aS'Inoke Nagatalevu'
p83
aS'Sevesi Vatudau'
p84
aS'Ilaitia Cobitu'
p85
aS'Emosi Dawai'
p86
aS'Luke Dawai'
p87
aS'Solomone Mataiyavi'
p88
aS'Onisimo Naikovu'
p89
aS'Tuiyau Naitini'
p90
aS'Etuate Nima'
p91
aS'Manasa Nukuvou'
p92
aS'Ilisoni Ravoka'
p93
aS'Lui Saladoka'
p94
aS'Waisea Tuisese'
p95
aS'Alipate Veikoso'
p96
aS'Taniela Ranavue'
p97
aS'Marika Tabukaci'
p98
aS'Apisake Kikau'
p99
aS'Malakai Labaibure'
p100
aS'Joeli Susu'
p101
aS'Sailosi Valewai'
p102
aS'Ilaitia Vuivuda'
p103
aS'Atunaisa Camaibau'
p104
aS'Kalivati Cavuilati'
p105
aS'Macanawai Cevalawa'
p106
aS'Jone Ravu'
p107
aS'Alipate Doviverata'
p108
aS'Semisi Baleca'
p109
aS'George Cavalevu'
p110
aS'Sunia Ganilau'
p111
aS'Waisake Kunavula'
p112
aS'Penaia Lese'
p113
aS'Josefa Levula'
p114
aS'Isimeli Radrodro'
p115
aS'Semisi Ralagi'
p116
aS'Wame Salabogi'
p117
aS'Maikeli Tuvoli'
p118
aS'Suliasi Vatubua'
p119
aS'Rusiate Vuruya'
p120
aS'Savenaca Pe'
p121
aS'Peni Tove'
p122
aS'Semesa Seruvatu'
p123
aS'Isikeli Cawa'
p124
aS'Samuela Domoni'
p125
aS'Navitalai Taga'
p126
aS'Mesake Biumaiwai'
p127
aS'Aminisitai Burogolevu'
p128
aS'Gabirieli Naborisi'
p129
aS'Apenisa Nawalu'
p130
aS'Josefa Saukuru'
p131
aS'Orisi Dawai'
p132
aS'Tomasi Naidole'
p133
aS'Ratulevu Silatolu'
p134
aS'Ravuama Vunakece'
p135
aS'Senitiki Naurisau'
p136
aS'Aseri Kunawave'
p137
aS'Jese Mucunabitu'
p138
aS'Nacanieli Nabaro'
p139
aS'Mikaele Naikovu'
p140
aS'Paula Nayacakalou'
p141
aS'Sanaila Sautu'
p142
aS'Anare Secake'
p143
aS'Jone Tabaiwalu'
p144
aS'Baniua Tanivukavu'
p145
aS'Nat Uluiviti'
p146
aS'Apenisa Kuruisaqila'
p147
aS'Peni Wadali'
p148
aS'Kaiava Bose'
p149
aS'Ilaitia Ravouvou'
p150
aS'Maika Ravula'
p151
aS'Inoke Tabualevu'
p152
aS'Eremasi Lovodua'
p153
aS'Seru Tuisese'
p154
aS'Patimio Tatukivei'
p155
aS'Peni Rika'
p156
aS'Suliasi Cavu'
p157
aS'Ulaiasi Radike'
p158
aS'Sakiusa Tuva'
p159
aS'Eliki Gaunavou'
p160
aS'Sailosi Kepa'
p161
aS'Jone Nabou'
p162
aS'Joeli Naucabalavu'
p163
aS'Simione Rarasea'
p164
aS'Seteo Rasau'
p165
aS'Nemesio Ratuveilawa'
p166
aS'Eparama Ravi'
p167
aS'Josua Vadugu'
p168
aS'Vereniki Nalio'
p169
aS'Sitiveni Tawase'
p170
aS'Epeli Rayawa'
p171
aS'Epi Bolawaqatabu'
p172
aS'Vinaiya Buli'
p173
aS'Suliasi Daunitutu'
p174
aS'Jope Snr. Naucabalavu Snr.'
p175
aS'Jone Raikuna'
p176
aS'Petero Rasiosateki'
p177
aS'Jone Sokovata'
p178
aS'Ulaiasi Tukana'
p179
aS'Epi Kunavore'
p180
aS'Apisai Toga'
p181
aS'Sevaro Walisoliso'
p182
aS'Josateki Nasova'
p183
aS'Aca Soqosoqo'
p184
aS'Apakuki Suluaqalo'
p185
aS'George Barley'
p186
aS'Aporosa Robe'
p187
aS'Sela Toga'
p188
aS'Adriu Nadredre'
p189
aS'Suliasi Tolotu'
p190
aS'Samuela Vanini'
p191
aS'Setareki Vola'
p192
aS'Amenatave Gutugutuwai'
p193
aS'Moritikei Nabuta'
p194
aS'Kiniviliame Nalatu'
p195
aS'Samu Naqelevuki'
p196
aS'Sakiasi Ose'
p197
aS'Nasivi Ravouvou'
p198
aS'Setareki Tamanivalu'
p199
aS'Sakopo Vodivodi'
p200
aS'Vilaime Waka'
p201
aS'Apenisa Tukairavua'
p202
aS'Maika Vakatawabai'
p203
aS'Asaeli Batibasaga'
p204
aS'Waisea Tubu'
p205
aS'Albert Eastgate'
p206
aS'Suliasi Nacolai'
p207
aS'Ropate Qalo'
p208
aS'Lario Raitilava'
p209
aS'Timoci Tukaitabua'
p210
aS'Apisalome Turagacoko'
p211
aS'Ilai Senivau'
p212
aS'Meli Kurisaru'
p213
aS'Semesa Sacere'
p214
aS'Watile Tuinagiagia'
p215
aS'Isoa Volavola'
p216
aS'Peniasi Nasalo'
p217
aS'Jona Qoro Narisia'
p218
aS'Pio Tikoisuva'
p219
aS'Seru Naitau'
p220
aS'Sefanaia Ratu'
p221
aS'Senitiki Nasave'
p222
aS'George Sailosi'
p223
aS'Semesa Sikivou'
p224
aS'Ilaitia Tuisese'
p225
aS'Inia Namua'
p226
aS'Atonio Racika'
p227
aS'Josateki Radrodro'
p228
aS'Jo Sovau'
p229
aS'Josaia Visei'
p230
aS'Isimeli Batibasaga'
p231
aS'Inoke Buadromo'
p232
aS'Ravuama Latilevu'
p233
aS'Sitiveni Ligamamada Rabuka'
p234
aS'Vuniani Varo'
p235
aS'Jope Jnr. Naucabalavu Jnr.'
p236
aS'Tevita Rabuli'
p237
aS'Taito Rauluni'
p238
aS'Wame Gavidi'
p239
aS'Nimilote Ratudina'
p240
aS'Aminiasi Naituyaga'
p241
aS'Rupeni Qaraniqio'
p242
aS'Dan Lobendhan'
p243
aS'Rodney Samuels'
p244
aS'Joe Savou'
p245
aS'Tevita Raulumi'
p246
aS'Peter Hughes'
p247
aS'Enele Malele'
p248
aS'Emori Tudia'
p249
aS'Luke Namadila'
p250
aS'Seremaia Cavuilati'
p251
aS'Vilikesa Mocelutu'
p252
aS'Watisoni Nasalo'
p253
aS'Isikeli Tasere'
p254
aS'Meli Masitabua'
p255
aS'Ilikimi Batibasaga'
p256
aS'Isikeli Cagilaba'
p257
aS'Ilisoni Taoba'
p258
aS'Sefanaia Basiyalo'
p259
aS'Tomasi Latianara'
p260
aS'Ilai Nabobo'
p261
aS'Eroni Puamau'
p262
aS'Tomu Ravualala'
p263
aS'Matereti Sarasau'
p264
aS'Nasoni Uluvula'
p265
aS'Livai Volavola'
p266
aS'Luke Nabaro'
p267
aS'Mosese Nailumu'
p268
aS'Qele Ratu'
p269
aS'Peceli Kina'
p270
aS'Isoa Makutu'
p271
aS'Viliame Ratudradra'
p272
aS'Josefa Rauto'
p273
aS'Jolame Veidreyaki'
p274
aS'Paula Waisake'
p275
aS'Eroni Matalau'
p276
aS'Samisoni Viriviri'
p277
aS'Josaia Taqiri'
p278
aS'Robert Howard'
p279
aS'Joape Kuinikoro'
p280
aS'Kemueli Musunamasi'
p281
aS'Vuata Narisia'
p282
aS'Rabici Ganilau'
p283
aS'Taniela Nayate'
p284
aS'Esala Labalaba'
p285
aS'Pita Kewa Nacuva'
p286
aS'Ilami Lutumailagi'
p287
aS'Josua Rayawa'
p288
aS'Kini Vosailagi'
p289
aS'Tevita Makutu'
p290
aS'Simione Naiduki'
p291
aS'Joketani Ravouvou'
p292
aS'Ilaitia Vai'
p293
aS'Iokimi Finau'
p294
aS'Ilikimi Kunagogo'
p295
aS'Sanivalati Laulau'
p296
aS'Isimeli Radrodro'
p297
aS'Eneri Ratudradra'
p298
aS'Tuimasi Tubananitu'
p299
aS'Lemeki Vuetaki'
p300
aS'Vesivesi Bose'
p301
aS'Kameli Nayacalevu'
p302
aS'Kata Ratumuri'
p303
aS'Sunia Seru'
p304
aS'Vikikesa Vatuwaliwali'
p305
aS'Isimeli Cerelala'
p306
aS'Jone Ratu'
p307
aS'Navitalai Senilagakali'
p308
aS'Sunia Nadruku'
p309
aS'Mosese Tamata'
p310
aS'Netava Tamaya'
p311
aS'Pio Tubui'
p312
aS'Dominiko Manaseitava'
p313
aS'Sani Tagivetaua'
p314
aS'Emosi Tatawaqa'
p315
aS'Sakaraia Nacaka'
p316
aS'Esala Teleni'
p317
aS'Sialeni Vuetaki'
p318
aS'Sela Gutugutuwai'
p319
aS'Ilai Musunamasi'
p320
aS'Willie Rokowailoa'
p321
aS'Peter Kean'
p322
aS'Rusiate Namoro'
p323
aS'Waisale Natuna'
p324
aS'Lewis Politini'
p325
aS'Setareki Vero'
p326
aS'Kaiava Salusalu'
p327
aS'Severo Koroduadua Waqanibau'
p328
aS'Isikeli Tikoduadua'
p329
aS'Josevata Naikidi'
p330
aS'Tiko Bucaonadi'
p331
aS'Paula Nawalu'
p332
aS'Koli Rokoroi'
p333
aS'Samu Yalayala'
p334
aS'Dusilele Bola'
p335
aS'Acura Niuqila'
p336
aS'Sairusi Tabualevu'
p337
aS'Epali Rakai'
p338
aS'Sairusi Naituku'
p339
aS'Emosi Katonitabua'
p340
aS'Peni Rauluni'
p341
aS'Epeli Turuva'
p342
aS'Ilaitia Savai'
p343
aS'Inoke Tabualevu'
p344
aS'Isikeli Leweniqila'
p345
aS'Belasio Vukiwai'
p346
aS'Peceli Gale'
p347
aS'Solomoni Rasolea'
p348
aS'Nemani Matirewa'
p349
aS'Tevita Tukunia'
p350
aS'Manasa Saunaki'
p351
aS'Asaeli Hughes'
p352
aS'Bruce Naulago'
p353
aS'Rusiate Cavubulu'
p354
aS'Mosese Nabati'
p355
aS'Jo Qoro'
p356
aS'Tomasi Cama'
p357
aS'Semi Talawadua'
p358
aS'Serupepeli Tuvula'
p359
aS'Aliposo Waqaliti'
p360
aS'Jimi Damu'
p361
aS'Peni Volavola'
p362
aS'Jone Kubu'
p363
aS'Savenaca Aria'
p364
aS'Alifereti Dere Ratu'
p365
aS'Sirilo Lovokuru'
p366
aS'Ifereimi Tawake'
p367
aS'Saula Bueta'
p368
aS'Osea Koliloa'
p369
aS'Viliame Lilidamu'
p370
aS'Tom Mitchell'
p371
aS'Salacieli Naivilawasa'
p372
aS'Pauliasi Tabulutu'
p373
aS'Waisake Turaga'
p374
aS'Fabiano Vakadrano'
p375
aS'Kavekini Nalaga'
p376
aS'Ilaitia Ravouvou'
p377
aS'Peni Tora'
p378
aS'Epineri Naituku'
p379
aS'Manasa Qoro'
p380
aS'John Sanday'
p381
aS'Samu Vunivalu'
p382
aS'Jioji Cama'
p383
aS'Livai Kididromo'
p384
aS'Mosese Taga'
p385
aS'Aisake Nadolo'
p386
aS'Tukeli Nakauta'
p387
aS'Niko Baleiverata'
p388
aS'Kini Malai'
p389
aS'Noa Nadruku'
p390
aS'Ilisoni Naituku'
p391
aS'Pita Naruma'
p392
aS'Max Olsson'
p393
aS'Mesake Rasari'
p394
aS'Kinijoji Sarai'
p395
aS'Sakeasi Vonalagi'
p396
aS'Mesake Seavula'
p397
aS'John Edwards'
p398
aS'Aporosa Ranuku Kenatale'
p399
aS'Waisale Vatubua'
p400
aS'Meli Radrekusa'
p401
aS'Tevita Vonolagi'
p402
aS'Luke Erenavula'
p403
aS'Aminiasi Radrodro'
p404
aS'Isikeli Waqavatu'
p405
aS'Joeli Vulavou'
p406
aS'Waisale Serevi'
p407
aS'Tomasi Lovo'
p408
aS'Lekima Vasuvulagi'
p409
aS'Mosese Natuilagilagi'
p410
aS'Vuata Narisia'
p411
aS'Alipate Rabitu'
p412
aS'Ilie Tabua Tamanivalu'
p413
aS'Timoci Wainiqolo'
p414
aS'Sunia Banuve'
p415
aS'Epeli Naituivau'
p416
aS'Fili Seru'
p417
aS'Vesito Rauluni'
p418
aS'Dranivesi Baleiwei'
p419
aS'Sam Domoni'
p420
aS'Niumaia Korovata'
p421
aS'Waisea Suka'
p422
aS'Opeti Turuva'
p423
aS'Pio Kubuwai'
p424
aS'Kalaveti Naisoro'
p425
aS'Tomasi Rabaka'
p426
aS'Sekove Sadria'
p427
aS'Pita Dau'
p428
aS'Laisenia Katonawale'
p429
aS'Joeli Taqaiwai'
p430
aS'Mosese Vosanibole'
p431
aS'Naibuka Vuli'
p432
aS'Lemeki Koroi'
p433
aS'Sami Rabaka Nasagavesi'
p434
aS'Isaia Rasila'
p435
aS'Viliame Rauluni'
p436
aS'Viliame Sovalevu'
p437
aS'Seta Tawake Naivaluwaqa'
p438
aS'Mesake Navugona'
p439
aS'Sakeasi Verevuni'
p440
aS'Anasa Koroitamana'
p441
aS'Gabirieli Naborisi'
p442
aS'Eliki Tikodraubuta'
p443
aS'Jioji Vatubua'
p444
aS'Aisea Komaitai'
p445
aS'Esala Nauga'
p446
aS'Eparama Tuivunivono'
p447
aS'Joeli Matanatabu'
p448
aS'Waisea Mateiwai'
p449
aS'Apenisa Sassen'
p450
aS'Eminoni Batimala'
p451
aS'Jonas Campbell'
p452
aS'Maka Kafoa'
p453
aS'Alfi Mocelutu Vuivau'
p454
aS'Apisai Mucunabitu'
p455
aS'Gabrieli Penjueli'
p456
aS'Ilaisa Saukuru'
p457
aS'Manasa Sisiwa'
p458
aS'Pat Tuidraki'
p459
aS'Isikeli Basiyalo'
p460
aS'Aloesi Elder'
p461
aS'Livai Rasala'
p462
aS'Joeli Vidiri'
p463
aS'Napolini Vitau'
p464
aS'Rasolosolo Bogisa'
p465
aS'Jason McLennan'
p466
aS'Sitaveni Matalulu'
p467
aS'Filipe Rayasi'
p468
aS'Joni Toloi'
p469
aS'Joeli Veitayaki'
p470
aS'Ron Williams'
p471
aS'Marika Korovou'
p472
a.