(lp1
S'http://www.espnscrum.com/other/rugby/player/3157.html'
p2
aS'http://www.espnscrum.com/other/rugby/player/3158.html'
p3
aS'http://www.espnscrum.com/other/rugby/player/3159.html'
p4
aS'http://www.espnscrum.com/other/rugby/player/3161.html'
p5
aS'http://www.espnscrum.com/other/rugby/player/3162.html'
p6
aS'http://www.espnscrum.com/other/rugby/player/3163.html'
p7
aS'http://www.espnscrum.com/other/rugby/player/3164.html'
p8
aS'http://www.espnscrum.com/other/rugby/player/3165.html'
p9
aS'http://www.espnscrum.com/other/rugby/player/3166.html'
p10
aS'http://www.espnscrum.com/other/rugby/player/3167.html'
p11
aS'http://www.espnscrum.com/other/rugby/player/3168.html'
p12
aS'http://www.espnscrum.com/other/rugby/player/3169.html'
p13
aS'http://www.espnscrum.com/other/rugby/player/3170.html'
p14
aS'http://www.espnscrum.com/other/rugby/player/3171.html'
p15
aS'http://www.espnscrum.com/other/rugby/player/3172.html'
p16
aS'http://www.espnscrum.com/other/rugby/player/3173.html'
p17
aS'http://www.espnscrum.com/other/rugby/player/3174.html'
p18
aS'http://www.espnscrum.com/other/rugby/player/3175.html'
p19
aS'http://www.espnscrum.com/other/rugby/player/3176.html'
p20
aS'http://www.espnscrum.com/other/rugby/player/3177.html'
p21
aS'http://www.espnscrum.com/other/rugby/player/3352.html'
p22
aS'http://www.espnscrum.com/other/rugby/player/3353.html'
p23
aS'http://www.espnscrum.com/other/rugby/player/3355.html'
p24
aS'http://www.espnscrum.com/other/rugby/player/3356.html'
p25
aS'http://www.espnscrum.com/other/rugby/player/3357.html'
p26
aS'http://www.espnscrum.com/other/rugby/player/3358.html'
p27
aS'http://www.espnscrum.com/other/rugby/player/3359.html'
p28
aS'http://www.espnscrum.com/other/rugby/player/3360.html'
p29
aS'http://www.espnscrum.com/other/rugby/player/3362.html'
p30
aS'http://www.espnscrum.com/other/rugby/player/3363.html'
p31
aS'http://www.espnscrum.com/other/rugby/player/3351.html'
p32
aS'http://www.espnscrum.com/other/rugby/player/3361.html'
p33
aS'http://www.espnscrum.com/other/rugby/player/3364.html'
p34
aS'http://www.espnscrum.com/other/rugby/player/3366.html'
p35
aS'http://www.espnscrum.com/other/rugby/player/3368.html'
p36
aS'http://www.espnscrum.com/other/rugby/player/3572.html'
p37
aS'http://www.espnscrum.com/other/rugby/player/3573.html'
p38
aS'http://www.espnscrum.com/other/rugby/player/3574.html'
p39
aS'http://www.espnscrum.com/other/rugby/player/3575.html'
p40
aS'http://www.espnscrum.com/other/rugby/player/3576.html'
p41
aS'http://www.espnscrum.com/other/rugby/player/3577.html'
p42
aS'http://www.espnscrum.com/other/rugby/player/3578.html'
p43
aS'http://www.espnscrum.com/other/rugby/player/3579.html'
p44
aS'http://www.espnscrum.com/other/rugby/player/3581.html'
p45
aS'http://www.espnscrum.com/other/rugby/player/91247.html'
p46
aS'http://www.espnscrum.com/other/rugby/player/4041.html'
p47
aS'http://www.espnscrum.com/other/rugby/player/4042.html'
p48
aS'http://www.espnscrum.com/other/rugby/player/4044.html'
p49
aS'http://www.espnscrum.com/other/rugby/player/4045.html'
p50
aS'http://www.espnscrum.com/other/rugby/player/4047.html'
p51
aS'http://www.espnscrum.com/other/rugby/player/4048.html'
p52
aS'http://www.espnscrum.com/other/rugby/player/4050.html'
p53
aS'http://www.espnscrum.com/other/rugby/player/4053.html'
p54
aS'http://www.espnscrum.com/other/rugby/player/4054.html'
p55
aS'http://www.espnscrum.com/other/rugby/player/4055.html'
p56
aS'http://www.espnscrum.com/other/rugby/player/4056.html'
p57
aS'http://www.espnscrum.com/other/rugby/player/4204.html'
p58
aS'http://www.espnscrum.com/other/rugby/player/4205.html'
p59
aS'http://www.espnscrum.com/other/rugby/player/4206.html'
p60
aS'http://www.espnscrum.com/other/rugby/player/4207.html'
p61
aS'http://www.espnscrum.com/other/rugby/player/4208.html'
p62
aS'http://www.espnscrum.com/other/rugby/player/4209.html'
p63
aS'http://www.espnscrum.com/other/rugby/player/4216.html'
p64
aS'http://www.espnscrum.com/other/rugby/player/4217.html'
p65
aS'http://www.espnscrum.com/other/rugby/player/4218.html'
p66
aS'http://www.espnscrum.com/other/rugby/player/4632.html'
p67
aS'http://www.espnscrum.com/other/rugby/player/4637.html'
p68
aS'http://www.espnscrum.com/other/rugby/player/4641.html'
p69
aS'http://www.espnscrum.com/other/rugby/player/4643.html'
p70
aS'http://www.espnscrum.com/other/rugby/player/4051.html'
p71
aS'http://www.espnscrum.com/other/rugby/player/4647.html'
p72
aS'http://www.espnscrum.com/other/rugby/player/4648.html'
p73
aS'http://www.espnscrum.com/other/rugby/player/4649.html'
p74
aS'http://www.espnscrum.com/other/rugby/player/4650.html'
p75
aS'http://www.espnscrum.com/other/rugby/player/4664.html'
p76
aS'http://www.espnscrum.com/other/rugby/player/4665.html'
p77
aS'http://www.espnscrum.com/other/rugby/player/4719.html'
p78
aS'http://www.espnscrum.com/other/rugby/player/4720.html'
p79
aS'http://www.espnscrum.com/other/rugby/player/4721.html'
p80
aS'http://www.espnscrum.com/other/rugby/player/4725.html'
p81
aS'http://www.espnscrum.com/other/rugby/player/4726.html'
p82
aS'http://www.espnscrum.com/other/rugby/player/4728.html'
p83
aS'http://www.espnscrum.com/other/rugby/player/4730.html'
p84
aS'http://www.espnscrum.com/other/rugby/player/4983.html'
p85
aS'http://www.espnscrum.com/other/rugby/player/4984.html'
p86
aS'http://www.espnscrum.com/other/rugby/player/4985.html'
p87
aS'http://www.espnscrum.com/other/rugby/player/4986.html'
p88
aS'http://www.espnscrum.com/other/rugby/player/4987.html'
p89
aS'http://www.espnscrum.com/other/rugby/player/4988.html'
p90
aS'http://www.espnscrum.com/other/rugby/player/4989.html'
p91
aS'http://www.espnscrum.com/other/rugby/player/4990.html'
p92
aS'http://www.espnscrum.com/other/rugby/player/4993.html'
p93
aS'http://www.espnscrum.com/other/rugby/player/4994.html'
p94
aS'http://www.espnscrum.com/other/rugby/player/4996.html'
p95
aS'http://www.espnscrum.com/other/rugby/player/4997.html'
p96
aS'http://www.espnscrum.com/other/rugby/player/4992.html'
p97
aS'http://www.espnscrum.com/other/rugby/player/4995.html'
p98
aS'http://www.espnscrum.com/other/rugby/player/5081.html'
p99
aS'http://www.espnscrum.com/other/rugby/player/5082.html'
p100
aS'http://www.espnscrum.com/other/rugby/player/5085.html'
p101
aS'http://www.espnscrum.com/other/rugby/player/5087.html'
p102
aS'http://www.espnscrum.com/other/rugby/player/5088.html'
p103
aS'http://www.espnscrum.com/other/rugby/player/5089.html'
p104
aS'http://www.espnscrum.com/other/rugby/player/5090.html'
p105
aS'http://www.espnscrum.com/other/rugby/player/5091.html'
p106
aS'http://www.espnscrum.com/other/rugby/player/5094.html'
p107
aS'http://www.espnscrum.com/other/rugby/player/5095.html'
p108
aS'http://www.espnscrum.com/other/rugby/player/5434.html'
p109
aS'http://www.espnscrum.com/other/rugby/player/5436.html'
p110
aS'http://www.espnscrum.com/other/rugby/player/5439.html'
p111
aS'http://www.espnscrum.com/other/rugby/player/5444.html'
p112
aS'http://www.espnscrum.com/other/rugby/player/5445.html'
p113
aS'http://www.espnscrum.com/other/rugby/player/5446.html'
p114
aS'http://www.espnscrum.com/other/rugby/player/5450.html'
p115
aS'http://www.espnscrum.com/other/rugby/player/5451.html'
p116
aS'http://www.espnscrum.com/other/rugby/player/5452.html'
p117
aS'http://www.espnscrum.com/other/rugby/player/5456.html'
p118
aS'http://www.espnscrum.com/other/rugby/player/5457.html'
p119
aS'http://www.espnscrum.com/other/rugby/player/5458.html'
p120
aS'http://www.espnscrum.com/other/rugby/player/5449.html'
p121
aS'http://www.espnscrum.com/other/rugby/player/5455.html'
p122
aS'http://www.espnscrum.com/other/rugby/player/5571.html'
p123
aS'http://www.espnscrum.com/other/rugby/player/5572.html'
p124
aS'http://www.espnscrum.com/other/rugby/player/5574.html'
p125
aS'http://www.espnscrum.com/other/rugby/player/5575.html'
p126
aS'http://www.espnscrum.com/other/rugby/player/5821.html'
p127
aS'http://www.espnscrum.com/other/rugby/player/5822.html'
p128
aS'http://www.espnscrum.com/other/rugby/player/5825.html'
p129
aS'http://www.espnscrum.com/other/rugby/player/5826.html'
p130
aS'http://www.espnscrum.com/other/rugby/player/5828.html'
p131
aS'http://www.espnscrum.com/other/rugby/player/5829.html'
p132
aS'http://www.espnscrum.com/other/rugby/player/5840.html'
p133
aS'http://www.espnscrum.com/other/rugby/player/5843.html'
p134
aS'http://www.espnscrum.com/other/rugby/player/5845.html'
p135
aS'http://www.espnscrum.com/other/rugby/player/5850.html'
p136
aS'http://www.espnscrum.com/other/rugby/player/5931.html'
p137
aS'http://www.espnscrum.com/other/rugby/player/6168.html'
p138
aS'http://www.espnscrum.com/other/rugby/player/6169.html'
p139
aS'http://www.espnscrum.com/other/rugby/player/6170.html'
p140
aS'http://www.espnscrum.com/other/rugby/player/6171.html'
p141
aS'http://www.espnscrum.com/other/rugby/player/5933.html'
p142
aS'http://www.espnscrum.com/other/rugby/player/5934.html'
p143
aS'http://www.espnscrum.com/other/rugby/player/5935.html'
p144
aS'http://www.espnscrum.com/other/rugby/player/5936.html'
p145
aS'http://www.espnscrum.com/other/rugby/player/6175.html'
p146
aS'http://www.espnscrum.com/other/rugby/player/6181.html'
p147
aS'http://www.espnscrum.com/other/rugby/player/5939.html'
p148
aS'http://www.espnscrum.com/other/rugby/player/6285.html'
p149
aS'http://www.espnscrum.com/other/rugby/player/6287.html'
p150
aS'http://www.espnscrum.com/other/rugby/player/6288.html'
p151
aS'http://www.espnscrum.com/other/rugby/player/6289.html'
p152
aS'http://www.espnscrum.com/other/rugby/player/6286.html'
p153
aS'http://www.espnscrum.com/other/rugby/player/6290.html'
p154
aS'http://www.espnscrum.com/other/rugby/player/6292.html'
p155
aS'http://www.espnscrum.com/other/rugby/player/6291.html'
p156
aS'http://www.espnscrum.com/other/rugby/player/6293.html'
p157
aS'http://www.espnscrum.com/other/rugby/player/6435.html'
p158
aS'http://www.espnscrum.com/other/rugby/player/6436.html'
p159
aS'http://www.espnscrum.com/other/rugby/player/6603.html'
p160
aS'http://www.espnscrum.com/other/rugby/player/6605.html'
p161
aS'http://www.espnscrum.com/other/rugby/player/6609.html'
p162
aS'http://www.espnscrum.com/other/rugby/player/6610.html'
p163
aS'http://www.espnscrum.com/other/rugby/player/6612.html'
p164
aS'http://www.espnscrum.com/other/rugby/player/6613.html'
p165
aS'http://www.espnscrum.com/other/rugby/player/6614.html'
p166
aS'http://www.espnscrum.com/other/rugby/player/6615.html'
p167
aS'http://www.espnscrum.com/other/rugby/player/6619.html'
p168
aS'http://www.espnscrum.com/other/rugby/player/6621.html'
p169
aS'http://www.espnscrum.com/other/rugby/player/6623.html'
p170
aS'http://www.espnscrum.com/other/rugby/player/6624.html'
p171
aS'http://www.espnscrum.com/other/rugby/player/6836.html'
p172
aS'http://www.espnscrum.com/other/rugby/player/6837.html'
p173
aS'http://www.espnscrum.com/other/rugby/player/6838.html'
p174
aS'http://www.espnscrum.com/other/rugby/player/6841.html'
p175
aS'http://www.espnscrum.com/other/rugby/player/6842.html'
p176
aS'http://www.espnscrum.com/other/rugby/player/6843.html'
p177
aS'http://www.espnscrum.com/other/rugby/player/6845.html'
p178
aS'http://www.espnscrum.com/other/rugby/player/6847.html'
p179
aS'http://www.espnscrum.com/other/rugby/player/6839.html'
p180
aS'http://www.espnscrum.com/other/rugby/player/6846.html'
p181
aS'http://www.espnscrum.com/other/rugby/player/6848.html'
p182
aS'http://www.espnscrum.com/other/rugby/player/6840.html'
p183
aS'http://www.espnscrum.com/other/rugby/player/6917.html'
p184
aS'http://www.espnscrum.com/other/rugby/player/6918.html'
p185
aS'http://www.espnscrum.com/other/rugby/player/6947.html'
p186
aS'http://www.espnscrum.com/other/rugby/player/6952.html'
p187
aS'http://www.espnscrum.com/other/rugby/player/6953.html'
p188
aS'http://www.espnscrum.com/other/rugby/player/6954.html'
p189
aS'http://www.espnscrum.com/other/rugby/player/6955.html'
p190
aS'http://www.espnscrum.com/other/rugby/player/6956.html'
p191
aS'http://www.espnscrum.com/other/rugby/player/6958.html'
p192
aS'http://www.espnscrum.com/other/rugby/player/7258.html'
p193
aS'http://www.espnscrum.com/other/rugby/player/7259.html'
p194
aS'http://www.espnscrum.com/other/rugby/player/7260.html'
p195
aS'http://www.espnscrum.com/other/rugby/player/7261.html'
p196
aS'http://www.espnscrum.com/other/rugby/player/7262.html'
p197
aS'http://www.espnscrum.com/other/rugby/player/7263.html'
p198
aS'http://www.espnscrum.com/other/rugby/player/7265.html'
p199
aS'http://www.espnscrum.com/other/rugby/player/7267.html'
p200
aS'http://www.espnscrum.com/other/rugby/player/7268.html'
p201
aS'http://www.espnscrum.com/other/rugby/player/7274.html'
p202
aS'http://www.espnscrum.com/other/rugby/player/7266.html'
p203
aS'http://www.espnscrum.com/other/rugby/player/7277.html'
p204
aS'http://www.espnscrum.com/other/rugby/player/7279.html'
p205
aS'http://www.espnscrum.com/other/rugby/player/7400.html'
p206
aS'http://www.espnscrum.com/other/rugby/player/7402.html'
p207
aS'http://www.espnscrum.com/other/rugby/player/7403.html'
p208
aS'http://www.espnscrum.com/other/rugby/player/7404.html'
p209
aS'http://www.espnscrum.com/other/rugby/player/7408.html'
p210
aS'http://www.espnscrum.com/other/rugby/player/7409.html'
p211
aS'http://www.espnscrum.com/other/rugby/player/7407.html'
p212
aS'http://www.espnscrum.com/other/rugby/player/7419.html'
p213
aS'http://www.espnscrum.com/other/rugby/player/7423.html'
p214
aS'http://www.espnscrum.com/other/rugby/player/7424.html'
p215
aS'http://www.espnscrum.com/other/rugby/player/7425.html'
p216
aS'http://www.espnscrum.com/other/rugby/player/7421.html'
p217
aS'http://www.espnscrum.com/other/rugby/player/7428.html'
p218
aS'http://www.espnscrum.com/other/rugby/player/7430.html'
p219
aS'http://www.espnscrum.com/other/rugby/player/7420.html'
p220
aS'http://www.espnscrum.com/other/rugby/player/7431.html'
p221
aS'http://www.espnscrum.com/other/rugby/player/7532.html'
p222
aS'http://www.espnscrum.com/other/rugby/player/7533.html'
p223
aS'http://www.espnscrum.com/other/rugby/player/7429.html'
p224
aS'http://www.espnscrum.com/other/rugby/player/7534.html'
p225
aS'http://www.espnscrum.com/other/rugby/player/7540.html'
p226
aS'http://www.espnscrum.com/other/rugby/player/7541.html'
p227
aS'http://www.espnscrum.com/other/rugby/player/7654.html'
p228
aS'http://www.espnscrum.com/other/rugby/player/7655.html'
p229
aS'http://www.espnscrum.com/other/rugby/player/7658.html'
p230
aS'http://www.espnscrum.com/other/rugby/player/7685.html'
p231
aS'http://www.espnscrum.com/other/rugby/player/7686.html'
p232
aS'http://www.espnscrum.com/other/rugby/player/7691.html'
p233
aS'http://www.espnscrum.com/other/rugby/player/7692.html'
p234
aS'http://www.espnscrum.com/other/rugby/player/7698.html'
p235
aS'http://www.espnscrum.com/other/rugby/player/7652.html'
p236
aS'http://www.espnscrum.com/other/rugby/player/7938.html'
p237
aS'http://www.espnscrum.com/other/rugby/player/7422.html'
p238
aS'http://www.espnscrum.com/other/rugby/player/7939.html'
p239
aS'http://www.espnscrum.com/other/rugby/player/7940.html'
p240
aS'http://www.espnscrum.com/other/rugby/player/7957.html'
p241
aS'http://www.espnscrum.com/other/rugby/player/7937.html'
p242
aS'http://www.espnscrum.com/other/rugby/player/8061.html'
p243
aS'http://www.espnscrum.com/other/rugby/player/8062.html'
p244
aS'http://www.espnscrum.com/other/rugby/player/8064.html'
p245
aS'http://www.espnscrum.com/other/rugby/player/8078.html'
p246
aS'http://www.espnscrum.com/other/rugby/player/8105.html'
p247
aS'http://www.espnscrum.com/other/rugby/player/7401.html'
p248
aS'http://www.espnscrum.com/other/rugby/player/8107.html'
p249
aS'http://www.espnscrum.com/other/rugby/player/8109.html'
p250
aS'http://www.espnscrum.com/other/rugby/player/8274.html'
p251
aS'http://www.espnscrum.com/other/rugby/player/6914.html'
p252
aS'http://www.espnscrum.com/other/rugby/player/8277.html'
p253
aS'http://www.espnscrum.com/other/rugby/player/8278.html'
p254
aS'http://www.espnscrum.com/other/rugby/player/8298.html'
p255
aS'http://www.espnscrum.com/other/rugby/player/8297.html'
p256
aS'http://www.espnscrum.com/other/rugby/player/8108.html'
p257
aS'http://www.espnscrum.com/other/rugby/player/8300.html'
p258
aS'http://www.espnscrum.com/other/rugby/player/7935.html'
p259
aS'http://www.espnscrum.com/other/rugby/player/8528.html'
p260
aS'http://www.espnscrum.com/other/rugby/player/8531.html'
p261
aS'http://www.espnscrum.com/other/rugby/player/8536.html'
p262
aS'http://www.espnscrum.com/other/rugby/player/8538.html'
p263
aS'http://www.espnscrum.com/other/rugby/player/8539.html'
p264
aS'http://www.espnscrum.com/other/rugby/player/8540.html'
p265
aS'http://www.espnscrum.com/other/rugby/player/8541.html'
p266
aS'http://www.espnscrum.com/other/rugby/player/8530.html'
p267
aS'http://www.espnscrum.com/other/rugby/player/8533.html'
p268
aS'http://www.espnscrum.com/other/rugby/player/8537.html'
p269
aS'http://www.espnscrum.com/other/rugby/player/8549.html'
p270
aS'http://www.espnscrum.com/other/rugby/player/8551.html'
p271
aS'http://www.espnscrum.com/other/rugby/player/8555.html'
p272
aS'http://www.espnscrum.com/other/rugby/player/8299.html'
p273
aS'http://www.espnscrum.com/other/rugby/player/8559.html'
p274
aS'http://www.espnscrum.com/other/rugby/player/8561.html'
p275
aS'http://www.espnscrum.com/other/rugby/player/8565.html'
p276
aS'http://www.espnscrum.com/other/rugby/player/8567.html'
p277
aS'http://www.espnscrum.com/other/rugby/player/8569.html'
p278
aS'http://www.espnscrum.com/other/rugby/player/8731.html'
p279
aS'http://www.espnscrum.com/other/rugby/player/8732.html'
p280
aS'http://www.espnscrum.com/other/rugby/player/8733.html'
p281
aS'http://www.espnscrum.com/other/rugby/player/8734.html'
p282
aS'http://www.espnscrum.com/other/rugby/player/8970.html'
p283
aS'http://www.espnscrum.com/other/rugby/player/8974.html'
p284
aS'http://www.espnscrum.com/other/rugby/player/8972.html'
p285
aS'http://www.espnscrum.com/other/rugby/player/8971.html'
p286
aS'http://www.espnscrum.com/other/rugby/player/8973.html'
p287
aS'http://www.espnscrum.com/other/rugby/player/8975.html'
p288
aS'http://www.espnscrum.com/other/rugby/player/9001.html'
p289
aS'http://www.espnscrum.com/other/rugby/player/9010.html'
p290
aS'http://www.espnscrum.com/other/rugby/player/9011.html'
p291
aS'http://www.espnscrum.com/other/rugby/player/9012.html'
p292
aS'http://www.espnscrum.com/other/rugby/player/9019.html'
p293
aS'http://www.espnscrum.com/other/rugby/player/9178.html'
p294
aS'http://www.espnscrum.com/other/rugby/player/9183.html'
p295
aS'http://www.espnscrum.com/other/rugby/player/9184.html'
p296
aS'http://www.espnscrum.com/other/rugby/player/9190.html'
p297
aS'http://www.espnscrum.com/other/rugby/player/9191.html'
p298
aS'http://www.espnscrum.com/other/rugby/player/9192.html'
p299
aS'http://www.espnscrum.com/other/rugby/player/9193.html'
p300
aS'http://www.espnscrum.com/other/rugby/player/9173.html'
p301
aS'http://www.espnscrum.com/other/rugby/player/9237.html'
p302
aS'http://www.espnscrum.com/other/rugby/player/9240.html'
p303
aS'http://www.espnscrum.com/other/rugby/player/9241.html'
p304
aS'http://www.espnscrum.com/other/rugby/player/9244.html'
p305
aS'http://www.espnscrum.com/other/rugby/player/8527.html'
p306
aS'http://www.espnscrum.com/other/rugby/player/9250.html'
p307
aS'http://www.espnscrum.com/other/rugby/player/9252.html'
p308
aS'http://www.espnscrum.com/other/rugby/player/9341.html'
p309
aS'http://www.espnscrum.com/other/rugby/player/9342.html'
p310
aS'http://www.espnscrum.com/other/rugby/player/9343.html'
p311
aS'http://www.espnscrum.com/other/rugby/player/9344.html'
p312
aS'http://www.espnscrum.com/other/rugby/player/9345.html'
p313
aS'http://www.espnscrum.com/other/rugby/player/9353.html'
p314
aS'http://www.espnscrum.com/other/rugby/player/9354.html'
p315
aS'http://www.espnscrum.com/other/rugby/player/9357.html'
p316
aS'http://www.espnscrum.com/other/rugby/player/9463.html'
p317
aS'http://www.espnscrum.com/other/rugby/player/9464.html'
p318
aS'http://www.espnscrum.com/other/rugby/player/9466.html'
p319
aS'http://www.espnscrum.com/other/rugby/player/9470.html'
p320
aS'http://www.espnscrum.com/other/rugby/player/9461.html'
p321
aS'http://www.espnscrum.com/other/rugby/player/9482.html'
p322
aS'http://www.espnscrum.com/other/rugby/player/9483.html'
p323
aS'http://www.espnscrum.com/other/rugby/player/9460.html'
p324
aS'http://www.espnscrum.com/other/rugby/player/9484.html'
p325
aS'http://www.espnscrum.com/other/rugby/player/9485.html'
p326
aS'http://www.espnscrum.com/other/rugby/player/9462.html'
p327
aS'http://www.espnscrum.com/other/rugby/player/9507.html'
p328
aS'http://www.espnscrum.com/other/rugby/player/9508.html'
p329
aS'http://www.espnscrum.com/other/rugby/player/9346.html'
p330
aS'http://www.espnscrum.com/other/rugby/player/9593.html'
p331
aS'http://www.espnscrum.com/other/rugby/player/9595.html'
p332
aS'http://www.espnscrum.com/other/rugby/player/9598.html'
p333
aS'http://www.espnscrum.com/other/rugby/player/9600.html'
p334
aS'http://www.espnscrum.com/other/rugby/player/9592.html'
p335
aS'http://www.espnscrum.com/other/rugby/player/9596.html'
p336
aS'http://www.espnscrum.com/other/rugby/player/9599.html'
p337
aS'http://www.espnscrum.com/other/rugby/player/9597.html'
p338
aS'http://www.espnscrum.com/other/rugby/player/9594.html'
p339
aS'http://www.espnscrum.com/other/rugby/player/9764.html'
p340
aS'http://www.espnscrum.com/other/rugby/player/9768.html'
p341
aS'http://www.espnscrum.com/other/rugby/player/9773.html'
p342
aS'http://www.espnscrum.com/other/rugby/player/9771.html'
p343
aS'http://www.espnscrum.com/other/rugby/player/9777.html'
p344
aS'http://www.espnscrum.com/other/rugby/player/9778.html'
p345
aS'http://www.espnscrum.com/other/rugby/player/9779.html'
p346
aS'http://www.espnscrum.com/other/rugby/player/9781.html'
p347
aS'http://www.espnscrum.com/other/rugby/player/9784.html'
p348
aS'http://www.espnscrum.com/other/rugby/player/9783.html'
p349
aS'http://www.espnscrum.com/other/rugby/player/9785.html'
p350
aS'http://www.espnscrum.com/other/rugby/player/9808.html'
p351
aS'http://www.espnscrum.com/other/rugby/player/9903.html'
p352
aS'http://www.espnscrum.com/other/rugby/player/9906.html'
p353
aS'http://www.espnscrum.com/other/rugby/player/9912.html'
p354
aS'http://www.espnscrum.com/other/rugby/player/9917.html'
p355
aS'http://www.espnscrum.com/other/rugby/player/9918.html'
p356
aS'http://www.espnscrum.com/other/rugby/player/9939.html'
p357
aS'http://www.espnscrum.com/other/rugby/player/9942.html'
p358
aS'http://www.espnscrum.com/other/rugby/player/9944.html'
p359
aS'http://www.espnscrum.com/other/rugby/player/9608.html'
p360
aS'http://www.espnscrum.com/other/rugby/player/9954.html'
p361
aS'http://www.espnscrum.com/other/rugby/player/9960.html'
p362
aS'http://www.espnscrum.com/other/rugby/player/9955.html'
p363
aS'http://www.espnscrum.com/other/rugby/player/10031.html'
p364
aS'http://www.espnscrum.com/other/rugby/player/10034.html'
p365
aS'http://www.espnscrum.com/other/rugby/player/10038.html'
p366
aS'http://www.espnscrum.com/other/rugby/player/9959.html'
p367
aS'http://www.espnscrum.com/other/rugby/player/10088.html'
p368
aS'http://www.espnscrum.com/other/rugby/player/10093.html'
p369
aS'http://www.espnscrum.com/other/rugby/player/10094.html'
p370
aS'http://www.espnscrum.com/other/rugby/player/10096.html'
p371
aS'http://www.espnscrum.com/other/rugby/player/10097.html'
p372
aS'http://www.espnscrum.com/other/rugby/player/10099.html'
p373
aS'http://www.espnscrum.com/other/rugby/player/10100.html'
p374
aS'http://www.espnscrum.com/other/rugby/player/9809.html'
p375
aS'http://www.espnscrum.com/other/rugby/player/10102.html'
p376
aS'http://www.espnscrum.com/other/rugby/player/10103.html'
p377
aS'http://www.espnscrum.com/other/rugby/player/10104.html'
p378
aS'http://www.espnscrum.com/other/rugby/player/10231.html'
p379
aS'http://www.espnscrum.com/other/rugby/player/10232.html'
p380
aS'http://www.espnscrum.com/other/rugby/player/10234.html'
p381
aS'http://www.espnscrum.com/other/rugby/player/10242.html'
p382
aS'http://www.espnscrum.com/other/rugby/player/10246.html'
p383
aS'http://www.espnscrum.com/other/rugby/player/10225.html'
p384
aS'http://www.espnscrum.com/other/rugby/player/10247.html'
p385
aS'http://www.espnscrum.com/other/rugby/player/10258.html'
p386
aS'http://www.espnscrum.com/other/rugby/player/10279.html'
p387
aS'http://www.espnscrum.com/other/rugby/player/10386.html'
p388
aS'http://www.espnscrum.com/other/rugby/player/10387.html'
p389
aS'http://www.espnscrum.com/other/rugby/player/10388.html'
p390
aS'http://www.espnscrum.com/other/rugby/player/10389.html'
p391
aS'http://www.espnscrum.com/other/rugby/player/10390.html'
p392
aS'http://www.espnscrum.com/other/rugby/player/10391.html'
p393
aS'http://www.espnscrum.com/other/rugby/player/10392.html'
p394
aS'http://www.espnscrum.com/other/rugby/player/10393.html'
p395
aS'http://www.espnscrum.com/other/rugby/player/10394.html'
p396
aS'http://www.espnscrum.com/other/rugby/player/10396.html'
p397
aS'http://www.espnscrum.com/other/rugby/player/10421.html'
p398
aS'http://www.espnscrum.com/other/rugby/player/10422.html'
p399
aS'http://www.espnscrum.com/other/rugby/player/10424.html'
p400
aS'http://www.espnscrum.com/other/rugby/player/10463.html'
p401
aS'http://www.espnscrum.com/other/rugby/player/10464.html'
p402
aS'http://www.espnscrum.com/other/rugby/player/10585.html'
p403
aS'http://www.espnscrum.com/other/rugby/player/10588.html'
p404
aS'http://www.espnscrum.com/other/rugby/player/10590.html'
p405
aS'http://www.espnscrum.com/other/rugby/player/10593.html'
p406
aS'http://www.espnscrum.com/other/rugby/player/10648.html'
p407
aS'http://www.espnscrum.com/other/rugby/player/10662.html'
p408
aS'http://www.espnscrum.com/other/rugby/player/9487.html'
p409
aS'http://www.espnscrum.com/other/rugby/player/10676.html'
p410
aS'http://www.espnscrum.com/other/rugby/player/10715.html'
p411
aS'http://www.espnscrum.com/other/rugby/player/10717.html'
p412
aS'http://www.espnscrum.com/other/rugby/player/10718.html'
p413
aS'http://www.espnscrum.com/other/rugby/player/10682.html'
p414
aS'http://www.espnscrum.com/other/rugby/player/10721.html'
p415
aS'http://www.espnscrum.com/other/rugby/player/10728.html'
p416
aS'http://www.espnscrum.com/other/rugby/player/10731.html'
p417
aS'http://www.espnscrum.com/other/rugby/player/10868.html'
p418
aS'http://www.espnscrum.com/other/rugby/player/10938.html'
p419
aS'http://www.espnscrum.com/other/rugby/player/10939.html'
p420
aS'http://www.espnscrum.com/other/rugby/player/10940.html'
p421
aS'http://www.espnscrum.com/other/rugby/player/10941.html'
p422
aS'http://www.espnscrum.com/other/rugby/player/10942.html'
p423
aS'http://www.espnscrum.com/other/rugby/player/10997.html'
p424
aS'http://www.espnscrum.com/other/rugby/player/11000.html'
p425
aS'http://www.espnscrum.com/other/rugby/player/11004.html'
p426
aS'http://www.espnscrum.com/other/rugby/player/11005.html'
p427
aS'http://www.espnscrum.com/other/rugby/player/10993.html'
p428
aS'http://www.espnscrum.com/other/rugby/player/11011.html'
p429
aS'http://www.espnscrum.com/other/rugby/player/11016.html'
p430
aS'http://www.espnscrum.com/other/rugby/player/11007.html'
p431
aS'http://www.espnscrum.com/other/rugby/player/11008.html'
p432
aS'http://www.espnscrum.com/other/rugby/player/11225.html'
p433
aS'http://www.espnscrum.com/other/rugby/player/11229.html'
p434
aS'http://www.espnscrum.com/other/rugby/player/11230.html'
p435
aS'http://www.espnscrum.com/other/rugby/player/11231.html'
p436
aS'http://www.espnscrum.com/other/rugby/player/11233.html'
p437
aS'http://www.espnscrum.com/other/rugby/player/11234.html'
p438
aS'http://www.espnscrum.com/other/rugby/player/11228.html'
p439
aS'http://www.espnscrum.com/other/rugby/player/11238.html'
p440
aS'http://www.espnscrum.com/other/rugby/player/11226.html'
p441
aS'http://www.espnscrum.com/other/rugby/player/11265.html'
p442
aS'http://www.espnscrum.com/other/rugby/player/11235.html'
p443
aS'http://www.espnscrum.com/other/rugby/player/11273.html'
p444
aS'http://www.espnscrum.com/other/rugby/player/11352.html'
p445
aS'http://www.espnscrum.com/other/rugby/player/11356.html'
p446
aS'http://www.espnscrum.com/other/rugby/player/11271.html'
p447
aS'http://www.espnscrum.com/other/rugby/player/11505.html'
p448
aS'http://www.espnscrum.com/other/rugby/player/11506.html'
p449
aS'http://www.espnscrum.com/other/rugby/player/11268.html'
p450
aS'http://www.espnscrum.com/other/rugby/player/11740.html'
p451
aS'http://www.espnscrum.com/other/rugby/player/11741.html'
p452
aS'http://www.espnscrum.com/other/rugby/player/11743.html'
p453
aS'http://www.espnscrum.com/other/rugby/player/11486.html'
p454
aS'http://www.espnscrum.com/other/rugby/player/11744.html'
p455
aS'http://www.espnscrum.com/other/rugby/player/11746.html'
p456
aS'http://www.espnscrum.com/other/rugby/player/11748.html'
p457
aS'http://www.espnscrum.com/other/rugby/player/11566.html'
p458
aS'http://www.espnscrum.com/other/rugby/player/11749.html'
p459
aS'http://www.espnscrum.com/other/rugby/player/12463.html'
p460
aS'http://www.espnscrum.com/other/rugby/player/11742.html'
p461
aS'http://www.espnscrum.com/other/rugby/player/11747.html'
p462
aS'http://www.espnscrum.com/other/rugby/player/11750.html'
p463
aS'http://www.espnscrum.com/other/rugby/player/11751.html'
p464
aS'http://www.espnscrum.com/other/rugby/player/11754.html'
p465
aS'http://www.espnscrum.com/other/rugby/player/11783.html'
p466
aS'http://www.espnscrum.com/other/rugby/player/11756.html'
p467
aS'http://www.espnscrum.com/other/rugby/player/11788.html'
p468
aS'http://www.espnscrum.com/other/rugby/player/11791.html'
p469
aS'http://www.espnscrum.com/other/rugby/player/11794.html'
p470
aS'http://www.espnscrum.com/other/rugby/player/11837.html'
p471
aS'http://www.espnscrum.com/other/rugby/player/11778.html'
p472
aS'http://www.espnscrum.com/other/rugby/player/11982.html'
p473
aS'http://www.espnscrum.com/other/rugby/player/11985.html'
p474
aS'http://www.espnscrum.com/other/rugby/player/11987.html'
p475
aS'http://www.espnscrum.com/other/rugby/player/11988.html'
p476
aS'http://www.espnscrum.com/other/rugby/player/11984.html'
p477
aS'http://www.espnscrum.com/other/rugby/player/11986.html'
p478
aS'http://www.espnscrum.com/other/rugby/player/12057.html'
p479
aS'http://www.espnscrum.com/other/rugby/player/12058.html'
p480
aS'http://www.espnscrum.com/other/rugby/player/11227.html'
p481
aS'http://www.espnscrum.com/other/rugby/player/12123.html'
p482
aS'http://www.espnscrum.com/other/rugby/player/12124.html'
p483
aS'http://www.espnscrum.com/other/rugby/player/12066.html'
p484
aS'http://www.espnscrum.com/other/rugby/player/12289.html'
p485
aS'http://www.espnscrum.com/other/rugby/player/12290.html'
p486
aS'http://www.espnscrum.com/other/rugby/player/12292.html'
p487
aS'http://www.espnscrum.com/other/rugby/player/12293.html'
p488
aS'http://www.espnscrum.com/other/rugby/player/12300.html'
p489
aS'http://www.espnscrum.com/other/rugby/player/12347.html'
p490
aS'http://www.espnscrum.com/other/rugby/player/12358.html'
p491
aS'http://www.espnscrum.com/other/rugby/player/12348.html'
p492
aS'http://www.espnscrum.com/other/rugby/player/12357.html'
p493
aS'http://www.espnscrum.com/other/rugby/player/12361.html'
p494
aS'http://www.espnscrum.com/other/rugby/player/12362.html'
p495
aS'http://www.espnscrum.com/other/rugby/player/12374.html'
p496
aS'http://www.espnscrum.com/other/rugby/player/12542.html'
p497
aS'http://www.espnscrum.com/other/rugby/player/12546.html'
p498
aS'http://www.espnscrum.com/other/rugby/player/12549.html'
p499
aS'http://www.espnscrum.com/other/rugby/player/12851.html'
p500
aS'http://www.espnscrum.com/other/rugby/player/12848.html'
p501
aS'http://www.espnscrum.com/other/rugby/player/12850.html'
p502
aS'http://www.espnscrum.com/other/rugby/player/12929.html'
p503
aS'http://www.espnscrum.com/other/rugby/player/11501.html'
p504
aS'http://www.espnscrum.com/other/rugby/player/12991.html'
p505
aS'http://www.espnscrum.com/other/rugby/player/13141.html'
p506
aS'http://www.espnscrum.com/other/rugby/player/13142.html'
p507
aS'http://www.espnscrum.com/other/rugby/player/13143.html'
p508
aS'http://www.espnscrum.com/other/rugby/player/13144.html'
p509
aS'http://www.espnscrum.com/other/rugby/player/13151.html'
p510
aS'http://www.espnscrum.com/other/rugby/player/11359.html'
p511
aS'http://www.espnscrum.com/other/rugby/player/13189.html'
p512
aS'http://www.espnscrum.com/other/rugby/player/13200.html'
p513
aS'http://www.espnscrum.com/other/rugby/player/13227.html'
p514
aS'http://www.espnscrum.com/other/rugby/player/13228.html'
p515
aS'http://www.espnscrum.com/other/rugby/player/13234.html'
p516
aS'http://www.espnscrum.com/other/rugby/player/13370.html'
p517
aS'http://www.espnscrum.com/other/rugby/player/13377.html'
p518
aS'http://www.espnscrum.com/other/rugby/player/13381.html'
p519
aS'http://www.espnscrum.com/other/rugby/player/13348.html'
p520
aS'http://www.espnscrum.com/other/rugby/player/13351.html'
p521
aS'http://www.espnscrum.com/other/rugby/player/13355.html'
p522
aS'http://www.espnscrum.com/other/rugby/player/13371.html'
p523
aS'http://www.espnscrum.com/other/rugby/player/13376.html'
p524
aS'http://www.espnscrum.com/other/rugby/player/13385.html'
p525
aS'http://www.espnscrum.com/other/rugby/player/13388.html'
p526
aS'http://www.espnscrum.com/other/rugby/player/13390.html'
p527
aS'http://www.espnscrum.com/other/rugby/player/13455.html'
p528
aS'http://www.espnscrum.com/other/rugby/player/13458.html'
p529
aS'http://www.espnscrum.com/other/rugby/player/13459.html'
p530
aS'http://www.espnscrum.com/other/rugby/player/11345.html'
p531
aS'http://www.espnscrum.com/other/rugby/player/13634.html'
p532
aS'http://www.espnscrum.com/other/rugby/player/13637.html'
p533
aS'http://www.espnscrum.com/other/rugby/player/13656.html'
p534
aS'http://www.espnscrum.com/other/rugby/player/13680.html'
p535
aS'http://www.espnscrum.com/other/rugby/player/13708.html'
p536
aS'http://www.espnscrum.com/other/rugby/player/13693.html'
p537
aS'http://www.espnscrum.com/other/rugby/player/13709.html'
p538
aS'http://www.espnscrum.com/other/rugby/player/13747.html'
p539
aS'http://www.espnscrum.com/other/rugby/player/13748.html'
p540
aS'http://www.espnscrum.com/other/rugby/player/13758.html'
p541
aS'http://www.espnscrum.com/other/rugby/player/13811.html'
p542
aS'http://www.espnscrum.com/other/rugby/player/13818.html'
p543
aS'http://www.espnscrum.com/other/rugby/player/13823.html'
p544
aS'http://www.espnscrum.com/other/rugby/player/13933.html'
p545
aS'http://www.espnscrum.com/other/rugby/player/13935.html'
p546
aS'http://www.espnscrum.com/other/rugby/player/13936.html'
p547
aS'http://www.espnscrum.com/other/rugby/player/13937.html'
p548
aS'http://www.espnscrum.com/other/rugby/player/13938.html'
p549
aS'http://www.espnscrum.com/other/rugby/player/13943.html'
p550
aS'http://www.espnscrum.com/other/rugby/player/13944.html'
p551
aS'http://www.espnscrum.com/other/rugby/player/14111.html'
p552
aS'http://www.espnscrum.com/other/rugby/player/14110.html'
p553
aS'http://www.espnscrum.com/other/rugby/player/14274.html'
p554
aS'http://www.espnscrum.com/other/rugby/player/14283.html'
p555
aS'http://www.espnscrum.com/other/rugby/player/14298.html'
p556
aS'http://www.espnscrum.com/other/rugby/player/14299.html'
p557
aS'http://www.espnscrum.com/other/rugby/player/14275.html'
p558
aS'http://www.espnscrum.com/other/rugby/player/14362.html'
p559
aS'http://www.espnscrum.com/other/rugby/player/14507.html'
p560
aS'http://www.espnscrum.com/other/rugby/player/14508.html'
p561
aS'http://www.espnscrum.com/other/rugby/player/14509.html'
p562
aS'http://www.espnscrum.com/other/rugby/player/14513.html'
p563
aS'http://www.espnscrum.com/other/rugby/player/14516.html'
p564
aS'http://www.espnscrum.com/other/rugby/player/14517.html'
p565
aS'http://www.espnscrum.com/other/rugby/player/14518.html'
p566
aS'http://www.espnscrum.com/other/rugby/player/14522.html'
p567
aS'http://www.espnscrum.com/other/rugby/player/14542.html'
p568
aS'http://www.espnscrum.com/other/rugby/player/14512.html'
p569
aS'http://www.espnscrum.com/other/rugby/player/14519.html'
p570
aS'http://www.espnscrum.com/other/rugby/player/14521.html'
p571
aS'http://www.espnscrum.com/other/rugby/player/14847.html'
p572
aS'http://www.espnscrum.com/other/rugby/player/14852.html'
p573
aS'http://www.espnscrum.com/other/rugby/player/14844.html'
p574
aS'http://www.espnscrum.com/other/rugby/player/14850.html'
p575
aS'http://www.espnscrum.com/other/rugby/player/14853.html'
p576
aS'http://www.espnscrum.com/other/rugby/player/14851.html'
p577
aS'http://www.espnscrum.com/other/rugby/player/14961.html'
p578
aS'http://www.espnscrum.com/other/rugby/player/14962.html'
p579
aS'http://www.espnscrum.com/other/rugby/player/14965.html'
p580
aS'http://www.espnscrum.com/other/rugby/player/14993.html'
p581
aS'http://www.espnscrum.com/other/rugby/player/14995.html'
p582
aS'http://www.espnscrum.com/other/rugby/player/14994.html'
p583
aS'http://www.espnscrum.com/other/rugby/player/15002.html'
p584
aS'http://www.espnscrum.com/other/rugby/player/15003.html'
p585
aS'http://www.espnscrum.com/other/rugby/player/15041.html'
p586
aS'http://www.espnscrum.com/other/rugby/player/15043.html'
p587
aS'http://www.espnscrum.com/other/rugby/player/15040.html'
p588
aS'http://www.espnscrum.com/other/rugby/player/15081.html'
p589
aS'http://www.espnscrum.com/other/rugby/player/15078.html'
p590
aS'http://www.espnscrum.com/other/rugby/player/15042.html'
p591
aS'http://www.espnscrum.com/other/rugby/player/15269.html'
p592
aS'http://www.espnscrum.com/other/rugby/player/15275.html'
p593
aS'http://www.espnscrum.com/other/rugby/player/15276.html'
p594
aS'http://www.espnscrum.com/other/rugby/player/15277.html'
p595
aS'http://www.espnscrum.com/other/rugby/player/15340.html'
p596
aS'http://www.espnscrum.com/other/rugby/player/15553.html'
p597
aS'http://www.espnscrum.com/other/rugby/player/15567.html'
p598
aS'http://www.espnscrum.com/other/rugby/player/15569.html'
p599
aS'http://www.espnscrum.com/other/rugby/player/15570.html'
p600
aS'http://www.espnscrum.com/other/rugby/player/15572.html'
p601
aS'http://www.espnscrum.com/other/rugby/player/15577.html'
p602
aS'http://www.espnscrum.com/other/rugby/player/15545.html'
p603
aS'http://www.espnscrum.com/other/rugby/player/15561.html'
p604
aS'http://www.espnscrum.com/other/rugby/player/15617.html'
p605
aS'http://www.espnscrum.com/other/rugby/player/15562.html'
p606
aS'http://www.espnscrum.com/other/rugby/player/15718.html'
p607
aS'http://www.espnscrum.com/other/rugby/player/15722.html'
p608
aS'http://www.espnscrum.com/other/rugby/player/15723.html'
p609
aS'http://www.espnscrum.com/other/rugby/player/15721.html'
p610
aS'http://www.espnscrum.com/other/rugby/player/15724.html'
p611
aS'http://www.espnscrum.com/other/rugby/player/15714.html'
p612
aS'http://www.espnscrum.com/other/rugby/player/15918.html'
p613
aS'http://www.espnscrum.com/other/rugby/player/15919.html'
p614
aS'http://www.espnscrum.com/other/rugby/player/15923.html'
p615
aS'http://www.espnscrum.com/other/rugby/player/15928.html'
p616
aS'http://www.espnscrum.com/other/rugby/player/16079.html'
p617
aS'http://www.espnscrum.com/other/rugby/player/16052.html'
p618
aS'http://www.espnscrum.com/other/rugby/player/16056.html'
p619
aS'http://www.espnscrum.com/other/rugby/player/16075.html'
p620
aS'http://www.espnscrum.com/other/rugby/player/16081.html'
p621
aS'http://www.espnscrum.com/other/rugby/player/16076.html'
p622
aS'http://www.espnscrum.com/other/rugby/player/9347.html'
p623
aS'http://www.espnscrum.com/other/rugby/player/98259.html'
p624
aS'http://www.espnscrum.com/other/rugby/player/27543.html'
p625
aS'http://www.espnscrum.com/other/rugby/player/98271.html'
p626
aS'http://www.espnscrum.com/other/rugby/player/98273.html'
p627
aS'http://www.espnscrum.com/other/rugby/player/98266.html'
p628
aS'http://www.espnscrum.com/other/rugby/player/98270.html'
p629
aS'http://www.espnscrum.com/other/rugby/player/27383.html'
p630
aS'http://www.espnscrum.com/other/rugby/player/99608.html'
p631
aS'http://www.espnscrum.com/other/rugby/player/99607.html'
p632
aS'http://www.espnscrum.com/other/rugby/player/99606.html'
p633
aS'http://www.espnscrum.com/other/rugby/player/99609.html'
p634
aS'http://www.espnscrum.com/other/rugby/player/99611.html'
p635
aS'http://www.espnscrum.com/other/rugby/player/105735.html'
p636
aS'http://www.espnscrum.com/other/rugby/player/14197.html'
p637
aS'http://www.espnscrum.com/other/rugby/player/105737.html'
p638
aS'http://www.espnscrum.com/other/rugby/player/82180.html'
p639
aS'http://www.espnscrum.com/other/rugby/player/105742.html'
p640
aS'http://www.espnscrum.com/other/rugby/player/105738.html'
p641
aS'http://www.espnscrum.com/other/rugby/player/105740.html'
p642
aS'http://www.espnscrum.com/other/rugby/player/105741.html'
p643
aS'http://www.espnscrum.com/other/rugby/player/106986.html'
p644
aS'http://www.espnscrum.com/other/rugby/player/106992.html'
p645
aS'http://www.espnscrum.com/other/rugby/player/106975.html'
p646
aS'http://www.espnscrum.com/other/rugby/player/117542.html'
p647
aS'http://www.espnscrum.com/other/rugby/player/117545.html'
p648
aS'http://www.espnscrum.com/other/rugby/player/117549.html'
p649
aS'http://www.espnscrum.com/other/rugby/player/117551.html'
p650
aS'http://www.espnscrum.com/other/rugby/player/117546.html'
p651
aS'http://www.espnscrum.com/other/rugby/player/117317.html'
p652
aS'http://www.espnscrum.com/other/rugby/player/117320.html'
p653
aS'http://www.espnscrum.com/other/rugby/player/117321.html'
p654
aS'http://www.espnscrum.com/other/rugby/player/117314.html'
p655
aS'http://www.espnscrum.com/other/rugby/player/117322.html'
p656
aS'http://www.espnscrum.com/other/rugby/player/118088.html'
p657
aS'http://www.espnscrum.com/other/rugby/player/118090.html'
p658
aS'http://www.espnscrum.com/other/rugby/player/101298.html'
p659
aS'http://www.espnscrum.com/other/rugby/player/120588.html'
p660
aS'http://www.espnscrum.com/other/rugby/player/129933.html'
p661
aS'http://www.espnscrum.com/other/rugby/player/142923.html'
p662
aS'http://www.espnscrum.com/other/rugby/player/142926.html'
p663
aS'http://www.espnscrum.com/other/rugby/player/142924.html'
p664
aS'http://www.espnscrum.com/other/rugby/player/142925.html'
p665
aS'http://www.espnscrum.com/other/rugby/player/128993.html'
p666
aS'http://www.espnscrum.com/other/rugby/player/143868.html'
p667
aS'http://www.espnscrum.com/other/rugby/player/165279.html'
p668
aS'http://www.espnscrum.com/other/rugby/player/165280.html'
p669
aS'http://www.espnscrum.com/other/rugby/player/165282.html'
p670
aS'http://www.espnscrum.com/other/rugby/player/165285.html'
p671
aS'http://www.espnscrum.com/other/rugby/player/165287.html'
p672
aS'http://www.espnscrum.com/other/rugby/player/165290.html'
p673
aS'http://www.espnscrum.com/other/rugby/player/165294.html'
p674
aS'http://www.espnscrum.com/other/rugby/player/165274.html'
p675
aS'http://www.espnscrum.com/other/rugby/player/165281.html'
p676
aS'http://www.espnscrum.com/other/rugby/player/165286.html'
p677
aS'http://www.espnscrum.com/other/rugby/player/112831.html'
p678
aS'http://www.espnscrum.com/other/rugby/player/165568.html'
p679
aS'http://www.espnscrum.com/other/rugby/player/165812.html'
p680
aS'http://www.espnscrum.com/other/rugby/player/166122.html'
p681
aS'http://www.espnscrum.com/other/rugby/player/166124.html'
p682
aS'http://www.espnscrum.com/other/rugby/player/172299.html'
p683
aS'http://www.espnscrum.com/other/rugby/player/159884.html'
p684
aS'http://www.espnscrum.com/other/rugby/player/172496.html'
p685
aS'http://www.espnscrum.com/other/rugby/player/172779.html'
p686
aS'http://www.espnscrum.com/other/rugby/player/82296.html'
p687
aS'http://www.espnscrum.com/other/rugby/player/172780.html'
p688
aS'http://www.espnscrum.com/other/rugby/player/184235.html'
p689
aS'http://www.espnscrum.com/other/rugby/player/184234.html'
p690
aS'http://www.espnscrum.com/other/rugby/player/184561.html'
p691
aS'http://www.espnscrum.com/other/rugby/player/184562.html'
p692
aS'http://www.espnscrum.com/other/rugby/player/120855.html'
p693
aS'http://www.espnscrum.com/other/rugby/player/205511.html'
p694
aS'http://www.espnscrum.com/other/rugby/player/205515.html'
p695
aS'http://www.espnscrum.com/other/rugby/player/207085.html'
p696
aS'http://www.espnscrum.com/other/rugby/player/207087.html'
p697
aS'http://www.espnscrum.com/other/rugby/player/228703.html'
p698
aS'http://www.espnscrum.com/other/rugby/player/230597.html'
p699
aS'http://www.espnscrum.com/other/rugby/player/247195.html'
p700
aS'http://www.espnscrum.com/other/rugby/player/195403.html'
p701
aS'http://www.espnscrum.com/other/rugby/player/194445.html'
p702
a.