(lp1
VCentre
p2
aVFlanker
p3
aVWing
p4
aVFullback
p5
aVCentre
p6
aV
aVLock
p7
aV
aV
aV
aVWing
p8
aVFullback
p9
aV
aVCentre
p10
aVWing
p11
aV
aVUtility back
p12
aV
aV
aVWing
p13
aVFly-half
p14
aVScrum-half
p15
aVScrum-half
p16
aVLock
p17
aVCentre
p18
aVForward
p19
aVProp
p20
aVCentre
p21
aVForward
p22
aVForward
p23
aVFlanker
p24
aVForward
p25
aVFlanker
p26
aVLock
p27
aVUtility back
p28
aVFly-half
p29
aVCentre
p30
aVFlanker
p31
aVWing
p32
aV
aVScrum-half
p33
aV
aVLock
p34
aVProp
p35
aVFly-half
p36
aVScrum-half
p37
aVProp
p38
aVNo. 8
p39
aVWing
p40
aVWing
p41
aVLock
p42
aVFlanker
p43
aVHooker
p44
aVFullback
p45
aVFly-half
p46
aVLock
p47
aVFly-half
p48
aVLock
p49
aVFullback
p50
aVUtility back
p51
aVProp
p52
aVFlanker
p53
aVLock
p54
aVScrum-half
p55
aVFlanker
p56
aVFly-half
p57
aVScrum-half
p58
aVProp
p59
aVLock
p60
aVFly-half
p61
aVLock
p62
aVProp
p63
aVWing
p64
aVHooker
p65
aVFullback
p66
aVLock
p67
aVWing
p68
aVFly-half
p69
aVFlanker
p70
aVFlanker
p71
aVForward
p72
aVFly-half
p73
aVProp
p74
aVFlanker
p75
aVWing
p76
aVForward
p77
aVLock
p78
aVProp
p79
aVScrum-half
p80
aVWing
p81
aVFlanker
p82
aVWing
p83
aVHooker
p84
aVCentre
p85
aVFly-half
p86
aVFullback
p87
aVProp
p88
aVLock
p89
aVLock
p90
aVHooker
p91
aVProp
p92
aVFullback
p93
aVLock
p94
aVWing
p95
aVLock
p96
aVFly-half
p97
aVWing
p98
aVLock
p99
aVCentre
p100
aVCentre
p101
aVLock
p102
aVFullback
p103
aVWing
p104
aVNo. 8
p105
aVProp
p106
aVFly-half
p107
aVLock
p108
aVScrum-half
p109
aVNo. 8
p110
aVProp
p111
aVProp
p112
aVLock
p113
aVLock
p114
aVCentre
p115
aVCentre
p116
aVCentre
p117
aVWing
p118
aVFlanker
p119
aVProp
p120
aVHooker
p121
aVWing
p122
aVWing
p123
aVFlanker
p124
aVProp
p125
aVHooker
p126
aVCentre
p127
aVScrum-half
p128
aVFlanker
p129
aVHooker
p130
aVNo. 8
p131
aVProp
p132
aVFlanker
p133
aVLock
p134
aVWing
p135
aVFullback
p136
aVFlanker
p137
aVFlanker
p138
aVFly-half
p139
aVLock
p140
aVFlanker
p141
aVFullback
p142
aVWing
p143
aVFullback
p144
aVFlanker
p145
aVScrum-half
p146
aVProp
p147
aVWing
p148
aVHooker
p149
aVFullback
p150
aVFlanker
p151
aVFlanker
p152
aVNo. 8, Lock
p153
aVCentre
p154
aVProp
p155
aVScrum-half
p156
aVCentre
p157
aVProp
p158
aVFlanker
p159
aVScrum-half
p160
aVProp
p161
aVFlanker
p162
aVCentre
p163
aVWing
p164
aVLock
p165
aVFly-half
p166
aVUtility back
p167
aVFlanker
p168
aVHooker
p169
aVCentre
p170
aVLock
p171
aVProp
p172
aVUtility back
p173
aVLock
p174
aVProp
p175
aVFly-half
p176
aVWing
p177
aVNo. 8
p178
aVFlanker
p179
aVFlanker
p180
aVCentre
p181
aVCentre
p182
aVWing
p183
aVProp
p184
aVWing
p185
aVFullback
p186
aVFlanker
p187
aVLock
p188
aVFlanker
p189
aVScrum-half
p190
aVUtility back
p191
aVLock
p192
aVHooker
p193
aVWing
p194
aVCentre
p195
aVCentre
p196
aVWing
p197
aVCentre
p198
aVFullback
p199
aVFlanker
p200
aVProp
p201
aVProp
p202
aVFlanker
p203
aVScrum-half
p204
aVFullback
p205
aVHooker
p206
aVFlanker
p207
aVProp
p208
aVWing
p209
aVLock
p210
aVWing
p211
aVCentre
p212
aVWing
p213
aVScrum-half
p214
aVLock, No. 8
p215
aVCentre
p216
aVHooker
p217
aVWing
p218
aVProp
p219
aVFullback
p220
aVScrum-half
p221
aVFullback
p222
aVCentre
p223
aVProp
p224
aVWing
p225
aVLock
p226
aVCentre
p227
aVFullback, Scrum-half
p228
aVWing, Centre
p229
aVProp
p230
aVFullback
p231
aVFlanker
p232
aVFly-half
p233
aVFlanker
p234
aVProp
p235
aVScrum-half
p236
aVProp
p237
aVNo. 8
p238
aVCentre
p239
aVCentre
p240
aVWing
p241
aVNo. 8
p242
aVFly-half
p243
aVProp
p244
aVFly-half
p245
aVWing
p246
aVNo. 8
p247
aVLock
p248
aVWing
p249
aVWing
p250
aVLock
p251
aVHooker
p252
aVFly-half
p253
aVProp
p254
aVLock
p255
aVWing, Centre
p256
aVProp
p257
aVScrum-half
p258
aVCentre
p259
aVProp
p260
aVFlanker
p261
aVNo. 8
p262
aVHooker, Prop
p263
aVWing
p264
aVScrum-half
p265
aVFlanker
p266
aVFly-half, Scrum-half
p267
aVLock
p268
aVWing
p269
aVWing
p270
aVFullback
p271
aVFlanker
p272
aVLock
p273
aVWing
p274
aVFly-half
p275
aVFullback
p276
aVFlanker
p277
aVLock
p278
aVCentre, Wing
p279
aVWing
p280
aVFlanker
p281
aVProp
p282
aVCentre
p283
aVFlanker
p284
aVLock
p285
aVWing
p286
aVFly-half
p287
aVFlanker
p288
aVProp
p289
aVFullback
p290
aVUtility back
p291
aVCentre
p292
aVLock
p293
aVHooker
p294
aVFlanker
p295
aVLock
p296
aVFullback, Wing, Fly-half
p297
aVFly-half
p298
aVBack-row
p299
aVHooker
p300
aVFullback
p301
aVFly-half
p302
aVCentre
p303
aVWing
p304
aVFlanker
p305
aVWing
p306
aVNo. 8
p307
aVProp
p308
aVFlanker
p309
aVFullback
p310
aVFly-half
p311
aVHooker
p312
aVProp, Hooker
p313
aVScrum-half
p314
aVLock
p315
aVWing
p316
aVCentre
p317
aVFullback
p318
aVWing
p319
aVLock
p320
aVProp
p321
aVScrum-half
p322
aVLock, No. 8
p323
aVWing
p324
aVScrum-half
p325
aVWing
p326
aVHooker
p327
aVHooker
p328
aVProp
p329
aVCentre
p330
aVCentre
p331
aVFullback
p332
aVLock
p333
aVFullback
p334
aVFly-half
p335
aVHooker
p336
aVNo. 8
p337
aVWing
p338
aVFlanker
p339
aVFly-half
p340
aVFullback
p341
aVLock
p342
aVProp
p343
aVNo. 8
p344
aVWing
p345
aVFlanker
p346
aVCentre
p347
aVFly-half
p348
aVWing
p349
aVFlanker
p350
aVWing
p351
aVProp
p352
aVFullback
p353
aVCentre
p354
aVFlanker
p355
aVFly-half, Centre
p356
aVLock, Flanker
p357
aVFlanker
p358
aVFlanker
p359
aVWing
p360
aVWing, Centre
p361
aVHooker
p362
aVScrum-half
p363
aVFly-half
p364
aVWing
p365
aVWing
p366
aVWing, Fly-half
p367
aVFlanker
p368
aVCentre
p369
aVFlanker
p370
aVLock, No. 8
p371
aVFlanker
p372
aVLock
p373
aVFlanker
p374
aVHooker, Prop
p375
aVLock
p376
aVFlanker
p377
aVWing
p378
aVFly-half
p379
aVCentre
p380
aVProp
p381
aVFlanker
p382
aVNo. 8, Lock
p383
aVLock
p384
aVFullback
p385
aVBack-row
p386
aVScrum-half
p387
aVFly-half
p388
aVProp
p389
aVWing
p390
aVLock
p391
aVWing
p392
aVWing
p393
aVFly-half
p394
aVWing
p395
aVScrum-half
p396
aVUtility back
p397
aVWing, Fly-half
p398
aVScrum-half
p399
aVFullback
p400
aVFly-half
p401
aVHooker
p402
aVFlanker
p403
aVFlanker
p404
aVCentre
p405
aVProp
p406
aVWing
p407
aVCentre, Wing
p408
aVHooker
p409
aVLock
p410
aVWing
p411
aVScrum-half
p412
aVFullback
p413
aVFlanker
p414
aVCentre
p415
aVFly-half
p416
aVProp
p417
aVFly-half
p418
aVFlanker
p419
aVWing, Centre
p420
aVScrum-half
p421
aVProp
p422
aVCentre
p423
aVScrum-half
p424
aVProp, Hooker
p425
aVCentre
p426
aVWing
p427
aVFlanker
p428
aVWing
p429
aVProp
p430
aVScrum-half
p431
aVFlanker
p432
aVUtility back
p433
aVCentre
p434
aVWing
p435
aVCentre
p436
aVFlanker
p437
aVFlanker
p438
aVCentre
p439
aVHooker
p440
aVHooker
p441
aVFlanker
p442
aVLock
p443
aVNo. 8
p444
aVCentre
p445
aVHooker
p446
aVFullback
p447
aVWing
p448
aVWing
p449
aVLock
p450
aVFly-half
p451
aVProp
p452
aVWing
p453
aVScrum-half
p454
aVProp
p455
aVScrum-half
p456
aVFlanker
p457
aVFullback
p458
aVCentre
p459
aVProp
p460
aVProp
p461
aVFlanker
p462
a.