(lp1
V
aVFlanker
p2
aVWing
p3
aVFullback
p4
aV
aV
aVLock
p5
aV
aV
aV
aVWing
p6
aVFullback
p7
aV
aVCentre
p8
aVWing
p9
aV
aVUtility back
p10
aV
aV
aVWing
p11
aVFly-half
p12
aVScrum-half
p13
aVScrum-half
p14
aVLock
p15
aVCentre
p16
aVForward
p17
aVProp
p18
aVCentre
p19
aVForward
p20
aVForward
p21
aVFlanker
p22
aVForward
p23
aV
aV
aVUtility back
p24
aV
aVCentre
p25
aV
aVWing
p26
aV
aVScrum-half
p27
aV
aVLock
p28
aV
aVFly-half
p29
aVScrum-half
p30
aVProp
p31
aVNo. 8
p32
aVWing
p33
aVWing
p34
aVLock
p35
aVFlanker
p36
aVHooker
p37
aVFullback
p38
aVFly-half
p39
aVLock
p40
aVFly-half
p41
aVLock
p42
aVFullback
p43
aVUtility back
p44
aVProp
p45
aVFlanker
p46
aVLock
p47
aVScrum-half
p48
aVFlanker
p49
aVFly-half
p50
aVScrum-half
p51
aVProp
p52
aVLock
p53
aVFly-half
p54
aVLock
p55
aVProp
p56
aVWing
p57
aVHooker
p58
aVFullback
p59
aVLock
p60
aVWing
p61
aVFly-half
p62
aVFlanker
p63
aVFlanker
p64
aVForward
p65
aVFly-half
p66
aVProp
p67
aVFlanker
p68
aVWing
p69
aVForward
p70
aVLock
p71
aVProp
p72
aVScrum-half
p73
aVWing
p74
aVFlanker
p75
aVWing
p76
aVHooker
p77
aVCentre
p78
aVFly-half
p79
aVFullback
p80
aVProp
p81
aVLock
p82
aVLock
p83
aVHooker
p84
aVProp
p85
aVFullback
p86
aVLock
p87
aVWing
p88
aVLock
p89
aVFly-half
p90
aVWing
p91
aVLock
p92
aVCentre
p93
aVCentre
p94
aVLock
p95
aVFullback
p96
aVWing
p97
aVNo. 8
p98
aVProp
p99
aVFly-half
p100
aVLock
p101
aVScrum-half
p102
aVNo. 8
p103
aVProp
p104
aVProp
p105
aVLock
p106
aVLock
p107
aVCentre
p108
aVCentre
p109
aVCentre
p110
aVWing
p111
aVFlanker
p112
aVProp
p113
aVHooker
p114
aVWing
p115
aVWing
p116
aV
aVProp
p117
aVHooker
p118
aVCentre
p119
aVScrum-half
p120
aVFlanker
p121
aVHooker
p122
aVNo. 8
p123
aVProp
p124
aVFlanker
p125
aVLock
p126
aVWing
p127
aVFullback
p128
aVFlanker
p129
aVFlanker
p130
aVFly-half
p131
aVLock
p132
aVFlanker
p133
aVFullback
p134
aVWing
p135
aVFullback
p136
aVFlanker
p137
aVScrum-half
p138
aVProp
p139
aVWing
p140
aVHooker
p141
aVFullback
p142
aVFlanker
p143
aVFlanker
p144
aVLock, No. 8
p145
aVCentre
p146
aVProp
p147
aVScrum-half
p148
aVCentre
p149
aVProp
p150
aVFlanker
p151
aVScrum-half
p152
aVProp
p153
aVFlanker
p154
aVCentre
p155
aVWing
p156
aVLock
p157
aVFly-half
p158
aVUtility back
p159
aVFlanker
p160
aVHooker
p161
aVCentre
p162
aVLock
p163
aVProp
p164
aVUtility back
p165
aVLock
p166
aV
aVFly-half
p167
aVWing
p168
aVNo. 8
p169
aVFlanker
p170
aVFlanker
p171
aVCentre
p172
aVCentre
p173
aVWing
p174
aVProp
p175
aVWing
p176
aVFullback
p177
aVFlanker
p178
aVLock
p179
aVFlanker
p180
aVScrum-half
p181
aVUtility back
p182
aVLock
p183
aVHooker
p184
aVWing
p185
aVCentre
p186
aVCentre
p187
aVWing
p188
aVCentre
p189
aVFullback
p190
aVFlanker
p191
aVProp
p192
aVProp
p193
aVFlanker
p194
aVScrum-half
p195
aVFullback
p196
aVHooker
p197
aVFlanker
p198
aVProp
p199
aVWing
p200
aVLock
p201
aVWing
p202
aVCentre
p203
aVWing
p204
aVScrum-half
p205
aVNo. 8, Lock
p206
aVCentre
p207
aVHooker
p208
aVWing
p209
aVProp
p210
aVFullback
p211
aVScrum-half
p212
aVFullback
p213
aVCentre
p214
aVProp
p215
aVWing
p216
aVLock
p217
aVCentre
p218
aVScrum-half, Fullback
p219
aVWing, Centre
p220
aVProp
p221
aVFullback
p222
aVFlanker
p223
aVFly-half
p224
aVFlanker
p225
aVFly-half
p226
aVScrum-half
p227
aVProp
p228
aVNo. 8
p229
aVCentre
p230
aVCentre
p231
aVWing
p232
aVNo. 8
p233
aVFly-half
p234
aVProp
p235
aVFly-half
p236
aVWing
p237
aVNo. 8
p238
aVLock
p239
aVWing
p240
aVWing
p241
aVLock
p242
aVHooker
p243
aVFly-half
p244
aVProp
p245
aVLock
p246
aVCentre, Wing
p247
aVProp
p248
aVScrum-half
p249
aVCentre
p250
aVProp
p251
aVFlanker
p252
aVNo. 8
p253
aVProp, Hooker
p254
aVWing
p255
aVScrum-half
p256
aVFlanker
p257
aVFly-half, Scrum-half
p258
aVLock
p259
aVWing
p260
aVWing
p261
aVFullback
p262
aVFlanker
p263
aVLock
p264
aVWing
p265
aVFly-half
p266
aVFullback
p267
aVFlanker
p268
aVLock
p269
aVWing, Centre
p270
aVWing
p271
aVFlanker
p272
aVProp
p273
aVCentre
p274
aVFlanker
p275
aVLock
p276
aVWing
p277
aVFly-half
p278
aVFlanker
p279
aVProp
p280
aVFullback
p281
aVUtility back
p282
aVCentre
p283
aVLock
p284
aVHooker
p285
aVFlanker
p286
aVLock
p287
aVWing, Fly-half, Fullback
p288
aVFly-half
p289
aVBack-row
p290
aVHooker
p291
aVFullback
p292
aVFly-half
p293
aVCentre
p294
aVWing
p295
aVFlanker
p296
aVWing
p297
aVNo. 8
p298
aVProp
p299
aVFlanker
p300
aVFullback
p301
aVFly-half
p302
aVHooker
p303
aVHooker, Prop
p304
aVScrum-half
p305
aVLock
p306
aVWing
p307
aVCentre
p308
aVFullback
p309
aVWing
p310
aVLock
p311
aVProp
p312
aVScrum-half
p313
aVLock, No. 8
p314
aVWing
p315
aVScrum-half
p316
aVWing
p317
aVHooker
p318
aVHooker
p319
aVProp
p320
aVCentre
p321
aVCentre
p322
aVFullback
p323
aVLock
p324
aVFullback
p325
aVFly-half
p326
aVHooker
p327
aVNo. 8
p328
aVWing
p329
aVFlanker
p330
aVFly-half
p331
aVFullback
p332
aVLock
p333
aVProp
p334
aVNo. 8
p335
aVWing
p336
aVFlanker
p337
aVCentre
p338
aVFly-half
p339
aVWing
p340
aVFlanker
p341
aVWing
p342
aVProp
p343
aVFullback
p344
aVCentre
p345
aVFlanker
p346
aVFly-half, Centre
p347
aVLock, Flanker
p348
aVFlanker
p349
aVFlanker
p350
aVWing
p351
aVCentre, Wing
p352
aVHooker
p353
aVScrum-half
p354
aVFly-half
p355
aVWing
p356
aVWing
p357
aVFly-half, Wing
p358
aVFlanker
p359
aVCentre
p360
aVFlanker
p361
aVLock, No. 8
p362
aVFlanker
p363
aVLock
p364
aVFlanker
p365
aVProp, Hooker
p366
aVLock
p367
aVFlanker
p368
aVWing
p369
aVFly-half
p370
aVCentre
p371
aVProp
p372
aVFlanker
p373
aVNo. 8, Lock
p374
aVLock
p375
aVFullback
p376
aVBack-row
p377
aVScrum-half
p378
aVFly-half
p379
aVProp
p380
aVWing
p381
aVLock
p382
aVWing
p383
aVWing
p384
aVFly-half
p385
aVWing
p386
aVScrum-half
p387
aVFullback, Centre, Fly-half
p388
aVFly-half, Wing
p389
aVScrum-half
p390
aVFullback
p391
aVFly-half
p392
aVHooker
p393
aVFlanker
p394
aVFlanker
p395
aVCentre
p396
aVProp
p397
aVWing
p398
aVCentre, Wing
p399
aVHooker
p400
aVLock
p401
aVWing
p402
aVScrum-half
p403
aVFullback
p404
aVFlanker
p405
aVCentre
p406
aVFly-half
p407
aVProp
p408
aVFly-half
p409
aVFlanker
p410
aVWing, Centre
p411
aVScrum-half
p412
aVProp
p413
aVCentre
p414
aVScrum-half
p415
aVProp, Hooker
p416
aVCentre
p417
aVWing
p418
aVFlanker
p419
aVWing
p420
aVProp
p421
aVScrum-half
p422
aVFlanker
p423
aVUtility back
p424
aVCentre
p425
aVWing
p426
aVCentre
p427
aVFlanker
p428
aVFlanker
p429
aVCentre
p430
aVHooker
p431
aVHooker
p432
aVFlanker
p433
aVLock
p434
aVNo. 8
p435
aVCentre
p436
aVHooker
p437
aVFullback
p438
aVWing
p439
aVWing
p440
aVLock
p441
aVFly-half
p442
aVProp
p443
aVWing
p444
aVScrum-half
p445
aVProp
p446
aVScrum-half
p447
aVFlanker
p448
aVFullback
p449
aVCentre
p450
aVProp
p451
aVProp
p452
aVFlanker
p453
aVWing
p454
aVCentre
p455
aVProp
p456
aVCentre
p457
aVLock
p458
aVScrum-half
p459
aVWing
p460
aVProp
p461
aVFlanker
p462
aVHooker
p463
aVFlanker
p464
aVFullback
p465
aVLock
p466
aVFly-half
p467
aVWing
p468
aVFullback, Centre
p469
aVWing
p470
aVLock, Flanker
p471
aVProp
p472
aV
aVLock
p473
aVScrum-half
p474
aVFly-half
p475
aVScrum-half
p476
aVWing
p477
aVFlanker
p478
aVLock
p479
aVFlanker
p480
aVHooker, Prop
p481
aVFlanker
p482
aVCentre
p483
aVNo. 8
p484
aVWing
p485
aVCentre
p486
aVBack-row
p487
aVWing, Centre
p488
aVWing
p489
aVWing
p490
aVBack-row
p491
aVUtility back
p492
aVCentre
p493
aVProp
p494
aVNo. 8
p495
aVUtility back
p496
aVFlanker
p497
aVWing, Centre
p498
aVCentre
p499
aVCentre, Fly-half
p500
aVHooker, Prop
p501
aVHooker
p502
aVWing
p503
aVCentre
p504
aVBack-row
p505
aVWing
p506
aVWing
p507
aVWing
p508
aVFullback
p509
aVProp
p510
aVLock
p511
aVCentre
p512
aVNo. 8
p513
aVProp
p514
aVNo. 8
p515
aVWing
p516
aVWing
p517
aVFlanker
p518
aVNo. 8
p519
aVLock
p520
aVProp
p521
aVWing
p522
aVProp
p523
aVCentre
p524
aVWing
p525
aVCentre
p526
aVFly-half, Wing
p527
aVLock
p528
aVFlanker
p529
aVWing, Centre
p530
aVLock
p531
aVFullback
p532
aVLock
p533
aVFlanker
p534
aVWing, Centre
p535
aVCentre
p536
aVLock
p537
aVProp
p538
aVFullback, Fly-half
p539
aVProp
p540
aVFlanker
p541
aVWing
p542
aVHooker
p543
aVFly-half
p544
aVLock
p545
aVFlanker
p546
aVCentre
p547
aVWing
p548
aVScrum-half
p549
aVProp, Hooker
p550
aVFullback
p551
aVLock
p552
aVFlanker
p553
aVHooker
p554
aVLock
p555
aVFlanker
p556
aVProp
p557
aVProp
p558
aVLock, Back-row
p559
aVUtility back
p560
aVWing
p561
aVBack-row
p562
aVLock
p563
aVWing, Centre
p564
aVCentre
p565
aVBack-row
p566
aVBack-row
p567
aVProp
p568
aVWing
p569
aVProp, Hooker
p570
aVScrum-half
p571
aVNo. 8
p572
aVScrum-half
p573
aVBack-row
p574
aVScrum-half
p575
aVFlanker
p576
aVWing, Centre
p577
aVWing
p578
aVWing
p579
aVFullback, Wing
p580
aVNo. 8
p581
aVProp
p582
aVScrum-half
p583
aVLock
p584
aVProp
p585
aVCentre
p586
aVCentre, Fly-half
p587
aVWing
p588
aVLock
p589
aVHooker
p590
aVBack-row
p591
aVWing
p592
aVWing
p593
aVWing, Centre
p594
aVFly-half
p595
aVProp
p596
aVWing
p597
aVScrum-half
p598
aVNo. 8
p599
aVFlanker
p600
aVWing
p601
aVFullback
p602
aVLock
p603
aVFlanker
p604
aVWing
p605
aVOutside back
p606
aVCentre
p607
aVHooker
p608
aVLock
p609
aVWing
p610
aVWing
p611
aVFlanker
p612
aVCentre
p613
aVProp
p614
aVLock
p615
aVNo. 8
p616
aVProp
p617
aVCentre, Fullback
p618
aVWing
p619
aVHooker
p620
aVCentre
p621
aVWing
p622
aVScrum-half
p623
aVNo. 8
p624
aVWing
p625
aVScrum-half
p626
aVLock
p627
aVProp
p628
aVHooker
p629
aVFlanker
p630
aVWing
p631
aVFullback
p632
aVFlanker
p633
aVScrum-half
p634
aVWing
p635
aVUtility back
p636
aVCentre
p637
aVUtility back
p638
aVCentre
p639
aVBack-row
p640
aVProp
p641
aVLock
p642
aVFullback
p643
aVCentre
p644
aVUtility forward
p645
aVProp
p646
aVProp
p647
aVCentre
p648
aVFullback
p649
aVWing
p650
aVLock
p651
aVWing
p652
aVFlanker
p653
aVWing
p654
aVCentre
p655
aVCentre
p656
aVProp
p657
aVProp
p658
aVCentre
p659
aVWing
p660
aVWing
p661
aVBack-row
p662
aVLock
p663
aVWing
p664
aVProp
p665
aVNo. 8
p666
aVWing
p667
aVWing
p668
aVCentre
p669
aVFly-half
p670
aVScrum-half
p671
aVHooker
p672
aVWing, Centre
p673
aVCentre
p674
aVFullback
p675
aVProp
p676
aVScrum-half
p677
aVProp
p678
aVProp
p679
aVWing
p680
aVLock, Flanker
p681
aVProp
p682
a.