(lp1
(dp2
S'Pens'
p3
S'0'
sS'Sub'
p4
S'1'
sS'Lost'
p5
S'4'
sS'Drop'
p6
S'0'
sS'Start'
p7
S'7'
sS'Won'
p8
S'3'
sS'GfM'
p9
S'0'
sS'Draw'
p10
S'1'
sS'Mat'
p11
S'8'
sS'Conv'
p12
S'0'
sS'Tries'
p13
S'1'
sS'Pts'
p14
S'3'
sa(dp15
S'Pens'
p16
S'0'
sS'Sub'
p17
S'0'
sS'Lost'
p18
S'3'
sS'Drop'
p19
S'0'
sS'Start'
p20
S'7'
sS'Won'
p21
S'3'
sS'GfM'
p22
S'0'
sS'Draw'
p23
S'1'
sS'Mat'
p24
S'7'
sS'Conv'
p25
S'0'
sS'Tries'
p26
S'1'
sS'Pts'
p27
S'3'
sa(dp28
S'Pens'
p29
S'0'
sS'Sub'
p30
S'0'
sS'Lost'
p31
S'2'
sS'Drop'
p32
S'0'
sS'Start'
p33
S'5'
sS'Won'
p34
S'2'
sS'GfM'
p35
S'0'
sS'Draw'
p36
S'1'
sS'Mat'
p37
S'5'
sS'Conv'
p38
S'0'
sS'Tries'
p39
S'1'
sS'Pts'
p40
S'3'
sa(dp41
S'Pens'
p42
S'1'
sS'Sub'
p43
S'0'
sS'Lost'
p44
S'4'
sS'Drop'
p45
S'0'
sS'Start'
p46
S'8'
sS'Won'
p47
S'3'
sS'GfM'
p48
S'0'
sS'Draw'
p49
S'1'
sS'Mat'
p50
S'8'
sS'Conv'
p51
S'1'
sS'Tries'
p52
S'0'
sS'Pts'
p53
S'5'
sa(dp54
S'Pens'
p55
S'0'
sS'Sub'
p56
S'0'
sS'Lost'
p57
S'3'
sS'Drop'
p58
S'0'
sS'Start'
p59
S'6'
sS'Won'
p60
S'2'
sS'GfM'
p61
S'0'
sS'Draw'
p62
S'1'
sS'Mat'
p63
S'6'
sS'Conv'
p64
S'0'
sS'Tries'
p65
S'0'
sS'Pts'
p66
S'0'
sa(dp67
S'Pens'
p68
S'2'
sS'Sub'
p69
S'0'
sS'Lost'
p70
S'2'
sS'Drop'
p71
S'0'
sS'Start'
p72
S'5'
sS'Won'
p73
S'2'
sS'GfM'
p74
S'0'
sS'Draw'
p75
S'1'
sS'Mat'
p76
S'5'
sS'Conv'
p77
S'1'
sS'Tries'
p78
S'0'
sS'Pts'
p79
S'8'
sa(dp80
S'Pens'
p81
S'0'
sS'Sub'
p82
S'0'
sS'Lost'
p83
S'6'
sS'Drop'
p84
S'0'
sS'Start'
p85
S'19'
p86
sS'Won'
p87
S'11'
p88
sS'GfM'
p89
S'0'
sS'Draw'
p90
S'2'
sS'Mat'
p91
S'19'
p92
sS'Conv'
p93
S'0'
sS'Tries'
p94
S'2'
sS'Pts'
p95
S'6'
sa(dp96
S'Pens'
p97
S'0'
sS'Sub'
p98
S'0'
sS'Lost'
p99
S'2'
sS'Drop'
p100
S'0'
sS'Start'
p101
S'5'
sS'Won'
p102
S'2'
sS'GfM'
p103
S'0'
sS'Draw'
p104
S'1'
sS'Mat'
p105
S'5'
sS'Conv'
p106
S'0'
sS'Tries'
p107
S'0'
sS'Pts'
p108
S'0'
sa(dp109
S'Pens'
p110
S'0'
sS'Sub'
p111
S'0'
sS'Lost'
p112
S'2'
sS'Drop'
p113
S'0'
sS'Start'
p114
S'5'
sS'Won'
p115
S'2'
sS'GfM'
p116
S'0'
sS'Draw'
p117
S'1'
sS'Mat'
p118
S'5'
sS'Conv'
p119
S'0'
sS'Tries'
p120
S'1'
sS'Pts'
p121
S'3'
sa(dp122
S'Pens'
p123
S'0'
sS'Sub'
p124
S'0'
sS'Lost'
p125
S'2'
sS'Drop'
p126
S'0'
sS'Start'
p127
S'5'
sS'Won'
p128
S'2'
sS'GfM'
p129
S'0'
sS'Draw'
p130
S'1'
sS'Mat'
p131
S'5'
sS'Conv'
p132
S'0'
sS'Tries'
p133
S'0'
sS'Pts'
p134
S'0'
sa(dp135
S'Pens'
p136
S'0'
sS'Sub'
p137
S'0'
sS'Lost'
p138
S'4'
sS'Drop'
p139
S'0'
sS'Start'
p140
S'9'
sS'Won'
p141
S'4'
sS'GfM'
p142
S'0'
sS'Draw'
p143
S'1'
sS'Mat'
p144
S'9'
sS'Conv'
p145
S'0'
sS'Tries'
p146
S'1'
sS'Pts'
p147
S'3'
sa(dp148
S'Pens'
p149
S'1'
sS'Sub'
p150
S'0'
sS'Lost'
p151
S'4'
sS'Drop'
p152
S'0'
sS'Start'
p153
S'8'
sS'Won'
p154
S'3'
sS'GfM'
p155
S'0'
sS'Draw'
p156
S'1'
sS'Mat'
p157
S'8'
sS'Conv'
p158
S'2'
sS'Tries'
p159
S'0'
sS'Pts'
p160
S'7'
sa(dp161
S'Pens'
p162
S'0'
sS'Sub'
p163
S'0'
sS'Lost'
p164
S'2'
sS'Drop'
p165
S'0'
sS'Start'
p166
S'5'
sS'Won'
p167
S'2'
sS'GfM'
p168
S'0'
sS'Draw'
p169
S'1'
sS'Mat'
p170
S'5'
sS'Conv'
p171
S'0'
sS'Tries'
p172
S'0'
sS'Pts'
p173
S'0'
sa(dp174
S'Pens'
p175
S'0'
sS'Sub'
p176
S'0'
sS'Lost'
p177
S'5'
sS'Drop'
p178
S'0'
sS'Start'
p179
S'10'
p180
sS'Won'
p181
S'4'
sS'GfM'
p182
S'0'
sS'Draw'
p183
S'1'
sS'Mat'
p184
S'10'
p185
sS'Conv'
p186
S'0'
sS'Tries'
p187
S'1'
sS'Pts'
p188
S'3'
sa(dp189
S'Pens'
p190
S'0'
sS'Sub'
p191
S'1'
sS'Lost'
p192
S'4'
sS'Drop'
p193
S'0'
sS'Start'
p194
S'6'
sS'Won'
p195
S'2'
sS'GfM'
p196
S'0'
sS'Draw'
p197
S'1'
sS'Mat'
p198
S'7'
sS'Conv'
p199
S'0'
sS'Tries'
p200
S'0'
sS'Pts'
p201
S'0'
sa(dp202
S'Pens'
p203
S'0'
sS'Sub'
p204
S'0'
sS'Lost'
p205
S'2'
sS'Drop'
p206
S'0'
sS'Start'
p207
S'5'
sS'Won'
p208
S'2'
sS'GfM'
p209
S'0'
sS'Draw'
p210
S'1'
sS'Mat'
p211
S'5'
sS'Conv'
p212
S'0'
sS'Tries'
p213
S'0'
sS'Pts'
p214
S'0'
sa(dp215
S'Pens'
p216
S'0'
sS'Sub'
p217
S'0'
sS'Lost'
p218
S'2'
sS'Drop'
p219
S'0'
sS'Start'
p220
S'5'
sS'Won'
p221
S'2'
sS'GfM'
p222
S'0'
sS'Draw'
p223
S'1'
sS'Mat'
p224
S'5'
sS'Conv'
p225
S'0'
sS'Tries'
p226
S'1'
sS'Pts'
p227
S'3'
sa(dp228
S'Pens'
p229
S'0'
sS'Sub'
p230
S'0'
sS'Lost'
p231
S'2'
sS'Drop'
p232
S'0'
sS'Start'
p233
S'5'
sS'Won'
p234
S'2'
sS'GfM'
p235
S'0'
sS'Draw'
p236
S'1'
sS'Mat'
p237
S'5'
sS'Conv'
p238
S'0'
sS'Tries'
p239
S'0'
sS'Pts'
p240
S'0'
sa(dp241
S'Pens'
p242
S'0'
sS'Sub'
p243
S'0'
sS'Lost'
p244
S'2'
sS'Drop'
p245
S'0'
sS'Start'
p246
S'5'
sS'Won'
p247
S'2'
sS'GfM'
p248
S'0'
sS'Draw'
p249
S'1'
sS'Mat'
p250
S'5'
sS'Conv'
p251
S'0'
sS'Tries'
p252
S'0'
sS'Pts'
p253
S'0'
sa(dp254
S'Pens'
p255
S'0'
sS'Sub'
p256
S'0'
sS'Lost'
p257
S'2'
sS'Drop'
p258
S'0'
sS'Start'
p259
S'5'
sS'Won'
p260
S'2'
sS'GfM'
p261
S'0'
sS'Draw'
p262
S'1'
sS'Mat'
p263
S'5'
sS'Conv'
p264
S'0'
sS'Tries'
p265
S'1'
sS'Pts'
p266
S'3'
sa(dp267
S'Pens'
p268
S'0'
sS'Sub'
p269
S'0'
sS'Lost'
p270
S'1'
sS'Drop'
p271
S'0'
sS'Start'
p272
S'2'
sS'Won'
p273
S'1'
sS'GfM'
p274
S'0'
sS'Draw'
p275
S'0'
sS'Mat'
p276
S'2'
sS'Conv'
p277
S'0'
sS'Tries'
p278
S'0'
sS'Pts'
p279
S'0'
sa(dp280
S'Pens'
p281
S'0'
sS'Sub'
p282
S'0'
sS'Lost'
p283
S'2'
sS'Drop'
p284
S'0'
sS'Start'
p285
S'3'
sS'Won'
p286
S'1'
sS'GfM'
p287
S'0'
sS'Draw'
p288
S'0'
sS'Mat'
p289
S'3'
sS'Conv'
p290
S'0'
sS'Tries'
p291
S'0'
sS'Pts'
p292
S'0'
sa(dp293
S'Pens'
p294
S'0'
sS'Sub'
p295
S'0'
sS'Lost'
p296
S'1'
sS'Drop'
p297
S'0'
sS'Start'
p298
S'2'
sS'Won'
p299
S'1'
sS'GfM'
p300
S'0'
sS'Draw'
p301
S'0'
sS'Mat'
p302
S'2'
sS'Conv'
p303
S'0'
sS'Tries'
p304
S'1'
sS'Pts'
p305
S'3'
sa(dp306
S'Pens'
p307
S'0'
sS'Sub'
p308
S'0'
sS'Lost'
p309
S'2'
sS'Drop'
p310
S'0'
sS'Start'
p311
S'5'
sS'Won'
p312
S'3'
sS'GfM'
p313
S'0'
sS'Draw'
p314
S'0'
sS'Mat'
p315
S'5'
sS'Conv'
p316
S'0'
sS'Tries'
p317
S'0'
sS'Pts'
p318
S'0'
sa(dp319
S'Pens'
p320
S'0'
sS'Sub'
p321
S'0'
sS'Lost'
p322
S'0'
sS'Drop'
p323
S'0'
sS'Start'
p324
S'1'
sS'Won'
p325
S'1'
sS'GfM'
p326
S'0'
sS'Draw'
p327
S'0'
sS'Mat'
p328
S'1'
sS'Conv'
p329
S'0'
sS'Tries'
p330
S'0'
sS'Pts'
p331
S'0'
sa(dp332
S'Pens'
p333
S'0'
sS'Sub'
p334
S'0'
sS'Lost'
p335
S'3'
sS'Drop'
p336
S'0'
sS'Start'
p337
S'5'
sS'Won'
p338
S'2'
sS'GfM'
p339
S'0'
sS'Draw'
p340
S'0'
sS'Mat'
p341
S'5'
sS'Conv'
p342
S'0'
sS'Tries'
p343
S'0'
sS'Pts'
p344
S'0'
sa(dp345
S'Pens'
p346
S'0'
sS'Sub'
p347
S'0'
sS'Lost'
p348
S'3'
sS'Drop'
p349
S'0'
sS'Start'
p350
S'6'
sS'Won'
p351
S'3'
sS'GfM'
p352
S'0'
sS'Draw'
p353
S'0'
sS'Mat'
p354
S'6'
sS'Conv'
p355
S'0'
sS'Tries'
p356
S'0'
sS'Pts'
p357
S'0'
sa(dp358
S'Pens'
p359
S'0'
sS'Sub'
p360
S'0'
sS'Lost'
p361
S'4'
sS'Drop'
p362
S'0'
sS'Start'
p363
S'7'
sS'Won'
p364
S'3'
sS'GfM'
p365
S'0'
sS'Draw'
p366
S'0'
sS'Mat'
p367
S'7'
sS'Conv'
p368
S'0'
sS'Tries'
p369
S'0'
sS'Pts'
p370
S'0'
sa(dp371
S'Pens'
p372
S'0'
sS'Sub'
p373
S'0'
sS'Lost'
p374
S'4'
sS'Drop'
p375
S'0'
sS'Start'
p376
S'6'
sS'Won'
p377
S'2'
sS'GfM'
p378
S'0'
sS'Draw'
p379
S'0'
sS'Mat'
p380
S'6'
sS'Conv'
p381
S'0'
sS'Tries'
p382
S'0'
sS'Pts'
p383
S'0'
sa(dp384
S'Pens'
p385
S'0'
sS'Sub'
p386
S'0'
sS'Lost'
p387
S'1'
sS'Drop'
p388
S'0'
sS'Start'
p389
S'2'
sS'Won'
p390
S'1'
sS'GfM'
p391
S'0'
sS'Draw'
p392
S'0'
sS'Mat'
p393
S'2'
sS'Conv'
p394
S'0'
sS'Tries'
p395
S'0'
sS'Pts'
p396
S'0'
sa(dp397
S'Pens'
p398
S'0'
sS'Sub'
p399
S'1'
sS'Lost'
p400
S'4'
sS'Drop'
p401
S'0'
sS'Start'
p402
S'8'
sS'Won'
p403
S'5'
sS'GfM'
p404
S'0'
sS'Draw'
p405
S'0'
sS'Mat'
p406
S'9'
sS'Conv'
p407
S'0'
sS'Tries'
p408
S'1'
sS'Pts'
p409
S'3'
sa(dp410
S'Pens'
p411
S'0'
sS'Sub'
p412
S'1'
sS'Lost'
p413
S'2'
sS'Drop'
p414
S'0'
sS'Start'
p415
S'4'
sS'Won'
p416
S'3'
sS'GfM'
p417
S'0'
sS'Draw'
p418
S'0'
sS'Mat'
p419
S'5'
sS'Conv'
p420
S'0'
sS'Tries'
p421
S'2'
sS'Pts'
p422
S'6'
sa(dp423
S'Pens'
p424
S'0'
sS'Sub'
p425
S'0'
sS'Lost'
p426
S'1'
sS'Drop'
p427
S'0'
sS'Start'
p428
S'1'
sS'Won'
p429
S'0'
sS'GfM'
p430
S'0'
sS'Draw'
p431
S'0'
sS'Mat'
p432
S'1'
sS'Conv'
p433
S'0'
sS'Tries'
p434
S'0'
sS'Pts'
p435
S'0'
sa(dp436
S'Pens'
p437
S'0'
sS'Sub'
p438
S'0'
sS'Lost'
p439
S'1'
sS'Drop'
p440
S'0'
sS'Start'
p441
S'1'
sS'Won'
p442
S'0'
sS'GfM'
p443
S'0'
sS'Draw'
p444
S'0'
sS'Mat'
p445
S'1'
sS'Conv'
p446
S'0'
sS'Tries'
p447
S'0'
sS'Pts'
p448
S'0'
sa(dp449
S'Pens'
p450
S'0'
sS'Sub'
p451
S'0'
sS'Lost'
p452
S'3'
sS'Drop'
p453
S'0'
sS'Start'
p454
S'10'
p455
sS'Won'
p456
S'7'
sS'GfM'
p457
S'0'
sS'Draw'
p458
S'0'
sS'Mat'
p459
S'10'
p460
sS'Conv'
p461
S'0'
sS'Tries'
p462
S'3'
sS'Pts'
p463
S'9'
sa(dp464
S'Pens'
p465
S'5'
sS'Sub'
p466
S'0'
sS'Lost'
p467
S'2'
sS'Drop'
p468
S'0'
sS'Start'
p469
S'4'
sS'Won'
p470
S'2'
sS'GfM'
p471
S'0'
sS'Draw'
p472
S'0'
sS'Mat'
p473
S'4'
sS'Conv'
p474
S'0'
sS'Tries'
p475
S'0'
sS'Pts'
p476
S'15'
p477
sa(dp478
S'Pens'
p479
S'0'
sS'Sub'
p480
S'0'
sS'Lost'
p481
S'3'
sS'Drop'
p482
S'0'
sS'Start'
p483
S'11'
p484
sS'Won'
p485
S'7'
sS'GfM'
p486
S'0'
sS'Draw'
p487
S'1'
sS'Mat'
p488
S'11'
p489
sS'Conv'
p490
S'0'
sS'Tries'
p491
S'2'
sS'Pts'
p492
S'6'
sa(dp493
S'Pens'
p494
S'0'
sS'Sub'
p495
S'0'
sS'Lost'
p496
S'1'
sS'Drop'
p497
S'0'
sS'Start'
p498
S'3'
sS'Won'
p499
S'2'
sS'GfM'
p500
S'0'
sS'Draw'
p501
S'0'
sS'Mat'
p502
S'3'
sS'Conv'
p503
S'0'
sS'Tries'
p504
S'0'
sS'Pts'
p505
S'0'
sa(dp506
S'Pens'
p507
S'0'
sS'Sub'
p508
S'0'
sS'Lost'
p509
S'2'
sS'Drop'
p510
S'0'
sS'Start'
p511
S'4'
sS'Won'
p512
S'2'
sS'GfM'
p513
S'0'
sS'Draw'
p514
S'0'
sS'Mat'
p515
S'4'
sS'Conv'
p516
S'0'
sS'Tries'
p517
S'1'
sS'Pts'
p518
S'3'
sa(dp519
S'Pens'
p520
S'0'
sS'Sub'
p521
S'0'
sS'Lost'
p522
S'1'
sS'Drop'
p523
S'0'
sS'Start'
p524
S'2'
sS'Won'
p525
S'1'
sS'GfM'
p526
S'0'
sS'Draw'
p527
S'0'
sS'Mat'
p528
S'2'
sS'Conv'
p529
S'0'
sS'Tries'
p530
S'0'
sS'Pts'
p531
S'0'
sa(dp532
S'Pens'
p533
S'0'
sS'Sub'
p534
S'0'
sS'Lost'
p535
S'2'
sS'Drop'
p536
S'0'
sS'Start'
p537
S'4'
sS'Won'
p538
S'2'
sS'GfM'
p539
S'0'
sS'Draw'
p540
S'0'
sS'Mat'
p541
S'4'
sS'Conv'
p542
S'0'
sS'Tries'
p543
S'0'
sS'Pts'
p544
S'0'
sa(dp545
S'Pens'
p546
S'0'
sS'Sub'
p547
S'0'
sS'Lost'
p548
S'1'
sS'Drop'
p549
S'0'
sS'Start'
p550
S'2'
sS'Won'
p551
S'1'
sS'GfM'
p552
S'0'
sS'Draw'
p553
S'0'
sS'Mat'
p554
S'2'
sS'Conv'
p555
S'0'
sS'Tries'
p556
S'0'
sS'Pts'
p557
S'0'
sa(dp558
S'Pens'
p559
S'0'
sS'Sub'
p560
S'0'
sS'Lost'
p561
S'2'
sS'Drop'
p562
S'0'
sS'Start'
p563
S'4'
sS'Won'
p564
S'2'
sS'GfM'
p565
S'0'
sS'Draw'
p566
S'0'
sS'Mat'
p567
S'4'
sS'Conv'
p568
S'0'
sS'Tries'
p569
S'0'
sS'Pts'
p570
S'0'
sa(dp571
S'Pens'
p572
S'0'
sS'Sub'
p573
S'0'
sS'Lost'
p574
S'2'
sS'Drop'
p575
S'0'
sS'Start'
p576
S'4'
sS'Won'
p577
S'2'
sS'GfM'
p578
S'0'
sS'Draw'
p579
S'0'
sS'Mat'
p580
S'4'
sS'Conv'
p581
S'0'
sS'Tries'
p582
S'0'
sS'Pts'
p583
S'0'
sa(dp584
S'Pens'
p585
S'0'
sS'Sub'
p586
S'0'
sS'Lost'
p587
S'0'
sS'Drop'
p588
S'0'
sS'Start'
p589
S'1'
sS'Won'
p590
S'1'
sS'GfM'
p591
S'0'
sS'Draw'
p592
S'0'
sS'Mat'
p593
S'1'
sS'Conv'
p594
S'0'
sS'Tries'
p595
S'0'
sS'Pts'
p596
S'0'
sa(dp597
S'Pens'
p598
S'0'
sS'Sub'
p599
S'1'
sS'Lost'
p600
S'1'
sS'Drop'
p601
S'0'
sS'Start'
p602
S'5'
sS'Won'
p603
S'5'
sS'GfM'
p604
S'0'
sS'Draw'
p605
S'0'
sS'Mat'
p606
S'6'
sS'Conv'
p607
S'0'
sS'Tries'
p608
S'0'
sS'Pts'
p609
S'0'
sa(dp610
S'Pens'
p611
S'0'
sS'Sub'
p612
S'0'
sS'Lost'
p613
S'1'
sS'Drop'
p614
S'0'
sS'Start'
p615
S'6'
sS'Won'
p616
S'5'
sS'GfM'
p617
S'0'
sS'Draw'
p618
S'0'
sS'Mat'
p619
S'6'
sS'Conv'
p620
S'0'
sS'Tries'
p621
S'1'
sS'Pts'
p622
S'3'
sa(dp623
S'Pens'
p624
S'0'
sS'Sub'
p625
S'0'
sS'Lost'
p626
S'0'
sS'Drop'
p627
S'0'
sS'Start'
p628
S'3'
sS'Won'
p629
S'3'
sS'GfM'
p630
S'0'
sS'Draw'
p631
S'0'
sS'Mat'
p632
S'3'
sS'Conv'
p633
S'0'
sS'Tries'
p634
S'2'
sS'Pts'
p635
S'6'
sa(dp636
S'Pens'
p637
S'0'
sS'Sub'
p638
S'0'
sS'Lost'
p639
S'1'
sS'Drop'
p640
S'0'
sS'Start'
p641
S'6'
sS'Won'
p642
S'5'
sS'GfM'
p643
S'0'
sS'Draw'
p644
S'0'
sS'Mat'
p645
S'6'
sS'Conv'
p646
S'0'
sS'Tries'
p647
S'6'
sS'Pts'
p648
S'18'
p649
sa(dp650
S'Pens'
p651
S'0'
sS'Sub'
p652
S'0'
sS'Lost'
p653
S'1'
sS'Drop'
p654
S'0'
sS'Start'
p655
S'4'
sS'Won'
p656
S'3'
sS'GfM'
p657
S'0'
sS'Draw'
p658
S'0'
sS'Mat'
p659
S'4'
sS'Conv'
p660
S'0'
sS'Tries'
p661
S'2'
sS'Pts'
p662
S'6'
sa(dp663
S'Pens'
p664
S'1'
sS'Sub'
p665
S'0'
sS'Lost'
p666
S'1'
sS'Drop'
p667
S'0'
sS'Start'
p668
S'6'
sS'Won'
p669
S'5'
sS'GfM'
p670
S'0'
sS'Draw'
p671
S'0'
sS'Mat'
p672
S'6'
sS'Conv'
p673
S'5'
sS'Tries'
p674
S'2'
sS'Pts'
p675
S'19'
p676
sa(dp677
S'Pens'
p678
S'0'
sS'Sub'
p679
S'0'
sS'Lost'
p680
S'1'
sS'Drop'
p681
S'0'
sS'Start'
p682
S'6'
sS'Won'
p683
S'5'
sS'GfM'
p684
S'0'
sS'Draw'
p685
S'0'
sS'Mat'
p686
S'6'
sS'Conv'
p687
S'0'
sS'Tries'
p688
S'0'
sS'Pts'
p689
S'0'
sa(dp690
S'Pens'
p691
S'0'
sS'Sub'
p692
S'0'
sS'Lost'
p693
S'0'
sS'Drop'
p694
S'0'
sS'Start'
p695
S'3'
sS'Won'
p696
S'3'
sS'GfM'
p697
S'0'
sS'Draw'
p698
S'0'
sS'Mat'
p699
S'3'
sS'Conv'
p700
S'0'
sS'Tries'
p701
S'3'
sS'Pts'
p702
S'9'
sa(dp703
S'Pens'
p704
S'0'
sS'Sub'
p705
S'0'
sS'Lost'
p706
S'0'
sS'Drop'
p707
S'0'
sS'Start'
p708
S'3'
sS'Won'
p709
S'3'
sS'GfM'
p710
S'0'
sS'Draw'
p711
S'0'
sS'Mat'
p712
S'3'
sS'Conv'
p713
S'0'
sS'Tries'
p714
S'0'
sS'Pts'
p715
S'0'
sa(dp716
S'Pens'
p717
S'0'
sS'Sub'
p718
S'0'
sS'Lost'
p719
S'0'
sS'Drop'
p720
S'1'
sS'Start'
p721
S'3'
sS'Won'
p722
S'3'
sS'GfM'
p723
S'0'
sS'Draw'
p724
S'0'
sS'Mat'
p725
S'3'
sS'Conv'
p726
S'0'
sS'Tries'
p727
S'0'
sS'Pts'
p728
S'4'
sa(dp729
S'Pens'
p730
S'0'
sS'Sub'
p731
S'0'
sS'Lost'
p732
S'2'
sS'Drop'
p733
S'0'
sS'Start'
p734
S'10'
p735
sS'Won'
p736
S'7'
sS'GfM'
p737
S'0'
sS'Draw'
p738
S'1'
sS'Mat'
p739
S'10'
p740
sS'Conv'
p741
S'0'
sS'Tries'
p742
S'0'
sS'Pts'
p743
S'0'
sa(dp744
S'Pens'
p745
S'3'
sS'Sub'
p746
S'1'
sS'Lost'
p747
S'2'
sS'Drop'
p748
S'1'
sS'Start'
p749
S'6'
sS'Won'
p750
S'5'
sS'GfM'
p751
S'0'
sS'Draw'
p752
S'0'
sS'Mat'
p753
S'7'
sS'Conv'
p754
S'10'
p755
sS'Tries'
p756
S'3'
sS'Pts'
p757
S'42'
p758
sa(dp759
S'Pens'
p760
S'0'
sS'Sub'
p761
S'0'
sS'Lost'
p762
S'0'
sS'Drop'
p763
S'0'
sS'Start'
p764
S'1'
sS'Won'
p765
S'1'
sS'GfM'
p766
S'0'
sS'Draw'
p767
S'0'
sS'Mat'
p768
S'1'
sS'Conv'
p769
S'0'
sS'Tries'
p770
S'0'
sS'Pts'
p771
S'0'
sa(dp772
S'Pens'
p773
S'0'
sS'Sub'
p774
S'0'
sS'Lost'
p775
S'1'
sS'Drop'
p776
S'0'
sS'Start'
p777
S'4'
sS'Won'
p778
S'2'
sS'GfM'
p779
S'0'
sS'Draw'
p780
S'1'
sS'Mat'
p781
S'4'
sS'Conv'
p782
S'0'
sS'Tries'
p783
S'0'
sS'Pts'
p784
S'0'
sa(dp785
S'Pens'
p786
S'2'
sS'Sub'
p787
S'0'
sS'Lost'
p788
S'2'
sS'Drop'
p789
S'0'
sS'Start'
p790
S'7'
sS'Won'
p791
S'4'
sS'GfM'
p792
S'0'
sS'Draw'
p793
S'1'
sS'Mat'
p794
S'7'
sS'Conv'
p795
S'1'
sS'Tries'
p796
S'2'
sS'Pts'
p797
S'14'
p798
sa(dp799
S'Pens'
p800
S'0'
sS'Sub'
p801
S'0'
sS'Lost'
p802
S'1'
sS'Drop'
p803
S'0'
sS'Start'
p804
S'3'
sS'Won'
p805
S'2'
sS'GfM'
p806
S'0'
sS'Draw'
p807
S'0'
sS'Mat'
p808
S'3'
sS'Conv'
p809
S'0'
sS'Tries'
p810
S'1'
sS'Pts'
p811
S'3'
sa(dp812
S'Pens'
p813
S'0'
sS'Sub'
p814
S'0'
sS'Lost'
p815
S'1'
sS'Drop'
p816
S'0'
sS'Start'
p817
S'3'
sS'Won'
p818
S'2'
sS'GfM'
p819
S'0'
sS'Draw'
p820
S'0'
sS'Mat'
p821
S'3'
sS'Conv'
p822
S'0'
sS'Tries'
p823
S'0'
sS'Pts'
p824
S'0'
sa(dp825
S'Pens'
p826
S'0'
sS'Sub'
p827
S'0'
sS'Lost'
p828
S'2'
sS'Drop'
p829
S'0'
sS'Start'
p830
S'5'
sS'Won'
p831
S'2'
sS'GfM'
p832
S'0'
sS'Draw'
p833
S'1'
sS'Mat'
p834
S'5'
sS'Conv'
p835
S'0'
sS'Tries'
p836
S'0'
sS'Pts'
p837
S'0'
sa(dp838
S'Pens'
p839
S'0'
sS'Sub'
p840
S'0'
sS'Lost'
p841
S'1'
sS'Drop'
p842
S'0'
sS'Start'
p843
S'2'
sS'Won'
p844
S'1'
sS'GfM'
p845
S'0'
sS'Draw'
p846
S'0'
sS'Mat'
p847
S'2'
sS'Conv'
p848
S'0'
sS'Tries'
p849
S'0'
sS'Pts'
p850
S'0'
sa(dp851
S'Pens'
p852
S'0'
sS'Sub'
p853
S'1'
sS'Lost'
p854
S'0'
sS'Drop'
p855
S'0'
sS'Start'
p856
S'0'
sS'Won'
p857
S'1'
sS'GfM'
p858
S'0'
sS'Draw'
p859
S'0'
sS'Mat'
p860
S'1'
sS'Conv'
p861
S'0'
sS'Tries'
p862
S'0'
sS'Pts'
p863
S'0'
sa(dp864
S'Pens'
p865
S'0'
sS'Sub'
p866
S'0'
sS'Lost'
p867
S'1'
sS'Drop'
p868
S'0'
sS'Start'
p869
S'3'
sS'Won'
p870
S'1'
sS'GfM'
p871
S'0'
sS'Draw'
p872
S'1'
sS'Mat'
p873
S'3'
sS'Conv'
p874
S'0'
sS'Tries'
p875
S'0'
sS'Pts'
p876
S'0'
sa(dp877
S'Pens'
p878
S'0'
sS'Sub'
p879
S'0'
sS'Lost'
p880
S'1'
sS'Drop'
p881
S'0'
sS'Start'
p882
S'3'
sS'Won'
p883
S'1'
sS'GfM'
p884
S'0'
sS'Draw'
p885
S'1'
sS'Mat'
p886
S'3'
sS'Conv'
p887
S'0'
sS'Tries'
p888
S'0'
sS'Pts'
p889
S'0'
sa(dp890
S'Pens'
p891
S'0'
sS'Sub'
p892
S'0'
sS'Lost'
p893
S'1'
sS'Drop'
p894
S'0'
sS'Start'
p895
S'3'
sS'Won'
p896
S'1'
sS'GfM'
p897
S'0'
sS'Draw'
p898
S'1'
sS'Mat'
p899
S'3'
sS'Conv'
p900
S'0'
sS'Tries'
p901
S'0'
sS'Pts'
p902
S'0'
sa(dp903
S'Pens'
p904
S'0'
sS'Sub'
p905
S'0'
sS'Lost'
p906
S'1'
sS'Drop'
p907
S'0'
sS'Start'
p908
S'4'
sS'Won'
p909
S'2'
sS'GfM'
p910
S'0'
sS'Draw'
p911
S'1'
sS'Mat'
p912
S'4'
sS'Conv'
p913
S'0'
sS'Tries'
p914
S'0'
sS'Pts'
p915
S'0'
sa(dp916
S'Pens'
p917
S'0'
sS'Sub'
p918
S'0'
sS'Lost'
p919
S'1'
sS'Drop'
p920
S'0'
sS'Start'
p921
S'3'
sS'Won'
p922
S'1'
sS'GfM'
p923
S'0'
sS'Draw'
p924
S'1'
sS'Mat'
p925
S'3'
sS'Conv'
p926
S'0'
sS'Tries'
p927
S'0'
sS'Pts'
p928
S'0'
sa(dp929
S'Pens'
p930
S'0'
sS'Sub'
p931
S'0'
sS'Lost'
p932
S'7'
sS'Drop'
p933
S'0'
sS'Start'
p934
S'16'
p935
sS'Won'
p936
S'8'
sS'GfM'
p937
S'0'
sS'Draw'
p938
S'1'
sS'Mat'
p939
S'16'
p940
sS'Conv'
p941
S'0'
sS'Tries'
p942
S'0'
sS'Pts'
p943
S'0'
sa(dp944
S'Pens'
p945
S'0'
sS'Sub'
p946
S'1'
sS'Lost'
p947
S'3'
sS'Drop'
p948
S'0'
sS'Start'
p949
S'7'
sS'Won'
p950
S'4'
sS'GfM'
p951
S'0'
sS'Draw'
p952
S'1'
sS'Mat'
p953
S'8'
sS'Conv'
p954
S'0'
sS'Tries'
p955
S'0'
sS'Pts'
p956
S'0'
sa(dp957
S'Pens'
p958
S'0'
sS'Sub'
p959
S'0'
sS'Lost'
p960
S'1'
sS'Drop'
p961
S'0'
sS'Start'
p962
S'5'
sS'Won'
p963
S'3'
sS'GfM'
p964
S'0'
sS'Draw'
p965
S'1'
sS'Mat'
p966
S'5'
sS'Conv'
p967
S'0'
sS'Tries'
p968
S'3'
sS'Pts'
p969
S'9'
sa(dp970
S'Pens'
p971
S'0'
sS'Sub'
p972
S'0'
sS'Lost'
p973
S'1'
sS'Drop'
p974
S'0'
sS'Start'
p975
S'4'
sS'Won'
p976
S'2'
sS'GfM'
p977
S'0'
sS'Draw'
p978
S'1'
sS'Mat'
p979
S'4'
sS'Conv'
p980
S'0'
sS'Tries'
p981
S'1'
sS'Pts'
p982
S'3'
sa(dp983
S'Pens'
p984
S'0'
sS'Sub'
p985
S'0'
sS'Lost'
p986
S'1'
sS'Drop'
p987
S'0'
sS'Start'
p988
S'3'
sS'Won'
p989
S'2'
sS'GfM'
p990
S'0'
sS'Draw'
p991
S'0'
sS'Mat'
p992
S'3'
sS'Conv'
p993
S'0'
sS'Tries'
p994
S'1'
sS'Pts'
p995
S'3'
sa(dp996
S'Pens'
p997
S'0'
sS'Sub'
p998
S'0'
sS'Lost'
p999
S'1'
sS'Drop'
p1000
S'0'
sS'Start'
p1001
S'1'
sS'Won'
p1002
S'0'
sS'GfM'
p1003
S'0'
sS'Draw'
p1004
S'0'
sS'Mat'
p1005
S'1'
sS'Conv'
p1006
S'0'
sS'Tries'
p1007
S'0'
sS'Pts'
p1008
S'0'
sa(dp1009
S'Pens'
p1010
S'0'
sS'Sub'
p1011
S'0'
sS'Lost'
p1012
S'0'
sS'Drop'
p1013
S'0'
sS'Start'
p1014
S'1'
sS'Won'
p1015
S'1'
sS'GfM'
p1016
S'0'
sS'Draw'
p1017
S'0'
sS'Mat'
p1018
S'1'
sS'Conv'
p1019
S'0'
sS'Tries'
p1020
S'1'
sS'Pts'
p1021
S'3'
sa(dp1022
S'Pens'
p1023
S'0'
sS'Sub'
p1024
S'0'
sS'Lost'
p1025
S'0'
sS'Drop'
p1026
S'0'
sS'Start'
p1027
S'1'
sS'Won'
p1028
S'1'
sS'GfM'
p1029
S'0'
sS'Draw'
p1030
S'0'
sS'Mat'
p1031
S'1'
sS'Conv'
p1032
S'1'
sS'Tries'
p1033
S'0'
sS'Pts'
p1034
S'2'
sa(dp1035
S'Pens'
p1036
S'0'
sS'Sub'
p1037
S'0'
sS'Lost'
p1038
S'0'
sS'Drop'
p1039
S'0'
sS'Start'
p1040
S'1'
sS'Won'
p1041
S'1'
sS'GfM'
p1042
S'0'
sS'Draw'
p1043
S'0'
sS'Mat'
p1044
S'1'
sS'Conv'
p1045
S'0'
sS'Tries'
p1046
S'0'
sS'Pts'
p1047
S'0'
sa(dp1048
S'Pens'
p1049
S'0'
sS'Sub'
p1050
S'0'
sS'Lost'
p1051
S'0'
sS'Drop'
p1052
S'0'
sS'Start'
p1053
S'1'
sS'Won'
p1054
S'1'
sS'GfM'
p1055
S'0'
sS'Draw'
p1056
S'0'
sS'Mat'
p1057
S'1'
sS'Conv'
p1058
S'0'
sS'Tries'
p1059
S'0'
sS'Pts'
p1060
S'0'
sa(dp1061
S'Pens'
p1062
S'0'
sS'Sub'
p1063
S'0'
sS'Lost'
p1064
S'0'
sS'Drop'
p1065
S'0'
sS'Start'
p1066
S'1'
sS'Won'
p1067
S'1'
sS'GfM'
p1068
S'0'
sS'Draw'
p1069
S'0'
sS'Mat'
p1070
S'1'
sS'Conv'
p1071
S'0'
sS'Tries'
p1072
S'0'
sS'Pts'
p1073
S'0'
sa(dp1074
S'Pens'
p1075
S'0'
sS'Sub'
p1076
S'0'
sS'Lost'
p1077
S'0'
sS'Drop'
p1078
S'0'
sS'Start'
p1079
S'1'
sS'Won'
p1080
S'1'
sS'GfM'
p1081
S'0'
sS'Draw'
p1082
S'0'
sS'Mat'
p1083
S'1'
sS'Conv'
p1084
S'0'
sS'Tries'
p1085
S'0'
sS'Pts'
p1086
S'0'
sa(dp1087
S'Pens'
p1088
S'0'
sS'Sub'
p1089
S'0'
sS'Lost'
p1090
S'0'
sS'Drop'
p1091
S'0'
sS'Start'
p1092
S'1'
sS'Won'
p1093
S'1'
sS'GfM'
p1094
S'0'
sS'Draw'
p1095
S'0'
sS'Mat'
p1096
S'1'
sS'Conv'
p1097
S'0'
sS'Tries'
p1098
S'0'
sS'Pts'
p1099
S'0'
sa(dp1100
S'Pens'
p1101
S'0'
sS'Sub'
p1102
S'0'
sS'Lost'
p1103
S'2'
sS'Drop'
p1104
S'0'
sS'Start'
p1105
S'5'
sS'Won'
p1106
S'3'
sS'GfM'
p1107
S'0'
sS'Draw'
p1108
S'0'
sS'Mat'
p1109
S'5'
sS'Conv'
p1110
S'0'
sS'Tries'
p1111
S'0'
sS'Pts'
p1112
S'0'
sa(dp1113
S'Pens'
p1114
S'0'
sS'Sub'
p1115
S'0'
sS'Lost'
p1116
S'0'
sS'Drop'
p1117
S'0'
sS'Start'
p1118
S'1'
sS'Won'
p1119
S'1'
sS'GfM'
p1120
S'0'
sS'Draw'
p1121
S'0'
sS'Mat'
p1122
S'1'
sS'Conv'
p1123
S'0'
sS'Tries'
p1124
S'1'
sS'Pts'
p1125
S'3'
sa(dp1126
S'Pens'
p1127
S'0'
sS'Sub'
p1128
S'0'
sS'Lost'
p1129
S'0'
sS'Drop'
p1130
S'0'
sS'Start'
p1131
S'2'
sS'Won'
p1132
S'2'
sS'GfM'
p1133
S'0'
sS'Draw'
p1134
S'0'
sS'Mat'
p1135
S'2'
sS'Conv'
p1136
S'0'
sS'Tries'
p1137
S'0'
sS'Pts'
p1138
S'0'
sa(dp1139
S'Pens'
p1140
S'0'
sS'Sub'
p1141
S'0'
sS'Lost'
p1142
S'0'
sS'Drop'
p1143
S'0'
sS'Start'
p1144
S'2'
sS'Won'
p1145
S'2'
sS'GfM'
p1146
S'0'
sS'Draw'
p1147
S'0'
sS'Mat'
p1148
S'2'
sS'Conv'
p1149
S'0'
sS'Tries'
p1150
S'0'
sS'Pts'
p1151
S'0'
sa(dp1152
S'Pens'
p1153
S'0'
sS'Sub'
p1154
S'0'
sS'Lost'
p1155
S'1'
sS'Drop'
p1156
S'0'
sS'Start'
p1157
S'4'
sS'Won'
p1158
S'3'
sS'GfM'
p1159
S'0'
sS'Draw'
p1160
S'0'
sS'Mat'
p1161
S'4'
sS'Conv'
p1162
S'0'
sS'Tries'
p1163
S'0'
sS'Pts'
p1164
S'0'
sa(dp1165
S'Pens'
p1166
S'0'
sS'Sub'
p1167
S'0'
sS'Lost'
p1168
S'2'
sS'Drop'
p1169
S'0'
sS'Start'
p1170
S'5'
sS'Won'
p1171
S'3'
sS'GfM'
p1172
S'0'
sS'Draw'
p1173
S'0'
sS'Mat'
p1174
S'5'
sS'Conv'
p1175
S'0'
sS'Tries'
p1176
S'0'
sS'Pts'
p1177
S'0'
sa(dp1178
S'Pens'
p1179
S'0'
sS'Sub'
p1180
S'0'
sS'Lost'
p1181
S'1'
sS'Drop'
p1182
S'0'
sS'Start'
p1183
S'3'
sS'Won'
p1184
S'2'
sS'GfM'
p1185
S'0'
sS'Draw'
p1186
S'0'
sS'Mat'
p1187
S'3'
sS'Conv'
p1188
S'0'
sS'Tries'
p1189
S'4'
sS'Pts'
p1190
S'12'
p1191
sa(dp1192
S'Pens'
p1193
S'0'
sS'Sub'
p1194
S'1'
sS'Lost'
p1195
S'1'
sS'Drop'
p1196
S'0'
sS'Start'
p1197
S'4'
sS'Won'
p1198
S'4'
sS'GfM'
p1199
S'0'
sS'Draw'
p1200
S'0'
sS'Mat'
p1201
S'5'
sS'Conv'
p1202
S'0'
sS'Tries'
p1203
S'0'
sS'Pts'
p1204
S'0'
sa(dp1205
S'Pens'
p1206
S'0'
sS'Sub'
p1207
S'0'
sS'Lost'
p1208
S'1'
sS'Drop'
p1209
S'0'
sS'Start'
p1210
S'4'
sS'Won'
p1211
S'3'
sS'GfM'
p1212
S'0'
sS'Draw'
p1213
S'0'
sS'Mat'
p1214
S'4'
sS'Conv'
p1215
S'0'
sS'Tries'
p1216
S'2'
sS'Pts'
p1217
S'6'
sa(dp1218
S'Pens'
p1219
S'0'
sS'Sub'
p1220
S'0'
sS'Lost'
p1221
S'0'
sS'Drop'
p1222
S'0'
sS'Start'
p1223
S'1'
sS'Won'
p1224
S'1'
sS'GfM'
p1225
S'0'
sS'Draw'
p1226
S'0'
sS'Mat'
p1227
S'1'
sS'Conv'
p1228
S'0'
sS'Tries'
p1229
S'0'
sS'Pts'
p1230
S'0'
sa(dp1231
S'Pens'
p1232
S'0'
sS'Sub'
p1233
S'0'
sS'Lost'
p1234
S'2'
sS'Drop'
p1235
S'0'
sS'Start'
p1236
S'4'
sS'Won'
p1237
S'2'
sS'GfM'
p1238
S'0'
sS'Draw'
p1239
S'0'
sS'Mat'
p1240
S'4'
sS'Conv'
p1241
S'0'
sS'Tries'
p1242
S'1'
sS'Pts'
p1243
S'3'
sa(dp1244
S'Pens'
p1245
S'2'
sS'Sub'
p1246
S'1'
sS'Lost'
p1247
S'2'
sS'Drop'
p1248
S'0'
sS'Start'
p1249
S'4'
sS'Won'
p1250
S'3'
sS'GfM'
p1251
S'0'
sS'Draw'
p1252
S'0'
sS'Mat'
p1253
S'5'
sS'Conv'
p1254
S'0'
sS'Tries'
p1255
S'1'
sS'Pts'
p1256
S'9'
sa(dp1257
S'Pens'
p1258
S'9'
sS'Sub'
p1259
S'1'
sS'Lost'
p1260
S'5'
sS'Drop'
p1261
S'1'
sS'Start'
p1262
S'9'
sS'Won'
p1263
S'5'
sS'GfM'
p1264
S'0'
sS'Draw'
p1265
S'0'
sS'Mat'
p1266
S'10'
p1267
sS'Conv'
p1268
S'1'
sS'Tries'
p1269
S'3'
sS'Pts'
p1270
S'41'
p1271
sa(dp1272
S'Pens'
p1273
S'0'
sS'Sub'
p1274
S'1'
sS'Lost'
p1275
S'0'
sS'Drop'
p1276
S'0'
sS'Start'
p1277
S'1'
sS'Won'
p1278
S'2'
sS'GfM'
p1279
S'0'
sS'Draw'
p1280
S'0'
sS'Mat'
p1281
S'2'
sS'Conv'
p1282
S'0'
sS'Tries'
p1283
S'0'
sS'Pts'
p1284
S'0'
sa(dp1285
S'Pens'
p1286
S'0'
sS'Sub'
p1287
S'0'
sS'Lost'
p1288
S'1'
sS'Drop'
p1289
S'0'
sS'Start'
p1290
S'1'
sS'Won'
p1291
S'0'
sS'GfM'
p1292
S'0'
sS'Draw'
p1293
S'0'
sS'Mat'
p1294
S'1'
sS'Conv'
p1295
S'0'
sS'Tries'
p1296
S'0'
sS'Pts'
p1297
S'0'
sa(dp1298
S'Pens'
p1299
S'0'
sS'Sub'
p1300
S'0'
sS'Lost'
p1301
S'6'
sS'Drop'
p1302
S'0'
sS'Start'
p1303
S'8'
sS'Won'
p1304
S'2'
sS'GfM'
p1305
S'0'
sS'Draw'
p1306
S'0'
sS'Mat'
p1307
S'8'
sS'Conv'
p1308
S'0'
sS'Tries'
p1309
S'0'
sS'Pts'
p1310
S'0'
sa(dp1311
S'Pens'
p1312
S'0'
sS'Sub'
p1313
S'0'
sS'Lost'
p1314
S'3'
sS'Drop'
p1315
S'0'
sS'Start'
p1316
S'6'
sS'Won'
p1317
S'3'
sS'GfM'
p1318
S'0'
sS'Draw'
p1319
S'0'
sS'Mat'
p1320
S'6'
sS'Conv'
p1321
S'0'
sS'Tries'
p1322
S'1'
sS'Pts'
p1323
S'3'
sa(dp1324
S'Pens'
p1325
S'0'
sS'Sub'
p1326
S'0'
sS'Lost'
p1327
S'3'
sS'Drop'
p1328
S'0'
sS'Start'
p1329
S'6'
sS'Won'
p1330
S'3'
sS'GfM'
p1331
S'0'
sS'Draw'
p1332
S'0'
sS'Mat'
p1333
S'6'
sS'Conv'
p1334
S'0'
sS'Tries'
p1335
S'1'
sS'Pts'
p1336
S'3'
sa(dp1337
S'Pens'
p1338
S'0'
sS'Sub'
p1339
S'0'
sS'Lost'
p1340
S'2'
sS'Drop'
p1341
S'0'
sS'Start'
p1342
S'3'
sS'Won'
p1343
S'1'
sS'GfM'
p1344
S'0'
sS'Draw'
p1345
S'0'
sS'Mat'
p1346
S'3'
sS'Conv'
p1347
S'0'
sS'Tries'
p1348
S'0'
sS'Pts'
p1349
S'0'
sa(dp1350
S'Pens'
p1351
S'0'
sS'Sub'
p1352
S'0'
sS'Lost'
p1353
S'1'
sS'Drop'
p1354
S'0'
sS'Start'
p1355
S'2'
sS'Won'
p1356
S'1'
sS'GfM'
p1357
S'0'
sS'Draw'
p1358
S'0'
sS'Mat'
p1359
S'2'
sS'Conv'
p1360
S'0'
sS'Tries'
p1361
S'2'
sS'Pts'
p1362
S'6'
sa(dp1363
S'Pens'
p1364
S'0'
sS'Sub'
p1365
S'0'
sS'Lost'
p1366
S'2'
sS'Drop'
p1367
S'0'
sS'Start'
p1368
S'4'
sS'Won'
p1369
S'2'
sS'GfM'
p1370
S'0'
sS'Draw'
p1371
S'0'
sS'Mat'
p1372
S'4'
sS'Conv'
p1373
S'0'
sS'Tries'
p1374
S'0'
sS'Pts'
p1375
S'0'
sa(dp1376
S'Pens'
p1377
S'0'
sS'Sub'
p1378
S'0'
sS'Lost'
p1379
S'1'
sS'Drop'
p1380
S'0'
sS'Start'
p1381
S'2'
sS'Won'
p1382
S'1'
sS'GfM'
p1383
S'0'
sS'Draw'
p1384
S'0'
sS'Mat'
p1385
S'2'
sS'Conv'
p1386
S'0'
sS'Tries'
p1387
S'0'
sS'Pts'
p1388
S'0'
sa(dp1389
S'Pens'
p1390
S'0'
sS'Sub'
p1391
S'0'
sS'Lost'
p1392
S'3'
sS'Drop'
p1393
S'0'
sS'Start'
p1394
S'5'
sS'Won'
p1395
S'2'
sS'GfM'
p1396
S'0'
sS'Draw'
p1397
S'0'
sS'Mat'
p1398
S'5'
sS'Conv'
p1399
S'0'
sS'Tries'
p1400
S'0'
sS'Pts'
p1401
S'0'
sa(dp1402
S'Pens'
p1403
S'0'
sS'Sub'
p1404
S'0'
sS'Lost'
p1405
S'1'
sS'Drop'
p1406
S'0'
sS'Start'
p1407
S'1'
sS'Won'
p1408
S'0'
sS'GfM'
p1409
S'0'
sS'Draw'
p1410
S'0'
sS'Mat'
p1411
S'1'
sS'Conv'
p1412
S'0'
sS'Tries'
p1413
S'0'
sS'Pts'
p1414
S'0'
sa(dp1415
S'Pens'
p1416
S'0'
sS'Sub'
p1417
S'0'
sS'Lost'
p1418
S'2'
sS'Drop'
p1419
S'0'
sS'Start'
p1420
S'5'
sS'Won'
p1421
S'3'
sS'GfM'
p1422
S'0'
sS'Draw'
p1423
S'0'
sS'Mat'
p1424
S'5'
sS'Conv'
p1425
S'0'
sS'Tries'
p1426
S'0'
sS'Pts'
p1427
S'0'
sa(dp1428
S'Pens'
p1429
S'0'
sS'Sub'
p1430
S'0'
sS'Lost'
p1431
S'4'
sS'Drop'
p1432
S'0'
sS'Start'
p1433
S'8'
sS'Won'
p1434
S'4'
sS'GfM'
p1435
S'0'
sS'Draw'
p1436
S'0'
sS'Mat'
p1437
S'8'
sS'Conv'
p1438
S'0'
sS'Tries'
p1439
S'4'
sS'Pts'
p1440
S'12'
p1441
sa(dp1442
S'Pens'
p1443
S'0'
sS'Sub'
p1444
S'0'
sS'Lost'
p1445
S'1'
sS'Drop'
p1446
S'0'
sS'Start'
p1447
S'2'
sS'Won'
p1448
S'1'
sS'GfM'
p1449
S'0'
sS'Draw'
p1450
S'0'
sS'Mat'
p1451
S'2'
sS'Conv'
p1452
S'0'
sS'Tries'
p1453
S'1'
sS'Pts'
p1454
S'3'
sa(dp1455
S'Pens'
p1456
S'0'
sS'Sub'
p1457
S'0'
sS'Lost'
p1458
S'0'
sS'Drop'
p1459
S'0'
sS'Start'
p1460
S'1'
sS'Won'
p1461
S'1'
sS'GfM'
p1462
S'0'
sS'Draw'
p1463
S'0'
sS'Mat'
p1464
S'1'
sS'Conv'
p1465
S'0'
sS'Tries'
p1466
S'0'
sS'Pts'
p1467
S'0'
sa(dp1468
S'Pens'
p1469
S'0'
sS'Sub'
p1470
S'0'
sS'Lost'
p1471
S'0'
sS'Drop'
p1472
S'0'
sS'Start'
p1473
S'1'
sS'Won'
p1474
S'1'
sS'GfM'
p1475
S'0'
sS'Draw'
p1476
S'0'
sS'Mat'
p1477
S'1'
sS'Conv'
p1478
S'0'
sS'Tries'
p1479
S'0'
sS'Pts'
p1480
S'0'
sa(dp1481
S'Pens'
p1482
S'2'
sS'Sub'
p1483
S'0'
sS'Lost'
p1484
S'8'
sS'Drop'
p1485
S'0'
sS'Start'
p1486
S'17'
p1487
sS'Won'
p1488
S'8'
sS'GfM'
p1489
S'0'
sS'Draw'
p1490
S'1'
sS'Mat'
p1491
S'17'
p1492
sS'Conv'
p1493
S'1'
sS'Tries'
p1494
S'8'
sS'Pts'
p1495
S'32'
p1496
sa(dp1497
S'Pens'
p1498
S'0'
sS'Sub'
p1499
S'0'
sS'Lost'
p1500
S'1'
sS'Drop'
p1501
S'0'
sS'Start'
p1502
S'5'
sS'Won'
p1503
S'4'
sS'GfM'
p1504
S'0'
sS'Draw'
p1505
S'0'
sS'Mat'
p1506
S'5'
sS'Conv'
p1507
S'3'
sS'Tries'
p1508
S'0'
sS'Pts'
p1509
S'6'
sa(dp1510
S'Pens'
p1511
S'0'
sS'Sub'
p1512
S'0'
sS'Lost'
p1513
S'2'
sS'Drop'
p1514
S'0'
sS'Start'
p1515
S'5'
sS'Won'
p1516
S'3'
sS'GfM'
p1517
S'0'
sS'Draw'
p1518
S'0'
sS'Mat'
p1519
S'5'
sS'Conv'
p1520
S'0'
sS'Tries'
p1521
S'1'
sS'Pts'
p1522
S'3'
sa(dp1523
S'Pens'
p1524
S'0'
sS'Sub'
p1525
S'0'
sS'Lost'
p1526
S'2'
sS'Drop'
p1527
S'0'
sS'Start'
p1528
S'5'
sS'Won'
p1529
S'3'
sS'GfM'
p1530
S'0'
sS'Draw'
p1531
S'0'
sS'Mat'
p1532
S'5'
sS'Conv'
p1533
S'0'
sS'Tries'
p1534
S'1'
sS'Pts'
p1535
S'3'
sa(dp1536
S'Pens'
p1537
S'0'
sS'Sub'
p1538
S'0'
sS'Lost'
p1539
S'0'
sS'Drop'
p1540
S'0'
sS'Start'
p1541
S'1'
sS'Won'
p1542
S'1'
sS'GfM'
p1543
S'0'
sS'Draw'
p1544
S'0'
sS'Mat'
p1545
S'1'
sS'Conv'
p1546
S'0'
sS'Tries'
p1547
S'0'
sS'Pts'
p1548
S'0'
sa(dp1549
S'Pens'
p1550
S'2'
sS'Sub'
p1551
S'0'
sS'Lost'
p1552
S'5'
sS'Drop'
p1553
S'0'
sS'Start'
p1554
S'10'
p1555
sS'Won'
p1556
S'5'
sS'GfM'
p1557
S'0'
sS'Draw'
p1558
S'0'
sS'Mat'
p1559
S'10'
p1560
sS'Conv'
p1561
S'5'
sS'Tries'
p1562
S'0'
sS'Pts'
p1563
S'16'
p1564
sa(dp1565
S'Pens'
p1566
S'0'
sS'Sub'
p1567
S'0'
sS'Lost'
p1568
S'1'
sS'Drop'
p1569
S'0'
sS'Start'
p1570
S'2'
sS'Won'
p1571
S'1'
sS'GfM'
p1572
S'0'
sS'Draw'
p1573
S'0'
sS'Mat'
p1574
S'2'
sS'Conv'
p1575
S'0'
sS'Tries'
p1576
S'1'
sS'Pts'
p1577
S'3'
sa(dp1578
S'Pens'
p1579
S'0'
sS'Sub'
p1580
S'1'
sS'Lost'
p1581
S'2'
sS'Drop'
p1582
S'0'
sS'Start'
p1583
S'4'
sS'Won'
p1584
S'3'
sS'GfM'
p1585
S'0'
sS'Draw'
p1586
S'0'
sS'Mat'
p1587
S'5'
sS'Conv'
p1588
S'0'
sS'Tries'
p1589
S'2'
sS'Pts'
p1590
S'6'
sa(dp1591
S'Pens'
p1592
S'0'
sS'Sub'
p1593
S'1'
sS'Lost'
p1594
S'0'
sS'Drop'
p1595
S'0'
sS'Start'
p1596
S'0'
sS'Won'
p1597
S'1'
sS'GfM'
p1598
S'0'
sS'Draw'
p1599
S'0'
sS'Mat'
p1600
S'1'
sS'Conv'
p1601
S'0'
sS'Tries'
p1602
S'0'
sS'Pts'
p1603
S'0'
sa(dp1604
S'Pens'
p1605
S'0'
sS'Sub'
p1606
S'0'
sS'Lost'
p1607
S'4'
sS'Drop'
p1608
S'0'
sS'Start'
p1609
S'7'
sS'Won'
p1610
S'3'
sS'GfM'
p1611
S'0'
sS'Draw'
p1612
S'0'
sS'Mat'
p1613
S'7'
sS'Conv'
p1614
S'0'
sS'Tries'
p1615
S'2'
sS'Pts'
p1616
S'6'
sa(dp1617
S'Pens'
p1618
S'0'
sS'Sub'
p1619
S'0'
sS'Lost'
p1620
S'0'
sS'Drop'
p1621
S'0'
sS'Start'
p1622
S'3'
sS'Won'
p1623
S'3'
sS'GfM'
p1624
S'0'
sS'Draw'
p1625
S'0'
sS'Mat'
p1626
S'3'
sS'Conv'
p1627
S'0'
sS'Tries'
p1628
S'0'
sS'Pts'
p1629
S'0'
sa(dp1630
S'Pens'
p1631
S'0'
sS'Sub'
p1632
S'0'
sS'Lost'
p1633
S'1'
sS'Drop'
p1634
S'0'
sS'Start'
p1635
S'3'
sS'Won'
p1636
S'2'
sS'GfM'
p1637
S'0'
sS'Draw'
p1638
S'0'
sS'Mat'
p1639
S'3'
sS'Conv'
p1640
S'0'
sS'Tries'
p1641
S'1'
sS'Pts'
p1642
S'3'
sa(dp1643
S'Pens'
p1644
S'0'
sS'Sub'
p1645
S'0'
sS'Lost'
p1646
S'0'
sS'Drop'
p1647
S'0'
sS'Start'
p1648
S'1'
sS'Won'
p1649
S'1'
sS'GfM'
p1650
S'0'
sS'Draw'
p1651
S'0'
sS'Mat'
p1652
S'1'
sS'Conv'
p1653
S'0'
sS'Tries'
p1654
S'0'
sS'Pts'
p1655
S'0'
sa(dp1656
S'Pens'
p1657
S'0'
sS'Sub'
p1658
S'0'
sS'Lost'
p1659
S'3'
sS'Drop'
p1660
S'0'
sS'Start'
p1661
S'4'
sS'Won'
p1662
S'1'
sS'GfM'
p1663
S'0'
sS'Draw'
p1664
S'0'
sS'Mat'
p1665
S'4'
sS'Conv'
p1666
S'0'
sS'Tries'
p1667
S'0'
sS'Pts'
p1668
S'0'
sa(dp1669
S'Pens'
p1670
S'0'
sS'Sub'
p1671
S'0'
sS'Lost'
p1672
S'1'
sS'Drop'
p1673
S'0'
sS'Start'
p1674
S'2'
sS'Won'
p1675
S'1'
sS'GfM'
p1676
S'0'
sS'Draw'
p1677
S'0'
sS'Mat'
p1678
S'2'
sS'Conv'
p1679
S'0'
sS'Tries'
p1680
S'1'
sS'Pts'
p1681
S'3'
sa(dp1682
S'Pens'
p1683
S'0'
sS'Sub'
p1684
S'0'
sS'Lost'
p1685
S'1'
sS'Drop'
p1686
S'0'
sS'Start'
p1687
S'1'
sS'Won'
p1688
S'0'
sS'GfM'
p1689
S'0'
sS'Draw'
p1690
S'0'
sS'Mat'
p1691
S'1'
sS'Conv'
p1692
S'0'
sS'Tries'
p1693
S'1'
sS'Pts'
p1694
S'3'
sa(dp1695
S'Pens'
p1696
S'1'
sS'Sub'
p1697
S'0'
sS'Lost'
p1698
S'3'
sS'Drop'
p1699
S'0'
sS'Start'
p1700
S'4'
sS'Won'
p1701
S'1'
sS'GfM'
p1702
S'0'
sS'Draw'
p1703
S'0'
sS'Mat'
p1704
S'4'
sS'Conv'
p1705
S'0'
sS'Tries'
p1706
S'0'
sS'Pts'
p1707
S'3'
sa(dp1708
S'Pens'
p1709
S'1'
sS'Sub'
p1710
S'0'
sS'Lost'
p1711
S'5'
sS'Drop'
p1712
S'0'
sS'Start'
p1713
S'15'
p1714
sS'Won'
p1715
S'10'
p1716
sS'GfM'
p1717
S'0'
sS'Draw'
p1718
S'0'
sS'Mat'
p1719
S'15'
p1720
sS'Conv'
p1721
S'5'
sS'Tries'
p1722
S'2'
sS'Pts'
p1723
S'19'
p1724
sa(dp1725
S'Pens'
p1726
S'0'
sS'Sub'
p1727
S'0'
sS'Lost'
p1728
S'5'
sS'Drop'
p1729
S'0'
sS'Start'
p1730
S'12'
p1731
sS'Won'
p1732
S'6'
sS'GfM'
p1733
S'0'
sS'Draw'
p1734
S'1'
sS'Mat'
p1735
S'12'
p1736
sS'Conv'
p1737
S'0'
sS'Tries'
p1738
S'5'
sS'Pts'
p1739
S'15'
p1740
sa(dp1741
S'Pens'
p1742
S'0'
sS'Sub'
p1743
S'1'
sS'Lost'
p1744
S'2'
sS'Drop'
p1745
S'0'
sS'Start'
p1746
S'6'
sS'Won'
p1747
S'5'
sS'GfM'
p1748
S'0'
sS'Draw'
p1749
S'0'
sS'Mat'
p1750
S'7'
sS'Conv'
p1751
S'2'
sS'Tries'
p1752
S'0'
sS'Pts'
p1753
S'4'
sa(dp1754
S'Pens'
p1755
S'0'
sS'Sub'
p1756
S'0'
sS'Lost'
p1757
S'2'
sS'Drop'
p1758
S'0'
sS'Start'
p1759
S'3'
sS'Won'
p1760
S'1'
sS'GfM'
p1761
S'0'
sS'Draw'
p1762
S'0'
sS'Mat'
p1763
S'3'
sS'Conv'
p1764
S'0'
sS'Tries'
p1765
S'0'
sS'Pts'
p1766
S'0'
sa(dp1767
S'Pens'
p1768
S'0'
sS'Sub'
p1769
S'0'
sS'Lost'
p1770
S'1'
sS'Drop'
p1771
S'0'
sS'Start'
p1772
S'2'
sS'Won'
p1773
S'1'
sS'GfM'
p1774
S'0'
sS'Draw'
p1775
S'0'
sS'Mat'
p1776
S'2'
sS'Conv'
p1777
S'0'
sS'Tries'
p1778
S'0'
sS'Pts'
p1779
S'0'
sa(dp1780
S'Pens'
p1781
S'0'
sS'Sub'
p1782
S'1'
sS'Lost'
p1783
S'2'
sS'Drop'
p1784
S'0'
sS'Start'
p1785
S'1'
sS'Won'
p1786
S'0'
sS'GfM'
p1787
S'0'
sS'Draw'
p1788
S'0'
sS'Mat'
p1789
S'2'
sS'Conv'
p1790
S'0'
sS'Tries'
p1791
S'0'
sS'Pts'
p1792
S'0'
sa(dp1793
S'Pens'
p1794
S'0'
sS'Sub'
p1795
S'0'
sS'Lost'
p1796
S'2'
sS'Drop'
p1797
S'0'
sS'Start'
p1798
S'6'
sS'Won'
p1799
S'4'
sS'GfM'
p1800
S'0'
sS'Draw'
p1801
S'0'
sS'Mat'
p1802
S'6'
sS'Conv'
p1803
S'0'
sS'Tries'
p1804
S'0'
sS'Pts'
p1805
S'0'
sa(dp1806
S'Pens'
p1807
S'0'
sS'Sub'
p1808
S'0'
sS'Lost'
p1809
S'5'
sS'Drop'
p1810
S'0'
sS'Start'
p1811
S'9'
sS'Won'
p1812
S'4'
sS'GfM'
p1813
S'0'
sS'Draw'
p1814
S'0'
sS'Mat'
p1815
S'9'
sS'Conv'
p1816
S'0'
sS'Tries'
p1817
S'1'
sS'Pts'
p1818
S'3'
sa(dp1819
S'Pens'
p1820
S'0'
sS'Sub'
p1821
S'0'
sS'Lost'
p1822
S'4'
sS'Drop'
p1823
S'0'
sS'Start'
p1824
S'7'
sS'Won'
p1825
S'2'
sS'GfM'
p1826
S'0'
sS'Draw'
p1827
S'1'
sS'Mat'
p1828
S'7'
sS'Conv'
p1829
S'0'
sS'Tries'
p1830
S'3'
sS'Pts'
p1831
S'9'
sa(dp1832
S'Pens'
p1833
S'0'
sS'Sub'
p1834
S'0'
sS'Lost'
p1835
S'1'
sS'Drop'
p1836
S'0'
sS'Start'
p1837
S'5'
sS'Won'
p1838
S'4'
sS'GfM'
p1839
S'0'
sS'Draw'
p1840
S'0'
sS'Mat'
p1841
S'5'
sS'Conv'
p1842
S'0'
sS'Tries'
p1843
S'0'
sS'Pts'
p1844
S'0'
sa(dp1845
S'Pens'
p1846
S'0'
sS'Sub'
p1847
S'0'
sS'Lost'
p1848
S'0'
sS'Drop'
p1849
S'0'
sS'Start'
p1850
S'1'
sS'Won'
p1851
S'1'
sS'GfM'
p1852
S'0'
sS'Draw'
p1853
S'0'
sS'Mat'
p1854
S'1'
sS'Conv'
p1855
S'0'
sS'Tries'
p1856
S'0'
sS'Pts'
p1857
S'0'
sa(dp1858
S'Pens'
p1859
S'0'
sS'Sub'
p1860
S'0'
sS'Lost'
p1861
S'1'
sS'Drop'
p1862
S'0'
sS'Start'
p1863
S'5'
sS'Won'
p1864
S'4'
sS'GfM'
p1865
S'0'
sS'Draw'
p1866
S'0'
sS'Mat'
p1867
S'5'
sS'Conv'
p1868
S'0'
sS'Tries'
p1869
S'0'
sS'Pts'
p1870
S'0'
sa(dp1871
S'Pens'
p1872
S'0'
sS'Sub'
p1873
S'0'
sS'Lost'
p1874
S'1'
sS'Drop'
p1875
S'0'
sS'Start'
p1876
S'3'
sS'Won'
p1877
S'2'
sS'GfM'
p1878
S'0'
sS'Draw'
p1879
S'0'
sS'Mat'
p1880
S'3'
sS'Conv'
p1881
S'0'
sS'Tries'
p1882
S'0'
sS'Pts'
p1883
S'0'
sa(dp1884
S'Pens'
p1885
S'0'
sS'Sub'
p1886
S'0'
sS'Lost'
p1887
S'4'
sS'Drop'
p1888
S'0'
sS'Start'
p1889
S'11'
p1890
sS'Won'
p1891
S'6'
sS'GfM'
p1892
S'0'
sS'Draw'
p1893
S'1'
sS'Mat'
p1894
S'11'
p1895
sS'Conv'
p1896
S'0'
sS'Tries'
p1897
S'2'
sS'Pts'
p1898
S'6'
sa(dp1899
S'Pens'
p1900
S'0'
sS'Sub'
p1901
S'0'
sS'Lost'
p1902
S'0'
sS'Drop'
p1903
S'0'
sS'Start'
p1904
S'1'
sS'Won'
p1905
S'1'
sS'GfM'
p1906
S'0'
sS'Draw'
p1907
S'0'
sS'Mat'
p1908
S'1'
sS'Conv'
p1909
S'0'
sS'Tries'
p1910
S'0'
sS'Pts'
p1911
S'0'
sa(dp1912
S'Pens'
p1913
S'3'
sS'Sub'
p1914
S'0'
sS'Lost'
p1915
S'1'
sS'Drop'
p1916
S'0'
sS'Start'
p1917
S'3'
sS'Won'
p1918
S'2'
sS'GfM'
p1919
S'0'
sS'Draw'
p1920
S'0'
sS'Mat'
p1921
S'3'
sS'Conv'
p1922
S'7'
sS'Tries'
p1923
S'0'
sS'Pts'
p1924
S'23'
p1925
sa(dp1926
S'Pens'
p1927
S'0'
sS'Sub'
p1928
S'0'
sS'Lost'
p1929
S'1'
sS'Drop'
p1930
S'0'
sS'Start'
p1931
S'2'
sS'Won'
p1932
S'1'
sS'GfM'
p1933
S'0'
sS'Draw'
p1934
S'0'
sS'Mat'
p1935
S'2'
sS'Conv'
p1936
S'0'
sS'Tries'
p1937
S'0'
sS'Pts'
p1938
S'0'
sa(dp1939
S'Pens'
p1940
S'0'
sS'Sub'
p1941
S'1'
sS'Lost'
p1942
S'0'
sS'Drop'
p1943
S'0'
sS'Start'
p1944
S'0'
sS'Won'
p1945
S'1'
sS'GfM'
p1946
S'0'
sS'Draw'
p1947
S'0'
sS'Mat'
p1948
S'1'
sS'Conv'
p1949
S'0'
sS'Tries'
p1950
S'0'
sS'Pts'
p1951
S'0'
sa(dp1952
S'Pens'
p1953
S'2'
sS'Sub'
p1954
S'0'
sS'Lost'
p1955
S'4'
sS'Drop'
p1956
S'0'
sS'Start'
p1957
S'7'
sS'Won'
p1958
S'2'
sS'GfM'
p1959
S'0'
sS'Draw'
p1960
S'1'
sS'Mat'
p1961
S'7'
sS'Conv'
p1962
S'1'
sS'Tries'
p1963
S'0'
sS'Pts'
p1964
S'8'
sa(dp1965
S'Pens'
p1966
S'0'
sS'Sub'
p1967
S'0'
sS'Lost'
p1968
S'2'
sS'Drop'
p1969
S'0'
sS'Start'
p1970
S'4'
sS'Won'
p1971
S'2'
sS'GfM'
p1972
S'0'
sS'Draw'
p1973
S'0'
sS'Mat'
p1974
S'4'
sS'Conv'
p1975
S'0'
sS'Tries'
p1976
S'0'
sS'Pts'
p1977
S'0'
sa(dp1978
S'Pens'
p1979
S'0'
sS'Sub'
p1980
S'0'
sS'Lost'
p1981
S'1'
sS'Drop'
p1982
S'0'
sS'Start'
p1983
S'3'
sS'Won'
p1984
S'2'
sS'GfM'
p1985
S'0'
sS'Draw'
p1986
S'0'
sS'Mat'
p1987
S'3'
sS'Conv'
p1988
S'0'
sS'Tries'
p1989
S'2'
sS'Pts'
p1990
S'6'
sa(dp1991
S'Pens'
p1992
S'8'
sS'Sub'
p1993
S'0'
sS'Lost'
p1994
S'1'
sS'Drop'
p1995
S'0'
sS'Start'
p1996
S'6'
sS'Won'
p1997
S'4'
sS'GfM'
p1998
S'0'
sS'Draw'
p1999
S'1'
sS'Mat'
p2000
S'6'
sS'Conv'
p2001
S'0'
sS'Tries'
p2002
S'1'
sS'Pts'
p2003
S'27'
p2004
sa(dp2005
S'Pens'
p2006
S'2'
sS'Sub'
p2007
S'3'
sS'Lost'
p2008
S'4'
sS'Drop'
p2009
S'0'
sS'Start'
p2010
S'8'
sS'Won'
p2011
S'6'
sS'GfM'
p2012
S'0'
sS'Draw'
p2013
S'1'
sS'Mat'
p2014
S'11'
p2015
sS'Conv'
p2016
S'3'
sS'Tries'
p2017
S'8'
sS'Pts'
p2018
S'36'
p2019
sa(dp2020
S'Pens'
p2021
S'1'
sS'Sub'
p2022
S'1'
sS'Lost'
p2023
S'3'
sS'Drop'
p2024
S'0'
sS'Start'
p2025
S'7'
sS'Won'
p2026
S'5'
sS'GfM'
p2027
S'0'
sS'Draw'
p2028
S'0'
sS'Mat'
p2029
S'8'
sS'Conv'
p2030
S'0'
sS'Tries'
p2031
S'0'
sS'Pts'
p2032
S'3'
sa(dp2033
S'Pens'
p2034
S'0'
sS'Sub'
p2035
S'0'
sS'Lost'
p2036
S'1'
sS'Drop'
p2037
S'0'
sS'Start'
p2038
S'1'
sS'Won'
p2039
S'0'
sS'GfM'
p2040
S'0'
sS'Draw'
p2041
S'0'
sS'Mat'
p2042
S'1'
sS'Conv'
p2043
S'0'
sS'Tries'
p2044
S'1'
sS'Pts'
p2045
S'3'
sa(dp2046
S'Pens'
p2047
S'0'
sS'Sub'
p2048
S'1'
sS'Lost'
p2049
S'1'
sS'Drop'
p2050
S'0'
sS'Start'
p2051
S'1'
sS'Won'
p2052
S'1'
sS'GfM'
p2053
S'0'
sS'Draw'
p2054
S'0'
sS'Mat'
p2055
S'2'
sS'Conv'
p2056
S'0'
sS'Tries'
p2057
S'0'
sS'Pts'
p2058
S'0'
sa(dp2059
S'Pens'
p2060
S'0'
sS'Sub'
p2061
S'0'
sS'Lost'
p2062
S'5'
sS'Drop'
p2063
S'0'
sS'Start'
p2064
S'13'
p2065
sS'Won'
p2066
S'8'
sS'GfM'
p2067
S'0'
sS'Draw'
p2068
S'0'
sS'Mat'
p2069
S'13'
p2070
sS'Conv'
p2071
S'0'
sS'Tries'
p2072
S'2'
sS'Pts'
p2073
S'6'
sa(dp2074
S'Pens'
p2075
S'0'
sS'Sub'
p2076
S'0'
sS'Lost'
p2077
S'1'
sS'Drop'
p2078
S'0'
sS'Start'
p2079
S'1'
sS'Won'
p2080
S'0'
sS'GfM'
p2081
S'0'
sS'Draw'
p2082
S'0'
sS'Mat'
p2083
S'1'
sS'Conv'
p2084
S'0'
sS'Tries'
p2085
S'0'
sS'Pts'
p2086
S'0'
sa(dp2087
S'Pens'
p2088
S'0'
sS'Sub'
p2089
S'0'
sS'Lost'
p2090
S'3'
sS'Drop'
p2091
S'0'
sS'Start'
p2092
S'4'
sS'Won'
p2093
S'0'
sS'GfM'
p2094
S'0'
sS'Draw'
p2095
S'1'
sS'Mat'
p2096
S'4'
sS'Conv'
p2097
S'0'
sS'Tries'
p2098
S'0'
sS'Pts'
p2099
S'0'
sa(dp2100
S'Pens'
p2101
S'0'
sS'Sub'
p2102
S'0'
sS'Lost'
p2103
S'2'
sS'Drop'
p2104
S'0'
sS'Start'
p2105
S'3'
sS'Won'
p2106
S'0'
sS'GfM'
p2107
S'0'
sS'Draw'
p2108
S'1'
sS'Mat'
p2109
S'3'
sS'Conv'
p2110
S'0'
sS'Tries'
p2111
S'0'
sS'Pts'
p2112
S'0'
sa(dp2113
S'Pens'
p2114
S'0'
sS'Sub'
p2115
S'0'
sS'Lost'
p2116
S'1'
sS'Drop'
p2117
S'0'
sS'Start'
p2118
S'1'
sS'Won'
p2119
S'0'
sS'GfM'
p2120
S'0'
sS'Draw'
p2121
S'0'
sS'Mat'
p2122
S'1'
sS'Conv'
p2123
S'0'
sS'Tries'
p2124
S'0'
sS'Pts'
p2125
S'0'
sa(dp2126
S'Pens'
p2127
S'0'
sS'Sub'
p2128
S'0'
sS'Lost'
p2129
S'2'
sS'Drop'
p2130
S'0'
sS'Start'
p2131
S'3'
sS'Won'
p2132
S'0'
sS'GfM'
p2133
S'0'
sS'Draw'
p2134
S'1'
sS'Mat'
p2135
S'3'
sS'Conv'
p2136
S'0'
sS'Tries'
p2137
S'1'
sS'Pts'
p2138
S'3'
sa(dp2139
S'Pens'
p2140
S'0'
sS'Sub'
p2141
S'0'
sS'Lost'
p2142
S'4'
sS'Drop'
p2143
S'0'
sS'Start'
p2144
S'8'
sS'Won'
p2145
S'3'
sS'GfM'
p2146
S'0'
sS'Draw'
p2147
S'1'
sS'Mat'
p2148
S'8'
sS'Conv'
p2149
S'0'
sS'Tries'
p2150
S'2'
sS'Pts'
p2151
S'6'
sa(dp2152
S'Pens'
p2153
S'0'
sS'Sub'
p2154
S'0'
sS'Lost'
p2155
S'1'
sS'Drop'
p2156
S'0'
sS'Start'
p2157
S'1'
sS'Won'
p2158
S'0'
sS'GfM'
p2159
S'0'
sS'Draw'
p2160
S'0'
sS'Mat'
p2161
S'1'
sS'Conv'
p2162
S'0'
sS'Tries'
p2163
S'0'
sS'Pts'
p2164
S'0'
sa(dp2165
S'Pens'
p2166
S'0'
sS'Sub'
p2167
S'0'
sS'Lost'
p2168
S'2'
sS'Drop'
p2169
S'0'
sS'Start'
p2170
S'3'
sS'Won'
p2171
S'0'
sS'GfM'
p2172
S'0'
sS'Draw'
p2173
S'1'
sS'Mat'
p2174
S'3'
sS'Conv'
p2175
S'0'
sS'Tries'
p2176
S'1'
sS'Pts'
p2177
S'3'
sa(dp2178
S'Pens'
p2179
S'0'
sS'Sub'
p2180
S'0'
sS'Lost'
p2181
S'1'
sS'Drop'
p2182
S'0'
sS'Start'
p2183
S'6'
sS'Won'
p2184
S'5'
sS'GfM'
p2185
S'0'
sS'Draw'
p2186
S'0'
sS'Mat'
p2187
S'6'
sS'Conv'
p2188
S'2'
sS'Tries'
p2189
S'3'
sS'Pts'
p2190
S'13'
p2191
sa(dp2192
S'Pens'
p2193
S'0'
sS'Sub'
p2194
S'0'
sS'Lost'
p2195
S'2'
sS'Drop'
p2196
S'0'
sS'Start'
p2197
S'3'
sS'Won'
p2198
S'0'
sS'GfM'
p2199
S'0'
sS'Draw'
p2200
S'1'
sS'Mat'
p2201
S'3'
sS'Conv'
p2202
S'0'
sS'Tries'
p2203
S'0'
sS'Pts'
p2204
S'0'
sa(dp2205
S'Pens'
p2206
S'0'
sS'Sub'
p2207
S'0'
sS'Lost'
p2208
S'1'
sS'Drop'
p2209
S'0'
sS'Start'
p2210
S'2'
sS'Won'
p2211
S'0'
sS'GfM'
p2212
S'0'
sS'Draw'
p2213
S'1'
sS'Mat'
p2214
S'2'
sS'Conv'
p2215
S'0'
sS'Tries'
p2216
S'0'
sS'Pts'
p2217
S'0'
sa(dp2218
S'Pens'
p2219
S'0'
sS'Sub'
p2220
S'0'
sS'Lost'
p2221
S'4'
sS'Drop'
p2222
S'0'
sS'Start'
p2223
S'8'
sS'Won'
p2224
S'3'
sS'GfM'
p2225
S'0'
sS'Draw'
p2226
S'1'
sS'Mat'
p2227
S'8'
sS'Conv'
p2228
S'0'
sS'Tries'
p2229
S'2'
sS'Pts'
p2230
S'6'
sa(dp2231
S'Pens'
p2232
S'1'
sS'Sub'
p2233
S'0'
sS'Lost'
p2234
S'1'
sS'Drop'
p2235
S'0'
sS'Start'
p2236
S'2'
sS'Won'
p2237
S'0'
sS'GfM'
p2238
S'0'
sS'Draw'
p2239
S'1'
sS'Mat'
p2240
S'2'
sS'Conv'
p2241
S'0'
sS'Tries'
p2242
S'0'
sS'Pts'
p2243
S'3'
sa(dp2244
S'Pens'
p2245
S'0'
sS'Sub'
p2246
S'0'
sS'Lost'
p2247
S'0'
sS'Drop'
p2248
S'0'
sS'Start'
p2249
S'1'
sS'Won'
p2250
S'0'
sS'GfM'
p2251
S'0'
sS'Draw'
p2252
S'1'
sS'Mat'
p2253
S'1'
sS'Conv'
p2254
S'0'
sS'Tries'
p2255
S'0'
sS'Pts'
p2256
S'0'
sa(dp2257
S'Pens'
p2258
S'0'
sS'Sub'
p2259
S'0'
sS'Lost'
p2260
S'5'
sS'Drop'
p2261
S'0'
sS'Start'
p2262
S'16'
p2263
sS'Won'
p2264
S'10'
p2265
sS'GfM'
p2266
S'0'
sS'Draw'
p2267
S'1'
sS'Mat'
p2268
S'16'
p2269
sS'Conv'
p2270
S'0'
sS'Tries'
p2271
S'10'
p2272
sS'Pts'
p2273
S'30'
p2274
sa(dp2275
S'Pens'
p2276
S'0'
sS'Sub'
p2277
S'0'
sS'Lost'
p2278
S'0'
sS'Drop'
p2279
S'0'
sS'Start'
p2280
S'4'
sS'Won'
p2281
S'4'
sS'GfM'
p2282
S'0'
sS'Draw'
p2283
S'0'
sS'Mat'
p2284
S'4'
sS'Conv'
p2285
S'0'
sS'Tries'
p2286
S'2'
sS'Pts'
p2287
S'6'
sa(dp2288
S'Pens'
p2289
S'0'
sS'Sub'
p2290
S'0'
sS'Lost'
p2291
S'3'
sS'Drop'
p2292
S'0'
sS'Start'
p2293
S'8'
sS'Won'
p2294
S'5'
sS'GfM'
p2295
S'0'
sS'Draw'
p2296
S'0'
sS'Mat'
p2297
S'8'
sS'Conv'
p2298
S'0'
sS'Tries'
p2299
S'4'
sS'Pts'
p2300
S'12'
p2301
sa(dp2302
S'Pens'
p2303
S'0'
sS'Sub'
p2304
S'0'
sS'Lost'
p2305
S'5'
sS'Drop'
p2306
S'0'
sS'Start'
p2307
S'19'
p2308
sS'Won'
p2309
S'12'
p2310
sS'GfM'
p2311
S'0'
sS'Draw'
p2312
S'2'
sS'Mat'
p2313
S'19'
p2314
sS'Conv'
p2315
S'0'
sS'Tries'
p2316
S'4'
sS'Pts'
p2317
S'12'
p2318
sa(dp2319
S'Pens'
p2320
S'0'
sS'Sub'
p2321
S'0'
sS'Lost'
p2322
S'5'
sS'Drop'
p2323
S'0'
sS'Start'
p2324
S'15'
p2325
sS'Won'
p2326
S'9'
sS'GfM'
p2327
S'0'
sS'Draw'
p2328
S'1'
sS'Mat'
p2329
S'15'
p2330
sS'Conv'
p2331
S'0'
sS'Tries'
p2332
S'2'
sS'Pts'
p2333
S'6'
sa(dp2334
S'Pens'
p2335
S'2'
sS'Sub'
p2336
S'0'
sS'Lost'
p2337
S'3'
sS'Drop'
p2338
S'1'
sS'Start'
p2339
S'6'
sS'Won'
p2340
S'3'
sS'GfM'
p2341
S'0'
sS'Draw'
p2342
S'0'
sS'Mat'
p2343
S'6'
sS'Conv'
p2344
S'0'
sS'Tries'
p2345
S'0'
sS'Pts'
p2346
S'9'
sa(dp2347
S'Pens'
p2348
S'0'
sS'Sub'
p2349
S'0'
sS'Lost'
p2350
S'1'
sS'Drop'
p2351
S'0'
sS'Start'
p2352
S'4'
sS'Won'
p2353
S'3'
sS'GfM'
p2354
S'0'
sS'Draw'
p2355
S'0'
sS'Mat'
p2356
S'4'
sS'Conv'
p2357
S'0'
sS'Tries'
p2358
S'0'
sS'Pts'
p2359
S'0'
sa(dp2360
S'Pens'
p2361
S'0'
sS'Sub'
p2362
S'0'
sS'Lost'
p2363
S'3'
sS'Drop'
p2364
S'0'
sS'Start'
p2365
S'7'
sS'Won'
p2366
S'4'
sS'GfM'
p2367
S'0'
sS'Draw'
p2368
S'0'
sS'Mat'
p2369
S'7'
sS'Conv'
p2370
S'0'
sS'Tries'
p2371
S'0'
sS'Pts'
p2372
S'0'
sa(dp2373
S'Pens'
p2374
S'0'
sS'Sub'
p2375
S'0'
sS'Lost'
p2376
S'0'
sS'Drop'
p2377
S'0'
sS'Start'
p2378
S'2'
sS'Won'
p2379
S'2'
sS'GfM'
p2380
S'0'
sS'Draw'
p2381
S'0'
sS'Mat'
p2382
S'2'
sS'Conv'
p2383
S'0'
sS'Tries'
p2384
S'2'
sS'Pts'
p2385
S'6'
sa(dp2386
S'Pens'
p2387
S'0'
sS'Sub'
p2388
S'0'
sS'Lost'
p2389
S'0'
sS'Drop'
p2390
S'0'
sS'Start'
p2391
S'3'
sS'Won'
p2392
S'3'
sS'GfM'
p2393
S'0'
sS'Draw'
p2394
S'0'
sS'Mat'
p2395
S'3'
sS'Conv'
p2396
S'0'
sS'Tries'
p2397
S'3'
sS'Pts'
p2398
S'9'
sa(dp2399
S'Pens'
p2400
S'0'
sS'Sub'
p2401
S'0'
sS'Lost'
p2402
S'2'
sS'Drop'
p2403
S'0'
sS'Start'
p2404
S'7'
sS'Won'
p2405
S'4'
sS'GfM'
p2406
S'0'
sS'Draw'
p2407
S'1'
sS'Mat'
p2408
S'7'
sS'Conv'
p2409
S'0'
sS'Tries'
p2410
S'3'
sS'Pts'
p2411
S'9'
sa(dp2412
S'Pens'
p2413
S'1'
sS'Sub'
p2414
S'0'
sS'Lost'
p2415
S'3'
sS'Drop'
p2416
S'1'
sS'Start'
p2417
S'10'
p2418
sS'Won'
p2419
S'6'
sS'GfM'
p2420
S'0'
sS'Draw'
p2421
S'1'
sS'Mat'
p2422
S'10'
p2423
sS'Conv'
p2424
S'2'
sS'Tries'
p2425
S'0'
sS'Pts'
p2426
S'10'
p2427
sa(dp2428
S'Pens'
p2429
S'0'
sS'Sub'
p2430
S'0'
sS'Lost'
p2431
S'3'
sS'Drop'
p2432
S'0'
sS'Start'
p2433
S'4'
sS'Won'
p2434
S'1'
sS'GfM'
p2435
S'0'
sS'Draw'
p2436
S'0'
sS'Mat'
p2437
S'4'
sS'Conv'
p2438
S'0'
sS'Tries'
p2439
S'1'
sS'Pts'
p2440
S'3'
sa(dp2441
S'Pens'
p2442
S'0'
sS'Sub'
p2443
S'0'
sS'Lost'
p2444
S'1'
sS'Drop'
p2445
S'0'
sS'Start'
p2446
S'1'
sS'Won'
p2447
S'0'
sS'GfM'
p2448
S'0'
sS'Draw'
p2449
S'0'
sS'Mat'
p2450
S'1'
sS'Conv'
p2451
S'0'
sS'Tries'
p2452
S'0'
sS'Pts'
p2453
S'0'
sa(dp2454
S'Pens'
p2455
S'0'
sS'Sub'
p2456
S'0'
sS'Lost'
p2457
S'2'
sS'Drop'
p2458
S'0'
sS'Start'
p2459
S'4'
sS'Won'
p2460
S'1'
sS'GfM'
p2461
S'0'
sS'Draw'
p2462
S'1'
sS'Mat'
p2463
S'4'
sS'Conv'
p2464
S'0'
sS'Tries'
p2465
S'0'
sS'Pts'
p2466
S'0'
sa(dp2467
S'Pens'
p2468
S'0'
sS'Sub'
p2469
S'0'
sS'Lost'
p2470
S'2'
sS'Drop'
p2471
S'0'
sS'Start'
p2472
S'3'
sS'Won'
p2473
S'1'
sS'GfM'
p2474
S'0'
sS'Draw'
p2475
S'0'
sS'Mat'
p2476
S'3'
sS'Conv'
p2477
S'0'
sS'Tries'
p2478
S'2'
sS'Pts'
p2479
S'6'
sa(dp2480
S'Pens'
p2481
S'0'
sS'Sub'
p2482
S'0'
sS'Lost'
p2483
S'3'
sS'Drop'
p2484
S'0'
sS'Start'
p2485
S'12'
p2486
sS'Won'
p2487
S'8'
sS'GfM'
p2488
S'0'
sS'Draw'
p2489
S'1'
sS'Mat'
p2490
S'12'
p2491
sS'Conv'
p2492
S'0'
sS'Tries'
p2493
S'7'
sS'Pts'
p2494
S'21'
p2495
sa(dp2496
S'Pens'
p2497
S'0'
sS'Sub'
p2498
S'0'
sS'Lost'
p2499
S'2'
sS'Drop'
p2500
S'0'
sS'Start'
p2501
S'3'
sS'Won'
p2502
S'1'
sS'GfM'
p2503
S'0'
sS'Draw'
p2504
S'0'
sS'Mat'
p2505
S'3'
sS'Conv'
p2506
S'0'
sS'Tries'
p2507
S'0'
sS'Pts'
p2508
S'0'
sa(dp2509
S'Pens'
p2510
S'0'
sS'Sub'
p2511
S'0'
sS'Lost'
p2512
S'1'
sS'Drop'
p2513
S'0'
sS'Start'
p2514
S'1'
sS'Won'
p2515
S'0'
sS'GfM'
p2516
S'0'
sS'Draw'
p2517
S'0'
sS'Mat'
p2518
S'1'
sS'Conv'
p2519
S'0'
sS'Tries'
p2520
S'0'
sS'Pts'
p2521
S'0'
sa(dp2522
S'Pens'
p2523
S'0'
sS'Sub'
p2524
S'0'
sS'Lost'
p2525
S'1'
sS'Drop'
p2526
S'0'
sS'Start'
p2527
S'1'
sS'Won'
p2528
S'0'
sS'GfM'
p2529
S'0'
sS'Draw'
p2530
S'0'
sS'Mat'
p2531
S'1'
sS'Conv'
p2532
S'0'
sS'Tries'
p2533
S'0'
sS'Pts'
p2534
S'0'
sa(dp2535
S'Pens'
p2536
S'0'
sS'Sub'
p2537
S'0'
sS'Lost'
p2538
S'0'
sS'Drop'
p2539
S'0'
sS'Start'
p2540
S'1'
sS'Won'
p2541
S'1'
sS'GfM'
p2542
S'0'
sS'Draw'
p2543
S'0'
sS'Mat'
p2544
S'1'
sS'Conv'
p2545
S'0'
sS'Tries'
p2546
S'0'
sS'Pts'
p2547
S'0'
sa(dp2548
S'Pens'
p2549
S'0'
sS'Sub'
p2550
S'1'
sS'Lost'
p2551
S'2'
sS'Drop'
p2552
S'0'
sS'Start'
p2553
S'3'
sS'Won'
p2554
S'2'
sS'GfM'
p2555
S'0'
sS'Draw'
p2556
S'0'
sS'Mat'
p2557
S'4'
sS'Conv'
p2558
S'0'
sS'Tries'
p2559
S'1'
sS'Pts'
p2560
S'3'
sa(dp2561
S'Pens'
p2562
S'0'
sS'Sub'
p2563
S'0'
sS'Lost'
p2564
S'2'
sS'Drop'
p2565
S'0'
sS'Start'
p2566
S'9'
sS'Won'
p2567
S'7'
sS'GfM'
p2568
S'0'
sS'Draw'
p2569
S'0'
sS'Mat'
p2570
S'9'
sS'Conv'
p2571
S'0'
sS'Tries'
p2572
S'2'
sS'Pts'
p2573
S'6'
sa(dp2574
S'Pens'
p2575
S'0'
sS'Sub'
p2576
S'0'
sS'Lost'
p2577
S'3'
sS'Drop'
p2578
S'0'
sS'Start'
p2579
S'6'
sS'Won'
p2580
S'1'
sS'GfM'
p2581
S'0'
sS'Draw'
p2582
S'2'
sS'Mat'
p2583
S'6'
sS'Conv'
p2584
S'0'
sS'Tries'
p2585
S'1'
sS'Pts'
p2586
S'3'
sa(dp2587
S'Pens'
p2588
S'0'
sS'Sub'
p2589
S'0'
sS'Lost'
p2590
S'4'
sS'Drop'
p2591
S'0'
sS'Start'
p2592
S'12'
p2593
sS'Won'
p2594
S'6'
sS'GfM'
p2595
S'0'
sS'Draw'
p2596
S'2'
sS'Mat'
p2597
S'12'
p2598
sS'Conv'
p2599
S'0'
sS'Tries'
p2600
S'4'
sS'Pts'
p2601
S'12'
p2602
sa(dp2603
S'Pens'
p2604
S'0'
sS'Sub'
p2605
S'0'
sS'Lost'
p2606
S'0'
sS'Drop'
p2607
S'0'
sS'Start'
p2608
S'1'
sS'Won'
p2609
S'1'
sS'GfM'
p2610
S'0'
sS'Draw'
p2611
S'0'
sS'Mat'
p2612
S'1'
sS'Conv'
p2613
S'0'
sS'Tries'
p2614
S'0'
sS'Pts'
p2615
S'0'
sa(dp2616
S'Pens'
p2617
S'0'
sS'Sub'
p2618
S'0'
sS'Lost'
p2619
S'8'
sS'Drop'
p2620
S'0'
sS'Start'
p2621
S'18'
p2622
sS'Won'
p2623
S'8'
sS'GfM'
p2624
S'0'
sS'Draw'
p2625
S'2'
sS'Mat'
p2626
S'18'
p2627
sS'Conv'
p2628
S'0'
sS'Tries'
p2629
S'5'
sS'Pts'
p2630
S'15'
p2631
sa(dp2632
S'Pens'
p2633
S'0'
sS'Sub'
p2634
S'0'
sS'Lost'
p2635
S'0'
sS'Drop'
p2636
S'0'
sS'Start'
p2637
S'3'
sS'Won'
p2638
S'2'
sS'GfM'
p2639
S'0'
sS'Draw'
p2640
S'1'
sS'Mat'
p2641
S'3'
sS'Conv'
p2642
S'0'
sS'Tries'
p2643
S'0'
sS'Pts'
p2644
S'0'
sa(dp2645
S'Pens'
p2646
S'1'
sS'Sub'
p2647
S'0'
sS'Lost'
p2648
S'0'
sS'Drop'
p2649
S'0'
sS'Start'
p2650
S'3'
sS'Won'
p2651
S'2'
sS'GfM'
p2652
S'0'
sS'Draw'
p2653
S'1'
sS'Mat'
p2654
S'3'
sS'Conv'
p2655
S'0'
sS'Tries'
p2656
S'0'
sS'Pts'
p2657
S'3'
sa(dp2658
S'Pens'
p2659
S'0'
sS'Sub'
p2660
S'0'
sS'Lost'
p2661
S'0'
sS'Drop'
p2662
S'0'
sS'Start'
p2663
S'3'
sS'Won'
p2664
S'2'
sS'GfM'
p2665
S'0'
sS'Draw'
p2666
S'1'
sS'Mat'
p2667
S'3'
sS'Conv'
p2668
S'0'
sS'Tries'
p2669
S'0'
sS'Pts'
p2670
S'0'
sa(dp2671
S'Pens'
p2672
S'0'
sS'Sub'
p2673
S'0'
sS'Lost'
p2674
S'3'
sS'Drop'
p2675
S'0'
sS'Start'
p2676
S'11'
p2677
sS'Won'
p2678
S'7'
sS'GfM'
p2679
S'0'
sS'Draw'
p2680
S'1'
sS'Mat'
p2681
S'11'
p2682
sS'Conv'
p2683
S'0'
sS'Tries'
p2684
S'1'
sS'Pts'
p2685
S'4'
sa(dp2686
S'Pens'
p2687
S'0'
sS'Sub'
p2688
S'0'
sS'Lost'
p2689
S'0'
sS'Drop'
p2690
S'0'
sS'Start'
p2691
S'1'
sS'Won'
p2692
S'0'
sS'GfM'
p2693
S'0'
sS'Draw'
p2694
S'1'
sS'Mat'
p2695
S'1'
sS'Conv'
p2696
S'0'
sS'Tries'
p2697
S'0'
sS'Pts'
p2698
S'0'
sa(dp2699
S'Pens'
p2700
S'1'
sS'Sub'
p2701
S'0'
sS'Lost'
p2702
S'1'
sS'Drop'
p2703
S'0'
sS'Start'
p2704
S'7'
sS'Won'
p2705
S'6'
sS'GfM'
p2706
S'0'
sS'Draw'
p2707
S'0'
sS'Mat'
p2708
S'7'
sS'Conv'
p2709
S'18'
p2710
sS'Tries'
p2711
S'8'
sS'Pts'
p2712
S'63'
p2713
sa(dp2714
S'Pens'
p2715
S'0'
sS'Sub'
p2716
S'0'
sS'Lost'
p2717
S'0'
sS'Drop'
p2718
S'0'
sS'Start'
p2719
S'1'
sS'Won'
p2720
S'1'
sS'GfM'
p2721
S'0'
sS'Draw'
p2722
S'0'
sS'Mat'
p2723
S'1'
sS'Conv'
p2724
S'0'
sS'Tries'
p2725
S'0'
sS'Pts'
p2726
S'0'
sa(dp2727
S'Pens'
p2728
S'0'
sS'Sub'
p2729
S'0'
sS'Lost'
p2730
S'1'
sS'Drop'
p2731
S'0'
sS'Start'
p2732
S'1'
sS'Won'
p2733
S'0'
sS'GfM'
p2734
S'0'
sS'Draw'
p2735
S'0'
sS'Mat'
p2736
S'1'
sS'Conv'
p2737
S'0'
sS'Tries'
p2738
S'0'
sS'Pts'
p2739
S'0'
sa(dp2740
S'Pens'
p2741
S'0'
sS'Sub'
p2742
S'1'
sS'Lost'
p2743
S'3'
sS'Drop'
p2744
S'0'
sS'Start'
p2745
S'5'
sS'Won'
p2746
S'3'
sS'GfM'
p2747
S'0'
sS'Draw'
p2748
S'0'
sS'Mat'
p2749
S'6'
sS'Conv'
p2750
S'0'
sS'Tries'
p2751
S'6'
sS'Pts'
p2752
S'18'
p2753
sa(dp2754
S'Pens'
p2755
S'0'
sS'Sub'
p2756
S'0'
sS'Lost'
p2757
S'2'
sS'Drop'
p2758
S'0'
sS'Start'
p2759
S'2'
sS'Won'
p2760
S'0'
sS'GfM'
p2761
S'0'
sS'Draw'
p2762
S'0'
sS'Mat'
p2763
S'2'
sS'Conv'
p2764
S'0'
sS'Tries'
p2765
S'0'
sS'Pts'
p2766
S'0'
sa(dp2767
S'Pens'
p2768
S'6'
sS'Sub'
p2769
S'0'
sS'Lost'
p2770
S'5'
sS'Drop'
p2771
S'0'
sS'Start'
p2772
S'11'
p2773
sS'Won'
p2774
S'6'
sS'GfM'
p2775
S'0'
sS'Draw'
p2776
S'0'
sS'Mat'
p2777
S'11'
p2778
sS'Conv'
p2779
S'1'
sS'Tries'
p2780
S'2'
sS'Pts'
p2781
S'26'
p2782
sa(dp2783
S'Pens'
p2784
S'0'
sS'Sub'
p2785
S'0'
sS'Lost'
p2786
S'2'
sS'Drop'
p2787
S'0'
sS'Start'
p2788
S'5'
sS'Won'
p2789
S'3'
sS'GfM'
p2790
S'0'
sS'Draw'
p2791
S'0'
sS'Mat'
p2792
S'5'
sS'Conv'
p2793
S'0'
sS'Tries'
p2794
S'1'
sS'Pts'
p2795
S'3'
sa(dp2796
S'Pens'
p2797
S'0'
sS'Sub'
p2798
S'0'
sS'Lost'
p2799
S'3'
sS'Drop'
p2800
S'0'
sS'Start'
p2801
S'3'
sS'Won'
p2802
S'0'
sS'GfM'
p2803
S'0'
sS'Draw'
p2804
S'0'
sS'Mat'
p2805
S'3'
sS'Conv'
p2806
S'0'
sS'Tries'
p2807
S'1'
sS'Pts'
p2808
S'3'
sa(dp2809
S'Pens'
p2810
S'0'
sS'Sub'
p2811
S'1'
sS'Lost'
p2812
S'1'
sS'Drop'
p2813
S'0'
sS'Start'
p2814
S'0'
sS'Won'
p2815
S'0'
sS'GfM'
p2816
S'0'
sS'Draw'
p2817
S'0'
sS'Mat'
p2818
S'1'
sS'Conv'
p2819
S'0'
sS'Tries'
p2820
S'0'
sS'Pts'
p2821
S'0'
sa(dp2822
S'Pens'
p2823
S'0'
sS'Sub'
p2824
S'1'
sS'Lost'
p2825
S'4'
sS'Drop'
p2826
S'0'
sS'Start'
p2827
S'13'
p2828
sS'Won'
p2829
S'9'
sS'GfM'
p2830
S'0'
sS'Draw'
p2831
S'1'
sS'Mat'
p2832
S'14'
p2833
sS'Conv'
p2834
S'0'
sS'Tries'
p2835
S'4'
sS'Pts'
p2836
S'13'
p2837
sa(dp2838
S'Pens'
p2839
S'0'
sS'Sub'
p2840
S'0'
sS'Lost'
p2841
S'1'
sS'Drop'
p2842
S'0'
sS'Start'
p2843
S'1'
sS'Won'
p2844
S'0'
sS'GfM'
p2845
S'0'
sS'Draw'
p2846
S'0'
sS'Mat'
p2847
S'1'
sS'Conv'
p2848
S'0'
sS'Tries'
p2849
S'0'
sS'Pts'
p2850
S'0'
sa(dp2851
S'Pens'
p2852
S'0'
sS'Sub'
p2853
S'0'
sS'Lost'
p2854
S'2'
sS'Drop'
p2855
S'0'
sS'Start'
p2856
S'2'
sS'Won'
p2857
S'0'
sS'GfM'
p2858
S'0'
sS'Draw'
p2859
S'0'
sS'Mat'
p2860
S'2'
sS'Conv'
p2861
S'0'
sS'Tries'
p2862
S'0'
sS'Pts'
p2863
S'0'
sa(dp2864
S'Pens'
p2865
S'0'
sS'Sub'
p2866
S'1'
sS'Lost'
p2867
S'2'
sS'Drop'
p2868
S'0'
sS'Start'
p2869
S'6'
sS'Won'
p2870
S'5'
sS'GfM'
p2871
S'0'
sS'Draw'
p2872
S'0'
sS'Mat'
p2873
S'7'
sS'Conv'
p2874
S'0'
sS'Tries'
p2875
S'4'
sS'Pts'
p2876
S'12'
p2877
sa(dp2878
S'Pens'
p2879
S'1'
sS'Sub'
p2880
S'0'
sS'Lost'
p2881
S'2'
sS'Drop'
p2882
S'0'
sS'Start'
p2883
S'4'
sS'Won'
p2884
S'2'
sS'GfM'
p2885
S'0'
sS'Draw'
p2886
S'0'
sS'Mat'
p2887
S'4'
sS'Conv'
p2888
S'2'
sS'Tries'
p2889
S'0'
sS'Pts'
p2890
S'7'
sa(dp2891
S'Pens'
p2892
S'0'
sS'Sub'
p2893
S'0'
sS'Lost'
p2894
S'4'
sS'Drop'
p2895
S'0'
sS'Start'
p2896
S'14'
p2897
sS'Won'
p2898
S'9'
sS'GfM'
p2899
S'0'
sS'Draw'
p2900
S'1'
sS'Mat'
p2901
S'14'
p2902
sS'Conv'
p2903
S'0'
sS'Tries'
p2904
S'8'
sS'Pts'
p2905
S'26'
p2906
sa(dp2907
S'Pens'
p2908
S'0'
sS'Sub'
p2909
S'1'
sS'Lost'
p2910
S'7'
sS'Drop'
p2911
S'2'
sS'Start'
p2912
S'18'
p2913
sS'Won'
p2914
S'11'
p2915
sS'GfM'
p2916
S'0'
sS'Draw'
p2917
S'1'
sS'Mat'
p2918
S'19'
p2919
sS'Conv'
p2920
S'0'
sS'Tries'
p2921
S'4'
sS'Pts'
p2922
S'22'
p2923
sa(dp2924
S'Pens'
p2925
S'0'
sS'Sub'
p2926
S'1'
sS'Lost'
p2927
S'0'
sS'Drop'
p2928
S'0'
sS'Start'
p2929
S'1'
sS'Won'
p2930
S'2'
sS'GfM'
p2931
S'0'
sS'Draw'
p2932
S'0'
sS'Mat'
p2933
S'2'
sS'Conv'
p2934
S'0'
sS'Tries'
p2935
S'1'
sS'Pts'
p2936
S'3'
sa(dp2937
S'Pens'
p2938
S'0'
sS'Sub'
p2939
S'0'
sS'Lost'
p2940
S'0'
sS'Drop'
p2941
S'0'
sS'Start'
p2942
S'1'
sS'Won'
p2943
S'1'
sS'GfM'
p2944
S'0'
sS'Draw'
p2945
S'0'
sS'Mat'
p2946
S'1'
sS'Conv'
p2947
S'0'
sS'Tries'
p2948
S'0'
sS'Pts'
p2949
S'0'
sa(dp2950
S'Pens'
p2951
S'1'
sS'Sub'
p2952
S'0'
sS'Lost'
p2953
S'13'
p2954
sS'Drop'
p2955
S'0'
sS'Start'
p2956
S'20'
p2957
sS'Won'
p2958
S'6'
sS'GfM'
p2959
S'0'
sS'Draw'
p2960
S'1'
sS'Mat'
p2961
S'20'
p2962
sS'Conv'
p2963
S'1'
sS'Tries'
p2964
S'3'
sS'Pts'
p2965
S'16'
p2966
sa(dp2967
S'Pens'
p2968
S'0'
sS'Sub'
p2969
S'0'
sS'Lost'
p2970
S'1'
sS'Drop'
p2971
S'0'
sS'Start'
p2972
S'3'
sS'Won'
p2973
S'2'
sS'GfM'
p2974
S'0'
sS'Draw'
p2975
S'0'
sS'Mat'
p2976
S'3'
sS'Conv'
p2977
S'0'
sS'Tries'
p2978
S'6'
sS'Pts'
p2979
S'18'
p2980
sa(dp2981
S'Pens'
p2982
S'0'
sS'Sub'
p2983
S'0'
sS'Lost'
p2984
S'3'
sS'Drop'
p2985
S'0'
sS'Start'
p2986
S'7'
sS'Won'
p2987
S'3'
sS'GfM'
p2988
S'0'
sS'Draw'
p2989
S'1'
sS'Mat'
p2990
S'7'
sS'Conv'
p2991
S'25'
p2992
sS'Tries'
p2993
S'3'
sS'Pts'
p2994
S'59'
p2995
sa(dp2996
S'Pens'
p2997
S'0'
sS'Sub'
p2998
S'0'
sS'Lost'
p2999
S'8'
sS'Drop'
p3000
S'0'
sS'Start'
p3001
S'17'
p3002
sS'Won'
p3003
S'8'
sS'GfM'
p3004
S'0'
sS'Draw'
p3005
S'1'
sS'Mat'
p3006
S'17'
p3007
sS'Conv'
p3008
S'0'
sS'Tries'
p3009
S'5'
sS'Pts'
p3010
S'17'
p3011
sa(dp3012
S'Pens'
p3013
S'0'
sS'Sub'
p3014
S'0'
sS'Lost'
p3015
S'0'
sS'Drop'
p3016
S'0'
sS'Start'
p3017
S'1'
sS'Won'
p3018
S'1'
sS'GfM'
p3019
S'0'
sS'Draw'
p3020
S'0'
sS'Mat'
p3021
S'1'
sS'Conv'
p3022
S'1'
sS'Tries'
p3023
S'2'
sS'Pts'
p3024
S'8'
sa(dp3025
S'Pens'
p3026
S'0'
sS'Sub'
p3027
S'0'
sS'Lost'
p3028
S'16'
p3029
sS'Drop'
p3030
S'0'
sS'Start'
p3031
S'30'
p3032
sS'Won'
p3033
S'13'
p3034
sS'GfM'
p3035
S'0'
sS'Draw'
p3036
S'1'
sS'Mat'
p3037
S'30'
p3038
sS'Conv'
p3039
S'0'
sS'Tries'
p3040
S'5'
sS'Pts'
p3041
S'19'
p3042
sa(dp3043
S'Pens'
p3044
S'0'
sS'Sub'
p3045
S'0'
sS'Lost'
p3046
S'1'
sS'Drop'
p3047
S'0'
sS'Start'
p3048
S'3'
sS'Won'
p3049
S'1'
sS'GfM'
p3050
S'0'
sS'Draw'
p3051
S'1'
sS'Mat'
p3052
S'3'
sS'Conv'
p3053
S'0'
sS'Tries'
p3054
S'1'
sS'Pts'
p3055
S'3'
sa(dp3056
S'Pens'
p3057
S'1'
sS'Sub'
p3058
S'0'
sS'Lost'
p3059
S'7'
sS'Drop'
p3060
S'0'
sS'Start'
p3061
S'11'
p3062
sS'Won'
p3063
S'3'
sS'GfM'
p3064
S'0'
sS'Draw'
p3065
S'1'
sS'Mat'
p3066
S'11'
p3067
sS'Conv'
p3068
S'0'
sS'Tries'
p3069
S'2'
sS'Pts'
p3070
S'9'
sa(dp3071
S'Pens'
p3072
S'0'
sS'Sub'
p3073
S'0'
sS'Lost'
p3074
S'6'
sS'Drop'
p3075
S'1'
sS'Start'
p3076
S'9'
sS'Won'
p3077
S'3'
sS'GfM'
p3078
S'0'
sS'Draw'
p3079
S'0'
sS'Mat'
p3080
S'9'
sS'Conv'
p3081
S'0'
sS'Tries'
p3082
S'1'
sS'Pts'
p3083
S'7'
sa(dp3084
S'Pens'
p3085
S'9'
sS'Sub'
p3086
S'0'
sS'Lost'
p3087
S'6'
sS'Drop'
p3088
S'0'
sS'Start'
p3089
S'13'
p3090
sS'Won'
p3091
S'7'
sS'GfM'
p3092
S'0'
sS'Draw'
p3093
S'0'
sS'Mat'
p3094
S'13'
p3095
sS'Conv'
p3096
S'17'
p3097
sS'Tries'
p3098
S'1'
sS'Pts'
p3099
S'65'
p3100
sa(dp3101
S'Pens'
p3102
S'0'
sS'Sub'
p3103
S'0'
sS'Lost'
p3104
S'0'
sS'Drop'
p3105
S'0'
sS'Start'
p3106
S'1'
sS'Won'
p3107
S'1'
sS'GfM'
p3108
S'0'
sS'Draw'
p3109
S'0'
sS'Mat'
p3110
S'1'
sS'Conv'
p3111
S'0'
sS'Tries'
p3112
S'1'
sS'Pts'
p3113
S'3'
sa(dp3114
S'Pens'
p3115
S'0'
sS'Sub'
p3116
S'1'
sS'Lost'
p3117
S'4'
sS'Drop'
p3118
S'0'
sS'Start'
p3119
S'6'
sS'Won'
p3120
S'3'
sS'GfM'
p3121
S'0'
sS'Draw'
p3122
S'0'
sS'Mat'
p3123
S'7'
sS'Conv'
p3124
S'0'
sS'Tries'
p3125
S'3'
sS'Pts'
p3126
S'11'
p3127
sa(dp3128
S'Pens'
p3129
S'0'
sS'Sub'
p3130
S'0'
sS'Lost'
p3131
S'0'
sS'Drop'
p3132
S'0'
sS'Start'
p3133
S'2'
sS'Won'
p3134
S'2'
sS'GfM'
p3135
S'0'
sS'Draw'
p3136
S'0'
sS'Mat'
p3137
S'2'
sS'Conv'
p3138
S'0'
sS'Tries'
p3139
S'0'
sS'Pts'
p3140
S'0'
sa(dp3141
S'Pens'
p3142
S'0'
sS'Sub'
p3143
S'0'
sS'Lost'
p3144
S'2'
sS'Drop'
p3145
S'1'
sS'Start'
p3146
S'7'
sS'Won'
p3147
S'5'
sS'GfM'
p3148
S'0'
sS'Draw'
p3149
S'0'
sS'Mat'
p3150
S'7'
sS'Conv'
p3151
S'0'
sS'Tries'
p3152
S'8'
sS'Pts'
p3153
S'33'
p3154
sa(dp3155
S'Pens'
p3156
S'0'
sS'Sub'
p3157
S'1'
sS'Lost'
p3158
S'8'
sS'Drop'
p3159
S'0'
sS'Start'
p3160
S'11'
p3161
sS'Won'
p3162
S'4'
sS'GfM'
p3163
S'0'
sS'Draw'
p3164
S'0'
sS'Mat'
p3165
S'12'
p3166
sS'Conv'
p3167
S'0'
sS'Tries'
p3168
S'1'
sS'Pts'
p3169
S'4'
sa(dp3170
S'Pens'
p3171
S'0'
sS'Sub'
p3172
S'1'
sS'Lost'
p3173
S'7'
sS'Drop'
p3174
S'0'
sS'Start'
p3175
S'8'
sS'Won'
p3176
S'2'
sS'GfM'
p3177
S'0'
sS'Draw'
p3178
S'0'
sS'Mat'
p3179
S'9'
sS'Conv'
p3180
S'0'
sS'Tries'
p3181
S'1'
sS'Pts'
p3182
S'4'
sa(dp3183
S'Pens'
p3184
S'0'
sS'Sub'
p3185
S'0'
sS'Lost'
p3186
S'2'
sS'Drop'
p3187
S'0'
sS'Start'
p3188
S'3'
sS'Won'
p3189
S'1'
sS'GfM'
p3190
S'0'
sS'Draw'
p3191
S'0'
sS'Mat'
p3192
S'3'
sS'Conv'
p3193
S'0'
sS'Tries'
p3194
S'0'
sS'Pts'
p3195
S'0'
sa(dp3196
S'Pens'
p3197
S'0'
sS'Sub'
p3198
S'0'
sS'Lost'
p3199
S'13'
p3200
sS'Drop'
p3201
S'0'
sS'Start'
p3202
S'20'
p3203
sS'Won'
p3204
S'7'
sS'GfM'
p3205
S'0'
sS'Draw'
p3206
S'0'
sS'Mat'
p3207
S'20'
p3208
sS'Conv'
p3209
S'1'
sS'Tries'
p3210
S'3'
sS'Pts'
p3211
S'14'
p3212
sa(dp3213
S'Pens'
p3214
S'2'
sS'Sub'
p3215
S'0'
sS'Lost'
p3216
S'8'
sS'Drop'
p3217
S'0'
sS'Start'
p3218
S'14'
p3219
sS'Won'
p3220
S'6'
sS'GfM'
p3221
S'0'
sS'Draw'
p3222
S'0'
sS'Mat'
p3223
S'14'
p3224
sS'Conv'
p3225
S'2'
sS'Tries'
p3226
S'1'
sS'Pts'
p3227
S'14'
p3228
sa(dp3229
S'Pens'
p3230
S'1'
sS'Sub'
p3231
S'0'
sS'Lost'
p3232
S'5'
sS'Drop'
p3233
S'0'
sS'Start'
p3234
S'5'
sS'Won'
p3235
S'0'
sS'GfM'
p3236
S'0'
sS'Draw'
p3237
S'0'
sS'Mat'
p3238
S'5'
sS'Conv'
p3239
S'3'
sS'Tries'
p3240
S'0'
sS'Pts'
p3241
S'9'
sa(dp3242
S'Pens'
p3243
S'0'
sS'Sub'
p3244
S'1'
sS'Lost'
p3245
S'12'
p3246
sS'Drop'
p3247
S'0'
sS'Start'
p3248
S'19'
p3249
sS'Won'
p3250
S'8'
sS'GfM'
p3251
S'0'
sS'Draw'
p3252
S'0'
sS'Mat'
p3253
S'20'
p3254
sS'Conv'
p3255
S'0'
sS'Tries'
p3256
S'1'
sS'Pts'
p3257
S'4'
sa(dp3258
S'Pens'
p3259
S'0'
sS'Sub'
p3260
S'0'
sS'Lost'
p3261
S'2'
sS'Drop'
p3262
S'0'
sS'Start'
p3263
S'3'
sS'Won'
p3264
S'1'
sS'GfM'
p3265
S'0'
sS'Draw'
p3266
S'0'
sS'Mat'
p3267
S'3'
sS'Conv'
p3268
S'0'
sS'Tries'
p3269
S'1'
sS'Pts'
p3270
S'4'
sa(dp3271
S'Pens'
p3272
S'0'
sS'Sub'
p3273
S'1'
sS'Lost'
p3274
S'5'
sS'Drop'
p3275
S'0'
sS'Start'
p3276
S'5'
sS'Won'
p3277
S'1'
sS'GfM'
p3278
S'0'
sS'Draw'
p3279
S'0'
sS'Mat'
p3280
S'6'
sS'Conv'
p3281
S'0'
sS'Tries'
p3282
S'0'
sS'Pts'
p3283
S'0'
sa(dp3284
S'Pens'
p3285
S'0'
sS'Sub'
p3286
S'0'
sS'Lost'
p3287
S'1'
sS'Drop'
p3288
S'0'
sS'Start'
p3289
S'1'
sS'Won'
p3290
S'0'
sS'GfM'
p3291
S'0'
sS'Draw'
p3292
S'0'
sS'Mat'
p3293
S'1'
sS'Conv'
p3294
S'0'
sS'Tries'
p3295
S'0'
sS'Pts'
p3296
S'0'
sa(dp3297
S'Pens'
p3298
S'0'
sS'Sub'
p3299
S'0'
sS'Lost'
p3300
S'1'
sS'Drop'
p3301
S'0'
sS'Start'
p3302
S'1'
sS'Won'
p3303
S'0'
sS'GfM'
p3304
S'0'
sS'Draw'
p3305
S'0'
sS'Mat'
p3306
S'1'
sS'Conv'
p3307
S'0'
sS'Tries'
p3308
S'0'
sS'Pts'
p3309
S'0'
sa(dp3310
S'Pens'
p3311
S'0'
sS'Sub'
p3312
S'0'
sS'Lost'
p3313
S'1'
sS'Drop'
p3314
S'0'
sS'Start'
p3315
S'2'
sS'Won'
p3316
S'1'
sS'GfM'
p3317
S'0'
sS'Draw'
p3318
S'0'
sS'Mat'
p3319
S'2'
sS'Conv'
p3320
S'0'
sS'Tries'
p3321
S'1'
sS'Pts'
p3322
S'4'
sa(dp3323
S'Pens'
p3324
S'0'
sS'Sub'
p3325
S'0'
sS'Lost'
p3326
S'0'
sS'Drop'
p3327
S'0'
sS'Start'
p3328
S'1'
sS'Won'
p3329
S'1'
sS'GfM'
p3330
S'0'
sS'Draw'
p3331
S'0'
sS'Mat'
p3332
S'1'
sS'Conv'
p3333
S'0'
sS'Tries'
p3334
S'0'
sS'Pts'
p3335
S'0'
sa(dp3336
S'Pens'
p3337
S'0'
sS'Sub'
p3338
S'0'
sS'Lost'
p3339
S'0'
sS'Drop'
p3340
S'0'
sS'Start'
p3341
S'1'
sS'Won'
p3342
S'1'
sS'GfM'
p3343
S'0'
sS'Draw'
p3344
S'0'
sS'Mat'
p3345
S'1'
sS'Conv'
p3346
S'0'
sS'Tries'
p3347
S'0'
sS'Pts'
p3348
S'0'
sa(dp3349
S'Pens'
p3350
S'0'
sS'Sub'
p3351
S'0'
sS'Lost'
p3352
S'3'
sS'Drop'
p3353
S'0'
sS'Start'
p3354
S'4'
sS'Won'
p3355
S'1'
sS'GfM'
p3356
S'0'
sS'Draw'
p3357
S'0'
sS'Mat'
p3358
S'4'
sS'Conv'
p3359
S'0'
sS'Tries'
p3360
S'0'
sS'Pts'
p3361
S'0'
sa(dp3362
S'Pens'
p3363
S'0'
sS'Sub'
p3364
S'0'
sS'Lost'
p3365
S'4'
sS'Drop'
p3366
S'0'
sS'Start'
p3367
S'4'
sS'Won'
p3368
S'0'
sS'GfM'
p3369
S'0'
sS'Draw'
p3370
S'0'
sS'Mat'
p3371
S'4'
sS'Conv'
p3372
S'0'
sS'Tries'
p3373
S'1'
sS'Pts'
p3374
S'4'
sa(dp3375
S'Pens'
p3376
S'0'
sS'Sub'
p3377
S'0'
sS'Lost'
p3378
S'3'
sS'Drop'
p3379
S'0'
sS'Start'
p3380
S'3'
sS'Won'
p3381
S'0'
sS'GfM'
p3382
S'0'
sS'Draw'
p3383
S'0'
sS'Mat'
p3384
S'3'
sS'Conv'
p3385
S'0'
sS'Tries'
p3386
S'3'
sS'Pts'
p3387
S'12'
p3388
sa(dp3389
S'Pens'
p3390
S'0'
sS'Sub'
p3391
S'0'
sS'Lost'
p3392
S'3'
sS'Drop'
p3393
S'0'
sS'Start'
p3394
S'3'
sS'Won'
p3395
S'0'
sS'GfM'
p3396
S'0'
sS'Draw'
p3397
S'0'
sS'Mat'
p3398
S'3'
sS'Conv'
p3399
S'0'
sS'Tries'
p3400
S'0'
sS'Pts'
p3401
S'0'
sa(dp3402
S'Pens'
p3403
S'0'
sS'Sub'
p3404
S'0'
sS'Lost'
p3405
S'4'
sS'Drop'
p3406
S'0'
sS'Start'
p3407
S'4'
sS'Won'
p3408
S'0'
sS'GfM'
p3409
S'0'
sS'Draw'
p3410
S'0'
sS'Mat'
p3411
S'4'
sS'Conv'
p3412
S'0'
sS'Tries'
p3413
S'0'
sS'Pts'
p3414
S'0'
sa(dp3415
S'Pens'
p3416
S'0'
sS'Sub'
p3417
S'0'
sS'Lost'
p3418
S'1'
sS'Drop'
p3419
S'0'
sS'Start'
p3420
S'1'
sS'Won'
p3421
S'0'
sS'GfM'
p3422
S'0'
sS'Draw'
p3423
S'0'
sS'Mat'
p3424
S'1'
sS'Conv'
p3425
S'0'
sS'Tries'
p3426
S'0'
sS'Pts'
p3427
S'0'
sa(dp3428
S'Pens'
p3429
S'0'
sS'Sub'
p3430
S'1'
sS'Lost'
p3431
S'1'
sS'Drop'
p3432
S'0'
sS'Start'
p3433
S'0'
sS'Won'
p3434
S'0'
sS'GfM'
p3435
S'0'
sS'Draw'
p3436
S'0'
sS'Mat'
p3437
S'1'
sS'Conv'
p3438
S'0'
sS'Tries'
p3439
S'0'
sS'Pts'
p3440
S'0'
sa(dp3441
S'Pens'
p3442
S'0'
sS'Sub'
p3443
S'1'
sS'Lost'
p3444
S'5'
sS'Drop'
p3445
S'0'
sS'Start'
p3446
S'8'
sS'Won'
p3447
S'4'
sS'GfM'
p3448
S'0'
sS'Draw'
p3449
S'0'
sS'Mat'
p3450
S'9'
sS'Conv'
p3451
S'0'
sS'Tries'
p3452
S'1'
sS'Pts'
p3453
S'4'
sa(dp3454
S'Pens'
p3455
S'0'
sS'Sub'
p3456
S'0'
sS'Lost'
p3457
S'9'
sS'Drop'
p3458
S'0'
sS'Start'
p3459
S'19'
p3460
sS'Won'
p3461
S'10'
p3462
sS'GfM'
p3463
S'0'
sS'Draw'
p3464
S'0'
sS'Mat'
p3465
S'19'
p3466
sS'Conv'
p3467
S'0'
sS'Tries'
p3468
S'1'
sS'Pts'
p3469
S'4'
sa(dp3470
S'Pens'
p3471
S'0'
sS'Sub'
p3472
S'0'
sS'Lost'
p3473
S'1'
sS'Drop'
p3474
S'0'
sS'Start'
p3475
S'1'
sS'Won'
p3476
S'0'
sS'GfM'
p3477
S'0'
sS'Draw'
p3478
S'0'
sS'Mat'
p3479
S'1'
sS'Conv'
p3480
S'0'
sS'Tries'
p3481
S'0'
sS'Pts'
p3482
S'0'
sa(dp3483
S'Pens'
p3484
S'0'
sS'Sub'
p3485
S'0'
sS'Lost'
p3486
S'1'
sS'Drop'
p3487
S'0'
sS'Start'
p3488
S'1'
sS'Won'
p3489
S'0'
sS'GfM'
p3490
S'0'
sS'Draw'
p3491
S'0'
sS'Mat'
p3492
S'1'
sS'Conv'
p3493
S'0'
sS'Tries'
p3494
S'0'
sS'Pts'
p3495
S'0'
sa(dp3496
S'Pens'
p3497
S'0'
sS'Sub'
p3498
S'0'
sS'Lost'
p3499
S'1'
sS'Drop'
p3500
S'0'
sS'Start'
p3501
S'1'
sS'Won'
p3502
S'0'
sS'GfM'
p3503
S'0'
sS'Draw'
p3504
S'0'
sS'Mat'
p3505
S'1'
sS'Conv'
p3506
S'0'
sS'Tries'
p3507
S'0'
sS'Pts'
p3508
S'0'
sa(dp3509
S'Pens'
p3510
S'0'
sS'Sub'
p3511
S'0'
sS'Lost'
p3512
S'1'
sS'Drop'
p3513
S'0'
sS'Start'
p3514
S'1'
sS'Won'
p3515
S'0'
sS'GfM'
p3516
S'0'
sS'Draw'
p3517
S'0'
sS'Mat'
p3518
S'1'
sS'Conv'
p3519
S'0'
sS'Tries'
p3520
S'0'
sS'Pts'
p3521
S'0'
sa(dp3522
S'Pens'
p3523
S'0'
sS'Sub'
p3524
S'0'
sS'Lost'
p3525
S'1'
sS'Drop'
p3526
S'0'
sS'Start'
p3527
S'1'
sS'Won'
p3528
S'0'
sS'GfM'
p3529
S'0'
sS'Draw'
p3530
S'0'
sS'Mat'
p3531
S'1'
sS'Conv'
p3532
S'0'
sS'Tries'
p3533
S'0'
sS'Pts'
p3534
S'0'
sa(dp3535
S'Pens'
p3536
S'0'
sS'Sub'
p3537
S'0'
sS'Lost'
p3538
S'1'
sS'Drop'
p3539
S'0'
sS'Start'
p3540
S'1'
sS'Won'
p3541
S'0'
sS'GfM'
p3542
S'0'
sS'Draw'
p3543
S'0'
sS'Mat'
p3544
S'1'
sS'Conv'
p3545
S'0'
sS'Tries'
p3546
S'0'
sS'Pts'
p3547
S'0'
sa(dp3548
S'Pens'
p3549
S'0'
sS'Sub'
p3550
S'0'
sS'Lost'
p3551
S'12'
p3552
sS'Drop'
p3553
S'0'
sS'Start'
p3554
S'18'
p3555
sS'Won'
p3556
S'5'
sS'GfM'
p3557
S'0'
sS'Draw'
p3558
S'1'
sS'Mat'
p3559
S'18'
p3560
sS'Conv'
p3561
S'0'
sS'Tries'
p3562
S'3'
sS'Pts'
p3563
S'12'
p3564
sa(dp3565
S'Pens'
p3566
S'0'
sS'Sub'
p3567
S'0'
sS'Lost'
p3568
S'1'
sS'Drop'
p3569
S'0'
sS'Start'
p3570
S'1'
sS'Won'
p3571
S'0'
sS'GfM'
p3572
S'0'
sS'Draw'
p3573
S'0'
sS'Mat'
p3574
S'1'
sS'Conv'
p3575
S'0'
sS'Tries'
p3576
S'0'
sS'Pts'
p3577
S'0'
sa(dp3578
S'Pens'
p3579
S'0'
sS'Sub'
p3580
S'1'
sS'Lost'
p3581
S'1'
sS'Drop'
p3582
S'0'
sS'Start'
p3583
S'0'
sS'Won'
p3584
S'0'
sS'GfM'
p3585
S'0'
sS'Draw'
p3586
S'0'
sS'Mat'
p3587
S'1'
sS'Conv'
p3588
S'0'
sS'Tries'
p3589
S'0'
sS'Pts'
p3590
S'0'
sa(dp3591
S'Pens'
p3592
S'0'
sS'Sub'
p3593
S'1'
sS'Lost'
p3594
S'1'
sS'Drop'
p3595
S'0'
sS'Start'
p3596
S'0'
sS'Won'
p3597
S'0'
sS'GfM'
p3598
S'0'
sS'Draw'
p3599
S'0'
sS'Mat'
p3600
S'1'
sS'Conv'
p3601
S'0'
sS'Tries'
p3602
S'0'
sS'Pts'
p3603
S'0'
sa(dp3604
S'Pens'
p3605
S'0'
sS'Sub'
p3606
S'1'
sS'Lost'
p3607
S'1'
sS'Drop'
p3608
S'0'
sS'Start'
p3609
S'4'
sS'Won'
p3610
S'4'
sS'GfM'
p3611
S'0'
sS'Draw'
p3612
S'0'
sS'Mat'
p3613
S'5'
sS'Conv'
p3614
S'0'
sS'Tries'
p3615
S'1'
sS'Pts'
p3616
S'4'
sa(dp3617
S'Pens'
p3618
S'0'
sS'Sub'
p3619
S'2'
sS'Lost'
p3620
S'12'
p3621
sS'Drop'
p3622
S'0'
sS'Start'
p3623
S'11'
p3624
sS'Won'
p3625
S'1'
sS'GfM'
p3626
S'0'
sS'Draw'
p3627
S'0'
sS'Mat'
p3628
S'13'
p3629
sS'Conv'
p3630
S'0'
sS'Tries'
p3631
S'1'
sS'Pts'
p3632
S'4'
sa(dp3633
S'Pens'
p3634
S'0'
sS'Sub'
p3635
S'0'
sS'Lost'
p3636
S'3'
sS'Drop'
p3637
S'0'
sS'Start'
p3638
S'3'
sS'Won'
p3639
S'0'
sS'GfM'
p3640
S'0'
sS'Draw'
p3641
S'0'
sS'Mat'
p3642
S'3'
sS'Conv'
p3643
S'0'
sS'Tries'
p3644
S'0'
sS'Pts'
p3645
S'0'
sa(dp3646
S'Pens'
p3647
S'0'
sS'Sub'
p3648
S'2'
sS'Lost'
p3649
S'6'
sS'Drop'
p3650
S'0'
sS'Start'
p3651
S'10'
p3652
sS'Won'
p3653
S'5'
sS'GfM'
p3654
S'0'
sS'Draw'
p3655
S'1'
sS'Mat'
p3656
S'12'
p3657
sS'Conv'
p3658
S'0'
sS'Tries'
p3659
S'1'
sS'Pts'
p3660
S'4'
sa(dp3661
S'Pens'
p3662
S'8'
sS'Sub'
p3663
S'0'
sS'Lost'
p3664
S'10'
p3665
sS'Drop'
p3666
S'0'
sS'Start'
p3667
S'21'
p3668
sS'Won'
p3669
S'10'
p3670
sS'GfM'
p3671
S'0'
sS'Draw'
p3672
S'1'
sS'Mat'
p3673
S'21'
p3674
sS'Conv'
p3675
S'5'
sS'Tries'
p3676
S'4'
sS'Pts'
p3677
S'50'
p3678
sa(dp3679
S'Pens'
p3680
S'0'
sS'Sub'
p3681
S'0'
sS'Lost'
p3682
S'1'
sS'Drop'
p3683
S'0'
sS'Start'
p3684
S'1'
sS'Won'
p3685
S'0'
sS'GfM'
p3686
S'0'
sS'Draw'
p3687
S'0'
sS'Mat'
p3688
S'1'
sS'Conv'
p3689
S'0'
sS'Tries'
p3690
S'0'
sS'Pts'
p3691
S'0'
sa(dp3692
S'Pens'
p3693
S'1'
sS'Sub'
p3694
S'1'
sS'Lost'
p3695
S'3'
sS'Drop'
p3696
S'0'
sS'Start'
p3697
S'3'
sS'Won'
p3698
S'1'
sS'GfM'
p3699
S'0'
sS'Draw'
p3700
S'0'
sS'Mat'
p3701
S'4'
sS'Conv'
p3702
S'0'
sS'Tries'
p3703
S'0'
sS'Pts'
p3704
S'3'
sa(dp3705
S'Pens'
p3706
S'0'
sS'Sub'
p3707
S'0'
sS'Lost'
p3708
S'2'
sS'Drop'
p3709
S'0'
sS'Start'
p3710
S'2'
sS'Won'
p3711
S'0'
sS'GfM'
p3712
S'0'
sS'Draw'
p3713
S'0'
sS'Mat'
p3714
S'2'
sS'Conv'
p3715
S'0'
sS'Tries'
p3716
S'1'
sS'Pts'
p3717
S'4'
sa(dp3718
S'Pens'
p3719
S'1'
sS'Sub'
p3720
S'1'
sS'Lost'
p3721
S'13'
p3722
sS'Drop'
p3723
S'1'
sS'Start'
p3724
S'23'
p3725
sS'Won'
p3726
S'10'
p3727
sS'GfM'
p3728
S'0'
sS'Draw'
p3729
S'1'
sS'Mat'
p3730
S'24'
p3731
sS'Conv'
p3732
S'1'
sS'Tries'
p3733
S'1'
sS'Pts'
p3734
S'12'
p3735
sa(dp3736
S'Pens'
p3737
S'0'
sS'Sub'
p3738
S'0'
sS'Lost'
p3739
S'1'
sS'Drop'
p3740
S'0'
sS'Start'
p3741
S'1'
sS'Won'
p3742
S'0'
sS'GfM'
p3743
S'0'
sS'Draw'
p3744
S'0'
sS'Mat'
p3745
S'1'
sS'Conv'
p3746
S'0'
sS'Tries'
p3747
S'0'
sS'Pts'
p3748
S'0'
sa(dp3749
S'Pens'
p3750
S'0'
sS'Sub'
p3751
S'0'
sS'Lost'
p3752
S'0'
sS'Drop'
p3753
S'0'
sS'Start'
p3754
S'3'
sS'Won'
p3755
S'3'
sS'GfM'
p3756
S'0'
sS'Draw'
p3757
S'0'
sS'Mat'
p3758
S'3'
sS'Conv'
p3759
S'0'
sS'Tries'
p3760
S'1'
sS'Pts'
p3761
S'4'
sa(dp3762
S'Pens'
p3763
S'0'
sS'Sub'
p3764
S'0'
sS'Lost'
p3765
S'5'
sS'Drop'
p3766
S'0'
sS'Start'
p3767
S'11'
p3768
sS'Won'
p3769
S'6'
sS'GfM'
p3770
S'0'
sS'Draw'
p3771
S'0'
sS'Mat'
p3772
S'11'
p3773
sS'Conv'
p3774
S'0'
sS'Tries'
p3775
S'9'
sS'Pts'
p3776
S'36'
p3777
sa(dp3778
S'Pens'
p3779
S'2'
sS'Sub'
p3780
S'0'
sS'Lost'
p3781
S'2'
sS'Drop'
p3782
S'0'
sS'Start'
p3783
S'8'
sS'Won'
p3784
S'6'
sS'GfM'
p3785
S'0'
sS'Draw'
p3786
S'0'
sS'Mat'
p3787
S'8'
sS'Conv'
p3788
S'14'
p3789
sS'Tries'
p3790
S'0'
sS'Pts'
p3791
S'34'
p3792
sa(dp3793
S'Pens'
p3794
S'0'
sS'Sub'
p3795
S'0'
sS'Lost'
p3796
S'2'
sS'Drop'
p3797
S'0'
sS'Start'
p3798
S'8'
sS'Won'
p3799
S'6'
sS'GfM'
p3800
S'0'
sS'Draw'
p3801
S'0'
sS'Mat'
p3802
S'8'
sS'Conv'
p3803
S'0'
sS'Tries'
p3804
S'3'
sS'Pts'
p3805
S'12'
p3806
sa(dp3807
S'Pens'
p3808
S'0'
sS'Sub'
p3809
S'0'
sS'Lost'
p3810
S'3'
sS'Drop'
p3811
S'0'
sS'Start'
p3812
S'3'
sS'Won'
p3813
S'0'
sS'Draw'
p3814
S'0'
sS'%'
S'0.00'
p3815
sS'Mat'
p3816
S'3'
sS'Conv'
p3817
S'0'
sS'Tries'
p3818
S'0'
sS'Pts'
p3819
S'0'
sa(dp3820
S'Pens'
p3821
S'0'
sS'Sub'
p3822
S'0'
sS'Lost'
p3823
S'3'
sS'Drop'
p3824
S'0'
sS'Start'
p3825
S'3'
sS'Won'
p3826
S'0'
sS'Draw'
p3827
S'0'
sS'%'
S'0.00'
p3828
sS'Mat'
p3829
S'3'
sS'Conv'
p3830
S'0'
sS'Tries'
p3831
S'1'
sS'Pts'
p3832
S'4'
sa(dp3833
S'Pens'
p3834
S'0'
sS'Sub'
p3835
S'1'
sS'Lost'
p3836
S'7'
sS'Drop'
p3837
S'0'
sS'Start'
p3838
S'11'
p3839
sS'Won'
p3840
S'4'
sS'Draw'
p3841
S'1'
sS'%'
S'37.50'
p3842
sS'Mat'
p3843
S'12'
p3844
sS'Conv'
p3845
S'0'
sS'Tries'
p3846
S'6'
sS'Pts'
p3847
S'24'
p3848
sa(dp3849
S'Pens'
p3850
S'0'
sS'Sub'
p3851
S'0'
sS'Lost'
p3852
S'6'
sS'Drop'
p3853
S'0'
sS'Start'
p3854
S'8'
sS'Won'
p3855
S'2'
sS'Draw'
p3856
S'0'
sS'%'
S'25.00'
p3857
sS'Mat'
p3858
S'8'
sS'Conv'
p3859
S'0'
sS'Tries'
p3860
S'2'
sS'Pts'
p3861
S'8'
sa(dp3862
S'Pens'
p3863
S'0'
sS'Sub'
p3864
S'3'
sS'Lost'
p3865
S'5'
sS'Drop'
p3866
S'0'
sS'Start'
p3867
S'5'
sS'Won'
p3868
S'3'
sS'Draw'
p3869
S'0'
sS'%'
S'37.50'
p3870
sS'Mat'
p3871
S'8'
sS'Conv'
p3872
S'0'
sS'Tries'
p3873
S'5'
sS'Pts'
p3874
S'20'
p3875
sa(dp3876
S'Pens'
p3877
S'0'
sS'Sub'
p3878
S'0'
sS'Lost'
p3879
S'2'
sS'Drop'
p3880
S'0'
sS'Start'
p3881
S'4'
sS'Won'
p3882
S'2'
sS'Draw'
p3883
S'0'
sS'%'
S'50.00'
p3884
sS'Mat'
p3885
S'4'
sS'Conv'
p3886
S'0'
sS'Tries'
p3887
S'1'
sS'Pts'
p3888
S'4'
sa(dp3889
S'Pens'
p3890
S'0'
sS'Sub'
p3891
S'1'
sS'Lost'
p3892
S'7'
sS'Drop'
p3893
S'0'
sS'Start'
p3894
S'10'
p3895
sS'Won'
p3896
S'4'
sS'Draw'
p3897
S'0'
sS'%'
S'36.36'
p3898
sS'Mat'
p3899
S'11'
p3900
sS'Conv'
p3901
S'0'
sS'Tries'
p3902
S'0'
sS'Pts'
p3903
S'0'
sa(dp3904
S'Pens'
p3905
S'0'
sS'Sub'
p3906
S'0'
sS'Lost'
p3907
S'7'
sS'Drop'
p3908
S'0'
sS'Start'
p3909
S'15'
p3910
sS'Won'
p3911
S'7'
sS'Draw'
p3912
S'1'
sS'%'
S'50.00'
p3913
sS'Mat'
p3914
S'15'
p3915
sS'Conv'
p3916
S'0'
sS'Tries'
p3917
S'8'
sS'Pts'
p3918
S'32'
p3919
sa(dp3920
S'Pens'
p3921
S'0'
sS'Sub'
p3922
S'0'
sS'Lost'
p3923
S'1'
sS'Drop'
p3924
S'0'
sS'Start'
p3925
S'3'
sS'Won'
p3926
S'2'
sS'Draw'
p3927
S'0'
sS'%'
S'66.66'
p3928
sS'Mat'
p3929
S'3'
sS'Conv'
p3930
S'0'
sS'Tries'
p3931
S'0'
sS'Pts'
p3932
S'0'
sa(dp3933
S'Pens'
p3934
S'0'
sS'Sub'
p3935
S'0'
sS'Lost'
p3936
S'6'
sS'Drop'
p3937
S'0'
sS'Start'
p3938
S'8'
sS'Won'
p3939
S'2'
sS'Draw'
p3940
S'0'
sS'%'
S'25.00'
p3941
sS'Mat'
p3942
S'8'
sS'Conv'
p3943
S'0'
sS'Tries'
p3944
S'0'
sS'Pts'
p3945
S'0'
sa(dp3946
S'Pens'
p3947
S'0'
sS'Sub'
p3948
S'0'
sS'Lost'
p3949
S'1'
sS'Drop'
p3950
S'0'
sS'Start'
p3951
S'1'
sS'Won'
p3952
S'0'
sS'Draw'
p3953
S'0'
sS'%'
S'0.00'
p3954
sS'Mat'
p3955
S'1'
sS'Conv'
p3956
S'0'
sS'Tries'
p3957
S'0'
sS'Pts'
p3958
S'0'
sa(dp3959
S'Pens'
p3960
S'0'
sS'Sub'
p3961
S'0'
sS'Lost'
p3962
S'12'
p3963
sS'Drop'
p3964
S'0'
sS'Start'
p3965
S'18'
p3966
sS'Won'
p3967
S'6'
sS'Draw'
p3968
S'0'
sS'%'
S'33.33'
p3969
sS'Mat'
p3970
S'18'
p3971
sS'Conv'
p3972
S'0'
sS'Tries'
p3973
S'3'
sS'Pts'
p3974
S'12'
p3975
sa(dp3976
S'Pens'
p3977
S'0'
sS'Sub'
p3978
S'0'
sS'Lost'
p3979
S'3'
sS'Drop'
p3980
S'0'
sS'Start'
p3981
S'3'
sS'Won'
p3982
S'0'
sS'Draw'
p3983
S'0'
sS'%'
S'0.00'
p3984
sS'Mat'
p3985
S'3'
sS'Conv'
p3986
S'0'
sS'Tries'
p3987
S'0'
sS'Pts'
p3988
S'0'
sa(dp3989
S'Pens'
p3990
S'0'
sS'Sub'
p3991
S'0'
sS'Lost'
p3992
S'16'
p3993
sS'Drop'
p3994
S'0'
sS'Start'
p3995
S'32'
p3996
sS'Won'
p3997
S'15'
p3998
sS'Draw'
p3999
S'1'
sS'%'
S'48.43'
p4000
sS'Mat'
p4001
S'32'
p4002
sS'Conv'
p4003
S'0'
sS'Tries'
p4004
S'20'
p4005
sS'Pts'
p4006
S'80'
p4007
sa(dp4008
S'Pens'
p4009
S'0'
sS'Sub'
p4010
S'0'
sS'Lost'
p4011
S'2'
sS'Drop'
p4012
S'1'
sS'Start'
p4013
S'3'
sS'Won'
p4014
S'1'
sS'Draw'
p4015
S'0'
sS'%'
S'33.33'
p4016
sS'Mat'
p4017
S'3'
sS'Conv'
p4018
S'0'
sS'Tries'
p4019
S'0'
sS'Pts'
p4020
S'3'
sa(dp4021
S'Pens'
p4022
S'0'
sS'Sub'
p4023
S'2'
sS'Lost'
p4024
S'6'
sS'Drop'
p4025
S'0'
sS'Start'
p4026
S'6'
sS'Won'
p4027
S'2'
sS'Draw'
p4028
S'0'
sS'%'
S'25.00'
p4029
sS'Mat'
p4030
S'8'
sS'Conv'
p4031
S'0'
sS'Tries'
p4032
S'0'
sS'Pts'
p4033
S'0'
sa(dp4034
S'Pens'
p4035
S'0'
sS'Sub'
p4036
S'0'
sS'Lost'
p4037
S'7'
sS'Drop'
p4038
S'0'
sS'Start'
p4039
S'19'
p4040
sS'Won'
p4041
S'11'
p4042
sS'Draw'
p4043
S'1'
sS'%'
S'60.52'
p4044
sS'Mat'
p4045
S'19'
p4046
sS'Conv'
p4047
S'0'
sS'Tries'
p4048
S'4'
sS'Pts'
p4049
S'16'
p4050
sa(dp4051
S'Pens'
p4052
S'3'
sS'Sub'
p4053
S'0'
sS'Lost'
p4054
S'2'
sS'Drop'
p4055
S'0'
sS'Start'
p4056
S'3'
sS'Won'
p4057
S'1'
sS'Draw'
p4058
S'0'
sS'%'
S'33.33'
p4059
sS'Mat'
p4060
S'3'
sS'Conv'
p4061
S'3'
sS'Tries'
p4062
S'0'
sS'Pts'
p4063
S'15'
p4064
sa(dp4065
S'Pens'
p4066
S'0'
sS'Sub'
p4067
S'1'
sS'Lost'
p4068
S'1'
sS'Drop'
p4069
S'0'
sS'Start'
p4070
S'0'
sS'Won'
p4071
S'0'
sS'Draw'
p4072
S'0'
sS'%'
S'0.00'
p4073
sS'Mat'
p4074
S'1'
sS'Conv'
p4075
S'0'
sS'Tries'
p4076
S'0'
sS'Pts'
p4077
S'0'
sa(dp4078
S'Pens'
p4079
S'0'
sS'Sub'
p4080
S'1'
sS'Lost'
p4081
S'6'
sS'Drop'
p4082
S'0'
sS'Start'
p4083
S'14'
p4084
sS'Won'
p4085
S'8'
sS'Draw'
p4086
S'1'
sS'%'
S'56.66'
p4087
sS'Mat'
p4088
S'15'
p4089
sS'Conv'
p4090
S'0'
sS'Tries'
p4091
S'5'
sS'Pts'
p4092
S'20'
p4093
sa(dp4094
S'Pens'
p4095
S'0'
sS'Sub'
p4096
S'0'
sS'Lost'
p4097
S'1'
sS'Drop'
p4098
S'0'
sS'Start'
p4099
S'3'
sS'Won'
p4100
S'2'
sS'Draw'
p4101
S'0'
sS'%'
S'66.66'
p4102
sS'Mat'
p4103
S'3'
sS'Conv'
p4104
S'0'
sS'Tries'
p4105
S'1'
sS'Pts'
p4106
S'4'
sa(dp4107
S'Pens'
p4108
S'0'
sS'Sub'
p4109
S'0'
sS'Lost'
p4110
S'2'
sS'Drop'
p4111
S'0'
sS'Start'
p4112
S'2'
sS'Won'
p4113
S'0'
sS'Draw'
p4114
S'0'
sS'%'
S'0.00'
p4115
sS'Mat'
p4116
S'2'
sS'Conv'
p4117
S'0'
sS'Tries'
p4118
S'0'
sS'Pts'
p4119
S'0'
sa(dp4120
S'Pens'
p4121
S'0'
sS'Sub'
p4122
S'0'
sS'Lost'
p4123
S'8'
sS'Drop'
p4124
S'0'
sS'Start'
p4125
S'16'
p4126
sS'Won'
p4127
S'7'
sS'Draw'
p4128
S'1'
sS'%'
S'46.87'
p4129
sS'Mat'
p4130
S'16'
p4131
sS'Conv'
p4132
S'0'
sS'Tries'
p4133
S'0'
sS'Pts'
p4134
S'0'
sa(dp4135
S'Pens'
p4136
S'0'
sS'Sub'
p4137
S'0'
sS'Lost'
p4138
S'2'
sS'Drop'
p4139
S'0'
sS'Start'
p4140
S'2'
sS'Won'
p4141
S'0'
sS'Draw'
p4142
S'0'
sS'%'
S'0.00'
p4143
sS'Mat'
p4144
S'2'
sS'Conv'
p4145
S'0'
sS'Tries'
p4146
S'0'
sS'Pts'
p4147
S'0'
sa(dp4148
S'Pens'
p4149
S'0'
sS'Sub'
p4150
S'1'
sS'Lost'
p4151
S'6'
sS'Drop'
p4152
S'0'
sS'Start'
p4153
S'10'
p4154
sS'Won'
p4155
S'4'
sS'Draw'
p4156
S'1'
sS'%'
S'40.90'
p4157
sS'Mat'
p4158
S'11'
p4159
sS'Conv'
p4160
S'3'
sS'Tries'
p4161
S'0'
sS'Pts'
p4162
S'6'
sa(dp4163
S'Pens'
p4164
S'0'
sS'Sub'
p4165
S'0'
sS'Lost'
p4166
S'3'
sS'Drop'
p4167
S'0'
sS'Start'
p4168
S'3'
sS'Won'
p4169
S'0'
sS'Draw'
p4170
S'0'
sS'%'
S'0.00'
p4171
sS'Mat'
p4172
S'3'
sS'Conv'
p4173
S'0'
sS'Tries'
p4174
S'0'
sS'Pts'
p4175
S'0'
sa(dp4176
S'Pens'
p4177
S'0'
sS'Sub'
p4178
S'0'
sS'Lost'
p4179
S'5'
sS'Drop'
p4180
S'0'
sS'Start'
p4181
S'15'
p4182
sS'Won'
p4183
S'9'
sS'Draw'
p4184
S'1'
sS'%'
S'63.33'
p4185
sS'Mat'
p4186
S'15'
p4187
sS'Conv'
p4188
S'0'
sS'Tries'
p4189
S'3'
sS'Pts'
p4190
S'12'
p4191
sa(dp4192
S'Pens'
p4193
S'0'
sS'Sub'
p4194
S'0'
sS'Lost'
p4195
S'3'
sS'Drop'
p4196
S'0'
sS'Start'
p4197
S'8'
sS'Won'
p4198
S'5'
sS'Draw'
p4199
S'0'
sS'%'
S'62.50'
p4200
sS'Mat'
p4201
S'8'
sS'Conv'
p4202
S'0'
sS'Tries'
p4203
S'1'
sS'Pts'
p4204
S'4'
sa(dp4205
S'Pens'
p4206
S'1'
sS'Sub'
p4207
S'0'
sS'Lost'
p4208
S'0'
sS'Drop'
p4209
S'0'
sS'Start'
p4210
S'1'
sS'Won'
p4211
S'1'
sS'Draw'
p4212
S'0'
sS'%'
S'100.00'
p4213
sS'Mat'
p4214
S'1'
sS'Conv'
p4215
S'0'
sS'Tries'
p4216
S'0'
sS'Pts'
p4217
S'3'
sa(dp4218
S'Pens'
p4219
S'0'
sS'Sub'
p4220
S'0'
sS'Lost'
p4221
S'0'
sS'Drop'
p4222
S'0'
sS'Start'
p4223
S'2'
sS'Won'
p4224
S'2'
sS'Draw'
p4225
S'0'
sS'%'
S'100.00'
p4226
sS'Mat'
p4227
S'2'
sS'Conv'
p4228
S'0'
sS'Tries'
p4229
S'0'
sS'Pts'
p4230
S'0'
sa(dp4231
S'Pens'
p4232
S'0'
sS'Sub'
p4233
S'2'
sS'Lost'
p4234
S'1'
sS'Drop'
p4235
S'0'
sS'Start'
p4236
S'3'
sS'Won'
p4237
S'4'
sS'Draw'
p4238
S'0'
sS'%'
S'80.00'
p4239
sS'Mat'
p4240
S'5'
sS'Conv'
p4241
S'0'
sS'Tries'
p4242
S'3'
sS'Pts'
p4243
S'12'
p4244
sa(dp4245
S'Pens'
p4246
S'0'
sS'Sub'
p4247
S'0'
sS'Lost'
p4248
S'1'
sS'Drop'
p4249
S'0'
sS'Start'
p4250
S'6'
sS'Won'
p4251
S'4'
sS'Draw'
p4252
S'1'
sS'%'
S'75.00'
p4253
sS'Mat'
p4254
S'6'
sS'Conv'
p4255
S'0'
sS'Tries'
p4256
S'1'
sS'Pts'
p4257
S'4'
sa(dp4258
S'Pens'
p4259
S'0'
sS'Sub'
p4260
S'0'
sS'Lost'
p4261
S'3'
sS'Drop'
p4262
S'0'
sS'Start'
p4263
S'8'
sS'Won'
p4264
S'4'
sS'Draw'
p4265
S'1'
sS'%'
S'56.25'
p4266
sS'Mat'
p4267
S'8'
sS'Conv'
p4268
S'0'
sS'Tries'
p4269
S'0'
sS'Pts'
p4270
S'0'
sa(dp4271
S'Pens'
p4272
S'0'
sS'Sub'
p4273
S'0'
sS'Lost'
p4274
S'3'
sS'Drop'
p4275
S'0'
sS'Start'
p4276
S'4'
sS'Won'
p4277
S'1'
sS'Draw'
p4278
S'0'
sS'%'
S'25.00'
p4279
sS'Mat'
p4280
S'4'
sS'Conv'
p4281
S'0'
sS'Tries'
p4282
S'0'
sS'Pts'
p4283
S'0'
sa(dp4284
S'Pens'
p4285
S'0'
sS'Sub'
p4286
S'0'
sS'Lost'
p4287
S'13'
p4288
sS'Drop'
p4289
S'0'
sS'Start'
p4290
S'23'
p4291
sS'Won'
p4292
S'9'
sS'Draw'
p4293
S'1'
sS'%'
S'41.30'
p4294
sS'Mat'
p4295
S'23'
p4296
sS'Conv'
p4297
S'0'
sS'Tries'
p4298
S'8'
sS'Pts'
p4299
S'32'
p4300
sa(dp4301
S'Pens'
p4302
S'0'
sS'Sub'
p4303
S'0'
sS'Lost'
p4304
S'1'
sS'Drop'
p4305
S'0'
sS'Start'
p4306
S'6'
sS'Won'
p4307
S'4'
sS'Draw'
p4308
S'1'
sS'%'
S'75.00'
p4309
sS'Mat'
p4310
S'6'
sS'Conv'
p4311
S'0'
sS'Tries'
p4312
S'0'
sS'Pts'
p4313
S'0'
sa(dp4314
S'Pens'
p4315
S'0'
sS'Sub'
p4316
S'0'
sS'Lost'
p4317
S'5'
sS'Drop'
p4318
S'0'
sS'Start'
p4319
S'12'
p4320
sS'Won'
p4321
S'7'
sS'Draw'
p4322
S'0'
sS'%'
S'58.33'
p4323
sS'Mat'
p4324
S'12'
p4325
sS'Conv'
p4326
S'0'
sS'Tries'
p4327
S'3'
sS'Pts'
p4328
S'12'
p4329
sa(dp4330
S'Pens'
p4331
S'0'
sS'Sub'
p4332
S'0'
sS'Lost'
p4333
S'2'
sS'Drop'
p4334
S'0'
sS'Start'
p4335
S'4'
sS'Won'
p4336
S'2'
sS'Draw'
p4337
S'0'
sS'%'
S'50.00'
p4338
sS'Mat'
p4339
S'4'
sS'Conv'
p4340
S'11'
p4341
sS'Tries'
p4342
S'0'
sS'Pts'
p4343
S'22'
p4344
sa(dp4345
S'Pens'
p4346
S'9'
sS'Sub'
p4347
S'1'
sS'Lost'
p4348
S'8'
sS'Drop'
p4349
S'1'
sS'Start'
p4350
S'16'
p4351
sS'Won'
p4352
S'9'
sS'Draw'
p4353
S'0'
sS'%'
S'52.94'
p4354
sS'Mat'
p4355
S'17'
p4356
sS'Conv'
p4357
S'11'
p4358
sS'Tries'
p4359
S'3'
sS'Pts'
p4360
S'66'
p4361
sa(dp4362
S'Pens'
p4363
S'0'
sS'Sub'
p4364
S'0'
sS'Lost'
p4365
S'2'
sS'Drop'
p4366
S'0'
sS'Start'
p4367
S'5'
sS'Won'
p4368
S'3'
sS'Draw'
p4369
S'0'
sS'%'
S'60.00'
p4370
sS'Mat'
p4371
S'5'
sS'Conv'
p4372
S'0'
sS'Tries'
p4373
S'0'
sS'Pts'
p4374
S'0'
sa(dp4375
S'Pens'
p4376
S'0'
sS'Sub'
p4377
S'0'
sS'Lost'
p4378
S'14'
p4379
sS'Drop'
p4380
S'0'
sS'Start'
p4381
S'22'
p4382
sS'Won'
p4383
S'8'
sS'Draw'
p4384
S'0'
sS'%'
S'36.36'
p4385
sS'Mat'
p4386
S'22'
p4387
sS'Conv'
p4388
S'0'
sS'Tries'
p4389
S'2'
sS'Pts'
p4390
S'8'
sa(dp4391
S'Pens'
p4392
S'0'
sS'Sub'
p4393
S'0'
sS'Lost'
p4394
S'1'
sS'Drop'
p4395
S'0'
sS'Start'
p4396
S'2'
sS'Won'
p4397
S'1'
sS'Draw'
p4398
S'0'
sS'%'
S'50.00'
p4399
sS'Mat'
p4400
S'2'
sS'Conv'
p4401
S'0'
sS'Tries'
p4402
S'0'
sS'Pts'
p4403
S'0'
sa(dp4404
S'Pens'
p4405
S'0'
sS'Sub'
p4406
S'0'
sS'Lost'
p4407
S'3'
sS'Drop'
p4408
S'0'
sS'Start'
p4409
S'4'
sS'Won'
p4410
S'1'
sS'Draw'
p4411
S'0'
sS'%'
S'25.00'
p4412
sS'Mat'
p4413
S'4'
sS'Conv'
p4414
S'0'
sS'Tries'
p4415
S'1'
sS'Pts'
p4416
S'4'
sa(dp4417
S'Pens'
p4418
S'0'
sS'Sub'
p4419
S'0'
sS'Lost'
p4420
S'4'
sS'Drop'
p4421
S'0'
sS'Start'
p4422
S'5'
sS'Won'
p4423
S'1'
sS'Draw'
p4424
S'0'
sS'%'
S'20.00'
p4425
sS'Mat'
p4426
S'5'
sS'Conv'
p4427
S'0'
sS'Tries'
p4428
S'2'
sS'Pts'
p4429
S'8'
sa(dp4430
S'Pens'
p4431
S'0'
sS'Sub'
p4432
S'0'
sS'Lost'
p4433
S'6'
sS'Drop'
p4434
S'0'
sS'Start'
p4435
S'14'
p4436
sS'Won'
p4437
S'8'
sS'Draw'
p4438
S'0'
sS'%'
S'57.14'
p4439
sS'Mat'
p4440
S'14'
p4441
sS'Conv'
p4442
S'0'
sS'Tries'
p4443
S'9'
sS'Pts'
p4444
S'36'
p4445
sa(dp4446
S'Pens'
p4447
S'47'
p4448
sS'Sub'
p4449
S'0'
sS'Lost'
p4450
S'16'
p4451
sS'Drop'
p4452
S'5'
sS'Start'
p4453
S'27'
p4454
sS'Won'
p4455
S'10'
p4456
sS'Draw'
p4457
S'1'
sS'%'
S'38.88'
p4458
sS'Mat'
p4459
S'27'
p4460
sS'Conv'
p4461
S'56'
p4462
sS'Tries'
p4463
S'0'
sS'Pts'
p4464
S'268'
p4465
sa(dp4466
S'Pens'
p4467
S'0'
sS'Sub'
p4468
S'0'
sS'Lost'
p4469
S'3'
sS'Drop'
p4470
S'0'
sS'Start'
p4471
S'3'
sS'Won'
p4472
S'0'
sS'Draw'
p4473
S'0'
sS'%'
S'0.00'
p4474
sS'Mat'
p4475
S'3'
sS'Conv'
p4476
S'0'
sS'Tries'
p4477
S'0'
sS'Pts'
p4478
S'0'
sa(dp4479
S'Pens'
p4480
S'0'
sS'Sub'
p4481
S'1'
sS'Lost'
p4482
S'1'
sS'Drop'
p4483
S'0'
sS'Start'
p4484
S'0'
sS'Won'
p4485
S'0'
sS'Draw'
p4486
S'0'
sS'%'
S'0.00'
p4487
sS'Mat'
p4488
S'1'
sS'Conv'
p4489
S'0'
sS'Tries'
p4490
S'0'
sS'Pts'
p4491
S'0'
sa(dp4492
S'Pens'
p4493
S'0'
sS'Sub'
p4494
S'0'
sS'Lost'
p4495
S'1'
sS'Drop'
p4496
S'0'
sS'Start'
p4497
S'2'
sS'Won'
p4498
S'1'
sS'Draw'
p4499
S'0'
sS'%'
S'50.00'
p4500
sS'Mat'
p4501
S'2'
sS'Conv'
p4502
S'0'
sS'Tries'
p4503
S'0'
sS'Pts'
p4504
S'0'
sa(dp4505
S'Pens'
p4506
S'1'
sS'Sub'
p4507
S'1'
sS'Lost'
p4508
S'11'
p4509
sS'Drop'
p4510
S'0'
sS'Start'
p4511
S'16'
p4512
sS'Won'
p4513
S'6'
sS'Draw'
p4514
S'0'
sS'%'
S'35.29'
p4515
sS'Mat'
p4516
S'17'
p4517
sS'Conv'
p4518
S'0'
sS'Tries'
p4519
S'1'
sS'Pts'
p4520
S'7'
sa(dp4521
S'Pens'
p4522
S'0'
sS'Sub'
p4523
S'1'
sS'Lost'
p4524
S'11'
p4525
sS'Drop'
p4526
S'0'
sS'Start'
p4527
S'20'
p4528
sS'Won'
p4529
S'10'
p4530
sS'Draw'
p4531
S'0'
sS'%'
S'47.61'
p4532
sS'Mat'
p4533
S'21'
p4534
sS'Conv'
p4535
S'0'
sS'Tries'
p4536
S'2'
sS'Pts'
p4537
S'8'
sa(dp4538
S'Pens'
p4539
S'1'
sS'Sub'
p4540
S'2'
sS'Lost'
p4541
S'3'
sS'Drop'
p4542
S'0'
sS'Start'
p4543
S'8'
sS'Won'
p4544
S'7'
sS'Draw'
p4545
S'0'
sS'%'
S'70.00'
p4546
sS'Mat'
p4547
S'10'
p4548
sS'Conv'
p4549
S'0'
sS'Tries'
p4550
S'6'
sS'Pts'
p4551
S'27'
p4552
sa(dp4553
S'Pens'
p4554
S'0'
sS'Sub'
p4555
S'1'
sS'Lost'
p4556
S'3'
sS'Drop'
p4557
S'0'
sS'Start'
p4558
S'5'
sS'Won'
p4559
S'3'
sS'Draw'
p4560
S'0'
sS'%'
S'50.00'
p4561
sS'Mat'
p4562
S'6'
sS'Conv'
p4563
S'0'
sS'Tries'
p4564
S'0'
sS'Pts'
p4565
S'0'
sa(dp4566
S'Pens'
p4567
S'0'
sS'Sub'
p4568
S'0'
sS'Lost'
p4569
S'9'
sS'Drop'
p4570
S'0'
sS'Start'
p4571
S'18'
p4572
sS'Won'
p4573
S'9'
sS'Draw'
p4574
S'0'
sS'%'
S'50.00'
p4575
sS'Mat'
p4576
S'18'
p4577
sS'Conv'
p4578
S'0'
sS'Tries'
p4579
S'9'
sS'Pts'
p4580
S'36'
p4581
sa(dp4582
S'Pens'
p4583
S'0'
sS'Sub'
p4584
S'0'
sS'Lost'
p4585
S'1'
sS'Drop'
p4586
S'0'
sS'Start'
p4587
S'1'
sS'Won'
p4588
S'0'
sS'Draw'
p4589
S'0'
sS'%'
S'0.00'
p4590
sS'Mat'
p4591
S'1'
sS'Conv'
p4592
S'0'
sS'Tries'
p4593
S'0'
sS'Pts'
p4594
S'0'
sa(dp4595
S'Pens'
p4596
S'0'
sS'Sub'
p4597
S'0'
sS'Lost'
p4598
S'10'
p4599
sS'Drop'
p4600
S'0'
sS'Start'
p4601
S'17'
p4602
sS'Won'
p4603
S'7'
sS'Draw'
p4604
S'0'
sS'%'
S'41.17'
p4605
sS'Mat'
p4606
S'17'
p4607
sS'Conv'
p4608
S'0'
sS'Tries'
p4609
S'0'
sS'Pts'
p4610
S'0'
sa(dp4611
S'Pens'
p4612
S'0'
sS'Sub'
p4613
S'1'
sS'Lost'
p4614
S'9'
sS'Drop'
p4615
S'0'
sS'Start'
p4616
S'17'
p4617
sS'Won'
p4618
S'8'
sS'Draw'
p4619
S'1'
sS'%'
S'47.22'
p4620
sS'Mat'
p4621
S'18'
p4622
sS'Conv'
p4623
S'0'
sS'Tries'
p4624
S'1'
sS'Pts'
p4625
S'4'
sa(dp4626
S'Pens'
p4627
S'0'
sS'Sub'
p4628
S'0'
sS'Lost'
p4629
S'3'
sS'Drop'
p4630
S'0'
sS'Start'
p4631
S'6'
sS'Won'
p4632
S'3'
sS'Draw'
p4633
S'0'
sS'%'
S'50.00'
p4634
sS'Mat'
p4635
S'6'
sS'Conv'
p4636
S'0'
sS'Tries'
p4637
S'0'
sS'Pts'
p4638
S'0'
sa(dp4639
S'Pens'
p4640
S'0'
sS'Sub'
p4641
S'0'
sS'Lost'
p4642
S'2'
sS'Drop'
p4643
S'0'
sS'Start'
p4644
S'5'
sS'Won'
p4645
S'3'
sS'Draw'
p4646
S'0'
sS'%'
S'60.00'
p4647
sS'Mat'
p4648
S'5'
sS'Conv'
p4649
S'0'
sS'Tries'
p4650
S'2'
sS'Pts'
p4651
S'8'
sa(dp4652
S'Pens'
p4653
S'1'
sS'Sub'
p4654
S'1'
sS'Lost'
p4655
S'3'
sS'Drop'
p4656
S'0'
sS'Start'
p4657
S'2'
sS'Won'
p4658
S'0'
sS'Draw'
p4659
S'0'
sS'%'
S'0.00'
p4660
sS'Mat'
p4661
S'3'
sS'Conv'
p4662
S'0'
sS'Tries'
p4663
S'0'
sS'Pts'
p4664
S'3'
sa(dp4665
S'Pens'
p4666
S'0'
sS'Sub'
p4667
S'1'
sS'Lost'
p4668
S'26'
p4669
sS'Drop'
p4670
S'0'
sS'Start'
p4671
S'37'
p4672
sS'Won'
p4673
S'12'
p4674
sS'Draw'
p4675
S'0'
sS'%'
S'31.57'
p4676
sS'Mat'
p4677
S'38'
p4678
sS'Conv'
p4679
S'0'
sS'Tries'
p4680
S'3'
sS'Pts'
p4681
S'12'
p4682
sa(dp4683
S'Pens'
p4684
S'1'
sS'Sub'
p4685
S'0'
sS'Lost'
p4686
S'1'
sS'Drop'
p4687
S'0'
sS'Start'
p4688
S'2'
sS'Won'
p4689
S'1'
sS'Draw'
p4690
S'0'
sS'%'
S'50.00'
p4691
sS'Mat'
p4692
S'2'
sS'Conv'
p4693
S'1'
sS'Tries'
p4694
S'0'
sS'Pts'
p4695
S'5'
sa(dp4696
S'Pens'
p4697
S'0'
sS'Sub'
p4698
S'0'
sS'Lost'
p4699
S'1'
sS'Drop'
p4700
S'0'
sS'Start'
p4701
S'1'
sS'Won'
p4702
S'0'
sS'Draw'
p4703
S'0'
sS'%'
S'0.00'
p4704
sS'Mat'
p4705
S'1'
sS'Conv'
p4706
S'1'
sS'Tries'
p4707
S'0'
sS'Pts'
p4708
S'2'
sa(dp4709
S'Pens'
p4710
S'0'
sS'Sub'
p4711
S'0'
sS'Lost'
p4712
S'1'
sS'Drop'
p4713
S'0'
sS'Start'
p4714
S'1'
sS'Won'
p4715
S'0'
sS'Draw'
p4716
S'0'
sS'%'
S'0.00'
p4717
sS'Mat'
p4718
S'1'
sS'Conv'
p4719
S'0'
sS'Tries'
p4720
S'0'
sS'Pts'
p4721
S'0'
sa(dp4722
S'Pens'
p4723
S'0'
sS'Sub'
p4724
S'0'
sS'Lost'
p4725
S'6'
sS'Drop'
p4726
S'0'
sS'Start'
p4727
S'12'
p4728
sS'Won'
p4729
S'5'
sS'Draw'
p4730
S'1'
sS'%'
S'45.83'
p4731
sS'Mat'
p4732
S'12'
p4733
sS'Conv'
p4734
S'0'
sS'Tries'
p4735
S'3'
sS'Pts'
p4736
S'12'
p4737
sa(dp4738
S'Pens'
p4739
S'0'
sS'Sub'
p4740
S'0'
sS'Lost'
p4741
S'3'
sS'Drop'
p4742
S'0'
sS'Start'
p4743
S'5'
sS'Won'
p4744
S'2'
sS'Draw'
p4745
S'0'
sS'%'
S'40.00'
p4746
sS'Mat'
p4747
S'5'
sS'Conv'
p4748
S'0'
sS'Tries'
p4749
S'1'
sS'Pts'
p4750
S'4'
sa(dp4751
S'Pens'
p4752
S'0'
sS'Sub'
p4753
S'1'
sS'Lost'
p4754
S'2'
sS'Drop'
p4755
S'0'
sS'Start'
p4756
S'3'
sS'Won'
p4757
S'2'
sS'Draw'
p4758
S'0'
sS'%'
S'50.00'
p4759
sS'Mat'
p4760
S'4'
sS'Conv'
p4761
S'0'
sS'Tries'
p4762
S'0'
sS'Pts'
p4763
S'0'
sa(dp4764
S'Pens'
p4765
S'0'
sS'Sub'
p4766
S'1'
sS'Lost'
p4767
S'0'
sS'Drop'
p4768
S'0'
sS'Start'
p4769
S'0'
sS'Won'
p4770
S'1'
sS'Draw'
p4771
S'0'
sS'%'
S'100.00'
p4772
sS'Mat'
p4773
S'1'
sS'Conv'
p4774
S'0'
sS'Tries'
p4775
S'0'
sS'Pts'
p4776
S'0'
sa(dp4777
S'Pens'
p4778
S'0'
sS'Sub'
p4779
S'0'
sS'Lost'
p4780
S'1'
sS'Drop'
p4781
S'0'
sS'Start'
p4782
S'1'
sS'Won'
p4783
S'0'
sS'Draw'
p4784
S'0'
sS'%'
S'0.00'
p4785
sS'Mat'
p4786
S'1'
sS'Conv'
p4787
S'0'
sS'Tries'
p4788
S'0'
sS'Pts'
p4789
S'0'
sa(dp4790
S'Pens'
p4791
S'0'
sS'Sub'
p4792
S'1'
sS'Lost'
p4793
S'4'
sS'Drop'
p4794
S'0'
sS'Start'
p4795
S'6'
sS'Won'
p4796
S'3'
sS'Draw'
p4797
S'0'
sS'%'
S'42.85'
p4798
sS'Mat'
p4799
S'7'
sS'Conv'
p4800
S'0'
sS'Tries'
p4801
S'0'
sS'Pts'
p4802
S'0'
sa(dp4803
S'Pens'
p4804
S'0'
sS'Sub'
p4805
S'0'
sS'Lost'
p4806
S'1'
sS'Drop'
p4807
S'0'
sS'Start'
p4808
S'2'
sS'Won'
p4809
S'1'
sS'Draw'
p4810
S'0'
sS'%'
S'50.00'
p4811
sS'Mat'
p4812
S'2'
sS'Conv'
p4813
S'0'
sS'Tries'
p4814
S'1'
sS'Pts'
p4815
S'4'
sa(dp4816
S'Pens'
p4817
S'0'
sS'Sub'
p4818
S'0'
sS'Lost'
p4819
S'2'
sS'Drop'
p4820
S'0'
sS'Start'
p4821
S'4'
sS'Won'
p4822
S'2'
sS'Draw'
p4823
S'0'
sS'%'
S'50.00'
p4824
sS'Mat'
p4825
S'4'
sS'Conv'
p4826
S'0'
sS'Tries'
p4827
S'1'
sS'Pts'
p4828
S'4'
sa(dp4829
S'Pens'
p4830
S'0'
sS'Sub'
p4831
S'0'
sS'Lost'
p4832
S'4'
sS'Drop'
p4833
S'0'
sS'Start'
p4834
S'4'
sS'Won'
p4835
S'0'
sS'Draw'
p4836
S'0'
sS'%'
S'0.00'
p4837
sS'Mat'
p4838
S'4'
sS'Conv'
p4839
S'0'
sS'Tries'
p4840
S'0'
sS'Pts'
p4841
S'0'
sa(dp4842
S'Pens'
p4843
S'0'
sS'Sub'
p4844
S'0'
sS'Lost'
p4845
S'1'
sS'Drop'
p4846
S'0'
sS'Start'
p4847
S'1'
sS'Won'
p4848
S'0'
sS'Draw'
p4849
S'0'
sS'%'
S'0.00'
p4850
sS'Mat'
p4851
S'1'
sS'Conv'
p4852
S'0'
sS'Tries'
p4853
S'0'
sS'Pts'
p4854
S'0'
sa(dp4855
S'Pens'
p4856
S'0'
sS'Sub'
p4857
S'0'
sS'Lost'
p4858
S'9'
sS'Drop'
p4859
S'0'
sS'Start'
p4860
S'13'
p4861
sS'Won'
p4862
S'4'
sS'Draw'
p4863
S'0'
sS'%'
S'30.76'
p4864
sS'Mat'
p4865
S'13'
p4866
sS'Conv'
p4867
S'0'
sS'Tries'
p4868
S'2'
sS'Pts'
p4869
S'8'
sa(dp4870
S'Pens'
p4871
S'0'
sS'Sub'
p4872
S'1'
sS'Lost'
p4873
S'1'
sS'Drop'
p4874
S'0'
sS'Start'
p4875
S'0'
sS'Won'
p4876
S'0'
sS'Draw'
p4877
S'0'
sS'%'
S'0.00'
p4878
sS'Mat'
p4879
S'1'
sS'Conv'
p4880
S'0'
sS'Tries'
p4881
S'1'
sS'Pts'
p4882
S'4'
sa(dp4883
S'Pens'
p4884
S'0'
sS'Sub'
p4885
S'0'
sS'Lost'
p4886
S'6'
sS'Drop'
p4887
S'0'
sS'Start'
p4888
S'7'
sS'Won'
p4889
S'1'
sS'Draw'
p4890
S'0'
sS'%'
S'14.28'
p4891
sS'Mat'
p4892
S'7'
sS'Conv'
p4893
S'0'
sS'Tries'
p4894
S'2'
sS'Pts'
p4895
S'8'
sa(dp4896
S'Pens'
p4897
S'0'
sS'Sub'
p4898
S'1'
sS'Lost'
p4899
S'1'
sS'Drop'
p4900
S'0'
sS'Start'
p4901
S'0'
sS'Won'
p4902
S'0'
sS'Draw'
p4903
S'0'
sS'%'
S'0.00'
p4904
sS'Mat'
p4905
S'1'
sS'Conv'
p4906
S'0'
sS'Tries'
p4907
S'0'
sS'Pts'
p4908
S'0'
sa(dp4909
S'Pens'
p4910
S'2'
sS'Sub'
p4911
S'0'
sS'Lost'
p4912
S'4'
sS'Drop'
p4913
S'0'
sS'Start'
p4914
S'4'
sS'Won'
p4915
S'0'
sS'Draw'
p4916
S'0'
sS'%'
S'0.00'
p4917
sS'Mat'
p4918
S'4'
sS'Conv'
p4919
S'2'
sS'Tries'
p4920
S'1'
sS'Pts'
p4921
S'14'
p4922
sa(dp4923
S'Pens'
p4924
S'0'
sS'Sub'
p4925
S'1'
sS'Lost'
p4926
S'7'
sS'Drop'
p4927
S'0'
sS'Start'
p4928
S'10'
p4929
sS'Won'
p4930
S'4'
sS'Draw'
p4931
S'0'
sS'%'
S'36.36'
p4932
sS'Mat'
p4933
S'11'
p4934
sS'Conv'
p4935
S'0'
sS'Tries'
p4936
S'0'
sS'Pts'
p4937
S'0'
sa(dp4938
S'Pens'
p4939
S'0'
sS'Sub'
p4940
S'2'
sS'Lost'
p4941
S'7'
sS'Drop'
p4942
S'0'
sS'Start'
p4943
S'9'
sS'Won'
p4944
S'4'
sS'Draw'
p4945
S'0'
sS'%'
S'36.36'
p4946
sS'Mat'
p4947
S'11'
p4948
sS'Conv'
p4949
S'3'
sS'Tries'
p4950
S'0'
sS'Pts'
p4951
S'6'
sa(dp4952
S'Pens'
p4953
S'0'
sS'Sub'
p4954
S'0'
sS'Lost'
p4955
S'7'
sS'Drop'
p4956
S'0'
sS'Start'
p4957
S'10'
p4958
sS'Won'
p4959
S'1'
sS'Draw'
p4960
S'2'
sS'%'
S'20.00'
p4961
sS'Mat'
p4962
S'10'
p4963
sS'Conv'
p4964
S'0'
sS'Tries'
p4965
S'2'
sS'Pts'
p4966
S'8'
sa(dp4967
S'Pens'
p4968
S'0'
sS'Sub'
p4969
S'0'
sS'Lost'
p4970
S'8'
sS'Drop'
p4971
S'0'
sS'Start'
p4972
S'12'
p4973
sS'Won'
p4974
S'4'
sS'Draw'
p4975
S'0'
sS'%'
S'33.33'
p4976
sS'Mat'
p4977
S'12'
p4978
sS'Conv'
p4979
S'0'
sS'Tries'
p4980
S'0'
sS'Pts'
p4981
S'0'
sa(dp4982
S'Pens'
p4983
S'4'
sS'Sub'
p4984
S'0'
sS'Lost'
p4985
S'2'
sS'Drop'
p4986
S'0'
sS'Start'
p4987
S'4'
sS'Won'
p4988
S'2'
sS'Draw'
p4989
S'0'
sS'%'
S'50.00'
p4990
sS'Mat'
p4991
S'4'
sS'Conv'
p4992
S'4'
sS'Tries'
p4993
S'1'
sS'Pts'
p4994
S'24'
p4995
sa(dp4996
S'Pens'
p4997
S'2'
sS'Sub'
p4998
S'8'
sS'Lost'
p4999
S'29'
p5000
sS'Drop'
p5001
S'0'
sS'Start'
p5002
S'38'
p5003
sS'Won'
p5004
S'16'
p5005
sS'Draw'
p5006
S'1'
sS'%'
S'35.86'
p5007
sS'Mat'
p5008
S'46'
p5009
sS'Conv'
p5010
S'0'
sS'Tries'
p5011
S'4'
sS'Pts'
p5012
S'25'
p5013
sa(dp5014
S'Pens'
p5015
S'0'
sS'Sub'
p5016
S'0'
sS'Lost'
p5017
S'1'
sS'Drop'
p5018
S'0'
sS'Start'
p5019
S'1'
sS'Won'
p5020
S'0'
sS'Draw'
p5021
S'0'
sS'%'
S'0.00'
p5022
sS'Mat'
p5023
S'1'
sS'Conv'
p5024
S'0'
sS'Tries'
p5025
S'0'
sS'Pts'
p5026
S'0'
sa(dp5027
S'Pens'
p5028
S'0'
sS'Sub'
p5029
S'0'
sS'Lost'
p5030
S'1'
sS'Drop'
p5031
S'0'
sS'Start'
p5032
S'3'
sS'Won'
p5033
S'2'
sS'Draw'
p5034
S'0'
sS'%'
S'66.66'
p5035
sS'Mat'
p5036
S'3'
sS'Conv'
p5037
S'0'
sS'Tries'
p5038
S'1'
sS'Pts'
p5039
S'4'
sa(dp5040
S'Pens'
p5041
S'0'
sS'Sub'
p5042
S'0'
sS'Lost'
p5043
S'1'
sS'Drop'
p5044
S'0'
sS'Start'
p5045
S'3'
sS'Won'
p5046
S'2'
sS'Draw'
p5047
S'0'
sS'%'
S'66.66'
p5048
sS'Mat'
p5049
S'3'
sS'Conv'
p5050
S'0'
sS'Tries'
p5051
S'0'
sS'Pts'
p5052
S'0'
sa(dp5053
S'Pens'
p5054
S'0'
sS'Sub'
p5055
S'0'
sS'Lost'
p5056
S'4'
sS'Drop'
p5057
S'0'
sS'Start'
p5058
S'11'
p5059
sS'Won'
p5060
S'5'
sS'Draw'
p5061
S'2'
sS'%'
S'54.54'
p5062
sS'Mat'
p5063
S'11'
p5064
sS'Conv'
p5065
S'0'
sS'Tries'
p5066
S'6'
sS'Pts'
p5067
S'24'
p5068
sa(dp5069
S'Pens'
p5070
S'0'
sS'Sub'
p5071
S'0'
sS'Lost'
p5072
S'10'
p5073
sS'Drop'
p5074
S'0'
sS'Start'
p5075
S'21'
p5076
sS'Won'
p5077
S'9'
sS'Draw'
p5078
S'2'
sS'%'
S'47.61'
p5079
sS'Mat'
p5080
S'21'
p5081
sS'Conv'
p5082
S'0'
sS'Tries'
p5083
S'2'
sS'Pts'
p5084
S'8'
sa(dp5085
S'Pens'
p5086
S'0'
sS'Sub'
p5087
S'1'
sS'Lost'
p5088
S'8'
sS'Drop'
p5089
S'0'
sS'Start'
p5090
S'17'
p5091
sS'Won'
p5092
S'9'
sS'Draw'
p5093
S'1'
sS'%'
S'52.77'
p5094
sS'Mat'
p5095
S'18'
p5096
sS'Conv'
p5097
S'0'
sS'Tries'
p5098
S'1'
sS'Pts'
p5099
S'4'
sa(dp5100
S'Pens'
p5101
S'0'
sS'Sub'
p5102
S'0'
sS'Lost'
p5103
S'1'
sS'Drop'
p5104
S'0'
sS'Start'
p5105
S'1'
sS'Won'
p5106
S'0'
sS'Draw'
p5107
S'0'
sS'%'
S'0.00'
p5108
sS'Mat'
p5109
S'1'
sS'Conv'
p5110
S'0'
sS'Tries'
p5111
S'0'
sS'Pts'
p5112
S'0'
sa(dp5113
S'Pens'
p5114
S'0'
sS'Sub'
p5115
S'0'
sS'Lost'
p5116
S'1'
sS'Drop'
p5117
S'0'
sS'Start'
p5118
S'1'
sS'Won'
p5119
S'0'
sS'Draw'
p5120
S'0'
sS'%'
S'0.00'
p5121
sS'Mat'
p5122
S'1'
sS'Conv'
p5123
S'0'
sS'Tries'
p5124
S'0'
sS'Pts'
p5125
S'0'
sa(dp5126
S'Pens'
p5127
S'0'
sS'Sub'
p5128
S'0'
sS'Lost'
p5129
S'0'
sS'Drop'
p5130
S'0'
sS'Start'
p5131
S'3'
sS'Won'
p5132
S'3'
sS'Draw'
p5133
S'0'
sS'%'
S'100.00'
p5134
sS'Mat'
p5135
S'3'
sS'Conv'
p5136
S'0'
sS'Tries'
p5137
S'1'
sS'Pts'
p5138
S'4'
sa(dp5139
S'Pens'
p5140
S'0'
sS'Sub'
p5141
S'0'
sS'Lost'
p5142
S'0'
sS'Drop'
p5143
S'0'
sS'Start'
p5144
S'4'
sS'Won'
p5145
S'4'
sS'Draw'
p5146
S'0'
sS'%'
S'100.00'
p5147
sS'Mat'
p5148
S'4'
sS'Conv'
p5149
S'0'
sS'Tries'
p5150
S'3'
sS'Pts'
p5151
S'12'
p5152
sa(dp5153
S'Pens'
p5154
S'0'
sS'Sub'
p5155
S'0'
sS'Lost'
p5156
S'0'
sS'Drop'
p5157
S'0'
sS'Start'
p5158
S'2'
sS'Won'
p5159
S'2'
sS'Draw'
p5160
S'0'
sS'%'
S'100.00'
p5161
sS'Mat'
p5162
S'2'
sS'Conv'
p5163
S'0'
sS'Tries'
p5164
S'0'
sS'Pts'
p5165
S'0'
sa(dp5166
S'Pens'
p5167
S'0'
sS'Sub'
p5168
S'1'
sS'Lost'
p5169
S'1'
sS'Drop'
p5170
S'0'
sS'Start'
p5171
S'1'
sS'Won'
p5172
S'1'
sS'Draw'
p5173
S'0'
sS'%'
S'50.00'
p5174
sS'Mat'
p5175
S'2'
sS'Conv'
p5176
S'0'
sS'Tries'
p5177
S'0'
sS'Pts'
p5178
S'0'
sa(dp5179
S'Pens'
p5180
S'0'
sS'Sub'
p5181
S'0'
sS'Lost'
p5182
S'2'
sS'Drop'
p5183
S'1'
sS'Start'
p5184
S'4'
sS'Won'
p5185
S'2'
sS'Draw'
p5186
S'0'
sS'%'
S'50.00'
p5187
sS'Mat'
p5188
S'4'
sS'Conv'
p5189
S'0'
sS'Tries'
p5190
S'2'
sS'Pts'
p5191
S'11'
p5192
sa(dp5193
S'Pens'
p5194
S'0'
sS'Sub'
p5195
S'0'
sS'Lost'
p5196
S'1'
sS'Drop'
p5197
S'0'
sS'Start'
p5198
S'2'
sS'Won'
p5199
S'1'
sS'Draw'
p5200
S'0'
sS'%'
S'50.00'
p5201
sS'Mat'
p5202
S'2'
sS'Conv'
p5203
S'0'
sS'Tries'
p5204
S'0'
sS'Pts'
p5205
S'0'
sa(dp5206
S'Pens'
p5207
S'0'
sS'Sub'
p5208
S'2'
sS'Lost'
p5209
S'2'
sS'Drop'
p5210
S'0'
sS'Start'
p5211
S'1'
sS'Won'
p5212
S'1'
sS'Draw'
p5213
S'0'
sS'%'
S'33.33'
p5214
sS'Mat'
p5215
S'3'
sS'Conv'
p5216
S'0'
sS'Tries'
p5217
S'0'
sS'Pts'
p5218
S'0'
sa(dp5219
S'Pens'
p5220
S'0'
sS'Sub'
p5221
S'0'
sS'Lost'
p5222
S'1'
sS'Drop'
p5223
S'0'
sS'Start'
p5224
S'1'
sS'Won'
p5225
S'0'
sS'Draw'
p5226
S'0'
sS'%'
S'0.00'
p5227
sS'Mat'
p5228
S'1'
sS'Conv'
p5229
S'0'
sS'Tries'
p5230
S'1'
sS'Pts'
p5231
S'4'
sa(dp5232
S'Pens'
p5233
S'0'
sS'Sub'
p5234
S'0'
sS'Lost'
p5235
S'2'
sS'Drop'
p5236
S'0'
sS'Start'
p5237
S'4'
sS'Won'
p5238
S'0'
sS'Draw'
p5239
S'2'
sS'%'
S'25.00'
p5240
sS'Mat'
p5241
S'4'
sS'Conv'
p5242
S'0'
sS'Tries'
p5243
S'0'
sS'Pts'
p5244
S'0'
sa(dp5245
S'Pens'
p5246
S'0'
sS'Sub'
p5247
S'3'
sS'Lost'
p5248
S'20'
p5249
sS'Drop'
p5250
S'0'
sS'Start'
p5251
S'31'
p5252
sS'Won'
p5253
S'13'
p5254
sS'Draw'
p5255
S'1'
sS'%'
S'39.70'
p5256
sS'Mat'
p5257
S'34'
p5258
sS'Conv'
p5259
S'0'
sS'Tries'
p5260
S'1'
sS'Pts'
p5261
S'4'
sa(dp5262
S'Pens'
p5263
S'0'
sS'Sub'
p5264
S'2'
sS'Lost'
p5265
S'14'
p5266
sS'Drop'
p5267
S'0'
sS'Start'
p5268
S'21'
p5269
sS'Won'
p5270
S'8'
sS'Draw'
p5271
S'1'
sS'%'
S'36.95'
p5272
sS'Mat'
p5273
S'23'
p5274
sS'Conv'
p5275
S'0'
sS'Tries'
p5276
S'1'
sS'Pts'
p5277
S'5'
sa(dp5278
S'Pens'
p5279
S'0'
sS'Sub'
p5280
S'0'
sS'Lost'
p5281
S'0'
sS'Drop'
p5282
S'0'
sS'Start'
p5283
S'3'
sS'Won'
p5284
S'3'
sS'Draw'
p5285
S'0'
sS'%'
S'100.00'
p5286
sS'Mat'
p5287
S'3'
sS'Conv'
p5288
S'0'
sS'Tries'
p5289
S'0'
sS'Pts'
p5290
S'0'
sa(dp5291
S'Pens'
p5292
S'0'
sS'Sub'
p5293
S'0'
sS'Lost'
p5294
S'1'
sS'Drop'
p5295
S'0'
sS'Start'
p5296
S'4'
sS'Won'
p5297
S'2'
sS'Draw'
p5298
S'1'
sS'%'
S'62.50'
p5299
sS'Mat'
p5300
S'4'
sS'Conv'
p5301
S'0'
sS'Tries'
p5302
S'0'
sS'Pts'
p5303
S'0'
sa(dp5304
S'Pens'
p5305
S'0'
sS'Sub'
p5306
S'0'
sS'Lost'
p5307
S'0'
sS'Drop'
p5308
S'0'
sS'Start'
p5309
S'3'
sS'Won'
p5310
S'2'
sS'Draw'
p5311
S'1'
sS'%'
S'83.33'
p5312
sS'Mat'
p5313
S'3'
sS'Conv'
p5314
S'0'
sS'Tries'
p5315
S'1'
sS'Pts'
p5316
S'4'
sa(dp5317
S'Pens'
p5318
S'0'
sS'Sub'
p5319
S'0'
sS'Lost'
p5320
S'6'
sS'Drop'
p5321
S'0'
sS'Start'
p5322
S'13'
p5323
sS'Won'
p5324
S'5'
sS'Draw'
p5325
S'2'
sS'%'
S'46.15'
p5326
sS'Mat'
p5327
S'13'
p5328
sS'Conv'
p5329
S'0'
sS'Tries'
p5330
S'2'
sS'Pts'
p5331
S'8'
sa(dp5332
S'Pens'
p5333
S'0'
sS'Sub'
p5334
S'0'
sS'Lost'
p5335
S'4'
sS'Drop'
p5336
S'0'
sS'Start'
p5337
S'7'
sS'Won'
p5338
S'2'
sS'Draw'
p5339
S'1'
sS'%'
S'35.71'
p5340
sS'Mat'
p5341
S'7'
sS'Conv'
p5342
S'0'
sS'Tries'
p5343
S'0'
sS'Pts'
p5344
S'0'
sa(dp5345
S'Pens'
p5346
S'0'
sS'Sub'
p5347
S'1'
sS'Lost'
p5348
S'10'
p5349
sS'Drop'
p5350
S'0'
sS'Start'
p5351
S'14'
p5352
sS'Won'
p5353
S'4'
sS'Draw'
p5354
S'1'
sS'%'
S'30.00'
p5355
sS'Mat'
p5356
S'15'
p5357
sS'Conv'
p5358
S'0'
sS'Tries'
p5359
S'1'
sS'Pts'
p5360
S'4'
sa(dp5361
S'Pens'
p5362
S'0'
sS'Sub'
p5363
S'0'
sS'Lost'
p5364
S'4'
sS'Drop'
p5365
S'0'
sS'Start'
p5366
S'7'
sS'Won'
p5367
S'3'
sS'Draw'
p5368
S'0'
sS'%'
S'42.85'
p5369
sS'Mat'
p5370
S'7'
sS'Conv'
p5371
S'0'
sS'Tries'
p5372
S'3'
sS'Pts'
p5373
S'12'
p5374
sa(dp5375
S'Pens'
p5376
S'0'
sS'Sub'
p5377
S'1'
sS'Lost'
p5378
S'4'
sS'Drop'
p5379
S'0'
sS'Start'
p5380
S'9'
sS'Won'
p5381
S'4'
sS'Draw'
p5382
S'2'
sS'%'
S'50.00'
p5383
sS'Mat'
p5384
S'10'
p5385
sS'Conv'
p5386
S'0'
sS'Tries'
p5387
S'4'
sS'Pts'
p5388
S'16'
p5389
sa(dp5390
S'Pens'
p5391
S'8'
sS'Sub'
p5392
S'0'
sS'Lost'
p5393
S'0'
sS'Drop'
p5394
S'0'
sS'Start'
p5395
S'3'
sS'Won'
p5396
S'2'
sS'Draw'
p5397
S'1'
sS'%'
S'83.33'
p5398
sS'Mat'
p5399
S'3'
sS'Conv'
p5400
S'0'
sS'Tries'
p5401
S'0'
sS'Pts'
p5402
S'24'
p5403
sa(dp5404
S'Pens'
p5405
S'0'
sS'Sub'
p5406
S'0'
sS'Lost'
p5407
S'5'
sS'Drop'
p5408
S'0'
sS'Start'
p5409
S'9'
sS'Won'
p5410
S'2'
sS'Draw'
p5411
S'2'
sS'%'
S'33.33'
p5412
sS'Mat'
p5413
S'9'
sS'Conv'
p5414
S'0'
sS'Tries'
p5415
S'2'
sS'Pts'
p5416
S'9'
sa(dp5417
S'Pens'
p5418
S'0'
sS'Sub'
p5419
S'0'
sS'Lost'
p5420
S'0'
sS'Drop'
p5421
S'0'
sS'Start'
p5422
S'3'
sS'Won'
p5423
S'2'
sS'Draw'
p5424
S'1'
sS'%'
S'83.33'
p5425
sS'Mat'
p5426
S'3'
sS'Conv'
p5427
S'0'
sS'Tries'
p5428
S'1'
sS'Pts'
p5429
S'4'
sa(dp5430
S'Pens'
p5431
S'0'
sS'Sub'
p5432
S'0'
sS'Lost'
p5433
S'0'
sS'Drop'
p5434
S'0'
sS'Start'
p5435
S'1'
sS'Won'
p5436
S'0'
sS'Draw'
p5437
S'1'
sS'%'
S'50.00'
p5438
sS'Mat'
p5439
S'1'
sS'Conv'
p5440
S'0'
sS'Tries'
p5441
S'0'
sS'Pts'
p5442
S'0'
sa(dp5443
S'Pens'
p5444
S'0'
sS'Sub'
p5445
S'0'
sS'Lost'
p5446
S'0'
sS'Drop'
p5447
S'0'
sS'Start'
p5448
S'1'
sS'Won'
p5449
S'0'
sS'Draw'
p5450
S'1'
sS'%'
S'50.00'
p5451
sS'Mat'
p5452
S'1'
sS'Conv'
p5453
S'0'
sS'Tries'
p5454
S'0'
sS'Pts'
p5455
S'0'
sa(dp5456
S'Pens'
p5457
S'0'
sS'Sub'
p5458
S'1'
sS'Lost'
p5459
S'0'
sS'Drop'
p5460
S'0'
sS'Start'
p5461
S'1'
sS'Won'
p5462
S'1'
sS'Draw'
p5463
S'1'
sS'%'
S'75.00'
p5464
sS'Mat'
p5465
S'2'
sS'Conv'
p5466
S'0'
sS'Tries'
p5467
S'2'
sS'Pts'
p5468
S'8'
sa(dp5469
S'Pens'
p5470
S'0'
sS'Sub'
p5471
S'0'
sS'Lost'
p5472
S'0'
sS'Drop'
p5473
S'0'
sS'Start'
p5474
S'1'
sS'Won'
p5475
S'1'
sS'Draw'
p5476
S'0'
sS'%'
S'100.00'
p5477
sS'Mat'
p5478
S'1'
sS'Conv'
p5479
S'0'
sS'Tries'
p5480
S'0'
sS'Pts'
p5481
S'0'
sa(dp5482
S'Pens'
p5483
S'2'
sS'Sub'
p5484
S'0'
sS'Lost'
p5485
S'9'
sS'Drop'
p5486
S'2'
sS'Start'
p5487
S'16'
p5488
sS'Won'
p5489
S'7'
sS'Draw'
p5490
S'0'
sS'%'
S'43.75'
p5491
sS'Mat'
p5492
S'16'
p5493
sS'Conv'
p5494
S'0'
sS'Tries'
p5495
S'7'
sS'Pts'
p5496
S'42'
p5497
sa(dp5498
S'Pens'
p5499
S'0'
sS'Sub'
p5500
S'0'
sS'Lost'
p5501
S'4'
sS'Drop'
p5502
S'0'
sS'Start'
p5503
S'7'
sS'Won'
p5504
S'3'
sS'Draw'
p5505
S'0'
sS'%'
S'42.85'
p5506
sS'Mat'
p5507
S'7'
sS'Conv'
p5508
S'0'
sS'Tries'
p5509
S'2'
sS'Pts'
p5510
S'8'
sa(dp5511
S'Pens'
p5512
S'0'
sS'Sub'
p5513
S'0'
sS'Lost'
p5514
S'1'
sS'Drop'
p5515
S'0'
sS'Start'
p5516
S'2'
sS'Won'
p5517
S'1'
sS'Draw'
p5518
S'0'
sS'%'
S'50.00'
p5519
sS'Mat'
p5520
S'2'
sS'Conv'
p5521
S'0'
sS'Tries'
p5522
S'0'
sS'Pts'
p5523
S'0'
sa(dp5524
S'Pens'
p5525
S'0'
sS'Sub'
p5526
S'0'
sS'Lost'
p5527
S'2'
sS'Drop'
p5528
S'0'
sS'Start'
p5529
S'4'
sS'Won'
p5530
S'2'
sS'Draw'
p5531
S'0'
sS'%'
S'50.00'
p5532
sS'Mat'
p5533
S'4'
sS'Conv'
p5534
S'0'
sS'Tries'
p5535
S'2'
sS'Pts'
p5536
S'8'
sa(dp5537
S'Pens'
p5538
S'0'
sS'Sub'
p5539
S'0'
sS'Lost'
p5540
S'1'
sS'Drop'
p5541
S'0'
sS'Start'
p5542
S'1'
sS'Won'
p5543
S'0'
sS'Draw'
p5544
S'0'
sS'%'
S'0.00'
p5545
sS'Mat'
p5546
S'1'
sS'Conv'
p5547
S'0'
sS'Tries'
p5548
S'0'
sS'Pts'
p5549
S'0'
sa(dp5550
S'Pens'
p5551
S'27'
p5552
sS'Sub'
p5553
S'15'
p5554
sS'Lost'
p5555
S'23'
p5556
sS'Drop'
p5557
S'3'
sS'Start'
p5558
S'23'
p5559
sS'Won'
p5560
S'15'
p5561
sS'Draw'
p5562
S'0'
sS'%'
S'39.47'
p5563
sS'Mat'
p5564
S'38'
p5565
sS'Conv'
p5566
S'40'
p5567
sS'Tries'
p5568
S'11'
p5569
sS'Pts'
p5570
S'221'
p5571
sa(dp5572
S'Pens'
p5573
S'0'
sS'Sub'
p5574
S'0'
sS'Lost'
p5575
S'7'
sS'Drop'
p5576
S'0'
sS'Start'
p5577
S'9'
sS'Won'
p5578
S'2'
sS'Draw'
p5579
S'0'
sS'%'
S'22.22'
p5580
sS'Mat'
p5581
S'9'
sS'Conv'
p5582
S'2'
sS'Tries'
p5583
S'1'
sS'Pts'
p5584
S'8'
sa(dp5585
S'Pens'
p5586
S'0'
sS'Sub'
p5587
S'0'
sS'Lost'
p5588
S'2'
sS'Drop'
p5589
S'0'
sS'Start'
p5590
S'3'
sS'Won'
p5591
S'1'
sS'Draw'
p5592
S'0'
sS'%'
S'33.33'
p5593
sS'Mat'
p5594
S'3'
sS'Conv'
p5595
S'0'
sS'Tries'
p5596
S'0'
sS'Pts'
p5597
S'0'
sa(dp5598
S'Pens'
p5599
S'0'
sS'Sub'
p5600
S'0'
sS'Lost'
p5601
S'5'
sS'Drop'
p5602
S'0'
sS'Start'
p5603
S'8'
sS'Won'
p5604
S'3'
sS'Draw'
p5605
S'0'
sS'%'
S'37.50'
p5606
sS'Mat'
p5607
S'8'
sS'Conv'
p5608
S'0'
sS'Tries'
p5609
S'3'
sS'Pts'
p5610
S'14'
p5611
sa(dp5612
S'Pens'
p5613
S'0'
sS'Sub'
p5614
S'0'
sS'Lost'
p5615
S'0'
sS'Drop'
p5616
S'0'
sS'Start'
p5617
S'2'
sS'Won'
p5618
S'2'
sS'Draw'
p5619
S'0'
sS'%'
S'100.00'
p5620
sS'Mat'
p5621
S'2'
sS'Conv'
p5622
S'0'
sS'Tries'
p5623
S'0'
sS'Pts'
p5624
S'0'
sa(dp5625
S'Pens'
p5626
S'0'
sS'Sub'
p5627
S'0'
sS'Lost'
p5628
S'4'
sS'Drop'
p5629
S'0'
sS'Start'
p5630
S'5'
sS'Won'
p5631
S'1'
sS'Draw'
p5632
S'0'
sS'%'
S'20.00'
p5633
sS'Mat'
p5634
S'5'
sS'Conv'
p5635
S'0'
sS'Tries'
p5636
S'0'
sS'Pts'
p5637
S'0'
sa(dp5638
S'Pens'
p5639
S'0'
sS'Sub'
p5640
S'2'
sS'Lost'
p5641
S'7'
sS'Drop'
p5642
S'0'
sS'Start'
p5643
S'24'
p5644
sS'Won'
p5645
S'19'
p5646
sS'Draw'
p5647
S'0'
sS'%'
S'73.07'
p5648
sS'Mat'
p5649
S'26'
p5650
sS'Conv'
p5651
S'0'
sS'Tries'
p5652
S'3'
sS'Pts'
p5653
S'15'
p5654
sa(dp5655
S'Pens'
p5656
S'0'
sS'Sub'
p5657
S'0'
sS'Lost'
p5658
S'1'
sS'Drop'
p5659
S'0'
sS'Start'
p5660
S'5'
sS'Won'
p5661
S'4'
sS'Draw'
p5662
S'0'
sS'%'
S'80.00'
p5663
sS'Mat'
p5664
S'5'
sS'Conv'
p5665
S'0'
sS'Tries'
p5666
S'1'
sS'Pts'
p5667
S'4'
sa(dp5668
S'Pens'
p5669
S'0'
sS'Sub'
p5670
S'0'
sS'Lost'
p5671
S'0'
sS'Drop'
p5672
S'0'
sS'Start'
p5673
S'1'
sS'Won'
p5674
S'1'
sS'Draw'
p5675
S'0'
sS'%'
S'100.00'
p5676
sS'Mat'
p5677
S'1'
sS'Conv'
p5678
S'0'
sS'Tries'
p5679
S'0'
sS'Pts'
p5680
S'0'
sa(dp5681
S'Pens'
p5682
S'0'
sS'Sub'
p5683
S'3'
sS'Lost'
p5684
S'13'
p5685
sS'Drop'
p5686
S'0'
sS'Start'
p5687
S'19'
p5688
sS'Won'
p5689
S'9'
sS'Draw'
p5690
S'0'
sS'%'
S'40.90'
p5691
sS'Mat'
p5692
S'22'
p5693
sS'Conv'
p5694
S'0'
sS'Tries'
p5695
S'2'
sS'Pts'
p5696
S'9'
sa(dp5697
S'Pens'
p5698
S'0'
sS'Sub'
p5699
S'1'
sS'Lost'
p5700
S'6'
sS'Drop'
p5701
S'0'
sS'Start'
p5702
S'9'
sS'Won'
p5703
S'4'
sS'Draw'
p5704
S'0'
sS'%'
S'40.00'
p5705
sS'Mat'
p5706
S'10'
p5707
sS'Conv'
p5708
S'0'
sS'Tries'
p5709
S'4'
sS'Pts'
p5710
S'16'
p5711
sa(dp5712
S'Pens'
p5713
S'0'
sS'Sub'
p5714
S'0'
sS'Lost'
p5715
S'3'
sS'Drop'
p5716
S'0'
sS'Start'
p5717
S'4'
sS'Won'
p5718
S'1'
sS'Draw'
p5719
S'0'
sS'%'
S'25.00'
p5720
sS'Mat'
p5721
S'4'
sS'Conv'
p5722
S'0'
sS'Tries'
p5723
S'2'
sS'Pts'
p5724
S'8'
sa(dp5725
S'Pens'
p5726
S'0'
sS'Sub'
p5727
S'1'
sS'Lost'
p5728
S'3'
sS'Drop'
p5729
S'0'
sS'Start'
p5730
S'4'
sS'Won'
p5731
S'2'
sS'Draw'
p5732
S'0'
sS'%'
S'40.00'
p5733
sS'Mat'
p5734
S'5'
sS'Conv'
p5735
S'0'
sS'Tries'
p5736
S'0'
sS'Pts'
p5737
S'0'
sa(dp5738
S'Pens'
p5739
S'0'
sS'Sub'
p5740
S'0'
sS'Lost'
p5741
S'3'
sS'Drop'
p5742
S'0'
sS'Start'
p5743
S'6'
sS'Won'
p5744
S'3'
sS'Draw'
p5745
S'0'
sS'%'
S'50.00'
p5746
sS'Mat'
p5747
S'6'
sS'Conv'
p5748
S'0'
sS'Tries'
p5749
S'0'
sS'Pts'
p5750
S'0'
sa(dp5751
S'Pens'
p5752
S'0'
sS'Sub'
p5753
S'0'
sS'Lost'
p5754
S'1'
sS'Drop'
p5755
S'0'
sS'Start'
p5756
S'3'
sS'Won'
p5757
S'2'
sS'Draw'
p5758
S'0'
sS'%'
S'66.66'
p5759
sS'Mat'
p5760
S'3'
sS'Conv'
p5761
S'0'
sS'Tries'
p5762
S'4'
sS'Pts'
p5763
S'16'
p5764
sa(dp5765
S'Pens'
p5766
S'1'
sS'Sub'
p5767
S'0'
sS'Lost'
p5768
S'2'
sS'Drop'
p5769
S'1'
sS'Start'
p5770
S'3'
sS'Won'
p5771
S'1'
sS'Draw'
p5772
S'0'
sS'%'
S'33.33'
p5773
sS'Mat'
p5774
S'3'
sS'Conv'
p5775
S'2'
sS'Tries'
p5776
S'1'
sS'Pts'
p5777
S'14'
p5778
sa(dp5779
S'Pens'
p5780
S'6'
sS'Sub'
p5781
S'1'
sS'Lost'
p5782
S'7'
sS'Drop'
p5783
S'6'
sS'Start'
p5784
S'10'
p5785
sS'Won'
p5786
S'4'
sS'Draw'
p5787
S'0'
sS'%'
S'36.36'
p5788
sS'Mat'
p5789
S'11'
p5790
sS'Conv'
p5791
S'9'
sS'Tries'
p5792
S'1'
sS'Pts'
p5793
S'58'
p5794
sa(dp5795
S'Pens'
p5796
S'0'
sS'Sub'
p5797
S'0'
sS'Lost'
p5798
S'1'
sS'Drop'
p5799
S'0'
sS'Start'
p5800
S'2'
sS'Won'
p5801
S'1'
sS'Draw'
p5802
S'0'
sS'%'
S'50.00'
p5803
sS'Mat'
p5804
S'2'
sS'Conv'
p5805
S'0'
sS'Tries'
p5806
S'1'
sS'Pts'
p5807
S'4'
sa(dp5808
S'Pens'
p5809
S'0'
sS'Sub'
p5810
S'0'
sS'Lost'
p5811
S'3'
sS'Drop'
p5812
S'0'
sS'Start'
p5813
S'5'
sS'Won'
p5814
S'2'
sS'Draw'
p5815
S'0'
sS'%'
S'40.00'
p5816
sS'Mat'
p5817
S'5'
sS'Conv'
p5818
S'0'
sS'Tries'
p5819
S'2'
sS'Pts'
p5820
S'8'
sa(dp5821
S'Pens'
p5822
S'4'
sS'Sub'
p5823
S'0'
sS'Lost'
p5824
S'2'
sS'Drop'
p5825
S'2'
sS'Start'
p5826
S'4'
sS'Won'
p5827
S'2'
sS'Draw'
p5828
S'0'
sS'%'
S'50.00'
p5829
sS'Mat'
p5830
S'4'
sS'Conv'
p5831
S'1'
sS'Tries'
p5832
S'1'
sS'Pts'
p5833
S'24'
p5834
sa(dp5835
S'Pens'
p5836
S'0'
sS'Sub'
p5837
S'0'
sS'Lost'
p5838
S'6'
sS'Drop'
p5839
S'0'
sS'Start'
p5840
S'7'
sS'Won'
p5841
S'1'
sS'Draw'
p5842
S'0'
sS'%'
S'14.28'
p5843
sS'Mat'
p5844
S'7'
sS'Conv'
p5845
S'0'
sS'Tries'
p5846
S'0'
sS'Pts'
p5847
S'0'
sa(dp5848
S'Pens'
p5849
S'2'
sS'Sub'
p5850
S'2'
sS'Lost'
p5851
S'2'
sS'Drop'
p5852
S'0'
sS'Start'
p5853
S'1'
sS'Won'
p5854
S'1'
sS'Draw'
p5855
S'0'
sS'%'
S'33.33'
p5856
sS'Mat'
p5857
S'3'
sS'Conv'
p5858
S'3'
sS'Tries'
p5859
S'0'
sS'Pts'
p5860
S'12'
p5861
sa(dp5862
S'Pens'
p5863
S'0'
sS'Sub'
p5864
S'1'
sS'Lost'
p5865
S'2'
sS'Drop'
p5866
S'0'
sS'Start'
p5867
S'3'
sS'Won'
p5868
S'2'
sS'Draw'
p5869
S'0'
sS'%'
S'50.00'
p5870
sS'Mat'
p5871
S'4'
sS'Conv'
p5872
S'0'
sS'Tries'
p5873
S'0'
sS'Pts'
p5874
S'0'
sa(dp5875
S'Pens'
p5876
S'0'
sS'Sub'
p5877
S'0'
sS'Lost'
p5878
S'1'
sS'Drop'
p5879
S'0'
sS'Start'
p5880
S'2'
sS'Won'
p5881
S'1'
sS'Draw'
p5882
S'0'
sS'%'
S'50.00'
p5883
sS'Mat'
p5884
S'2'
sS'Conv'
p5885
S'0'
sS'Tries'
p5886
S'1'
sS'Pts'
p5887
S'4'
sa(dp5888
S'Pens'
p5889
S'0'
sS'Sub'
p5890
S'0'
sS'Lost'
p5891
S'1'
sS'Drop'
p5892
S'0'
sS'Start'
p5893
S'2'
sS'Won'
p5894
S'1'
sS'Draw'
p5895
S'0'
sS'%'
S'50.00'
p5896
sS'Mat'
p5897
S'2'
sS'Conv'
p5898
S'0'
sS'Tries'
p5899
S'0'
sS'Pts'
p5900
S'0'
sa(dp5901
S'Pens'
p5902
S'0'
sS'Sub'
p5903
S'0'
sS'Lost'
p5904
S'4'
sS'Drop'
p5905
S'0'
sS'Start'
p5906
S'5'
sS'Won'
p5907
S'1'
sS'Draw'
p5908
S'0'
sS'%'
S'20.00'
p5909
sS'Mat'
p5910
S'5'
sS'Conv'
p5911
S'0'
sS'Tries'
p5912
S'0'
sS'Pts'
p5913
S'0'
sa(dp5914
S'Pens'
p5915
S'0'
sS'Sub'
p5916
S'0'
sS'Lost'
p5917
S'3'
sS'Drop'
p5918
S'0'
sS'Start'
p5919
S'4'
sS'Won'
p5920
S'1'
sS'Draw'
p5921
S'0'
sS'%'
S'25.00'
p5922
sS'Mat'
p5923
S'4'
sS'Conv'
p5924
S'0'
sS'Tries'
p5925
S'0'
sS'Pts'
p5926
S'0'
sa(dp5927
S'Pens'
p5928
S'0'
sS'Sub'
p5929
S'15'
p5930
sS'Lost'
p5931
S'14'
p5932
sS'Drop'
p5933
S'0'
sS'Start'
p5934
S'14'
p5935
sS'Won'
p5936
S'15'
p5937
sS'Draw'
p5938
S'0'
sS'%'
S'51.72'
p5939
sS'Mat'
p5940
S'29'
p5941
sS'Conv'
p5942
S'0'
sS'Tries'
p5943
S'3'
sS'Pts'
p5944
S'14'
p5945
sa(dp5946
S'Pens'
p5947
S'0'
sS'Sub'
p5948
S'16'
p5949
sS'Lost'
p5950
S'16'
p5951
sS'Drop'
p5952
S'0'
sS'Start'
p5953
S'18'
p5954
sS'Won'
p5955
S'18'
p5956
sS'Draw'
p5957
S'0'
sS'%'
S'52.94'
p5958
sS'Mat'
p5959
S'34'
p5960
sS'Conv'
p5961
S'0'
sS'Tries'
p5962
S'2'
sS'Pts'
p5963
S'10'
p5964
sa(dp5965
S'Pens'
p5966
S'0'
sS'Sub'
p5967
S'0'
sS'Lost'
p5968
S'2'
sS'Drop'
p5969
S'0'
sS'Start'
p5970
S'3'
sS'Won'
p5971
S'1'
sS'Draw'
p5972
S'0'
sS'%'
S'33.33'
p5973
sS'Mat'
p5974
S'3'
sS'Conv'
p5975
S'0'
sS'Tries'
p5976
S'0'
sS'Pts'
p5977
S'0'
sa(dp5978
S'Pens'
p5979
S'0'
sS'Sub'
p5980
S'0'
sS'Lost'
p5981
S'2'
sS'Drop'
p5982
S'0'
sS'Start'
p5983
S'2'
sS'Won'
p5984
S'0'
sS'Draw'
p5985
S'0'
sS'%'
S'0.00'
p5986
sS'Mat'
p5987
S'2'
sS'Conv'
p5988
S'0'
sS'Tries'
p5989
S'0'
sS'Pts'
p5990
S'0'
sa(dp5991
S'Pens'
p5992
S'0'
sS'Sub'
p5993
S'3'
sS'Lost'
p5994
S'11'
p5995
sS'Drop'
p5996
S'0'
sS'Start'
p5997
S'19'
p5998
sS'Won'
p5999
S'11'
p6000
sS'Draw'
p6001
S'0'
sS'%'
S'50.00'
p6002
sS'Mat'
p6003
S'22'
p6004
sS'Conv'
p6005
S'0'
sS'Tries'
p6006
S'2'
sS'Pts'
p6007
S'10'
p6008
sa(dp6009
S'Pens'
p6010
S'0'
sS'Sub'
p6011
S'1'
sS'Lost'
p6012
S'2'
sS'Drop'
p6013
S'0'
sS'Start'
p6014
S'1'
sS'Won'
p6015
S'0'
sS'Draw'
p6016
S'0'
sS'%'
S'0.00'
p6017
sS'Mat'
p6018
S'2'
sS'Conv'
p6019
S'0'
sS'Tries'
p6020
S'0'
sS'Pts'
p6021
S'0'
sa(dp6022
S'Pens'
p6023
S'0'
sS'Sub'
p6024
S'1'
sS'Lost'
p6025
S'2'
sS'Drop'
p6026
S'0'
sS'Start'
p6027
S'1'
sS'Won'
p6028
S'0'
sS'Draw'
p6029
S'0'
sS'%'
S'0.00'
p6030
sS'Mat'
p6031
S'2'
sS'Conv'
p6032
S'0'
sS'Tries'
p6033
S'0'
sS'Pts'
p6034
S'0'
sa(dp6035
S'Pens'
p6036
S'0'
sS'Sub'
p6037
S'0'
sS'Lost'
p6038
S'1'
sS'Drop'
p6039
S'0'
sS'Start'
p6040
S'1'
sS'Won'
p6041
S'0'
sS'Draw'
p6042
S'0'
sS'%'
S'0.00'
p6043
sS'Mat'
p6044
S'1'
sS'Conv'
p6045
S'0'
sS'Tries'
p6046
S'0'
sS'Pts'
p6047
S'0'
sa(dp6048
S'Pens'
p6049
S'0'
sS'Sub'
p6050
S'0'
sS'Lost'
p6051
S'1'
sS'Drop'
p6052
S'0'
sS'Start'
p6053
S'1'
sS'Won'
p6054
S'0'
sS'Draw'
p6055
S'0'
sS'%'
S'0.00'
p6056
sS'Mat'
p6057
S'1'
sS'Conv'
p6058
S'0'
sS'Tries'
p6059
S'0'
sS'Pts'
p6060
S'0'
sa(dp6061
S'Pens'
p6062
S'2'
sS'Sub'
p6063
S'0'
sS'Lost'
p6064
S'1'
sS'Drop'
p6065
S'0'
sS'Start'
p6066
S'1'
sS'Won'
p6067
S'0'
sS'Draw'
p6068
S'0'
sS'%'
S'0.00'
p6069
sS'Mat'
p6070
S'1'
sS'Conv'
p6071
S'0'
sS'Tries'
p6072
S'0'
sS'Pts'
p6073
S'6'
sa(dp6074
S'Pens'
p6075
S'0'
sS'Sub'
p6076
S'0'
sS'Lost'
p6077
S'1'
sS'Drop'
p6078
S'0'
sS'Start'
p6079
S'1'
sS'Won'
p6080
S'0'
sS'Draw'
p6081
S'0'
sS'%'
S'0.00'
p6082
sS'Mat'
p6083
S'1'
sS'Conv'
p6084
S'0'
sS'Tries'
p6085
S'0'
sS'Pts'
p6086
S'0'
sa(dp6087
S'Pens'
p6088
S'0'
sS'Sub'
p6089
S'0'
sS'Lost'
p6090
S'3'
sS'Drop'
p6091
S'0'
sS'Start'
p6092
S'3'
sS'Won'
p6093
S'0'
sS'Draw'
p6094
S'0'
sS'%'
S'0.00'
p6095
sS'Mat'
p6096
S'3'
sS'Conv'
p6097
S'0'
sS'Tries'
p6098
S'0'
sS'Pts'
p6099
S'0'
sa(dp6100
S'Pens'
p6101
S'0'
sS'Sub'
p6102
S'0'
sS'Lost'
p6103
S'7'
sS'Drop'
p6104
S'0'
sS'Start'
p6105
S'8'
sS'Won'
p6106
S'1'
sS'Draw'
p6107
S'0'
sS'%'
S'12.50'
p6108
sS'Mat'
p6109
S'8'
sS'Conv'
p6110
S'0'
sS'Tries'
p6111
S'0'
sS'Pts'
p6112
S'0'
sa(dp6113
S'Pens'
p6114
S'0'
sS'Sub'
p6115
S'0'
sS'Lost'
p6116
S'4'
sS'Drop'
p6117
S'0'
sS'Start'
p6118
S'5'
sS'Won'
p6119
S'1'
sS'Draw'
p6120
S'0'
sS'%'
S'20.00'
p6121
sS'Mat'
p6122
S'5'
sS'Conv'
p6123
S'0'
sS'Tries'
p6124
S'0'
sS'Pts'
p6125
S'0'
sa(dp6126
S'Pens'
p6127
S'0'
sS'Sub'
p6128
S'0'
sS'Lost'
p6129
S'2'
sS'Drop'
p6130
S'0'
sS'Start'
p6131
S'2'
sS'Won'
p6132
S'0'
sS'Draw'
p6133
S'0'
sS'%'
S'0.00'
p6134
sS'Mat'
p6135
S'2'
sS'Conv'
p6136
S'0'
sS'Tries'
p6137
S'0'
sS'Pts'
p6138
S'0'
sa(dp6139
S'Pens'
p6140
S'0'
sS'Sub'
p6141
S'0'
sS'Lost'
p6142
S'2'
sS'Drop'
p6143
S'0'
sS'Start'
p6144
S'3'
sS'Won'
p6145
S'1'
sS'Draw'
p6146
S'0'
sS'%'
S'33.33'
p6147
sS'Mat'
p6148
S'3'
sS'Conv'
p6149
S'0'
sS'Tries'
p6150
S'0'
sS'Pts'
p6151
S'0'
sa(dp6152
S'Pens'
p6153
S'0'
sS'Sub'
p6154
S'0'
sS'Lost'
p6155
S'0'
sS'Drop'
p6156
S'0'
sS'Start'
p6157
S'1'
sS'Won'
p6158
S'1'
sS'Draw'
p6159
S'0'
sS'%'
S'100.00'
p6160
sS'Mat'
p6161
S'1'
sS'Conv'
p6162
S'0'
sS'Tries'
p6163
S'0'
sS'Pts'
p6164
S'0'
sa(dp6165
S'Pens'
p6166
S'0'
sS'Sub'
p6167
S'1'
sS'Lost'
p6168
S'8'
sS'Drop'
p6169
S'0'
sS'Start'
p6170
S'11'
p6171
sS'Won'
p6172
S'4'
sS'Draw'
p6173
S'0'
sS'%'
S'33.33'
p6174
sS'Mat'
p6175
S'12'
p6176
sS'Conv'
p6177
S'0'
sS'Tries'
p6178
S'1'
sS'Pts'
p6179
S'5'
sa(dp6180
S'Pens'
p6181
S'0'
sS'Sub'
p6182
S'0'
sS'Lost'
p6183
S'5'
sS'Drop'
p6184
S'0'
sS'Start'
p6185
S'6'
sS'Won'
p6186
S'1'
sS'Draw'
p6187
S'0'
sS'%'
S'16.66'
p6188
sS'Mat'
p6189
S'6'
sS'Conv'
p6190
S'0'
sS'Tries'
p6191
S'0'
sS'Pts'
p6192
S'0'
sa(dp6193
S'Pens'
p6194
S'0'
sS'Sub'
p6195
S'0'
sS'Lost'
p6196
S'2'
sS'Drop'
p6197
S'0'
sS'Start'
p6198
S'2'
sS'Won'
p6199
S'0'
sS'Draw'
p6200
S'0'
sS'%'
S'0.00'
p6201
sS'Mat'
p6202
S'2'
sS'Conv'
p6203
S'0'
sS'Tries'
p6204
S'0'
sS'Pts'
p6205
S'0'
sa(dp6206
S'Pens'
p6207
S'0'
sS'Sub'
p6208
S'3'
sS'Lost'
p6209
S'19'
p6210
sS'Drop'
p6211
S'0'
sS'Start'
p6212
S'33'
p6213
sS'Won'
p6214
S'17'
p6215
sS'Draw'
p6216
S'0'
sS'%'
S'47.22'
p6217
sS'Mat'
p6218
S'36'
p6219
sS'Conv'
p6220
S'0'
sS'Tries'
p6221
S'4'
sS'Pts'
p6222
S'20'
p6223
sa(dp6224
S'Pens'
p6225
S'0'
sS'Sub'
p6226
S'0'
sS'Lost'
p6227
S'2'
sS'Drop'
p6228
S'0'
sS'Start'
p6229
S'2'
sS'Won'
p6230
S'0'
sS'Draw'
p6231
S'0'
sS'%'
S'0.00'
p6232
sS'Mat'
p6233
S'2'
sS'Conv'
p6234
S'0'
sS'Tries'
p6235
S'0'
sS'Pts'
p6236
S'0'
sa(dp6237
S'Pens'
p6238
S'0'
sS'Sub'
p6239
S'0'
sS'Lost'
p6240
S'1'
sS'Drop'
p6241
S'0'
sS'Start'
p6242
S'1'
sS'Won'
p6243
S'0'
sS'Draw'
p6244
S'0'
sS'%'
S'0.00'
p6245
sS'Mat'
p6246
S'1'
sS'Conv'
p6247
S'0'
sS'Tries'
p6248
S'0'
sS'Pts'
p6249
S'0'
sa(dp6250
S'Pens'
p6251
S'2'
sS'Sub'
p6252
S'0'
sS'Lost'
p6253
S'3'
sS'Drop'
p6254
S'0'
sS'Start'
p6255
S'3'
sS'Won'
p6256
S'0'
sS'Draw'
p6257
S'0'
sS'%'
S'0.00'
p6258
sS'Mat'
p6259
S'3'
sS'Conv'
p6260
S'1'
sS'Tries'
p6261
S'0'
sS'Pts'
p6262
S'8'
sa(dp6263
S'Pens'
p6264
S'0'
sS'Sub'
p6265
S'0'
sS'Lost'
p6266
S'1'
sS'Drop'
p6267
S'0'
sS'Start'
p6268
S'1'
sS'Won'
p6269
S'0'
sS'Draw'
p6270
S'0'
sS'%'
S'0.00'
p6271
sS'Mat'
p6272
S'1'
sS'Conv'
p6273
S'0'
sS'Tries'
p6274
S'1'
sS'Pts'
p6275
S'5'
sa(dp6276
S'Pens'
p6277
S'0'
sS'Sub'
p6278
S'2'
sS'Lost'
p6279
S'17'
p6280
sS'Drop'
p6281
S'0'
sS'Start'
p6282
S'23'
p6283
sS'Won'
p6284
S'8'
sS'Draw'
p6285
S'0'
sS'%'
S'32.00'
p6286
sS'Mat'
p6287
S'25'
p6288
sS'Conv'
p6289
S'0'
sS'Tries'
p6290
S'10'
p6291
sS'Pts'
p6292
S'50'
p6293
sa(dp6294
S'Pens'
p6295
S'0'
sS'Sub'
p6296
S'2'
sS'Lost'
p6297
S'6'
sS'Drop'
p6298
S'0'
sS'Start'
p6299
S'4'
sS'Won'
p6300
S'0'
sS'Draw'
p6301
S'0'
sS'%'
S'0.00'
p6302
sS'Mat'
p6303
S'6'
sS'Conv'
p6304
S'0'
sS'Tries'
p6305
S'0'
sS'Pts'
p6306
S'0'
sa(dp6307
S'Pens'
p6308
S'0'
sS'Sub'
p6309
S'1'
sS'Lost'
p6310
S'1'
sS'Drop'
p6311
S'0'
sS'Start'
p6312
S'0'
sS'Won'
p6313
S'0'
sS'Draw'
p6314
S'0'
sS'%'
S'0.00'
p6315
sS'Mat'
p6316
S'1'
sS'Conv'
p6317
S'0'
sS'Tries'
p6318
S'0'
sS'Pts'
p6319
S'0'
sa(dp6320
S'Pens'
p6321
S'0'
sS'Sub'
p6322
S'1'
sS'Lost'
p6323
S'2'
sS'Drop'
p6324
S'0'
sS'Start'
p6325
S'1'
sS'Won'
p6326
S'0'
sS'Draw'
p6327
S'0'
sS'%'
S'0.00'
p6328
sS'Mat'
p6329
S'2'
sS'Conv'
p6330
S'0'
sS'Tries'
p6331
S'0'
sS'Pts'
p6332
S'0'
sa(dp6333
S'Pens'
p6334
S'0'
sS'Sub'
p6335
S'2'
sS'Lost'
p6336
S'7'
sS'Drop'
p6337
S'0'
sS'Start'
p6338
S'7'
sS'Won'
p6339
S'2'
sS'Draw'
p6340
S'0'
sS'%'
S'22.22'
p6341
sS'Mat'
p6342
S'9'
sS'Conv'
p6343
S'0'
sS'Tries'
p6344
S'6'
sS'Pts'
p6345
S'30'
p6346
sa(dp6347
S'Pens'
p6348
S'0'
sS'Sub'
p6349
S'2'
sS'Lost'
p6350
S'2'
sS'Drop'
p6351
S'0'
sS'Start'
p6352
S'0'
sS'Won'
p6353
S'0'
sS'Draw'
p6354
S'0'
sS'%'
S'0.00'
p6355
sS'Mat'
p6356
S'2'
sS'Conv'
p6357
S'0'
sS'Tries'
p6358
S'0'
sS'Pts'
p6359
S'0'
sa(dp6360
S'Pens'
p6361
S'1'
sS'Sub'
p6362
S'2'
sS'Lost'
p6363
S'4'
sS'Drop'
p6364
S'0'
sS'Start'
p6365
S'2'
sS'Won'
p6366
S'0'
sS'Draw'
p6367
S'0'
sS'%'
S'0.00'
p6368
sS'Mat'
p6369
S'4'
sS'Conv'
p6370
S'0'
sS'Tries'
p6371
S'0'
sS'Pts'
p6372
S'3'
sa(dp6373
S'Pens'
p6374
S'0'
sS'Sub'
p6375
S'0'
sS'Lost'
p6376
S'5'
sS'Drop'
p6377
S'0'
sS'Start'
p6378
S'9'
sS'Won'
p6379
S'4'
sS'Draw'
p6380
S'0'
sS'%'
S'44.44'
p6381
sS'Mat'
p6382
S'9'
sS'Conv'
p6383
S'0'
sS'Tries'
p6384
S'0'
sS'Pts'
p6385
S'0'
sa(dp6386
S'Pens'
p6387
S'0'
sS'Sub'
p6388
S'0'
sS'Lost'
p6389
S'2'
sS'Drop'
p6390
S'0'
sS'Start'
p6391
S'3'
sS'Won'
p6392
S'1'
sS'Draw'
p6393
S'0'
sS'%'
S'33.33'
p6394
sS'Mat'
p6395
S'3'
sS'Conv'
p6396
S'0'
sS'Tries'
p6397
S'0'
sS'Pts'
p6398
S'0'
sa(dp6399
S'Pens'
p6400
S'0'
sS'Sub'
p6401
S'0'
sS'Lost'
p6402
S'9'
sS'Drop'
p6403
S'0'
sS'Start'
p6404
S'13'
p6405
sS'Won'
p6406
S'4'
sS'Draw'
p6407
S'0'
sS'%'
S'30.76'
p6408
sS'Mat'
p6409
S'13'
p6410
sS'Conv'
p6411
S'0'
sS'Tries'
p6412
S'4'
sS'Pts'
p6413
S'20'
p6414
sa(dp6415
S'Pens'
p6416
S'0'
sS'Sub'
p6417
S'0'
sS'Lost'
p6418
S'3'
sS'Drop'
p6419
S'0'
sS'Start'
p6420
S'4'
sS'Won'
p6421
S'1'
sS'Draw'
p6422
S'0'
sS'%'
S'25.00'
p6423
sS'Mat'
p6424
S'4'
sS'Conv'
p6425
S'0'
sS'Tries'
p6426
S'0'
sS'Pts'
p6427
S'0'
sa(dp6428
S'Pens'
p6429
S'0'
sS'Sub'
p6430
S'4'
sS'Lost'
p6431
S'23'
p6432
sS'Drop'
p6433
S'0'
sS'Start'
p6434
S'45'
p6435
sS'Won'
p6436
S'26'
p6437
sS'Draw'
p6438
S'0'
sS'%'
S'53.06'
p6439
sS'Mat'
p6440
S'49'
p6441
sS'Conv'
p6442
S'0'
sS'Tries'
p6443
S'3'
sS'Pts'
p6444
S'15'
p6445
sa(dp6446
S'Pens'
p6447
S'0'
sS'Sub'
p6448
S'0'
sS'Lost'
p6449
S'3'
sS'Drop'
p6450
S'0'
sS'Start'
p6451
S'4'
sS'Won'
p6452
S'1'
sS'Draw'
p6453
S'0'
sS'%'
S'25.00'
p6454
sS'Mat'
p6455
S'4'
sS'Conv'
p6456
S'0'
sS'Tries'
p6457
S'0'
sS'Pts'
p6458
S'0'
sa(dp6459
S'Pens'
p6460
S'0'
sS'Sub'
p6461
S'1'
sS'Lost'
p6462
S'3'
sS'Drop'
p6463
S'0'
sS'Start'
p6464
S'3'
sS'Won'
p6465
S'1'
sS'Draw'
p6466
S'0'
sS'%'
S'25.00'
p6467
sS'Mat'
p6468
S'4'
sS'Conv'
p6469
S'0'
sS'Tries'
p6470
S'0'
sS'Pts'
p6471
S'0'
sa(dp6472
S'Pens'
p6473
S'0'
sS'Sub'
p6474
S'0'
sS'Lost'
p6475
S'4'
sS'Drop'
p6476
S'0'
sS'Start'
p6477
S'5'
sS'Won'
p6478
S'1'
sS'Draw'
p6479
S'0'
sS'%'
S'20.00'
p6480
sS'Mat'
p6481
S'5'
sS'Conv'
p6482
S'0'
sS'Tries'
p6483
S'1'
sS'Pts'
p6484
S'5'
sa(dp6485
S'Pens'
p6486
S'0'
sS'Sub'
p6487
S'2'
sS'Lost'
p6488
S'8'
sS'Drop'
p6489
S'0'
sS'Start'
p6490
S'14'
p6491
sS'Won'
p6492
S'8'
sS'Draw'
p6493
S'0'
sS'%'
S'50.00'
p6494
sS'Mat'
p6495
S'16'
p6496
sS'Conv'
p6497
S'0'
sS'Tries'
p6498
S'1'
sS'Pts'
p6499
S'5'
sa(dp6500
S'Pens'
p6501
S'0'
sS'Sub'
p6502
S'4'
sS'Lost'
p6503
S'13'
p6504
sS'Drop'
p6505
S'0'
sS'Start'
p6506
S'24'
p6507
sS'Won'
p6508
S'15'
p6509
sS'Draw'
p6510
S'0'
sS'%'
S'53.57'
p6511
sS'Mat'
p6512
S'28'
p6513
sS'Conv'
p6514
S'0'
sS'Tries'
p6515
S'1'
sS'Pts'
p6516
S'5'
sa(dp6517
S'Pens'
p6518
S'0'
sS'Sub'
p6519
S'2'
sS'Lost'
p6520
S'11'
p6521
sS'Drop'
p6522
S'0'
sS'Start'
p6523
S'17'
p6524
sS'Won'
p6525
S'8'
sS'Draw'
p6526
S'0'
sS'%'
S'42.10'
p6527
sS'Mat'
p6528
S'19'
p6529
sS'Conv'
p6530
S'0'
sS'Tries'
p6531
S'2'
sS'Pts'
p6532
S'10'
p6533
sa(dp6534
S'Pens'
p6535
S'0'
sS'Sub'
p6536
S'9'
sS'Lost'
p6537
S'23'
p6538
sS'Drop'
p6539
S'0'
sS'Start'
p6540
S'39'
p6541
sS'Won'
p6542
S'25'
p6543
sS'Draw'
p6544
S'0'
sS'%'
S'52.08'
p6545
sS'Mat'
p6546
S'48'
p6547
sS'Conv'
p6548
S'0'
sS'Tries'
p6549
S'4'
sS'Pts'
p6550
S'20'
p6551
sa(dp6552
S'Pens'
p6553
S'0'
sS'Sub'
p6554
S'9'
sS'Lost'
p6555
S'23'
p6556
sS'Drop'
p6557
S'0'
sS'Start'
p6558
S'40'
p6559
sS'Won'
p6560
S'26'
p6561
sS'Draw'
p6562
S'0'
sS'%'
S'53.06'
p6563
sS'Mat'
p6564
S'49'
p6565
sS'Conv'
p6566
S'0'
sS'Tries'
p6567
S'6'
sS'Pts'
p6568
S'30'
p6569
sa(dp6570
S'Pens'
p6571
S'0'
sS'Sub'
p6572
S'4'
sS'Lost'
p6573
S'9'
sS'Drop'
p6574
S'0'
sS'Start'
p6575
S'14'
p6576
sS'Won'
p6577
S'9'
sS'Draw'
p6578
S'0'
sS'%'
S'50.00'
p6579
sS'Mat'
p6580
S'18'
p6581
sS'Conv'
p6582
S'0'
sS'Tries'
p6583
S'12'
p6584
sS'Pts'
p6585
S'60'
p6586
sa(dp6587
S'Pens'
p6588
S'0'
sS'Sub'
p6589
S'8'
sS'Lost'
p6590
S'14'
p6591
sS'Drop'
p6592
S'0'
sS'Start'
p6593
S'19'
p6594
sS'Won'
p6595
S'13'
p6596
sS'Draw'
p6597
S'0'
sS'%'
S'48.14'
p6598
sS'Mat'
p6599
S'27'
p6600
sS'Conv'
p6601
S'0'
sS'Tries'
p6602
S'0'
sS'Pts'
p6603
S'0'
sa(dp6604
S'Pens'
p6605
S'0'
sS'Sub'
p6606
S'1'
sS'Lost'
p6607
S'4'
sS'Drop'
p6608
S'0'
sS'Start'
p6609
S'4'
sS'Won'
p6610
S'1'
sS'Draw'
p6611
S'0'
sS'%'
S'20.00'
p6612
sS'Mat'
p6613
S'5'
sS'Conv'
p6614
S'0'
sS'Tries'
p6615
S'1'
sS'Pts'
p6616
S'5'
sa(dp6617
S'Pens'
p6618
S'0'
sS'Sub'
p6619
S'0'
sS'Lost'
p6620
S'20'
p6621
sS'Drop'
p6622
S'0'
sS'Start'
p6623
S'44'
p6624
sS'Won'
p6625
S'24'
p6626
sS'Draw'
p6627
S'0'
sS'%'
S'54.54'
p6628
sS'Mat'
p6629
S'44'
p6630
sS'Conv'
p6631
S'0'
sS'Tries'
p6632
S'1'
sS'Pts'
p6633
S'5'
sa(dp6634
S'Pens'
p6635
S'0'
sS'Sub'
p6636
S'0'
sS'Lost'
p6637
S'5'
sS'Drop'
p6638
S'0'
sS'Start'
p6639
S'8'
sS'Won'
p6640
S'3'
sS'Draw'
p6641
S'0'
sS'%'
S'37.50'
p6642
sS'Mat'
p6643
S'8'
sS'Conv'
p6644
S'0'
sS'Tries'
p6645
S'0'
sS'Pts'
p6646
S'0'
sa(dp6647
S'Pens'
p6648
S'2'
sS'Sub'
p6649
S'2'
sS'Lost'
p6650
S'9'
sS'Drop'
p6651
S'0'
sS'Start'
p6652
S'15'
p6653
sS'Won'
p6654
S'8'
sS'Draw'
p6655
S'0'
sS'%'
S'47.05'
p6656
sS'Mat'
p6657
S'17'
p6658
sS'Conv'
p6659
S'1'
sS'Tries'
p6660
S'4'
sS'Pts'
p6661
S'28'
p6662
sa(dp6663
S'Pens'
p6664
S'0'
sS'Sub'
p6665
S'1'
sS'Lost'
p6666
S'2'
sS'Drop'
p6667
S'0'
sS'Start'
p6668
S'3'
sS'Won'
p6669
S'2'
sS'Draw'
p6670
S'0'
sS'%'
S'50.00'
p6671
sS'Mat'
p6672
S'4'
sS'Conv'
p6673
S'0'
sS'Tries'
p6674
S'1'
sS'Pts'
p6675
S'5'
sa(dp6676
S'Pens'
p6677
S'140'
p6678
sS'Sub'
p6679
S'11'
p6680
sS'Lost'
p6681
S'34'
p6682
sS'Drop'
p6683
S'2'
sS'Start'
p6684
S'60'
p6685
sS'Won'
p6686
S'37'
p6687
sS'Draw'
p6688
S'0'
sS'%'
S'52.11'
p6689
sS'Mat'
p6690
S'71'
p6691
sS'Conv'
p6692
S'117'
p6693
sS'Tries'
p6694
S'2'
sS'Pts'
p6695
S'670'
p6696
sa(dp6697
S'Pens'
p6698
S'0'
sS'Sub'
p6699
S'1'
sS'Lost'
p6700
S'9'
sS'Drop'
p6701
S'0'
sS'Start'
p6702
S'18'
p6703
sS'Won'
p6704
S'10'
p6705
sS'Draw'
p6706
S'0'
sS'%'
S'52.63'
p6707
sS'Mat'
p6708
S'19'
p6709
sS'Conv'
p6710
S'0'
sS'Tries'
p6711
S'13'
p6712
sS'Pts'
p6713
S'65'
p6714
sa(dp6715
S'Pens'
p6716
S'0'
sS'Sub'
p6717
S'5'
sS'Lost'
p6718
S'13'
p6719
sS'Drop'
p6720
S'0'
sS'Start'
p6721
S'25'
p6722
sS'Won'
p6723
S'17'
p6724
sS'Draw'
p6725
S'0'
sS'%'
S'56.66'
p6726
sS'Mat'
p6727
S'30'
p6728
sS'Conv'
p6729
S'1'
sS'Tries'
p6730
S'6'
sS'Pts'
p6731
S'32'
p6732
sa(dp6733
S'Pens'
p6734
S'0'
sS'Sub'
p6735
S'0'
sS'Lost'
p6736
S'0'
sS'Drop'
p6737
S'0'
sS'Start'
p6738
S'2'
sS'Won'
p6739
S'2'
sS'Draw'
p6740
S'0'
sS'%'
S'100.00'
p6741
sS'Mat'
p6742
S'2'
sS'Conv'
p6743
S'0'
sS'Tries'
p6744
S'1'
sS'Pts'
p6745
S'5'
sa(dp6746
S'Pens'
p6747
S'0'
sS'Sub'
p6748
S'2'
sS'Lost'
p6749
S'14'
p6750
sS'Drop'
p6751
S'0'
sS'Start'
p6752
S'32'
p6753
sS'Won'
p6754
S'20'
p6755
sS'Draw'
p6756
S'0'
sS'%'
S'58.82'
p6757
sS'Mat'
p6758
S'34'
p6759
sS'Conv'
p6760
S'0'
sS'Tries'
p6761
S'6'
sS'Pts'
p6762
S'30'
p6763
sa(dp6764
S'Pens'
p6765
S'0'
sS'Sub'
p6766
S'2'
sS'Lost'
p6767
S'4'
sS'Drop'
p6768
S'0'
sS'Start'
p6769
S'8'
sS'Won'
p6770
S'6'
sS'Draw'
p6771
S'0'
sS'%'
S'60.00'
p6772
sS'Mat'
p6773
S'10'
p6774
sS'Conv'
p6775
S'0'
sS'Tries'
p6776
S'0'
sS'Pts'
p6777
S'0'
sa(dp6778
S'Pens'
p6779
S'0'
sS'Sub'
p6780
S'1'
sS'Lost'
p6781
S'0'
sS'Drop'
p6782
S'0'
sS'Start'
p6783
S'1'
sS'Won'
p6784
S'2'
sS'Draw'
p6785
S'0'
sS'%'
S'100.00'
p6786
sS'Mat'
p6787
S'2'
sS'Conv'
p6788
S'0'
sS'Tries'
p6789
S'1'
sS'Pts'
p6790
S'5'
sa(dp6791
S'Pens'
p6792
S'0'
sS'Sub'
p6793
S'1'
sS'Lost'
p6794
S'1'
sS'Drop'
p6795
S'0'
sS'Start'
p6796
S'1'
sS'Won'
p6797
S'1'
sS'Draw'
p6798
S'0'
sS'%'
S'50.00'
p6799
sS'Mat'
p6800
S'2'
sS'Conv'
p6801
S'0'
sS'Tries'
p6802
S'1'
sS'Pts'
p6803
S'5'
sa(dp6804
S'Pens'
p6805
S'0'
sS'Sub'
p6806
S'0'
sS'Lost'
p6807
S'0'
sS'Drop'
p6808
S'0'
sS'Start'
p6809
S'1'
sS'Won'
p6810
S'1'
sS'Draw'
p6811
S'0'
sS'%'
S'100.00'
p6812
sS'Mat'
p6813
S'1'
sS'Conv'
p6814
S'0'
sS'Tries'
p6815
S'0'
sS'Pts'
p6816
S'0'
sa(dp6817
S'Pens'
p6818
S'0'
sS'Sub'
p6819
S'0'
sS'Lost'
p6820
S'0'
sS'Drop'
p6821
S'0'
sS'Start'
p6822
S'1'
sS'Won'
p6823
S'1'
sS'Draw'
p6824
S'0'
sS'%'
S'100.00'
p6825
sS'Mat'
p6826
S'1'
sS'Conv'
p6827
S'0'
sS'Tries'
p6828
S'0'
sS'Pts'
p6829
S'0'
sa(dp6830
S'Pens'
p6831
S'0'
sS'Sub'
p6832
S'9'
sS'Lost'
p6833
S'29'
p6834
sS'Drop'
p6835
S'0'
sS'Start'
p6836
S'44'
p6837
sS'Won'
p6838
S'24'
p6839
sS'Draw'
p6840
S'0'
sS'%'
S'45.28'
p6841
sS'Mat'
p6842
S'53'
p6843
sS'Conv'
p6844
S'0'
sS'Tries'
p6845
S'4'
sS'Pts'
p6846
S'20'
p6847
sa(dp6848
S'Pens'
p6849
S'0'
sS'Sub'
p6850
S'3'
sS'Lost'
p6851
S'12'
p6852
sS'Drop'
p6853
S'0'
sS'Start'
p6854
S'20'
p6855
sS'Won'
p6856
S'11'
p6857
sS'Draw'
p6858
S'0'
sS'%'
S'47.82'
p6859
sS'Mat'
p6860
S'23'
p6861
sS'Conv'
p6862
S'0'
sS'Tries'
p6863
S'16'
p6864
sS'Pts'
p6865
S'80'
p6866
sa(dp6867
S'Pens'
p6868
S'0'
sS'Sub'
p6869
S'0'
sS'Lost'
p6870
S'2'
sS'Drop'
p6871
S'0'
sS'Start'
p6872
S'4'
sS'Won'
p6873
S'2'
sS'Draw'
p6874
S'0'
sS'%'
S'50.00'
p6875
sS'Mat'
p6876
S'4'
sS'Conv'
p6877
S'0'
sS'Tries'
p6878
S'0'
sS'Pts'
p6879
S'0'
sa(dp6880
S'Pens'
p6881
S'0'
sS'Sub'
p6882
S'2'
sS'Lost'
p6883
S'20'
p6884
sS'Drop'
p6885
S'0'
sS'Start'
p6886
S'44'
p6887
sS'Won'
p6888
S'26'
p6889
sS'Draw'
p6890
S'0'
sS'%'
S'56.52'
p6891
sS'Mat'
p6892
S'46'
p6893
sS'Conv'
p6894
S'0'
sS'Tries'
p6895
S'4'
sS'Pts'
p6896
S'20'
p6897
sa(dp6898
S'Pens'
p6899
S'0'
sS'Sub'
p6900
S'1'
sS'Lost'
p6901
S'2'
sS'Drop'
p6902
S'0'
sS'Start'
p6903
S'2'
sS'Won'
p6904
S'1'
sS'Draw'
p6905
S'0'
sS'%'
S'33.33'
p6906
sS'Mat'
p6907
S'3'
sS'Conv'
p6908
S'0'
sS'Tries'
p6909
S'0'
sS'Pts'
p6910
S'0'
sa(dp6911
S'Pens'
p6912
S'0'
sS'Sub'
p6913
S'1'
sS'Lost'
p6914
S'0'
sS'Drop'
p6915
S'0'
sS'Start'
p6916
S'0'
sS'Won'
p6917
S'1'
sS'Draw'
p6918
S'0'
sS'%'
S'100.00'
p6919
sS'Mat'
p6920
S'1'
sS'Conv'
p6921
S'0'
sS'Tries'
p6922
S'0'
sS'Pts'
p6923
S'0'
sa(dp6924
S'Pens'
p6925
S'0'
sS'Sub'
p6926
S'1'
sS'Lost'
p6927
S'1'
sS'Drop'
p6928
S'0'
sS'Start'
p6929
S'2'
sS'Won'
p6930
S'2'
sS'Draw'
p6931
S'0'
sS'%'
S'66.66'
p6932
sS'Mat'
p6933
S'3'
sS'Conv'
p6934
S'0'
sS'Tries'
p6935
S'0'
sS'Pts'
p6936
S'0'
sa(dp6937
S'Pens'
p6938
S'0'
sS'Sub'
p6939
S'4'
sS'Lost'
p6940
S'3'
sS'Drop'
p6941
S'0'
sS'Start'
p6942
S'5'
sS'Won'
p6943
S'6'
sS'Draw'
p6944
S'0'
sS'%'
S'66.66'
p6945
sS'Mat'
p6946
S'9'
sS'Conv'
p6947
S'0'
sS'Tries'
p6948
S'1'
sS'Pts'
p6949
S'5'
sa(dp6950
S'Pens'
p6951
S'0'
sS'Sub'
p6952
S'3'
sS'Lost'
p6953
S'5'
sS'Drop'
p6954
S'0'
sS'Start'
p6955
S'12'
p6956
sS'Won'
p6957
S'10'
p6958
sS'Draw'
p6959
S'0'
sS'%'
S'66.66'
p6960
sS'Mat'
p6961
S'15'
p6962
sS'Conv'
p6963
S'0'
sS'Tries'
p6964
S'1'
sS'Pts'
p6965
S'5'
sa(dp6966
S'Pens'
p6967
S'0'
sS'Sub'
p6968
S'1'
sS'Lost'
p6969
S'0'
sS'Drop'
p6970
S'0'
sS'Start'
p6971
S'0'
sS'Won'
p6972
S'1'
sS'Draw'
p6973
S'0'
sS'%'
S'100.00'
p6974
sS'Mat'
p6975
S'1'
sS'Conv'
p6976
S'0'
sS'Tries'
p6977
S'0'
sS'Pts'
p6978
S'0'
sa(dp6979
S'Pens'
p6980
S'0'
sS'Sub'
p6981
S'2'
sS'Lost'
p6982
S'15'
p6983
sS'Drop'
p6984
S'0'
sS'Start'
p6985
S'27'
p6986
sS'Won'
p6987
S'14'
p6988
sS'Draw'
p6989
S'0'
sS'%'
S'48.27'
p6990
sS'Mat'
p6991
S'29'
p6992
sS'Conv'
p6993
S'0'
sS'Tries'
p6994
S'16'
p6995
sS'Pts'
p6996
S'80'
p6997
sa(dp6998
S'Pens'
p6999
S'0'
sS'Sub'
p7000
S'7'
sS'Lost'
p7001
S'10'
p7002
sS'Drop'
p7003
S'0'
sS'Start'
p7004
S'17'
p7005
sS'Won'
p7006
S'14'
p7007
sS'Draw'
p7008
S'0'
sS'%'
S'58.33'
p7009
sS'Mat'
p7010
S'24'
p7011
sS'Conv'
p7012
S'0'
sS'Tries'
p7013
S'3'
sS'Pts'
p7014
S'15'
p7015
sa(dp7016
S'Pens'
p7017
S'0'
sS'Sub'
p7018
S'2'
sS'Lost'
p7019
S'4'
sS'Drop'
p7020
S'0'
sS'Start'
p7021
S'10'
p7022
sS'Won'
p7023
S'8'
sS'Draw'
p7024
S'0'
sS'%'
S'66.66'
p7025
sS'Mat'
p7026
S'12'
p7027
sS'Conv'
p7028
S'0'
sS'Tries'
p7029
S'2'
sS'Pts'
p7030
S'10'
p7031
sa(dp7032
S'Pens'
p7033
S'0'
sS'Sub'
p7034
S'2'
sS'Lost'
p7035
S'6'
sS'Drop'
p7036
S'0'
sS'Start'
p7037
S'15'
p7038
sS'Won'
p7039
S'11'
p7040
sS'Draw'
p7041
S'0'
sS'%'
S'64.70'
p7042
sS'Mat'
p7043
S'17'
p7044
sS'Conv'
p7045
S'0'
sS'Tries'
p7046
S'8'
sS'Pts'
p7047
S'40'
p7048
sa(dp7049
S'Pens'
p7050
S'0'
sS'Sub'
p7051
S'0'
sS'Lost'
p7052
S'4'
sS'Drop'
p7053
S'0'
sS'Start'
p7054
S'11'
p7055
sS'Won'
p7056
S'7'
sS'Draw'
p7057
S'0'
sS'%'
S'63.63'
p7058
sS'Mat'
p7059
S'11'
p7060
sS'Conv'
p7061
S'0'
sS'Tries'
p7062
S'9'
sS'Pts'
p7063
S'45'
p7064
sa(dp7065
S'Pens'
p7066
S'0'
sS'Sub'
p7067
S'6'
sS'Lost'
p7068
S'7'
sS'Drop'
p7069
S'0'
sS'Start'
p7070
S'11'
p7071
sS'Won'
p7072
S'10'
p7073
sS'Draw'
p7074
S'0'
sS'%'
S'58.82'
p7075
sS'Mat'
p7076
S'17'
p7077
sS'Conv'
p7078
S'0'
sS'Tries'
p7079
S'3'
sS'Pts'
p7080
S'15'
p7081
sa(dp7082
S'Pens'
p7083
S'0'
sS'Sub'
p7084
S'0'
sS'Lost'
p7085
S'1'
sS'Drop'
p7086
S'0'
sS'Start'
p7087
S'1'
sS'Won'
p7088
S'0'
sS'Draw'
p7089
S'0'
sS'%'
S'0.00'
p7090
sS'Mat'
p7091
S'1'
sS'Conv'
p7092
S'0'
sS'Tries'
p7093
S'1'
sS'Pts'
p7094
S'5'
sa(dp7095
S'Pens'
p7096
S'0'
sS'Sub'
p7097
S'0'
sS'Lost'
p7098
S'1'
sS'Drop'
p7099
S'0'
sS'Start'
p7100
S'2'
sS'Won'
p7101
S'1'
sS'Draw'
p7102
S'0'
sS'%'
S'50.00'
p7103
sS'Mat'
p7104
S'2'
sS'Conv'
p7105
S'0'
sS'Tries'
p7106
S'0'
sS'Pts'
p7107
S'0'
sa(dp7108
S'Pens'
p7109
S'0'
sS'Sub'
p7110
S'5'
sS'Lost'
p7111
S'5'
sS'Drop'
p7112
S'0'
sS'Start'
p7113
S'8'
sS'Won'
p7114
S'8'
sS'Draw'
p7115
S'0'
sS'%'
S'61.53'
p7116
sS'Mat'
p7117
S'13'
p7118
sS'Conv'
p7119
S'0'
sS'Tries'
p7120
S'0'
sS'Pts'
p7121
S'0'
sa(dp7122
S'Pens'
p7123
S'0'
sS'Sub'
p7124
S'9'
sS'Lost'
p7125
S'20'
p7126
sS'Drop'
p7127
S'0'
sS'Start'
p7128
S'33'
p7129
sS'Won'
p7130
S'22'
p7131
sS'Draw'
p7132
S'0'
sS'%'
S'52.38'
p7133
sS'Mat'
p7134
S'42'
p7135
sS'Conv'
p7136
S'0'
sS'Tries'
p7137
S'5'
sS'Pts'
p7138
S'25'
p7139
sa(dp7140
S'Pens'
p7141
S'0'
sS'Sub'
p7142
S'2'
sS'Lost'
p7143
S'1'
sS'Drop'
p7144
S'0'
sS'Start'
p7145
S'3'
sS'Won'
p7146
S'4'
sS'Draw'
p7147
S'0'
sS'%'
S'80.00'
p7148
sS'Mat'
p7149
S'5'
sS'Conv'
p7150
S'0'
sS'Tries'
p7151
S'1'
sS'Pts'
p7152
S'5'
sa(dp7153
S'Pens'
p7154
S'0'
sS'Sub'
p7155
S'1'
sS'Lost'
p7156
S'2'
sS'Drop'
p7157
S'0'
sS'Start'
p7158
S'5'
sS'Won'
p7159
S'4'
sS'Draw'
p7160
S'0'
sS'%'
S'66.66'
p7161
sS'Mat'
p7162
S'6'
sS'Conv'
p7163
S'0'
sS'Tries'
p7164
S'0'
sS'Pts'
p7165
S'0'
sa(dp7166
S'Pens'
p7167
S'0'
sS'Sub'
p7168
S'2'
sS'Lost'
p7169
S'2'
sS'Drop'
p7170
S'0'
sS'Start'
p7171
S'8'
sS'Won'
p7172
S'8'
sS'Draw'
p7173
S'0'
sS'%'
S'80.00'
p7174
sS'Mat'
p7175
S'10'
p7176
sS'Conv'
p7177
S'0'
sS'Tries'
p7178
S'1'
sS'Pts'
p7179
S'5'
sa(dp7180
S'Pens'
p7181
S'0'
sS'Sub'
p7182
S'0'
sS'Lost'
p7183
S'1'
sS'Drop'
p7184
S'0'
sS'Start'
p7185
S'2'
sS'Won'
p7186
S'1'
sS'Draw'
p7187
S'0'
sS'%'
S'50.00'
p7188
sS'Mat'
p7189
S'2'
sS'Conv'
p7190
S'0'
sS'Tries'
p7191
S'0'
sS'Pts'
p7192
S'0'
sa(dp7193
S'Pens'
p7194
S'60'
p7195
sS'Sub'
p7196
S'6'
sS'Lost'
p7197
S'30'
p7198
sS'Drop'
p7199
S'1'
sS'Start'
p7200
S'51'
p7201
sS'Won'
p7202
S'26'
p7203
sS'Draw'
p7204
S'1'
sS'%'
S'46.49'
p7205
sS'Mat'
p7206
S'57'
p7207
sS'Conv'
p7208
S'61'
p7209
sS'Tries'
p7210
S'5'
sS'Pts'
p7211
S'330'
p7212
sa(dp7213
S'Pens'
p7214
S'0'
sS'Sub'
p7215
S'8'
sS'Lost'
p7216
S'3'
sS'Drop'
p7217
S'0'
sS'Start'
p7218
S'2'
sS'Won'
p7219
S'7'
sS'Draw'
p7220
S'0'
sS'%'
S'70.00'
p7221
sS'Mat'
p7222
S'10'
p7223
sS'Conv'
p7224
S'0'
sS'Tries'
p7225
S'0'
sS'Pts'
p7226
S'0'
sa(dp7227
S'Pens'
p7228
S'0'
sS'Sub'
p7229
S'11'
p7230
sS'Lost'
p7231
S'10'
p7232
sS'Drop'
p7233
S'0'
sS'Start'
p7234
S'9'
sS'Won'
p7235
S'10'
p7236
sS'Draw'
p7237
S'0'
sS'%'
S'50.00'
p7238
sS'Mat'
p7239
S'20'
p7240
sS'Conv'
p7241
S'0'
sS'Tries'
p7242
S'1'
sS'Pts'
p7243
S'5'
sa(dp7244
S'Pens'
p7245
S'0'
sS'Sub'
p7246
S'1'
sS'Lost'
p7247
S'0'
sS'Drop'
p7248
S'0'
sS'Start'
p7249
S'1'
sS'Won'
p7250
S'2'
sS'Draw'
p7251
S'0'
sS'%'
S'100.00'
p7252
sS'Mat'
p7253
S'2'
sS'Conv'
p7254
S'0'
sS'Tries'
p7255
S'0'
sS'Pts'
p7256
S'0'
sa(dp7257
S'Pens'
p7258
S'0'
sS'Sub'
p7259
S'10'
p7260
sS'Lost'
p7261
S'21'
p7262
sS'Drop'
p7263
S'0'
sS'Start'
p7264
S'29'
p7265
sS'Won'
p7266
S'18'
p7267
sS'Draw'
p7268
S'0'
sS'%'
S'46.15'
p7269
sS'Mat'
p7270
S'39'
p7271
sS'Conv'
p7272
S'2'
sS'Tries'
p7273
S'5'
sS'Pts'
p7274
S'29'
p7275
sa(dp7276
S'Pens'
p7277
S'0'
sS'Sub'
p7278
S'2'
sS'Lost'
p7279
S'1'
sS'Drop'
p7280
S'0'
sS'Start'
p7281
S'0'
sS'Won'
p7282
S'1'
sS'Draw'
p7283
S'0'
sS'%'
S'50.00'
p7284
sS'Mat'
p7285
S'2'
sS'Conv'
p7286
S'0'
sS'Tries'
p7287
S'0'
sS'Pts'
p7288
S'0'
sa(dp7289
S'Pens'
p7290
S'0'
sS'Sub'
p7291
S'8'
sS'Lost'
p7292
S'27'
p7293
sS'Drop'
p7294
S'0'
sS'Start'
p7295
S'44'
p7296
sS'Won'
p7297
S'25'
p7298
sS'Draw'
p7299
S'0'
sS'%'
S'48.07'
p7300
sS'Mat'
p7301
S'52'
p7302
sS'Conv'
p7303
S'0'
sS'Tries'
p7304
S'16'
p7305
sS'Pts'
p7306
S'80'
p7307
sa(dp7308
S'Pens'
p7309
S'0'
sS'Sub'
p7310
S'5'
sS'Lost'
p7311
S'1'
sS'Drop'
p7312
S'0'
sS'Start'
p7313
S'0'
sS'Won'
p7314
S'4'
sS'Draw'
p7315
S'0'
sS'%'
S'80.00'
p7316
sS'Mat'
p7317
S'5'
sS'Conv'
p7318
S'0'
sS'Tries'
p7319
S'0'
sS'Pts'
p7320
S'0'
sa(dp7321
S'Pens'
p7322
S'0'
sS'Sub'
p7323
S'1'
sS'Lost'
p7324
S'16'
p7325
sS'Drop'
p7326
S'0'
sS'Start'
p7327
S'31'
p7328
sS'Won'
p7329
S'16'
p7330
sS'Draw'
p7331
S'0'
sS'%'
S'50.00'
p7332
sS'Mat'
p7333
S'32'
p7334
sS'Conv'
p7335
S'0'
sS'Tries'
p7336
S'13'
p7337
sS'Pts'
p7338
S'65'
p7339
sa(dp7340
S'Pens'
p7341
S'0'
sS'Sub'
p7342
S'2'
sS'Lost'
p7343
S'1'
sS'Drop'
p7344
S'0'
sS'Start'
p7345
S'4'
sS'Won'
p7346
S'5'
sS'Draw'
p7347
S'0'
sS'%'
S'83.33'
p7348
sS'Mat'
p7349
S'6'
sS'Conv'
p7350
S'0'
sS'Tries'
p7351
S'3'
sS'Pts'
p7352
S'15'
p7353
sa(dp7354
S'Pens'
p7355
S'0'
sS'Sub'
p7356
S'3'
sS'Lost'
p7357
S'8'
sS'Drop'
p7358
S'0'
sS'Start'
p7359
S'15'
p7360
sS'Won'
p7361
S'10'
p7362
sS'Draw'
p7363
S'0'
sS'%'
S'55.55'
p7364
sS'Mat'
p7365
S'18'
p7366
sS'Conv'
p7367
S'0'
sS'Tries'
p7368
S'0'
sS'Pts'
p7369
S'0'
sa(dp7370
S'Pens'
p7371
S'0'
sS'Sub'
p7372
S'1'
sS'Lost'
p7373
S'0'
sS'Drop'
p7374
S'0'
sS'Start'
p7375
S'0'
sS'Won'
p7376
S'1'
sS'Draw'
p7377
S'0'
sS'%'
S'100.00'
p7378
sS'Mat'
p7379
S'1'
sS'Conv'
p7380
S'0'
sS'Tries'
p7381
S'0'
sS'Pts'
p7382
S'0'
sa(dp7383
S'Pens'
p7384
S'0'
sS'Sub'
p7385
S'3'
sS'Lost'
p7386
S'3'
sS'Drop'
p7387
S'0'
sS'Start'
p7388
S'7'
sS'Won'
p7389
S'7'
sS'Draw'
p7390
S'0'
sS'%'
S'70.00'
p7391
sS'Mat'
p7392
S'10'
p7393
sS'Conv'
p7394
S'0'
sS'Tries'
p7395
S'0'
sS'Pts'
p7396
S'0'
sa(dp7397
S'Pens'
p7398
S'0'
sS'Sub'
p7399
S'0'
sS'Lost'
p7400
S'1'
sS'Drop'
p7401
S'0'
sS'Start'
p7402
S'1'
sS'Won'
p7403
S'0'
sS'Draw'
p7404
S'0'
sS'%'
S'0.00'
p7405
sS'Mat'
p7406
S'1'
sS'Conv'
p7407
S'0'
sS'Tries'
p7408
S'0'
sS'Pts'
p7409
S'0'
sa(dp7410
S'Pens'
p7411
S'0'
sS'Sub'
p7412
S'3'
sS'Lost'
p7413
S'2'
sS'Drop'
p7414
S'0'
sS'Start'
p7415
S'1'
sS'Won'
p7416
S'2'
sS'Draw'
p7417
S'0'
sS'%'
S'50.00'
p7418
sS'Mat'
p7419
S'4'
sS'Conv'
p7420
S'0'
sS'Tries'
p7421
S'0'
sS'Pts'
p7422
S'0'
sa(dp7423
S'Pens'
p7424
S'0'
sS'Sub'
p7425
S'12'
p7426
sS'Lost'
p7427
S'30'
p7428
sS'Drop'
p7429
S'0'
sS'Start'
p7430
S'41'
p7431
sS'Won'
p7432
S'22'
p7433
sS'Draw'
p7434
S'1'
sS'%'
S'42.45'
p7435
sS'Mat'
p7436
S'53'
p7437
sS'Conv'
p7438
S'0'
sS'Tries'
p7439
S'3'
sS'Pts'
p7440
S'15'
p7441
sa(dp7442
S'Pens'
p7443
S'0'
sS'Sub'
p7444
S'0'
sS'Lost'
p7445
S'0'
sS'Drop'
p7446
S'0'
sS'Start'
p7447
S'3'
sS'Won'
p7448
S'3'
sS'Draw'
p7449
S'0'
sS'%'
S'100.00'
p7450
sS'Mat'
p7451
S'3'
sS'Conv'
p7452
S'0'
sS'Tries'
p7453
S'0'
sS'Pts'
p7454
S'0'
sa(dp7455
S'Pens'
p7456
S'0'
sS'Sub'
p7457
S'1'
sS'Lost'
p7458
S'0'
sS'Drop'
p7459
S'0'
sS'Start'
p7460
S'0'
sS'Won'
p7461
S'1'
sS'Draw'
p7462
S'0'
sS'%'
S'100.00'
p7463
sS'Mat'
p7464
S'1'
sS'Conv'
p7465
S'0'
sS'Tries'
p7466
S'0'
sS'Pts'
p7467
S'0'
sa(dp7468
S'Pens'
p7469
S'0'
sS'Sub'
p7470
S'1'
sS'Lost'
p7471
S'0'
sS'Drop'
p7472
S'0'
sS'Start'
p7473
S'0'
sS'Won'
p7474
S'1'
sS'Draw'
p7475
S'0'
sS'%'
S'100.00'
p7476
sS'Mat'
p7477
S'1'
sS'Conv'
p7478
S'0'
sS'Tries'
p7479
S'0'
sS'Pts'
p7480
S'0'
sa(dp7481
S'Pens'
p7482
S'0'
sS'Sub'
p7483
S'0'
sS'Lost'
p7484
S'2'
sS'Drop'
p7485
S'0'
sS'Start'
p7486
S'2'
sS'Won'
p7487
S'0'
sS'Draw'
p7488
S'0'
sS'%'
S'0.00'
p7489
sS'Mat'
p7490
S'2'
sS'Conv'
p7491
S'0'
sS'Tries'
p7492
S'0'
sS'Pts'
p7493
S'0'
sa(dp7494
S'Pens'
p7495
S'0'
sS'Sub'
p7496
S'0'
sS'Lost'
p7497
S'8'
sS'Drop'
p7498
S'0'
sS'Start'
p7499
S'13'
p7500
sS'Won'
p7501
S'5'
sS'Draw'
p7502
S'0'
sS'%'
S'38.46'
p7503
sS'Mat'
p7504
S'13'
p7505
sS'Conv'
p7506
S'0'
sS'Tries'
p7507
S'0'
sS'Pts'
p7508
S'0'
sa(dp7509
S'Pens'
p7510
S'0'
sS'Sub'
p7511
S'4'
sS'Lost'
p7512
S'5'
sS'Drop'
p7513
S'0'
sS'Start'
p7514
S'7'
sS'Won'
p7515
S'6'
sS'Draw'
p7516
S'0'
sS'%'
S'54.54'
p7517
sS'Mat'
p7518
S'11'
p7519
sS'Conv'
p7520
S'0'
sS'Tries'
p7521
S'0'
sS'Pts'
p7522
S'0'
sa(dp7523
S'Pens'
p7524
S'0'
sS'Sub'
p7525
S'0'
sS'Lost'
p7526
S'1'
sS'Drop'
p7527
S'0'
sS'Start'
p7528
S'1'
sS'Won'
p7529
S'0'
sS'Draw'
p7530
S'0'
sS'%'
S'0.00'
p7531
sS'Mat'
p7532
S'1'
sS'Conv'
p7533
S'0'
sS'Tries'
p7534
S'0'
sS'Pts'
p7535
S'0'
sa(dp7536
S'Pens'
p7537
S'0'
sS'Sub'
p7538
S'2'
sS'Lost'
p7539
S'7'
sS'Drop'
p7540
S'0'
sS'Start'
p7541
S'11'
p7542
sS'Won'
p7543
S'6'
sS'Draw'
p7544
S'0'
sS'%'
S'46.15'
p7545
sS'Mat'
p7546
S'13'
p7547
sS'Conv'
p7548
S'0'
sS'Tries'
p7549
S'0'
sS'Pts'
p7550
S'0'
sa(dp7551
S'Pens'
p7552
S'0'
sS'Sub'
p7553
S'1'
sS'Lost'
p7554
S'1'
sS'Drop'
p7555
S'0'
sS'Start'
p7556
S'0'
sS'Won'
p7557
S'0'
sS'Draw'
p7558
S'0'
sS'%'
S'0.00'
p7559
sS'Mat'
p7560
S'1'
sS'Conv'
p7561
S'0'
sS'Tries'
p7562
S'0'
sS'Pts'
p7563
S'0'
sa(dp7564
S'Pens'
p7565
S'0'
sS'Sub'
p7566
S'0'
sS'Lost'
p7567
S'0'
sS'Drop'
p7568
S'0'
sS'Start'
p7569
S'2'
sS'Won'
p7570
S'2'
sS'Draw'
p7571
S'0'
sS'%'
S'100.00'
p7572
sS'Mat'
p7573
S'2'
sS'Conv'
p7574
S'0'
sS'Tries'
p7575
S'1'
sS'Pts'
p7576
S'5'
sa(dp7577
S'Pens'
p7578
S'0'
sS'Sub'
p7579
S'0'
sS'Lost'
p7580
S'2'
sS'Drop'
p7581
S'0'
sS'Start'
p7582
S'5'
sS'Won'
p7583
S'3'
sS'Draw'
p7584
S'0'
sS'%'
S'60.00'
p7585
sS'Mat'
p7586
S'5'
sS'Conv'
p7587
S'0'
sS'Tries'
p7588
S'2'
sS'Pts'
p7589
S'10'
p7590
sa(dp7591
S'Pens'
p7592
S'6'
sS'Sub'
p7593
S'5'
sS'Lost'
p7594
S'5'
sS'Drop'
p7595
S'0'
sS'Start'
p7596
S'3'
sS'Won'
p7597
S'3'
sS'Draw'
p7598
S'0'
sS'%'
S'37.50'
p7599
sS'Mat'
p7600
S'8'
sS'Conv'
p7601
S'3'
sS'Tries'
p7602
S'3'
sS'Pts'
p7603
S'39'
p7604
sa(dp7605
S'Pens'
p7606
S'0'
sS'Sub'
p7607
S'7'
sS'Lost'
p7608
S'23'
p7609
sS'Drop'
p7610
S'0'
sS'Start'
p7611
S'35'
p7612
sS'Won'
p7613
S'18'
p7614
sS'Draw'
p7615
S'1'
sS'%'
S'44.04'
p7616
sS'Mat'
p7617
S'42'
p7618
sS'Conv'
p7619
S'0'
sS'Tries'
p7620
S'3'
sS'Pts'
p7621
S'15'
p7622
sa(dp7623
S'Pens'
p7624
S'0'
sS'Sub'
p7625
S'1'
sS'Lost'
p7626
S'0'
sS'Drop'
p7627
S'0'
sS'Start'
p7628
S'0'
sS'Won'
p7629
S'1'
sS'Draw'
p7630
S'0'
sS'%'
S'100.00'
p7631
sS'Mat'
p7632
S'1'
sS'Conv'
p7633
S'0'
sS'Tries'
p7634
S'0'
sS'Pts'
p7635
S'0'
sa(dp7636
S'Pens'
p7637
S'0'
sS'Sub'
p7638
S'7'
sS'Lost'
p7639
S'9'
sS'Drop'
p7640
S'0'
sS'Start'
p7641
S'10'
p7642
sS'Won'
p7643
S'8'
sS'Draw'
p7644
S'0'
sS'%'
S'47.05'
p7645
sS'Mat'
p7646
S'17'
p7647
sS'Conv'
p7648
S'0'
sS'Tries'
p7649
S'1'
sS'Pts'
p7650
S'5'
sa(dp7651
S'Pens'
p7652
S'0'
sS'Sub'
p7653
S'1'
sS'Lost'
p7654
S'1'
sS'Drop'
p7655
S'0'
sS'Start'
p7656
S'2'
sS'Won'
p7657
S'2'
sS'Draw'
p7658
S'0'
sS'%'
S'66.66'
p7659
sS'Mat'
p7660
S'3'
sS'Conv'
p7661
S'0'
sS'Tries'
p7662
S'0'
sS'Pts'
p7663
S'0'
sa(dp7664
S'Pens'
p7665
S'0'
sS'Sub'
p7666
S'0'
sS'Lost'
p7667
S'2'
sS'Drop'
p7668
S'0'
sS'Start'
p7669
S'3'
sS'Won'
p7670
S'1'
sS'Draw'
p7671
S'0'
sS'%'
S'33.33'
p7672
sS'Mat'
p7673
S'3'
sS'Conv'
p7674
S'0'
sS'Tries'
p7675
S'0'
sS'Pts'
p7676
S'0'
sa(dp7677
S'Pens'
p7678
S'0'
sS'Sub'
p7679
S'3'
sS'Lost'
p7680
S'14'
p7681
sS'Drop'
p7682
S'0'
sS'Start'
p7683
S'25'
p7684
sS'Won'
p7685
S'14'
p7686
sS'Draw'
p7687
S'0'
sS'%'
S'50.00'
p7688
sS'Mat'
p7689
S'28'
p7690
sS'Conv'
p7691
S'0'
sS'Tries'
p7692
S'5'
sS'Pts'
p7693
S'25'
p7694
sa(dp7695
S'Pens'
p7696
S'0'
sS'Sub'
p7697
S'2'
sS'Lost'
p7698
S'4'
sS'Drop'
p7699
S'0'
sS'Start'
p7700
S'4'
sS'Won'
p7701
S'2'
sS'Draw'
p7702
S'0'
sS'%'
S'33.33'
p7703
sS'Mat'
p7704
S'6'
sS'Conv'
p7705
S'0'
sS'Tries'
p7706
S'0'
sS'Pts'
p7707
S'0'
sa(dp7708
S'Pens'
p7709
S'0'
sS'Sub'
p7710
S'0'
sS'Lost'
p7711
S'3'
sS'Drop'
p7712
S'0'
sS'Start'
p7713
S'5'
sS'Won'
p7714
S'2'
sS'Draw'
p7715
S'0'
sS'%'
S'40.00'
p7716
sS'Mat'
p7717
S'5'
sS'Conv'
p7718
S'0'
sS'Tries'
p7719
S'2'
sS'Pts'
p7720
S'10'
p7721
sa(dp7722
S'Pens'
p7723
S'0'
sS'Sub'
p7724
S'0'
sS'Lost'
p7725
S'5'
sS'Drop'
p7726
S'0'
sS'Start'
p7727
S'8'
sS'Won'
p7728
S'3'
sS'Draw'
p7729
S'0'
sS'%'
S'37.50'
p7730
sS'Mat'
p7731
S'8'
sS'Conv'
p7732
S'0'
sS'Tries'
p7733
S'10'
p7734
sS'Pts'
p7735
S'50'
p7736
sa(dp7737
S'Pens'
p7738
S'0'
sS'Sub'
p7739
S'4'
sS'Lost'
p7740
S'3'
sS'Drop'
p7741
S'0'
sS'Start'
p7742
S'1'
sS'Won'
p7743
S'2'
sS'Draw'
p7744
S'0'
sS'%'
S'40.00'
p7745
sS'Mat'
p7746
S'5'
sS'Conv'
p7747
S'0'
sS'Tries'
p7748
S'0'
sS'Pts'
p7749
S'0'
sa(dp7750
S'Pens'
p7751
S'0'
sS'Sub'
p7752
S'4'
sS'Lost'
p7753
S'3'
sS'Drop'
p7754
S'0'
sS'Start'
p7755
S'2'
sS'Won'
p7756
S'3'
sS'Draw'
p7757
S'0'
sS'%'
S'50.00'
p7758
sS'Mat'
p7759
S'6'
sS'Conv'
p7760
S'0'
sS'Tries'
p7761
S'0'
sS'Pts'
p7762
S'0'
sa(dp7763
S'Pens'
p7764
S'0'
sS'Sub'
p7765
S'1'
sS'Lost'
p7766
S'1'
sS'Drop'
p7767
S'0'
sS'Start'
p7768
S'0'
sS'Won'
p7769
S'0'
sS'Draw'
p7770
S'0'
sS'%'
S'0.00'
p7771
sS'Mat'
p7772
S'1'
sS'Conv'
p7773
S'0'
sS'Tries'
p7774
S'0'
sS'Pts'
p7775
S'0'
sa(dp7776
S'Pens'
p7777
S'0'
sS'Sub'
p7778
S'0'
sS'Lost'
p7779
S'6'
sS'Drop'
p7780
S'0'
sS'Start'
p7781
S'14'
p7782
sS'Won'
p7783
S'8'
sS'Draw'
p7784
S'0'
sS'%'
S'57.14'
p7785
sS'Mat'
p7786
S'14'
p7787
sS'Conv'
p7788
S'0'
sS'Tries'
p7789
S'0'
sS'Pts'
p7790
S'0'
sa(dp7791
S'Pens'
p7792
S'0'
sS'Sub'
p7793
S'0'
sS'Lost'
p7794
S'0'
sS'Drop'
p7795
S'0'
sS'Start'
p7796
S'2'
sS'Won'
p7797
S'2'
sS'Draw'
p7798
S'0'
sS'%'
S'100.00'
p7799
sS'Mat'
p7800
S'2'
sS'Conv'
p7801
S'0'
sS'Tries'
p7802
S'0'
sS'Pts'
p7803
S'0'
sa(dp7804
S'Pens'
p7805
S'0'
sS'Sub'
p7806
S'3'
sS'Lost'
p7807
S'9'
sS'Drop'
p7808
S'0'
sS'Start'
p7809
S'16'
p7810
sS'Won'
p7811
S'10'
p7812
sS'Draw'
p7813
S'0'
sS'%'
S'52.63'
p7814
sS'Mat'
p7815
S'19'
p7816
sS'Conv'
p7817
S'0'
sS'Tries'
p7818
S'11'
p7819
sS'Pts'
p7820
S'55'
p7821
sa(dp7822
S'Pens'
p7823
S'0'
sS'Sub'
p7824
S'3'
sS'Lost'
p7825
S'2'
sS'Drop'
p7826
S'0'
sS'Start'
p7827
S'2'
sS'Won'
p7828
S'3'
sS'Draw'
p7829
S'0'
sS'%'
S'60.00'
p7830
sS'Mat'
p7831
S'5'
sS'Conv'
p7832
S'0'
sS'Tries'
p7833
S'0'
sS'Pts'
p7834
S'0'
sa(dp7835
S'Pens'
p7836
S'0'
sS'Sub'
p7837
S'2'
sS'Lost'
p7838
S'2'
sS'Drop'
p7839
S'0'
sS'Start'
p7840
S'7'
sS'Won'
p7841
S'7'
sS'Draw'
p7842
S'0'
sS'%'
S'77.77'
p7843
sS'Mat'
p7844
S'9'
sS'Conv'
p7845
S'2'
sS'Tries'
p7846
S'0'
sS'Pts'
p7847
S'4'
sa(dp7848
S'Pens'
p7849
S'0'
sS'Sub'
p7850
S'4'
sS'Lost'
p7851
S'2'
sS'Drop'
p7852
S'0'
sS'Start'
p7853
S'0'
sS'Won'
p7854
S'2'
sS'Draw'
p7855
S'0'
sS'%'
S'50.00'
p7856
sS'Mat'
p7857
S'4'
sS'Conv'
p7858
S'0'
sS'Tries'
p7859
S'0'
sS'Pts'
p7860
S'0'
sa(dp7861
S'Pens'
p7862
S'0'
sS'Sub'
p7863
S'2'
sS'Lost'
p7864
S'0'
sS'Drop'
p7865
S'0'
sS'Start'
p7866
S'0'
sS'Won'
p7867
S'2'
sS'Draw'
p7868
S'0'
sS'%'
S'100.00'
p7869
sS'Mat'
p7870
S'2'
sS'Conv'
p7871
S'0'
sS'Tries'
p7872
S'0'
sS'Pts'
p7873
S'0'
sa(dp7874
S'Pens'
p7875
S'0'
sS'Sub'
p7876
S'3'
sS'Lost'
p7877
S'1'
sS'Drop'
p7878
S'0'
sS'Start'
p7879
S'1'
sS'Won'
p7880
S'3'
sS'Draw'
p7881
S'0'
sS'%'
S'75.00'
p7882
sS'Mat'
p7883
S'4'
sS'Conv'
p7884
S'2'
sS'Tries'
p7885
S'1'
sS'Pts'
p7886
S'9'
sa(dp7887
S'Pens'
p7888
S'0'
sS'Sub'
p7889
S'1'
sS'Lost'
p7890
S'1'
sS'Drop'
p7891
S'0'
sS'Start'
p7892
S'2'
sS'Won'
p7893
S'2'
sS'Draw'
p7894
S'0'
sS'%'
S'66.66'
p7895
sS'Mat'
p7896
S'3'
sS'Conv'
p7897
S'0'
sS'Tries'
p7898
S'2'
sS'Pts'
p7899
S'10'
p7900
sa(dp7901
S'Pens'
p7902
S'0'
sS'Sub'
p7903
S'1'
sS'Lost'
p7904
S'0'
sS'Drop'
p7905
S'0'
sS'Start'
p7906
S'0'
sS'Won'
p7907
S'1'
sS'Draw'
p7908
S'0'
sS'%'
S'100.00'
p7909
sS'Mat'
p7910
S'1'
sS'Conv'
p7911
S'0'
sS'Tries'
p7912
S'0'
sS'Pts'
p7913
S'0'
sa(dp7914
S'Pens'
p7915
S'0'
sS'Sub'
p7916
S'6'
sS'Lost'
p7917
S'3'
sS'Drop'
p7918
S'0'
sS'Start'
p7919
S'0'
sS'Won'
p7920
S'3'
sS'Draw'
p7921
S'0'
sS'%'
S'50.00'
p7922
sS'Mat'
p7923
S'6'
sS'Conv'
p7924
S'0'
sS'Tries'
p7925
S'0'
sS'Pts'
p7926
S'0'
sa(dp7927
S'Pens'
p7928
S'0'
sS'Sub'
p7929
S'5'
sS'Lost'
p7930
S'3'
sS'Drop'
p7931
S'0'
sS'Start'
p7932
S'1'
sS'Won'
p7933
S'3'
sS'Draw'
p7934
S'0'
sS'%'
S'50.00'
p7935
sS'Mat'
p7936
S'6'
sS'Conv'
p7937
S'0'
sS'Tries'
p7938
S'0'
sS'Pts'
p7939
S'0'
sa(dp7940
S'Pens'
p7941
S'0'
sS'Sub'
p7942
S'1'
sS'Lost'
p7943
S'2'
sS'Drop'
p7944
S'0'
sS'Start'
p7945
S'3'
sS'Won'
p7946
S'2'
sS'Draw'
p7947
S'0'
sS'%'
S'50.00'
p7948
sS'Mat'
p7949
S'4'
sS'Conv'
p7950
S'0'
sS'Tries'
p7951
S'0'
sS'Pts'
p7952
S'0'
sa(dp7953
S'Pens'
p7954
S'0'
sS'Sub'
p7955
S'4'
sS'Lost'
p7956
S'10'
p7957
sS'Drop'
p7958
S'0'
sS'Start'
p7959
S'15'
p7960
sS'Won'
p7961
S'9'
sS'Draw'
p7962
S'0'
sS'%'
S'47.36'
p7963
sS'Mat'
p7964
S'19'
p7965
sS'Conv'
p7966
S'0'
sS'Tries'
p7967
S'1'
sS'Pts'
p7968
S'5'
sa(dp7969
S'Pens'
p7970
S'0'
sS'Sub'
p7971
S'8'
sS'Lost'
p7972
S'21'
p7973
sS'Drop'
p7974
S'0'
sS'Start'
p7975
S'32'
p7976
sS'Won'
p7977
S'19'
p7978
sS'Draw'
p7979
S'0'
sS'%'
S'47.50'
p7980
sS'Mat'
p7981
S'40'
p7982
sS'Conv'
p7983
S'0'
sS'Tries'
p7984
S'1'
sS'Pts'
p7985
S'5'
sa(dp7986
S'Pens'
p7987
S'0'
sS'Sub'
p7988
S'5'
sS'Lost'
p7989
S'8'
sS'Drop'
p7990
S'0'
sS'Start'
p7991
S'8'
sS'Won'
p7992
S'4'
sS'Draw'
p7993
S'1'
sS'%'
S'34.61'
p7994
sS'Mat'
p7995
S'13'
p7996
sS'Conv'
p7997
S'0'
sS'Tries'
p7998
S'1'
sS'Pts'
p7999
S'5'
sa(dp8000
S'Pens'
p8001
S'0'
sS'Sub'
p8002
S'2'
sS'Lost'
p8003
S'2'
sS'Drop'
p8004
S'0'
sS'Start'
p8005
S'0'
sS'Won'
p8006
S'0'
sS'Draw'
p8007
S'0'
sS'%'
S'0.00'
p8008
sS'Mat'
p8009
S'2'
sS'Conv'
p8010
S'0'
sS'Tries'
p8011
S'0'
sS'Pts'
p8012
S'0'
sa(dp8013
S'Pens'
p8014
S'0'
sS'Sub'
p8015
S'4'
sS'Lost'
p8016
S'5'
sS'Drop'
p8017
S'0'
sS'Start'
p8018
S'6'
sS'Won'
p8019
S'5'
sS'Draw'
p8020
S'0'
sS'%'
S'50.00'
p8021
sS'Mat'
p8022
S'10'
p8023
sS'Conv'
p8024
S'0'
sS'Tries'
p8025
S'0'
sS'Pts'
p8026
S'0'
sa(dp8027
S'Pens'
p8028
S'0'
sS'Sub'
p8029
S'4'
sS'Lost'
p8030
S'1'
sS'Drop'
p8031
S'0'
sS'Start'
p8032
S'2'
sS'Won'
p8033
S'5'
sS'Draw'
p8034
S'0'
sS'%'
S'83.33'
p8035
sS'Mat'
p8036
S'6'
sS'Conv'
p8037
S'0'
sS'Tries'
p8038
S'0'
sS'Pts'
p8039
S'0'
sa(dp8040
S'Pens'
p8041
S'0'
sS'Sub'
p8042
S'1'
sS'Lost'
p8043
S'3'
sS'Drop'
p8044
S'0'
sS'Start'
p8045
S'5'
sS'Won'
p8046
S'3'
sS'Draw'
p8047
S'0'
sS'%'
S'50.00'
p8048
sS'Mat'
p8049
S'6'
sS'Conv'
p8050
S'0'
sS'Tries'
p8051
S'0'
sS'Pts'
p8052
S'0'
sa(dp8053
S'Pens'
p8054
S'0'
sS'Sub'
p8055
S'5'
sS'Lost'
p8056
S'2'
sS'Drop'
p8057
S'0'
sS'Start'
p8058
S'2'
sS'Won'
p8059
S'5'
sS'Draw'
p8060
S'0'
sS'%'
S'71.42'
p8061
sS'Mat'
p8062
S'7'
sS'Conv'
p8063
S'1'
sS'Tries'
p8064
S'0'
sS'Pts'
p8065
S'2'
sa(dp8066
S'Pens'
p8067
S'0'
sS'Sub'
p8068
S'0'
sS'Lost'
p8069
S'5'
sS'Drop'
p8070
S'0'
sS'Start'
p8071
S'9'
sS'Won'
p8072
S'4'
sS'Draw'
p8073
S'0'
sS'%'
S'44.44'
p8074
sS'Mat'
p8075
S'9'
sS'Conv'
p8076
S'0'
sS'Tries'
p8077
S'4'
sS'Pts'
p8078
S'20'
p8079
sa(dp8080
S'Pens'
p8081
S'0'
sS'Sub'
p8082
S'9'
sS'Lost'
p8083
S'21'
p8084
sS'Drop'
p8085
S'0'
sS'Start'
p8086
S'33'
p8087
sS'Won'
p8088
S'20'
p8089
sS'Draw'
p8090
S'1'
sS'%'
S'48.80'
p8091
sS'Mat'
p8092
S'42'
p8093
sS'Conv'
p8094
S'0'
sS'Tries'
p8095
S'7'
sS'Pts'
p8096
S'35'
p8097
sa(dp8098
S'Pens'
p8099
S'0'
sS'Sub'
p8100
S'3'
sS'Lost'
p8101
S'2'
sS'Drop'
p8102
S'0'
sS'Start'
p8103
S'2'
sS'Won'
p8104
S'3'
sS'Draw'
p8105
S'0'
sS'%'
S'60.00'
p8106
sS'Mat'
p8107
S'5'
sS'Conv'
p8108
S'0'
sS'Tries'
p8109
S'0'
sS'Pts'
p8110
S'0'
sa(dp8111
S'Pens'
p8112
S'0'
sS'Sub'
p8113
S'3'
sS'Lost'
p8114
S'2'
sS'Drop'
p8115
S'0'
sS'Start'
p8116
S'4'
sS'Won'
p8117
S'5'
sS'Draw'
p8118
S'0'
sS'%'
S'71.42'
p8119
sS'Mat'
p8120
S'7'
sS'Conv'
p8121
S'0'
sS'Tries'
p8122
S'2'
sS'Pts'
p8123
S'10'
p8124
sa(dp8125
S'Pens'
p8126
S'0'
sS'Sub'
p8127
S'4'
sS'Lost'
p8128
S'13'
p8129
sS'Drop'
p8130
S'0'
sS'Start'
p8131
S'20'
p8132
sS'Won'
p8133
S'11'
p8134
sS'Draw'
p8135
S'0'
sS'%'
S'45.83'
p8136
sS'Mat'
p8137
S'24'
p8138
sS'Conv'
p8139
S'0'
sS'Tries'
p8140
S'9'
sS'Pts'
p8141
S'45'
p8142
sa(dp8143
S'Pens'
p8144
S'0'
sS'Sub'
p8145
S'3'
sS'Lost'
p8146
S'2'
sS'Drop'
p8147
S'0'
sS'Start'
p8148
S'1'
sS'Won'
p8149
S'2'
sS'Draw'
p8150
S'0'
sS'%'
S'50.00'
p8151
sS'Mat'
p8152
S'4'
sS'Conv'
p8153
S'0'
sS'Tries'
p8154
S'1'
sS'Pts'
p8155
S'5'
sa(dp8156
S'Pens'
p8157
S'0'
sS'Sub'
p8158
S'3'
sS'Lost'
p8159
S'3'
sS'Drop'
p8160
S'0'
sS'Start'
p8161
S'2'
sS'Won'
p8162
S'2'
sS'Draw'
p8163
S'0'
sS'%'
S'40.00'
p8164
sS'Mat'
p8165
S'5'
sS'Conv'
p8166
S'0'
sS'Tries'
p8167
S'0'
sS'Pts'
p8168
S'0'
sa(dp8169
S'Pens'
p8170
S'0'
sS'Sub'
p8171
S'0'
sS'Lost'
p8172
S'1'
sS'Drop'
p8173
S'0'
sS'Start'
p8174
S'3'
sS'Won'
p8175
S'2'
sS'Draw'
p8176
S'0'
sS'%'
S'66.66'
p8177
sS'Mat'
p8178
S'3'
sS'Conv'
p8179
S'0'
sS'Tries'
p8180
S'0'
sS'Pts'
p8181
S'0'
sa(dp8182
S'Pens'
p8183
S'0'
sS'Sub'
p8184
S'0'
sS'Lost'
p8185
S'0'
sS'Drop'
p8186
S'0'
sS'Start'
p8187
S'1'
sS'Won'
p8188
S'1'
sS'Draw'
p8189
S'0'
sS'%'
S'100.00'
p8190
sS'Mat'
p8191
S'1'
sS'Conv'
p8192
S'0'
sS'Tries'
p8193
S'0'
sS'Pts'
p8194
S'0'
sa(dp8195
S'Pens'
p8196
S'0'
sS'Sub'
p8197
S'2'
sS'Lost'
p8198
S'1'
sS'Drop'
p8199
S'0'
sS'Start'
p8200
S'0'
sS'Won'
p8201
S'1'
sS'Draw'
p8202
S'0'
sS'%'
S'50.00'
p8203
sS'Mat'
p8204
S'2'
sS'Conv'
p8205
S'0'
sS'Tries'
p8206
S'0'
sS'Pts'
p8207
S'0'
sa(dp8208
S'Pens'
p8209
S'0'
sS'Sub'
p8210
S'2'
sS'Lost'
p8211
S'2'
sS'Drop'
p8212
S'0'
sS'Start'
p8213
S'2'
sS'Won'
p8214
S'2'
sS'Draw'
p8215
S'0'
sS'%'
S'50.00'
p8216
sS'Mat'
p8217
S'4'
sS'Conv'
p8218
S'0'
sS'Tries'
p8219
S'0'
sS'Pts'
p8220
S'0'
sa(dp8221
S'Pens'
p8222
S'0'
sS'Sub'
p8223
S'3'
sS'Lost'
p8224
S'8'
sS'Drop'
p8225
S'0'
sS'Start'
p8226
S'12'
p8227
sS'Won'
p8228
S'7'
sS'Draw'
p8229
S'0'
sS'%'
S'46.66'
p8230
sS'Mat'
p8231
S'15'
p8232
sS'Conv'
p8233
S'0'
sS'Tries'
p8234
S'1'
sS'Pts'
p8235
S'5'
sa(dp8236
S'Pens'
p8237
S'0'
sS'Sub'
p8238
S'2'
sS'Lost'
p8239
S'3'
sS'Drop'
p8240
S'0'
sS'Start'
p8241
S'3'
sS'Won'
p8242
S'1'
sS'Draw'
p8243
S'1'
sS'%'
S'30.00'
p8244
sS'Mat'
p8245
S'5'
sS'Conv'
p8246
S'0'
sS'Tries'
p8247
S'0'
sS'Pts'
p8248
S'0'
sa(dp8249
S'Pens'
p8250
S'0'
sS'Sub'
p8251
S'5'
sS'Lost'
p8252
S'11'
p8253
sS'Drop'
p8254
S'0'
sS'Start'
p8255
S'23'
p8256
sS'Won'
p8257
S'17'
p8258
sS'Draw'
p8259
S'0'
sS'%'
S'60.71'
p8260
sS'Mat'
p8261
S'28'
p8262
sS'Conv'
p8263
S'0'
sS'Tries'
p8264
S'4'
sS'Pts'
p8265
S'20'
p8266
sa(dp8267
S'Pens'
p8268
S'0'
sS'Sub'
p8269
S'2'
sS'Lost'
p8270
S'2'
sS'Drop'
p8271
S'0'
sS'Start'
p8272
S'1'
sS'Won'
p8273
S'1'
sS'Draw'
p8274
S'0'
sS'%'
S'33.33'
p8275
sS'Mat'
p8276
S'3'
sS'Conv'
p8277
S'0'
sS'Tries'
p8278
S'0'
sS'Pts'
p8279
S'0'
sa(dp8280
S'Pens'
p8281
S'0'
sS'Sub'
p8282
S'1'
sS'Lost'
p8283
S'5'
sS'Drop'
p8284
S'0'
sS'Start'
p8285
S'15'
p8286
sS'Won'
p8287
S'10'
p8288
sS'Draw'
p8289
S'1'
sS'%'
S'65.62'
p8290
sS'Mat'
p8291
S'16'
p8292
sS'Conv'
p8293
S'0'
sS'Tries'
p8294
S'0'
sS'Pts'
p8295
S'0'
sa(dp8296
S'Pens'
p8297
S'0'
sS'Sub'
p8298
S'5'
sS'Lost'
p8299
S'18'
p8300
sS'Drop'
p8301
S'0'
sS'Start'
p8302
S'26'
p8303
sS'Won'
p8304
S'12'
p8305
sS'Draw'
p8306
S'1'
sS'%'
S'40.32'
p8307
sS'Mat'
p8308
S'31'
p8309
sS'Conv'
p8310
S'0'
sS'Tries'
p8311
S'14'
p8312
sS'Pts'
p8313
S'70'
p8314
sa(dp8315
S'Pens'
p8316
S'0'
sS'Sub'
p8317
S'0'
sS'Lost'
p8318
S'4'
sS'Drop'
p8319
S'0'
sS'Start'
p8320
S'8'
sS'Won'
p8321
S'4'
sS'Draw'
p8322
S'0'
sS'%'
S'50.00'
p8323
sS'Mat'
p8324
S'8'
sS'Conv'
p8325
S'0'
sS'Tries'
p8326
S'2'
sS'Pts'
p8327
S'10'
p8328
sa(dp8329
S'Pens'
p8330
S'0'
sS'Sub'
p8331
S'1'
sS'Lost'
p8332
S'2'
sS'Drop'
p8333
S'0'
sS'Start'
p8334
S'2'
sS'Won'
p8335
S'1'
sS'Draw'
p8336
S'0'
sS'%'
S'33.33'
p8337
sS'Mat'
p8338
S'3'
sS'Conv'
p8339
S'0'
sS'Tries'
p8340
S'0'
sS'Pts'
p8341
S'0'
sa(dp8342
S'Pens'
p8343
S'15'
p8344
sS'Sub'
p8345
S'4'
sS'Lost'
p8346
S'8'
sS'Drop'
p8347
S'0'
sS'Start'
p8348
S'13'
p8349
sS'Won'
p8350
S'8'
sS'Draw'
p8351
S'1'
sS'%'
S'50.00'
p8352
sS'Mat'
p8353
S'17'
p8354
sS'Conv'
p8355
S'19'
p8356
sS'Tries'
p8357
S'4'
sS'Pts'
p8358
S'103'
p8359
sa(dp8360
S'Pens'
p8361
S'0'
sS'Sub'
p8362
S'1'
sS'Lost'
p8363
S'2'
sS'Drop'
p8364
S'0'
sS'Start'
p8365
S'2'
sS'Won'
p8366
S'1'
sS'Draw'
p8367
S'0'
sS'%'
S'33.33'
p8368
sS'Mat'
p8369
S'3'
sS'Conv'
p8370
S'0'
sS'Tries'
p8371
S'0'
sS'Pts'
p8372
S'0'
sa(dp8373
S'Pens'
p8374
S'0'
sS'Sub'
p8375
S'2'
sS'Lost'
p8376
S'4'
sS'Drop'
p8377
S'0'
sS'Start'
p8378
S'8'
sS'Won'
p8379
S'6'
sS'Draw'
p8380
S'0'
sS'%'
S'60.00'
p8381
sS'Mat'
p8382
S'10'
p8383
sS'Conv'
p8384
S'0'
sS'Tries'
p8385
S'0'
sS'Pts'
p8386
S'0'
sa(dp8387
S'Pens'
p8388
S'0'
sS'Sub'
p8389
S'9'
sS'Lost'
p8390
S'10'
p8391
sS'Drop'
p8392
S'0'
sS'Start'
p8393
S'5'
sS'Won'
p8394
S'4'
sS'Draw'
p8395
S'0'
sS'%'
S'28.57'
p8396
sS'Mat'
p8397
S'14'
p8398
sS'Conv'
p8399
S'0'
sS'Tries'
p8400
S'0'
sS'Pts'
p8401
S'0'
sa(dp8402
S'Pens'
p8403
S'0'
sS'Sub'
p8404
S'8'
sS'Lost'
p8405
S'15'
p8406
sS'Drop'
p8407
S'0'
sS'Start'
p8408
S'18'
p8409
sS'Won'
p8410
S'11'
p8411
sS'Draw'
p8412
S'0'
sS'%'
S'42.30'
p8413
sS'Mat'
p8414
S'26'
p8415
sS'Conv'
p8416
S'0'
sS'Tries'
p8417
S'0'
sS'Pts'
p8418
S'0'
sa(dp8419
S'Pens'
p8420
S'0'
sS'Sub'
p8421
S'8'
sS'Lost'
p8422
S'12'
p8423
sS'Drop'
p8424
S'0'
sS'Start'
p8425
S'18'
p8426
sS'Won'
p8427
S'13'
p8428
sS'Draw'
p8429
S'1'
sS'%'
S'51.92'
p8430
sS'Mat'
p8431
S'26'
p8432
sS'Conv'
p8433
S'0'
sS'Tries'
p8434
S'1'
sS'Pts'
p8435
S'5'
sa(dp8436
S'Pens'
p8437
S'0'
sS'Sub'
p8438
S'4'
sS'Lost'
p8439
S'12'
p8440
sS'Drop'
p8441
S'0'
sS'Start'
p8442
S'12'
p8443
sS'Won'
p8444
S'3'
sS'Draw'
p8445
S'1'
sS'%'
S'21.87'
p8446
sS'Mat'
p8447
S'16'
p8448
sS'Conv'
p8449
S'0'
sS'Tries'
p8450
S'1'
sS'Pts'
p8451
S'5'
sa(dp8452
S'Pens'
p8453
S'3'
sS'Sub'
p8454
S'3'
sS'Lost'
p8455
S'9'
sS'Drop'
p8456
S'0'
sS'Start'
p8457
S'14'
p8458
sS'Won'
p8459
S'8'
sS'Draw'
p8460
S'0'
sS'%'
S'47.05'
p8461
sS'Mat'
p8462
S'17'
p8463
sS'Conv'
p8464
S'6'
sS'Tries'
p8465
S'0'
sS'Pts'
p8466
S'21'
p8467
sa(dp8468
S'Pens'
p8469
S'0'
sS'Sub'
p8470
S'0'
sS'Lost'
p8471
S'3'
sS'Drop'
p8472
S'0'
sS'Start'
p8473
S'5'
sS'Won'
p8474
S'1'
sS'Draw'
p8475
S'1'
sS'%'
S'30.00'
p8476
sS'Mat'
p8477
S'5'
sS'Conv'
p8478
S'0'
sS'Tries'
p8479
S'0'
sS'Pts'
p8480
S'0'
sa(dp8481
S'Pens'
p8482
S'0'
sS'Sub'
p8483
S'1'
sS'Lost'
p8484
S'3'
sS'Drop'
p8485
S'0'
sS'Start'
p8486
S'2'
sS'Won'
p8487
S'0'
sS'Draw'
p8488
S'0'
sS'%'
S'0.00'
p8489
sS'Mat'
p8490
S'3'
sS'Conv'
p8491
S'0'
sS'Tries'
p8492
S'0'
sS'Pts'
p8493
S'0'
sa(dp8494
S'Pens'
p8495
S'0'
sS'Sub'
p8496
S'6'
sS'Lost'
p8497
S'3'
sS'Drop'
p8498
S'0'
sS'Start'
p8499
S'2'
sS'Won'
p8500
S'5'
sS'Draw'
p8501
S'0'
sS'%'
S'62.50'
p8502
sS'Mat'
p8503
S'8'
sS'Conv'
p8504
S'0'
sS'Tries'
p8505
S'0'
sS'Pts'
p8506
S'0'
sa(dp8507
S'Pens'
p8508
S'0'
sS'Sub'
p8509
S'3'
sS'Lost'
p8510
S'2'
sS'Drop'
p8511
S'0'
sS'Start'
p8512
S'0'
sS'Won'
p8513
S'1'
sS'Draw'
p8514
S'0'
sS'%'
S'33.33'
p8515
sS'Mat'
p8516
S'3'
sS'Conv'
p8517
S'0'
sS'Tries'
p8518
S'0'
sS'Pts'
p8519
S'0'
sa(dp8520
S'Pens'
p8521
S'0'
sS'Sub'
p8522
S'1'
sS'Lost'
p8523
S'1'
sS'Drop'
p8524
S'0'
sS'Start'
p8525
S'3'
sS'Won'
p8526
S'3'
sS'Draw'
p8527
S'0'
sS'%'
S'75.00'
p8528
sS'Mat'
p8529
S'4'
sS'Conv'
p8530
S'0'
sS'Tries'
p8531
S'0'
sS'Pts'
p8532
S'0'
sa(dp8533
S'Pens'
p8534
S'0'
sS'Sub'
p8535
S'4'
sS'Lost'
p8536
S'9'
sS'Drop'
p8537
S'0'
sS'Start'
p8538
S'18'
p8539
sS'Won'
p8540
S'13'
p8541
sS'Draw'
p8542
S'0'
sS'%'
S'59.09'
p8543
sS'Mat'
p8544
S'22'
p8545
sS'Conv'
p8546
S'0'
sS'Tries'
p8547
S'14'
p8548
sS'Pts'
p8549
S'70'
p8550
sa(dp8551
S'Pens'
p8552
S'0'
sS'Sub'
p8553
S'0'
sS'Lost'
p8554
S'5'
sS'Drop'
p8555
S'0'
sS'Start'
p8556
S'8'
sS'Won'
p8557
S'3'
sS'Draw'
p8558
S'0'
sS'%'
S'37.50'
p8559
sS'Mat'
p8560
S'8'
sS'Conv'
p8561
S'0'
sS'Tries'
p8562
S'2'
sS'Pts'
p8563
S'10'
p8564
sa(dp8565
S'Pens'
p8566
S'6'
sS'Sub'
p8567
S'3'
sS'Lost'
p8568
S'6'
sS'Drop'
p8569
S'0'
sS'Start'
p8570
S'12'
p8571
sS'Won'
p8572
S'9'
sS'Draw'
p8573
S'0'
sS'%'
S'60.00'
p8574
sS'Mat'
p8575
S'15'
p8576
sS'Conv'
p8577
S'13'
p8578
sS'Tries'
p8579
S'0'
sS'Pts'
p8580
S'44'
p8581
sa(dp8582
S'Pens'
p8583
S'0'
sS'Sub'
p8584
S'4'
sS'Lost'
p8585
S'3'
sS'Drop'
p8586
S'0'
sS'Start'
p8587
S'4'
sS'Won'
p8588
S'5'
sS'Draw'
p8589
S'0'
sS'%'
S'62.50'
p8590
sS'Mat'
p8591
S'8'
sS'Conv'
p8592
S'0'
sS'Tries'
p8593
S'1'
sS'Pts'
p8594
S'5'
sa(dp8595
S'Pens'
p8596
S'0'
sS'Sub'
p8597
S'2'
sS'Lost'
p8598
S'4'
sS'Drop'
p8599
S'0'
sS'Start'
p8600
S'4'
sS'Won'
p8601
S'2'
sS'Draw'
p8602
S'0'
sS'%'
S'33.33'
p8603
sS'Mat'
p8604
S'6'
sS'Conv'
p8605
S'0'
sS'Tries'
p8606
S'1'
sS'Pts'
p8607
S'5'
sa(dp8608
S'Pens'
p8609
S'0'
sS'Sub'
p8610
S'11'
p8611
sS'Lost'
p8612
S'13'
p8613
sS'Drop'
p8614
S'0'
sS'Start'
p8615
S'18'
p8616
sS'Won'
p8617
S'15'
p8618
sS'Draw'
p8619
S'1'
sS'%'
S'53.44'
p8620
sS'Mat'
p8621
S'29'
p8622
sS'Conv'
p8623
S'0'
sS'Tries'
p8624
S'5'
sS'Pts'
p8625
S'25'
p8626
sa(dp8627
S'Pens'
p8628
S'0'
sS'Sub'
p8629
S'2'
sS'Lost'
p8630
S'1'
sS'Drop'
p8631
S'0'
sS'Start'
p8632
S'0'
sS'Won'
p8633
S'1'
sS'Draw'
p8634
S'0'
sS'%'
S'50.00'
p8635
sS'Mat'
p8636
S'2'
sS'Conv'
p8637
S'0'
sS'Tries'
p8638
S'0'
sS'Pts'
p8639
S'0'
sa(dp8640
S'Pens'
p8641
S'0'
sS'Sub'
p8642
S'6'
sS'Lost'
p8643
S'7'
sS'Drop'
p8644
S'0'
sS'Start'
p8645
S'8'
sS'Won'
p8646
S'7'
sS'Draw'
p8647
S'0'
sS'%'
S'50.00'
p8648
sS'Mat'
p8649
S'14'
p8650
sS'Conv'
p8651
S'0'
sS'Tries'
p8652
S'2'
sS'Pts'
p8653
S'10'
p8654
sa(dp8655
S'Pens'
p8656
S'0'
sS'Sub'
p8657
S'0'
sS'Lost'
p8658
S'1'
sS'Drop'
p8659
S'0'
sS'Start'
p8660
S'1'
sS'Won'
p8661
S'0'
sS'Draw'
p8662
S'0'
sS'%'
S'0.00'
p8663
sS'Mat'
p8664
S'1'
sS'Conv'
p8665
S'0'
sS'Tries'
p8666
S'0'
sS'Pts'
p8667
S'0'
sa(dp8668
S'Pens'
p8669
S'0'
sS'Sub'
p8670
S'4'
sS'Lost'
p8671
S'6'
sS'Drop'
p8672
S'0'
sS'Start'
p8673
S'7'
sS'Won'
p8674
S'5'
sS'Draw'
p8675
S'0'
sS'%'
S'45.45'
p8676
sS'Mat'
p8677
S'11'
p8678
sS'Conv'
p8679
S'0'
sS'Tries'
p8680
S'1'
sS'Pts'
p8681
S'5'
sa(dp8682
S'Pens'
p8683
S'0'
sS'Sub'
p8684
S'9'
sS'Lost'
p8685
S'8'
sS'Drop'
p8686
S'0'
sS'Start'
p8687
S'6'
sS'Won'
p8688
S'7'
sS'Draw'
p8689
S'0'
sS'%'
S'46.66'
p8690
sS'Mat'
p8691
S'15'
p8692
sS'Conv'
p8693
S'0'
sS'Tries'
p8694
S'2'
sS'Pts'
p8695
S'10'
p8696
sa(dp8697
S'Pens'
p8698
S'0'
sS'Sub'
p8699
S'8'
sS'Lost'
p8700
S'6'
sS'Drop'
p8701
S'0'
sS'Start'
p8702
S'8'
sS'Won'
p8703
S'10'
p8704
sS'Draw'
p8705
S'0'
sS'%'
S'62.50'
p8706
sS'Mat'
p8707
S'16'
p8708
sS'Conv'
p8709
S'0'
sS'Tries'
p8710
S'0'
sS'Pts'
p8711
S'0'
sa(dp8712
S'Pens'
p8713
S'0'
sS'Sub'
p8714
S'1'
sS'Lost'
p8715
S'0'
sS'Drop'
p8716
S'0'
sS'Start'
p8717
S'1'
sS'Won'
p8718
S'2'
sS'Draw'
p8719
S'0'
sS'%'
S'100.00'
p8720
sS'Mat'
p8721
S'2'
sS'Conv'
p8722
S'0'
sS'Tries'
p8723
S'0'
sS'Pts'
p8724
S'0'
sa(dp8725
S'Pens'
p8726
S'0'
sS'Sub'
p8727
S'0'
sS'Lost'
p8728
S'0'
sS'Drop'
p8729
S'0'
sS'Start'
p8730
S'1'
sS'Won'
p8731
S'1'
sS'Draw'
p8732
S'0'
sS'%'
S'100.00'
p8733
sS'Mat'
p8734
S'1'
sS'Conv'
p8735
S'0'
sS'Tries'
p8736
S'1'
sS'Pts'
p8737
S'5'
sa(dp8738
S'Pens'
p8739
S'0'
sS'Sub'
p8740
S'1'
sS'Lost'
p8741
S'0'
sS'Drop'
p8742
S'0'
sS'Start'
p8743
S'1'
sS'Won'
p8744
S'2'
sS'Draw'
p8745
S'0'
sS'%'
S'100.00'
p8746
sS'Mat'
p8747
S'2'
sS'Conv'
p8748
S'0'
sS'Tries'
p8749
S'0'
sS'Pts'
p8750
S'0'
sa(dp8751
S'Pens'
p8752
S'0'
sS'Sub'
p8753
S'6'
sS'Lost'
p8754
S'2'
sS'Drop'
p8755
S'0'
sS'Start'
p8756
S'0'
sS'Won'
p8757
S'4'
sS'Draw'
p8758
S'0'
sS'%'
S'66.66'
p8759
sS'Mat'
p8760
S'6'
sS'Conv'
p8761
S'0'
sS'Tries'
p8762
S'1'
sS'Pts'
p8763
S'5'
sa(dp8764
S'Pens'
p8765
S'0'
sS'Sub'
p8766
S'5'
sS'Lost'
p8767
S'14'
p8768
sS'Drop'
p8769
S'0'
sS'Start'
p8770
S'20'
p8771
sS'Won'
p8772
S'11'
p8773
sS'Draw'
p8774
S'0'
sS'%'
S'44.00'
p8775
sS'Mat'
p8776
S'25'
p8777
sS'Conv'
p8778
S'0'
sS'Tries'
p8779
S'2'
sS'Pts'
p8780
S'10'
p8781
sa(dp8782
S'Pens'
p8783
S'0'
sS'Sub'
p8784
S'0'
sS'Lost'
p8785
S'0'
sS'Drop'
p8786
S'0'
sS'Start'
p8787
S'2'
sS'Won'
p8788
S'2'
sS'Draw'
p8789
S'0'
sS'%'
S'100.00'
p8790
sS'Mat'
p8791
S'2'
sS'Conv'
p8792
S'0'
sS'Tries'
p8793
S'0'
sS'Pts'
p8794
S'0'
sa(dp8795
S'Pens'
p8796
S'0'
sS'Sub'
p8797
S'2'
sS'Lost'
p8798
S'2'
sS'Drop'
p8799
S'0'
sS'Start'
p8800
S'5'
sS'Won'
p8801
S'4'
sS'Draw'
p8802
S'1'
sS'%'
S'64.28'
p8803
sS'Mat'
p8804
S'7'
sS'Conv'
p8805
S'0'
sS'Tries'
p8806
S'0'
sS'Pts'
p8807
S'0'
sa(dp8808
S'Pens'
p8809
S'0'
sS'Sub'
p8810
S'0'
sS'Lost'
p8811
S'0'
sS'Drop'
p8812
S'0'
sS'Start'
p8813
S'1'
sS'Won'
p8814
S'1'
sS'Draw'
p8815
S'0'
sS'%'
S'100.00'
p8816
sS'Mat'
p8817
S'1'
sS'Conv'
p8818
S'0'
sS'Tries'
p8819
S'0'
sS'Pts'
p8820
S'0'
sa(dp8821
S'Pens'
p8822
S'0'
sS'Sub'
p8823
S'4'
sS'Lost'
p8824
S'7'
sS'Drop'
p8825
S'0'
sS'Start'
p8826
S'6'
sS'Won'
p8827
S'3'
sS'Draw'
p8828
S'0'
sS'%'
S'30.00'
p8829
sS'Mat'
p8830
S'10'
p8831
sS'Conv'
p8832
S'0'
sS'Tries'
p8833
S'1'
sS'Pts'
p8834
S'5'
sa(dp8835
S'Pens'
p8836
S'0'
sS'Sub'
p8837
S'1'
sS'Lost'
p8838
S'1'
sS'Drop'
p8839
S'0'
sS'Start'
p8840
S'2'
sS'Won'
p8841
S'2'
sS'Draw'
p8842
S'0'
sS'%'
S'66.66'
p8843
sS'Mat'
p8844
S'3'
sS'Conv'
p8845
S'0'
sS'Tries'
p8846
S'0'
sS'Pts'
p8847
S'0'
sa(dp8848
S'Pens'
p8849
S'0'
sS'Sub'
p8850
S'2'
sS'Lost'
p8851
S'1'
sS'Drop'
p8852
S'0'
sS'Start'
p8853
S'1'
sS'Won'
p8854
S'2'
sS'Draw'
p8855
S'0'
sS'%'
S'66.66'
p8856
sS'Mat'
p8857
S'3'
sS'Conv'
p8858
S'0'
sS'Tries'
p8859
S'0'
sS'Pts'
p8860
S'0'
sa(dp8861
S'Pens'
p8862
S'0'
sS'Sub'
p8863
S'0'
sS'Lost'
p8864
S'2'
sS'Drop'
p8865
S'0'
sS'Start'
p8866
S'3'
sS'Won'
p8867
S'1'
sS'Draw'
p8868
S'0'
sS'%'
S'33.33'
p8869
sS'Mat'
p8870
S'3'
sS'Conv'
p8871
S'0'
sS'Tries'
p8872
S'0'
sS'Pts'
p8873
S'0'
sa(dp8874
S'Pens'
p8875
S'0'
sS'Sub'
p8876
S'0'
sS'Lost'
p8877
S'10'
p8878
sS'Drop'
p8879
S'0'
sS'Start'
p8880
S'14'
p8881
sS'Won'
p8882
S'3'
sS'Draw'
p8883
S'1'
sS'%'
S'25.00'
p8884
sS'Mat'
p8885
S'14'
p8886
sS'Conv'
p8887
S'0'
sS'Tries'
p8888
S'0'
sS'Pts'
p8889
S'0'
sa(dp8890
S'Pens'
p8891
S'2'
sS'Sub'
p8892
S'3'
sS'Lost'
p8893
S'5'
sS'Drop'
p8894
S'0'
sS'Start'
p8895
S'5'
sS'Won'
p8896
S'2'
sS'Draw'
p8897
S'1'
sS'%'
S'31.25'
p8898
sS'Mat'
p8899
S'8'
sS'Conv'
p8900
S'4'
sS'Tries'
p8901
S'0'
sS'Pts'
p8902
S'14'
p8903
sa(dp8904
S'Pens'
p8905
S'0'
sS'Sub'
p8906
S'0'
sS'Lost'
p8907
S'10'
p8908
sS'Drop'
p8909
S'0'
sS'Start'
p8910
S'17'
p8911
sS'Won'
p8912
S'7'
sS'Draw'
p8913
S'0'
sS'%'
S'41.17'
p8914
sS'Mat'
p8915
S'17'
p8916
sS'Conv'
p8917
S'0'
sS'Tries'
p8918
S'9'
sS'Pts'
p8919
S'45'
p8920
sa(dp8921
S'Pens'
p8922
S'0'
sS'Sub'
p8923
S'12'
p8924
sS'Lost'
p8925
S'14'
p8926
sS'Drop'
p8927
S'0'
sS'Start'
p8928
S'17'
p8929
sS'Won'
p8930
S'14'
p8931
sS'Draw'
p8932
S'1'
sS'%'
S'50.00'
p8933
sS'Mat'
p8934
S'29'
p8935
sS'Conv'
p8936
S'0'
sS'Tries'
p8937
S'0'
sS'Pts'
p8938
S'0'
sa(dp8939
S'Pens'
p8940
S'0'
sS'Sub'
p8941
S'2'
sS'Lost'
p8942
S'1'
sS'Drop'
p8943
S'0'
sS'Start'
p8944
S'0'
sS'Won'
p8945
S'1'
sS'Draw'
p8946
S'0'
sS'%'
S'50.00'
p8947
sS'Mat'
p8948
S'2'
sS'Conv'
p8949
S'0'
sS'Tries'
p8950
S'1'
sS'Pts'
p8951
S'5'
sa(dp8952
S'Pens'
p8953
S'0'
sS'Sub'
p8954
S'2'
sS'Lost'
p8955
S'2'
sS'Drop'
p8956
S'0'
sS'Start'
p8957
S'1'
sS'Won'
p8958
S'1'
sS'Draw'
p8959
S'0'
sS'%'
S'33.33'
p8960
sS'Mat'
p8961
S'3'
sS'Conv'
p8962
S'0'
sS'Tries'
p8963
S'0'
sS'Pts'
p8964
S'0'
sa(dp8965
S'Pens'
p8966
S'0'
sS'Sub'
p8967
S'3'
sS'Lost'
p8968
S'2'
sS'Drop'
p8969
S'0'
sS'Start'
p8970
S'1'
sS'Won'
p8971
S'2'
sS'Draw'
p8972
S'0'
sS'%'
S'50.00'
p8973
sS'Mat'
p8974
S'4'
sS'Conv'
p8975
S'0'
sS'Tries'
p8976
S'0'
sS'Pts'
p8977
S'0'
sa(dp8978
S'Pens'
p8979
S'0'
sS'Sub'
p8980
S'2'
sS'Lost'
p8981
S'3'
sS'Drop'
p8982
S'0'
sS'Start'
p8983
S'3'
sS'Won'
p8984
S'2'
sS'Draw'
p8985
S'0'
sS'%'
S'40.00'
p8986
sS'Mat'
p8987
S'5'
sS'Conv'
p8988
S'0'
sS'Tries'
p8989
S'1'
sS'Pts'
p8990
S'5'
sa(dp8991
S'Pens'
p8992
S'0'
sS'Sub'
p8993
S'0'
sS'Lost'
p8994
S'0'
sS'Drop'
p8995
S'0'
sS'Start'
p8996
S'1'
sS'Won'
p8997
S'1'
sS'Draw'
p8998
S'0'
sS'%'
S'100.00'
p8999
sS'Mat'
p9000
S'1'
sS'Conv'
p9001
S'0'
sS'Tries'
p9002
S'0'
sS'Pts'
p9003
S'0'
sa(dp9004
S'Pens'
p9005
S'0'
sS'Sub'
p9006
S'9'
sS'Lost'
p9007
S'4'
sS'Drop'
p9008
S'0'
sS'Start'
p9009
S'0'
sS'Won'
p9010
S'5'
sS'Draw'
p9011
S'0'
sS'%'
S'55.55'
p9012
sS'Mat'
p9013
S'9'
sS'Conv'
p9014
S'0'
sS'Tries'
p9015
S'1'
sS'Pts'
p9016
S'5'
sa(dp9017
S'Pens'
p9018
S'0'
sS'Sub'
p9019
S'5'
sS'Lost'
p9020
S'8'
sS'Drop'
p9021
S'0'
sS'Start'
p9022
S'8'
sS'Won'
p9023
S'4'
sS'Draw'
p9024
S'1'
sS'%'
S'34.61'
p9025
sS'Mat'
p9026
S'13'
p9027
sS'Conv'
p9028
S'0'
sS'Tries'
p9029
S'4'
sS'Pts'
p9030
S'20'
p9031
sa(dp9032
S'Pens'
p9033
S'0'
sS'Sub'
p9034
S'7'
sS'Lost'
p9035
S'13'
p9036
sS'Drop'
p9037
S'0'
sS'Start'
p9038
S'21'
p9039
sS'Won'
p9040
S'14'
p9041
sS'Draw'
p9042
S'1'
sS'%'
S'51.78'
p9043
sS'Mat'
p9044
S'28'
p9045
sS'Conv'
p9046
S'0'
sS'Tries'
p9047
S'2'
sS'Pts'
p9048
S'10'
p9049
sa(dp9050
S'Pens'
p9051
S'0'
sS'Sub'
p9052
S'15'
p9053
sS'Lost'
p9054
S'13'
p9055
sS'Drop'
p9056
S'0'
sS'Start'
p9057
S'11'
p9058
sS'Won'
p9059
S'12'
p9060
sS'Draw'
p9061
S'1'
sS'%'
S'48.07'
p9062
sS'Mat'
p9063
S'26'
p9064
sS'Conv'
p9065
S'0'
sS'Tries'
p9066
S'2'
sS'Pts'
p9067
S'10'
p9068
sa(dp9069
S'Pens'
p9070
S'0'
sS'Sub'
p9071
S'2'
sS'Lost'
p9072
S'10'
p9073
sS'Drop'
p9074
S'0'
sS'Start'
p9075
S'17'
p9076
sS'Won'
p9077
S'9'
sS'Draw'
p9078
S'0'
sS'%'
S'47.36'
p9079
sS'Mat'
p9080
S'19'
p9081
sS'Conv'
p9082
S'0'
sS'Tries'
p9083
S'4'
sS'Pts'
p9084
S'20'
p9085
sa(dp9086
S'Pens'
p9087
S'9'
sS'Sub'
p9088
S'2'
sS'Lost'
p9089
S'6'
sS'Drop'
p9090
S'0'
sS'Start'
p9091
S'16'
p9092
sS'Won'
p9093
S'12'
p9094
sS'Draw'
p9095
S'0'
sS'%'
S'66.66'
p9096
sS'Mat'
p9097
S'18'
p9098
sS'Conv'
p9099
S'13'
p9100
sS'Tries'
p9101
S'14'
p9102
sS'Pts'
p9103
S'123'
p9104
sa(dp9105
S'Pens'
p9106
S'1'
sS'Sub'
p9107
S'0'
sS'Lost'
p9108
S'0'
sS'Drop'
p9109
S'0'
sS'Start'
p9110
S'1'
sS'Won'
p9111
S'1'
sS'Draw'
p9112
S'0'
sS'%'
S'100.00'
p9113
sS'Mat'
p9114
S'1'
sS'Conv'
p9115
S'2'
sS'Tries'
p9116
S'0'
sS'Pts'
p9117
S'7'
sa(dp9118
S'Pens'
p9119
S'0'
sS'Sub'
p9120
S'2'
sS'Lost'
p9121
S'1'
sS'Drop'
p9122
S'0'
sS'Start'
p9123
S'3'
sS'Won'
p9124
S'4'
sS'Draw'
p9125
S'0'
sS'%'
S'80.00'
p9126
sS'Mat'
p9127
S'5'
sS'Conv'
p9128
S'0'
sS'Tries'
p9129
S'0'
sS'Pts'
p9130
S'0'
sa(dp9131
S'Pens'
p9132
S'0'
sS'Sub'
p9133
S'4'
sS'Lost'
p9134
S'8'
sS'Drop'
p9135
S'0'
sS'Start'
p9136
S'17'
p9137
sS'Won'
p9138
S'13'
p9139
sS'Draw'
p9140
S'0'
sS'%'
S'61.90'
p9141
sS'Mat'
p9142
S'21'
p9143
sS'Conv'
p9144
S'0'
sS'Tries'
p9145
S'5'
sS'Pts'
p9146
S'25'
p9147
sa(dp9148
S'Pens'
p9149
S'0'
sS'Sub'
p9150
S'2'
sS'Lost'
p9151
S'0'
sS'Drop'
p9152
S'0'
sS'Start'
p9153
S'1'
sS'Won'
p9154
S'3'
sS'Draw'
p9155
S'0'
sS'%'
S'100.00'
p9156
sS'Mat'
p9157
S'3'
sS'Conv'
p9158
S'0'
sS'Tries'
p9159
S'1'
sS'Pts'
p9160
S'5'
sa(dp9161
S'Pens'
p9162
S'0'
sS'Sub'
p9163
S'3'
sS'Lost'
p9164
S'1'
sS'Drop'
p9165
S'0'
sS'Start'
p9166
S'0'
sS'Won'
p9167
S'2'
sS'Draw'
p9168
S'0'
sS'%'
S'66.66'
p9169
sS'Mat'
p9170
S'3'
sS'Conv'
p9171
S'0'
sS'Tries'
p9172
S'0'
sS'Pts'
p9173
S'0'
sa(dp9174
S'Pens'
p9175
S'0'
sS'Sub'
p9176
S'2'
sS'Lost'
p9177
S'1'
sS'Drop'
p9178
S'0'
sS'Start'
p9179
S'0'
sS'Won'
p9180
S'1'
sS'Draw'
p9181
S'0'
sS'%'
S'50.00'
p9182
sS'Mat'
p9183
S'2'
sS'Conv'
p9184
S'0'
sS'Tries'
p9185
S'0'
sS'Pts'
p9186
S'0'
sa(dp9187
S'Pens'
p9188
S'0'
sS'Sub'
p9189
S'0'
sS'Lost'
p9190
S'1'
sS'Drop'
p9191
S'0'
sS'Start'
p9192
S'1'
sS'Won'
p9193
S'0'
sS'Draw'
p9194
S'0'
sS'%'
S'0.00'
p9195
sS'Mat'
p9196
S'1'
sS'Conv'
p9197
S'0'
sS'Tries'
p9198
S'0'
sS'Pts'
p9199
S'0'
sa(dp9200
S'Pens'
p9201
S'0'
sS'Sub'
p9202
S'2'
sS'Lost'
p9203
S'7'
sS'Drop'
p9204
S'0'
sS'Start'
p9205
S'9'
sS'Won'
p9206
S'3'
sS'Draw'
p9207
S'1'
sS'%'
S'31.81'
p9208
sS'Mat'
p9209
S'11'
p9210
sS'Conv'
p9211
S'0'
sS'Tries'
p9212
S'1'
sS'Pts'
p9213
S'5'
sa(dp9214
S'Pens'
p9215
S'0'
sS'Sub'
p9216
S'14'
p9217
sS'Lost'
p9218
S'14'
p9219
sS'Drop'
p9220
S'0'
sS'Start'
p9221
S'16'
p9222
sS'Won'
p9223
S'15'
p9224
sS'Draw'
p9225
S'1'
sS'%'
S'51.66'
p9226
sS'Mat'
p9227
S'30'
p9228
sS'Conv'
p9229
S'0'
sS'Tries'
p9230
S'2'
sS'Pts'
p9231
S'10'
p9232
sa(dp9233
S'Pens'
p9234
S'0'
sS'Sub'
p9235
S'1'
sS'Lost'
p9236
S'1'
sS'Drop'
p9237
S'0'
sS'Start'
p9238
S'0'
sS'Won'
p9239
S'0'
sS'Draw'
p9240
S'0'
sS'%'
S'0.00'
p9241
sS'Mat'
p9242
S'1'
sS'Conv'
p9243
S'0'
sS'Tries'
p9244
S'0'
sS'Pts'
p9245
S'0'
sa(dp9246
S'Pens'
p9247
S'0'
sS'Sub'
p9248
S'0'
sS'Lost'
p9249
S'3'
sS'Drop'
p9250
S'0'
sS'Start'
p9251
S'4'
sS'Won'
p9252
S'1'
sS'Draw'
p9253
S'0'
sS'%'
S'25.00'
p9254
sS'Mat'
p9255
S'4'
sS'Conv'
p9256
S'0'
sS'Tries'
p9257
S'0'
sS'Pts'
p9258
S'0'
sa(dp9259
S'Pens'
p9260
S'0'
sS'Sub'
p9261
S'0'
sS'Lost'
p9262
S'4'
sS'Drop'
p9263
S'0'
sS'Start'
p9264
S'6'
sS'Won'
p9265
S'2'
sS'Draw'
p9266
S'0'
sS'%'
S'33.33'
p9267
sS'Mat'
p9268
S'6'
sS'Conv'
p9269
S'0'
sS'Tries'
p9270
S'1'
sS'Pts'
p9271
S'5'
sa(dp9272
S'Pens'
p9273
S'0'
sS'Sub'
p9274
S'7'
sS'Lost'
p9275
S'3'
sS'Drop'
p9276
S'0'
sS'Start'
p9277
S'4'
sS'Won'
p9278
S'8'
sS'Draw'
p9279
S'0'
sS'%'
S'72.72'
p9280
sS'Mat'
p9281
S'11'
p9282
sS'Conv'
p9283
S'0'
sS'Tries'
p9284
S'2'
sS'Pts'
p9285
S'10'
p9286
sa(dp9287
S'Pens'
p9288
S'0'
sS'Sub'
p9289
S'3'
sS'Lost'
p9290
S'3'
sS'Drop'
p9291
S'0'
sS'Start'
p9292
S'1'
sS'Won'
p9293
S'1'
sS'Draw'
p9294
S'0'
sS'%'
S'25.00'
p9295
sS'Mat'
p9296
S'4'
sS'Conv'
p9297
S'0'
sS'Tries'
p9298
S'0'
sS'Pts'
p9299
S'0'
sa(dp9300
S'Pens'
p9301
S'0'
sS'Sub'
p9302
S'6'
sS'Lost'
p9303
S'11'
p9304
sS'Drop'
p9305
S'0'
sS'Start'
p9306
S'14'
p9307
sS'Won'
p9308
S'9'
sS'Draw'
p9309
S'0'
sS'%'
S'45.00'
p9310
sS'Mat'
p9311
S'20'
p9312
sS'Conv'
p9313
S'0'
sS'Tries'
p9314
S'1'
sS'Pts'
p9315
S'5'
sa(dp9316
S'Pens'
p9317
S'0'
sS'Sub'
p9318
S'6'
sS'Lost'
p9319
S'6'
sS'Drop'
p9320
S'0'
sS'Start'
p9321
S'3'
sS'Won'
p9322
S'3'
sS'Draw'
p9323
S'0'
sS'%'
S'33.33'
p9324
sS'Mat'
p9325
S'9'
sS'Conv'
p9326
S'0'
sS'Tries'
p9327
S'0'
sS'Pts'
p9328
S'0'
sa(dp9329
S'Pens'
p9330
S'0'
sS'Sub'
p9331
S'0'
sS'Lost'
p9332
S'1'
sS'Drop'
p9333
S'0'
sS'Start'
p9334
S'3'
sS'Won'
p9335
S'2'
sS'Draw'
p9336
S'0'
sS'%'
S'66.66'
p9337
sS'Mat'
p9338
S'3'
sS'Conv'
p9339
S'0'
sS'Tries'
p9340
S'1'
sS'Pts'
p9341
S'5'
sa(dp9342
S'Pens'
p9343
S'0'
sS'Sub'
p9344
S'1'
sS'Lost'
p9345
S'4'
sS'Drop'
p9346
S'0'
sS'Start'
p9347
S'7'
sS'Won'
p9348
S'4'
sS'Draw'
p9349
S'0'
sS'%'
S'50.00'
p9350
sS'Mat'
p9351
S'8'
sS'Conv'
p9352
S'0'
sS'Tries'
p9353
S'0'
sS'Pts'
p9354
S'0'
sa(dp9355
S'Pens'
p9356
S'7'
sS'Sub'
p9357
S'1'
sS'Lost'
p9358
S'2'
sS'Drop'
p9359
S'0'
sS'Start'
p9360
S'5'
sS'Won'
p9361
S'4'
sS'Draw'
p9362
S'0'
sS'%'
S'66.66'
p9363
sS'Mat'
p9364
S'6'
sS'Conv'
p9365
S'4'
sS'Tries'
p9366
S'0'
sS'Pts'
p9367
S'29'
p9368
sa(dp9369
S'Pens'
p9370
S'0'
sS'Sub'
p9371
S'2'
sS'Lost'
p9372
S'6'
sS'Drop'
p9373
S'0'
sS'Start'
p9374
S'16'
p9375
sS'Won'
p9376
S'12'
p9377
sS'Draw'
p9378
S'0'
sS'%'
S'66.66'
p9379
sS'Mat'
p9380
S'18'
p9381
sS'Conv'
p9382
S'0'
sS'Tries'
p9383
S'1'
sS'Pts'
p9384
S'5'
sa(dp9385
S'Pens'
p9386
S'0'
sS'Sub'
p9387
S'3'
sS'Lost'
p9388
S'3'
sS'Drop'
p9389
S'0'
sS'Start'
p9390
S'4'
sS'Won'
p9391
S'4'
sS'Draw'
p9392
S'0'
sS'%'
S'57.14'
p9393
sS'Mat'
p9394
S'7'
sS'Conv'
p9395
S'0'
sS'Tries'
p9396
S'2'
sS'Pts'
p9397
S'10'
p9398
sa(dp9399
S'Pens'
p9400
S'0'
sS'Sub'
p9401
S'5'
sS'Lost'
p9402
S'5'
sS'Drop'
p9403
S'0'
sS'Start'
p9404
S'4'
sS'Won'
p9405
S'4'
sS'Draw'
p9406
S'0'
sS'%'
S'44.44'
p9407
sS'Mat'
p9408
S'9'
sS'Conv'
p9409
S'0'
sS'Tries'
p9410
S'1'
sS'Pts'
p9411
S'5'
sa(dp9412
S'Pens'
p9413
S'0'
sS'Sub'
p9414
S'2'
sS'Lost'
p9415
S'6'
sS'Drop'
p9416
S'0'
sS'Start'
p9417
S'11'
p9418
sS'Won'
p9419
S'7'
sS'Draw'
p9420
S'0'
sS'%'
S'53.84'
p9421
sS'Mat'
p9422
S'13'
p9423
sS'Conv'
p9424
S'0'
sS'Tries'
p9425
S'5'
sS'Pts'
p9426
S'25'
p9427
sa(dp9428
S'Pens'
p9429
S'0'
sS'Sub'
p9430
S'1'
sS'Lost'
p9431
S'2'
sS'Drop'
p9432
S'0'
sS'Start'
p9433
S'2'
sS'Won'
p9434
S'1'
sS'Draw'
p9435
S'0'
sS'%'
S'33.33'
p9436
sS'Mat'
p9437
S'3'
sS'Conv'
p9438
S'0'
sS'Tries'
p9439
S'0'
sS'Pts'
p9440
S'0'
sa(dp9441
S'Pens'
p9442
S'0'
sS'Sub'
p9443
S'2'
sS'Lost'
p9444
S'0'
sS'Drop'
p9445
S'0'
sS'Start'
p9446
S'0'
sS'Won'
p9447
S'2'
sS'Draw'
p9448
S'0'
sS'%'
S'100.00'
p9449
sS'Mat'
p9450
S'2'
sS'Conv'
p9451
S'0'
sS'Tries'
p9452
S'0'
sS'Pts'
p9453
S'0'
sa(dp9454
S'Pens'
p9455
S'0'
sS'Sub'
p9456
S'5'
sS'Lost'
p9457
S'3'
sS'Drop'
p9458
S'0'
sS'Start'
p9459
S'3'
sS'Won'
p9460
S'5'
sS'Draw'
p9461
S'0'
sS'%'
S'62.50'
p9462
sS'Mat'
p9463
S'8'
sS'Conv'
p9464
S'0'
sS'Tries'
p9465
S'0'
sS'Pts'
p9466
S'0'
sa(dp9467
S'Pens'
p9468
S'0'
sS'Sub'
p9469
S'9'
sS'Lost'
p9470
S'8'
sS'Drop'
p9471
S'0'
sS'Start'
p9472
S'10'
p9473
sS'Won'
p9474
S'11'
p9475
sS'Draw'
p9476
S'0'
sS'%'
S'57.89'
p9477
sS'Mat'
p9478
S'19'
p9479
sS'Conv'
p9480
S'0'
sS'Tries'
p9481
S'0'
sS'Pts'
p9482
S'0'
sa(dp9483
S'Pens'
p9484
S'0'
sS'Sub'
p9485
S'2'
sS'Lost'
p9486
S'2'
sS'Drop'
p9487
S'0'
sS'Start'
p9488
S'0'
sS'Won'
p9489
S'0'
sS'Draw'
p9490
S'0'
sS'%'
S'0.00'
p9491
sS'Mat'
p9492
S'2'
sS'Conv'
p9493
S'0'
sS'Tries'
p9494
S'0'
sS'Pts'
p9495
S'0'
sa(dp9496
S'Pens'
p9497
S'1'
sS'Sub'
p9498
S'2'
sS'Lost'
p9499
S'7'
sS'Drop'
p9500
S'1'
sS'Start'
p9501
S'11'
p9502
sS'Won'
p9503
S'6'
sS'Draw'
p9504
S'0'
sS'%'
S'46.15'
p9505
sS'Mat'
p9506
S'13'
p9507
sS'Conv'
p9508
S'1'
sS'Tries'
p9509
S'7'
sS'Pts'
p9510
S'43'
p9511
sa(dp9512
S'Pens'
p9513
S'0'
sS'Sub'
p9514
S'1'
sS'Lost'
p9515
S'0'
sS'Drop'
p9516
S'0'
sS'Start'
p9517
S'0'
sS'Won'
p9518
S'1'
sS'Draw'
p9519
S'0'
sS'%'
S'100.00'
p9520
sS'Mat'
p9521
S'1'
sS'Conv'
p9522
S'0'
sS'Tries'
p9523
S'1'
sS'Pts'
p9524
S'5'
sa(dp9525
S'Pens'
p9526
S'0'
sS'Sub'
p9527
S'1'
sS'Lost'
p9528
S'0'
sS'Drop'
p9529
S'0'
sS'Start'
p9530
S'0'
sS'Won'
p9531
S'1'
sS'Draw'
p9532
S'0'
sS'%'
S'100.00'
p9533
sS'Mat'
p9534
S'1'
sS'Conv'
p9535
S'0'
sS'Tries'
p9536
S'0'
sS'Pts'
p9537
S'0'
sa(dp9538
S'Pens'
p9539
S'0'
sS'Sub'
p9540
S'1'
sS'Lost'
p9541
S'5'
sS'Drop'
p9542
S'0'
sS'Start'
p9543
S'13'
p9544
sS'Won'
p9545
S'9'
sS'Draw'
p9546
S'0'
sS'%'
S'64.28'
p9547
sS'Mat'
p9548
S'14'
p9549
sS'Conv'
p9550
S'0'
sS'Tries'
p9551
S'0'
sS'Pts'
p9552
S'0'
sa(dp9553
S'Pens'
p9554
S'0'
sS'Sub'
p9555
S'1'
sS'Lost'
p9556
S'1'
sS'Drop'
p9557
S'0'
sS'Start'
p9558
S'1'
sS'Won'
p9559
S'1'
sS'Draw'
p9560
S'0'
sS'%'
S'50.00'
p9561
sS'Mat'
p9562
S'2'
sS'Conv'
p9563
S'0'
sS'Tries'
p9564
S'0'
sS'Pts'
p9565
S'0'
sa(dp9566
S'Pens'
p9567
S'0'
sS'Sub'
p9568
S'10'
p9569
sS'Lost'
p9570
S'6'
sS'Drop'
p9571
S'0'
sS'Start'
p9572
S'7'
sS'Won'
p9573
S'11'
p9574
sS'Draw'
p9575
S'0'
sS'%'
S'64.70'
p9576
sS'Mat'
p9577
S'17'
p9578
sS'Conv'
p9579
S'0'
sS'Tries'
p9580
S'0'
sS'Pts'
p9581
S'0'
sa(dp9582
S'Pens'
p9583
S'0'
sS'Sub'
p9584
S'3'
sS'Lost'
p9585
S'2'
sS'Drop'
p9586
S'0'
sS'Start'
p9587
S'3'
sS'Won'
p9588
S'4'
sS'Draw'
p9589
S'0'
sS'%'
S'66.66'
p9590
sS'Mat'
p9591
S'6'
sS'Conv'
p9592
S'0'
sS'Tries'
p9593
S'0'
sS'Pts'
p9594
S'0'
sa(dp9595
S'Pens'
p9596
S'0'
sS'Sub'
p9597
S'1'
sS'Lost'
p9598
S'1'
sS'Drop'
p9599
S'0'
sS'Start'
p9600
S'0'
sS'Won'
p9601
S'0'
sS'Draw'
p9602
S'0'
sS'%'
S'0.00'
p9603
sS'Mat'
p9604
S'1'
sS'Conv'
p9605
S'0'
sS'Tries'
p9606
S'0'
sS'Pts'
p9607
S'0'
sa(dp9608
S'Pens'
p9609
S'0'
sS'Sub'
p9610
S'3'
sS'Lost'
p9611
S'1'
sS'Drop'
p9612
S'0'
sS'Start'
p9613
S'2'
sS'Won'
p9614
S'4'
sS'Draw'
p9615
S'0'
sS'%'
S'80.00'
p9616
sS'Mat'
p9617
S'5'
sS'Conv'
p9618
S'0'
sS'Tries'
p9619
S'1'
sS'Pts'
p9620
S'5'
sa(dp9621
S'Pens'
p9622
S'0'
sS'Sub'
p9623
S'1'
sS'Lost'
p9624
S'1'
sS'Drop'
p9625
S'0'
sS'Start'
p9626
S'2'
sS'Won'
p9627
S'2'
sS'Draw'
p9628
S'0'
sS'%'
S'66.66'
p9629
sS'Mat'
p9630
S'3'
sS'Conv'
p9631
S'0'
sS'Tries'
p9632
S'0'
sS'Pts'
p9633
S'0'
sa(dp9634
S'Pens'
p9635
S'0'
sS'Sub'
p9636
S'2'
sS'Lost'
p9637
S'1'
sS'Drop'
p9638
S'0'
sS'Start'
p9639
S'1'
sS'Won'
p9640
S'2'
sS'Draw'
p9641
S'0'
sS'%'
S'66.66'
p9642
sS'Mat'
p9643
S'3'
sS'Conv'
p9644
S'1'
sS'Tries'
p9645
S'0'
sS'Pts'
p9646
S'2'
sa(dp9647
S'Pens'
p9648
S'0'
sS'Sub'
p9649
S'2'
sS'Lost'
p9650
S'1'
sS'Drop'
p9651
S'0'
sS'Start'
p9652
S'0'
sS'Won'
p9653
S'1'
sS'Draw'
p9654
S'0'
sS'%'
S'50.00'
p9655
sS'Mat'
p9656
S'2'
sS'Conv'
p9657
S'0'
sS'Tries'
p9658
S'1'
sS'Pts'
p9659
S'5'
sa(dp9660
S'Pens'
p9661
S'0'
sS'Sub'
p9662
S'2'
sS'Lost'
p9663
S'1'
sS'Drop'
p9664
S'0'
sS'Start'
p9665
S'0'
sS'Won'
p9666
S'1'
sS'Draw'
p9667
S'0'
sS'%'
S'50.00'
p9668
sS'Mat'
p9669
S'2'
sS'Conv'
p9670
S'0'
sS'Tries'
p9671
S'0'
sS'Pts'
p9672
S'0'
sa(dp9673
S'Pens'
p9674
S'0'
sS'Sub'
p9675
S'0'
sS'Lost'
p9676
S'4'
sS'Drop'
p9677
S'0'
sS'Start'
p9678
S'9'
sS'Won'
p9679
S'5'
sS'Draw'
p9680
S'0'
sS'%'
S'55.55'
p9681
sS'Mat'
p9682
S'9'
sS'Conv'
p9683
S'0'
sS'Tries'
p9684
S'2'
sS'Pts'
p9685
S'10'
p9686
sa(dp9687
S'Pens'
p9688
S'0'
sS'Sub'
p9689
S'1'
sS'Lost'
p9690
S'1'
sS'Drop'
p9691
S'0'
sS'Start'
p9692
S'1'
sS'Won'
p9693
S'1'
sS'Draw'
p9694
S'0'
sS'%'
S'50.00'
p9695
sS'Mat'
p9696
S'2'
sS'Conv'
p9697
S'0'
sS'Tries'
p9698
S'1'
sS'Pts'
p9699
S'5'
sa(dp9700
S'Pens'
p9701
S'0'
sS'Sub'
p9702
S'2'
sS'Lost'
p9703
S'0'
sS'Drop'
p9704
S'0'
sS'Start'
p9705
S'0'
sS'Won'
p9706
S'2'
sS'Draw'
p9707
S'0'
sS'%'
S'100.00'
p9708
sS'Mat'
p9709
S'2'
sS'Conv'
p9710
S'0'
sS'Tries'
p9711
S'0'
sS'Pts'
p9712
S'0'
sa(dp9713
S'Pens'
p9714
S'0'
sS'Sub'
p9715
S'1'
sS'Lost'
p9716
S'0'
sS'Drop'
p9717
S'0'
sS'Start'
p9718
S'1'
sS'Won'
p9719
S'2'
sS'Draw'
p9720
S'0'
sS'%'
S'100.00'
p9721
sS'Mat'
p9722
S'2'
sS'Conv'
p9723
S'0'
sS'Tries'
p9724
S'0'
sS'Pts'
p9725
S'0'
sa(dp9726
S'Pens'
p9727
S'0'
sS'Sub'
p9728
S'3'
sS'Lost'
p9729
S'2'
sS'Drop'
p9730
S'0'
sS'Start'
p9731
S'1'
sS'Won'
p9732
S'2'
sS'Draw'
p9733
S'0'
sS'%'
S'50.00'
p9734
sS'Mat'
p9735
S'4'
sS'Conv'
p9736
S'0'
sS'Tries'
p9737
S'0'
sS'Pts'
p9738
S'0'
sa(dp9739
S'Pens'
p9740
S'0'
sS'Sub'
p9741
S'5'
sS'Lost'
p9742
S'2'
sS'Drop'
p9743
S'0'
sS'Start'
p9744
S'0'
sS'Won'
p9745
S'3'
sS'Draw'
p9746
S'0'
sS'%'
S'60.00'
p9747
sS'Mat'
p9748
S'5'
sS'Conv'
p9749
S'0'
sS'Tries'
p9750
S'0'
sS'Pts'
p9751
S'0'
sa(dp9752
S'Pens'
p9753
S'0'
sS'Sub'
p9754
S'1'
sS'Lost'
p9755
S'0'
sS'Drop'
p9756
S'0'
sS'Start'
p9757
S'0'
sS'Won'
p9758
S'1'
sS'Draw'
p9759
S'0'
sS'%'
S'100.00'
p9760
sS'Mat'
p9761
S'1'
sS'Conv'
p9762
S'0'
sS'Tries'
p9763
S'1'
sS'Pts'
p9764
S'5'
sa(dp9765
S'Pens'
p9766
S'0'
sS'Sub'
p9767
S'0'
sS'Lost'
p9768
S'1'
sS'Drop'
p9769
S'0'
sS'Start'
p9770
S'1'
sS'Won'
p9771
S'0'
sS'Draw'
p9772
S'0'
sS'%'
S'0.00'
p9773
sS'Mat'
p9774
S'1'
sS'Conv'
p9775
S'0'
sS'Tries'
p9776
S'1'
sS'Pts'
p9777
S'5'
sa(dp9778
S'Pens'
p9779
S'0'
sS'Sub'
p9780
S'3'
sS'Lost'
p9781
S'2'
sS'Drop'
p9782
S'0'
sS'Start'
p9783
S'0'
sS'Won'
p9784
S'1'
sS'Draw'
p9785
S'0'
sS'%'
S'33.33'
p9786
sS'Mat'
p9787
S'3'
sS'Conv'
p9788
S'0'
sS'Tries'
p9789
S'0'
sS'Pts'
p9790
S'0'
sa(dp9791
S'Pens'
p9792
S'0'
sS'Sub'
p9793
S'1'
sS'Lost'
p9794
S'0'
sS'Drop'
p9795
S'0'
sS'Start'
p9796
S'0'
sS'Won'
p9797
S'1'
sS'Draw'
p9798
S'0'
sS'%'
S'100.00'
p9799
sS'Mat'
p9800
S'1'
sS'Conv'
p9801
S'0'
sS'Tries'
p9802
S'0'
sS'Pts'
p9803
S'0'
sa.