(lp1
Vdate unknown
p2
aVdate unknown
p3
aVFebruary 9, 1878, Florencia Varela
p4
aVdate unknown
p5
aVApril 25, 1872, Worcester, Cape Prov
p6
aVdate unknown
p7
aVFebruary 1, 1882, Manila, Philippine
p8
aVdate unknown
p9
aVdate unknown
p10
aVdate unknown
p11
aVdate unknown
p12
aVdate unknown
p13
aV(guess: regd Q3), Reigate, Surrey
p14
aVdate unknown
p15
aVdate unknown
p16
aVdate unknown
p17
aVdate unknown
p18
aVdate unknown
p19
aVdate unknown
p20
aVdate unknown
p21
aVdate unknown
p22
aVdate unknown
p23
aVdate unknown
p24
aVdate unknown
p25
aVdate unknown
p26
aVdate unknown
p27
aVMay 26, 1907, Buenos Aires
p28
aVdate unknown
p29
aVdate unknown
p30
aVdate unknown
p31
aVdate unknown
p32
aVdate unknown
p33
aVdate unknown
p34
aVdate unknown
p35
aVdate unknown
p36
aVdate unknown
p37
aVdate unknown
p38
aVdate unknown
p39
aVdate unknown
p40
aVdate unknown
p41
aVdate unknown
p42
aVdate unknown
p43
aVdate unknown
p44
aVdate unknown
p45
aVdate unknown
p46
aVdate unknown
p47
aVdate unknown
p48
aVdate unknown
p49
aVdate unknown
p50
aVdate unknown
p51
aVdate unknown
p52
aVdate unknown
p53
aVdate unknown
p54
aVdate unknown
p55
aVdate unknown
p56
aVdate unknown
p57
aVdate unknown
p58
aVdate unknown
p59
aVdate unknown
p60
aVdate unknown
p61
aVdate unknown
p62
aVdate unknown
p63
aVdate unknown
p64
aVdate unknown
p65
aVdate unknown
p66
aVdate unknown
p67
aVdate unknown
p68
aVdate unknown
p69
aVdate unknown
p70
aVdate unknown
p71
aVdate unknown
p72
aVdate unknown
p73
aVdate unknown
p74
aVdate unknown
p75
aVdate unknown
p76
aVdate unknown
p77
aVdate unknown
p78
aVdate unknown
p79
aVdate unknown
p80
aVdate unknown
p81
aVdate unknown
p82
aVdate unknown
p83
aVdate unknown
p84
aVdate unknown
p85
aVdate unknown
p86
aVdate unknown
p87
aVdate unknown
p88
aVdate unknown
p89
aVdate unknown
p90
aVdate unknown
p91
aVdate unknown
p92
aVdate unknown
p93
aVJuly 31, 1925, Parana
p94
aVdate unknown
p95
aVdate unknown
p96
aVSeptember 13, 1925, Buenos Aires
p97
aVdate unknown
p98
aVdate unknown
p99
aVdate unknown
p100
aVdate unknown
p101
aVdate unknown
p102
aVdate unknown
p103
aVdate unknown
p104
aVdate unknown
p105
aVdate unknown
p106
aVdate unknown
p107
aVdate unknown
p108
aVdate unknown
p109
aVdate unknown
p110
aVdate unknown
p111
aVdate unknown
p112
aVdate unknown
p113
aVdate unknown
p114
aVdate unknown
p115
aVdate unknown
p116
aVdate unknown
p117
aVdate unknown
p118
aVdate unknown
p119
aVJanuary 6, 1928, Buenos Aires
p120
aVdate unknown
p121
aVSeptember 9, 1921
p122
aVdate unknown
p123
aVdate unknown
p124
aVdate unknown
p125
aVdate unknown
p126
aVdate unknown
p127
aVdate unknown
p128
aVdate unknown
p129
aVdate unknown
p130
aVdate unknown
p131
aVdate unknown
p132
aVdate unknown
p133
aVdate unknown
p134
aVdate unknown
p135
aVdate unknown
p136
aVdate unknown
p137
aVdate unknown
p138
aVdate unknown
p139
aVdate unknown
p140
aVdate unknown
p141
aVdate unknown
p142
aVdate unknown
p143
aVdate unknown
p144
aVdate unknown
p145
aVdate unknown
p146
aVdate unknown
p147
aVdate unknown
p148
aVdate unknown
p149
aVdate unknown
p150
aVdate unknown
p151
aVdate unknown
p152
aVdate unknown
p153
aVdate unknown
p154
aVdate unknown
p155
aVdate unknown
p156
aVdate unknown
p157
aVdate unknown
p158
aVdate unknown
p159
aVdate unknown
p160
aVdate unknown
p161
aVdate unknown
p162
aVdate unknown
p163
aVdate unknown
p164
aVdate unknown
p165
aVdate unknown
p166
aVdate unknown
p167
aVdate unknown
p168
aVdate unknown
p169
aVdate unknown
p170
aVdate unknown
p171
aVdate unknown
p172
aVdate unknown
p173
aVdate unknown
p174
aVdate unknown
p175
aVdate unknown
p176
aVdate unknown
p177
aVdate unknown
p178
aVdate unknown
p179
aVdate unknown
p180
aVdate unknown
p181
aVdate unknown
p182
aVdate unknown
p183
aVdate unknown
p184
aVdate unknown
p185
aVdate unknown
p186
aVdate unknown
p187
aVdate unknown
p188
aVdate unknown
p189
aVdate unknown
p190
aVdate unknown
p191
aVJanuary 29, 1938
p192
aVdate unknown
p193
aVdate unknown
p194
aVdate unknown
p195
aVJuly 30, 1939, Buenos Aires
p196
aVdate unknown
p197
aVdate unknown
p198
aVdate unknown
p199
aVdate unknown
p200
aVdate unknown
p201
aVdate unknown
p202
aVdate unknown
p203
aVdate unknown
p204
aVdate unknown
p205
aVdate unknown
p206
aVdate unknown
p207
aVdate unknown
p208
aVcirca 1942
p209
aVdate unknown
p210
aVdate unknown
p211
aVdate unknown
p212
aVdate unknown
p213
aVdate unknown
p214
aVdate unknown
p215
aVdate unknown
p216
aVdate unknown
p217
aVdate unknown
p218
aVdate unknown
p219
aVdate unknown
p220
aVdate unknown
p221
aVdate unknown
p222
aVdate unknown
p223
aVdate unknown
p224
aVdate unknown
p225
aVdate unknown
p226
aVdate unknown
p227
aVdate unknown
p228
aVdate unknown
p229
aVdate unknown
p230
aVdate unknown
p231
aVcirca 1944
p232
aVcirca 1945
p233
aVdate unknown
p234
aVdate unknown
p235
aVdate unknown
p236
aVdate unknown
p237
aVdate unknown
p238
aVdate unknown
p239
aVdate unknown
p240
aVdate unknown
p241
aVcirca 1945
p242
aVdate unknown
p243
aVcirca 1947
p244
aVdate unknown
p245
aVdate unknown
p246
aVdate unknown
p247
aVdate unknown
p248
aVdate unknown
p249
aVdate unknown
p250
aVdate unknown
p251
aVdate unknown
p252
aVdate unknown
p253
aVdate unknown
p254
aVdate unknown
p255
aVdate unknown
p256
aVdate unknown
p257
aVdate unknown
p258
aVdate unknown
p259
aVdate unknown
p260
aVcirca 1949
p261
aVdate unknown
p262
aVcirca 1947
p263
aVcirca 1946
p264
aVdate unknown
p265
aVdate unknown
p266
aVcirca 1947
p267
aVdate unknown
p268
aVdate unknown
p269
aVdate unknown
p270
aVdate unknown
p271
aVdate unknown
p272
aVSeptember 11, 1951, Buenos Aires
p273
aVdate unknown
p274
aVdate unknown
p275
aVcirca 1946
p276
aVdate unknown
p277
aVdate unknown
p278
aVdate unknown
p279
aVcirca 1952
p280
aVcirca 1945
p281
aVdate unknown
p282
aVdate unknown
p283
aVdate unknown
p284
aVdate unknown
p285
aVdate unknown
p286
aVdate unknown
p287
aVcirca 1949
p288
aVdate unknown
p289
aVcirca 1951
p290
aVdate unknown
p291
aVdate unknown
p292
aVcirca 1951
p293
aVdate unknown
p294
aVdate unknown
p295
aVdate unknown
p296
aVdate unknown
p297
aVdate unknown
p298
aVdate unknown
p299
aVNovember 6, 1956
p300
aVcirca 1953
p301
aVcirca 1953
p302
aVdate unknown
p303
aVdate unknown
p304
aVdate unknown
p305
aVdate unknown
p306
aVdate unknown
p307
aVdate unknown
p308
aVdate unknown
p309
aVdate unknown
p310
aVdate unknown
p311
aVcirca 1955
p312
aVdate unknown
p313
aVdate unknown
p314
aVMay 21, 1953, Buenos Aires
p315
aVcirca 1955
p316
aVcirca 1954
p317
aVcirca 1954, Santa Fe
p318
aVcirca 1955
p319
aVdate unknown
p320
aVdate unknown
p321
aVMay 21, 1953, Buenos Aires
p322
aVSeptember 20, 1957
p323
aVcirca 1954
p324
aVcirca 1953
p325
aVcirca 1949
p326
aVdate unknown
p327
aVdate unknown
p328
aVcirca 1959
p329
aVdate unknown
p330
aVdate unknown
p331
aVdate unknown
p332
aVdate unknown
p333
aVdate unknown
p334
aVdate unknown
p335
aVdate unknown
p336
aVdate unknown
p337
aVdate unknown
p338
aVcirca 1957
p339
aVMay 17, 1959, Buenos Aires
p340
aVJuly 16, 1958
p341
aVcirca 1957
p342
aVcirca 1958
p343
aVdate unknown
p344
aVcirca 1953
p345
aVcirca 1958
p346
aVcirca 1957
p347
aVJune 20, 1952, Cordoba
p348
aVcirca 1959
p349
aVdate unknown
p350
aVdate unknown
p351
aVdate unknown
p352
aVdate unknown
p353
aVdate unknown
p354
aVdate unknown
p355
aVdate unknown
p356
aVdate unknown
p357
aVdate unknown
p358
aVdate unknown
p359
aVdate unknown
p360
aVdate unknown
p361
aVdate unknown
p362
aVdate unknown
p363
aVdate unknown
p364
aVNovember 6, 1957
p365
aVcirca 1956
p366
aVcirca 1959
p367
aVJuly 12, 1956, Vicente Lopez
p368
aVdate unknown
p369
aVdate unknown
p370
aVdate unknown
p371
aVFebruary 11, 1961, Rosario
p372
aVdate unknown
p373
aVSeptember 21, 1961, Buenos Aires
p374
aVdate unknown
p375
aVdate unknown
p376
aVdate unknown
p377
aVdate unknown
p378
aVdate unknown
p379
aVJanuary 20, 1963, Buenos Aires
p380
aVdate unknown
p381
aVdate unknown
p382
aVdate unknown
p383
aVJune 7, 1963
p384
aVJanuary 28, 1961
p385
aVApril 14, 1962
p386
aVcirca 1961
p387
aVdate unknown
p388
aVdate unknown
p389
aVdate unknown
p390
aVdate unknown
p391
aVdate unknown
p392
aVAugust 10, 1961, Buenos Aires
p393
aVJune 7, 1963
p394
aVJanuary 12, 1965
p395
aVJuly 13, 1965, Buenos Aires
p396
aVdate unknown
p397
aVdate unknown
p398
aVNovember 3, 1959, San Miguel de Tucuma
p399
aVJuly 28, 1962
p400
aVdate unknown
p401
aVdate unknown
p402
aVOctober 29, 1962
p403
aVdate unknown
p404
aVcirca 1963
p405
aVcirca 1963
p406
aVApril 5, 1967, Buenos Aires
p407
aVcirca 1962
p408
aVJanuary 10, 1965, La Plata
p409
aVJune 26, 1966, San Miguel de Tucuma
p410
aVdate unknown
p411
aVApril 10, 1963
p412
aVdate unknown
p413
aVcirca 1963
p414
aVdate unknown
p415
aVdate unknown
p416
aVApril 27, 1967, Rosario
p417
aVJanuary 30, 1966
p418
aVApril 14, 1966, Buenos Aires
p419
aVcirca 1962
p420
aVdate unknown
p421
aVJanuary 25, 1968, San Miguel de Tucuma
p422
aVJune 22, 1967
p423
aVdate unknown
p424
aVdate unknown
p425
aVcirca 1967
p426
aVJune 4, 1967
p427
aVcirca 1965
p428
aVcirca 1966
p429
aVMarch 27, 1963, San Miguel de Tucuma
p430
aVcirca 1965
p431
aVcirca 1969
p432
aVMay 15, 1970, Buenos Aires
p433
aVdate unknown
p434
aVOctober 24, 1971, Lomas de Zamora
p435
aVdate unknown
p436
aVOctober 9, 1967
p437
aVdate unknown
p438
aVApril 25, 1966, Cordoba
p439
aVdate unknown
p440
aVDecember 10, 1962
p441
aVJune 4, 1962
p442
aVdate unknown
p443
aVdate unknown
p444
aVApril 29, 1968, Buenos Aires
p445
aVcirca 1964
p446
aVJuly 28, 1959, Buenos Aires
p447
aVFebruary 5, 1968
p448
aVdate unknown
p449
aVJanuary 11, 1965, Buenos Aires
p450
aVOctober 13, 1965, San Miguel de Tucuma
p451
aVMay 27, 1968, Junin
p452
aVJune 23, 1967
p453
aVAugust 2, 1972, Mendoza
p454
aVJanuary 2, 1971, Buenos Aires
p455
aVSeptember 29, 1971, Buenos Aires
p456
aVDecember 19, 1970, Buenos Aires
p457
aVdate unknown
p458
aVDecember 14, 1963, Rosario
p459
aVMay 21, 1963, San Miguel de Tucuma
p460
aVJuly 25, 1969, San Miguel de Tucuma
p461
aVdate unknown
p462
aVdate unknown
p463
aVdate unknown
p464
aVdate unknown
p465
aVdate unknown
p466
aVdate unknown
p467
aVdate unknown
p468
aVdate unknown
p469
aVdate unknown
p470
aVNovember 1, 1968, Rosario
p471
aVOctober 26, 1970, Buenos Aires
p472
aVOctober 2, 1965
p473
aVdate unknown
p474
aVdate unknown
p475
aVOctober 22, 1971, Buenos Aires
p476
aVdate unknown
p477
aVOctober 19, 1967, Buenos Aires
p478
aVAugust 9, 1962, Buenos Aires
p479
aVOctober 5, 1971, Mendoza
p480
aVSeptember 10, 1970, Buenos Aires
p481
aVJuly 2, 1965, Buenos Aires
p482
aVdate unknown
p483
aVdate unknown
p484
aVdate unknown
p485
aVMay 30, 1971
p486
aVJanuary 23, 1971
p487
aVdate unknown
p488
aVJuly 16, 1970, Buenos Aires
p489
aVMay 22, 1969
p490
aVdate unknown
p491
aVdate unknown
p492
aVAugust 10, 1968, Buenos Aires
p493
aVdate unknown
p494
aVNovember 4, 1967, Buenos Aires
p495
aVdate unknown
p496
aVdate unknown
p497
aVAugust 10, 1970, Cordoba
p498
aVdate unknown
p499
aVdate unknown
p500
aVNovember 25, 1972, Buenos Aires
p501
aVSeptember 23, 1968, Maryland, United States
p502
aVdate unknown
p503
aVOctober 30, 1970
p504
aVDecember 28, 1972, Buenos Aires
p505
aVSeptember 17, 1973, Mar del Plata
p506
aVJune 27, 1969, Rosario
p507
aVApril 21, 1971, Tucuman
p508
aVdate unknown
p509
aVJanuary 16, 1971, Rosario
p510
aVAugust 22, 1974, Buenos Aires
p511
aVApril 17, 1973, Rosario
p512
aVNovember 8, 1971
p513
aVdate unknown
p514
aVOctober 9, 1967
p515
aVdate unknown
p516
aVMay 9, 1973, Rosario
p517
aVJanuary 24, 1971
p518
aVFebruary 22, 1970, Bragado
p519
aVdate unknown
p520
aVMay 4, 1973, Cordoba
p521
aVMay 4, 1973
p522
aVMarch 8, 1975, Rosario
p523
aVNovember 20, 1974, Buenos Aires
p524
aVNovember 3, 1974, Rosario
p525
aVNovember 30, 1968
p526
aVMay 2, 1974, Buenos Aires
p527
aVFebruary 5, 1976, Buenos Aires
p528
aVOctober 16, 1974, Buenos Aires
p529
aVApril 6, 1974, Buenos Aires
p530
aVNovember 11, 1973
p531
aVJanuary 12, 1972
p532
aVJanuary 3, 1973, Buenos Aires
p533
aVMay 17, 1973, Buenos Aires
p534
aVApril 26, 1976, Rosario
p535
aVJanuary 14, 1976
p536
aVOctober 13, 1974, Rosario
p537
aVJanuary 10, 1975, Mendoza
p538
aVdate unknown
p539
aVdate unknown
p540
aVDecember 11, 1976, Cordoba
p541
aVdate unknown
p542
aVdate unknown
p543
aVdate unknown
p544
aVNovember 15, 1974, Salta
p545
aVdate unknown
p546
aVdate unknown
p547
aVdate unknown
p548
aVdate unknown
p549
aVdate unknown
p550
aVOctober 10, 1973, La Prida
p551
aVdate unknown
p552
aVJuly 2, 1972, Buenos Aires
p553
aVNovember 7, 1974, Buenos Aires
p554
aVMarch 31, 1974, San Isidro
p555
aVdate unknown
p556
aVdate unknown
p557
aVdate unknown
p558
aVMay 30, 1976, Buenos Aires
p559
aVdate unknown
p560
aVAugust 14, 1973, Mar del Plata
p561
aVdate unknown
p562
aVdate unknown
p563
aVAugust 8, 1975, Rosario
p564
aVAugust 20, 1977, Buenos Aires
p565
aVJune 15, 1977, Buenos Aires
p566
aVJune 21, 1978, Buenos Aires
p567
aVdate unknown
p568
aVdate unknown
p569
aVFebruary 16, 1977, Buenos Aires
p570
aVdate unknown
p571
aVDecember 17, 1976, Bahia Blanca
p572
aVdate unknown
p573
aVdate unknown
p574
aVdate unknown
p575
aVOctober 26, 1972
p576
aVdate unknown
p577
aVdate unknown
p578
aVdate unknown
p579
aVdate unknown
p580
aVJuly 22, 1974, Quilmes
p581
aVJuly 3, 1975, Cordoba
p582
aVApril 21, 1973, Buenos Aires
p583
aVdate unknown
p584
aVdate unknown
p585
aVAugust 20, 1977, Buenos Aires
p586
aVdate unknown
p587
aVdate unknown
p588
aVdate unknown
p589
aVJune 15, 1978, Parana
p590
aVMarch 14, 1974, San Isidro
p591
aVMay 3, 1976, Buenos Aires
p592
aVApril 18, 1977, Buenos Aires
p593
aVJuly 31, 1974, Tucuman
p594
aVMay 8, 1975, Tucuman
p595
aVMay 5, 1975, Buenos Aires
p596
aVdate unknown
p597
aVDecember 6, 1976, Tucuman
p598
aVJune 24, 1972, Rosario
p599
aVdate unknown
p600
aVMarch 26, 1975, La Plata
p601
aVMay 3, 1978, S.C.de la Sierra, Bolivia
p602
aVOctober 23, 1979, Buenos Aires
p603
aVMay 4, 1976, Rosario
p604
aVOctober 22, 1976, La Plata
p605
aVMarch 20, 1978, Cordoba
p606
aVOctober 1, 1977, Buenos Aires
p607
aVJuly 31, 1974, Rosario
p608
aVAugust 21, 1979, Rosario
p609
aVDecember 15, 1976, Cordoba
p610
aVFebruary 9, 1981, Buenos Aires
p611
aVJanuary 17, 1980, Buenos Aires
p612
aVSeptember 20, 1977, Mendoza
p613
aVJanuary 15, 1982, Mendoza
p614
aVAugust 7, 1982, Buenos Aires
p615
aVMay 27, 1979, Catamarca
p616
aVdate unknown
p617
aVSeptember 13, 1975, San Juan
p618
aVMay 3, 1979
p619
aVdate unknown
p620
aVdate unknown
p621
aVOctober 3, 1979, Buenos Aires
p622
aVJune 27, 1979, Buenos Aires
p623
aVJanuary 20, 1980, La Plata
p624
aVDecember 31, 1982, Buenos Aires
p625
aVJuly 15, 1982, Don Torcuato
p626
aVJanuary 1, 1982, Tucuman
p627
aVJuly 3, 1981, Mendoza
p628
aVApril 14, 1976, Buenos Aires
p629
aVSeptember 8, 1977, Cordoba
p630
aVNovember 19, 1981, Buenos Aires
p631
aVFebruary 26, 1982, Tucuman
p632
aVOctober 14, 1980, Salta
p633
aVMarch 24, 1979, Mendoza
p634
aVJune 3, 1976, Lomas de Zamora
p635
aVAugust 28, 1979, Buenos Aires
p636
aVMay 5, 1974, San Fernando
p637
aVApril 24, 1985, Buenos Aires
p638
aVJanuary 12, 1983, Buenos Aires
p639
aVAugust 23, 1984, Rosario
p640
aVJune 8, 1982, Buenos Aires
p641
aVJuly 18, 1981, Buenos Aires
p642
aVJune 6, 1983, Santiago del Estero
p643
aVMarch 15, 1985, La Plata
p644
aVOctober 22, 1984, Buenos Aires
p645
aVJune 15, 1978
p646
aVDecember 21, 1982, Buenos Aires
p647
aVMay 12, 1980, Buenos Aires
p648
aVOctober 1, 1985, Mendoza
p649
aVAugust 22, 1975, La Plata
p650
aVAugust 20, 1983, Rosario
p651
aVOctober 16, 1981, Buenos Aires
p652
aVMay 5, 1980, Tucuman
p653
aVJanuary 8, 1982, Brussels
p654
aVMarch 27, 1984, Buenos Aires
p655
aVMay 31, 1982, Buenos Aires
p656
aVJuly 22, 1981, Cordoba
p657
aVJanuary 7, 1984, Buenos Aires
p658
aVApril 13, 1985, San Fernando
p659
aVJanuary 10, 1985, Rosario
p660
aVJune 5, 1983, Buenos Aires
p661
aVOctober 20, 1987, San Miguel de Tucuma
p662
aVJuly 24, 1976
p663
aVJanuary 26, 1984, San Miguel de Tucuma
p664
aVDecember 21, 1983, Buenos Aires
p665
aVApril 6, 1987, Buenos Aires
p666
aVdate unknown
p667
aVMay 27, 1981, Buenos Aires
p668
aVMarch 11, 1986, Buenos Aires
p669
aVMarch 10, 1985, La Plata
p670
aVApril 21, 1983, Buenos Aires
p671
aVFebruary 10, 1976
p672
aVJune 6, 1980, Buenos Aires
p673
aVNovember 2, 1985, Buenos Aires
p674
aVNovember 5, 1986, La Plata
p675
aVdate unknown
p676
aVJuly 16, 1981, Tucuman
p677
aVNovember 21, 1983, Cordoba
p678
aVAugust 28, 1984, Buenos Aires
p679
aVJuly 12, 1983, Buenos Aires
p680
aVMarch 3, 1982, Buenos Aires
p681
aVJuly 3, 1985
p682
aVDecember 9, 1980, Tucuman
p683
aVdate unknown
p684
aVMay 13, 1984, Rosario
p685
aVApril 4, 1983, Tucuman
p686
aVJanuary 21, 1983, Buenos Aires
p687
aVAugust 1, 1983, Rosario
p688
aVJune 6, 1977, San Miguel de Tucuma
p689
aVJuly 2, 1985, Buenos Aires
p690
aVMarch 3, 1983, Buenos Aires
p691
aVJuly 12, 1985, Cordoba
p692
aVMay 8, 1982, Buenos Aires
p693
aVMay 5, 1988, Rosario
p694
aVJuly 1, 1987, Buenos Aires
p695
aVMay 10, 1985, Cordoba
p696
aVJune 27, 1988, Buenos Aires
p697
aVJanuary 28, 1988, La Plata
p698
aVJune 14, 1988, Buenos Aires
p699
aVAugust 9, 1988, Buenos Aires
p700
aVJune 20, 1983, Mendoza
p701
aVNovember 28, 1985, Buenos Aires
p702
aVJanuary 27, 1985, Buenos Aires
p703
aVMay 20, 1988, Buenos Aires
p704
aVOctober 28, 1988, Buenos Aires
p705
aVMay 15, 1987, Cordoba
p706
aVMay 10, 1982, Cordoba
p707
aVJune 16, 1988, Buenos Aires
p708
aVMay 11, 1988, Rosario
p709
aVJanuary 10, 1986, Tucuman
p710
aVMarch 22, 1981, Cordoba
p711
aVSeptember 5, 1984, Buenos Aires
p712
aVJune 18, 1988, La Plata
p713
aVdate unknown
p714
aVdate unknown
p715
aVFebruary 23, 1988
p716
aVOctober 28, 1988
p717
aVdate unknown
p718
aVdate unknown
p719
aVApril 12, 1985, Rosario
p720
aVFebruary 15, 1982, Formosa
p721
aVdate unknown
p722
aVMarch 6, 1983
p723
aVJune 12, 1989, Buenos Aires
p724
aVMarch 2, 1984, Cordoba
p725
aVJune 22, 1986, Rosario
p726
aVJanuary 3, 1989, Tucuman
p727
aVOctober 26, 1988, San Miguel de Tucuma
p728
aVFebruary 8, 1989, Mendoza
p729
aVNovember 6, 1989, General Madariaga
p730
aVNovember 12, 1986, Veinticinco de Mayo
p731
aVJanuary 11, 1989, San Miguel de Tucuma
p732
aVMarch 25, 1988, Salta
p733
aVSeptember 19, 1978, San Miguel de Tucuma
p734
aVFebruary 13, 1982
p735
aVSeptember 14, 1984, Buenos Aires
p736
aVSeptember 28, 1990, Buenos Aires
p737
aVDecember 7, 1989, Buenos Aires
p738
aVJuly 5, 1985
p739
aVApril 15, 1988, San Miguel de Tucuma
p740
aVJune 3, 1988, Rosario
p741
aVNovember 17, 1989
p742
aVOctober 6, 1985, Cordoba
p743
aVJune 18, 1988, Buenos Aires
p744
aVdate unknown
p745
aVMay 28, 1990, Tucuman
p746
aVMay 12, 1990
p747
aVApril 17, 1987
p748
aVDecember 14, 1990
p749
aVMarch 17, 1983, Buenos Aires
p750
aVOctober 16, 1984, Rosario
p751
aVDecember 29, 1988, San Miguel de Tucuma
p752
aVOctober 20, 1990
p753
aVJune 20, 1986, Buenos Aires
p754
aVNovember 20, 1991, Adrogue
p755
aVNovember 14, 1991, Tucuman
p756
aVJune 14, 1990, Parana
p757
aVMarch 26, 1988
p758
aVApril 15, 1991, Tucuman
p759
aVJune 15, 1987, Cordoba
p760
aVApril 16, 1987, Mar del Plata
p761
aVMarch 10, 1989, Cordoba
p762
aVJanuary 3, 1991, Villa Maria
p763
aVApril 8, 1987, La Plata
p764
aVDecember 11, 1991, Buenos Aires
p765
aVJuly 4, 1985, San Miguel de Tucuma
p766
aVFebruary 21, 1987, Buenos Aires
p767
aVAugust 8, 1989, La Plata
p768
aVDecember 30, 1982
p769
aVAugust 27, 1991, Chajari
p770
aVApril 2, 1976, Santa Fe
p771
aVMarch 4, 1992, Buenos Aires
p772
aVMarch 10, 1989, Chaco
p773
aVMarch 16, 1993, Mendoza
p774
aVApril 30, 1990, Rosario
p775
aVNovember 30, 1988, Mendoza
p776
aVJanuary 22, 1993, Buenos Aires
p777
aVOctober 10, 1990, Buenos Aires
p778
aVMarch 17, 1988, Villa la Angostura
p779
aVOctober 20, 1993, Cordoba
p780
aVOctober 20, 1992, Rosario
p781
aVJune 20, 1989, Tucuman
p782
aVFebruary 5, 1994, Cordoba
p783
aVFebruary 17, 1994, Bahia Blanca
p784
aVDecember 19, 1989, Buenos Aires
p785
aVJuly 30, 1990, Parana
p786
aVOctober 18, 1989, Buenos Aires
p787
aVMay 26, 1993, Tucuman
p788
aVMay 1, 1989, Rosario
p789
aVOctober 11, 1994, Rosario
p790
aVJune 19, 1992, Buenos Aires
p791
aVJuly 18, 1993, Buenos Aires
p792
aVApril 22, 1991, Buenos Aires
p793
aVMay 12, 1990, Tucuman
p794
aVMay 4, 1990, Tucuman
p795
aVDecember 6, 1993, Buenos Aires
p796
aVSeptember 6, 1987, Tucuman
p797
aVDecember 5, 1991, Cordoba
p798
aVFebruary 24, 1991, Rosario
p799
aVMay 10, 1993, Tucuman
p800
aVSeptember 3, 1990, Buenos Aires
p801
aVApril 15, 1993, Buenos Aires
p802
aVOctober 29, 1993, Buenos Aires
p803
aVJanuary 26, 1991, Buenos Aires
p804
aVFebruary 14, 1989, Comodoro Rivadavia
p805
aVMarch 29, 1991, Buenos Aires
p806
aVAugust 21, 1992, San Juan
p807
aVSeptember 21, 1993, Santiago del Estero
p808
aVNovember 17, 1994, Buenos Aires
p809
aVFebruary 16, 1994, Santiago del Estero
p810
aVNovember 24, 1987, Buenos Aires
p811
aVMarch 24, 1995, Mar del Plata
p812
aVJune 8, 1992
p813
aVDecember 31, 1993, Mendoza
p814
aVJanuary 4, 1996, Salta
p815
a.