(lp1
Vdate unknown
p2
aVdate unknown
p3
aVFebruary 9, 1878, Florencia Varela
p4
aVdate unknown
p5
aVApril 25, 1872, Worcester, Cape Prov
p6
aVdate unknown
p7
aVFebruary 1, 1882, Manila, Philippine
p8
aVdate unknown
p9
aVdate unknown
p10
aVdate unknown
p11
aVdate unknown
p12
aVdate unknown
p13
aV(guess: regd Q3), Reigate, Surrey
p14
aVdate unknown
p15
aVdate unknown
p16
aVdate unknown
p17
aVdate unknown
p18
aVdate unknown
p19
aVdate unknown
p20
aVdate unknown
p21
aVdate unknown
p22
aVdate unknown
p23
aVdate unknown
p24
aVdate unknown
p25
aVdate unknown
p26
aVdate unknown
p27
aVMay 26, 1907, Buenos Aires
p28
aVdate unknown
p29
aVdate unknown
p30
aVdate unknown
p31
aVdate unknown
p32
aVdate unknown
p33
aVdate unknown
p34
aVdate unknown
p35
aVdate unknown
p36
aVdate unknown
p37
aVdate unknown
p38
aVdate unknown
p39
aVdate unknown
p40
aVdate unknown
p41
aVdate unknown
p42
aVdate unknown
p43
aVdate unknown
p44
aVdate unknown
p45
aVdate unknown
p46
aVdate unknown
p47
aVdate unknown
p48
aVdate unknown
p49
aVdate unknown
p50
aVdate unknown
p51
aVdate unknown
p52
aVdate unknown
p53
aVdate unknown
p54
aVdate unknown
p55
aVdate unknown
p56
aVdate unknown
p57
aVdate unknown
p58
aVdate unknown
p59
aVdate unknown
p60
aVdate unknown
p61
aVdate unknown
p62
aVdate unknown
p63
aVdate unknown
p64
aVdate unknown
p65
aVdate unknown
p66
aVdate unknown
p67
aVdate unknown
p68
aVdate unknown
p69
aVdate unknown
p70
aVdate unknown
p71
aVdate unknown
p72
aVdate unknown
p73
aVdate unknown
p74
aVdate unknown
p75
aVdate unknown
p76
aVdate unknown
p77
aVdate unknown
p78
aVdate unknown
p79
aVdate unknown
p80
aVdate unknown
p81
aVdate unknown
p82
aVdate unknown
p83
aVdate unknown
p84
aVdate unknown
p85
aVdate unknown
p86
aVdate unknown
p87
aVdate unknown
p88
aVdate unknown
p89
aVdate unknown
p90
aVdate unknown
p91
aVdate unknown
p92
aVdate unknown
p93
aVJuly 31, 1925, Parana
p94
aVdate unknown
p95
aVdate unknown
p96
aVSeptember 13, 1925, Buenos Aires
p97
aVdate unknown
p98
aVdate unknown
p99
aVdate unknown
p100
aVdate unknown
p101
aVdate unknown
p102
aVdate unknown
p103
aVdate unknown
p104
aVdate unknown
p105
aVdate unknown
p106
aVdate unknown
p107
aVdate unknown
p108
aVdate unknown
p109
aVdate unknown
p110
aVdate unknown
p111
aVdate unknown
p112
aVdate unknown
p113
aVdate unknown
p114
aVdate unknown
p115
aVdate unknown
p116
aVdate unknown
p117
aVdate unknown
p118
aVdate unknown
p119
aVJanuary 6, 1928, Buenos Aires
p120
aVdate unknown
p121
aVSeptember 9, 1921
p122
aVdate unknown
p123
aVdate unknown
p124
aVdate unknown
p125
aVdate unknown
p126
aVdate unknown
p127
aVdate unknown
p128
aVdate unknown
p129
aVdate unknown
p130
aVdate unknown
p131
aVdate unknown
p132
aVdate unknown
p133
aVdate unknown
p134
aVdate unknown
p135
aVdate unknown
p136
aVdate unknown
p137
aVdate unknown
p138
aVdate unknown
p139
aVdate unknown
p140
aVdate unknown
p141
aVdate unknown
p142
aVdate unknown
p143
aVdate unknown
p144
aVdate unknown
p145
aVdate unknown
p146
aVdate unknown
p147
aVdate unknown
p148
aVdate unknown
p149
aVdate unknown
p150
aVdate unknown
p151
aVdate unknown
p152
aVdate unknown
p153
aVdate unknown
p154
aVdate unknown
p155
aVdate unknown
p156
aVdate unknown
p157
aVdate unknown
p158
aVdate unknown
p159
aVdate unknown
p160
aVdate unknown
p161
aVdate unknown
p162
aVdate unknown
p163
aVdate unknown
p164
aVdate unknown
p165
aVdate unknown
p166
aVdate unknown
p167
aVdate unknown
p168
aVdate unknown
p169
aVdate unknown
p170
aVdate unknown
p171
aVdate unknown
p172
aVdate unknown
p173
aVdate unknown
p174
aVdate unknown
p175
aVdate unknown
p176
aVdate unknown
p177
aVdate unknown
p178
aVdate unknown
p179
aVdate unknown
p180
aVdate unknown
p181
aVdate unknown
p182
aVdate unknown
p183
aVdate unknown
p184
aVdate unknown
p185
aVdate unknown
p186
aVdate unknown
p187
aVdate unknown
p188
aVdate unknown
p189
aVdate unknown
p190
aVdate unknown
p191
aVJanuary 29, 1938
p192
aVdate unknown
p193
aVdate unknown
p194
aVdate unknown
p195
aVJuly 30, 1939, Buenos Aires
p196
aVdate unknown
p197
aVdate unknown
p198
aVdate unknown
p199
aVdate unknown
p200
aVdate unknown
p201
aVdate unknown
p202
aVdate unknown
p203
aVdate unknown
p204
aVdate unknown
p205
aVdate unknown
p206
aVdate unknown
p207
aVdate unknown
p208
aVcirca 1942
p209
aVdate unknown
p210
aVdate unknown
p211
aVdate unknown
p212
aVdate unknown
p213
aVdate unknown
p214
aVdate unknown
p215
aVdate unknown
p216
aVdate unknown
p217
aVdate unknown
p218
aVdate unknown
p219
aVdate unknown
p220
aVdate unknown
p221
aVdate unknown
p222
aVdate unknown
p223
aVdate unknown
p224
aVdate unknown
p225
aVdate unknown
p226
aVdate unknown
p227
aVdate unknown
p228
aVdate unknown
p229
aVdate unknown
p230
aVdate unknown
p231
aVcirca 1944
p232
aVcirca 1945
p233
aVdate unknown
p234
aVdate unknown
p235
aVdate unknown
p236
aVdate unknown
p237
aVdate unknown
p238
aVdate unknown
p239
aVdate unknown
p240
aVdate unknown
p241
aVcirca 1945
p242
aVdate unknown
p243
aVcirca 1947
p244
aVdate unknown
p245
aVdate unknown
p246
aVdate unknown
p247
aVdate unknown
p248
aVdate unknown
p249
aVdate unknown
p250
aVdate unknown
p251
aVdate unknown
p252
aVdate unknown
p253
aVdate unknown
p254
aVdate unknown
p255
aVdate unknown
p256
aVdate unknown
p257
aVdate unknown
p258
aVdate unknown
p259
aVdate unknown
p260
aVcirca 1949
p261
aVdate unknown
p262
aVcirca 1947
p263
aVcirca 1946
p264
aVdate unknown
p265
aVdate unknown
p266
aVcirca 1947
p267
aVdate unknown
p268
aVdate unknown
p269
aVdate unknown
p270
aVdate unknown
p271
aVdate unknown
p272
aVSeptember 11, 1951, Buenos Aires
p273
aVdate unknown
p274
aVdate unknown
p275
aVcirca 1946
p276
aVdate unknown
p277
aVdate unknown
p278
aVdate unknown
p279
aVcirca 1952
p280
aVcirca 1945
p281
aVdate unknown
p282
aVdate unknown
p283
aVdate unknown
p284
aVdate unknown
p285
aVdate unknown
p286
aVdate unknown
p287
aVcirca 1949
p288
aVdate unknown
p289
aVcirca 1951
p290
aVdate unknown
p291
aVdate unknown
p292
aVcirca 1951
p293
aVdate unknown
p294
aVdate unknown
p295
aVdate unknown
p296
aVdate unknown
p297
aVdate unknown
p298
aVdate unknown
p299
aVNovember 6, 1956
p300
aVcirca 1953
p301
aVcirca 1953
p302
aVdate unknown
p303
aVdate unknown
p304
aVdate unknown
p305
aVdate unknown
p306
aVdate unknown
p307
aVdate unknown
p308
aVdate unknown
p309
aVdate unknown
p310
aVdate unknown
p311
aVcirca 1955
p312
aVdate unknown
p313
aVdate unknown
p314
aVMay 21, 1953, Buenos Aires
p315
aVcirca 1955
p316
aVcirca 1954
p317
aVcirca 1954, Santa Fe
p318
aVcirca 1955
p319
aVdate unknown
p320
aVdate unknown
p321
aVMay 21, 1953, Buenos Aires
p322
aVSeptember 20, 1957
p323
aVcirca 1954
p324
aVcirca 1953
p325
aVcirca 1949
p326
aVdate unknown
p327
aVdate unknown
p328
aVcirca 1959
p329
aVdate unknown
p330
aVdate unknown
p331
aVdate unknown
p332
aVdate unknown
p333
aVdate unknown
p334
aVdate unknown
p335
aVdate unknown
p336
aVdate unknown
p337
aVdate unknown
p338
aVcirca 1957
p339
aVMay 17, 1959, Buenos Aires
p340
aVJuly 16, 1958
p341
aVcirca 1957
p342
aVcirca 1958
p343
aVdate unknown
p344
aVcirca 1953
p345
aVcirca 1958
p346
aVcirca 1957
p347
aVJune 20, 1952, Cordoba
p348
aVcirca 1959
p349
aVdate unknown
p350
aVdate unknown
p351
aVdate unknown
p352
aVdate unknown
p353
aVdate unknown
p354
aVdate unknown
p355
aVdate unknown
p356
aVdate unknown
p357
aVdate unknown
p358
aVdate unknown
p359
aVdate unknown
p360
aVdate unknown
p361
aVdate unknown
p362
aVdate unknown
p363
aVdate unknown
p364
aVNovember 6, 1957
p365
aVcirca 1956
p366
aVcirca 1959
p367
aVJuly 12, 1956, Vicente Lopez
p368
aVdate unknown
p369
aVdate unknown
p370
aVdate unknown
p371
aVFebruary 11, 1961, Rosario
p372
aVdate unknown
p373
aVSeptember 21, 1961, Buenos Aires
p374
aVdate unknown
p375
aVdate unknown
p376
aVdate unknown
p377
aVdate unknown
p378
aVdate unknown
p379
aVJanuary 20, 1963, Buenos Aires
p380
aVdate unknown
p381
aVdate unknown
p382
aVdate unknown
p383
aVJune 7, 1963
p384
aVJanuary 28, 1961
p385
aVApril 14, 1962
p386
aVcirca 1961
p387
aVdate unknown
p388
aVdate unknown
p389
aVdate unknown
p390
aVdate unknown
p391
aVdate unknown
p392
aVAugust 10, 1961, Buenos Aires
p393
aVJune 7, 1963
p394
aVJanuary 12, 1965
p395
aVJuly 13, 1965, Buenos Aires
p396
aVdate unknown
p397
aVdate unknown
p398
aVNovember 3, 1959, San Miguel de Tucuma
p399
aVJuly 28, 1962
p400
aVdate unknown
p401
aVdate unknown
p402
aVOctober 29, 1962
p403
aVdate unknown
p404
aVcirca 1963
p405
aVcirca 1963
p406
aVApril 5, 1967, Buenos Aires
p407
aVcirca 1962
p408
aVJanuary 10, 1965, La Plata
p409
aVJune 26, 1966, San Miguel de Tucuma
p410
aVdate unknown
p411
aVApril 10, 1963
p412
aVdate unknown
p413
aVcirca 1963
p414
aVdate unknown
p415
aVdate unknown
p416
aVApril 27, 1967, Rosario
p417
aVJanuary 30, 1966
p418
aVApril 14, 1966, Buenos Aires
p419
aVcirca 1962
p420
aVdate unknown
p421
aVJanuary 25, 1968, San Miguel de Tucuma
p422
aVJune 22, 1967
p423
aVdate unknown
p424
aVdate unknown
p425
aVcirca 1967
p426
aVJune 4, 1967
p427
aVcirca 1965
p428
aVcirca 1966
p429
aVMarch 27, 1963, San Miguel de Tucuma
p430
aVcirca 1965
p431
aVcirca 1969
p432
aVMay 15, 1970, Buenos Aires
p433
aVdate unknown
p434
aVOctober 24, 1971, Lomas de Zamora
p435
aVdate unknown
p436
aVOctober 9, 1967
p437
aVdate unknown
p438
aVApril 25, 1966, Cordoba
p439
aVdate unknown
p440
aVDecember 10, 1962
p441
aVJune 4, 1962
p442
aVdate unknown
p443
aVdate unknown
p444
a.