(lp1
S'A. Bover'
p2
aS'A. Donelly'
p3
aS'Oswald Gebbie'
p4
aS'L.H. Gribbell'
p5
aS'Fairy Heatlie'
p6
aS'F. Henrys'
p7
aS'Frank Heriot'
p8
aS'W.H. Hyman'
p9
aS'C.J. MacCarthy'
p10
aS'Carlos Mold'
p11
aS'Alvan Reid'
p12
aS'J.E. Saffery'
p13
aS'Frederick Sawyer'
p14
aS'Henry Talbot'
p15
aS'Arnaldo Watson-Hutton'
p16
aS'W. Braddon'
p17
aS'Enrique Bustamante'
p18
aS'Ray Cameron'
p19
aS'Jorge Conrard'
p20
aS'Reginald Cooper'
p21
aS'Jose Cuesta Silva'
p22
aS'Antonio Hobson'
p23
aS'Fabio Lucioni'
p24
aS'Miguel McCormick'
p25
aS'Antonio Pasalagua'
p26
aS'Cesar Pollano'
p27
aS'Arturo Rodriguez Jurado'
p28
aS'Rodolfo Serra'
p29
aS'Cesar Vazquez'
p30
aS'Alberto Zappa'
p31
aS'Martin Ayerra'
p32
aS'Roberto Botting'
p33
aS'G.E.F. Cooke'
p34
aS'Marco Hernandez'
p35
aS'A. Jacobs'
p36
aS'Carlos Reyes'
p37
aS'Alfredo Riganti'
p38
aS'Julian Sommer'
p39
aS'C. Derkheim'
p40
aS'Norberto Escary'
p41
aS'Vicente Grimoldi'
p42
aS'Llewellyn Makin'
p43
aS'Francisco Torino'
p44
aS'Salvador Muller'
p45
aS'J. Bridger'
p46
aS'Ernesto Cilley'
p47
aS'K.A.M. Cookson'
p48
aS'Roberto de Abelleyra'
p49
aS'Carlos Echeverria'
p50
aS'Jumbo Francombe'
p51
aS'Carlos Huntley-Robertson'
p52
aS'Harald Maurer'
p53
aS'Adolfo Navajas'
p54
aS'Edmundo Stanfield'
p55
aS'Jorge Stewart'
p56
aS'Norman Tozer'
p57
aS'A. Turner'
p58
aS'Oscar Bernat'
p59
aS'Antonio Lanusse'
p60
aS'Ian Lewis'
p61
aS'Tomas Sanderson'
p62
aS'Hector Alfonso'
p63
aS'Jorge Cilley'
p64
aS'Noel Cooper'
p65
aS'Riebeck Elliot'
p66
aS'Jose Frigoli'
p67
aS'Virgilio Inchausti'
p68
aS'Gilbert Logan'
p69
aS'Bernardo Mitchelstein'
p70
aS'Horacio Pascuali'
p71
aS'Tomas Salzman'
p72
aS'Emilio Schiavio'
p73
aS'Herbert Talbot'
p74
aS'Percy Talbot'
p75
aS'Eduardo Arriaga'
p76
aS'Archie Cameron'
p77
aS'Luis Hughes'
p78
aS'Walter Sutton'
p79
aS'Jose Tagliabue'
p80
aS'Raymond Wilkins'
p81
aS'Archie Ker'
p82
aS'Hector Pasman'
p83
aS'Samuel Ratcliff'
p84
aS'Tomas Blades'
p85
aS'Eric Buckley'
p86
aS'Keith Bush'
p87
aS'Jeronimo Cernegoy'
p88
aS'P.H. Cox'
p89
aS'Douglas Hine'
p90
aS'Ricardo Martin'
p91
aS'Marcelo Pacheco'
p92
aS'J. Topping'
p93
aS'Matias Avellaneda'
p94
aS'Juan de Pablo'
p95
aS'Guillermo Ehrman'
p96
aS'Ricardo Follett'
p97
aS'Ricardo Frigerio'
p98
aS'Ricardo Giles'
p99
aS'Lucas Glastra'
p100
aS'Bruno Grigolon'
p101
aS'Luis Maurette'
p102
aS'Enrique Monpelat'
p103
aS'Miguel Sarandon'
p104
aS'Ronaldo Sharpe'
p105
aS'Carlos Swain'
p106
aS'Normando Tompkins'
p107
aS'Prudencio Torres Garcia'
p108
aS'Horacio Achaval'
p109
aS'Juan Hardie'
p110
aS'Ezequiel Holmberg'
p111
aS'A. Jones'
p112
aS"Jaime O'Farrell"
p113
aS'Arturo Phillips'
p114
aS'Jorge Sansot'
p115
aS'Julian Santiago'
p116
aS'Edmundo Caffarone'
p117
aS'Emilio Dominguez'
p118
aS'Luis Dorado'
p119
aS'Barry Holmes'
p120
aS'Miguel Hughes'
p121
aS'Pedro Macadam'
p122
aS'Carlos Orti'
p123
aS'Alfredo Palma'
p124
aS'Juan Petrone'
p125
aS'William Chiswell'
p126
aS'Emilio Dacharry'
p127
aS'Leslie Allen'
p128
aS'Ricardo Bazan'
p129
aS'Desmond Farrell'
p130
aS'Enrique Fernandez del Casal'
p131
aS'Marcelo Lanusse'
p132
aS'Carlos Morea'
p133
aS'Jose Morganti'
p134
aS"Uriel O'Farrell"
p135
aS'Ricardo Pont Lezica'
p136
aS'Horacio Solveyra'
p137
aS'Isidro Comas'
p138
aS'Alberto Conen'
p139
aS'Julio Genoud'
p140
aS'Rodolfo Grosse'
p141
aS'Gaston Recagno'
p142
aS'Antonio Salinas'
p143
aS'Osvaldo Bernacchi'
p144
aS'Victor Christianson'
p145
aS'Eric Gahan'
p146
aS'Erwin Hirsch'
p147
aS'Michael Hughes'
p148
aS'Roberto Pineo'
p149
aS'Bernardo Yustini'
p150
aS'Luis Bavio'
p151
aS'Osvaldo Elia'
p152
aS'Jesus Loures'
p153
aS'Oscar Martinez Basante'
p154
aS'Juan Manuel Belgrano'
p155
aS'Malcolm Caldwell'
p156
aS"Ricardo Dell'Acqua"
p157
aS'Juan Diez'
p158
aS'Pedro Felisari'
p159
aS'Elias Gavina'
p160
aS'Stanley Hogg'
p161
aS'Roque Lagarde'
p162
aS'Enrique Mitchelstein'
p163
aS'Roberto Ochoa'
p164
aS'Martin Azpiros'
p165
aS'Roberto Dillon'
p166
aS'Angel Guastella'
p167
aS'Eamon Horan'
p168
aS'Uriel Propato'
p169
aS'Pablo Yanguela'
p170
aS'Carlos Alvarez'
p171
aS'Carlos Ezcurra'
p172
aS'Juan Guidi'
p173
aS'Ricardo Hogg'
p174
aS'Enrique Holmgren'
p175
aS'Carlos Lennon'
p176
aS'Luis Mendez'
p177
aS'Carlos Olivera'
p178
aS'Raul Pesce'
p179
aS'Eduardo Sorhaburu'
p180
aS'Eduardo Verardo'
p181
aS'Enrique Bianchetti'
p182
aS'Juan Casanegra'
p183
aS'Carlos Giuliano'
p184
aS'Esteban Karplus'
p185
aS'Ricardo Raimundez'
p186
aS'Rodolfo Devoto'
p187
aS'Eduardo Gonzalez del Solar'
p188
aS'Enrique Krossler'
p189
aS'Enrico Neri'
p190
aS'Ricardo Oliveri'
p191
aS'Aitor Otano'
p192
aS'Jorge Pulido'
p193
aS'Rodolfo Schmidt'
p194
aS'Florencio Varela'
p195
aS'Glauco Wessek'
p196
aS'Cristobal Hirsch'
p197
aS'Jorge Rios'
p198
aS'Horacio Vidou'
p199
aS'Walter Aniz'
p200
aS'John Vibart'
p201
aS'Camilo Aldao'
p202
aS'Hector Goti'
p203
aS'Jorge Lavayen'
p204
aS'Guillermo Montes de Oca'
p205
aS'Martin Odriozola'
p206
aS'Eduardo Scharemberg'
p207
aS'Luis Varela'
p208
aS'Adolfo Etchegaray'
p209
aS'Nicanor Gonzalez del Solar'
p210
aS'Jose Lasalle'
p211
aS'Raul Loyola'
p212
aS'Mariano Molina Berro'
p213
aS'Miguel Puigdeval'
p214
aS'Juan Queirolo'
p215
aS'Guillermo Schmitt'
p216
aS'Leopoldo Tahier'
p217
aS'Carlos Contepomi'
p218
aS'Alejandro da Milano'
p219
aS'Jorge Dartiguelongue'
p220
aS'Roberto Gallo'
p221
aS'Willie McCormick'
p222
aS'Manuel Beccar Varela'
p223
aS'Juan Benzi'
p224
aS'Roberto Cazenave'
p225
aS'Ronnie Foster'
p226
aS'Luis Garcia Yanez'
p227
aS'Guillermo Illia'
p228
aS'Marcelo Pascual'
p229
aS'Eduardo Espana'
p230
aS'Eduardo Poggi'
p231
aS'Arturo Rodriguez Jurado'
p232
aS'Hector Silva'
p233
aS'Luis Gradin'
p234
aS'Adrian Anthony'
p235
aS'Eduardo Quetglas'
p236
aS'Mario Bouza'
p237
aS'Miguel Chesta'
p238
aS'Marcos Dumas'
p239
aS'Ricardo Handley'
p240
aS'Jose Imhoff'
p241
aS'Hector Mendez'
p242
aS'Ronaldo Seaton'
p243
aS'Alejandro Travaglini'
p244
aS'Mario Walther'
p245
aS'Dudley Morgan'
p246
aS'Marcelo Farina'
p247
aS'Jorge Seaton'
p248
aS'Nestor Perez'
p249
aS'Tomas Harris-Smith'
p250
aS'Hugo Miguens'
p251
aS'Arturo Abella'
p252
aS'Nestor Carbone'
p253
aS'Miguel Cutler'
p254
aS'Carlos Martinez'
p255
aS'Julio Otaola'
p256
aS'Guillermo Blacksley'
p257
aS'Ricardo Espagnol'
p258
aS'Roberto Matarazzo'
p259
aS'Jorge Wittman'
p260
aS'Jose Fernandez'
p261
aS'Miguel Morgan'
p262
aS'Hugo Nicola'
p263
aS'Jose Costante'
p264
aS'Julio Walther'
p265
aS'Guillermo Casas'
p266
aS'Jorge Carracedo'
p267
aS'Ruben Castro'
p268
aS'Gustavo Foster'
p269
aS'Fernando Insua'
p270
aS'Enrique Martinez'
p271
aS'Marcelo Martinez Mosquera'
p272
aS'Hugo Porta'
p273
aS'Marcelo Rodriguez Jurado'
p274
aS'Alberto Velasquez'
p275
aS'Jorge Braceras'
p276
aS'Gustavo Pimentel'
p277
aS'Alejandro Altberg'
p278
aS'Eduardo Morgan'
p279
aS'Martin Alonso'
p280
aS'Mario Carluccio'
p281
aS'Juan Dumas'
p282
aS'Jose Virasoro'
p283
aS'Miguel Iglesias'
p284
aS'Carlos Bottarini'
p285
aS'Roberto Fariello'
p286
aS'Martin Giargia'
p287
aS'Raul Sanz'
p288
aS'Guillermo Perez Leiros'
p289
aS'Rito Iraneta'
p290
aS'Arturo Orzabal'
p291
aS'Osvaldo Rocha'
p292
aS'Guillermo Alvarez'
p293
aS'Eduardo Brouchou'
p294
aS'Juan Cato'
p295
aS'Jorge Copello'
p296
aS"Felix d'Agnilo"
p297
aS'Miguel Devoto'
p298
aS'Javier Escalante'
p299
aS'Alejandro Iachetti'
p300
aS'Tomas Landajo'
p301
aS'Roberto Lucke'
p302
aS'Ernesto Miguens'
p303
aS'Manuel Parra'
p304
aS'Eduardo Sanguinetti'
p305
aS'Rodolfo Ventura'
p306
aS'Eduardo Vila'
p307
aS'Camilo Abud'
p308
aS'Julio Bach'
p309
aS'Eduardo de Forteza'
p310
aS'Buenaventura Minguez'
p311
aS'Ricardo Muniz'
p312
aS'Nestor Bozzo'
p313
aS'Javier Capalbo'
p314
aS'Daniel Beccar Varela'
p315
aS'Jorge Gauweloose'
p316
aS'Ricardo Mastai'
p317
aS'Carlos Neyra'
p318
aS'Martin Sansot'
p319
aS'Carlos Bori'
p320
aS'Alejandro Cerioni'
p321
aS'Gonzalo Beccar Varela'
p322
aS'Eliseo Branca'
p323
aS'Adolfo Cappelletti'
p324
aS'Ricardo Castagna'
p325
aS'Horacio Mazzini'
p326
aS'Fernando Bustillo'
p327
aS'Luis Balfour'
p328
aS'Alejandro Cubelli'
p329
aS'Eduardo Garcia Teran'
p330
aS'Guillermo Morgan'
p331
aS'Ricardo Passaglia'
p332
aS'Javier Trucco'
p333
aS'Agustin Badano'
p334
aS'Gabriel Allen'
p335
aS'Pablo Guarrochena'
p336
aS'Jorge Posse'
p337
aS'Santos Rosatti'
p338
aS'Marcelo Campo'
p339
aS'Marcelo Loffreda'
p340
aS'Rafael Madero'
p341
aS'Tomas Petersen'
p342
aS'Gabriel Travaglini'
p343
aS'Carlos Serrano'
p344
aS'Alfredo Soares Gache'
p345
aS'Marcos Iachetti'
p346
aS'Javier Perez Cobo'
p347
aS'Topo Rodriguez'
p348
aS'Ernesto Ure'
p349
aS'Fernando Argerich'
p350
aS'Andres Courreges'
p351
aS'Miguel Glastra'
p352
aS'Armando Memoli'
p353
aS'Andres Nicholson'
p354
aS'Guillermo Paz'
p355
aS'Carlos Ramallo'
p356
aS'Carlos Sainz Trapaga'
p357
aS'Guillermo Sanguinetti'
p358
aS'Martin Garcia Laborde'
p359
aS'Carlos Jacobi'
p360
aS'Mario Negri'
p361
aS'Alejandro Puccio'
p362
aS'Jaime Sartori'
p363
aS'Marcelo Dip'
p364
aS'Fernando Morel'
p365
aS'Daniel Baetti'
p366
aS'Juan Pablo Piccardo'
p367
aS'Jorge Allen'
p368
aS'Jose Palma'
p369
aS'Pablo Devoto'
p370
aS'Javier Miguens'
p371
aS'Gustavo Milano'
p372
aS'Guillermo Varone'
p373
aS'Serafin Dengra'
p374
aS'Ricardo de Vedia'
p375
aS'Bernardo Miguens'
p376
aS'Juan Aguilar'
p377
aS'Ricardo Annichini'
p378
aS'Eduardo Basile'
p379
aS'Diego Cuesta Silva'
p380
aS'Sebastian Dassen'
p381
aS'Lucio de Chazal'
p382
aS'Gonzalo Gasso'
p383
aS'Pedro Lanza'
p384
aS'Alejandro Schiavio'
p385
aS'Alejandro Scolni'
p386
aS'Marcos Baeck'
p387
aS'Marcelo Carrique'
p388
aS'Carlos Cordeiro'
p389
aS'Jose Carlos Galvalisi'
p390
aS'Ricardo Sauze'
p391
aS'Eduardo Torello'
p392
aS'Diego Cash'
p393
aS'Juan Lanza'
p394
aS'Fabian Turnes'
p395
aS'Fabio Gomez'
p396
aS'Rodrigo de la Arena'
p397
aS'Pedro Merlo'
p398
aS'Luis Molina'
p399
aS'Daniel Sanes'
p400
aS'Jose Luis Visca'
p401
aS'Guillermo Holmgren'
p402
aS'Sergio Carossio'
p403
aS'Eduardo Valesani'
p404
aS'Joaquin Uriarte'
p405
aS'Jose Mostany'
p406
aS'Sebastian Salvat'
p407
aS'Martin Yanguela'
p408
aS'Guillermo Angaut'
p409
aS'Pablo Garreton'
p410
aS'Marcelo Ricci'
p411
aS'Juan Jose Angelillo'
p412
aS'Javier Caminotti'
p413
aS'Roberto Cobelo'
p414
aS'Julio Coria'
p415
aS'Pablo Franchi'
p416
aS'Mario Gerosa'
p417
aS'Cristian Mendy'
p418
aS'Mario Carreras'
p419
aS'Julio Clement'
p420
aS'Dardo Gonzalez'
p421
aS'Santiago Meson'
p422
aS'Hernan Vidou'
p423
aS'Gabriel Teran Nougues'
p424
aS'Fernando Conti'
p425
aS'Federico Silvestre'
p426
aS'Miguel Bertranou'
p427
aS'Marcelo Valesani'
p428
aS'Juan Soler Valls'
p429
aS'Pablo Buabse'
p430
aS'Pablo di Nisio'
p431
aS'Marcelo Righentini'
p432
aS'Pablo Camerlinckx'
p433
aS'Diego Halle'
p434
aS'Gustavo Jorge'
p435
aS'Federico Schacht'
p436
aS'Jose Simes'
p437
aS'Juan Coppola'
p438
aS'Diego Dominguez'
p439
aS'Hector Lacarra'
p440
aS'Sergio Bunader'
p441
aS'Adrian Rocca'
p442
aS'Javier Grondona'
p443
aS'Ricardo Zanero'
p444
aS'Matias Allen'
p445
aS'Pablo Garzon'
p446
aS'Manuel Aguirre'
p447
aS'Rodrigo Crexell'
p448
aS'Santiago Ezcurra'
p449
aS'Hernan Garcia Simon'
p450
aS'Ricardo le Fort'
p451
aS'German Llanes'
p452
aS'Agustin Macome'
p453
aS'Federico Mendez Azpillaga'
p454
aS'Pedro Sporleder'
p455
aS'Lisandro Arbizu'
p456
aS'Gonzalo Camardon'
p457
aS'Emilio Ezcurra'
p458
aS'Guillermo del Castillo'
p459
aS'Jose Santamarina'
p460
aS'Martin Teran Nougues'
p461
aS'Fernando Buabse'
p462
aS'Rafael Bullrich'
p463
aS'Juan Luis Damioli'
p464
aS'Rodolfo Etchegoyen'
p465
aS'Lucas Herrera'
p466
aS'Martin Lanfranco'
p467
aS'Alejandro Marguery'
p468
aS'Federico Jose Mendez'
p469
aS'Julio Jose Paz'
p470
aS'Franco Rossi'
p471
aS'Guillermo Ugartemendia'
p472
aS'Marcelo Urbano'
p473
aS'Ariel Mammana'
p474
aS'Eduardo Pittinari'
p475
aS'Patricio Noriega'
p476
aS'Alejandro Tolomei'
p477
aS'Eduardo Laborde'
p478
aS'Mariano Bosch'
p479
aS'Francisco Irarrazaval'
p480
aS'Luis Criscuolo'
p481
aS'Raul Perez'
p482
aS'Normando Ferrari'
p483
aS'Eduardo Garbarino'
p484
aS'Matias Roby'
p485
aS'Leandro Bouza'
p486
aS'Gonzalo Garcia Orsetti'
p487
aS'Pablo Cremaschi'
p488
aS'Roberto Grau'
p489
aS'Sebastian Irazoqui'
p490
aS'Diego Silvetti'
p491
aS'Martin Grau'
p492
aS'Matias Corral'
p493
aS'Sebastian Paz Posse'
p494
aS'Cristian Viel Temperley'
p495
aS'Martin Viola'
p496
aS'Eduardo Garcia Hamilton'
p497
aS'Ivan Merlo'
p498
aS'Sergio Peretti'
p499
aS'Pablo Fernandez Bravo'
p500
aS'Nicolas Fernandez Miranda'
p501
aS'Rolando Martin'
p502
aS'Martin Pfister'
p503
aS'Francisco Garcia'
p504
aS'Jose Cilley'
p505
aS'Diego Albanese'
p506
aS'Nicolas Bossicovich'
p507
aS'Omar Hasan Jalil'
p508
aS'Martin Lerga'
p509
aS'Fernando del Castillo'
p510
aS'Agustin Pichot'
p511
aS'Ezequiel Jurado'
p512
aS'Jose Luna'
p513
aS'Omar Portillo'
p514
aS'Martin Sugasti'
p515
aS'Roberto Petti'
p516
aS'Pablo Bouza'
p517
aS'Carlos Promanzio'
p518
aS'Mauricio Reggiardo'
p519
aS'Gustavo Rivero'
p520
aS'Facundo Soler'
p521
aS'Julian Legora'
p522
aS'Octavio Bartolucci'
p523
aS'Ignacio Fernandez Lobbe'
p524
aS'Leandro Lobrauco'
p525
aS'Martin Palou'
p526
aS'Gonzalo Quesada'
p527
aS'Martin Scelzo'
p528
aS'Eduardo Simone'
p529
aS'Roberto Travaglini'
p530
aS'Federico Werner'
p531
aS'Christian Barrea'
p532
aS'Diego Giannantonio'
p533
aS'Mario Ledesma Arocena'
p534
aS'Jose Orengo'
p535
aS'Tomas Solari'
p536
aS'German Aristide'
p537
aS'Miguel Ruiz'
p538
aS'Alejandro Aguirre'
p539
aS'Pablo Alexenicer'
p540
aS'Alejandro Allub'
p541
aS'Matias Brandi'
p542
aS'Marcelo Carmona'
p543
aS'Diego Gomez Coll'
p544
aS'Agustin Lopresti'
p545
aS'Juan Meabe'
p546
aS'Facundo Rave'
p547
aS'Damian Rotondo'
p548
aS'Gustavo Veron'
p549
aS'Raul Cano'
p550
aS'Manuel Diaz'
p551
aS'Andres Irigoyen'
p552
aS'Fernando Diaz Alberdi'
p553
aS'Juan Fernandez Miranda'
p554
aS'Santiago Phelan'
p555
aS'Camilo Boffelli'
p556
aS'Hugo Cespedes'
p557
aS'Guillermo Bernardi'
p558
aS'Martin Durand'
p559
aS'Leonardo Gravano'
p560
aS'Emiliano Mulieri'
p561
aS'Gaston Nazassi'
p562
aS'Nicolas Gomez'
p563
aS'Federico Todeschini'
p564
aS'Manuel Contepomi'
p565
aS'Gabriel Bocca'
p566
aS'Ignacio Corleto'
p567
aS'Patricio Fuselli'
p568
aS'Pablo Garcia Hamilton'
p569
aS'Rodrigo Roncero'
p570
aS'Rafael Silva'
p571
aS'Bernardo Stortoni'
p572
aS'Daniel Villen'
p573
aS'Arturo Mimesi'
p574
aS'Damian Rodriguez'
p575
aS'Patricio Grande'
p576
aS'Matias Lamas'
p577
aS'Martin Molina'
p578
aS'Christian Ohanian'
p579
aS'Jose Altube'
p580
aS'Rimas Alvarez Kairelis'
p581
aS'Julio Garcia'
p582
aS'Alejandro Moreno'
p583
aS'Eduardo Zapiola'
p584
aS'Julio Brolese'
p585
aS'Felipe Contepomi'
p586
aS'Gerardo Lazcano Miranda'
p587
aS'Ernesto Naveyra'
p588
aS'Matias Peri Brusa'
p589
aS'Martin Gaitan'
p590
aS'Gonzalo Longo Elia'
p591
aS'Lucas Ostiglia'
p592
aS'Agustin Canalda'
p593
aS'Hugo Dande'
p594
aS'Leopoldo de Chazal'
p595
aS'Santiago Gonzalez Bonorino'
p596
aS'Gustavo Morlaes Oliver'
p597
aS'Jose Nunez Piossek'
p598
aS'Leonardo Roldan'
p599
aS'Juan Jose Villar'
p600
aS'Matias Albina'
p601
aS'Francisco Leonelli Morey'
p602
aS'Mariano Sambucetti'
p603
aS'Emiliano Bergamaschi'
p604
aS'Pablo Cardinali'
p605
aS'Daniel Rodriguez'
p606
aS'Hernan Senillosa'
p607
aS'Alfonso Amuchastegui'
p608
aS'Maximiliano Nannini'
p609
aS'Juan Cruz Legora'
p610
aS'Patricio Albacete'
p611
aS'Lucas Borges'
p612
aS'German Bustos'
p613
aS'Eusebio Guinazu'
p614
aS'Juan Martin Hernandez'
p615
aS'Francisco Lecot'
p616
aS'Leonardo Ortiz'
p617
aS'Martin Schusterman'
p618
aS'Martin Rospide'
p619
aS'Federico Cortopasso'
p620
aS'Julio Freixas'
p621
aS'Federico Serra Miras'
p622
aS'Santiago Sanz'
p623
aS'Federico Aramburu'
p624
aS'Francisco Bosch'
p625
aS'Pablo Henn'
p626
aS'Ariel Castellina'
p627
aS'Federico Andres Genoud'
p628
aS'Andres Romagnoli'
p629
aS'Galo Alvarez Quinones'
p630
aS'Juan Martin Fernandez Lobbe'
p631
aS'Alvaro Galindo'
p632
aS'Lucio Lopez Fleming'
p633
aS'Fernando Higgs'
p634
aS'Pablo Gomez Cora'
p635
aS'Santiago Artese'
p636
aS'Augusto Petrilli'
p637
aS'Gonzalo Tiesi'
p638
aS'Marcos Ayerza'
p639
aS'Manuel Carizza'
p640
aS'Alberto Vernet Basualdo'
p641
aS'Miguel Avramovic'
p642
aS'Juan Manuel Leguizamon'
p643
aS'Agustin Creevy'
p644
aS'Jaime Arocena Mesones'
p645
aS'Facundo Barni'
p646
aS'Javier Belloto'
p647
aS'Agustin Costa Repetto'
p648
aS'Bruno Fabricio Cuezzo'
p649
aS'Tomas de Vedia'
p650
aS'Gaston Graco'
p651
aS'Javier Irazusta'
p652
aS'Roman Miralles'
p653
aS'Horacio San Martin'
p654
aS'Nicolas Vergallo'
p655
aS'Alejandro Bar'
p656
aS'Juan Martin Berberian Blanco'
p657
aS'Nicolas Carizza'
p658
aS'Jose Ignacio Correa'
p659
aS'Gaston de Robertis'
p660
aS'Genaro Fessia'
p661
aS'Facundo Borelli'
p662
aS'Conrado Lopez Alonso'
p663
aS'Horacio Agulla'
p664
aS'Matias Cortese'
p665
aS'Sebastien Rondinelli'
p666
aS'Rafael Carballo'
p667
aS'Pablo Gambarini'
p668
aS'Esteban Lozada'
p669
aS'Juan Gomez'
p670
aS'Marcelo Bosch'
p671
aS'Alejandro Abadie'
p672
aS'Federico Amelong'
p673
aS'Felipe Aranguren'
p674
aS'Gabriel Ascarate'
p675
aS'Gonzalo Begino'
p676
aS'Agustin Guzman'
p677
aS'Francisco Merello'
p678
aS'Ignacio Mieres'
p679
aS'Sebastian Ponce'
p680
aS'James Stuart'
p681
aS'Ben Urdapilleta'
p682
aS'Francisco Albarracin'
p683
aS'Alejandro Campos'
p684
aS'Ramiro del Busto'
p685
aS'Lucas Gonzalez Amorosino'
p686
aS'Tomas Roan'
p687
aS'Federico Rodriguez'
p688
aS'Lucas Barrera Oro'
p689
aS'Felipe Bettolli'
p690
aS'Gonzalo Camacho'
p691
aS'Mauro Comuzzi'
p692
aS'Juan Ignacio Gauthier'
p693
aS'Francisco Gomez Kodela'
p694
aS'Juan Pablo Lagarrigue'
p695
aS'Rodrigo Maria'
p696
aS'Leonardo Senatore'
p697
aS'Carlos Caceres'
p698
aS'Ariel Hevia'
p699
aS'Alvaro Tejeda'
p700
aS'Pedro Ledesma Arocena'
p701
aS'Alfredo Lalanne'
p702
aS'Martin Bustos Moyano'
p703
aS'Miguel de Achaval'
p704
aS'Juan-Pablo Estelles'
p705
aS'Tomas Leonardi'
p706
aS'Agustin Smidt'
p707
aS'Esteban Bustillo'
p708
aS'Mauricio Guidone'
p709
aS'Martin Landajo'
p710
aS'Ignacio Pasman'
p711
aS'Juan Pablo Orlandi'
p712
aS'Santiago Fernandez'
p713
aS'Agustin Figuerola'
p714
aS'Belisario Agulla'
p715
aS'Lucas Alcacer Mackinlay'
p716
aS'Rodrigo Bruno'
p717
aS'Pedro Garzon'
p718
aS'Santiago Gonzalez Iglesias'
p719
aS'Juan Imhoff'
p720
aS'Benjamin Macome'
p721
aS'Matias Narvaez'
p722
aS'Santiago Piccaluga'
p723
aS'Guillermo Roan'
p724
aS'Facundo Vega'
p725
aS'Francisco Cubelli'
p726
aS'Ignacio di Santi'
p727
aS'Paolo Mac'
p728
aS'Federico Merlo'
p729
aS'Gabriel Pata Curello'
p730
aS'Martin Rodriguez Gurruchage'
p731
aS'Leandro Pereyra'
p732
aS'Matias Viazzo'
p733
aS'Tomas Cubelli'
p734
aS'Marcos Lobato'
p735
aS'Ramiro Pacheco'
p736
aS'Luciano Proto'
p737
aS'Nicolas Sanchez'
p738
aS'Rodrigo Baez'
p739
aS'Nahuel Tetaz Chaparro'
p740
aS'Mariano Galarza'
p741
aS'Santiago Guzman'
p742
aS'Juan Figallo'
p743
aS'Julio Farias Cabello'
p744
aS'Jose Basile'
p745
aS'Santiago Bottini'
p746
aS'Tomas de la Vega'
p747
aS'Tomas Rosati'
p748
aS'Hugo Schierano'
p749
aS'Roberto Tejerizo'
p750
aS'Federico Alloggio'
p751
aS'Nicolas Centurion'
p752
aS'Gaston Cortes'
p753
aS'Benjamin Madero'
p754
aS'Martin Maineri'
p755
aS'Ramiro Moyano Joya'
p756
aS'Fernando Luna'
p757
aS'Walter Weiss'
p758
aS'Tomas Baravalle'
p759
aS'Agustin Gosio'
p760
aS'Tomas Vallejos Cinalli'
p761
aS'Lisandro Ahualli de Chazal'
p762
aS'Valentin Cruz Hernestrosa'
p763
aS'Martin Garcia Veiga'
p764
aS'Manuel Montero'
p765
aS'Matias Orlando'
p766
aS'Javier Ortega Desio'
p767
aS'Diego Palma'
p768
aS'Javier Rojas Alvarez'
p769
aS'Stefano Ambrosio'
p770
aS'Nicolas Azorin'
p771
aS'Facundo Barrea'
p772
aS'Cesar Fruttero'
p773
aS'Bruno Postiglioni'
p774
aS'Ignacio Saenz Lancuba'
p775
aS'German Araoz'
p776
aS'Santiago Craig'
p777
aS'Joaquin Tuculet'
p778
aS'Andres Bordoy'
p779
aS'Nahuel Lobo'
p780
aS'Maximiliano Bustos'
p781
aS'Juan Cappiello'
p782
aS'Tomas Carrio'
p783
aS'Matias Diaz'
p784
aS'Dan Isaack'
p785
aS'Fidel Lamy'
p786
aS'Tomas Lavanini'
p787
aS'Santiago Mendez Angelillo'
p788
aS'Francisco Panessi'
p789
aS'Joaquin Paz'
p790
aS'Sebastian Poet'
p791
aS'Santiago Rocchia'
p792
aS'German Schulz'
p793
aS'Santiago Alvarez Fourcade'
p794
aS'Tomas Borghi'
p795
aS'Martin Chiappesoni'
p796
aS'Tomas Gilardon'
p797
aS'Santiago Iglesias Valdez'
p798
aS'Pedro Imhoff'
p799
aS'Patricio Fernandez Fiant'
p800
aS'Santiago Garcia Botta'
p801
aS'Pablo Matera'
p802
aS'Joaquin Paz'
p803
aS'Macario Villaluenga'
p804
aS'Gonzalo Manso'
p805
aS'Santiago Cordero'
p806
aS'Antonio Ahualli de Chazal'
p807
aS'Matias Alemanno'
p808
aS'Jeronimo de la Fuente'
p809
aS'Lucas Noguera Paz'
p810
aS'Lucas Ponce'
p811
aS'Felipe Ezcurra'
p812
aS'Julian Montoya'
p813
aS'Lucas Maguire'
p814
aS'Ramiro Herrera'
p815
aS'Matias Moroni'
p816
aS'Juan Cruz Guillemain'
p817
aS'Facundo Isa'
p818
aS'Guido Petti Pagadizaval'
p819
aS'Tomas Lezana'
p820
aS'Geronimo Albertario'
p821
aS'Gregorio del Prete'
p822
aS'Juan Leon Novillo'
p823
aS'Gonzalo Bertranou'
p824
aS'Manuel Plaza'
p825
aS'Juan Pablo Socino'
p826
a.