(lp1
VProp
p2
aVHooker
p3
aVCentre
p4
aVFlanker
p5
aVForward
p6
aVLock
p7
aVCentre
p8
aVFlanker
p9
aVWing
p10
aVFly-half
p11
aVProp
p12
aVFullback
p13
aVLock
p14
aVWing
p15
aVScrum-half
p16
aV
aV
aV
aV
aV
aV
aV
aV
aV
aV
aV
aV
aV
aV
aV
aV
aV
aV
aV
aV
aV
aV
aV
aV
aV
aV
aV
aV
aV
aV
aV
aV
aV
aV
aV
aV
aV
aV
aV
aV
aV
aV
aV
aV
aV
aV
aV
aV
aV
aV
aV
aV
aV
aV
aV
aV
aV
aV
aV
aV
aVHooker
p17
aV
aV
aV
aV
aV
aV
aV
aV
aV
aV
aV
aV
aV
aV
aV
aV
aVWing
p18
aVWing
p19
aVScrum-half
p20
aVProp
p21
aVFullback
p22
aVFly-half
p23
aVLock
p24
aVFlanker, Prop
p25
aVLock
p26
aVCentre, Fly-half
p27
aVBack-row, Hooker
p28
aVProp
p29
aVHooker
p30
aVLock, Flanker
p31
aVCentre
p32
aVHooker
p33
aVProp
p34
aVScrum-half, Flanker
p35
aVCentre
p36
aVProp, Flanker
p37
aVNo. 8
p38
aVCentre
p39
aVWing
p40
aVWing
p41
aVLock
p42
aVWing
p43
aVFullback
p44
aVFlanker
p45
aVCentre
p46
aVProp
p47
aVCentre
p48
aVProp
p49
aVWing
p50
aVHooker
p51
aVProp
p52
aVCentre
p53
aV
aVCentre
p54
aVBack-row
p55
aVLock
p56
aVLock
p57
aVWing
p58
aVBack-row
p59
aV
aVFly-half
p60
aVNo. 8
p61
aVFullback
p62
aVFlanker
p63
aVCentre
p64
aVFlanker, Wing
p65
aVWing
p66
aVHooker
p67
aVCentre
p68
aVProp
p69
aVFly-half
p70
aVFlanker
p71
aVLock
p72
aVNo. 8
p73
aVFullback
p74
aVFlanker
p75
aVLock
p76
aV
aV
aV
aV
aV
aVProp
p77
aV
aV
aVNo. 8
p78
aV
aV
aV
aVFly-half
p79
aV
aV
aV
aVFlanker
p80
aV
aVFly-half
p81
aV
aVScrum-half
p82
aVWing
p83
aV
aV
aV
aVProp
p84
aV
aV
aVHooker
p85
aVWing
p86
aVCentre
p87
aV
aVFullback
p88
aVScrum-half
p89
aVWing
p90
aVWing
p91
aVCentre
p92
aVLock
p93
aVFlanker
p94
aVLock
p95
aVNo. 8
p96
aVFlanker
p97
aVProp
p98
aVFullback
p99
aVHooker
p100
aVProp
p101
aVFlanker
p102
aV
aV
aV
aV
aVCentre, Fly-half
p103
aVFlanker
p104
aV
aVScrum-half
p105
aVHooker
p106
aV
aVFlanker
p107
aV
aV
aV
aV
aV
aV
aV
aVFly-half
p108
aV
aV
aV
aVCentre
p109
aVFullback
p110
aVProp
p111
aVProp
p112
aV
aVWing, Centre
p113
aVWing
p114
aVFly-half
p115
aVCentre
p116
aVNo. 8
p117
aVScrum-half
p118
aVLock
p119
aV
aV
aVFlanker
p120
aV
aVHooker
p121
aV
aV
aV
aVCentre
p122
aVWing
p123
aVFullback
p124
aVProp
p125
aVFullback
p126
aVWing
p127
aVFly-half
p128
aVNo. 8
p129
aV
aVFlanker
p130
aV
aVFly-half
p131
aVWing
p132
aV
aV
aVCentre
p133
aVFlanker
p134
aVLock
p135
aV
aVProp
p136
aVHooker
p137
aV
aVHooker
p138
aVFlanker
p139
aV
aV
aVProp
p140
aV
aV
aVFly-half
p141
aV
aV
aVHooker
p142
aV
aVWing
p143
aVWing, Fullback
p144
aVFullback
p145
aVProp
p146
aVHooker
p147
aVLock
p148
aVFlanker
p149
aVLock
p150
aVProp
p151
aV
aVNo. 8
p152
aVWing
p153
aVProp
p154
aVProp
p155
aVHooker
p156
aVWing
p157
aV
aV
aV
aV
aV
aVCentre
p158
aVLock
p159
aVScrum-half
p160
aVNo. 8
p161
aVNo. 8
p162
aV
aVFullback
p163
aVProp
p164
aV
aV
aV
aV
aVNo. 8
p165
aVFullback
p166
aV
aV
aVWing
p167
aVWing
p168
aVNo. 8
p169
aVFlanker
p170
aVFullback
p171
aVNo. 8
p172
aVProp
p173
aVCentre
p174
aVLock
p175
aVWing
p176
aVScrum-half
p177
aVNo. 8
p178
aV
aV
aVHooker
p179
aV
aV
aVLock
p180
aV
aV
aV
aV
aV
aV
aVWing
p181
aVCentre
p182
aVFullback, Centre, Fly-half
p183
aVFlanker
p184
aVNo. 8
p185
aVFlanker
p186
aVScrum-half
p187
aVLock
p188
aVHooker
p189
aVProp
p190
aVFlanker
p191
aV
aVHooker
p192
aVLock
p193
aV
aVScrum-half
p194
aV
aV
aVProp
p195
aVFly-half
p196
aV
aV
aVNo. 8
p197
aVWing
p198
aV
aV
aVProp
p199
aVScrum-half
p200
aVCentre
p201
aVFlanker
p202
aVWing
p203
aVProp
p204
aVScrum-half
p205
aVLock
p206
aVWing
p207
aVProp
p208
aVFlanker
p209
aVFullback
p210
aV
aVWing
p211
aV
aVWing, Centre
p212
aV
aV
aV
aVWing
p213
aVFlanker
p214
aVFullback, Wing
p215
aVFlanker
p216
aV
aV
aVProp
p217
aV
aV
aVProp
p218
aVWing
p219
aVCentre
p220
aVScrum-half
p221
aVFullback
p222
aV
aVProp
p223
aVProp
p224
aVFlanker
p225
aVScrum-half
p226
aVLock
p227
aV
aVLock
p228
aVFlanker
p229
aVCentre
p230
aVScrum-half
p231
aVFullback
p232
aVFlanker
p233
aVNo. 8
p234
aVHooker
p235
aV
aVLock
p236
aV
aV
aVWing
p237
aVWing
p238
aVFlanker
p239
aVHooker
p240
aV
aVFullback
p241
aVFly-half
p242
aVWing
p243
aVFlanker
p244
aVScrum-half
p245
aVNo. 8
p246
aVLock
p247
aVFullback
p248
aVLock, Flanker
p249
aVFlanker
p250
aVWing
p251
aVNo. 8
p252
aVFly-half
p253
aVWing
p254
aVWing
p255
aVLock
p256
aV
aVFly-half
p257
aV
aVNo. 8
p258
aVProp
p259
aVLock
p260
aVWing
p261
aVCentre
p262
aVFullback
p263
aVProp
p264
aVScrum-half
p265
aVWing
p266
aVCentre
p267
aVHooker
p268
aVLock
p269
aVFlanker
p270
aVProp, Hooker
p271
aVLock
p272
aVFly-half
p273
aVCentre, Scrum-half
p274
aVFlanker
p275
aVFly-half
p276
aVNo. 8
p277
aVWing
p278
aV
aVScrum-half
p279
aV
aVNo. 8
p280
aV
aV
aVCentre
p281
aVFly-half
p282
aV
aVNo. 8
p283
aVNo. 8, Lock
p284
aVProp
p285
aV
aV
aVProp
p286
aVWing
p287
aVCentre
p288
aVHooker
p289
aVFlanker
p290
aVCentre, Fullback
p291
aVFlanker
p292
aVNo. 8, Lock
p293
aVHooker
p294
aVWing
p295
aVWing
p296
aVFlanker
p297
aVCentre
p298
aVProp
p299
aVNo. 8
p300
aVHooker
p301
aV
aVProp
p302
aVHooker
p303
aVFlanker
p304
aV
aV
aVCentre
p305
aVHooker
p306
aVFlanker
p307
aVScrum-half
p308
aVFlanker
p309
aVWing
p310
aVCentre
p311
aVFly-half
p312
aVWing
p313
aV
aVProp
p314
aV
aVCentre
p315
aVScrum-half
p316
aVFullback
p317
aVWing
p318
aVLock
p319
aV
aV
aVLock
p320
aVHooker
p321
aVProp
p322
aVProp
p323
aVFullback
p324
aVCentre
p325
aVWing
p326
aVLock
p327
aVScrum-half
p328
aVLock
p329
aVFly-half
p330
aVProp
p331
aVCentre
p332
aVFlanker
p333
aVProp
p334
aVScrum-half
p335
aVCentre
p336
aVHooker
p337
aVCentre
p338
aVWing
p339
aVCentre
p340
aVBack-row
p341
aVLock
p342
aVLock
p343
aVLock
p344
aVFullback
p345
aVFlanker
p346
aVCentre
p347
aVHooker, Prop
p348
aVFlanker
p349
aVWing
p350
aVFlanker
p351
aVWing
p352
aV
aVScrum-half
p353
aV
aVProp
p354
aVFly-half
p355
aVFlanker
p356
aVFlanker
p357
aVProp
p358
aV
aVFlanker
p359
aVFullback
p360
aVFullback, Wing
p361
aV
aV
aVFly-half, Fullback
p362
aVCentre
p363
aVProp
p364
aVFullback
p365
aVFly-half
p366
aVWing
p367
aVProp
p368
aVFlanker
p369
aVFullback
p370
aVFullback
p371
aVLock
p372
aVProp
p373
aVWing
p374
aVHooker
p375
aVCentre
p376
aVNo. 8
p377
aVFly-half
p378
aVLock
p379
aVProp
p380
aVProp
p381
aV
aVFlanker
p382
aVFly-half
p383
aVLock
p384
aV
aV
aVCentre
p385
aVNo. 8
p386
aVFlanker
p387
aVHooker
p388
aVFlanker
p389
aVProp
p390
aVProp
p391
aVLock
p392
aVWing, Centre
p393
aVLock
p394
aVHooker
p395
aVScrum-half
p396
aVWing, Fullback
p397
aVLock
p398
aVProp
p399
aVProp
p400
aVProp
p401
aVWing, Centre
p402
aVNo. 8
p403
aVCentre
p404
aVScrum-half
p405
aVLock
p406
aVWing
p407
aVFly-half
p408
aVHooker
p409
aVFullback
p410
aVProp
p411
aVHooker
p412
aVFlanker
p413
aVProp
p414
aVHooker
p415
aVCentre
p416
aVFullback
p417
aVFlanker
p418
aVWing, Centre
p419
aVFullback, Wing
p420
aVProp
p421
aVProp
p422
aVFlanker
p423
aVFly-half
p424
aVProp, Hooker
p425
aVNo. 8
p426
aVBack-row
p427
aVWing, Scrum-half
p428
aVUtility back
p429
aVCentre
p430
aVLock
p431
aVBack-row
p432
aVCentre
p433
aVProp
p434
aVLock
p435
aVHooker
p436
aVCentre
p437
aVBack-row
p438
aVHooker
p439
aVFullback, Wing
p440
aVLock
p441
aVProp, Hooker
p442
aVProp
p443
aVHooker
p444
aVProp
p445
aVScrum-half
p446
aVWing
p447
aVHooker
p448
aVLock
p449
aVProp
p450
aVWing
p451
aVBack-row
p452
aVCentre
p453
aVBack-row
p454
aVCentre
p455
aVLock
p456
aVFullback, Centre
p457
aVProp
p458
aVBack-row
p459
aVWing
p460
aVFly-half
p461
aVFullback
p462
aVLock
p463
aVFly-half
p464
aVScrum-half
p465
aVBack-row
p466
aVNo. 8
p467
aVFullback
p468
aVFullback
p469
aVLock
p470
aVHooker
p471
aVFullback
p472
aVProp
p473
aVWing
p474
aVWing, Fullback
p475
aVUtility back
p476
aVProp
p477
aVLock
p478
aVHooker
p479
aVBack-row
p480
aVLock
p481
aVProp
p482
aVFullback
p483
aVHooker
p484
aVProp
p485
aVScrum-half
p486
aVWing
p487
aVBack-row
p488
aVCentre
p489
aVBack-row
p490
aVLock
p491
aVHooker
p492
aVHooker, Prop
p493
aVScrum-half
p494
aVBack-row
p495
aVProp
p496
aVCentre
p497
aVScrum-half
p498
aVFullback
p499
aVScrum-half
p500
aVFlanker
p501
aVFullback
p502
aVFly-half
p503
aVWing
p504
aVNo. 8
p505
aVProp
p506
aVCentre
p507
aVProp
p508
aVCentre
p509
aVScrum-half
p510
aVHooker
p511
aVCentre
p512
aVProp
p513
aVBack-row
p514
aVCentre
p515
aVCentre
p516
aVProp
p517
aVCentre
p518
aVScrum-half
p519
aVLock
p520
aVProp
p521
aVHooker
p522
aVFly-half
p523
aVFlanker
p524
aVProp
p525
aVLock
p526
aVLock
p527
aVProp
p528
aVBack-row
p529
aVNo. 8
p530
aVFly-half
p531
aVFlanker
p532
aVFly-half
p533
aVLock
p534
aVHooker
p535
aVLock
p536
aVBack-row
p537
aVProp
p538
aVFly-half
p539
aVScrum-half
p540
aVFullback
p541
aVFullback
p542
aVCentre
p543
aVProp
p544
aVWing
p545
aVLock
p546
aVFlanker
p547
aVFly-half
p548
aVHooker
p549
aVWing
p550
aVCentre
p551
aVFlanker
p552
aVWing
p553
aVCentre
p554
aVCentre, Fly-half
p555
aVFlanker
p556
aVWing
p557
aVLock
p558
aVProp, Hooker
p559
aVProp
p560
aVProp
p561
aVCentre
p562
aVCentre
p563
aVHooker
p564
aVProp
p565
aVProp
p566
aVCentre
p567
aVFullback
p568
aVProp
p569
aVCentre
p570
aVFlanker
p571
aVLock
p572
aVScrum-half
p573
aVNo. 8
p574
aVFly-half
p575
aVFly-half
p576
aVFlanker
p577
aVWing
p578
aVCentre
p579
aVLock
p580
aVLock
p581
aVProp
p582
aVHooker
p583
aVScrum-half
p584
aVFullback
p585
aVProp
p586
aVFlanker
p587
aVFullback
p588
aVWing
p589
aVHooker
p590
aVFullback
p591
aVNo. 8
p592
aVLock
p593
aVCentre
p594
aVProp
p595
aVLock
p596
aVScrum-half
p597
aVHooker
p598
aVBack-row
p599
aVProp
p600
aVCentre
p601
aVLock
p602
aVFlanker
p603
aVLock
p604
aVFlanker
p605
aVLock
p606
aVScrum-half
p607
aVWing
p608
aVScrum-half
p609
aVLock
p610
a.