(lp1
VProp
p2
aVHooker
p3
aVCentre
p4
aVFlanker
p5
aVForward
p6
aVLock
p7
aVCentre
p8
aVFlanker
p9
aVWing
p10
aVFly-half
p11
aVProp
p12
aVFullback
p13
aVLock
p14
aVWing
p15
aVScrum-half
p16
aVWing
p17
aVProp
p18
aVProp
p19
aVHooker
p20
aVScrum-half
p21
aVLock
p22
aVFlanker
p23
aVCentre
p24
aVFlanker
p25
aVNo. 8
p26
aVFullback
p27
aVCentre
p28
aVLock
p29
aVWing
p30
aVFly-half
p31
aVWing
p32
aVNo. 8
p33
aVWing
p34
aVCentre
p35
aVFullback
p36
aVCentre
p37
aVProp
p38
aVNo. 8
p39
aVFullback
p40
aVWing
p41
aVHooker
p42
aVWing
p43
aVFly-half
p44
aVFlanker
p45
aVScrum-half
p46
aVProp
p47
aVLock
p48
aVFullback
p49
aVCentre
p50
aVProp
p51
aVNo. 8
p52
aVWing
p53
aVFlanker
p54
aVFly-half
p55
aVLock
p56
aVHooker
p57
aVCentre
p58
aVScrum-half
p59
aVCentre
p60
aVFlanker
p61
aVFly-half
p62
aVFullback
p63
aVFlanker
p64
aVScrum-half
p65
aVWing
p66
aVFlanker
p67
aVHooker
p68
aVNo. 8
p69
aVProp
p70
aVCentre
p71
aVLock
p72
aVWing
p73
aVCentre
p74
aVFly-half
p75
aVFly-half
p76
aVHooker
p77
aVWing
p78
aVLock
p79
aVProp
p80
aVCentre
p81
aVLock
p82
aVFullback
p83
aVWing
p84
aVFlanker
p85
aVWing
p86
aVCentre
p87
aVFullback
p88
aVLock
p89
aVScrum-half
p90
aVFlanker
p91
aVNo. 8
p92
aVProp
p93
aVWing
p94
aVWing
p95
aVScrum-half
p96
aVProp
p97
aVFullback
p98
aVFly-half
p99
aVLock
p100
aVProp, Flanker
p101
aVLock
p102
aVCentre, Fly-half
p103
aVHooker, Back-row
p104
aVProp
p105
aVHooker
p106
aVLock, Flanker
p107
aVCentre
p108
aVHooker
p109
aVProp
p110
aVScrum-half, Flanker
p111
aVCentre
p112
aVFlanker, Prop
p113
aVNo. 8
p114
aVCentre
p115
aVWing
p116
aVWing
p117
aVLock
p118
aVWing
p119
aVFullback
p120
aVFlanker
p121
aVCentre
p122
aVProp
p123
aVCentre
p124
aVProp
p125
aVWing
p126
aVHooker
p127
aVProp
p128
aVCentre
p129
aVWing
p130
aVCentre
p131
aVBack-row
p132
aVLock
p133
aVLock
p134
aVWing
p135
aVBack-row
p136
aVFullback
p137
aVFly-half
p138
aVNo. 8
p139
aVFullback
p140
aVFlanker
p141
aVCentre
p142
aVWing, Flanker
p143
aVWing
p144
aVHooker
p145
aVCentre
p146
aVProp
p147
aVFly-half
p148
aVFlanker
p149
aVLock
p150
aVNo. 8
p151
aVFullback
p152
aVFlanker
p153
aVLock
p154
aVFly-half
p155
aVHooker
p156
aVLock
p157
aVLock
p158
aVScrum-half
p159
aVProp
p160
aVNo. 8
p161
aVProp
p162
aVNo. 8
p163
aVFlanker
p164
aVFlanker
p165
aVLock
p166
aVFly-half
p167
aVWing
p168
aVScrum-half
p169
aVCentre
p170
aVFlanker
p171
aVHooker
p172
aVFly-half
p173
aVLock
p174
aVScrum-half
p175
aVWing
p176
aVCentre
p177
aVLock
p178
aVFullback
p179
aVProp
p180
aVProp
p181
aVWing
p182
aVHooker
p183
aVWing
p184
aVCentre
p185
aVFullback
p186
aVFullback
p187
aVScrum-half
p188
aVWing
p189
aVWing
p190
aVCentre
p191
aVLock
p192
aVFlanker
p193
aVLock
p194
aVNo. 8
p195
aVFlanker
p196
aVProp
p197
aVFullback
p198
aVHooker
p199
aVProp
p200
aVFlanker
p201
aVFullback
p202
aVWing
p203
aVFly-half
p204
aVFlanker
p205
aVCentre, Fly-half
p206
aVFlanker
p207
aVLock
p208
aVScrum-half
p209
aVHooker
p210
aVFullback
p211
aVFlanker
p212
aVFly-half
p213
aVFlanker
p214
aVCentre
p215
aVCentre
p216
aVProp
p217
aVFly-half
p218
aVLock
p219
aVFly-half
p220
aVFlanker
p221
aVProp
p222
aVFly-half
p223
aVCentre
p224
aVFullback
p225
aVProp
p226
aVProp
p227
aVLock
p228
aVWing, Centre
p229
aVWing
p230
aVFly-half
p231
aVCentre
p232
aVNo. 8
p233
aVScrum-half
p234
aVLock
p235
aVWing
p236
aVFlanker
p237
aVFlanker
p238
aVFullback
p239
aVHooker
p240
aVNo. 8
p241
aVFly-half
p242
aVHooker
p243
aVCentre
p244
aVWing
p245
aVFullback
p246
aVProp
p247
aVFullback
p248
aVWing
p249
aVFly-half
p250
aVNo. 8
p251
aVProp
p252
aVFlanker
p253
aVScrum-half
p254
aVFly-half
p255
aVWing
p256
aVScrum-half
p257
aVFly-half
p258
aVCentre
p259
aVFlanker
p260
aVLock
p261
aVNo. 8
p262
aVProp
p263
aVHooker
p264
aVCentre
p265
aVHooker
p266
aVFlanker
p267
aVLock
p268
aVFullback
p269
aVProp
p270
aVCentre
p271
aVWing
p272
aVFly-half
p273
aVCentre
p274
aVFlanker
p275
aVHooker
p276
aVCentre
p277
aVWing
p278
aVFullback, Wing
p279
aVFullback
p280
aVProp
p281
aVHooker
p282
aVLock
p283
aVFlanker
p284
aVLock
p285
aVProp
p286
aVProp
p287
aVNo. 8
p288
aVWing
p289
aVProp
p290
aVProp
p291
aVHooker
p292
aVWing
p293
aVWing
p294
aVFlanker
p295
aVFullback
p296
aVFlanker
p297
aVFly-half
p298
aVCentre
p299
aVLock
p300
aVScrum-half
p301
aVNo. 8
p302
aVNo. 8
p303
aVLock
p304
aVFullback
p305
aVProp
p306
aVHooker
p307
aVProp
p308
aVFlanker
p309
aVFly-half
p310
aVNo. 8
p311
aVFullback
p312
aVHooker
p313
aVCentre
p314
aVWing
p315
aVWing
p316
aVNo. 8
p317
aVFlanker
p318
aVFullback
p319
aVNo. 8
p320
aVProp
p321
aVCentre
p322
aVLock
p323
aVWing
p324
aVScrum-half
p325
aVNo. 8
p326
aVProp
p327
aVCentre
p328
aVHooker
p329
aVFullback
p330
aVWing
p331
aVLock
p332
aVCentre
p333
aVFlanker
p334
aVLock
p335
aVFly-half
p336
aVHooker
p337
aVProp
p338
aVWing
p339
aVCentre
p340
aVFullback, Centre, Fly-half
p341
aVFlanker
p342
aVNo. 8
p343
aVFlanker
p344
aVScrum-half
p345
aVLock
p346
aVHooker
p347
aVProp
p348
aVFlanker
p349
aVFullback
p350
aVHooker
p351
aVLock
p352
aVLock
p353
aVScrum-half
p354
aVFlanker
p355
aVWing
p356
aVProp
p357
aVFly-half
p358
aVScrum-half
p359
aVCentre
p360
aVNo. 8
p361
aVWing
p362
aVHooker
p363
aVFly-half
p364
aVProp
p365
aVScrum-half
p366
aVCentre
p367
aVFlanker
p368
aVWing
p369
aVProp
p370
aVScrum-half
p371
aVLock
p372
aVWing
p373
aVProp
p374
aVFlanker
p375
aVFullback
p376
aVProp
p377
aVWing
p378
aVScrum-half
p379
aVWing, Centre
p380
aVCentre
p381
aVHooker
p382
aVLock
p383
aVWing
p384
aVFlanker
p385
aVFullback, Wing
p386
aVFlanker
p387
aVFullback
p388
aVProp
p389
aVProp
p390
aVFly-half
p391
aVScrum-half
p392
aVProp
p393
aVWing
p394
aVCentre
p395
aVScrum-half
p396
aVFullback
p397
aVScrum-half
p398
aVProp
p399
aVProp
p400
aVFlanker
p401
aVScrum-half
p402
aVLock
p403
aVProp
p404
aVLock
p405
aVFlanker
p406
aVCentre
p407
aVScrum-half
p408
aVFullback
p409
aVFlanker
p410
aVNo. 8
p411
aVHooker
p412
aVCentre
p413
aVLock
p414
aVProp
p415
aVFlanker
p416
aVWing
p417
aVWing
p418
aVFlanker
p419
aVHooker
p420
aVProp
p421
aVFullback
p422
aVFly-half
p423
aVWing
p424
aVFlanker
p425
aVScrum-half
p426
aVNo. 8
p427
aVLock
p428
aVFullback
p429
aVLock, Flanker
p430
aVFlanker
p431
aVWing
p432
aVNo. 8
p433
aVFly-half
p434
aVWing
p435
aVWing
p436
aVLock
p437
aVCentre
p438
aVFly-half
p439
aVProp
p440
aVNo. 8
p441
aVProp
p442
aVLock
p443
aVWing
p444
aVCentre
p445
aVFullback
p446
aVProp
p447
aVScrum-half
p448
aVWing
p449
aVCentre
p450
aVHooker
p451
aVLock
p452
aVFlanker
p453
aVProp, Hooker
p454
aVLock
p455
aVFly-half
p456
aVCentre, Scrum-half
p457
aVFlanker
p458
aVFly-half
p459
aVNo. 8
p460
aVWing
p461
aVFlanker
p462
aVScrum-half
p463
aVFlanker
p464
aVNo. 8
p465
aVWing
p466
aVCentre
p467
aVCentre
p468
aVFly-half
p469
aVHooker
p470
aVNo. 8
p471
aVLock, No. 8
p472
aVProp
p473
aVHooker
p474
aVLock
p475
aVProp
p476
aVWing
p477
aVCentre
p478
aVHooker
p479
aVFlanker
p480
aVFullback, Centre
p481
aVFlanker
p482
aVNo. 8, Lock
p483
aVHooker
p484
aVWing
p485
aVWing
p486
aVFlanker
p487
aVCentre
p488
aVProp
p489
aVNo. 8
p490
aVHooker
p491
aV
aVProp
p492
aVHooker
p493
aVFlanker
p494
aVNo. 8
p495
aV
aVCentre
p496
aVHooker
p497
aVFlanker
p498
aVScrum-half
p499
aVFlanker
p500
aVWing
p501
aVCentre
p502
aVFly-half
p503
aVWing
p504
aVLock
p505
aVProp
p506
aVLock
p507
aVCentre
p508
aVScrum-half
p509
aVFullback
p510
aVWing
p511
aVLock
p512
aVFlanker
p513
aVLock
p514
aVLock
p515
aVHooker
p516
aVProp
p517
aVProp
p518
aVFullback
p519
aVCentre
p520
aVWing
p521
aVLock
p522
aVScrum-half
p523
aVLock
p524
aVFly-half
p525
aVProp
p526
aVCentre
p527
aVFlanker
p528
aVProp
p529
aVScrum-half
p530
aVCentre
p531
aVHooker
p532
aVCentre
p533
aVWing
p534
aVCentre
p535
aVBack-row
p536
aVLock
p537
aVLock
p538
aVLock
p539
aVFullback
p540
aVFlanker
p541
aVCentre
p542
aVHooker, Prop
p543
aVFlanker
p544
aVWing
p545
aVFlanker
p546
aVWing
p547
aV
aVScrum-half
p548
aV
aVProp
p549
aVFly-half
p550
aVFlanker
p551
aVFlanker
p552
aVProp
p553
aVHooker
p554
aVFlanker
p555
aVFullback
p556
aVFullback, Wing
p557
aVLock
p558
aV
aVFullback, Fly-half
p559
aVCentre
p560
aVProp
p561
aVFullback
p562
aVFly-half
p563
aVWing
p564
aVProp
p565
aVFlanker
p566
aVFullback
p567
aVFullback
p568
aVLock
p569
aVProp
p570
aVWing
p571
aVHooker
p572
aVCentre
p573
aVNo. 8
p574
aVFly-half
p575
aVLock
p576
aVProp
p577
aVProp
p578
aV
aVFlanker
p579
aVFly-half
p580
aVLock
p581
aV
aV
aVCentre
p582
aVNo. 8
p583
aVFlanker
p584
aVHooker
p585
aVFlanker
p586
aVProp
p587
aVProp
p588
aVLock
p589
aVCentre, Wing
p590
aVLock
p591
aVHooker
p592
aVScrum-half
p593
aVFullback, Wing
p594
aVLock
p595
aVProp
p596
aVProp
p597
aVProp
p598
aVWing, Centre
p599
aVNo. 8
p600
aVCentre
p601
aVScrum-half
p602
aVLock
p603
aVWing
p604
aVFly-half
p605
aVHooker
p606
aVFullback
p607
aVProp
p608
aVHooker
p609
aVFlanker
p610
aVProp
p611
aVHooker
p612
aVCentre
p613
aVFullback
p614
aVFlanker
p615
aVWing, Centre
p616
aVWing, Fullback
p617
aVProp
p618
aVProp
p619
aVFlanker
p620
aVFly-half
p621
aVHooker, Prop
p622
aVNo. 8
p623
aVBack-row
p624
aVWing, Scrum-half
p625
aVUtility back
p626
aVCentre
p627
aVLock
p628
aVBack-row
p629
aVCentre
p630
aVProp
p631
aVLock
p632
aVHooker
p633
aVCentre
p634
aVBack-row
p635
aVHooker
p636
aVLock
p637
aVBack-row
p638
aVBack-row
p639
aVHooker, Prop
p640
aVNo. 8
p641
aVWing
p642
aVFly-half
p643
aVCentre
p644
aVFullback
p645
aVCentre
p646
aVScrum-half
p647
aV
aVFullback, Wing
p648
aVLock
p649
aV
aVProp
p650
aVBack-row
p651
aVHooker
p652
aV
aVWing
p653
aVHooker
p654
aVProp
p655
aVWing
p656
aVHooker
p657
aVLock
p658
aVProp
p659
aVCentre
p660
aVBack-row
p661
aVCentre
p662
aVLock
p663
aVFullback, Centre
p664
aVProp
p665
aVBack-row
p666
aVWing
p667
aVFly-half
p668
aVFullback
p669
aVLock
p670
aVFly-half
p671
aVScrum-half
p672
aVBack-row
p673
aVFullback
p674
aVFullback
p675
aVLock
p676
aVHooker
p677
aVFullback
p678
aVProp
p679
aVWing
p680
aVWing, Fullback
p681
aVUtility back
p682
aVProp
p683
aVLock
p684
aVHooker
p685
aVBack-row
p686
aVLock
p687
aVProp
p688
aVHooker
p689
aVProp
p690
aVScrum-half
p691
aVWing
p692
aVBack-row
p693
aVCentre
p694
aVBack-row
p695
aVLock
p696
aVHooker
p697
aVProp, Hooker
p698
aVScrum-half
p699
aVBack-row
p700
aVProp
p701
aVCentre
p702
aVScrum-half
p703
aVFullback
p704
aVScrum-half
p705
aVFlanker
p706
aVFullback
p707
aVFly-half
p708
aVWing
p709
aVNo. 8
p710
aVProp
p711
aVCentre
p712
aVProp
p713
aVCentre
p714
aVScrum-half
p715
aVHooker
p716
aVCentre
p717
aVProp
p718
aVBack-row
p719
aVCentre
p720
aVProp
p721
aVCentre
p722
aVScrum-half
p723
aVLock
p724
aVProp
p725
aVHooker
p726
aVFly-half
p727
aVFlanker
p728
aVProp
p729
aVLock
p730
aVLock
p731
aVProp
p732
aVBack-row
p733
aVNo. 8
p734
aVFly-half
p735
aVFlanker
p736
aVFly-half
p737
aVLock
p738
aVHooker
p739
aVLock
p740
aVBack-row
p741
aVProp
p742
aVFly-half
p743
aVScrum-half
p744
aVFullback
p745
aVFullback
p746
aVCentre
p747
aVProp
p748
aVWing
p749
aVLock
p750
aVFlanker
p751
aVFly-half
p752
aVHooker
p753
aVWing
p754
aVCentre
p755
aVFlanker
p756
aVWing
p757
aVCentre
p758
aVCentre, Fly-half
p759
aVFlanker
p760
aVWing
p761
aVLock
p762
aVProp
p763
aVProp
p764
aVProp
p765
aVCentre
p766
aVCentre
p767
aVHooker
p768
aVProp
p769
aVProp
p770
aVCentre
p771
aVFullback
p772
aVProp
p773
aVCentre
p774
aVFlanker
p775
aVLock
p776
aVScrum-half
p777
aVNo. 8
p778
aVFly-half
p779
aVFly-half
p780
aVFlanker
p781
aVWing
p782
aVCentre
p783
aVLock
p784
aVBack-row
p785
aVProp
p786
aVHooker
p787
aVScrum-half
p788
aVFullback
p789
aVProp
p790
aVFlanker
p791
aVFullback
p792
aVWing
p793
aVHooker
p794
aVFullback
p795
aVNo. 8
p796
aVLock
p797
aVCentre
p798
aVProp
p799
aVLock
p800
aVScrum-half
p801
aVHooker
p802
aVBack-row
p803
aVProp
p804
aVCentre
p805
aVLock
p806
aVFlanker
p807
aVLock
p808
aVFlanker
p809
aVLock
p810
aVScrum-half
p811
aVWing
p812
aVScrum-half
p813
aVLock
p814
aVCentre
p815
a.