(lp1
(dp2
S'Pens'
p3
S'0'
sS'Sub'
p4
S'0'
sS'Lost'
p5
S'1'
sS'Drop'
p6
S'0'
sS'Start'
p7
S'1'
sS'Won'
p8
S'0'
sS'GfM'
p9
S'0'
sS'Draw'
p10
S'0'
sS'Mat'
p11
S'1'
sS'Conv'
p12
S'0'
sS'Tries'
p13
S'0'
sS'Pts'
p14
S'0'
sa(dp15
S'Pens'
p16
S'0'
sS'Sub'
p17
S'0'
sS'Lost'
p18
S'1'
sS'Drop'
p19
S'0'
sS'Start'
p20
S'1'
sS'Won'
p21
S'0'
sS'GfM'
p22
S'0'
sS'Draw'
p23
S'0'
sS'Mat'
p24
S'1'
sS'Conv'
p25
S'0'
sS'Tries'
p26
S'0'
sS'Pts'
p27
S'0'
sa(dp28
S'Pens'
p29
S'0'
sS'Sub'
p30
S'0'
sS'Lost'
p31
S'1'
sS'Drop'
p32
S'0'
sS'Start'
p33
S'1'
sS'Won'
p34
S'0'
sS'GfM'
p35
S'0'
sS'Draw'
p36
S'0'
sS'Mat'
p37
S'1'
sS'Conv'
p38
S'0'
sS'Tries'
p39
S'0'
sS'Pts'
p40
S'0'
sa(dp41
S'Pens'
p42
S'0'
sS'Sub'
p43
S'0'
sS'Lost'
p44
S'1'
sS'Drop'
p45
S'0'
sS'Start'
p46
S'1'
sS'Won'
p47
S'0'
sS'GfM'
p48
S'0'
sS'Draw'
p49
S'0'
sS'Mat'
p50
S'1'
sS'Conv'
p51
S'0'
sS'Tries'
p52
S'0'
sS'Pts'
p53
S'0'
sa(dp54
S'Pens'
p55
S'0'
sS'Sub'
p56
S'0'
sS'Lost'
p57
S'4'
sS'Drop'
p58
S'0'
sS'Start'
p59
S'7'
sS'Won'
p60
S'2'
sS'GfM'
p61
S'0'
sS'Draw'
p62
S'1'
sS'Mat'
p63
S'7'
sS'Conv'
p64
S'3'
sS'Tries'
p65
S'0'
sS'Pts'
p66
S'6'
sa(dp67
S'Pens'
p68
S'0'
sS'Sub'
p69
S'0'
sS'Lost'
p70
S'1'
sS'Drop'
p71
S'0'
sS'Start'
p72
S'1'
sS'Won'
p73
S'0'
sS'GfM'
p74
S'0'
sS'Draw'
p75
S'0'
sS'Mat'
p76
S'1'
sS'Conv'
p77
S'0'
sS'Tries'
p78
S'0'
sS'Pts'
p79
S'0'
sa(dp80
S'Pens'
p81
S'0'
sS'Sub'
p82
S'0'
sS'Lost'
p83
S'1'
sS'Drop'
p84
S'0'
sS'Start'
p85
S'1'
sS'Won'
p86
S'0'
sS'GfM'
p87
S'0'
sS'Draw'
p88
S'0'
sS'Mat'
p89
S'1'
sS'Conv'
p90
S'0'
sS'Tries'
p91
S'0'
sS'Pts'
p92
S'0'
sa(dp93
S'Pens'
p94
S'0'
sS'Sub'
p95
S'0'
sS'Lost'
p96
S'1'
sS'Drop'
p97
S'0'
sS'Start'
p98
S'1'
sS'Won'
p99
S'0'
sS'GfM'
p100
S'0'
sS'Draw'
p101
S'0'
sS'Mat'
p102
S'1'
sS'Conv'
p103
S'0'
sS'Tries'
p104
S'0'
sS'Pts'
p105
S'0'
sa(dp106
S'Pens'
p107
S'0'
sS'Sub'
p108
S'0'
sS'Lost'
p109
S'1'
sS'Drop'
p110
S'0'
sS'Start'
p111
S'1'
sS'Won'
p112
S'0'
sS'GfM'
p113
S'0'
sS'Draw'
p114
S'0'
sS'Mat'
p115
S'1'
sS'Conv'
p116
S'0'
sS'Tries'
p117
S'1'
sS'Pts'
p118
S'3'
sa(dp119
S'Pens'
p120
S'0'
sS'Sub'
p121
S'0'
sS'Lost'
p122
S'1'
sS'Drop'
p123
S'0'
sS'Start'
p124
S'1'
sS'Won'
p125
S'0'
sS'GfM'
p126
S'0'
sS'Draw'
p127
S'0'
sS'Mat'
p128
S'1'
sS'Conv'
p129
S'0'
sS'Tries'
p130
S'0'
sS'Pts'
p131
S'0'
sa(dp132
S'Pens'
p133
S'0'
sS'Sub'
p134
S'0'
sS'Lost'
p135
S'1'
sS'Drop'
p136
S'0'
sS'Start'
p137
S'1'
sS'Won'
p138
S'0'
sS'GfM'
p139
S'0'
sS'Draw'
p140
S'0'
sS'Mat'
p141
S'1'
sS'Conv'
p142
S'0'
sS'Tries'
p143
S'0'
sS'Pts'
p144
S'0'
sa(dp145
S'Pens'
p146
S'0'
sS'Sub'
p147
S'0'
sS'Lost'
p148
S'1'
sS'Drop'
p149
S'0'
sS'Start'
p150
S'1'
sS'Won'
p151
S'0'
sS'GfM'
p152
S'0'
sS'Draw'
p153
S'0'
sS'Mat'
p154
S'1'
sS'Conv'
p155
S'0'
sS'Tries'
p156
S'0'
sS'Pts'
p157
S'0'
sa(dp158
S'Pens'
p159
S'0'
sS'Sub'
p160
S'0'
sS'Lost'
p161
S'1'
sS'Drop'
p162
S'0'
sS'Start'
p163
S'1'
sS'Won'
p164
S'0'
sS'GfM'
p165
S'0'
sS'Draw'
p166
S'0'
sS'Mat'
p167
S'1'
sS'Conv'
p168
S'0'
sS'Tries'
p169
S'0'
sS'Pts'
p170
S'0'
sa(dp171
S'Pens'
p172
S'0'
sS'Sub'
p173
S'0'
sS'Lost'
p174
S'1'
sS'Drop'
p175
S'0'
sS'Start'
p176
S'1'
sS'Won'
p177
S'0'
sS'GfM'
p178
S'0'
sS'Draw'
p179
S'0'
sS'Mat'
p180
S'1'
sS'Conv'
p181
S'0'
sS'Tries'
p182
S'0'
sS'Pts'
p183
S'0'
sa(dp184
S'Pens'
p185
S'0'
sS'Sub'
p186
S'0'
sS'Lost'
p187
S'1'
sS'Drop'
p188
S'0'
sS'Start'
p189
S'1'
sS'Won'
p190
S'0'
sS'GfM'
p191
S'0'
sS'Draw'
p192
S'0'
sS'Mat'
p193
S'1'
sS'Conv'
p194
S'0'
sS'Tries'
p195
S'0'
sS'Pts'
p196
S'0'
sa(dp197
S'Pens'
p198
S'0'
sS'Sub'
p199
S'0'
sS'Lost'
p200
S'1'
sS'Drop'
p201
S'0'
sS'Start'
p202
S'1'
sS'Won'
p203
S'0'
sS'GfM'
p204
S'0'
sS'Draw'
p205
S'0'
sS'Mat'
p206
S'1'
sS'Conv'
p207
S'0'
sS'Tries'
p208
S'0'
sS'Pts'
p209
S'0'
sa(dp210
S'Pens'
p211
S'0'
sS'Sub'
p212
S'0'
sS'Lost'
p213
S'4'
sS'Drop'
p214
S'0'
sS'Start'
p215
S'4'
sS'Won'
p216
S'0'
sS'GfM'
p217
S'0'
sS'Draw'
p218
S'0'
sS'Mat'
p219
S'4'
sS'Conv'
p220
S'0'
sS'Tries'
p221
S'0'
sS'Pts'
p222
S'0'
sa(dp223
S'Pens'
p224
S'0'
sS'Sub'
p225
S'0'
sS'Lost'
p226
S'3'
sS'Drop'
p227
S'0'
sS'Start'
p228
S'3'
sS'Won'
p229
S'0'
sS'GfM'
p230
S'0'
sS'Draw'
p231
S'0'
sS'Mat'
p232
S'3'
sS'Conv'
p233
S'0'
sS'Tries'
p234
S'0'
sS'Pts'
p235
S'0'
sa(dp236
S'Pens'
p237
S'0'
sS'Sub'
p238
S'0'
sS'Lost'
p239
S'2'
sS'Drop'
p240
S'0'
sS'Start'
p241
S'2'
sS'Won'
p242
S'0'
sS'GfM'
p243
S'0'
sS'Draw'
p244
S'0'
sS'Mat'
p245
S'2'
sS'Conv'
p246
S'0'
sS'Tries'
p247
S'0'
sS'Pts'
p248
S'0'
sa(dp249
S'Pens'
p250
S'0'
sS'Sub'
p251
S'0'
sS'Lost'
p252
S'4'
sS'Drop'
p253
S'0'
sS'Start'
p254
S'4'
sS'Won'
p255
S'0'
sS'GfM'
p256
S'0'
sS'Draw'
p257
S'0'
sS'Mat'
p258
S'4'
sS'Conv'
p259
S'0'
sS'Tries'
p260
S'0'
sS'Pts'
p261
S'0'
sa(dp262
S'Pens'
p263
S'0'
sS'Sub'
p264
S'0'
sS'Lost'
p265
S'4'
sS'Drop'
p266
S'0'
sS'Start'
p267
S'4'
sS'Won'
p268
S'0'
sS'GfM'
p269
S'0'
sS'Draw'
p270
S'0'
sS'Mat'
p271
S'4'
sS'Conv'
p272
S'0'
sS'Tries'
p273
S'0'
sS'Pts'
p274
S'0'
sa(dp275
S'Pens'
p276
S'0'
sS'Sub'
p277
S'0'
sS'Lost'
p278
S'1'
sS'Drop'
p279
S'0'
sS'Start'
p280
S'1'
sS'Won'
p281
S'0'
sS'GfM'
p282
S'0'
sS'Draw'
p283
S'0'
sS'Mat'
p284
S'1'
sS'Conv'
p285
S'0'
sS'Tries'
p286
S'0'
sS'Pts'
p287
S'0'
sa(dp288
S'Pens'
p289
S'0'
sS'Sub'
p290
S'0'
sS'Lost'
p291
S'1'
sS'Drop'
p292
S'0'
sS'Start'
p293
S'1'
sS'Won'
p294
S'0'
sS'GfM'
p295
S'0'
sS'Draw'
p296
S'0'
sS'Mat'
p297
S'1'
sS'Conv'
p298
S'0'
sS'Tries'
p299
S'0'
sS'Pts'
p300
S'0'
sa(dp301
S'Pens'
p302
S'0'
sS'Sub'
p303
S'0'
sS'Lost'
p304
S'1'
sS'Drop'
p305
S'0'
sS'Start'
p306
S'1'
sS'Won'
p307
S'0'
sS'GfM'
p308
S'0'
sS'Draw'
p309
S'0'
sS'Mat'
p310
S'1'
sS'Conv'
p311
S'0'
sS'Tries'
p312
S'0'
sS'Pts'
p313
S'0'
sa(dp314
S'Pens'
p315
S'0'
sS'Sub'
p316
S'0'
sS'Lost'
p317
S'2'
sS'Drop'
p318
S'0'
sS'Start'
p319
S'2'
sS'Won'
p320
S'0'
sS'GfM'
p321
S'0'
sS'Draw'
p322
S'0'
sS'Mat'
p323
S'2'
sS'Conv'
p324
S'0'
sS'Tries'
p325
S'0'
sS'Pts'
p326
S'0'
sa(dp327
S'Pens'
p328
S'0'
sS'Sub'
p329
S'0'
sS'Lost'
p330
S'1'
sS'Drop'
p331
S'0'
sS'Start'
p332
S'1'
sS'Won'
p333
S'0'
sS'GfM'
p334
S'0'
sS'Draw'
p335
S'0'
sS'Mat'
p336
S'1'
sS'Conv'
p337
S'0'
sS'Tries'
p338
S'0'
sS'Pts'
p339
S'0'
sa(dp340
S'Pens'
p341
S'0'
sS'Sub'
p342
S'0'
sS'Lost'
p343
S'6'
sS'Drop'
p344
S'0'
sS'Start'
p345
S'8'
sS'Won'
p346
S'2'
sS'GfM'
p347
S'0'
sS'Draw'
p348
S'0'
sS'Mat'
p349
S'8'
sS'Conv'
p350
S'0'
sS'Tries'
p351
S'0'
sS'Pts'
p352
S'0'
sa(dp353
S'Pens'
p354
S'0'
sS'Sub'
p355
S'0'
sS'Lost'
p356
S'3'
sS'Drop'
p357
S'0'
sS'Start'
p358
S'3'
sS'Won'
p359
S'0'
sS'GfM'
p360
S'0'
sS'Draw'
p361
S'0'
sS'Mat'
p362
S'3'
sS'Conv'
p363
S'0'
sS'Tries'
p364
S'0'
sS'Pts'
p365
S'0'
sa(dp366
S'Pens'
p367
S'0'
sS'Sub'
p368
S'0'
sS'Lost'
p369
S'3'
sS'Drop'
p370
S'0'
sS'Start'
p371
S'3'
sS'Won'
p372
S'0'
sS'GfM'
p373
S'0'
sS'Draw'
p374
S'0'
sS'Mat'
p375
S'3'
sS'Conv'
p376
S'0'
sS'Tries'
p377
S'0'
sS'Pts'
p378
S'0'
sa(dp379
S'Pens'
p380
S'0'
sS'Sub'
p381
S'0'
sS'Lost'
p382
S'1'
sS'Drop'
p383
S'0'
sS'Start'
p384
S'1'
sS'Won'
p385
S'0'
sS'GfM'
p386
S'0'
sS'Draw'
p387
S'0'
sS'Mat'
p388
S'1'
sS'Conv'
p389
S'0'
sS'Tries'
p390
S'0'
sS'Pts'
p391
S'0'
sa(dp392
S'Pens'
p393
S'0'
sS'Sub'
p394
S'0'
sS'Lost'
p395
S'1'
sS'Drop'
p396
S'0'
sS'Start'
p397
S'1'
sS'Won'
p398
S'0'
sS'GfM'
p399
S'0'
sS'Draw'
p400
S'0'
sS'Mat'
p401
S'1'
sS'Conv'
p402
S'0'
sS'Tries'
p403
S'0'
sS'Pts'
p404
S'0'
sa(dp405
S'Pens'
p406
S'0'
sS'Sub'
p407
S'0'
sS'Lost'
p408
S'3'
sS'Drop'
p409
S'0'
sS'Start'
p410
S'3'
sS'Won'
p411
S'0'
sS'GfM'
p412
S'0'
sS'Draw'
p413
S'0'
sS'Mat'
p414
S'3'
sS'Conv'
p415
S'0'
sS'Tries'
p416
S'0'
sS'Pts'
p417
S'0'
sa(dp418
S'Pens'
p419
S'0'
sS'Sub'
p420
S'0'
sS'Lost'
p421
S'1'
sS'Drop'
p422
S'0'
sS'Start'
p423
S'1'
sS'Won'
p424
S'0'
sS'GfM'
p425
S'0'
sS'Draw'
p426
S'0'
sS'Mat'
p427
S'1'
sS'Conv'
p428
S'0'
sS'Tries'
p429
S'0'
sS'Pts'
p430
S'0'
sa(dp431
S'Pens'
p432
S'0'
sS'Sub'
p433
S'0'
sS'Lost'
p434
S'3'
sS'Drop'
p435
S'0'
sS'Start'
p436
S'3'
sS'Won'
p437
S'0'
sS'GfM'
p438
S'0'
sS'Draw'
p439
S'0'
sS'Mat'
p440
S'3'
sS'Conv'
p441
S'0'
sS'Tries'
p442
S'0'
sS'Pts'
p443
S'0'
sa(dp444
S'Pens'
p445
S'0'
sS'Sub'
p446
S'0'
sS'Lost'
p447
S'2'
sS'Drop'
p448
S'0'
sS'Start'
p449
S'2'
sS'Won'
p450
S'0'
sS'GfM'
p451
S'0'
sS'Draw'
p452
S'0'
sS'Mat'
p453
S'2'
sS'Conv'
p454
S'0'
sS'Tries'
p455
S'0'
sS'Pts'
p456
S'0'
sa(dp457
S'Pens'
p458
S'0'
sS'Sub'
p459
S'0'
sS'Lost'
p460
S'3'
sS'Drop'
p461
S'0'
sS'Start'
p462
S'3'
sS'Won'
p463
S'0'
sS'GfM'
p464
S'0'
sS'Draw'
p465
S'0'
sS'Mat'
p466
S'3'
sS'Conv'
p467
S'0'
sS'Tries'
p468
S'0'
sS'Pts'
p469
S'0'
sa(dp470
S'Pens'
p471
S'0'
sS'Sub'
p472
S'0'
sS'Lost'
p473
S'3'
sS'Drop'
p474
S'0'
sS'Start'
p475
S'3'
sS'Won'
p476
S'0'
sS'GfM'
p477
S'0'
sS'Draw'
p478
S'0'
sS'Mat'
p479
S'3'
sS'Conv'
p480
S'0'
sS'Tries'
p481
S'0'
sS'Pts'
p482
S'0'
sa(dp483
S'Pens'
p484
S'0'
sS'Sub'
p485
S'0'
sS'Lost'
p486
S'1'
sS'Drop'
p487
S'0'
sS'Start'
p488
S'1'
sS'Won'
p489
S'0'
sS'GfM'
p490
S'0'
sS'Draw'
p491
S'0'
sS'Mat'
p492
S'1'
sS'Conv'
p493
S'0'
sS'Tries'
p494
S'0'
sS'Pts'
p495
S'0'
sa(dp496
S'Pens'
p497
S'0'
sS'Sub'
p498
S'0'
sS'Lost'
p499
S'1'
sS'Drop'
p500
S'0'
sS'Start'
p501
S'1'
sS'Won'
p502
S'0'
sS'GfM'
p503
S'0'
sS'Draw'
p504
S'0'
sS'Mat'
p505
S'1'
sS'Conv'
p506
S'0'
sS'Tries'
p507
S'0'
sS'Pts'
p508
S'0'
sa(dp509
S'Pens'
p510
S'0'
sS'Sub'
p511
S'0'
sS'Lost'
p512
S'4'
sS'Drop'
p513
S'0'
sS'Start'
p514
S'4'
sS'Won'
p515
S'0'
sS'GfM'
p516
S'0'
sS'Draw'
p517
S'0'
sS'Mat'
p518
S'4'
sS'Conv'
p519
S'0'
sS'Tries'
p520
S'1'
sS'Pts'
p521
S'3'
sa(dp522
S'Pens'
p523
S'0'
sS'Sub'
p524
S'0'
sS'Lost'
p525
S'2'
sS'Drop'
p526
S'0'
sS'Start'
p527
S'2'
sS'Won'
p528
S'0'
sS'GfM'
p529
S'0'
sS'Draw'
p530
S'0'
sS'Mat'
p531
S'2'
sS'Conv'
p532
S'0'
sS'Tries'
p533
S'0'
sS'Pts'
p534
S'0'
sa(dp535
S'Pens'
p536
S'0'
sS'Sub'
p537
S'0'
sS'Lost'
p538
S'1'
sS'Drop'
p539
S'0'
sS'Start'
p540
S'1'
sS'Won'
p541
S'0'
sS'GfM'
p542
S'0'
sS'Draw'
p543
S'0'
sS'Mat'
p544
S'1'
sS'Conv'
p545
S'0'
sS'Tries'
p546
S'0'
sS'Pts'
p547
S'0'
sa(dp548
S'Pens'
p549
S'0'
sS'Sub'
p550
S'0'
sS'Lost'
p551
S'2'
sS'Drop'
p552
S'0'
sS'Start'
p553
S'2'
sS'Won'
p554
S'0'
sS'GfM'
p555
S'1'
sS'Draw'
p556
S'0'
sS'Mat'
p557
S'2'
sS'Conv'
p558
S'0'
sS'Tries'
p559
S'0'
sS'Pts'
p560
S'3'
sa(dp561
S'Pens'
p562
S'0'
sS'Sub'
p563
S'0'
sS'Lost'
p564
S'1'
sS'Drop'
p565
S'0'
sS'Start'
p566
S'1'
sS'Won'
p567
S'0'
sS'GfM'
p568
S'0'
sS'Draw'
p569
S'0'
sS'Mat'
p570
S'1'
sS'Conv'
p571
S'0'
sS'Tries'
p572
S'0'
sS'Pts'
p573
S'0'
sa(dp574
S'Pens'
p575
S'0'
sS'Sub'
p576
S'0'
sS'Lost'
p577
S'1'
sS'Drop'
p578
S'0'
sS'Start'
p579
S'1'
sS'Won'
p580
S'0'
sS'GfM'
p581
S'0'
sS'Draw'
p582
S'0'
sS'Mat'
p583
S'1'
sS'Conv'
p584
S'0'
sS'Tries'
p585
S'0'
sS'Pts'
p586
S'0'
sa(dp587
S'Pens'
p588
S'0'
sS'Sub'
p589
S'0'
sS'Lost'
p590
S'2'
sS'Drop'
p591
S'0'
sS'Start'
p592
S'2'
sS'Won'
p593
S'0'
sS'GfM'
p594
S'0'
sS'Draw'
p595
S'0'
sS'Mat'
p596
S'2'
sS'Conv'
p597
S'0'
sS'Tries'
p598
S'0'
sS'Pts'
p599
S'0'
sa(dp600
S'Pens'
p601
S'0'
sS'Sub'
p602
S'0'
sS'Lost'
p603
S'1'
sS'Drop'
p604
S'0'
sS'Start'
p605
S'1'
sS'Won'
p606
S'0'
sS'GfM'
p607
S'0'
sS'Draw'
p608
S'0'
sS'Mat'
p609
S'1'
sS'Conv'
p610
S'0'
sS'Tries'
p611
S'0'
sS'Pts'
p612
S'0'
sa(dp613
S'Pens'
p614
S'0'
sS'Sub'
p615
S'0'
sS'Lost'
p616
S'2'
sS'Drop'
p617
S'0'
sS'Start'
p618
S'2'
sS'Won'
p619
S'0'
sS'GfM'
p620
S'0'
sS'Draw'
p621
S'0'
sS'Mat'
p622
S'2'
sS'Conv'
p623
S'0'
sS'Tries'
p624
S'0'
sS'Pts'
p625
S'0'
sa(dp626
S'Pens'
p627
S'0'
sS'Sub'
p628
S'0'
sS'Lost'
p629
S'1'
sS'Drop'
p630
S'0'
sS'Start'
p631
S'1'
sS'Won'
p632
S'0'
sS'GfM'
p633
S'0'
sS'Draw'
p634
S'0'
sS'Mat'
p635
S'1'
sS'Conv'
p636
S'0'
sS'Tries'
p637
S'0'
sS'Pts'
p638
S'0'
sa(dp639
S'Pens'
p640
S'0'
sS'Sub'
p641
S'0'
sS'Lost'
p642
S'3'
sS'Drop'
p643
S'0'
sS'Start'
p644
S'3'
sS'Won'
p645
S'0'
sS'GfM'
p646
S'0'
sS'Draw'
p647
S'0'
sS'Mat'
p648
S'3'
sS'Conv'
p649
S'0'
sS'Tries'
p650
S'0'
sS'Pts'
p651
S'0'
sa(dp652
S'Pens'
p653
S'0'
sS'Sub'
p654
S'0'
sS'Lost'
p655
S'2'
sS'Drop'
p656
S'0'
sS'Start'
p657
S'2'
sS'Won'
p658
S'0'
sS'GfM'
p659
S'0'
sS'Draw'
p660
S'0'
sS'Mat'
p661
S'2'
sS'Conv'
p662
S'0'
sS'Tries'
p663
S'0'
sS'Pts'
p664
S'0'
sa(dp665
S'Pens'
p666
S'0'
sS'Sub'
p667
S'0'
sS'Lost'
p668
S'2'
sS'Drop'
p669
S'0'
sS'Start'
p670
S'2'
sS'Won'
p671
S'0'
sS'GfM'
p672
S'0'
sS'Draw'
p673
S'0'
sS'Mat'
p674
S'2'
sS'Conv'
p675
S'0'
sS'Tries'
p676
S'0'
sS'Pts'
p677
S'0'
sa(dp678
S'Pens'
p679
S'0'
sS'Sub'
p680
S'0'
sS'Lost'
p681
S'2'
sS'Drop'
p682
S'0'
sS'Start'
p683
S'2'
sS'Won'
p684
S'0'
sS'GfM'
p685
S'0'
sS'Draw'
p686
S'0'
sS'Mat'
p687
S'2'
sS'Conv'
p688
S'0'
sS'Tries'
p689
S'0'
sS'Pts'
p690
S'0'
sa(dp691
S'Pens'
p692
S'0'
sS'Sub'
p693
S'0'
sS'Lost'
p694
S'1'
sS'Drop'
p695
S'0'
sS'Start'
p696
S'1'
sS'Won'
p697
S'0'
sS'GfM'
p698
S'0'
sS'Draw'
p699
S'0'
sS'Mat'
p700
S'1'
sS'Conv'
p701
S'0'
sS'Tries'
p702
S'0'
sS'Pts'
p703
S'0'
sa(dp704
S'Pens'
p705
S'0'
sS'Sub'
p706
S'0'
sS'Lost'
p707
S'2'
sS'Drop'
p708
S'0'
sS'Start'
p709
S'2'
sS'Won'
p710
S'0'
sS'GfM'
p711
S'0'
sS'Draw'
p712
S'0'
sS'Mat'
p713
S'2'
sS'Conv'
p714
S'0'
sS'Tries'
p715
S'0'
sS'Pts'
p716
S'0'
sa(dp717
S'Pens'
p718
S'0'
sS'Sub'
p719
S'0'
sS'Lost'
p720
S'2'
sS'Drop'
p721
S'0'
sS'Start'
p722
S'2'
sS'Won'
p723
S'0'
sS'GfM'
p724
S'0'
sS'Draw'
p725
S'0'
sS'Mat'
p726
S'2'
sS'Conv'
p727
S'0'
sS'Tries'
p728
S'0'
sS'Pts'
p729
S'0'
sa(dp730
S'Pens'
p731
S'0'
sS'Sub'
p732
S'0'
sS'Lost'
p733
S'2'
sS'Drop'
p734
S'0'
sS'Start'
p735
S'2'
sS'Won'
p736
S'0'
sS'GfM'
p737
S'0'
sS'Draw'
p738
S'0'
sS'Mat'
p739
S'2'
sS'Conv'
p740
S'0'
sS'Tries'
p741
S'0'
sS'Pts'
p742
S'0'
sa(dp743
S'Pens'
p744
S'0'
sS'Sub'
p745
S'0'
sS'Lost'
p746
S'1'
sS'Drop'
p747
S'0'
sS'Start'
p748
S'1'
sS'Won'
p749
S'0'
sS'GfM'
p750
S'0'
sS'Draw'
p751
S'0'
sS'Mat'
p752
S'1'
sS'Conv'
p753
S'0'
sS'Tries'
p754
S'0'
sS'Pts'
p755
S'0'
sa(dp756
S'Pens'
p757
S'0'
sS'Sub'
p758
S'0'
sS'Lost'
p759
S'1'
sS'Drop'
p760
S'0'
sS'Start'
p761
S'1'
sS'Won'
p762
S'0'
sS'GfM'
p763
S'0'
sS'Draw'
p764
S'0'
sS'Mat'
p765
S'1'
sS'Conv'
p766
S'0'
sS'Tries'
p767
S'0'
sS'Pts'
p768
S'0'
sa(dp769
S'Pens'
p770
S'0'
sS'Sub'
p771
S'0'
sS'Lost'
p772
S'1'
sS'Drop'
p773
S'0'
sS'Start'
p774
S'1'
sS'Won'
p775
S'0'
sS'GfM'
p776
S'0'
sS'Draw'
p777
S'0'
sS'Mat'
p778
S'1'
sS'Conv'
p779
S'0'
sS'Tries'
p780
S'0'
sS'Pts'
p781
S'0'
sa(dp782
S'Pens'
p783
S'0'
sS'Sub'
p784
S'0'
sS'Lost'
p785
S'1'
sS'Drop'
p786
S'0'
sS'Start'
p787
S'1'
sS'Won'
p788
S'0'
sS'GfM'
p789
S'0'
sS'Draw'
p790
S'0'
sS'Mat'
p791
S'1'
sS'Conv'
p792
S'0'
sS'Tries'
p793
S'0'
sS'Pts'
p794
S'0'
sa(dp795
S'Pens'
p796
S'0'
sS'Sub'
p797
S'0'
sS'Lost'
p798
S'1'
sS'Drop'
p799
S'0'
sS'Start'
p800
S'2'
sS'Won'
p801
S'1'
sS'GfM'
p802
S'0'
sS'Draw'
p803
S'0'
sS'Mat'
p804
S'2'
sS'Conv'
p805
S'0'
sS'Tries'
p806
S'0'
sS'Pts'
p807
S'0'
sa(dp808
S'Pens'
p809
S'0'
sS'Sub'
p810
S'0'
sS'Lost'
p811
S'1'
sS'Drop'
p812
S'0'
sS'Start'
p813
S'4'
sS'Won'
p814
S'3'
sS'GfM'
p815
S'0'
sS'Draw'
p816
S'0'
sS'Mat'
p817
S'4'
sS'Conv'
p818
S'0'
sS'Tries'
p819
S'0'
sS'Pts'
p820
S'0'
sa(dp821
S'Pens'
p822
S'0'
sS'Sub'
p823
S'0'
sS'Lost'
p824
S'1'
sS'Drop'
p825
S'0'
sS'Start'
p826
S'3'
sS'Won'
p827
S'2'
sS'GfM'
p828
S'0'
sS'Draw'
p829
S'0'
sS'Mat'
p830
S'3'
sS'Conv'
p831
S'0'
sS'Tries'
p832
S'0'
sS'Pts'
p833
S'0'
sa(dp834
S'Pens'
p835
S'0'
sS'Sub'
p836
S'0'
sS'Lost'
p837
S'1'
sS'Drop'
p838
S'0'
sS'Start'
p839
S'2'
sS'Won'
p840
S'1'
sS'GfM'
p841
S'0'
sS'Draw'
p842
S'0'
sS'Mat'
p843
S'2'
sS'Conv'
p844
S'0'
sS'Tries'
p845
S'0'
sS'Pts'
p846
S'0'
sa(dp847
S'Pens'
p848
S'0'
sS'Sub'
p849
S'0'
sS'Lost'
p850
S'1'
sS'Drop'
p851
S'0'
sS'Start'
p852
S'3'
sS'Won'
p853
S'2'
sS'GfM'
p854
S'0'
sS'Draw'
p855
S'0'
sS'Mat'
p856
S'3'
sS'Conv'
p857
S'0'
sS'Tries'
p858
S'0'
sS'Pts'
p859
S'0'
sa(dp860
S'Pens'
p861
S'0'
sS'Sub'
p862
S'0'
sS'Lost'
p863
S'1'
sS'Drop'
p864
S'0'
sS'Start'
p865
S'3'
sS'Won'
p866
S'2'
sS'GfM'
p867
S'0'
sS'Draw'
p868
S'0'
sS'Mat'
p869
S'3'
sS'Conv'
p870
S'0'
sS'Tries'
p871
S'0'
sS'Pts'
p872
S'0'
sa(dp873
S'Pens'
p874
S'0'
sS'Sub'
p875
S'0'
sS'Lost'
p876
S'1'
sS'Drop'
p877
S'0'
sS'Start'
p878
S'1'
sS'Won'
p879
S'0'
sS'GfM'
p880
S'0'
sS'Draw'
p881
S'0'
sS'Mat'
p882
S'1'
sS'Conv'
p883
S'0'
sS'Tries'
p884
S'0'
sS'Pts'
p885
S'0'
sa(dp886
S'Pens'
p887
S'0'
sS'Sub'
p888
S'0'
sS'Lost'
p889
S'1'
sS'Drop'
p890
S'0'
sS'Start'
p891
S'1'
sS'Won'
p892
S'0'
sS'GfM'
p893
S'0'
sS'Draw'
p894
S'0'
sS'Mat'
p895
S'1'
sS'Conv'
p896
S'0'
sS'Tries'
p897
S'0'
sS'Pts'
p898
S'0'
sa(dp899
S'Pens'
p900
S'0'
sS'Sub'
p901
S'0'
sS'Lost'
p902
S'1'
sS'Drop'
p903
S'0'
sS'Start'
p904
S'1'
sS'Won'
p905
S'0'
sS'GfM'
p906
S'0'
sS'Draw'
p907
S'0'
sS'Mat'
p908
S'1'
sS'Conv'
p909
S'0'
sS'Tries'
p910
S'0'
sS'Pts'
p911
S'0'
sa(dp912
S'Pens'
p913
S'0'
sS'Sub'
p914
S'0'
sS'Lost'
p915
S'1'
sS'Drop'
p916
S'0'
sS'Start'
p917
S'3'
sS'Won'
p918
S'2'
sS'GfM'
p919
S'0'
sS'Draw'
p920
S'0'
sS'Mat'
p921
S'3'
sS'Conv'
p922
S'0'
sS'Tries'
p923
S'0'
sS'Pts'
p924
S'0'
sa(dp925
S'Pens'
p926
S'0'
sS'Sub'
p927
S'0'
sS'Lost'
p928
S'1'
sS'Drop'
p929
S'0'
sS'Start'
p930
S'3'
sS'Won'
p931
S'2'
sS'GfM'
p932
S'0'
sS'Draw'
p933
S'0'
sS'Mat'
p934
S'3'
sS'Conv'
p935
S'0'
sS'Tries'
p936
S'0'
sS'Pts'
p937
S'0'
sa(dp938
S'Pens'
p939
S'0'
sS'Sub'
p940
S'0'
sS'Lost'
p941
S'1'
sS'Drop'
p942
S'0'
sS'Start'
p943
S'4'
sS'Won'
p944
S'3'
sS'GfM'
p945
S'0'
sS'Draw'
p946
S'0'
sS'Mat'
p947
S'4'
sS'Conv'
p948
S'0'
sS'Tries'
p949
S'0'
sS'Pts'
p950
S'0'
sa(dp951
S'Pens'
p952
S'0'
sS'Sub'
p953
S'0'
sS'Lost'
p954
S'1'
sS'Drop'
p955
S'0'
sS'Start'
p956
S'2'
sS'Won'
p957
S'1'
sS'GfM'
p958
S'0'
sS'Draw'
p959
S'0'
sS'Mat'
p960
S'2'
sS'Conv'
p961
S'0'
sS'Tries'
p962
S'0'
sS'Pts'
p963
S'0'
sa(dp964
S'Pens'
p965
S'0'
sS'Sub'
p966
S'0'
sS'Lost'
p967
S'0'
sS'Drop'
p968
S'0'
sS'Start'
p969
S'2'
sS'Won'
p970
S'2'
sS'GfM'
p971
S'0'
sS'Draw'
p972
S'0'
sS'Mat'
p973
S'2'
sS'Conv'
p974
S'0'
sS'Tries'
p975
S'0'
sS'Pts'
p976
S'0'
sa(dp977
S'Pens'
p978
S'0'
sS'Sub'
p979
S'0'
sS'Lost'
p980
S'0'
sS'Drop'
p981
S'0'
sS'Start'
p982
S'3'
sS'Won'
p983
S'3'
sS'GfM'
p984
S'0'
sS'Draw'
p985
S'0'
sS'Mat'
p986
S'3'
sS'Conv'
p987
S'0'
sS'Tries'
p988
S'0'
sS'Pts'
p989
S'0'
sa(dp990
S'Pens'
p991
S'0'
sS'Sub'
p992
S'0'
sS'Lost'
p993
S'0'
sS'Drop'
p994
S'0'
sS'Start'
p995
S'1'
sS'Won'
p996
S'1'
sS'GfM'
p997
S'0'
sS'Draw'
p998
S'0'
sS'Mat'
p999
S'1'
sS'Conv'
p1000
S'0'
sS'Tries'
p1001
S'0'
sS'Pts'
p1002
S'0'
sa(dp1003
S'Pens'
p1004
S'0'
sS'Sub'
p1005
S'0'
sS'Lost'
p1006
S'0'
sS'Drop'
p1007
S'0'
sS'Start'
p1008
S'1'
sS'Won'
p1009
S'1'
sS'GfM'
p1010
S'0'
sS'Draw'
p1011
S'0'
sS'Mat'
p1012
S'1'
sS'Conv'
p1013
S'0'
sS'Tries'
p1014
S'0'
sS'Pts'
p1015
S'0'
sa(dp1016
S'Pens'
p1017
S'0'
sS'Sub'
p1018
S'0'
sS'Lost'
p1019
S'0'
sS'Drop'
p1020
S'0'
sS'Start'
p1021
S'2'
sS'Won'
p1022
S'2'
sS'GfM'
p1023
S'0'
sS'Draw'
p1024
S'0'
sS'Mat'
p1025
S'2'
sS'Conv'
p1026
S'0'
sS'Tries'
p1027
S'0'
sS'Pts'
p1028
S'0'
sa(dp1029
S'Pens'
p1030
S'0'
sS'Sub'
p1031
S'0'
sS'Lost'
p1032
S'0'
sS'Drop'
p1033
S'0'
sS'Start'
p1034
S'2'
sS'Won'
p1035
S'2'
sS'GfM'
p1036
S'0'
sS'Draw'
p1037
S'0'
sS'Mat'
p1038
S'2'
sS'Conv'
p1039
S'0'
sS'Tries'
p1040
S'0'
sS'Pts'
p1041
S'0'
sa(dp1042
S'Pens'
p1043
S'0'
sS'Sub'
p1044
S'0'
sS'Lost'
p1045
S'0'
sS'Drop'
p1046
S'0'
sS'Start'
p1047
S'2'
sS'Won'
p1048
S'2'
sS'GfM'
p1049
S'0'
sS'Draw'
p1050
S'0'
sS'Mat'
p1051
S'2'
sS'Conv'
p1052
S'0'
sS'Tries'
p1053
S'0'
sS'Pts'
p1054
S'0'
sa(dp1055
S'Pens'
p1056
S'0'
sS'Sub'
p1057
S'0'
sS'Lost'
p1058
S'0'
sS'Drop'
p1059
S'0'
sS'Start'
p1060
S'1'
sS'Won'
p1061
S'1'
sS'GfM'
p1062
S'0'
sS'Draw'
p1063
S'0'
sS'Mat'
p1064
S'1'
sS'Conv'
p1065
S'0'
sS'Tries'
p1066
S'0'
sS'Pts'
p1067
S'0'
sa(dp1068
S'Pens'
p1069
S'0'
sS'Sub'
p1070
S'0'
sS'Lost'
p1071
S'0'
sS'Drop'
p1072
S'0'
sS'Start'
p1073
S'1'
sS'Won'
p1074
S'1'
sS'GfM'
p1075
S'0'
sS'Draw'
p1076
S'0'
sS'Mat'
p1077
S'1'
sS'Conv'
p1078
S'0'
sS'Tries'
p1079
S'0'
sS'Pts'
p1080
S'0'
sa(dp1081
S'Pens'
p1082
S'0'
sS'Sub'
p1083
S'0'
sS'Lost'
p1084
S'0'
sS'Drop'
p1085
S'0'
sS'Start'
p1086
S'1'
sS'Won'
p1087
S'1'
sS'GfM'
p1088
S'0'
sS'Draw'
p1089
S'0'
sS'Mat'
p1090
S'1'
sS'Conv'
p1091
S'0'
sS'Tries'
p1092
S'0'
sS'Pts'
p1093
S'0'
sa(dp1094
S'Pens'
p1095
S'0'
sS'Sub'
p1096
S'0'
sS'Lost'
p1097
S'0'
sS'Drop'
p1098
S'0'
sS'Start'
p1099
S'1'
sS'Won'
p1100
S'1'
sS'GfM'
p1101
S'0'
sS'Draw'
p1102
S'0'
sS'Mat'
p1103
S'1'
sS'Conv'
p1104
S'0'
sS'Tries'
p1105
S'0'
sS'Pts'
p1106
S'0'
sa(dp1107
S'Pens'
p1108
S'0'
sS'Sub'
p1109
S'0'
sS'Lost'
p1110
S'0'
sS'Drop'
p1111
S'0'
sS'Start'
p1112
S'1'
sS'Won'
p1113
S'1'
sS'GfM'
p1114
S'0'
sS'Draw'
p1115
S'0'
sS'Mat'
p1116
S'1'
sS'Conv'
p1117
S'0'
sS'Tries'
p1118
S'0'
sS'Pts'
p1119
S'0'
sa(dp1120
S'Pens'
p1121
S'0'
sS'Sub'
p1122
S'0'
sS'Lost'
p1123
S'0'
sS'Drop'
p1124
S'0'
sS'Start'
p1125
S'1'
sS'Won'
p1126
S'1'
sS'GfM'
p1127
S'0'
sS'Draw'
p1128
S'0'
sS'Mat'
p1129
S'1'
sS'Conv'
p1130
S'0'
sS'Tries'
p1131
S'0'
sS'Pts'
p1132
S'0'
sa(dp1133
S'Pens'
p1134
S'0'
sS'Sub'
p1135
S'0'
sS'Lost'
p1136
S'0'
sS'Drop'
p1137
S'0'
sS'Start'
p1138
S'1'
sS'Won'
p1139
S'1'
sS'GfM'
p1140
S'0'
sS'Draw'
p1141
S'0'
sS'Mat'
p1142
S'1'
sS'Conv'
p1143
S'0'
sS'Tries'
p1144
S'0'
sS'Pts'
p1145
S'0'
sa(dp1146
S'Pens'
p1147
S'0'
sS'Sub'
p1148
S'0'
sS'Lost'
p1149
S'0'
sS'Drop'
p1150
S'0'
sS'Start'
p1151
S'1'
sS'Won'
p1152
S'1'
sS'GfM'
p1153
S'0'
sS'Draw'
p1154
S'0'
sS'Mat'
p1155
S'1'
sS'Conv'
p1156
S'0'
sS'Tries'
p1157
S'0'
sS'Pts'
p1158
S'0'
sa(dp1159
S'Pens'
p1160
S'0'
sS'Sub'
p1161
S'0'
sS'Lost'
p1162
S'0'
sS'Drop'
p1163
S'0'
sS'Start'
p1164
S'1'
sS'Won'
p1165
S'1'
sS'GfM'
p1166
S'0'
sS'Draw'
p1167
S'0'
sS'Mat'
p1168
S'1'
sS'Conv'
p1169
S'0'
sS'Tries'
p1170
S'0'
sS'Pts'
p1171
S'0'
sa(dp1172
S'Pens'
p1173
S'0'
sS'Sub'
p1174
S'0'
sS'Lost'
p1175
S'0'
sS'Drop'
p1176
S'0'
sS'Start'
p1177
S'1'
sS'Won'
p1178
S'1'
sS'GfM'
p1179
S'0'
sS'Draw'
p1180
S'0'
sS'Mat'
p1181
S'1'
sS'Conv'
p1182
S'0'
sS'Tries'
p1183
S'0'
sS'Pts'
p1184
S'0'
sa(dp1185
S'Pens'
p1186
S'0'
sS'Sub'
p1187
S'0'
sS'Lost'
p1188
S'0'
sS'Drop'
p1189
S'0'
sS'Start'
p1190
S'1'
sS'Won'
p1191
S'1'
sS'GfM'
p1192
S'0'
sS'Draw'
p1193
S'0'
sS'Mat'
p1194
S'1'
sS'Conv'
p1195
S'0'
sS'Tries'
p1196
S'0'
sS'Pts'
p1197
S'0'
sa(dp1198
S'Pens'
p1199
S'0'
sS'Sub'
p1200
S'0'
sS'Lost'
p1201
S'2'
sS'Drop'
p1202
S'0'
sS'Start'
p1203
S'4'
sS'Won'
p1204
S'2'
sS'GfM'
p1205
S'0'
sS'Draw'
p1206
S'0'
sS'Mat'
p1207
S'4'
sS'Conv'
p1208
S'0'
sS'Tries'
p1209
S'0'
sS'Pts'
p1210
S'0'
sa(dp1211
S'Pens'
p1212
S'0'
sS'Sub'
p1213
S'0'
sS'Lost'
p1214
S'1'
sS'Drop'
p1215
S'0'
sS'Start'
p1216
S'1'
sS'Won'
p1217
S'0'
sS'GfM'
p1218
S'0'
sS'Draw'
p1219
S'0'
sS'Mat'
p1220
S'1'
sS'Conv'
p1221
S'0'
sS'Tries'
p1222
S'0'
sS'Pts'
p1223
S'0'
sa(dp1224
S'Pens'
p1225
S'0'
sS'Sub'
p1226
S'0'
sS'Lost'
p1227
S'6'
sS'Drop'
p1228
S'0'
sS'Start'
p1229
S'10'
p1230
sS'Won'
p1231
S'3'
sS'GfM'
p1232
S'0'
sS'Draw'
p1233
S'1'
sS'Mat'
p1234
S'10'
p1235
sS'Conv'
p1236
S'3'
sS'Tries'
p1237
S'5'
sS'Pts'
p1238
S'21'
p1239
sa(dp1240
S'Pens'
p1241
S'0'
sS'Sub'
p1242
S'0'
sS'Lost'
p1243
S'4'
sS'Drop'
p1244
S'0'
sS'Start'
p1245
S'5'
sS'Won'
p1246
S'0'
sS'GfM'
p1247
S'0'
sS'Draw'
p1248
S'1'
sS'Mat'
p1249
S'5'
sS'Conv'
p1250
S'0'
sS'Tries'
p1251
S'0'
sS'Pts'
p1252
S'0'
sa(dp1253
S'Pens'
p1254
S'0'
sS'Sub'
p1255
S'0'
sS'Lost'
p1256
S'3'
sS'Drop'
p1257
S'0'
sS'Start'
p1258
S'3'
sS'Won'
p1259
S'0'
sS'GfM'
p1260
S'0'
sS'Draw'
p1261
S'0'
sS'Mat'
p1262
S'3'
sS'Conv'
p1263
S'0'
sS'Tries'
p1264
S'0'
sS'Pts'
p1265
S'0'
sa(dp1266
S'Pens'
p1267
S'0'
sS'Sub'
p1268
S'0'
sS'Lost'
p1269
S'4'
sS'Drop'
p1270
S'0'
sS'Start'
p1271
S'6'
sS'Won'
p1272
S'1'
sS'GfM'
p1273
S'0'
sS'Draw'
p1274
S'1'
sS'Mat'
p1275
S'6'
sS'Conv'
p1276
S'0'
sS'Tries'
p1277
S'0'
sS'Pts'
p1278
S'0'
sa(dp1279
S'Pens'
p1280
S'0'
sS'Sub'
p1281
S'0'
sS'Lost'
p1282
S'2'
sS'Drop'
p1283
S'0'
sS'Start'
p1284
S'3'
sS'Won'
p1285
S'0'
sS'GfM'
p1286
S'0'
sS'Draw'
p1287
S'1'
sS'Mat'
p1288
S'3'
sS'Conv'
p1289
S'0'
sS'Tries'
p1290
S'0'
sS'Pts'
p1291
S'0'
sa(dp1292
S'Pens'
p1293
S'0'
sS'Sub'
p1294
S'0'
sS'Lost'
p1295
S'3'
sS'Drop'
p1296
S'0'
sS'Start'
p1297
S'3'
sS'Won'
p1298
S'0'
sS'GfM'
p1299
S'0'
sS'Draw'
p1300
S'0'
sS'Mat'
p1301
S'3'
sS'Conv'
p1302
S'0'
sS'Tries'
p1303
S'0'
sS'Pts'
p1304
S'0'
sa(dp1305
S'Pens'
p1306
S'0'
sS'Sub'
p1307
S'0'
sS'Lost'
p1308
S'3'
sS'Drop'
p1309
S'0'
sS'Start'
p1310
S'3'
sS'Won'
p1311
S'0'
sS'GfM'
p1312
S'0'
sS'Draw'
p1313
S'0'
sS'Mat'
p1314
S'3'
sS'Conv'
p1315
S'0'
sS'Tries'
p1316
S'0'
sS'Pts'
p1317
S'0'
sa(dp1318
S'Pens'
p1319
S'0'
sS'Sub'
p1320
S'0'
sS'Lost'
p1321
S'2'
sS'Drop'
p1322
S'0'
sS'Start'
p1323
S'2'
sS'Won'
p1324
S'0'
sS'GfM'
p1325
S'0'
sS'Draw'
p1326
S'0'
sS'Mat'
p1327
S'2'
sS'Conv'
p1328
S'0'
sS'Tries'
p1329
S'0'
sS'Pts'
p1330
S'0'
sa(dp1331
S'Pens'
p1332
S'0'
sS'Sub'
p1333
S'0'
sS'Lost'
p1334
S'5'
sS'Drop'
p1335
S'0'
sS'Start'
p1336
S'9'
sS'Won'
p1337
S'3'
sS'GfM'
p1338
S'0'
sS'Draw'
p1339
S'1'
sS'Mat'
p1340
S'9'
sS'Conv'
p1341
S'0'
sS'Tries'
p1342
S'0'
sS'Pts'
p1343
S'0'
sa(dp1344
S'Pens'
p1345
S'0'
sS'Sub'
p1346
S'0'
sS'Lost'
p1347
S'1'
sS'Drop'
p1348
S'0'
sS'Start'
p1349
S'1'
sS'Won'
p1350
S'0'
sS'GfM'
p1351
S'0'
sS'Draw'
p1352
S'0'
sS'Mat'
p1353
S'1'
sS'Conv'
p1354
S'0'
sS'Tries'
p1355
S'0'
sS'Pts'
p1356
S'0'
sa(dp1357
S'Pens'
p1358
S'0'
sS'Sub'
p1359
S'0'
sS'Lost'
p1360
S'3'
sS'Drop'
p1361
S'0'
sS'Start'
p1362
S'7'
sS'Won'
p1363
S'3'
sS'GfM'
p1364
S'0'
sS'Draw'
p1365
S'1'
sS'Mat'
p1366
S'7'
sS'Conv'
p1367
S'0'
sS'Tries'
p1368
S'1'
sS'Pts'
p1369
S'3'
sa(dp1370
S'Pens'
p1371
S'0'
sS'Sub'
p1372
S'0'
sS'Lost'
p1373
S'4'
sS'Drop'
p1374
S'0'
sS'Start'
p1375
S'5'
sS'Won'
p1376
S'0'
sS'GfM'
p1377
S'0'
sS'Draw'
p1378
S'1'
sS'Mat'
p1379
S'5'
sS'Conv'
p1380
S'0'
sS'Tries'
p1381
S'0'
sS'Pts'
p1382
S'0'
sa(dp1383
S'Pens'
p1384
S'0'
sS'Sub'
p1385
S'0'
sS'Lost'
p1386
S'1'
sS'Drop'
p1387
S'0'
sS'Start'
p1388
S'1'
sS'Won'
p1389
S'0'
sS'GfM'
p1390
S'0'
sS'Draw'
p1391
S'0'
sS'Mat'
p1392
S'1'
sS'Conv'
p1393
S'0'
sS'Tries'
p1394
S'0'
sS'Pts'
p1395
S'0'
sa(dp1396
S'Pens'
p1397
S'0'
sS'Sub'
p1398
S'0'
sS'Lost'
p1399
S'1'
sS'Drop'
p1400
S'0'
sS'Start'
p1401
S'1'
sS'Won'
p1402
S'0'
sS'GfM'
p1403
S'0'
sS'Draw'
p1404
S'0'
sS'Mat'
p1405
S'1'
sS'Conv'
p1406
S'0'
sS'Tries'
p1407
S'0'
sS'Pts'
p1408
S'0'
sa(dp1409
S'Pens'
p1410
S'0'
sS'Sub'
p1411
S'0'
sS'Lost'
p1412
S'1'
sS'Drop'
p1413
S'0'
sS'Start'
p1414
S'1'
sS'Won'
p1415
S'0'
sS'GfM'
p1416
S'0'
sS'Draw'
p1417
S'0'
sS'Mat'
p1418
S'1'
sS'Conv'
p1419
S'0'
sS'Tries'
p1420
S'0'
sS'Pts'
p1421
S'0'
sa(dp1422
S'Pens'
p1423
S'0'
sS'Sub'
p1424
S'0'
sS'Lost'
p1425
S'2'
sS'Drop'
p1426
S'0'
sS'Start'
p1427
S'2'
sS'Won'
p1428
S'0'
sS'GfM'
p1429
S'0'
sS'Draw'
p1430
S'0'
sS'Mat'
p1431
S'2'
sS'Conv'
p1432
S'0'
sS'Tries'
p1433
S'0'
sS'Pts'
p1434
S'0'
sa(dp1435
S'Pens'
p1436
S'0'
sS'Sub'
p1437
S'0'
sS'Lost'
p1438
S'1'
sS'Drop'
p1439
S'0'
sS'Start'
p1440
S'1'
sS'Won'
p1441
S'0'
sS'GfM'
p1442
S'0'
sS'Draw'
p1443
S'0'
sS'Mat'
p1444
S'1'
sS'Conv'
p1445
S'0'
sS'Tries'
p1446
S'0'
sS'Pts'
p1447
S'0'
sa(dp1448
S'Pens'
p1449
S'0'
sS'Sub'
p1450
S'0'
sS'Lost'
p1451
S'2'
sS'Drop'
p1452
S'0'
sS'Start'
p1453
S'4'
sS'Won'
p1454
S'2'
sS'GfM'
p1455
S'0'
sS'Draw'
p1456
S'0'
sS'Mat'
p1457
S'4'
sS'Conv'
p1458
S'0'
sS'Tries'
p1459
S'6'
sS'Pts'
p1460
S'18'
p1461
sa(dp1462
S'Pens'
p1463
S'0'
sS'Sub'
p1464
S'0'
sS'Lost'
p1465
S'3'
sS'Drop'
p1466
S'0'
sS'Start'
p1467
S'3'
sS'Won'
p1468
S'0'
sS'GfM'
p1469
S'0'
sS'Draw'
p1470
S'0'
sS'Mat'
p1471
S'3'
sS'Conv'
p1472
S'0'
sS'Tries'
p1473
S'0'
sS'Pts'
p1474
S'0'
sa(dp1475
S'Pens'
p1476
S'0'
sS'Sub'
p1477
S'0'
sS'Lost'
p1478
S'1'
sS'Drop'
p1479
S'0'
sS'Start'
p1480
S'1'
sS'Won'
p1481
S'0'
sS'GfM'
p1482
S'0'
sS'Draw'
p1483
S'0'
sS'Mat'
p1484
S'1'
sS'Conv'
p1485
S'0'
sS'Tries'
p1486
S'0'
sS'Pts'
p1487
S'0'
sa(dp1488
S'Pens'
p1489
S'0'
sS'Sub'
p1490
S'0'
sS'Lost'
p1491
S'1'
sS'Drop'
p1492
S'0'
sS'Start'
p1493
S'2'
sS'Won'
p1494
S'0'
sS'GfM'
p1495
S'0'
sS'Draw'
p1496
S'1'
sS'Mat'
p1497
S'2'
sS'Conv'
p1498
S'0'
sS'Tries'
p1499
S'0'
sS'Pts'
p1500
S'0'
sa(dp1501
S'Pens'
p1502
S'0'
sS'Sub'
p1503
S'0'
sS'Lost'
p1504
S'5'
sS'Drop'
p1505
S'0'
sS'Start'
p1506
S'8'
sS'Won'
p1507
S'2'
sS'GfM'
p1508
S'0'
sS'Draw'
p1509
S'1'
sS'Mat'
p1510
S'8'
sS'Conv'
p1511
S'0'
sS'Tries'
p1512
S'2'
sS'Pts'
p1513
S'6'
sa(dp1514
S'Pens'
p1515
S'0'
sS'Sub'
p1516
S'0'
sS'Lost'
p1517
S'5'
sS'Drop'
p1518
S'0'
sS'Start'
p1519
S'6'
sS'Won'
p1520
S'0'
sS'GfM'
p1521
S'0'
sS'Draw'
p1522
S'1'
sS'Mat'
p1523
S'6'
sS'Conv'
p1524
S'0'
sS'Tries'
p1525
S'0'
sS'Pts'
p1526
S'0'
sa(dp1527
S'Pens'
p1528
S'0'
sS'Sub'
p1529
S'0'
sS'Lost'
p1530
S'1'
sS'Drop'
p1531
S'0'
sS'Start'
p1532
S'1'
sS'Won'
p1533
S'0'
sS'GfM'
p1534
S'0'
sS'Draw'
p1535
S'0'
sS'Mat'
p1536
S'1'
sS'Conv'
p1537
S'0'
sS'Tries'
p1538
S'0'
sS'Pts'
p1539
S'0'
sa(dp1540
S'Pens'
p1541
S'0'
sS'Sub'
p1542
S'0'
sS'Lost'
p1543
S'4'
sS'Drop'
p1544
S'0'
sS'Start'
p1545
S'6'
sS'Won'
p1546
S'2'
sS'GfM'
p1547
S'0'
sS'Draw'
p1548
S'0'
sS'Mat'
p1549
S'6'
sS'Conv'
p1550
S'2'
sS'Tries'
p1551
S'0'
sS'Pts'
p1552
S'4'
sa(dp1553
S'Pens'
p1554
S'0'
sS'Sub'
p1555
S'0'
sS'Lost'
p1556
S'2'
sS'Drop'
p1557
S'0'
sS'Start'
p1558
S'2'
sS'Won'
p1559
S'0'
sS'GfM'
p1560
S'0'
sS'Draw'
p1561
S'0'
sS'Mat'
p1562
S'2'
sS'Conv'
p1563
S'0'
sS'Tries'
p1564
S'0'
sS'Pts'
p1565
S'0'
sa(dp1566
S'Pens'
p1567
S'0'
sS'Sub'
p1568
S'0'
sS'Lost'
p1569
S'2'
sS'Drop'
p1570
S'0'
sS'Start'
p1571
S'2'
sS'Won'
p1572
S'0'
sS'GfM'
p1573
S'0'
sS'Draw'
p1574
S'0'
sS'Mat'
p1575
S'2'
sS'Conv'
p1576
S'0'
sS'Tries'
p1577
S'0'
sS'Pts'
p1578
S'0'
sa(dp1579
S'Pens'
p1580
S'0'
sS'Sub'
p1581
S'0'
sS'Lost'
p1582
S'2'
sS'Drop'
p1583
S'0'
sS'Start'
p1584
S'2'
sS'Won'
p1585
S'0'
sS'GfM'
p1586
S'0'
sS'Draw'
p1587
S'0'
sS'Mat'
p1588
S'2'
sS'Conv'
p1589
S'0'
sS'Tries'
p1590
S'0'
sS'Pts'
p1591
S'0'
sa(dp1592
S'Pens'
p1593
S'0'
sS'Sub'
p1594
S'0'
sS'Lost'
p1595
S'5'
sS'Drop'
p1596
S'0'
sS'Start'
p1597
S'6'
sS'Won'
p1598
S'0'
sS'GfM'
p1599
S'0'
sS'Draw'
p1600
S'1'
sS'Mat'
p1601
S'6'
sS'Conv'
p1602
S'0'
sS'Tries'
p1603
S'1'
sS'Pts'
p1604
S'3'
sa(dp1605
S'Pens'
p1606
S'0'
sS'Sub'
p1607
S'0'
sS'Lost'
p1608
S'2'
sS'Drop'
p1609
S'0'
sS'Start'
p1610
S'2'
sS'Won'
p1611
S'0'
sS'GfM'
p1612
S'0'
sS'Draw'
p1613
S'0'
sS'Mat'
p1614
S'2'
sS'Conv'
p1615
S'0'
sS'Tries'
p1616
S'0'
sS'Pts'
p1617
S'0'
sa(dp1618
S'Pens'
p1619
S'0'
sS'Sub'
p1620
S'0'
sS'Lost'
p1621
S'1'
sS'Drop'
p1622
S'0'
sS'Start'
p1623
S'1'
sS'Won'
p1624
S'0'
sS'GfM'
p1625
S'0'
sS'Draw'
p1626
S'0'
sS'Mat'
p1627
S'1'
sS'Conv'
p1628
S'0'
sS'Tries'
p1629
S'0'
sS'Pts'
p1630
S'0'
sa(dp1631
S'Pens'
p1632
S'0'
sS'Sub'
p1633
S'0'
sS'Lost'
p1634
S'1'
sS'Drop'
p1635
S'0'
sS'Start'
p1636
S'1'
sS'Won'
p1637
S'0'
sS'GfM'
p1638
S'0'
sS'Draw'
p1639
S'0'
sS'Mat'
p1640
S'1'
sS'Conv'
p1641
S'0'
sS'Tries'
p1642
S'0'
sS'Pts'
p1643
S'0'
sa(dp1644
S'Pens'
p1645
S'0'
sS'Sub'
p1646
S'0'
sS'Lost'
p1647
S'0'
sS'Drop'
p1648
S'0'
sS'Start'
p1649
S'3'
sS'Won'
p1650
S'3'
sS'GfM'
p1651
S'0'
sS'Draw'
p1652
S'0'
sS'Mat'
p1653
S'3'
sS'Conv'
p1654
S'0'
sS'Tries'
p1655
S'0'
sS'Pts'
p1656
S'0'
sa(dp1657
S'Pens'
p1658
S'0'
sS'Sub'
p1659
S'0'
sS'Lost'
p1660
S'1'
sS'Drop'
p1661
S'0'
sS'Start'
p1662
S'4'
sS'Won'
p1663
S'3'
sS'GfM'
p1664
S'0'
sS'Draw'
p1665
S'0'
sS'Mat'
p1666
S'4'
sS'Conv'
p1667
S'1'
sS'Tries'
p1668
S'2'
sS'Pts'
p1669
S'8'
sa(dp1670
S'Pens'
p1671
S'0'
sS'Sub'
p1672
S'0'
sS'Lost'
p1673
S'0'
sS'Drop'
p1674
S'0'
sS'Start'
p1675
S'1'
sS'Won'
p1676
S'1'
sS'GfM'
p1677
S'0'
sS'Draw'
p1678
S'0'
sS'Mat'
p1679
S'1'
sS'Conv'
p1680
S'0'
sS'Tries'
p1681
S'2'
sS'Pts'
p1682
S'6'
sa(dp1683
S'Pens'
p1684
S'4'
sS'Sub'
p1685
S'0'
sS'Lost'
p1686
S'3'
sS'Drop'
p1687
S'0'
sS'Start'
p1688
S'7'
sS'Won'
p1689
S'3'
sS'GfM'
p1690
S'0'
sS'Draw'
p1691
S'1'
sS'Mat'
p1692
S'7'
sS'Conv'
p1693
S'14'
p1694
sS'Tries'
p1695
S'0'
sS'Pts'
p1696
S'40'
p1697
sa(dp1698
S'Pens'
p1699
S'0'
sS'Sub'
p1700
S'0'
sS'Lost'
p1701
S'0'
sS'Drop'
p1702
S'0'
sS'Start'
p1703
S'3'
sS'Won'
p1704
S'3'
sS'GfM'
p1705
S'0'
sS'Draw'
p1706
S'0'
sS'Mat'
p1707
S'3'
sS'Conv'
p1708
S'0'
sS'Tries'
p1709
S'0'
sS'Pts'
p1710
S'0'
sa(dp1711
S'Pens'
p1712
S'0'
sS'Sub'
p1713
S'0'
sS'Lost'
p1714
S'0'
sS'Drop'
p1715
S'0'
sS'Start'
p1716
S'3'
sS'Won'
p1717
S'3'
sS'GfM'
p1718
S'0'
sS'Draw'
p1719
S'0'
sS'Mat'
p1720
S'3'
sS'Conv'
p1721
S'0'
sS'Tries'
p1722
S'2'
sS'Pts'
p1723
S'6'
sa(dp1724
S'Pens'
p1725
S'0'
sS'Sub'
p1726
S'0'
sS'Lost'
p1727
S'0'
sS'Drop'
p1728
S'0'
sS'Start'
p1729
S'3'
sS'Won'
p1730
S'3'
sS'GfM'
p1731
S'0'
sS'Draw'
p1732
S'0'
sS'Mat'
p1733
S'3'
sS'Conv'
p1734
S'0'
sS'Tries'
p1735
S'0'
sS'Pts'
p1736
S'0'
sa(dp1737
S'Pens'
p1738
S'0'
sS'Sub'
p1739
S'0'
sS'Lost'
p1740
S'0'
sS'Drop'
p1741
S'0'
sS'Start'
p1742
S'3'
sS'Won'
p1743
S'3'
sS'GfM'
p1744
S'0'
sS'Draw'
p1745
S'0'
sS'Mat'
p1746
S'3'
sS'Conv'
p1747
S'0'
sS'Tries'
p1748
S'14'
p1749
sS'Pts'
p1750
S'42'
p1751
sa(dp1752
S'Pens'
p1753
S'0'
sS'Sub'
p1754
S'0'
sS'Lost'
p1755
S'0'
sS'Drop'
p1756
S'0'
sS'Start'
p1757
S'3'
sS'Won'
p1758
S'3'
sS'GfM'
p1759
S'0'
sS'Draw'
p1760
S'0'
sS'Mat'
p1761
S'3'
sS'Conv'
p1762
S'0'
sS'Tries'
p1763
S'0'
sS'Pts'
p1764
S'0'
sa(dp1765
S'Pens'
p1766
S'0'
sS'Sub'
p1767
S'0'
sS'Lost'
p1768
S'0'
sS'Drop'
p1769
S'0'
sS'Start'
p1770
S'1'
sS'Won'
p1771
S'1'
sS'GfM'
p1772
S'0'
sS'Draw'
p1773
S'0'
sS'Mat'
p1774
S'1'
sS'Conv'
p1775
S'0'
sS'Tries'
p1776
S'0'
sS'Pts'
p1777
S'0'
sa(dp1778
S'Pens'
p1779
S'0'
sS'Sub'
p1780
S'0'
sS'Lost'
p1781
S'1'
sS'Drop'
p1782
S'0'
sS'Start'
p1783
S'5'
sS'Won'
p1784
S'4'
sS'GfM'
p1785
S'0'
sS'Draw'
p1786
S'0'
sS'Mat'
p1787
S'5'
sS'Conv'
p1788
S'0'
sS'Tries'
p1789
S'1'
sS'Pts'
p1790
S'3'
sa(dp1791
S'Pens'
p1792
S'0'
sS'Sub'
p1793
S'0'
sS'Lost'
p1794
S'1'
sS'Drop'
p1795
S'0'
sS'Start'
p1796
S'3'
sS'Won'
p1797
S'1'
sS'GfM'
p1798
S'0'
sS'Draw'
p1799
S'1'
sS'Mat'
p1800
S'3'
sS'Conv'
p1801
S'0'
sS'Tries'
p1802
S'0'
sS'Pts'
p1803
S'0'
sa(dp1804
S'Pens'
p1805
S'0'
sS'Sub'
p1806
S'0'
sS'Lost'
p1807
S'2'
sS'Drop'
p1808
S'0'
sS'Start'
p1809
S'3'
sS'Won'
p1810
S'0'
sS'GfM'
p1811
S'0'
sS'Draw'
p1812
S'1'
sS'Mat'
p1813
S'3'
sS'Conv'
p1814
S'0'
sS'Tries'
p1815
S'0'
sS'Pts'
p1816
S'0'
sa(dp1817
S'Pens'
p1818
S'0'
sS'Sub'
p1819
S'0'
sS'Lost'
p1820
S'3'
sS'Drop'
p1821
S'0'
sS'Start'
p1822
S'4'
sS'Won'
p1823
S'0'
sS'GfM'
p1824
S'0'
sS'Draw'
p1825
S'1'
sS'Mat'
p1826
S'4'
sS'Conv'
p1827
S'0'
sS'Tries'
p1828
S'0'
sS'Pts'
p1829
S'0'
sa(dp1830
S'Pens'
p1831
S'0'
sS'Sub'
p1832
S'0'
sS'Lost'
p1833
S'1'
sS'Drop'
p1834
S'0'
sS'Start'
p1835
S'1'
sS'Won'
p1836
S'0'
sS'GfM'
p1837
S'0'
sS'Draw'
p1838
S'0'
sS'Mat'
p1839
S'1'
sS'Conv'
p1840
S'0'
sS'Tries'
p1841
S'0'
sS'Pts'
p1842
S'0'
sa(dp1843
S'Pens'
p1844
S'0'
sS'Sub'
p1845
S'0'
sS'Lost'
p1846
S'5'
sS'Drop'
p1847
S'0'
sS'Start'
p1848
S'7'
sS'Won'
p1849
S'2'
sS'GfM'
p1850
S'0'
sS'Draw'
p1851
S'0'
sS'Mat'
p1852
S'7'
sS'Conv'
p1853
S'0'
sS'Tries'
p1854
S'1'
sS'Pts'
p1855
S'3'
sa(dp1856
S'Pens'
p1857
S'1'
sS'Sub'
p1858
S'0'
sS'Lost'
p1859
S'3'
sS'Drop'
p1860
S'0'
sS'Start'
p1861
S'6'
sS'Won'
p1862
S'3'
sS'GfM'
p1863
S'0'
sS'Draw'
p1864
S'0'
sS'Mat'
p1865
S'6'
sS'Conv'
p1866
S'0'
sS'Tries'
p1867
S'0'
sS'Pts'
p1868
S'3'
sa(dp1869
S'Pens'
p1870
S'0'
sS'Sub'
p1871
S'0'
sS'Lost'
p1872
S'3'
sS'Drop'
p1873
S'0'
sS'Start'
p1874
S'3'
sS'Won'
p1875
S'0'
sS'GfM'
p1876
S'0'
sS'Draw'
p1877
S'0'
sS'Mat'
p1878
S'3'
sS'Conv'
p1879
S'0'
sS'Tries'
p1880
S'0'
sS'Pts'
p1881
S'0'
sa(dp1882
S'Pens'
p1883
S'0'
sS'Sub'
p1884
S'0'
sS'Lost'
p1885
S'2'
sS'Drop'
p1886
S'0'
sS'Start'
p1887
S'2'
sS'Won'
p1888
S'0'
sS'GfM'
p1889
S'0'
sS'Draw'
p1890
S'0'
sS'Mat'
p1891
S'2'
sS'Conv'
p1892
S'0'
sS'Tries'
p1893
S'0'
sS'Pts'
p1894
S'0'
sa(dp1895
S'Pens'
p1896
S'0'
sS'Sub'
p1897
S'0'
sS'Lost'
p1898
S'2'
sS'Drop'
p1899
S'0'
sS'Start'
p1900
S'2'
sS'Won'
p1901
S'0'
sS'GfM'
p1902
S'0'
sS'Draw'
p1903
S'0'
sS'Mat'
p1904
S'2'
sS'Conv'
p1905
S'0'
sS'Tries'
p1906
S'0'
sS'Pts'
p1907
S'0'
sa(dp1908
S'Pens'
p1909
S'0'
sS'Sub'
p1910
S'0'
sS'Lost'
p1911
S'2'
sS'Drop'
p1912
S'0'
sS'Start'
p1913
S'2'
sS'Won'
p1914
S'0'
sS'GfM'
p1915
S'0'
sS'Draw'
p1916
S'0'
sS'Mat'
p1917
S'2'
sS'Conv'
p1918
S'0'
sS'Tries'
p1919
S'1'
sS'Pts'
p1920
S'3'
sa(dp1921
S'Pens'
p1922
S'0'
sS'Sub'
p1923
S'0'
sS'Lost'
p1924
S'1'
sS'Drop'
p1925
S'0'
sS'Start'
p1926
S'1'
sS'Won'
p1927
S'0'
sS'GfM'
p1928
S'0'
sS'Draw'
p1929
S'0'
sS'Mat'
p1930
S'1'
sS'Conv'
p1931
S'0'
sS'Tries'
p1932
S'0'
sS'Pts'
p1933
S'0'
sa(dp1934
S'Pens'
p1935
S'0'
sS'Sub'
p1936
S'0'
sS'Lost'
p1937
S'2'
sS'Drop'
p1938
S'0'
sS'Start'
p1939
S'2'
sS'Won'
p1940
S'0'
sS'GfM'
p1941
S'0'
sS'Draw'
p1942
S'0'
sS'Mat'
p1943
S'2'
sS'Conv'
p1944
S'0'
sS'Tries'
p1945
S'0'
sS'Pts'
p1946
S'0'
sa(dp1947
S'Pens'
p1948
S'0'
sS'Sub'
p1949
S'0'
sS'Lost'
p1950
S'1'
sS'Drop'
p1951
S'0'
sS'Start'
p1952
S'1'
sS'Won'
p1953
S'0'
sS'GfM'
p1954
S'0'
sS'Draw'
p1955
S'0'
sS'Mat'
p1956
S'1'
sS'Conv'
p1957
S'0'
sS'Tries'
p1958
S'0'
sS'Pts'
p1959
S'0'
sa(dp1960
S'Pens'
p1961
S'0'
sS'Sub'
p1962
S'0'
sS'Lost'
p1963
S'1'
sS'Drop'
p1964
S'0'
sS'Start'
p1965
S'1'
sS'Won'
p1966
S'0'
sS'GfM'
p1967
S'0'
sS'Draw'
p1968
S'0'
sS'Mat'
p1969
S'1'
sS'Conv'
p1970
S'0'
sS'Tries'
p1971
S'0'
sS'Pts'
p1972
S'0'
sa(dp1973
S'Pens'
p1974
S'0'
sS'Sub'
p1975
S'0'
sS'Lost'
p1976
S'1'
sS'Drop'
p1977
S'0'
sS'Start'
p1978
S'1'
sS'Won'
p1979
S'0'
sS'GfM'
p1980
S'0'
sS'Draw'
p1981
S'0'
sS'Mat'
p1982
S'1'
sS'Conv'
p1983
S'0'
sS'Tries'
p1984
S'0'
sS'Pts'
p1985
S'0'
sa(dp1986
S'Pens'
p1987
S'0'
sS'Sub'
p1988
S'0'
sS'Lost'
p1989
S'1'
sS'Drop'
p1990
S'0'
sS'Start'
p1991
S'1'
sS'Won'
p1992
S'0'
sS'GfM'
p1993
S'0'
sS'Draw'
p1994
S'0'
sS'Mat'
p1995
S'1'
sS'Conv'
p1996
S'0'
sS'Tries'
p1997
S'0'
sS'Pts'
p1998
S'0'
sa(dp1999
S'Pens'
p2000
S'0'
sS'Sub'
p2001
S'0'
sS'Lost'
p2002
S'1'
sS'Drop'
p2003
S'0'
sS'Start'
p2004
S'1'
sS'Won'
p2005
S'0'
sS'GfM'
p2006
S'0'
sS'Draw'
p2007
S'0'
sS'Mat'
p2008
S'1'
sS'Conv'
p2009
S'0'
sS'Tries'
p2010
S'0'
sS'Pts'
p2011
S'0'
sa(dp2012
S'Pens'
p2013
S'0'
sS'Sub'
p2014
S'0'
sS'Lost'
p2015
S'1'
sS'Drop'
p2016
S'0'
sS'Start'
p2017
S'1'
sS'Won'
p2018
S'0'
sS'GfM'
p2019
S'0'
sS'Draw'
p2020
S'0'
sS'Mat'
p2021
S'1'
sS'Conv'
p2022
S'0'
sS'Tries'
p2023
S'0'
sS'Pts'
p2024
S'0'
sa(dp2025
S'Pens'
p2026
S'0'
sS'Sub'
p2027
S'0'
sS'Lost'
p2028
S'1'
sS'Drop'
p2029
S'0'
sS'Start'
p2030
S'1'
sS'Won'
p2031
S'0'
sS'GfM'
p2032
S'0'
sS'Draw'
p2033
S'0'
sS'Mat'
p2034
S'1'
sS'Conv'
p2035
S'0'
sS'Tries'
p2036
S'0'
sS'Pts'
p2037
S'0'
sa(dp2038
S'Pens'
p2039
S'0'
sS'Sub'
p2040
S'0'
sS'Lost'
p2041
S'1'
sS'Drop'
p2042
S'0'
sS'Start'
p2043
S'1'
sS'Won'
p2044
S'0'
sS'GfM'
p2045
S'0'
sS'Draw'
p2046
S'0'
sS'Mat'
p2047
S'1'
sS'Conv'
p2048
S'0'
sS'Tries'
p2049
S'0'
sS'Pts'
p2050
S'0'
sa(dp2051
S'Pens'
p2052
S'0'
sS'Sub'
p2053
S'0'
sS'Lost'
p2054
S'1'
sS'Drop'
p2055
S'0'
sS'Start'
p2056
S'1'
sS'Won'
p2057
S'0'
sS'GfM'
p2058
S'0'
sS'Draw'
p2059
S'0'
sS'Mat'
p2060
S'1'
sS'Conv'
p2061
S'0'
sS'Tries'
p2062
S'0'
sS'Pts'
p2063
S'0'
sa(dp2064
S'Pens'
p2065
S'0'
sS'Sub'
p2066
S'0'
sS'Lost'
p2067
S'6'
sS'Drop'
p2068
S'0'
sS'Start'
p2069
S'12'
p2070
sS'Won'
p2071
S'6'
sS'GfM'
p2072
S'0'
sS'Draw'
p2073
S'0'
sS'Mat'
p2074
S'12'
p2075
sS'Conv'
p2076
S'0'
sS'Tries'
p2077
S'0'
sS'Pts'
p2078
S'0'
sa(dp2079
S'Pens'
p2080
S'0'
sS'Sub'
p2081
S'0'
sS'Lost'
p2082
S'4'
sS'Drop'
p2083
S'0'
sS'Start'
p2084
S'7'
sS'Won'
p2085
S'3'
sS'GfM'
p2086
S'0'
sS'Draw'
p2087
S'0'
sS'Mat'
p2088
S'7'
sS'Conv'
p2089
S'0'
sS'Tries'
p2090
S'1'
sS'Pts'
p2091
S'3'
sa(dp2092
S'Pens'
p2093
S'0'
sS'Sub'
p2094
S'0'
sS'Lost'
p2095
S'1'
sS'Drop'
p2096
S'0'
sS'Start'
p2097
S'1'
sS'Won'
p2098
S'0'
sS'GfM'
p2099
S'0'
sS'Draw'
p2100
S'0'
sS'Mat'
p2101
S'1'
sS'Conv'
p2102
S'0'
sS'Tries'
p2103
S'0'
sS'Pts'
p2104
S'0'
sa(dp2105
S'Pens'
p2106
S'0'
sS'Sub'
p2107
S'0'
sS'Lost'
p2108
S'3'
sS'Drop'
p2109
S'0'
sS'Start'
p2110
S'3'
sS'Won'
p2111
S'0'
sS'GfM'
p2112
S'0'
sS'Draw'
p2113
S'0'
sS'Mat'
p2114
S'3'
sS'Conv'
p2115
S'0'
sS'Tries'
p2116
S'0'
sS'Pts'
p2117
S'0'
sa(dp2118
S'Pens'
p2119
S'0'
sS'Sub'
p2120
S'0'
sS'Lost'
p2121
S'1'
sS'Drop'
p2122
S'0'
sS'Start'
p2123
S'1'
sS'Won'
p2124
S'0'
sS'GfM'
p2125
S'0'
sS'Draw'
p2126
S'0'
sS'Mat'
p2127
S'1'
sS'Conv'
p2128
S'0'
sS'Tries'
p2129
S'0'
sS'Pts'
p2130
S'0'
sa(dp2131
S'Pens'
p2132
S'0'
sS'Sub'
p2133
S'0'
sS'Lost'
p2134
S'3'
sS'Drop'
p2135
S'0'
sS'Start'
p2136
S'6'
sS'Won'
p2137
S'3'
sS'GfM'
p2138
S'0'
sS'Draw'
p2139
S'0'
sS'Mat'
p2140
S'6'
sS'Conv'
p2141
S'0'
sS'Tries'
p2142
S'0'
sS'Pts'
p2143
S'0'
sa(dp2144
S'Pens'
p2145
S'0'
sS'Sub'
p2146
S'0'
sS'Lost'
p2147
S'1'
sS'Drop'
p2148
S'0'
sS'Start'
p2149
S'1'
sS'Won'
p2150
S'0'
sS'GfM'
p2151
S'0'
sS'Draw'
p2152
S'0'
sS'Mat'
p2153
S'1'
sS'Conv'
p2154
S'0'
sS'Tries'
p2155
S'0'
sS'Pts'
p2156
S'0'
sa(dp2157
S'Pens'
p2158
S'1'
sS'Sub'
p2159
S'0'
sS'Lost'
p2160
S'4'
sS'Drop'
p2161
S'1'
sS'Start'
p2162
S'4'
sS'Won'
p2163
S'0'
sS'GfM'
p2164
S'0'
sS'Draw'
p2165
S'0'
sS'Mat'
p2166
S'4'
sS'Conv'
p2167
S'0'
sS'Tries'
p2168
S'0'
sS'Pts'
p2169
S'6'
sa(dp2170
S'Pens'
p2171
S'0'
sS'Sub'
p2172
S'0'
sS'Lost'
p2173
S'1'
sS'Drop'
p2174
S'0'
sS'Start'
p2175
S'1'
sS'Won'
p2176
S'0'
sS'GfM'
p2177
S'0'
sS'Draw'
p2178
S'0'
sS'Mat'
p2179
S'1'
sS'Conv'
p2180
S'0'
sS'Tries'
p2181
S'0'
sS'Pts'
p2182
S'0'
sa(dp2183
S'Pens'
p2184
S'0'
sS'Sub'
p2185
S'0'
sS'Lost'
p2186
S'1'
sS'Drop'
p2187
S'0'
sS'Start'
p2188
S'1'
sS'Won'
p2189
S'0'
sS'GfM'
p2190
S'0'
sS'Draw'
p2191
S'0'
sS'Mat'
p2192
S'1'
sS'Conv'
p2193
S'0'
sS'Tries'
p2194
S'0'
sS'Pts'
p2195
S'0'
sa(dp2196
S'Pens'
p2197
S'0'
sS'Sub'
p2198
S'0'
sS'Lost'
p2199
S'1'
sS'Drop'
p2200
S'0'
sS'Start'
p2201
S'1'
sS'Won'
p2202
S'0'
sS'GfM'
p2203
S'0'
sS'Draw'
p2204
S'0'
sS'Mat'
p2205
S'1'
sS'Conv'
p2206
S'0'
sS'Tries'
p2207
S'0'
sS'Pts'
p2208
S'0'
sa(dp2209
S'Pens'
p2210
S'0'
sS'Sub'
p2211
S'0'
sS'Lost'
p2212
S'3'
sS'Drop'
p2213
S'0'
sS'Start'
p2214
S'6'
sS'Won'
p2215
S'3'
sS'GfM'
p2216
S'0'
sS'Draw'
p2217
S'0'
sS'Mat'
p2218
S'6'
sS'Conv'
p2219
S'0'
sS'Tries'
p2220
S'0'
sS'Pts'
p2221
S'0'
sa(dp2222
S'Pens'
p2223
S'0'
sS'Sub'
p2224
S'0'
sS'Lost'
p2225
S'0'
sS'Drop'
p2226
S'0'
sS'Start'
p2227
S'3'
sS'Won'
p2228
S'3'
sS'GfM'
p2229
S'0'
sS'Draw'
p2230
S'0'
sS'Mat'
p2231
S'3'
sS'Conv'
p2232
S'0'
sS'Tries'
p2233
S'0'
sS'Pts'
p2234
S'0'
sa(dp2235
S'Pens'
p2236
S'0'
sS'Sub'
p2237
S'0'
sS'Lost'
p2238
S'2'
sS'Drop'
p2239
S'0'
sS'Start'
p2240
S'8'
sS'Won'
p2241
S'6'
sS'GfM'
p2242
S'0'
sS'Draw'
p2243
S'0'
sS'Mat'
p2244
S'8'
sS'Conv'
p2245
S'0'
sS'Tries'
p2246
S'1'
sS'Pts'
p2247
S'3'
sa(dp2248
S'Pens'
p2249
S'0'
sS'Sub'
p2250
S'0'
sS'Lost'
p2251
S'2'
sS'Drop'
p2252
S'0'
sS'Start'
p2253
S'8'
sS'Won'
p2254
S'6'
sS'GfM'
p2255
S'0'
sS'Draw'
p2256
S'0'
sS'Mat'
p2257
S'8'
sS'Conv'
p2258
S'0'
sS'Tries'
p2259
S'1'
sS'Pts'
p2260
S'3'
sa(dp2261
S'Pens'
p2262
S'0'
sS'Sub'
p2263
S'0'
sS'Lost'
p2264
S'4'
sS'Drop'
p2265
S'0'
sS'Start'
p2266
S'7'
sS'Won'
p2267
S'3'
sS'GfM'
p2268
S'0'
sS'Draw'
p2269
S'0'
sS'Mat'
p2270
S'7'
sS'Conv'
p2271
S'0'
sS'Tries'
p2272
S'0'
sS'Pts'
p2273
S'0'
sa(dp2274
S'Pens'
p2275
S'0'
sS'Sub'
p2276
S'0'
sS'Lost'
p2277
S'0'
sS'Drop'
p2278
S'0'
sS'Start'
p2279
S'2'
sS'Won'
p2280
S'2'
sS'GfM'
p2281
S'0'
sS'Draw'
p2282
S'0'
sS'Mat'
p2283
S'2'
sS'Conv'
p2284
S'0'
sS'Tries'
p2285
S'0'
sS'Pts'
p2286
S'0'
sa(dp2287
S'Pens'
p2288
S'0'
sS'Sub'
p2289
S'0'
sS'Lost'
p2290
S'1'
sS'Drop'
p2291
S'0'
sS'Start'
p2292
S'4'
sS'Won'
p2293
S'3'
sS'GfM'
p2294
S'0'
sS'Draw'
p2295
S'0'
sS'Mat'
p2296
S'4'
sS'Conv'
p2297
S'0'
sS'Tries'
p2298
S'0'
sS'Pts'
p2299
S'0'
sa(dp2300
S'Pens'
p2301
S'0'
sS'Sub'
p2302
S'0'
sS'Lost'
p2303
S'2'
sS'Drop'
p2304
S'0'
sS'Start'
p2305
S'5'
sS'Won'
p2306
S'3'
sS'GfM'
p2307
S'0'
sS'Draw'
p2308
S'0'
sS'Mat'
p2309
S'5'
sS'Conv'
p2310
S'0'
sS'Tries'
p2311
S'0'
sS'Pts'
p2312
S'0'
sa(dp2313
S'Pens'
p2314
S'0'
sS'Sub'
p2315
S'0'
sS'Lost'
p2316
S'0'
sS'Drop'
p2317
S'0'
sS'Start'
p2318
S'3'
sS'Won'
p2319
S'3'
sS'GfM'
p2320
S'0'
sS'Draw'
p2321
S'0'
sS'Mat'
p2322
S'3'
sS'Conv'
p2323
S'0'
sS'Tries'
p2324
S'0'
sS'Pts'
p2325
S'0'
sa(dp2326
S'Pens'
p2327
S'0'
sS'Sub'
p2328
S'0'
sS'Lost'
p2329
S'1'
sS'Drop'
p2330
S'0'
sS'Start'
p2331
S'4'
sS'Won'
p2332
S'3'
sS'GfM'
p2333
S'0'
sS'Draw'
p2334
S'0'
sS'Mat'
p2335
S'4'
sS'Conv'
p2336
S'0'
sS'Tries'
p2337
S'0'
sS'Pts'
p2338
S'0'
sa(dp2339
S'Pens'
p2340
S'0'
sS'Sub'
p2341
S'0'
sS'Lost'
p2342
S'2'
sS'Drop'
p2343
S'0'
sS'Start'
p2344
S'8'
sS'Won'
p2345
S'6'
sS'GfM'
p2346
S'0'
sS'Draw'
p2347
S'0'
sS'Mat'
p2348
S'8'
sS'Conv'
p2349
S'0'
sS'Tries'
p2350
S'1'
sS'Pts'
p2351
S'3'
sa(dp2352
S'Pens'
p2353
S'0'
sS'Sub'
p2354
S'0'
sS'Lost'
p2355
S'2'
sS'Drop'
p2356
S'0'
sS'Start'
p2357
S'2'
sS'Won'
p2358
S'0'
sS'GfM'
p2359
S'0'
sS'Draw'
p2360
S'0'
sS'Mat'
p2361
S'2'
sS'Conv'
p2362
S'0'
sS'Tries'
p2363
S'0'
sS'Pts'
p2364
S'0'
sa(dp2365
S'Pens'
p2366
S'0'
sS'Sub'
p2367
S'0'
sS'Lost'
p2368
S'4'
sS'Drop'
p2369
S'0'
sS'Start'
p2370
S'4'
sS'Won'
p2371
S'0'
sS'GfM'
p2372
S'0'
sS'Draw'
p2373
S'0'
sS'Mat'
p2374
S'4'
sS'Conv'
p2375
S'0'
sS'Tries'
p2376
S'0'
sS'Pts'
p2377
S'0'
sa(dp2378
S'Pens'
p2379
S'0'
sS'Sub'
p2380
S'0'
sS'Lost'
p2381
S'3'
sS'Drop'
p2382
S'0'
sS'Start'
p2383
S'3'
sS'Won'
p2384
S'0'
sS'GfM'
p2385
S'0'
sS'Draw'
p2386
S'0'
sS'Mat'
p2387
S'3'
sS'Conv'
p2388
S'0'
sS'Tries'
p2389
S'0'
sS'Pts'
p2390
S'0'
sa(dp2391
S'Pens'
p2392
S'0'
sS'Sub'
p2393
S'0'
sS'Lost'
p2394
S'5'
sS'Drop'
p2395
S'0'
sS'Start'
p2396
S'5'
sS'Won'
p2397
S'0'
sS'GfM'
p2398
S'0'
sS'Draw'
p2399
S'0'
sS'Mat'
p2400
S'5'
sS'Conv'
p2401
S'0'
sS'Tries'
p2402
S'1'
sS'Pts'
p2403
S'3'
sa(dp2404
S'Pens'
p2405
S'1'
sS'Sub'
p2406
S'0'
sS'Lost'
p2407
S'2'
sS'Drop'
p2408
S'0'
sS'Start'
p2409
S'2'
sS'Won'
p2410
S'0'
sS'GfM'
p2411
S'0'
sS'Draw'
p2412
S'0'
sS'Mat'
p2413
S'2'
sS'Conv'
p2414
S'0'
sS'Tries'
p2415
S'0'
sS'Pts'
p2416
S'3'
sa(dp2417
S'Pens'
p2418
S'1'
sS'Sub'
p2419
S'0'
sS'Lost'
p2420
S'1'
sS'Drop'
p2421
S'0'
sS'Start'
p2422
S'1'
sS'Won'
p2423
S'0'
sS'GfM'
p2424
S'0'
sS'Draw'
p2425
S'0'
sS'Mat'
p2426
S'1'
sS'Conv'
p2427
S'0'
sS'Tries'
p2428
S'0'
sS'Pts'
p2429
S'3'
sa(dp2430
S'Pens'
p2431
S'0'
sS'Sub'
p2432
S'0'
sS'Lost'
p2433
S'1'
sS'Drop'
p2434
S'0'
sS'Start'
p2435
S'4'
sS'Won'
p2436
S'3'
sS'GfM'
p2437
S'0'
sS'Draw'
p2438
S'0'
sS'Mat'
p2439
S'4'
sS'Conv'
p2440
S'0'
sS'Tries'
p2441
S'1'
sS'Pts'
p2442
S'3'
sa(dp2443
S'Pens'
p2444
S'0'
sS'Sub'
p2445
S'0'
sS'Lost'
p2446
S'3'
sS'Drop'
p2447
S'0'
sS'Start'
p2448
S'3'
sS'Won'
p2449
S'0'
sS'GfM'
p2450
S'0'
sS'Draw'
p2451
S'0'
sS'Mat'
p2452
S'3'
sS'Conv'
p2453
S'0'
sS'Tries'
p2454
S'0'
sS'Pts'
p2455
S'0'
sa(dp2456
S'Pens'
p2457
S'0'
sS'Sub'
p2458
S'0'
sS'Lost'
p2459
S'6'
sS'Drop'
p2460
S'0'
sS'Start'
p2461
S'13'
p2462
sS'Won'
p2463
S'7'
sS'GfM'
p2464
S'0'
sS'Draw'
p2465
S'0'
sS'Mat'
p2466
S'13'
p2467
sS'Conv'
p2468
S'0'
sS'Tries'
p2469
S'12'
p2470
sS'Pts'
p2471
S'36'
p2472
sa(dp2473
S'Pens'
p2474
S'1'
sS'Sub'
p2475
S'0'
sS'Lost'
p2476
S'3'
sS'Drop'
p2477
S'0'
sS'Start'
p2478
S'6'
sS'Won'
p2479
S'3'
sS'GfM'
p2480
S'0'
sS'Draw'
p2481
S'0'
sS'Mat'
p2482
S'6'
sS'Conv'
p2483
S'14'
p2484
sS'Tries'
p2485
S'1'
sS'Pts'
p2486
S'34'
p2487
sa(dp2488
S'Pens'
p2489
S'0'
sS'Sub'
p2490
S'0'
sS'Lost'
p2491
S'9'
sS'Drop'
p2492
S'0'
sS'Start'
p2493
S'26'
p2494
sS'Won'
p2495
S'15'
p2496
sS'GfM'
p2497
S'0'
sS'Draw'
p2498
S'2'
sS'Mat'
p2499
S'26'
p2500
sS'Conv'
p2501
S'0'
sS'Tries'
p2502
S'6'
sS'Pts'
p2503
S'18'
p2504
sa(dp2505
S'Pens'
p2506
S'0'
sS'Sub'
p2507
S'0'
sS'Lost'
p2508
S'1'
sS'Drop'
p2509
S'0'
sS'Start'
p2510
S'1'
sS'Won'
p2511
S'0'
sS'GfM'
p2512
S'0'
sS'Draw'
p2513
S'0'
sS'Mat'
p2514
S'1'
sS'Conv'
p2515
S'0'
sS'Tries'
p2516
S'0'
sS'Pts'
p2517
S'0'
sa(dp2518
S'Pens'
p2519
S'0'
sS'Sub'
p2520
S'0'
sS'Lost'
p2521
S'3'
sS'Drop'
p2522
S'0'
sS'Start'
p2523
S'7'
sS'Won'
p2524
S'4'
sS'GfM'
p2525
S'0'
sS'Draw'
p2526
S'0'
sS'Mat'
p2527
S'7'
sS'Conv'
p2528
S'0'
sS'Tries'
p2529
S'0'
sS'Pts'
p2530
S'0'
sa(dp2531
S'Pens'
p2532
S'0'
sS'Sub'
p2533
S'0'
sS'Lost'
p2534
S'1'
sS'Drop'
p2535
S'0'
sS'Start'
p2536
S'1'
sS'Won'
p2537
S'0'
sS'GfM'
p2538
S'0'
sS'Draw'
p2539
S'0'
sS'Mat'
p2540
S'1'
sS'Conv'
p2541
S'0'
sS'Tries'
p2542
S'0'
sS'Pts'
p2543
S'0'
sa(dp2544
S'Pens'
p2545
S'0'
sS'Sub'
p2546
S'0'
sS'Lost'
p2547
S'1'
sS'Drop'
p2548
S'0'
sS'Start'
p2549
S'1'
sS'Won'
p2550
S'0'
sS'GfM'
p2551
S'0'
sS'Draw'
p2552
S'0'
sS'Mat'
p2553
S'1'
sS'Conv'
p2554
S'0'
sS'Tries'
p2555
S'0'
sS'Pts'
p2556
S'0'
sa(dp2557
S'Pens'
p2558
S'0'
sS'Sub'
p2559
S'0'
sS'Lost'
p2560
S'2'
sS'Drop'
p2561
S'0'
sS'Start'
p2562
S'2'
sS'Won'
p2563
S'0'
sS'GfM'
p2564
S'0'
sS'Draw'
p2565
S'0'
sS'Mat'
p2566
S'2'
sS'Conv'
p2567
S'0'
sS'Tries'
p2568
S'0'
sS'Pts'
p2569
S'0'
sa(dp2570
S'Pens'
p2571
S'2'
sS'Sub'
p2572
S'0'
sS'Lost'
p2573
S'2'
sS'Drop'
p2574
S'0'
sS'Start'
p2575
S'2'
sS'Won'
p2576
S'0'
sS'GfM'
p2577
S'0'
sS'Draw'
p2578
S'0'
sS'Mat'
p2579
S'2'
sS'Conv'
p2580
S'0'
sS'Tries'
p2581
S'0'
sS'Pts'
p2582
S'6'
sa(dp2583
S'Pens'
p2584
S'0'
sS'Sub'
p2585
S'0'
sS'Lost'
p2586
S'1'
sS'Drop'
p2587
S'0'
sS'Start'
p2588
S'2'
sS'Won'
p2589
S'1'
sS'GfM'
p2590
S'0'
sS'Draw'
p2591
S'0'
sS'Mat'
p2592
S'2'
sS'Conv'
p2593
S'0'
sS'Tries'
p2594
S'0'
sS'Pts'
p2595
S'0'
sa(dp2596
S'Pens'
p2597
S'0'
sS'Sub'
p2598
S'0'
sS'Lost'
p2599
S'1'
sS'Drop'
p2600
S'0'
sS'Start'
p2601
S'1'
sS'Won'
p2602
S'0'
sS'GfM'
p2603
S'0'
sS'Draw'
p2604
S'0'
sS'Mat'
p2605
S'1'
sS'Conv'
p2606
S'0'
sS'Tries'
p2607
S'0'
sS'Pts'
p2608
S'0'
sa(dp2609
S'Pens'
p2610
S'0'
sS'Sub'
p2611
S'0'
sS'Lost'
p2612
S'1'
sS'Drop'
p2613
S'0'
sS'Start'
p2614
S'1'
sS'Won'
p2615
S'0'
sS'GfM'
p2616
S'0'
sS'Draw'
p2617
S'0'
sS'Mat'
p2618
S'1'
sS'Conv'
p2619
S'0'
sS'Tries'
p2620
S'0'
sS'Pts'
p2621
S'0'
sa(dp2622
S'Pens'
p2623
S'0'
sS'Sub'
p2624
S'0'
sS'Lost'
p2625
S'0'
sS'Drop'
p2626
S'0'
sS'Start'
p2627
S'3'
sS'Won'
p2628
S'3'
sS'GfM'
p2629
S'0'
sS'Draw'
p2630
S'0'
sS'Mat'
p2631
S'3'
sS'Conv'
p2632
S'0'
sS'Tries'
p2633
S'0'
sS'Pts'
p2634
S'0'
sa(dp2635
S'Pens'
p2636
S'0'
sS'Sub'
p2637
S'0'
sS'Lost'
p2638
S'2'
sS'Drop'
p2639
S'0'
sS'Start'
p2640
S'8'
sS'Won'
p2641
S'6'
sS'GfM'
p2642
S'0'
sS'Draw'
p2643
S'0'
sS'Mat'
p2644
S'8'
sS'Conv'
p2645
S'2'
sS'Tries'
p2646
S'11'
p2647
sS'Pts'
p2648
S'37'
p2649
sa(dp2650
S'Pens'
p2651
S'0'
sS'Sub'
p2652
S'0'
sS'Lost'
p2653
S'0'
sS'Drop'
p2654
S'0'
sS'Start'
p2655
S'3'
sS'Won'
p2656
S'3'
sS'GfM'
p2657
S'0'
sS'Draw'
p2658
S'0'
sS'Mat'
p2659
S'3'
sS'Conv'
p2660
S'0'
sS'Tries'
p2661
S'1'
sS'Pts'
p2662
S'3'
sa(dp2663
S'Pens'
p2664
S'0'
sS'Sub'
p2665
S'0'
sS'Lost'
p2666
S'0'
sS'Drop'
p2667
S'0'
sS'Start'
p2668
S'3'
sS'Won'
p2669
S'3'
sS'GfM'
p2670
S'0'
sS'Draw'
p2671
S'0'
sS'Mat'
p2672
S'3'
sS'Conv'
p2673
S'0'
sS'Tries'
p2674
S'2'
sS'Pts'
p2675
S'6'
sa(dp2676
S'Pens'
p2677
S'0'
sS'Sub'
p2678
S'0'
sS'Lost'
p2679
S'0'
sS'Drop'
p2680
S'0'
sS'Start'
p2681
S'2'
sS'Won'
p2682
S'2'
sS'GfM'
p2683
S'0'
sS'Draw'
p2684
S'0'
sS'Mat'
p2685
S'2'
sS'Conv'
p2686
S'0'
sS'Tries'
p2687
S'0'
sS'Pts'
p2688
S'0'
sa(dp2689
S'Pens'
p2690
S'0'
sS'Sub'
p2691
S'0'
sS'Lost'
p2692
S'2'
sS'Drop'
p2693
S'0'
sS'Start'
p2694
S'11'
p2695
sS'Won'
p2696
S'8'
sS'GfM'
p2697
S'0'
sS'Draw'
p2698
S'1'
sS'Mat'
p2699
S'11'
p2700
sS'Conv'
p2701
S'0'
sS'Tries'
p2702
S'3'
sS'Pts'
p2703
S'9'
sa(dp2704
S'Pens'
p2705
S'0'
sS'Sub'
p2706
S'0'
sS'Lost'
p2707
S'0'
sS'Drop'
p2708
S'0'
sS'Start'
p2709
S'3'
sS'Won'
p2710
S'3'
sS'GfM'
p2711
S'0'
sS'Draw'
p2712
S'0'
sS'Mat'
p2713
S'3'
sS'Conv'
p2714
S'0'
sS'Tries'
p2715
S'0'
sS'Pts'
p2716
S'0'
sa(dp2717
S'Pens'
p2718
S'0'
sS'Sub'
p2719
S'0'
sS'Lost'
p2720
S'9'
sS'Drop'
p2721
S'0'
sS'Start'
p2722
S'25'
p2723
sS'Won'
p2724
S'15'
p2725
sS'GfM'
p2726
S'0'
sS'Draw'
p2727
S'1'
sS'Mat'
p2728
S'25'
p2729
sS'Conv'
p2730
S'0'
sS'Tries'
p2731
S'3'
sS'Pts'
p2732
S'10'
p2733
sa(dp2734
S'Pens'
p2735
S'0'
sS'Sub'
p2736
S'0'
sS'Lost'
p2737
S'2'
sS'Drop'
p2738
S'0'
sS'Start'
p2739
S'8'
sS'Won'
p2740
S'5'
sS'GfM'
p2741
S'0'
sS'Draw'
p2742
S'1'
sS'Mat'
p2743
S'8'
sS'Conv'
p2744
S'0'
sS'Tries'
p2745
S'0'
sS'Pts'
p2746
S'0'
sa(dp2747
S'Pens'
p2748
S'0'
sS'Sub'
p2749
S'0'
sS'Lost'
p2750
S'0'
sS'Drop'
p2751
S'0'
sS'Start'
p2752
S'1'
sS'Won'
p2753
S'1'
sS'GfM'
p2754
S'0'
sS'Draw'
p2755
S'0'
sS'Mat'
p2756
S'1'
sS'Conv'
p2757
S'0'
sS'Tries'
p2758
S'1'
sS'Pts'
p2759
S'3'
sa(dp2760
S'Pens'
p2761
S'0'
sS'Sub'
p2762
S'0'
sS'Lost'
p2763
S'5'
sS'Drop'
p2764
S'0'
sS'Start'
p2765
S'19'
p2766
sS'Won'
p2767
S'12'
p2768
sS'GfM'
p2769
S'0'
sS'Draw'
p2770
S'2'
sS'Mat'
p2771
S'19'
p2772
sS'Conv'
p2773
S'0'
sS'Tries'
p2774
S'11'
p2775
sS'Pts'
p2776
S'33'
p2777
sa(dp2778
S'Pens'
p2779
S'2'
sS'Sub'
p2780
S'0'
sS'Lost'
p2781
S'0'
sS'Drop'
p2782
S'1'
sS'Start'
p2783
S'3'
sS'Won'
p2784
S'3'
sS'GfM'
p2785
S'0'
sS'Draw'
p2786
S'0'
sS'Mat'
p2787
S'3'
sS'Conv'
p2788
S'7'
sS'Tries'
p2789
S'1'
sS'Pts'
p2790
S'26'
p2791
sa(dp2792
S'Pens'
p2793
S'0'
sS'Sub'
p2794
S'0'
sS'Lost'
p2795
S'0'
sS'Drop'
p2796
S'0'
sS'Start'
p2797
S'2'
sS'Won'
p2798
S'2'
sS'GfM'
p2799
S'0'
sS'Draw'
p2800
S'0'
sS'Mat'
p2801
S'2'
sS'Conv'
p2802
S'0'
sS'Tries'
p2803
S'0'
sS'Pts'
p2804
S'0'
sa(dp2805
S'Pens'
p2806
S'0'
sS'Sub'
p2807
S'0'
sS'Lost'
p2808
S'0'
sS'Drop'
p2809
S'1'
sS'Start'
p2810
S'3'
sS'Won'
p2811
S'3'
sS'GfM'
p2812
S'0'
sS'Draw'
p2813
S'0'
sS'Mat'
p2814
S'3'
sS'Conv'
p2815
S'1'
sS'Tries'
p2816
S'0'
sS'Pts'
p2817
S'5'
sa(dp2818
S'Pens'
p2819
S'0'
sS'Sub'
p2820
S'0'
sS'Lost'
p2821
S'0'
sS'Drop'
p2822
S'0'
sS'Start'
p2823
S'2'
sS'Won'
p2824
S'2'
sS'GfM'
p2825
S'0'
sS'Draw'
p2826
S'0'
sS'Mat'
p2827
S'2'
sS'Conv'
p2828
S'0'
sS'Tries'
p2829
S'2'
sS'Pts'
p2830
S'6'
sa(dp2831
S'Pens'
p2832
S'0'
sS'Sub'
p2833
S'0'
sS'Lost'
p2834
S'0'
sS'Drop'
p2835
S'0'
sS'Start'
p2836
S'1'
sS'Won'
p2837
S'1'
sS'GfM'
p2838
S'0'
sS'Draw'
p2839
S'0'
sS'Mat'
p2840
S'1'
sS'Conv'
p2841
S'0'
sS'Tries'
p2842
S'0'
sS'Pts'
p2843
S'0'
sa(dp2844
S'Pens'
p2845
S'0'
sS'Sub'
p2846
S'0'
sS'Lost'
p2847
S'0'
sS'Drop'
p2848
S'0'
sS'Start'
p2849
S'2'
sS'Won'
p2850
S'2'
sS'GfM'
p2851
S'0'
sS'Draw'
p2852
S'0'
sS'Mat'
p2853
S'2'
sS'Conv'
p2854
S'0'
sS'Tries'
p2855
S'1'
sS'Pts'
p2856
S'3'
sa(dp2857
S'Pens'
p2858
S'0'
sS'Sub'
p2859
S'0'
sS'Lost'
p2860
S'0'
sS'Drop'
p2861
S'0'
sS'Start'
p2862
S'2'
sS'Won'
p2863
S'2'
sS'GfM'
p2864
S'0'
sS'Draw'
p2865
S'0'
sS'Mat'
p2866
S'2'
sS'Conv'
p2867
S'0'
sS'Tries'
p2868
S'0'
sS'Pts'
p2869
S'0'
sa(dp2870
S'Pens'
p2871
S'0'
sS'Sub'
p2872
S'0'
sS'Lost'
p2873
S'0'
sS'Drop'
p2874
S'0'
sS'Start'
p2875
S'4'
sS'Won'
p2876
S'3'
sS'GfM'
p2877
S'0'
sS'Draw'
p2878
S'1'
sS'Mat'
p2879
S'4'
sS'Conv'
p2880
S'0'
sS'Tries'
p2881
S'1'
sS'Pts'
p2882
S'3'
sa(dp2883
S'Pens'
p2884
S'0'
sS'Sub'
p2885
S'0'
sS'Lost'
p2886
S'0'
sS'Drop'
p2887
S'0'
sS'Start'
p2888
S'2'
sS'Won'
p2889
S'2'
sS'GfM'
p2890
S'0'
sS'Draw'
p2891
S'0'
sS'Mat'
p2892
S'2'
sS'Conv'
p2893
S'0'
sS'Tries'
p2894
S'0'
sS'Pts'
p2895
S'0'
sa(dp2896
S'Pens'
p2897
S'0'
sS'Sub'
p2898
S'0'
sS'Lost'
p2899
S'4'
sS'Drop'
p2900
S'0'
sS'Start'
p2901
S'8'
sS'Won'
p2902
S'3'
sS'GfM'
p2903
S'0'
sS'Draw'
p2904
S'1'
sS'Mat'
p2905
S'8'
sS'Conv'
p2906
S'0'
sS'Tries'
p2907
S'1'
sS'Pts'
p2908
S'3'
sa(dp2909
S'Pens'
p2910
S'0'
sS'Sub'
p2911
S'0'
sS'Lost'
p2912
S'2'
sS'Drop'
p2913
S'0'
sS'Start'
p2914
S'3'
sS'Won'
p2915
S'0'
sS'GfM'
p2916
S'0'
sS'Draw'
p2917
S'1'
sS'Mat'
p2918
S'3'
sS'Conv'
p2919
S'0'
sS'Tries'
p2920
S'0'
sS'Pts'
p2921
S'0'
sa(dp2922
S'Pens'
p2923
S'0'
sS'Sub'
p2924
S'0'
sS'Lost'
p2925
S'2'
sS'Drop'
p2926
S'0'
sS'Start'
p2927
S'4'
sS'Won'
p2928
S'2'
sS'GfM'
p2929
S'0'
sS'Draw'
p2930
S'0'
sS'Mat'
p2931
S'4'
sS'Conv'
p2932
S'0'
sS'Tries'
p2933
S'3'
sS'Pts'
p2934
S'9'
sa(dp2935
S'Pens'
p2936
S'1'
sS'Sub'
p2937
S'0'
sS'Lost'
p2938
S'3'
sS'Drop'
p2939
S'0'
sS'Start'
p2940
S'6'
sS'Won'
p2941
S'2'
sS'GfM'
p2942
S'0'
sS'Draw'
p2943
S'1'
sS'Mat'
p2944
S'6'
sS'Conv'
p2945
S'4'
sS'Tries'
p2946
S'1'
sS'Pts'
p2947
S'14'
p2948
sa(dp2949
S'Pens'
p2950
S'0'
sS'Sub'
p2951
S'0'
sS'Lost'
p2952
S'6'
sS'Drop'
p2953
S'0'
sS'Start'
p2954
S'14'
p2955
sS'Won'
p2956
S'7'
sS'GfM'
p2957
S'0'
sS'Draw'
p2958
S'1'
sS'Mat'
p2959
S'14'
p2960
sS'Conv'
p2961
S'0'
sS'Tries'
p2962
S'0'
sS'Pts'
p2963
S'0'
sa(dp2964
S'Pens'
p2965
S'0'
sS'Sub'
p2966
S'1'
sS'Lost'
p2967
S'6'
sS'Drop'
p2968
S'0'
sS'Start'
p2969
S'19'
p2970
sS'Won'
p2971
S'12'
p2972
sS'GfM'
p2973
S'0'
sS'Draw'
p2974
S'2'
sS'Mat'
p2975
S'20'
p2976
sS'Conv'
p2977
S'0'
sS'Tries'
p2978
S'0'
sS'Pts'
p2979
S'0'
sa(dp2980
S'Pens'
p2981
S'0'
sS'Sub'
p2982
S'0'
sS'Lost'
p2983
S'1'
sS'Drop'
p2984
S'0'
sS'Start'
p2985
S'1'
sS'Won'
p2986
S'0'
sS'GfM'
p2987
S'0'
sS'Draw'
p2988
S'0'
sS'Mat'
p2989
S'1'
sS'Conv'
p2990
S'0'
sS'Tries'
p2991
S'0'
sS'Pts'
p2992
S'0'
sa(dp2993
S'Pens'
p2994
S'0'
sS'Sub'
p2995
S'0'
sS'Lost'
p2996
S'6'
sS'Drop'
p2997
S'0'
sS'Start'
p2998
S'21'
p2999
sS'Won'
p3000
S'13'
p3001
sS'GfM'
p3002
S'0'
sS'Draw'
p3003
S'2'
sS'Mat'
p3004
S'21'
p3005
sS'Conv'
p3006
S'0'
sS'Tries'
p3007
S'8'
sS'Pts'
p3008
S'24'
p3009
sa(dp3010
S'Pens'
p3011
S'0'
sS'Sub'
p3012
S'0'
sS'Lost'
p3013
S'1'
sS'Drop'
p3014
S'0'
sS'Start'
p3015
S'6'
sS'Won'
p3016
S'4'
sS'GfM'
p3017
S'0'
sS'Draw'
p3018
S'1'
sS'Mat'
p3019
S'6'
sS'Conv'
p3020
S'0'
sS'Tries'
p3021
S'4'
sS'Pts'
p3022
S'12'
p3023
sa(dp3024
S'Pens'
p3025
S'5'
sS'Sub'
p3026
S'0'
sS'Lost'
p3027
S'2'
sS'Drop'
p3028
S'2'
sS'Start'
p3029
S'7'
sS'Won'
p3030
S'4'
sS'GfM'
p3031
S'0'
sS'Draw'
p3032
S'1'
sS'Mat'
p3033
S'7'
sS'Conv'
p3034
S'6'
sS'Tries'
p3035
S'1'
sS'Pts'
p3036
S'36'
p3037
sa(dp3038
S'Pens'
p3039
S'0'
sS'Sub'
p3040
S'0'
sS'Lost'
p3041
S'10'
p3042
sS'Drop'
p3043
S'1'
sS'Start'
p3044
S'24'
p3045
sS'Won'
p3046
S'12'
p3047
sS'GfM'
p3048
S'0'
sS'Draw'
p3049
S'2'
sS'Mat'
p3050
S'24'
p3051
sS'Conv'
p3052
S'0'
sS'Tries'
p3053
S'11'
p3054
sS'Pts'
p3055
S'43'
p3056
sa(dp3057
S'Pens'
p3058
S'0'
sS'Sub'
p3059
S'0'
sS'Lost'
p3060
S'6'
sS'Drop'
p3061
S'0'
sS'Start'
p3062
S'24'
p3063
sS'Won'
p3064
S'15'
p3065
sS'GfM'
p3066
S'0'
sS'Draw'
p3067
S'3'
sS'Mat'
p3068
S'24'
p3069
sS'Conv'
p3070
S'0'
sS'Tries'
p3071
S'5'
sS'Pts'
p3072
S'16'
p3073
sa(dp3074
S'Pens'
p3075
S'4'
sS'Sub'
p3076
S'1'
sS'Lost'
p3077
S'4'
sS'Drop'
p3078
S'0'
sS'Start'
p3079
S'13'
p3080
sS'Won'
p3081
S'9'
sS'GfM'
p3082
S'0'
sS'Draw'
p3083
S'1'
sS'Mat'
p3084
S'14'
p3085
sS'Conv'
p3086
S'1'
sS'Tries'
p3087
S'5'
sS'Pts'
p3088
S'32'
p3089
sa(dp3090
S'Pens'
p3091
S'0'
sS'Sub'
p3092
S'0'
sS'Lost'
p3093
S'6'
sS'Drop'
p3094
S'0'
sS'Start'
p3095
S'19'
p3096
sS'Won'
p3097
S'12'
p3098
sS'GfM'
p3099
S'0'
sS'Draw'
p3100
S'1'
sS'Mat'
p3101
S'19'
p3102
sS'Conv'
p3103
S'0'
sS'Tries'
p3104
S'2'
sS'Pts'
p3105
S'6'
sa(dp3106
S'Pens'
p3107
S'0'
sS'Sub'
p3108
S'0'
sS'Lost'
p3109
S'0'
sS'Drop'
p3110
S'0'
sS'Start'
p3111
S'1'
sS'Won'
p3112
S'1'
sS'GfM'
p3113
S'0'
sS'Draw'
p3114
S'0'
sS'Mat'
p3115
S'1'
sS'Conv'
p3116
S'0'
sS'Tries'
p3117
S'0'
sS'Pts'
p3118
S'0'
sa(dp3119
S'Pens'
p3120
S'0'
sS'Sub'
p3121
S'0'
sS'Lost'
p3122
S'2'
sS'Drop'
p3123
S'0'
sS'Start'
p3124
S'4'
sS'Won'
p3125
S'2'
sS'GfM'
p3126
S'0'
sS'Draw'
p3127
S'0'
sS'Mat'
p3128
S'4'
sS'Conv'
p3129
S'0'
sS'Tries'
p3130
S'0'
sS'Pts'
p3131
S'0'
sa(dp3132
S'Pens'
p3133
S'0'
sS'Sub'
p3134
S'0'
sS'Lost'
p3135
S'2'
sS'Drop'
p3136
S'0'
sS'Start'
p3137
S'6'
sS'Won'
p3138
S'3'
sS'GfM'
p3139
S'0'
sS'Draw'
p3140
S'1'
sS'Mat'
p3141
S'6'
sS'Conv'
p3142
S'0'
sS'Tries'
p3143
S'1'
sS'Pts'
p3144
S'3'
sa(dp3145
S'Pens'
p3146
S'0'
sS'Sub'
p3147
S'0'
sS'Lost'
p3148
S'2'
sS'Drop'
p3149
S'0'
sS'Start'
p3150
S'2'
sS'Won'
p3151
S'0'
sS'GfM'
p3152
S'0'
sS'Draw'
p3153
S'0'
sS'Mat'
p3154
S'2'
sS'Conv'
p3155
S'0'
sS'Tries'
p3156
S'0'
sS'Pts'
p3157
S'0'
sa(dp3158
S'Pens'
p3159
S'0'
sS'Sub'
p3160
S'0'
sS'Lost'
p3161
S'5'
sS'Drop'
p3162
S'0'
sS'Start'
p3163
S'14'
p3164
sS'Won'
p3165
S'8'
sS'GfM'
p3166
S'0'
sS'Draw'
p3167
S'1'
sS'Mat'
p3168
S'14'
p3169
sS'Conv'
p3170
S'0'
sS'Tries'
p3171
S'0'
sS'Pts'
p3172
S'0'
sa(dp3173
S'Pens'
p3174
S'0'
sS'Sub'
p3175
S'0'
sS'Lost'
p3176
S'0'
sS'Drop'
p3177
S'0'
sS'Start'
p3178
S'2'
sS'Won'
p3179
S'2'
sS'GfM'
p3180
S'0'
sS'Draw'
p3181
S'0'
sS'Mat'
p3182
S'2'
sS'Conv'
p3183
S'0'
sS'Tries'
p3184
S'0'
sS'Pts'
p3185
S'0'
sa(dp3186
S'Pens'
p3187
S'0'
sS'Sub'
p3188
S'0'
sS'Lost'
p3189
S'0'
sS'Drop'
p3190
S'0'
sS'Start'
p3191
S'2'
sS'Won'
p3192
S'2'
sS'GfM'
p3193
S'0'
sS'Draw'
p3194
S'0'
sS'Mat'
p3195
S'2'
sS'Conv'
p3196
S'6'
sS'Tries'
p3197
S'1'
sS'Pts'
p3198
S'15'
p3199
sa(dp3200
S'Pens'
p3201
S'0'
sS'Sub'
p3202
S'0'
sS'Lost'
p3203
S'0'
sS'Drop'
p3204
S'0'
sS'Start'
p3205
S'2'
sS'Won'
p3206
S'2'
sS'GfM'
p3207
S'0'
sS'Draw'
p3208
S'0'
sS'Mat'
p3209
S'2'
sS'Conv'
p3210
S'0'
sS'Tries'
p3211
S'0'
sS'Pts'
p3212
S'0'
sa(dp3213
S'Pens'
p3214
S'0'
sS'Sub'
p3215
S'0'
sS'Lost'
p3216
S'12'
p3217
sS'Drop'
p3218
S'0'
sS'Start'
p3219
S'27'
p3220
sS'Won'
p3221
S'15'
p3222
sS'GfM'
p3223
S'0'
sS'Draw'
p3224
S'0'
sS'Mat'
p3225
S'27'
p3226
sS'Conv'
p3227
S'0'
sS'Tries'
p3228
S'10'
p3229
sS'Pts'
p3230
S'36'
p3231
sa(dp3232
S'Pens'
p3233
S'0'
sS'Sub'
p3234
S'0'
sS'Lost'
p3235
S'3'
sS'Drop'
p3236
S'0'
sS'Start'
p3237
S'17'
p3238
sS'Won'
p3239
S'13'
p3240
sS'GfM'
p3241
S'0'
sS'Draw'
p3242
S'1'
sS'Mat'
p3243
S'17'
p3244
sS'Conv'
p3245
S'0'
sS'Tries'
p3246
S'9'
sS'Pts'
p3247
S'31'
p3248
sa(dp3249
S'Pens'
p3250
S'0'
sS'Sub'
p3251
S'0'
sS'Lost'
p3252
S'3'
sS'Drop'
p3253
S'0'
sS'Start'
p3254
S'11'
p3255
sS'Won'
p3256
S'8'
sS'GfM'
p3257
S'0'
sS'Draw'
p3258
S'0'
sS'Mat'
p3259
S'11'
p3260
sS'Conv'
p3261
S'0'
sS'Tries'
p3262
S'0'
sS'Pts'
p3263
S'0'
sa(dp3264
S'Pens'
p3265
S'0'
sS'Sub'
p3266
S'0'
sS'Lost'
p3267
S'1'
sS'Drop'
p3268
S'0'
sS'Start'
p3269
S'4'
sS'Won'
p3270
S'2'
sS'GfM'
p3271
S'0'
sS'Draw'
p3272
S'1'
sS'Mat'
p3273
S'4'
sS'Conv'
p3274
S'0'
sS'Tries'
p3275
S'0'
sS'Pts'
p3276
S'0'
sa(dp3277
S'Pens'
p3278
S'6'
sS'Sub'
p3279
S'0'
sS'Lost'
p3280
S'0'
sS'Drop'
p3281
S'0'
sS'Start'
p3282
S'4'
sS'Won'
p3283
S'3'
sS'GfM'
p3284
S'0'
sS'Draw'
p3285
S'1'
sS'Mat'
p3286
S'4'
sS'Conv'
p3287
S'11'
p3288
sS'Tries'
p3289
S'0'
sS'Pts'
p3290
S'40'
p3291
sa(dp3292
S'Pens'
p3293
S'0'
sS'Sub'
p3294
S'0'
sS'Lost'
p3295
S'0'
sS'Drop'
p3296
S'0'
sS'Start'
p3297
S'1'
sS'Won'
p3298
S'0'
sS'GfM'
p3299
S'0'
sS'Draw'
p3300
S'1'
sS'Mat'
p3301
S'1'
sS'Conv'
p3302
S'0'
sS'Tries'
p3303
S'0'
sS'Pts'
p3304
S'0'
sa(dp3305
S'Pens'
p3306
S'2'
sS'Sub'
p3307
S'0'
sS'Lost'
p3308
S'1'
sS'Drop'
p3309
S'6'
sS'Start'
p3310
S'7'
sS'Won'
p3311
S'6'
sS'GfM'
p3312
S'0'
sS'Draw'
p3313
S'0'
sS'Mat'
p3314
S'7'
sS'Conv'
p3315
S'2'
sS'Tries'
p3316
S'1'
sS'Pts'
p3317
S'32'
p3318
sa(dp3319
S'Pens'
p3320
S'0'
sS'Sub'
p3321
S'0'
sS'Lost'
p3322
S'5'
sS'Drop'
p3323
S'0'
sS'Start'
p3324
S'18'
p3325
sS'Won'
p3326
S'13'
p3327
sS'GfM'
p3328
S'0'
sS'Draw'
p3329
S'0'
sS'Mat'
p3330
S'18'
p3331
sS'Conv'
p3332
S'0'
sS'Tries'
p3333
S'2'
sS'Pts'
p3334
S'7'
sa(dp3335
S'Pens'
p3336
S'0'
sS'Sub'
p3337
S'0'
sS'Lost'
p3338
S'0'
sS'Drop'
p3339
S'0'
sS'Start'
p3340
S'2'
sS'Won'
p3341
S'2'
sS'GfM'
p3342
S'0'
sS'Draw'
p3343
S'0'
sS'Mat'
p3344
S'2'
sS'Conv'
p3345
S'0'
sS'Tries'
p3346
S'0'
sS'Pts'
p3347
S'0'
sa(dp3348
S'Pens'
p3349
S'0'
sS'Sub'
p3350
S'0'
sS'Lost'
p3351
S'3'
sS'Drop'
p3352
S'0'
sS'Start'
p3353
S'5'
sS'Won'
p3354
S'2'
sS'GfM'
p3355
S'0'
sS'Draw'
p3356
S'0'
sS'Mat'
p3357
S'5'
sS'Conv'
p3358
S'0'
sS'Tries'
p3359
S'1'
sS'Pts'
p3360
S'3'
sa(dp3361
S'Pens'
p3362
S'3'
sS'Sub'
p3363
S'0'
sS'Lost'
p3364
S'0'
sS'Drop'
p3365
S'0'
sS'Start'
p3366
S'5'
sS'Won'
p3367
S'5'
sS'GfM'
p3368
S'0'
sS'Draw'
p3369
S'0'
sS'Mat'
p3370
S'5'
sS'Conv'
p3371
S'8'
sS'Tries'
p3372
S'0'
sS'Pts'
p3373
S'25'
p3374
sa(dp3375
S'Pens'
p3376
S'0'
sS'Sub'
p3377
S'0'
sS'Lost'
p3378
S'0'
sS'Drop'
p3379
S'0'
sS'Start'
p3380
S'4'
sS'Won'
p3381
S'4'
sS'GfM'
p3382
S'0'
sS'Draw'
p3383
S'0'
sS'Mat'
p3384
S'4'
sS'Conv'
p3385
S'0'
sS'Tries'
p3386
S'2'
sS'Pts'
p3387
S'6'
sa(dp3388
S'Pens'
p3389
S'0'
sS'Sub'
p3390
S'0'
sS'Lost'
p3391
S'2'
sS'Drop'
p3392
S'0'
sS'Start'
p3393
S'7'
sS'Won'
p3394
S'5'
sS'GfM'
p3395
S'0'
sS'Draw'
p3396
S'0'
sS'Mat'
p3397
S'7'
sS'Conv'
p3398
S'0'
sS'Tries'
p3399
S'3'
sS'Pts'
p3400
S'9'
sa(dp3401
S'Pens'
p3402
S'0'
sS'Sub'
p3403
S'0'
sS'Lost'
p3404
S'1'
sS'Drop'
p3405
S'0'
sS'Start'
p3406
S'1'
sS'Won'
p3407
S'0'
sS'GfM'
p3408
S'0'
sS'Draw'
p3409
S'0'
sS'Mat'
p3410
S'1'
sS'Conv'
p3411
S'0'
sS'Tries'
p3412
S'0'
sS'Pts'
p3413
S'0'
sa(dp3414
S'Pens'
p3415
S'2'
sS'Sub'
p3416
S'0'
sS'Lost'
p3417
S'1'
sS'Drop'
p3418
S'0'
sS'Start'
p3419
S'1'
sS'Won'
p3420
S'0'
sS'GfM'
p3421
S'0'
sS'Draw'
p3422
S'0'
sS'Mat'
p3423
S'1'
sS'Conv'
p3424
S'0'
sS'Tries'
p3425
S'0'
sS'Pts'
p3426
S'6'
sa(dp3427
S'Pens'
p3428
S'0'
sS'Sub'
p3429
S'1'
sS'Lost'
p3430
S'6'
sS'Drop'
p3431
S'0'
sS'Start'
p3432
S'14'
p3433
sS'Won'
p3434
S'9'
sS'GfM'
p3435
S'0'
sS'Draw'
p3436
S'0'
sS'Mat'
p3437
S'15'
p3438
sS'Conv'
p3439
S'0'
sS'Tries'
p3440
S'5'
sS'Pts'
p3441
S'20'
p3442
sa(dp3443
S'Pens'
p3444
S'0'
sS'Sub'
p3445
S'0'
sS'Lost'
p3446
S'2'
sS'Drop'
p3447
S'0'
sS'Start'
p3448
S'8'
sS'Won'
p3449
S'6'
sS'GfM'
p3450
S'0'
sS'Draw'
p3451
S'0'
sS'Mat'
p3452
S'8'
sS'Conv'
p3453
S'0'
sS'Tries'
p3454
S'0'
sS'Pts'
p3455
S'0'
sa(dp3456
S'Pens'
p3457
S'0'
sS'Sub'
p3458
S'0'
sS'Lost'
p3459
S'11'
p3460
sS'Drop'
p3461
S'0'
sS'Start'
p3462
S'24'
p3463
sS'Won'
p3464
S'12'
p3465
sS'GfM'
p3466
S'0'
sS'Draw'
p3467
S'1'
sS'Mat'
p3468
S'24'
p3469
sS'Conv'
p3470
S'0'
sS'Tries'
p3471
S'1'
sS'Pts'
p3472
S'3'
sa(dp3473
S'Pens'
p3474
S'0'
sS'Sub'
p3475
S'0'
sS'Lost'
p3476
S'0'
sS'Drop'
p3477
S'0'
sS'Start'
p3478
S'3'
sS'Won'
p3479
S'3'
sS'GfM'
p3480
S'0'
sS'Draw'
p3481
S'0'
sS'Mat'
p3482
S'3'
sS'Conv'
p3483
S'0'
sS'Tries'
p3484
S'1'
sS'Pts'
p3485
S'3'
sa(dp3486
S'Pens'
p3487
S'0'
sS'Sub'
p3488
S'1'
sS'Lost'
p3489
S'7'
sS'Drop'
p3490
S'0'
sS'Start'
p3491
S'14'
p3492
sS'Won'
p3493
S'7'
sS'GfM'
p3494
S'0'
sS'Draw'
p3495
S'1'
sS'Mat'
p3496
S'15'
p3497
sS'Conv'
p3498
S'0'
sS'Tries'
p3499
S'2'
sS'Pts'
p3500
S'6'
sa(dp3501
S'Pens'
p3502
S'0'
sS'Sub'
p3503
S'0'
sS'Lost'
p3504
S'2'
sS'Drop'
p3505
S'0'
sS'Start'
p3506
S'9'
sS'Won'
p3507
S'6'
sS'GfM'
p3508
S'0'
sS'Draw'
p3509
S'1'
sS'Mat'
p3510
S'9'
sS'Conv'
p3511
S'0'
sS'Tries'
p3512
S'2'
sS'Pts'
p3513
S'6'
sa(dp3514
S'Pens'
p3515
S'0'
sS'Sub'
p3516
S'0'
sS'Lost'
p3517
S'0'
sS'Drop'
p3518
S'0'
sS'Start'
p3519
S'1'
sS'Won'
p3520
S'1'
sS'GfM'
p3521
S'0'
sS'Draw'
p3522
S'0'
sS'Mat'
p3523
S'1'
sS'Conv'
p3524
S'0'
sS'Tries'
p3525
S'1'
sS'Pts'
p3526
S'3'
sa(dp3527
S'Pens'
p3528
S'0'
sS'Sub'
p3529
S'1'
sS'Lost'
p3530
S'3'
sS'Drop'
p3531
S'0'
sS'Start'
p3532
S'5'
sS'Won'
p3533
S'3'
sS'GfM'
p3534
S'0'
sS'Draw'
p3535
S'0'
sS'Mat'
p3536
S'6'
sS'Conv'
p3537
S'0'
sS'Tries'
p3538
S'1'
sS'Pts'
p3539
S'4'
sa(dp3540
S'Pens'
p3541
S'0'
sS'Sub'
p3542
S'0'
sS'Lost'
p3543
S'8'
sS'Drop'
p3544
S'0'
sS'Start'
p3545
S'19'
p3546
sS'Won'
p3547
S'10'
p3548
sS'GfM'
p3549
S'0'
sS'Draw'
p3550
S'1'
sS'Mat'
p3551
S'19'
p3552
sS'Conv'
p3553
S'0'
sS'Tries'
p3554
S'8'
sS'Pts'
p3555
S'28'
p3556
sa(dp3557
S'Pens'
p3558
S'0'
sS'Sub'
p3559
S'0'
sS'Lost'
p3560
S'0'
sS'Drop'
p3561
S'0'
sS'Start'
p3562
S'3'
sS'Won'
p3563
S'3'
sS'GfM'
p3564
S'0'
sS'Draw'
p3565
S'0'
sS'Mat'
p3566
S'3'
sS'Conv'
p3567
S'0'
sS'Tries'
p3568
S'0'
sS'Pts'
p3569
S'0'
sa(dp3570
S'Pens'
p3571
S'0'
sS'Sub'
p3572
S'0'
sS'Lost'
p3573
S'0'
sS'Drop'
p3574
S'0'
sS'Start'
p3575
S'4'
sS'Won'
p3576
S'4'
sS'GfM'
p3577
S'0'
sS'Draw'
p3578
S'0'
sS'Mat'
p3579
S'4'
sS'Conv'
p3580
S'0'
sS'Tries'
p3581
S'1'
sS'Pts'
p3582
S'3'
sa(dp3583
S'Pens'
p3584
S'0'
sS'Sub'
p3585
S'0'
sS'Lost'
p3586
S'9'
sS'Drop'
p3587
S'0'
sS'Start'
p3588
S'18'
p3589
sS'Won'
p3590
S'8'
sS'GfM'
p3591
S'0'
sS'Draw'
p3592
S'1'
sS'Mat'
p3593
S'18'
p3594
sS'Conv'
p3595
S'0'
sS'Tries'
p3596
S'1'
sS'Pts'
p3597
S'4'
sa(dp3598
S'Pens'
p3599
S'0'
sS'Sub'
p3600
S'0'
sS'Lost'
p3601
S'0'
sS'Drop'
p3602
S'0'
sS'Start'
p3603
S'3'
sS'Won'
p3604
S'3'
sS'GfM'
p3605
S'0'
sS'Draw'
p3606
S'0'
sS'Mat'
p3607
S'3'
sS'Conv'
p3608
S'0'
sS'Tries'
p3609
S'1'
sS'Pts'
p3610
S'3'
sa(dp3611
S'Pens'
p3612
S'0'
sS'Sub'
p3613
S'0'
sS'Lost'
p3614
S'0'
sS'Drop'
p3615
S'0'
sS'Start'
p3616
S'1'
sS'Won'
p3617
S'1'
sS'GfM'
p3618
S'0'
sS'Draw'
p3619
S'0'
sS'Mat'
p3620
S'1'
sS'Conv'
p3621
S'0'
sS'Tries'
p3622
S'2'
sS'Pts'
p3623
S'6'
sa(dp3624
S'Pens'
p3625
S'114'
p3626
sS'Sub'
p3627
S'0'
sS'Lost'
p3628
S'35'
p3629
sS'Drop'
p3630
S'28'
p3631
sS'Start'
p3632
S'66'
p3633
sS'Won'
p3634
S'26'
p3635
sS'GfM'
p3636
S'0'
sS'Draw'
p3637
S'5'
sS'Mat'
p3638
S'66'
p3639
sS'Conv'
p3640
S'90'
p3641
sS'Tries'
p3642
S'12'
p3643
sS'Pts'
p3644
S'651'
p3645
sa(dp3646
S'Pens'
p3647
S'2'
sS'Sub'
p3648
S'0'
sS'Lost'
p3649
S'0'
sS'Drop'
p3650
S'0'
sS'Start'
p3651
S'4'
sS'Won'
p3652
S'4'
sS'GfM'
p3653
S'0'
sS'Draw'
p3654
S'0'
sS'Mat'
p3655
S'4'
sS'Conv'
p3656
S'11'
p3657
sS'Tries'
p3658
S'10'
p3659
sS'Pts'
p3660
S'58'
p3661
sa(dp3662
S'Pens'
p3663
S'0'
sS'Sub'
p3664
S'0'
sS'Lost'
p3665
S'0'
sS'Drop'
p3666
S'0'
sS'Start'
p3667
S'2'
sS'Won'
p3668
S'2'
sS'GfM'
p3669
S'0'
sS'Draw'
p3670
S'0'
sS'Mat'
p3671
S'2'
sS'Conv'
p3672
S'0'
sS'Tries'
p3673
S'1'
sS'Pts'
p3674
S'3'
sa(dp3675
S'Pens'
p3676
S'0'
sS'Sub'
p3677
S'1'
sS'Lost'
p3678
S'3'
sS'Drop'
p3679
S'0'
sS'Start'
p3680
S'4'
sS'Won'
p3681
S'2'
sS'GfM'
p3682
S'0'
sS'Draw'
p3683
S'0'
sS'Mat'
p3684
S'5'
sS'Conv'
p3685
S'0'
sS'Tries'
p3686
S'2'
sS'Pts'
p3687
S'6'
sa(dp3688
S'Pens'
p3689
S'0'
sS'Sub'
p3690
S'0'
sS'Lost'
p3691
S'0'
sS'Drop'
p3692
S'0'
sS'Start'
p3693
S'1'
sS'Won'
p3694
S'1'
sS'GfM'
p3695
S'0'
sS'Draw'
p3696
S'0'
sS'Mat'
p3697
S'1'
sS'Conv'
p3698
S'0'
sS'Tries'
p3699
S'0'
sS'Pts'
p3700
S'0'
sa(dp3701
S'Pens'
p3702
S'0'
sS'Sub'
p3703
S'0'
sS'Lost'
p3704
S'1'
sS'Drop'
p3705
S'0'
sS'Start'
p3706
S'5'
sS'Won'
p3707
S'4'
sS'GfM'
p3708
S'0'
sS'Draw'
p3709
S'0'
sS'Mat'
p3710
S'5'
sS'Conv'
p3711
S'0'
sS'Tries'
p3712
S'1'
sS'Pts'
p3713
S'4'
sa(dp3714
S'Pens'
p3715
S'9'
sS'Sub'
p3716
S'0'
sS'Lost'
p3717
S'5'
sS'Drop'
p3718
S'0'
sS'Start'
p3719
S'12'
p3720
sS'Won'
p3721
S'7'
sS'GfM'
p3722
S'0'
sS'Draw'
p3723
S'0'
sS'Mat'
p3724
S'12'
p3725
sS'Conv'
p3726
S'26'
p3727
sS'Tries'
p3728
S'12'
p3729
sS'Pts'
p3730
S'127'
p3731
sa(dp3732
S'Pens'
p3733
S'0'
sS'Sub'
p3734
S'0'
sS'Lost'
p3735
S'2'
sS'Drop'
p3736
S'0'
sS'Start'
p3737
S'5'
sS'Won'
p3738
S'2'
sS'GfM'
p3739
S'0'
sS'Draw'
p3740
S'1'
sS'Mat'
p3741
S'5'
sS'Conv'
p3742
S'0'
sS'Tries'
p3743
S'1'
sS'Pts'
p3744
S'4'
sa(dp3745
S'Pens'
p3746
S'0'
sS'Sub'
p3747
S'1'
sS'Lost'
p3748
S'4'
sS'Drop'
p3749
S'0'
sS'Start'
p3750
S'9'
sS'Won'
p3751
S'5'
sS'GfM'
p3752
S'0'
sS'Draw'
p3753
S'1'
sS'Mat'
p3754
S'10'
p3755
sS'Conv'
p3756
S'0'
sS'Tries'
p3757
S'0'
sS'Pts'
p3758
S'0'
sa(dp3759
S'Pens'
p3760
S'0'
sS'Sub'
p3761
S'0'
sS'Lost'
p3762
S'1'
sS'Drop'
p3763
S'0'
sS'Start'
p3764
S'5'
sS'Won'
p3765
S'4'
sS'GfM'
p3766
S'0'
sS'Draw'
p3767
S'0'
sS'Mat'
p3768
S'5'
sS'Conv'
p3769
S'0'
sS'Tries'
p3770
S'1'
sS'Pts'
p3771
S'4'
sa(dp3772
S'Pens'
p3773
S'0'
sS'Sub'
p3774
S'0'
sS'Lost'
p3775
S'1'
sS'Drop'
p3776
S'0'
sS'Start'
p3777
S'6'
sS'Won'
p3778
S'5'
sS'GfM'
p3779
S'0'
sS'Draw'
p3780
S'0'
sS'Mat'
p3781
S'6'
sS'Conv'
p3782
S'0'
sS'Tries'
p3783
S'1'
sS'Pts'
p3784
S'4'
sa(dp3785
S'Pens'
p3786
S'0'
sS'Sub'
p3787
S'0'
sS'Lost'
p3788
S'2'
sS'Drop'
p3789
S'0'
sS'Start'
p3790
S'3'
sS'Won'
p3791
S'1'
sS'GfM'
p3792
S'0'
sS'Draw'
p3793
S'0'
sS'Mat'
p3794
S'3'
sS'Conv'
p3795
S'0'
sS'Tries'
p3796
S'0'
sS'Pts'
p3797
S'0'
sa(dp3798
S'Pens'
p3799
S'0'
sS'Sub'
p3800
S'0'
sS'Lost'
p3801
S'5'
sS'Drop'
p3802
S'0'
sS'Start'
p3803
S'15'
p3804
sS'Won'
p3805
S'10'
p3806
sS'GfM'
p3807
S'0'
sS'Draw'
p3808
S'0'
sS'Mat'
p3809
S'15'
p3810
sS'Conv'
p3811
S'0'
sS'Tries'
p3812
S'1'
sS'Pts'
p3813
S'4'
sa(dp3814
S'Pens'
p3815
S'0'
sS'Sub'
p3816
S'0'
sS'Lost'
p3817
S'1'
sS'Drop'
p3818
S'0'
sS'Start'
p3819
S'3'
sS'Won'
p3820
S'2'
sS'GfM'
p3821
S'0'
sS'Draw'
p3822
S'0'
sS'Mat'
p3823
S'3'
sS'Conv'
p3824
S'0'
sS'Tries'
p3825
S'2'
sS'Pts'
p3826
S'8'
sa(dp3827
S'Pens'
p3828
S'0'
sS'Sub'
p3829
S'1'
sS'Lost'
p3830
S'0'
sS'Drop'
p3831
S'0'
sS'Start'
p3832
S'4'
sS'Won'
p3833
S'5'
sS'GfM'
p3834
S'0'
sS'Draw'
p3835
S'0'
sS'Mat'
p3836
S'5'
sS'Conv'
p3837
S'0'
sS'Tries'
p3838
S'1'
sS'Pts'
p3839
S'4'
sa(dp3840
S'Pens'
p3841
S'0'
sS'Sub'
p3842
S'0'
sS'Lost'
p3843
S'2'
sS'Drop'
p3844
S'0'
sS'Start'
p3845
S'7'
sS'Won'
p3846
S'4'
sS'GfM'
p3847
S'0'
sS'Draw'
p3848
S'1'
sS'Mat'
p3849
S'7'
sS'Conv'
p3850
S'0'
sS'Tries'
p3851
S'6'
sS'Pts'
p3852
S'24'
p3853
sa(dp3854
S'Pens'
p3855
S'0'
sS'Sub'
p3856
S'0'
sS'Lost'
p3857
S'1'
sS'Drop'
p3858
S'0'
sS'Start'
p3859
S'2'
sS'Won'
p3860
S'1'
sS'GfM'
p3861
S'0'
sS'Draw'
p3862
S'0'
sS'Mat'
p3863
S'2'
sS'Conv'
p3864
S'0'
sS'Tries'
p3865
S'4'
sS'Pts'
p3866
S'16'
p3867
sa(dp3868
S'Pens'
p3869
S'0'
sS'Sub'
p3870
S'0'
sS'Lost'
p3871
S'3'
sS'Drop'
p3872
S'0'
sS'Start'
p3873
S'3'
sS'Won'
p3874
S'0'
sS'GfM'
p3875
S'0'
sS'Draw'
p3876
S'0'
sS'Mat'
p3877
S'3'
sS'Conv'
p3878
S'0'
sS'Tries'
p3879
S'0'
sS'Pts'
p3880
S'0'
sa(dp3881
S'Pens'
p3882
S'0'
sS'Sub'
p3883
S'0'
sS'Lost'
p3884
S'2'
sS'Drop'
p3885
S'0'
sS'Start'
p3886
S'2'
sS'Won'
p3887
S'0'
sS'GfM'
p3888
S'0'
sS'Draw'
p3889
S'0'
sS'Mat'
p3890
S'2'
sS'Conv'
p3891
S'0'
sS'Tries'
p3892
S'0'
sS'Pts'
p3893
S'0'
sa(dp3894
S'Pens'
p3895
S'0'
sS'Sub'
p3896
S'0'
sS'Lost'
p3897
S'2'
sS'Drop'
p3898
S'0'
sS'Start'
p3899
S'2'
sS'Won'
p3900
S'0'
sS'GfM'
p3901
S'0'
sS'Draw'
p3902
S'0'
sS'Mat'
p3903
S'2'
sS'Conv'
p3904
S'0'
sS'Tries'
p3905
S'0'
sS'Pts'
p3906
S'0'
sa(dp3907
S'Pens'
p3908
S'0'
sS'Sub'
p3909
S'0'
sS'Lost'
p3910
S'1'
sS'Drop'
p3911
S'0'
sS'Start'
p3912
S'9'
sS'Won'
p3913
S'8'
sS'GfM'
p3914
S'0'
sS'Draw'
p3915
S'0'
sS'Mat'
p3916
S'9'
sS'Conv'
p3917
S'0'
sS'Tries'
p3918
S'14'
p3919
sS'Pts'
p3920
S'56'
p3921
sa(dp3922
S'Pens'
p3923
S'0'
sS'Sub'
p3924
S'0'
sS'Lost'
p3925
S'0'
sS'Drop'
p3926
S'0'
sS'Start'
p3927
S'4'
sS'Won'
p3928
S'4'
sS'GfM'
p3929
S'0'
sS'Draw'
p3930
S'0'
sS'Mat'
p3931
S'4'
sS'Conv'
p3932
S'0'
sS'Tries'
p3933
S'4'
sS'Pts'
p3934
S'16'
p3935
sa(dp3936
S'Pens'
p3937
S'0'
sS'Sub'
p3938
S'0'
sS'Lost'
p3939
S'0'
sS'Drop'
p3940
S'0'
sS'Start'
p3941
S'2'
sS'Won'
p3942
S'2'
sS'GfM'
p3943
S'0'
sS'Draw'
p3944
S'0'
sS'Mat'
p3945
S'2'
sS'Conv'
p3946
S'0'
sS'Tries'
p3947
S'1'
sS'Pts'
p3948
S'4'
sa(dp3949
S'Pens'
p3950
S'0'
sS'Sub'
p3951
S'0'
sS'Lost'
p3952
S'0'
sS'Drop'
p3953
S'0'
sS'Start'
p3954
S'2'
sS'Won'
p3955
S'2'
sS'GfM'
p3956
S'0'
sS'Draw'
p3957
S'0'
sS'Mat'
p3958
S'2'
sS'Conv'
p3959
S'0'
sS'Tries'
p3960
S'0'
sS'Pts'
p3961
S'0'
sa(dp3962
S'Pens'
p3963
S'0'
sS'Sub'
p3964
S'0'
sS'Lost'
p3965
S'0'
sS'Drop'
p3966
S'0'
sS'Start'
p3967
S'6'
sS'Won'
p3968
S'6'
sS'GfM'
p3969
S'0'
sS'Draw'
p3970
S'0'
sS'Mat'
p3971
S'6'
sS'Conv'
p3972
S'0'
sS'Tries'
p3973
S'3'
sS'Pts'
p3974
S'12'
p3975
sa(dp3976
S'Pens'
p3977
S'0'
sS'Sub'
p3978
S'0'
sS'Lost'
p3979
S'0'
sS'Drop'
p3980
S'0'
sS'Start'
p3981
S'4'
sS'Won'
p3982
S'4'
sS'GfM'
p3983
S'0'
sS'Draw'
p3984
S'0'
sS'Mat'
p3985
S'4'
sS'Conv'
p3986
S'0'
sS'Tries'
p3987
S'1'
sS'Pts'
p3988
S'4'
sa(dp3989
S'Pens'
p3990
S'0'
sS'Sub'
p3991
S'0'
sS'Lost'
p3992
S'1'
sS'Drop'
p3993
S'2'
sS'Start'
p3994
S'7'
sS'Won'
p3995
S'6'
sS'GfM'
p3996
S'0'
sS'Draw'
p3997
S'0'
sS'Mat'
p3998
S'7'
sS'Conv'
p3999
S'1'
sS'Tries'
p4000
S'2'
sS'Pts'
p4001
S'16'
p4002
sa(dp4003
S'Pens'
p4004
S'0'
sS'Sub'
p4005
S'0'
sS'Lost'
p4006
S'17'
p4007
sS'Drop'
p4008
S'0'
sS'Start'
p4009
S'38'
p4010
sS'Won'
p4011
S'18'
p4012
sS'GfM'
p4013
S'0'
sS'Draw'
p4014
S'3'
sS'Mat'
p4015
S'38'
p4016
sS'Conv'
p4017
S'0'
sS'Tries'
p4018
S'3'
sS'Pts'
p4019
S'12'
p4020
sa(dp4021
S'Pens'
p4022
S'0'
sS'Sub'
p4023
S'0'
sS'Lost'
p4024
S'6'
sS'Drop'
p4025
S'3'
sS'Start'
p4026
S'18'
p4027
sS'Won'
p4028
S'9'
sS'GfM'
p4029
S'0'
sS'Draw'
p4030
S'3'
sS'Mat'
p4031
S'18'
p4032
sS'Conv'
p4033
S'0'
sS'Tries'
p4034
S'1'
sS'Pts'
p4035
S'13'
p4036
sa(dp4037
S'Pens'
p4038
S'0'
sS'Sub'
p4039
S'0'
sS'Lost'
p4040
S'0'
sS'Drop'
p4041
S'0'
sS'Start'
p4042
S'5'
sS'Won'
p4043
S'5'
sS'GfM'
p4044
S'0'
sS'Draw'
p4045
S'0'
sS'Mat'
p4046
S'5'
sS'Conv'
p4047
S'0'
sS'Tries'
p4048
S'2'
sS'Pts'
p4049
S'8'
sa(dp4050
S'Pens'
p4051
S'0'
sS'Sub'
p4052
S'1'
sS'Lost'
p4053
S'0'
sS'Drop'
p4054
S'0'
sS'Start'
p4055
S'2'
sS'Won'
p4056
S'3'
sS'GfM'
p4057
S'0'
sS'Draw'
p4058
S'0'
sS'Mat'
p4059
S'3'
sS'Conv'
p4060
S'0'
sS'Tries'
p4061
S'2'
sS'Pts'
p4062
S'8'
sa(dp4063
S'Pens'
p4064
S'0'
sS'Sub'
p4065
S'0'
sS'Lost'
p4066
S'0'
sS'Drop'
p4067
S'0'
sS'Start'
p4068
S'3'
sS'Won'
p4069
S'3'
sS'GfM'
p4070
S'0'
sS'Draw'
p4071
S'0'
sS'Mat'
p4072
S'3'
sS'Conv'
p4073
S'0'
sS'Tries'
p4074
S'0'
sS'Pts'
p4075
S'0'
sa(dp4076
S'Pens'
p4077
S'5'
sS'Sub'
p4078
S'1'
sS'Lost'
p4079
S'3'
sS'Drop'
p4080
S'1'
sS'Start'
p4081
S'8'
sS'Won'
p4082
S'6'
sS'GfM'
p4083
S'0'
sS'Draw'
p4084
S'0'
sS'Mat'
p4085
S'9'
sS'Conv'
p4086
S'3'
sS'Tries'
p4087
S'3'
sS'Pts'
p4088
S'36'
p4089
sa(dp4090
S'Pens'
p4091
S'0'
sS'Sub'
p4092
S'0'
sS'Lost'
p4093
S'1'
sS'Drop'
p4094
S'0'
sS'Start'
p4095
S'12'
p4096
sS'Won'
p4097
S'11'
p4098
sS'GfM'
p4099
S'0'
sS'Draw'
p4100
S'0'
sS'Mat'
p4101
S'12'
p4102
sS'Conv'
p4103
S'0'
sS'Tries'
p4104
S'6'
sS'Pts'
p4105
S'24'
p4106
sa(dp4107
S'Pens'
p4108
S'0'
sS'Sub'
p4109
S'1'
sS'Lost'
p4110
S'1'
sS'Drop'
p4111
S'0'
sS'Start'
p4112
S'3'
sS'Won'
p4113
S'3'
sS'GfM'
p4114
S'0'
sS'Draw'
p4115
S'0'
sS'Mat'
p4116
S'4'
sS'Conv'
p4117
S'0'
sS'Tries'
p4118
S'0'
sS'Pts'
p4119
S'0'
sa(dp4120
S'Pens'
p4121
S'0'
sS'Sub'
p4122
S'1'
sS'Lost'
p4123
S'0'
sS'Drop'
p4124
S'0'
sS'Start'
p4125
S'2'
sS'Won'
p4126
S'3'
sS'GfM'
p4127
S'0'
sS'Draw'
p4128
S'0'
sS'Mat'
p4129
S'3'
sS'Conv'
p4130
S'0'
sS'Tries'
p4131
S'0'
sS'Pts'
p4132
S'0'
sa(dp4133
S'Pens'
p4134
S'0'
sS'Sub'
p4135
S'0'
sS'Lost'
p4136
S'0'
sS'Drop'
p4137
S'0'
sS'Start'
p4138
S'3'
sS'Won'
p4139
S'3'
sS'GfM'
p4140
S'0'
sS'Draw'
p4141
S'0'
sS'Mat'
p4142
S'3'
sS'Conv'
p4143
S'0'
sS'Tries'
p4144
S'2'
sS'Pts'
p4145
S'8'
sa(dp4146
S'Pens'
p4147
S'4'
sS'Sub'
p4148
S'0'
sS'Lost'
p4149
S'0'
sS'Drop'
p4150
S'2'
sS'Start'
p4151
S'3'
sS'Won'
p4152
S'3'
sS'GfM'
p4153
S'0'
sS'Draw'
p4154
S'0'
sS'Mat'
p4155
S'3'
sS'Conv'
p4156
S'20'
p4157
sS'Tries'
p4158
S'2'
sS'Pts'
p4159
S'66'
p4160
sa(dp4161
S'Pens'
p4162
S'0'
sS'Sub'
p4163
S'1'
sS'Lost'
p4164
S'3'
sS'Drop'
p4165
S'0'
sS'Start'
p4166
S'12'
p4167
sS'Won'
p4168
S'10'
p4169
sS'GfM'
p4170
S'0'
sS'Draw'
p4171
S'0'
sS'Mat'
p4172
S'13'
p4173
sS'Conv'
p4174
S'0'
sS'Tries'
p4175
S'5'
sS'Pts'
p4176
S'20'
p4177
sa(dp4178
S'Pens'
p4179
S'0'
sS'Sub'
p4180
S'0'
sS'Lost'
p4181
S'0'
sS'Drop'
p4182
S'0'
sS'Start'
p4183
S'3'
sS'Won'
p4184
S'3'
sS'GfM'
p4185
S'0'
sS'Draw'
p4186
S'0'
sS'Mat'
p4187
S'3'
sS'Conv'
p4188
S'0'
sS'Tries'
p4189
S'2'
sS'Pts'
p4190
S'8'
sa(dp4191
S'Pens'
p4192
S'0'
sS'Sub'
p4193
S'0'
sS'Lost'
p4194
S'0'
sS'Drop'
p4195
S'0'
sS'Start'
p4196
S'1'
sS'Won'
p4197
S'1'
sS'GfM'
p4198
S'0'
sS'Draw'
p4199
S'0'
sS'Mat'
p4200
S'1'
sS'Conv'
p4201
S'0'
sS'Tries'
p4202
S'1'
sS'Pts'
p4203
S'4'
sa(dp4204
S'Pens'
p4205
S'4'
sS'Sub'
p4206
S'0'
sS'Lost'
p4207
S'0'
sS'Drop'
p4208
S'0'
sS'Start'
p4209
S'4'
sS'Won'
p4210
S'4'
sS'GfM'
p4211
S'0'
sS'Draw'
p4212
S'0'
sS'Mat'
p4213
S'4'
sS'Conv'
p4214
S'13'
p4215
sS'Tries'
p4216
S'1'
sS'Pts'
p4217
S'42'
p4218
sa(dp4219
S'Pens'
p4220
S'0'
sS'Sub'
p4221
S'0'
sS'Lost'
p4222
S'5'
sS'Drop'
p4223
S'0'
sS'Start'
p4224
S'6'
sS'Won'
p4225
S'0'
sS'GfM'
p4226
S'0'
sS'Draw'
p4227
S'1'
sS'Mat'
p4228
S'6'
sS'Conv'
p4229
S'0'
sS'Tries'
p4230
S'0'
sS'Pts'
p4231
S'0'
sa(dp4232
S'Pens'
p4233
S'0'
sS'Sub'
p4234
S'0'
sS'Lost'
p4235
S'6'
sS'Drop'
p4236
S'0'
sS'Start'
p4237
S'8'
sS'Won'
p4238
S'1'
sS'GfM'
p4239
S'0'
sS'Draw'
p4240
S'1'
sS'Mat'
p4241
S'8'
sS'Conv'
p4242
S'0'
sS'Tries'
p4243
S'2'
sS'Pts'
p4244
S'8'
sa(dp4245
S'Pens'
p4246
S'0'
sS'Sub'
p4247
S'1'
sS'Lost'
p4248
S'5'
sS'Drop'
p4249
S'0'
sS'Start'
p4250
S'10'
p4251
sS'Won'
p4252
S'5'
sS'GfM'
p4253
S'0'
sS'Draw'
p4254
S'1'
sS'Mat'
p4255
S'11'
p4256
sS'Conv'
p4257
S'0'
sS'Tries'
p4258
S'2'
sS'Pts'
p4259
S'8'
sa(dp4260
S'Pens'
p4261
S'0'
sS'Sub'
p4262
S'0'
sS'Lost'
p4263
S'5'
sS'Drop'
p4264
S'0'
sS'Start'
p4265
S'6'
sS'Won'
p4266
S'1'
sS'GfM'
p4267
S'0'
sS'Draw'
p4268
S'0'
sS'Mat'
p4269
S'6'
sS'Conv'
p4270
S'0'
sS'Tries'
p4271
S'0'
sS'Pts'
p4272
S'0'
sa(dp4273
S'Pens'
p4274
S'7'
sS'Sub'
p4275
S'1'
sS'Lost'
p4276
S'11'
p4277
sS'Drop'
p4278
S'0'
sS'Start'
p4279
S'17'
p4280
sS'Won'
p4281
S'6'
sS'GfM'
p4282
S'0'
sS'Draw'
p4283
S'1'
sS'Mat'
p4284
S'18'
p4285
sS'Conv'
p4286
S'7'
sS'Tries'
p4287
S'7'
sS'Pts'
p4288
S'63'
p4289
sa(dp4290
S'Pens'
p4291
S'0'
sS'Sub'
p4292
S'0'
sS'Lost'
p4293
S'1'
sS'Drop'
p4294
S'0'
sS'Start'
p4295
S'1'
sS'Won'
p4296
S'0'
sS'GfM'
p4297
S'0'
sS'Draw'
p4298
S'0'
sS'Mat'
p4299
S'1'
sS'Conv'
p4300
S'0'
sS'Tries'
p4301
S'0'
sS'Pts'
p4302
S'0'
sa(dp4303
S'Pens'
p4304
S'0'
sS'Sub'
p4305
S'0'
sS'Lost'
p4306
S'2'
sS'Drop'
p4307
S'0'
sS'Start'
p4308
S'5'
sS'Won'
p4309
S'2'
sS'GfM'
p4310
S'0'
sS'Draw'
p4311
S'1'
sS'Mat'
p4312
S'5'
sS'Conv'
p4313
S'0'
sS'Tries'
p4314
S'2'
sS'Pts'
p4315
S'8'
sa(dp4316
S'Pens'
p4317
S'8'
sS'Sub'
p4318
S'0'
sS'Lost'
p4319
S'4'
sS'Drop'
p4320
S'0'
sS'Start'
p4321
S'7'
sS'Won'
p4322
S'2'
sS'GfM'
p4323
S'0'
sS'Draw'
p4324
S'1'
sS'Mat'
p4325
S'7'
sS'Conv'
p4326
S'1'
sS'Tries'
p4327
S'1'
sS'Pts'
p4328
S'30'
p4329
sa(dp4330
S'Pens'
p4331
S'0'
sS'Sub'
p4332
S'0'
sS'Lost'
p4333
S'17'
p4334
sS'Drop'
p4335
S'0'
sS'Start'
p4336
S'40'
p4337
sS'Won'
p4338
S'19'
p4339
sS'GfM'
p4340
S'0'
sS'Draw'
p4341
S'4'
sS'Mat'
p4342
S'40'
p4343
sS'Conv'
p4344
S'0'
sS'Tries'
p4345
S'5'
sS'Pts'
p4346
S'20'
p4347
sa(dp4348
S'Pens'
p4349
S'0'
sS'Sub'
p4350
S'1'
sS'Lost'
p4351
S'10'
p4352
sS'Drop'
p4353
S'0'
sS'Start'
p4354
S'16'
p4355
sS'Won'
p4356
S'4'
sS'GfM'
p4357
S'0'
sS'Draw'
p4358
S'3'
sS'Mat'
p4359
S'17'
p4360
sS'Conv'
p4361
S'0'
sS'Tries'
p4362
S'5'
sS'Pts'
p4363
S'20'
p4364
sa(dp4365
S'Pens'
p4366
S'0'
sS'Sub'
p4367
S'0'
sS'Lost'
p4368
S'1'
sS'Drop'
p4369
S'0'
sS'Start'
p4370
S'1'
sS'Won'
p4371
S'0'
sS'GfM'
p4372
S'0'
sS'Draw'
p4373
S'0'
sS'Mat'
p4374
S'1'
sS'Conv'
p4375
S'0'
sS'Tries'
p4376
S'0'
sS'Pts'
p4377
S'0'
sa(dp4378
S'Pens'
p4379
S'0'
sS'Sub'
p4380
S'0'
sS'Lost'
p4381
S'1'
sS'Drop'
p4382
S'0'
sS'Start'
p4383
S'2'
sS'Won'
p4384
S'0'
sS'GfM'
p4385
S'0'
sS'Draw'
p4386
S'1'
sS'Mat'
p4387
S'2'
sS'Conv'
p4388
S'0'
sS'Tries'
p4389
S'0'
sS'Pts'
p4390
S'0'
sa(dp4391
S'Pens'
p4392
S'0'
sS'Sub'
p4393
S'2'
sS'Lost'
p4394
S'1'
sS'Drop'
p4395
S'0'
sS'Start'
p4396
S'4'
sS'Won'
p4397
S'4'
sS'GfM'
p4398
S'0'
sS'Draw'
p4399
S'1'
sS'Mat'
p4400
S'6'
sS'Conv'
p4401
S'0'
sS'Tries'
p4402
S'0'
sS'Pts'
p4403
S'0'
sa(dp4404
S'Pens'
p4405
S'0'
sS'Sub'
p4406
S'0'
sS'Lost'
p4407
S'0'
sS'Drop'
p4408
S'0'
sS'Start'
p4409
S'4'
sS'Won'
p4410
S'4'
sS'Draw'
p4411
S'0'
sS'%'
S'100.00'
p4412
sS'Mat'
p4413
S'4'
sS'Conv'
p4414
S'0'
sS'Tries'
p4415
S'3'
sS'Pts'
p4416
S'12'
p4417
sa(dp4418
S'Pens'
p4419
S'0'
sS'Sub'
p4420
S'0'
sS'Lost'
p4421
S'9'
sS'Drop'
p4422
S'0'
sS'Start'
p4423
S'21'
p4424
sS'Won'
p4425
S'10'
p4426
sS'Draw'
p4427
S'2'
sS'%'
S'52.38'
p4428
sS'Mat'
p4429
S'21'
p4430
sS'Conv'
p4431
S'0'
sS'Tries'
p4432
S'4'
sS'Pts'
p4433
S'16'
p4434
sa(dp4435
S'Pens'
p4436
S'0'
sS'Sub'
p4437
S'0'
sS'Lost'
p4438
S'0'
sS'Drop'
p4439
S'0'
sS'Start'
p4440
S'6'
sS'Won'
p4441
S'6'
sS'Draw'
p4442
S'0'
sS'%'
S'100.00'
p4443
sS'Mat'
p4444
S'6'
sS'Conv'
p4445
S'0'
sS'Tries'
p4446
S'10'
p4447
sS'Pts'
p4448
S'40'
p4449
sa(dp4450
S'Pens'
p4451
S'0'
sS'Sub'
p4452
S'0'
sS'Lost'
p4453
S'0'
sS'Drop'
p4454
S'0'
sS'Start'
p4455
S'7'
sS'Won'
p4456
S'7'
sS'Draw'
p4457
S'0'
sS'%'
S'100.00'
p4458
sS'Mat'
p4459
S'7'
sS'Conv'
p4460
S'0'
sS'Tries'
p4461
S'14'
p4462
sS'Pts'
p4463
S'56'
p4464
sa(dp4465
S'Pens'
p4466
S'0'
sS'Sub'
p4467
S'0'
sS'Lost'
p4468
S'1'
sS'Drop'
p4469
S'0'
sS'Start'
p4470
S'5'
sS'Won'
p4471
S'3'
sS'Draw'
p4472
S'1'
sS'%'
S'70.00'
p4473
sS'Mat'
p4474
S'5'
sS'Conv'
p4475
S'0'
sS'Tries'
p4476
S'2'
sS'Pts'
p4477
S'8'
sa(dp4478
S'Pens'
p4479
S'0'
sS'Sub'
p4480
S'0'
sS'Lost'
p4481
S'0'
sS'Drop'
p4482
S'0'
sS'Start'
p4483
S'4'
sS'Won'
p4484
S'4'
sS'Draw'
p4485
S'0'
sS'%'
S'100.00'
p4486
sS'Mat'
p4487
S'4'
sS'Conv'
p4488
S'0'
sS'Tries'
p4489
S'2'
sS'Pts'
p4490
S'8'
sa(dp4491
S'Pens'
p4492
S'0'
sS'Sub'
p4493
S'1'
sS'Lost'
p4494
S'0'
sS'Drop'
p4495
S'0'
sS'Start'
p4496
S'3'
sS'Won'
p4497
S'4'
sS'Draw'
p4498
S'0'
sS'%'
S'100.00'
p4499
sS'Mat'
p4500
S'4'
sS'Conv'
p4501
S'0'
sS'Tries'
p4502
S'1'
sS'Pts'
p4503
S'4'
sa(dp4504
S'Pens'
p4505
S'0'
sS'Sub'
p4506
S'0'
sS'Lost'
p4507
S'0'
sS'Drop'
p4508
S'0'
sS'Start'
p4509
S'1'
sS'Won'
p4510
S'1'
sS'Draw'
p4511
S'0'
sS'%'
S'100.00'
p4512
sS'Mat'
p4513
S'1'
sS'Conv'
p4514
S'0'
sS'Tries'
p4515
S'1'
sS'Pts'
p4516
S'4'
sa(dp4517
S'Pens'
p4518
S'3'
sS'Sub'
p4519
S'0'
sS'Lost'
p4520
S'0'
sS'Drop'
p4521
S'0'
sS'Start'
p4522
S'1'
sS'Won'
p4523
S'1'
sS'Draw'
p4524
S'0'
sS'%'
S'100.00'
p4525
sS'Mat'
p4526
S'1'
sS'Conv'
p4527
S'10'
p4528
sS'Tries'
p4529
S'0'
sS'Pts'
p4530
S'29'
p4531
sa(dp4532
S'Pens'
p4533
S'0'
sS'Sub'
p4534
S'0'
sS'Lost'
p4535
S'0'
sS'Drop'
p4536
S'0'
sS'Start'
p4537
S'1'
sS'Won'
p4538
S'1'
sS'Draw'
p4539
S'0'
sS'%'
S'100.00'
p4540
sS'Mat'
p4541
S'1'
sS'Conv'
p4542
S'0'
sS'Tries'
p4543
S'0'
sS'Pts'
p4544
S'0'
sa(dp4545
S'Pens'
p4546
S'0'
sS'Sub'
p4547
S'0'
sS'Lost'
p4548
S'0'
sS'Drop'
p4549
S'0'
sS'Start'
p4550
S'2'
sS'Won'
p4551
S'2'
sS'Draw'
p4552
S'0'
sS'%'
S'100.00'
p4553
sS'Mat'
p4554
S'2'
sS'Conv'
p4555
S'0'
sS'Tries'
p4556
S'0'
sS'Pts'
p4557
S'0'
sa(dp4558
S'Pens'
p4559
S'0'
sS'Sub'
p4560
S'0'
sS'Lost'
p4561
S'16'
p4562
sS'Drop'
p4563
S'0'
sS'Start'
p4564
S'26'
p4565
sS'Won'
p4566
S'8'
sS'Draw'
p4567
S'2'
sS'%'
S'34.61'
p4568
sS'Mat'
p4569
S'26'
p4570
sS'Conv'
p4571
S'0'
sS'Tries'
p4572
S'9'
sS'Pts'
p4573
S'36'
p4574
sa(dp4575
S'Pens'
p4576
S'2'
sS'Sub'
p4577
S'0'
sS'Lost'
p4578
S'18'
p4579
sS'Drop'
p4580
S'0'
sS'Start'
p4581
S'50'
p4582
sS'Won'
p4583
S'29'
p4584
sS'Draw'
p4585
S'3'
sS'%'
S'61.00'
p4586
sS'Mat'
p4587
S'50'
p4588
sS'Conv'
p4589
S'3'
sS'Tries'
p4590
S'11'
p4591
sS'Pts'
p4592
S'57'
p4593
sa(dp4594
S'Pens'
p4595
S'0'
sS'Sub'
p4596
S'3'
sS'Lost'
p4597
S'20'
p4598
sS'Drop'
p4599
S'2'
sS'Start'
p4600
S'41'
p4601
sS'Won'
p4602
S'20'
p4603
sS'Draw'
p4604
S'4'
sS'%'
S'50.00'
p4605
sS'Mat'
p4606
S'44'
p4607
sS'Conv'
p4608
S'0'
sS'Tries'
p4609
S'9'
sS'Pts'
p4610
S'42'
p4611
sa(dp4612
S'Pens'
p4613
S'0'
sS'Sub'
p4614
S'0'
sS'Lost'
p4615
S'16'
p4616
sS'Drop'
p4617
S'0'
sS'Start'
p4618
S'30'
p4619
sS'Won'
p4620
S'11'
p4621
sS'Draw'
p4622
S'3'
sS'%'
S'41.66'
p4623
sS'Mat'
p4624
S'30'
p4625
sS'Conv'
p4626
S'0'
sS'Tries'
p4627
S'4'
sS'Pts'
p4628
S'16'
p4629
sa(dp4630
S'Pens'
p4631
S'0'
sS'Sub'
p4632
S'1'
sS'Lost'
p4633
S'13'
p4634
sS'Drop'
p4635
S'0'
sS'Start'
p4636
S'22'
p4637
sS'Won'
p4638
S'8'
sS'Draw'
p4639
S'2'
sS'%'
S'39.13'
p4640
sS'Mat'
p4641
S'23'
p4642
sS'Conv'
p4643
S'0'
sS'Tries'
p4644
S'8'
sS'Pts'
p4645
S'32'
p4646
sa(dp4647
S'Pens'
p4648
S'0'
sS'Sub'
p4649
S'1'
sS'Lost'
p4650
S'3'
sS'Drop'
p4651
S'0'
sS'Start'
p4652
S'6'
sS'Won'
p4653
S'4'
sS'Draw'
p4654
S'0'
sS'%'
S'57.14'
p4655
sS'Mat'
p4656
S'7'
sS'Conv'
p4657
S'0'
sS'Tries'
p4658
S'0'
sS'Pts'
p4659
S'0'
sa(dp4660
S'Pens'
p4661
S'0'
sS'Sub'
p4662
S'0'
sS'Lost'
p4663
S'7'
sS'Drop'
p4664
S'0'
sS'Start'
p4665
S'15'
p4666
sS'Won'
p4667
S'7'
sS'Draw'
p4668
S'1'
sS'%'
S'50.00'
p4669
sS'Mat'
p4670
S'15'
p4671
sS'Conv'
p4672
S'0'
sS'Tries'
p4673
S'0'
sS'Pts'
p4674
S'0'
sa(dp4675
S'Pens'
p4676
S'0'
sS'Sub'
p4677
S'0'
sS'Lost'
p4678
S'3'
sS'Drop'
p4679
S'0'
sS'Start'
p4680
S'4'
sS'Won'
p4681
S'1'
sS'Draw'
p4682
S'0'
sS'%'
S'25.00'
p4683
sS'Mat'
p4684
S'4'
sS'Conv'
p4685
S'0'
sS'Tries'
p4686
S'0'
sS'Pts'
p4687
S'0'
sa(dp4688
S'Pens'
p4689
S'0'
sS'Sub'
p4690
S'0'
sS'Lost'
p4691
S'3'
sS'Drop'
p4692
S'0'
sS'Start'
p4693
S'6'
sS'Won'
p4694
S'2'
sS'Draw'
p4695
S'1'
sS'%'
S'41.66'
p4696
sS'Mat'
p4697
S'6'
sS'Conv'
p4698
S'0'
sS'Tries'
p4699
S'1'
sS'Pts'
p4700
S'4'
sa(dp4701
S'Pens'
p4702
S'0'
sS'Sub'
p4703
S'2'
sS'Lost'
p4704
S'16'
p4705
sS'Drop'
p4706
S'0'
sS'Start'
p4707
S'41'
p4708
sS'Won'
p4709
S'25'
p4710
sS'Draw'
p4711
S'2'
sS'%'
S'60.46'
p4712
sS'Mat'
p4713
S'43'
p4714
sS'Conv'
p4715
S'0'
sS'Tries'
p4716
S'0'
sS'Pts'
p4717
S'0'
sa(dp4718
S'Pens'
p4719
S'0'
sS'Sub'
p4720
S'1'
sS'Lost'
p4721
S'16'
p4722
sS'Drop'
p4723
S'0'
sS'Start'
p4724
S'26'
p4725
sS'Won'
p4726
S'9'
sS'Draw'
p4727
S'2'
sS'%'
S'37.03'
p4728
sS'Mat'
p4729
S'27'
p4730
sS'Conv'
p4731
S'0'
sS'Tries'
p4732
S'5'
sS'Pts'
p4733
S'20'
p4734
sa(dp4735
S'Pens'
p4736
S'0'
sS'Sub'
p4737
S'0'
sS'Lost'
p4738
S'0'
sS'Drop'
p4739
S'0'
sS'Start'
p4740
S'1'
sS'Won'
p4741
S'1'
sS'Draw'
p4742
S'0'
sS'%'
S'100.00'
p4743
sS'Mat'
p4744
S'1'
sS'Conv'
p4745
S'0'
sS'Tries'
p4746
S'1'
sS'Pts'
p4747
S'4'
sa(dp4748
S'Pens'
p4749
S'0'
sS'Sub'
p4750
S'0'
sS'Lost'
p4751
S'4'
sS'Drop'
p4752
S'0'
sS'Start'
p4753
S'15'
p4754
sS'Won'
p4755
S'10'
p4756
sS'Draw'
p4757
S'1'
sS'%'
S'70.00'
p4758
sS'Mat'
p4759
S'15'
p4760
sS'Conv'
p4761
S'0'
sS'Tries'
p4762
S'4'
sS'Pts'
p4763
S'16'
p4764
sa(dp4765
S'Pens'
p4766
S'0'
sS'Sub'
p4767
S'0'
sS'Lost'
p4768
S'1'
sS'Drop'
p4769
S'0'
sS'Start'
p4770
S'4'
sS'Won'
p4771
S'3'
sS'Draw'
p4772
S'0'
sS'%'
S'75.00'
p4773
sS'Mat'
p4774
S'4'
sS'Conv'
p4775
S'0'
sS'Tries'
p4776
S'0'
sS'Pts'
p4777
S'0'
sa(dp4778
S'Pens'
p4779
S'0'
sS'Sub'
p4780
S'0'
sS'Lost'
p4781
S'0'
sS'Drop'
p4782
S'0'
sS'Start'
p4783
S'3'
sS'Won'
p4784
S'3'
sS'Draw'
p4785
S'0'
sS'%'
S'100.00'
p4786
sS'Mat'
p4787
S'3'
sS'Conv'
p4788
S'0'
sS'Tries'
p4789
S'0'
sS'Pts'
p4790
S'0'
sa(dp4791
S'Pens'
p4792
S'0'
sS'Sub'
p4793
S'0'
sS'Lost'
p4794
S'0'
sS'Drop'
p4795
S'0'
sS'Start'
p4796
S'3'
sS'Won'
p4797
S'3'
sS'Draw'
p4798
S'0'
sS'%'
S'100.00'
p4799
sS'Mat'
p4800
S'3'
sS'Conv'
p4801
S'0'
sS'Tries'
p4802
S'0'
sS'Pts'
p4803
S'0'
sa(dp4804
S'Pens'
p4805
S'0'
sS'Sub'
p4806
S'0'
sS'Lost'
p4807
S'0'
sS'Drop'
p4808
S'0'
sS'Start'
p4809
S'7'
sS'Won'
p4810
S'7'
sS'Draw'
p4811
S'0'
sS'%'
S'100.00'
p4812
sS'Mat'
p4813
S'7'
sS'Conv'
p4814
S'0'
sS'Tries'
p4815
S'5'
sS'Pts'
p4816
S'20'
p4817
sa(dp4818
S'Pens'
p4819
S'0'
sS'Sub'
p4820
S'1'
sS'Lost'
p4821
S'0'
sS'Drop'
p4822
S'0'
sS'Start'
p4823
S'2'
sS'Won'
p4824
S'3'
sS'Draw'
p4825
S'0'
sS'%'
S'100.00'
p4826
sS'Mat'
p4827
S'3'
sS'Conv'
p4828
S'0'
sS'Tries'
p4829
S'3'
sS'Pts'
p4830
S'12'
p4831
sa(dp4832
S'Pens'
p4833
S'0'
sS'Sub'
p4834
S'0'
sS'Lost'
p4835
S'1'
sS'Drop'
p4836
S'0'
sS'Start'
p4837
S'3'
sS'Won'
p4838
S'2'
sS'Draw'
p4839
S'0'
sS'%'
S'66.66'
p4840
sS'Mat'
p4841
S'3'
sS'Conv'
p4842
S'0'
sS'Tries'
p4843
S'0'
sS'Pts'
p4844
S'0'
sa(dp4845
S'Pens'
p4846
S'1'
sS'Sub'
p4847
S'0'
sS'Lost'
p4848
S'0'
sS'Drop'
p4849
S'0'
sS'Start'
p4850
S'4'
sS'Won'
p4851
S'4'
sS'Draw'
p4852
S'0'
sS'%'
S'100.00'
p4853
sS'Mat'
p4854
S'4'
sS'Conv'
p4855
S'8'
sS'Tries'
p4856
S'3'
sS'Pts'
p4857
S'31'
p4858
sa(dp4859
S'Pens'
p4860
S'0'
sS'Sub'
p4861
S'0'
sS'Lost'
p4862
S'0'
sS'Drop'
p4863
S'0'
sS'Start'
p4864
S'2'
sS'Won'
p4865
S'2'
sS'Draw'
p4866
S'0'
sS'%'
S'100.00'
p4867
sS'Mat'
p4868
S'2'
sS'Conv'
p4869
S'0'
sS'Tries'
p4870
S'0'
sS'Pts'
p4871
S'0'
sa(dp4872
S'Pens'
p4873
S'0'
sS'Sub'
p4874
S'0'
sS'Lost'
p4875
S'0'
sS'Drop'
p4876
S'0'
sS'Start'
p4877
S'2'
sS'Won'
p4878
S'2'
sS'Draw'
p4879
S'0'
sS'%'
S'100.00'
p4880
sS'Mat'
p4881
S'2'
sS'Conv'
p4882
S'0'
sS'Tries'
p4883
S'0'
sS'Pts'
p4884
S'0'
sa(dp4885
S'Pens'
p4886
S'0'
sS'Sub'
p4887
S'0'
sS'Lost'
p4888
S'0'
sS'Drop'
p4889
S'0'
sS'Start'
p4890
S'3'
sS'Won'
p4891
S'3'
sS'Draw'
p4892
S'0'
sS'%'
S'100.00'
p4893
sS'Mat'
p4894
S'3'
sS'Conv'
p4895
S'0'
sS'Tries'
p4896
S'2'
sS'Pts'
p4897
S'8'
sa(dp4898
S'Pens'
p4899
S'0'
sS'Sub'
p4900
S'0'
sS'Lost'
p4901
S'1'
sS'Drop'
p4902
S'0'
sS'Start'
p4903
S'5'
sS'Won'
p4904
S'4'
sS'Draw'
p4905
S'0'
sS'%'
S'80.00'
p4906
sS'Mat'
p4907
S'5'
sS'Conv'
p4908
S'0'
sS'Tries'
p4909
S'3'
sS'Pts'
p4910
S'12'
p4911
sa(dp4912
S'Pens'
p4913
S'0'
sS'Sub'
p4914
S'0'
sS'Lost'
p4915
S'0'
sS'Drop'
p4916
S'0'
sS'Start'
p4917
S'3'
sS'Won'
p4918
S'3'
sS'Draw'
p4919
S'0'
sS'%'
S'100.00'
p4920
sS'Mat'
p4921
S'3'
sS'Conv'
p4922
S'0'
sS'Tries'
p4923
S'3'
sS'Pts'
p4924
S'12'
p4925
sa(dp4926
S'Pens'
p4927
S'2'
sS'Sub'
p4928
S'0'
sS'Lost'
p4929
S'0'
sS'Drop'
p4930
S'0'
sS'Start'
p4931
S'2'
sS'Won'
p4932
S'2'
sS'Draw'
p4933
S'0'
sS'%'
S'100.00'
p4934
sS'Mat'
p4935
S'2'
sS'Conv'
p4936
S'15'
p4937
sS'Tries'
p4938
S'1'
sS'Pts'
p4939
S'40'
p4940
sa(dp4941
S'Pens'
p4942
S'0'
sS'Sub'
p4943
S'0'
sS'Lost'
p4944
S'11'
p4945
sS'Drop'
p4946
S'0'
sS'Start'
p4947
S'23'
p4948
sS'Won'
p4949
S'10'
p4950
sS'Draw'
p4951
S'2'
sS'%'
S'47.82'
p4952
sS'Mat'
p4953
S'23'
p4954
sS'Conv'
p4955
S'0'
sS'Tries'
p4956
S'0'
sS'Pts'
p4957
S'0'
sa(dp4958
S'Pens'
p4959
S'16'
p4960
sS'Sub'
p4961
S'1'
sS'Lost'
p4962
S'8'
sS'Drop'
p4963
S'0'
sS'Start'
p4964
S'18'
p4965
sS'Won'
p4966
S'10'
p4967
sS'Draw'
p4968
S'1'
sS'%'
S'55.26'
p4969
sS'Mat'
p4970
S'19'
p4971
sS'Conv'
p4972
S'24'
p4973
sS'Tries'
p4974
S'4'
sS'Pts'
p4975
S'112'
p4976
sa(dp4977
S'Pens'
p4978
S'4'
sS'Sub'
p4979
S'1'
sS'Lost'
p4980
S'3'
sS'Drop'
p4981
S'0'
sS'Start'
p4982
S'5'
sS'Won'
p4983
S'3'
sS'Draw'
p4984
S'0'
sS'%'
S'50.00'
p4985
sS'Mat'
p4986
S'6'
sS'Conv'
p4987
S'6'
sS'Tries'
p4988
S'1'
sS'Pts'
p4989
S'28'
p4990
sa(dp4991
S'Pens'
p4992
S'0'
sS'Sub'
p4993
S'0'
sS'Lost'
p4994
S'12'
p4995
sS'Drop'
p4996
S'0'
sS'Start'
p4997
S'29'
p4998
sS'Won'
p4999
S'15'
p5000
sS'Draw'
p5001
S'2'
sS'%'
S'55.17'
p5002
sS'Mat'
p5003
S'29'
p5004
sS'Conv'
p5005
S'0'
sS'Tries'
p5006
S'1'
sS'Pts'
p5007
S'4'
sa(dp5008
S'Pens'
p5009
S'0'
sS'Sub'
p5010
S'1'
sS'Lost'
p5011
S'5'
sS'Drop'
p5012
S'0'
sS'Start'
p5013
S'8'
sS'Won'
p5014
S'4'
sS'Draw'
p5015
S'0'
sS'%'
S'44.44'
p5016
sS'Mat'
p5017
S'9'
sS'Conv'
p5018
S'0'
sS'Tries'
p5019
S'2'
sS'Pts'
p5020
S'8'
sa(dp5021
S'Pens'
p5022
S'0'
sS'Sub'
p5023
S'0'
sS'Lost'
p5024
S'3'
sS'Drop'
p5025
S'0'
sS'Start'
p5026
S'6'
sS'Won'
p5027
S'3'
sS'Draw'
p5028
S'0'
sS'%'
S'50.00'
p5029
sS'Mat'
p5030
S'6'
sS'Conv'
p5031
S'0'
sS'Tries'
p5032
S'0'
sS'Pts'
p5033
S'0'
sa(dp5034
S'Pens'
p5035
S'0'
sS'Sub'
p5036
S'0'
sS'Lost'
p5037
S'7'
sS'Drop'
p5038
S'0'
sS'Start'
p5039
S'9'
sS'Won'
p5040
S'2'
sS'Draw'
p5041
S'0'
sS'%'
S'22.22'
p5042
sS'Mat'
p5043
S'9'
sS'Conv'
p5044
S'0'
sS'Tries'
p5045
S'0'
sS'Pts'
p5046
S'0'
sa(dp5047
S'Pens'
p5048
S'0'
sS'Sub'
p5049
S'1'
sS'Lost'
p5050
S'15'
p5051
sS'Drop'
p5052
S'0'
sS'Start'
p5053
S'32'
p5054
sS'Won'
p5055
S'16'
p5056
sS'Draw'
p5057
S'2'
sS'%'
S'51.51'
p5058
sS'Mat'
p5059
S'33'
p5060
sS'Conv'
p5061
S'0'
sS'Tries'
p5062
S'6'
sS'Pts'
p5063
S'24'
p5064
sa(dp5065
S'Pens'
p5066
S'0'
sS'Sub'
p5067
S'0'
sS'Lost'
p5068
S'3'
sS'Drop'
p5069
S'0'
sS'Start'
p5070
S'4'
sS'Won'
p5071
S'1'
sS'Draw'
p5072
S'0'
sS'%'
S'25.00'
p5073
sS'Mat'
p5074
S'4'
sS'Conv'
p5075
S'0'
sS'Tries'
p5076
S'0'
sS'Pts'
p5077
S'0'
sa(dp5078
S'Pens'
p5079
S'0'
sS'Sub'
p5080
S'0'
sS'Lost'
p5081
S'11'
p5082
sS'Drop'
p5083
S'0'
sS'Start'
p5084
S'21'
p5085
sS'Won'
p5086
S'9'
sS'Draw'
p5087
S'1'
sS'%'
S'45.23'
p5088
sS'Mat'
p5089
S'21'
p5090
sS'Conv'
p5091
S'0'
sS'Tries'
p5092
S'1'
sS'Pts'
p5093
S'4'
sa(dp5094
S'Pens'
p5095
S'0'
sS'Sub'
p5096
S'0'
sS'Lost'
p5097
S'2'
sS'Drop'
p5098
S'0'
sS'Start'
p5099
S'3'
sS'Won'
p5100
S'1'
sS'Draw'
p5101
S'0'
sS'%'
S'33.33'
p5102
sS'Mat'
p5103
S'3'
sS'Conv'
p5104
S'0'
sS'Tries'
p5105
S'1'
sS'Pts'
p5106
S'4'
sa(dp5107
S'Pens'
p5108
S'0'
sS'Sub'
p5109
S'0'
sS'Lost'
p5110
S'6'
sS'Drop'
p5111
S'0'
sS'Start'
p5112
S'12'
p5113
sS'Won'
p5114
S'5'
sS'Draw'
p5115
S'1'
sS'%'
S'45.83'
p5116
sS'Mat'
p5117
S'12'
p5118
sS'Conv'
p5119
S'0'
sS'Tries'
p5120
S'1'
sS'Pts'
p5121
S'4'
sa(dp5122
S'Pens'
p5123
S'0'
sS'Sub'
p5124
S'0'
sS'Lost'
p5125
S'0'
sS'Drop'
p5126
S'0'
sS'Start'
p5127
S'2'
sS'Won'
p5128
S'2'
sS'Draw'
p5129
S'0'
sS'%'
S'100.00'
p5130
sS'Mat'
p5131
S'2'
sS'Conv'
p5132
S'0'
sS'Tries'
p5133
S'0'
sS'Pts'
p5134
S'0'
sa(dp5135
S'Pens'
p5136
S'0'
sS'Sub'
p5137
S'0'
sS'Lost'
p5138
S'0'
sS'Drop'
p5139
S'0'
sS'Start'
p5140
S'5'
sS'Won'
p5141
S'5'
sS'Draw'
p5142
S'0'
sS'%'
S'100.00'
p5143
sS'Mat'
p5144
S'5'
sS'Conv'
p5145
S'0'
sS'Tries'
p5146
S'8'
sS'Pts'
p5147
S'32'
p5148
sa(dp5149
S'Pens'
p5150
S'0'
sS'Sub'
p5151
S'0'
sS'Lost'
p5152
S'0'
sS'Drop'
p5153
S'0'
sS'Start'
p5154
S'2'
sS'Won'
p5155
S'2'
sS'Draw'
p5156
S'0'
sS'%'
S'100.00'
p5157
sS'Mat'
p5158
S'2'
sS'Conv'
p5159
S'0'
sS'Tries'
p5160
S'0'
sS'Pts'
p5161
S'0'
sa(dp5162
S'Pens'
p5163
S'0'
sS'Sub'
p5164
S'0'
sS'Lost'
p5165
S'32'
p5166
sS'Drop'
p5167
S'0'
sS'Start'
p5168
S'65'
p5169
sS'Won'
p5170
S'31'
p5171
sS'Draw'
p5172
S'2'
sS'%'
S'49.23'
p5173
sS'Mat'
p5174
S'65'
p5175
sS'Conv'
p5176
S'0'
sS'Tries'
p5177
S'28'
p5178
sS'Pts'
p5179
S'125'
p5180
sa(dp5181
S'Pens'
p5182
S'0'
sS'Sub'
p5183
S'0'
sS'Lost'
p5184
S'0'
sS'Drop'
p5185
S'0'
sS'Start'
p5186
S'3'
sS'Won'
p5187
S'3'
sS'Draw'
p5188
S'0'
sS'%'
S'100.00'
p5189
sS'Mat'
p5190
S'3'
sS'Conv'
p5191
S'0'
sS'Tries'
p5192
S'2'
sS'Pts'
p5193
S'8'
sa(dp5194
S'Pens'
p5195
S'0'
sS'Sub'
p5196
S'1'
sS'Lost'
p5197
S'0'
sS'Drop'
p5198
S'0'
sS'Start'
p5199
S'2'
sS'Won'
p5200
S'3'
sS'Draw'
p5201
S'0'
sS'%'
S'100.00'
p5202
sS'Mat'
p5203
S'3'
sS'Conv'
p5204
S'0'
sS'Tries'
p5205
S'1'
sS'Pts'
p5206
S'4'
sa(dp5207
S'Pens'
p5208
S'0'
sS'Sub'
p5209
S'0'
sS'Lost'
p5210
S'0'
sS'Drop'
p5211
S'0'
sS'Start'
p5212
S'2'
sS'Won'
p5213
S'2'
sS'Draw'
p5214
S'0'
sS'%'
S'100.00'
p5215
sS'Mat'
p5216
S'2'
sS'Conv'
p5217
S'0'
sS'Tries'
p5218
S'0'
sS'Pts'
p5219
S'0'
sa(dp5220
S'Pens'
p5221
S'0'
sS'Sub'
p5222
S'2'
sS'Lost'
p5223
S'6'
sS'Drop'
p5224
S'0'
sS'Start'
p5225
S'14'
p5226
sS'Won'
p5227
S'9'
sS'Draw'
p5228
S'1'
sS'%'
S'59.37'
p5229
sS'Mat'
p5230
S'16'
p5231
sS'Conv'
p5232
S'0'
sS'Tries'
p5233
S'6'
sS'Pts'
p5234
S'24'
p5235
sa(dp5236
S'Pens'
p5237
S'0'
sS'Sub'
p5238
S'1'
sS'Lost'
p5239
S'3'
sS'Drop'
p5240
S'0'
sS'Start'
p5241
S'5'
sS'Won'
p5242
S'3'
sS'Draw'
p5243
S'0'
sS'%'
S'50.00'
p5244
sS'Mat'
p5245
S'6'
sS'Conv'
p5246
S'0'
sS'Tries'
p5247
S'0'
sS'Pts'
p5248
S'0'
sa(dp5249
S'Pens'
p5250
S'0'
sS'Sub'
p5251
S'1'
sS'Lost'
p5252
S'10'
p5253
sS'Drop'
p5254
S'0'
sS'Start'
p5255
S'18'
p5256
sS'Won'
p5257
S'9'
sS'Draw'
p5258
S'0'
sS'%'
S'47.36'
p5259
sS'Mat'
p5260
S'19'
p5261
sS'Conv'
p5262
S'0'
sS'Tries'
p5263
S'8'
sS'Pts'
p5264
S'32'
p5265
sa(dp5266
S'Pens'
p5267
S'0'
sS'Sub'
p5268
S'0'
sS'Lost'
p5269
S'1'
sS'Drop'
p5270
S'0'
sS'Start'
p5271
S'7'
sS'Won'
p5272
S'6'
sS'Draw'
p5273
S'0'
sS'%'
S'85.71'
p5274
sS'Mat'
p5275
S'7'
sS'Conv'
p5276
S'0'
sS'Tries'
p5277
S'3'
sS'Pts'
p5278
S'12'
p5279
sa(dp5280
S'Pens'
p5281
S'0'
sS'Sub'
p5282
S'0'
sS'Lost'
p5283
S'0'
sS'Drop'
p5284
S'0'
sS'Start'
p5285
S'2'
sS'Won'
p5286
S'2'
sS'Draw'
p5287
S'0'
sS'%'
S'100.00'
p5288
sS'Mat'
p5289
S'2'
sS'Conv'
p5290
S'0'
sS'Tries'
p5291
S'0'
sS'Pts'
p5292
S'0'
sa(dp5293
S'Pens'
p5294
S'0'
sS'Sub'
p5295
S'0'
sS'Lost'
p5296
S'0'
sS'Drop'
p5297
S'0'
sS'Start'
p5298
S'1'
sS'Won'
p5299
S'1'
sS'Draw'
p5300
S'0'
sS'%'
S'100.00'
p5301
sS'Mat'
p5302
S'1'
sS'Conv'
p5303
S'0'
sS'Tries'
p5304
S'1'
sS'Pts'
p5305
S'4'
sa(dp5306
S'Pens'
p5307
S'0'
sS'Sub'
p5308
S'0'
sS'Lost'
p5309
S'0'
sS'Drop'
p5310
S'0'
sS'Start'
p5311
S'2'
sS'Won'
p5312
S'2'
sS'Draw'
p5313
S'0'
sS'%'
S'100.00'
p5314
sS'Mat'
p5315
S'2'
sS'Conv'
p5316
S'0'
sS'Tries'
p5317
S'0'
sS'Pts'
p5318
S'0'
sa(dp5319
S'Pens'
p5320
S'0'
sS'Sub'
p5321
S'0'
sS'Lost'
p5322
S'0'
sS'Drop'
p5323
S'1'
sS'Start'
p5324
S'1'
sS'Won'
p5325
S'1'
sS'Draw'
p5326
S'0'
sS'%'
S'100.00'
p5327
sS'Mat'
p5328
S'1'
sS'Conv'
p5329
S'2'
sS'Tries'
p5330
S'0'
sS'Pts'
p5331
S'7'
sa(dp5332
S'Pens'
p5333
S'0'
sS'Sub'
p5334
S'0'
sS'Lost'
p5335
S'0'
sS'Drop'
p5336
S'0'
sS'Start'
p5337
S'2'
sS'Won'
p5338
S'2'
sS'Draw'
p5339
S'0'
sS'%'
S'100.00'
p5340
sS'Mat'
p5341
S'2'
sS'Conv'
p5342
S'0'
sS'Tries'
p5343
S'0'
sS'Pts'
p5344
S'0'
sa(dp5345
S'Pens'
p5346
S'0'
sS'Sub'
p5347
S'0'
sS'Lost'
p5348
S'25'
p5349
sS'Drop'
p5350
S'0'
sS'Start'
p5351
S'41'
p5352
sS'Won'
p5353
S'14'
p5354
sS'Draw'
p5355
S'2'
sS'%'
S'36.58'
p5356
sS'Mat'
p5357
S'41'
p5358
sS'Conv'
p5359
S'0'
sS'Tries'
p5360
S'3'
sS'Pts'
p5361
S'12'
p5362
sa(dp5363
S'Pens'
p5364
S'0'
sS'Sub'
p5365
S'0'
sS'Lost'
p5366
S'6'
sS'Drop'
p5367
S'0'
sS'Start'
p5368
S'13'
p5369
sS'Won'
p5370
S'6'
sS'Draw'
p5371
S'1'
sS'%'
S'50.00'
p5372
sS'Mat'
p5373
S'13'
p5374
sS'Conv'
p5375
S'0'
sS'Tries'
p5376
S'8'
sS'Pts'
p5377
S'32'
p5378
sa(dp5379
S'Pens'
p5380
S'10'
p5381
sS'Sub'
p5382
S'1'
sS'Lost'
p5383
S'16'
p5384
sS'Drop'
p5385
S'1'
sS'Start'
p5386
S'28'
p5387
sS'Won'
p5388
S'11'
p5389
sS'Draw'
p5390
S'2'
sS'%'
S'41.37'
p5391
sS'Mat'
p5392
S'29'
p5393
sS'Conv'
p5394
S'6'
sS'Tries'
p5395
S'5'
sS'Pts'
p5396
S'65'
p5397
sa(dp5398
S'Pens'
p5399
S'0'
sS'Sub'
p5400
S'2'
sS'Lost'
p5401
S'5'
sS'Drop'
p5402
S'0'
sS'Start'
p5403
S'7'
sS'Won'
p5404
S'4'
sS'Draw'
p5405
S'0'
sS'%'
S'44.44'
p5406
sS'Mat'
p5407
S'9'
sS'Conv'
p5408
S'0'
sS'Tries'
p5409
S'1'
sS'Pts'
p5410
S'4'
sa(dp5411
S'Pens'
p5412
S'0'
sS'Sub'
p5413
S'1'
sS'Lost'
p5414
S'1'
sS'Drop'
p5415
S'0'
sS'Start'
p5416
S'3'
sS'Won'
p5417
S'3'
sS'Draw'
p5418
S'0'
sS'%'
S'75.00'
p5419
sS'Mat'
p5420
S'4'
sS'Conv'
p5421
S'0'
sS'Tries'
p5422
S'4'
sS'Pts'
p5423
S'17'
p5424
sa(dp5425
S'Pens'
p5426
S'0'
sS'Sub'
p5427
S'0'
sS'Lost'
p5428
S'0'
sS'Drop'
p5429
S'0'
sS'Start'
p5430
S'2'
sS'Won'
p5431
S'2'
sS'Draw'
p5432
S'0'
sS'%'
S'100.00'
p5433
sS'Mat'
p5434
S'2'
sS'Conv'
p5435
S'0'
sS'Tries'
p5436
S'4'
sS'Pts'
p5437
S'16'
p5438
sa(dp5439
S'Pens'
p5440
S'0'
sS'Sub'
p5441
S'0'
sS'Lost'
p5442
S'6'
sS'Drop'
p5443
S'0'
sS'Start'
p5444
S'12'
p5445
sS'Won'
p5446
S'6'
sS'Draw'
p5447
S'0'
sS'%'
S'50.00'
p5448
sS'Mat'
p5449
S'12'
p5450
sS'Conv'
p5451
S'0'
sS'Tries'
p5452
S'0'
sS'Pts'
p5453
S'0'
sa(dp5454
S'Pens'
p5455
S'0'
sS'Sub'
p5456
S'0'
sS'Lost'
p5457
S'1'
sS'Drop'
p5458
S'0'
sS'Start'
p5459
S'9'
sS'Won'
p5460
S'8'
sS'Draw'
p5461
S'0'
sS'%'
S'88.88'
p5462
sS'Mat'
p5463
S'9'
sS'Conv'
p5464
S'0'
sS'Tries'
p5465
S'2'
sS'Pts'
p5466
S'8'
sa(dp5467
S'Pens'
p5468
S'0'
sS'Sub'
p5469
S'0'
sS'Lost'
p5470
S'0'
sS'Drop'
p5471
S'0'
sS'Start'
p5472
S'1'
sS'Won'
p5473
S'1'
sS'Draw'
p5474
S'0'
sS'%'
S'100.00'
p5475
sS'Mat'
p5476
S'1'
sS'Conv'
p5477
S'0'
sS'Tries'
p5478
S'2'
sS'Pts'
p5479
S'8'
sa(dp5480
S'Pens'
p5481
S'0'
sS'Sub'
p5482
S'0'
sS'Lost'
p5483
S'1'
sS'Drop'
p5484
S'0'
sS'Start'
p5485
S'2'
sS'Won'
p5486
S'0'
sS'Draw'
p5487
S'1'
sS'%'
S'25.00'
p5488
sS'Mat'
p5489
S'2'
sS'Conv'
p5490
S'0'
sS'Tries'
p5491
S'0'
sS'Pts'
p5492
S'0'
sa(dp5493
S'Pens'
p5494
S'0'
sS'Sub'
p5495
S'1'
sS'Lost'
p5496
S'1'
sS'Drop'
p5497
S'0'
sS'Start'
p5498
S'2'
sS'Won'
p5499
S'1'
sS'Draw'
p5500
S'1'
sS'%'
S'50.00'
p5501
sS'Mat'
p5502
S'3'
sS'Conv'
p5503
S'0'
sS'Tries'
p5504
S'0'
sS'Pts'
p5505
S'0'
sa(dp5506
S'Pens'
p5507
S'0'
sS'Sub'
p5508
S'0'
sS'Lost'
p5509
S'2'
sS'Drop'
p5510
S'0'
sS'Start'
p5511
S'2'
sS'Won'
p5512
S'0'
sS'Draw'
p5513
S'0'
sS'%'
S'0.00'
p5514
sS'Mat'
p5515
S'2'
sS'Conv'
p5516
S'0'
sS'Tries'
p5517
S'0'
sS'Pts'
p5518
S'0'
sa(dp5519
S'Pens'
p5520
S'0'
sS'Sub'
p5521
S'0'
sS'Lost'
p5522
S'1'
sS'Drop'
p5523
S'0'
sS'Start'
p5524
S'2'
sS'Won'
p5525
S'1'
sS'Draw'
p5526
S'0'
sS'%'
S'50.00'
p5527
sS'Mat'
p5528
S'2'
sS'Conv'
p5529
S'0'
sS'Tries'
p5530
S'0'
sS'Pts'
p5531
S'0'
sa(dp5532
S'Pens'
p5533
S'0'
sS'Sub'
p5534
S'1'
sS'Lost'
p5535
S'2'
sS'Drop'
p5536
S'0'
sS'Start'
p5537
S'2'
sS'Won'
p5538
S'1'
sS'Draw'
p5539
S'0'
sS'%'
S'33.33'
p5540
sS'Mat'
p5541
S'3'
sS'Conv'
p5542
S'0'
sS'Tries'
p5543
S'0'
sS'Pts'
p5544
S'0'
sa(dp5545
S'Pens'
p5546
S'0'
sS'Sub'
p5547
S'1'
sS'Lost'
p5548
S'16'
p5549
sS'Drop'
p5550
S'0'
sS'Start'
p5551
S'36'
p5552
sS'Won'
p5553
S'21'
p5554
sS'Draw'
p5555
S'0'
sS'%'
S'56.75'
p5556
sS'Mat'
p5557
S'37'
p5558
sS'Conv'
p5559
S'0'
sS'Tries'
p5560
S'12'
p5561
sS'Pts'
p5562
S'58'
p5563
sa(dp5564
S'Pens'
p5565
S'0'
sS'Sub'
p5566
S'0'
sS'Lost'
p5567
S'0'
sS'Drop'
p5568
S'0'
sS'Start'
p5569
S'1'
sS'Won'
p5570
S'1'
sS'Draw'
p5571
S'0'
sS'%'
S'100.00'
p5572
sS'Mat'
p5573
S'1'
sS'Conv'
p5574
S'0'
sS'Tries'
p5575
S'0'
sS'Pts'
p5576
S'0'
sa(dp5577
S'Pens'
p5578
S'0'
sS'Sub'
p5579
S'2'
sS'Lost'
p5580
S'5'
sS'Drop'
p5581
S'0'
sS'Start'
p5582
S'5'
sS'Won'
p5583
S'2'
sS'Draw'
p5584
S'0'
sS'%'
S'28.57'
p5585
sS'Mat'
p5586
S'7'
sS'Conv'
p5587
S'0'
sS'Tries'
p5588
S'0'
sS'Pts'
p5589
S'0'
sa(dp5590
S'Pens'
p5591
S'0'
sS'Sub'
p5592
S'0'
sS'Lost'
p5593
S'16'
p5594
sS'Drop'
p5595
S'0'
sS'Start'
p5596
S'31'
p5597
sS'Won'
p5598
S'14'
p5599
sS'Draw'
p5600
S'1'
sS'%'
S'46.77'
p5601
sS'Mat'
p5602
S'31'
p5603
sS'Conv'
p5604
S'0'
sS'Tries'
p5605
S'2'
sS'Pts'
p5606
S'8'
sa(dp5607
S'Pens'
p5608
S'0'
sS'Sub'
p5609
S'0'
sS'Lost'
p5610
S'0'
sS'Drop'
p5611
S'0'
sS'Start'
p5612
S'1'
sS'Won'
p5613
S'1'
sS'Draw'
p5614
S'0'
sS'%'
S'100.00'
p5615
sS'Mat'
p5616
S'1'
sS'Conv'
p5617
S'0'
sS'Tries'
p5618
S'0'
sS'Pts'
p5619
S'0'
sa(dp5620
S'Pens'
p5621
S'0'
sS'Sub'
p5622
S'2'
sS'Lost'
p5623
S'7'
sS'Drop'
p5624
S'0'
sS'Start'
p5625
S'24'
p5626
sS'Won'
p5627
S'19'
p5628
sS'Draw'
p5629
S'0'
sS'%'
S'73.07'
p5630
sS'Mat'
p5631
S'26'
p5632
sS'Conv'
p5633
S'0'
sS'Tries'
p5634
S'4'
sS'Pts'
p5635
S'17'
p5636
sa(dp5637
S'Pens'
p5638
S'0'
sS'Sub'
p5639
S'0'
sS'Lost'
p5640
S'0'
sS'Drop'
p5641
S'0'
sS'Start'
p5642
S'3'
sS'Won'
p5643
S'3'
sS'Draw'
p5644
S'0'
sS'%'
S'100.00'
p5645
sS'Mat'
p5646
S'3'
sS'Conv'
p5647
S'0'
sS'Tries'
p5648
S'1'
sS'Pts'
p5649
S'4'
sa(dp5650
S'Pens'
p5651
S'0'
sS'Sub'
p5652
S'0'
sS'Lost'
p5653
S'0'
sS'Drop'
p5654
S'0'
sS'Start'
p5655
S'3'
sS'Won'
p5656
S'3'
sS'Draw'
p5657
S'0'
sS'%'
S'100.00'
p5658
sS'Mat'
p5659
S'3'
sS'Conv'
p5660
S'0'
sS'Tries'
p5661
S'0'
sS'Pts'
p5662
S'0'
sa(dp5663
S'Pens'
p5664
S'0'
sS'Sub'
p5665
S'1'
sS'Lost'
p5666
S'0'
sS'Drop'
p5667
S'0'
sS'Start'
p5668
S'3'
sS'Won'
p5669
S'4'
sS'Draw'
p5670
S'0'
sS'%'
S'100.00'
p5671
sS'Mat'
p5672
S'4'
sS'Conv'
p5673
S'0'
sS'Tries'
p5674
S'1'
sS'Pts'
p5675
S'4'
sa(dp5676
S'Pens'
p5677
S'0'
sS'Sub'
p5678
S'0'
sS'Lost'
p5679
S'0'
sS'Drop'
p5680
S'0'
sS'Start'
p5681
S'3'
sS'Won'
p5682
S'3'
sS'Draw'
p5683
S'0'
sS'%'
S'100.00'
p5684
sS'Mat'
p5685
S'3'
sS'Conv'
p5686
S'0'
sS'Tries'
p5687
S'2'
sS'Pts'
p5688
S'8'
sa(dp5689
S'Pens'
p5690
S'0'
sS'Sub'
p5691
S'0'
sS'Lost'
p5692
S'4'
sS'Drop'
p5693
S'0'
sS'Start'
p5694
S'9'
sS'Won'
p5695
S'5'
sS'Draw'
p5696
S'0'
sS'%'
S'55.55'
p5697
sS'Mat'
p5698
S'9'
sS'Conv'
p5699
S'0'
sS'Tries'
p5700
S'8'
sS'Pts'
p5701
S'36'
p5702
sa(dp5703
S'Pens'
p5704
S'0'
sS'Sub'
p5705
S'1'
sS'Lost'
p5706
S'6'
sS'Drop'
p5707
S'0'
sS'Start'
p5708
S'16'
p5709
sS'Won'
p5710
S'10'
p5711
sS'Draw'
p5712
S'1'
sS'%'
S'61.76'
p5713
sS'Mat'
p5714
S'17'
p5715
sS'Conv'
p5716
S'0'
sS'Tries'
p5717
S'7'
sS'Pts'
p5718
S'28'
p5719
sa(dp5720
S'Pens'
p5721
S'0'
sS'Sub'
p5722
S'1'
sS'Lost'
p5723
S'6'
sS'Drop'
p5724
S'0'
sS'Start'
p5725
S'7'
sS'Won'
p5726
S'2'
sS'Draw'
p5727
S'0'
sS'%'
S'25.00'
p5728
sS'Mat'
p5729
S'8'
sS'Conv'
p5730
S'0'
sS'Tries'
p5731
S'2'
sS'Pts'
p5732
S'8'
sa(dp5733
S'Pens'
p5734
S'0'
sS'Sub'
p5735
S'1'
sS'Lost'
p5736
S'0'
sS'Drop'
p5737
S'0'
sS'Start'
p5738
S'1'
sS'Won'
p5739
S'2'
sS'Draw'
p5740
S'0'
sS'%'
S'100.00'
p5741
sS'Mat'
p5742
S'2'
sS'Conv'
p5743
S'0'
sS'Tries'
p5744
S'0'
sS'Pts'
p5745
S'0'
sa(dp5746
S'Pens'
p5747
S'0'
sS'Sub'
p5748
S'2'
sS'Lost'
p5749
S'2'
sS'Drop'
p5750
S'0'
sS'Start'
p5751
S'1'
sS'Won'
p5752
S'1'
sS'Draw'
p5753
S'0'
sS'%'
S'33.33'
p5754
sS'Mat'
p5755
S'3'
sS'Conv'
p5756
S'0'
sS'Tries'
p5757
S'0'
sS'Pts'
p5758
S'0'
sa(dp5759
S'Pens'
p5760
S'63'
p5761
sS'Sub'
p5762
S'2'
sS'Lost'
p5763
S'11'
p5764
sS'Drop'
p5765
S'1'
sS'Start'
p5766
S'32'
p5767
sS'Won'
p5768
S'23'
p5769
sS'Draw'
p5770
S'0'
sS'%'
S'67.64'
p5771
sS'Mat'
p5772
S'34'
p5773
sS'Conv'
p5774
S'68'
p5775
sS'Tries'
p5776
S'8'
sS'Pts'
p5777
S'365'
p5778
sa(dp5779
S'Pens'
p5780
S'14'
p5781
sS'Sub'
p5782
S'1'
sS'Lost'
p5783
S'3'
sS'Drop'
p5784
S'0'
sS'Start'
p5785
S'5'
sS'Won'
p5786
S'3'
sS'Draw'
p5787
S'0'
sS'%'
S'50.00'
p5788
sS'Mat'
p5789
S'6'
sS'Conv'
p5790
S'1'
sS'Tries'
p5791
S'1'
sS'Pts'
p5792
S'48'
p5793
sa(dp5794
S'Pens'
p5795
S'0'
sS'Sub'
p5796
S'0'
sS'Lost'
p5797
S'1'
sS'Drop'
p5798
S'0'
sS'Start'
p5799
S'1'
sS'Won'
p5800
S'0'
sS'Draw'
p5801
S'0'
sS'%'
S'0.00'
p5802
sS'Mat'
p5803
S'1'
sS'Conv'
p5804
S'0'
sS'Tries'
p5805
S'0'
sS'Pts'
p5806
S'0'
sa(dp5807
S'Pens'
p5808
S'0'
sS'Sub'
p5809
S'0'
sS'Lost'
p5810
S'1'
sS'Drop'
p5811
S'0'
sS'Start'
p5812
S'1'
sS'Won'
p5813
S'0'
sS'Draw'
p5814
S'0'
sS'%'
S'0.00'
p5815
sS'Mat'
p5816
S'1'
sS'Conv'
p5817
S'0'
sS'Tries'
p5818
S'0'
sS'Pts'
p5819
S'0'
sa(dp5820
S'Pens'
p5821
S'0'
sS'Sub'
p5822
S'0'
sS'Lost'
p5823
S'2'
sS'Drop'
p5824
S'0'
sS'Start'
p5825
S'7'
sS'Won'
p5826
S'5'
sS'Draw'
p5827
S'0'
sS'%'
S'71.42'
p5828
sS'Mat'
p5829
S'7'
sS'Conv'
p5830
S'0'
sS'Tries'
p5831
S'2'
sS'Pts'
p5832
S'8'
sa(dp5833
S'Pens'
p5834
S'0'
sS'Sub'
p5835
S'1'
sS'Lost'
p5836
S'9'
sS'Drop'
p5837
S'0'
sS'Start'
p5838
S'14'
p5839
sS'Won'
p5840
S'6'
sS'Draw'
p5841
S'0'
sS'%'
S'40.00'
p5842
sS'Mat'
p5843
S'15'
p5844
sS'Conv'
p5845
S'0'
sS'Tries'
p5846
S'2'
sS'Pts'
p5847
S'8'
sa(dp5848
S'Pens'
p5849
S'0'
sS'Sub'
p5850
S'0'
sS'Lost'
p5851
S'4'
sS'Drop'
p5852
S'0'
sS'Start'
p5853
S'10'
p5854
sS'Won'
p5855
S'6'
sS'Draw'
p5856
S'0'
sS'%'
S'60.00'
p5857
sS'Mat'
p5858
S'10'
p5859
sS'Conv'
p5860
S'0'
sS'Tries'
p5861
S'0'
sS'Pts'
p5862
S'0'
sa(dp5863
S'Pens'
p5864
S'0'
sS'Sub'
p5865
S'1'
sS'Lost'
p5866
S'0'
sS'Drop'
p5867
S'0'
sS'Start'
p5868
S'3'
sS'Won'
p5869
S'4'
sS'Draw'
p5870
S'0'
sS'%'
S'100.00'
p5871
sS'Mat'
p5872
S'4'
sS'Conv'
p5873
S'0'
sS'Tries'
p5874
S'5'
sS'Pts'
p5875
S'20'
p5876
sa(dp5877
S'Pens'
p5878
S'0'
sS'Sub'
p5879
S'1'
sS'Lost'
p5880
S'3'
sS'Drop'
p5881
S'0'
sS'Start'
p5882
S'6'
sS'Won'
p5883
S'4'
sS'Draw'
p5884
S'0'
sS'%'
S'57.14'
p5885
sS'Mat'
p5886
S'7'
sS'Conv'
p5887
S'0'
sS'Tries'
p5888
S'0'
sS'Pts'
p5889
S'0'
sa(dp5890
S'Pens'
p5891
S'0'
sS'Sub'
p5892
S'0'
sS'Lost'
p5893
S'2'
sS'Drop'
p5894
S'0'
sS'Start'
p5895
S'3'
sS'Won'
p5896
S'1'
sS'Draw'
p5897
S'0'
sS'%'
S'33.33'
p5898
sS'Mat'
p5899
S'3'
sS'Conv'
p5900
S'0'
sS'Tries'
p5901
S'0'
sS'Pts'
p5902
S'0'
sa(dp5903
S'Pens'
p5904
S'0'
sS'Sub'
p5905
S'0'
sS'Lost'
p5906
S'1'
sS'Drop'
p5907
S'0'
sS'Start'
p5908
S'1'
sS'Won'
p5909
S'0'
sS'Draw'
p5910
S'0'
sS'%'
S'0.00'
p5911
sS'Mat'
p5912
S'1'
sS'Conv'
p5913
S'0'
sS'Tries'
p5914
S'0'
sS'Pts'
p5915
S'0'
sa(dp5916
S'Pens'
p5917
S'0'
sS'Sub'
p5918
S'1'
sS'Lost'
p5919
S'14'
p5920
sS'Drop'
p5921
S'0'
sS'Start'
p5922
S'31'
p5923
sS'Won'
p5924
S'17'
p5925
sS'Draw'
p5926
S'1'
sS'%'
S'54.68'
p5927
sS'Mat'
p5928
S'32'
p5929
sS'Conv'
p5930
S'0'
sS'Tries'
p5931
S'8'
sS'Pts'
p5932
S'36'
p5933
sa(dp5934
S'Pens'
p5935
S'0'
sS'Sub'
p5936
S'0'
sS'Lost'
p5937
S'0'
sS'Drop'
p5938
S'0'
sS'Start'
p5939
S'5'
sS'Won'
p5940
S'5'
sS'Draw'
p5941
S'0'
sS'%'
S'100.00'
p5942
sS'Mat'
p5943
S'5'
sS'Conv'
p5944
S'0'
sS'Tries'
p5945
S'1'
sS'Pts'
p5946
S'4'
sa(dp5947
S'Pens'
p5948
S'0'
sS'Sub'
p5949
S'1'
sS'Lost'
p5950
S'6'
sS'Drop'
p5951
S'0'
sS'Start'
p5952
S'22'
p5953
sS'Won'
p5954
S'17'
p5955
sS'Draw'
p5956
S'0'
sS'%'
S'73.91'
p5957
sS'Mat'
p5958
S'23'
p5959
sS'Conv'
p5960
S'0'
sS'Tries'
p5961
S'24'
p5962
sS'Pts'
p5963
S'111'
p5964
sa(dp5965
S'Pens'
p5966
S'0'
sS'Sub'
p5967
S'0'
sS'Lost'
p5968
S'1'
sS'Drop'
p5969
S'0'
sS'Start'
p5970
S'6'
sS'Won'
p5971
S'5'
sS'Draw'
p5972
S'0'
sS'%'
S'83.33'
p5973
sS'Mat'
p5974
S'6'
sS'Conv'
p5975
S'0'
sS'Tries'
p5976
S'9'
sS'Pts'
p5977
S'36'
p5978
sa(dp5979
S'Pens'
p5980
S'0'
sS'Sub'
p5981
S'3'
sS'Lost'
p5982
S'3'
sS'Drop'
p5983
S'0'
sS'Start'
p5984
S'9'
sS'Won'
p5985
S'9'
sS'Draw'
p5986
S'0'
sS'%'
S'75.00'
p5987
sS'Mat'
p5988
S'12'
p5989
sS'Conv'
p5990
S'0'
sS'Tries'
p5991
S'0'
sS'Pts'
p5992
S'0'
sa(dp5993
S'Pens'
p5994
S'0'
sS'Sub'
p5995
S'0'
sS'Lost'
p5996
S'0'
sS'Drop'
p5997
S'0'
sS'Start'
p5998
S'2'
sS'Won'
p5999
S'2'
sS'Draw'
p6000
S'0'
sS'%'
S'100.00'
p6001
sS'Mat'
p6002
S'2'
sS'Conv'
p6003
S'0'
sS'Tries'
p6004
S'3'
sS'Pts'
p6005
S'12'
p6006
sa(dp6007
S'Pens'
p6008
S'213'
p6009
sS'Sub'
p6010
S'1'
sS'Lost'
p6011
S'46'
p6012
sS'Drop'
p6013
S'20'
p6014
sS'Start'
p6015
S'75'
p6016
sS'Won'
p6017
S'29'
p6018
sS'Draw'
p6019
S'1'
sS'%'
S'38.81'
p6020
sS'Mat'
p6021
S'76'
p6022
sS'Conv'
p6023
S'133'
p6024
sS'Tries'
p6025
S'9'
sS'Pts'
p6026
S'1010'
p6027
sa(dp6028
S'Pens'
p6029
S'0'
sS'Sub'
p6030
S'0'
sS'Lost'
p6031
S'0'
sS'Drop'
p6032
S'0'
sS'Start'
p6033
S'2'
sS'Won'
p6034
S'2'
sS'Draw'
p6035
S'0'
sS'%'
S'100.00'
p6036
sS'Mat'
p6037
S'2'
sS'Conv'
p6038
S'0'
sS'Tries'
p6039
S'0'
sS'Pts'
p6040
S'0'
sa(dp6041
S'Pens'
p6042
S'0'
sS'Sub'
p6043
S'0'
sS'Lost'
p6044
S'1'
sS'Drop'
p6045
S'0'
sS'Start'
p6046
S'2'
sS'Won'
p6047
S'1'
sS'Draw'
p6048
S'0'
sS'%'
S'50.00'
p6049
sS'Mat'
p6050
S'2'
sS'Conv'
p6051
S'0'
sS'Tries'
p6052
S'3'
sS'Pts'
p6053
S'12'
p6054
sa(dp6055
S'Pens'
p6056
S'0'
sS'Sub'
p6057
S'0'
sS'Lost'
p6058
S'3'
sS'Drop'
p6059
S'0'
sS'Start'
p6060
S'7'
sS'Won'
p6061
S'4'
sS'Draw'
p6062
S'0'
sS'%'
S'57.14'
p6063
sS'Mat'
p6064
S'7'
sS'Conv'
p6065
S'0'
sS'Tries'
p6066
S'1'
sS'Pts'
p6067
S'4'
sa(dp6068
S'Pens'
p6069
S'0'
sS'Sub'
p6070
S'0'
sS'Lost'
p6071
S'1'
sS'Drop'
p6072
S'0'
sS'Start'
p6073
S'1'
sS'Won'
p6074
S'0'
sS'Draw'
p6075
S'0'
sS'%'
S'0.00'
p6076
sS'Mat'
p6077
S'1'
sS'Conv'
p6078
S'0'
sS'Tries'
p6079
S'0'
sS'Pts'
p6080
S'0'
sa(dp6081
S'Pens'
p6082
S'0'
sS'Sub'
p6083
S'0'
sS'Lost'
p6084
S'1'
sS'Drop'
p6085
S'0'
sS'Start'
p6086
S'1'
sS'Won'
p6087
S'0'
sS'Draw'
p6088
S'0'
sS'%'
S'0.00'
p6089
sS'Mat'
p6090
S'1'
sS'Conv'
p6091
S'0'
sS'Tries'
p6092
S'0'
sS'Pts'
p6093
S'0'
sa.