(lp1
(lp2
S'Henri Amand'
p3
aS'1906'
p4
aS'Fly-half'
p5
aS'Paris'
p6
aS'1'
aS'0'
aS'0'
aS'0'
aa(lp7
S'Albert Branlat'
p8
aS'1906'
p9
aS'Lock, Prop'
p10
aS'Saint-Vivien-de-Medo'
p11
aS'3'
aS'0'
aS'0'
aS'2'
aa(lp12
S'Noel Cessieux'
p13
aS'1906'
p14
aS'No. 8'
p15
aS'Andance'
p16
aS'1'
aS'0'
aS'1'
aS'3'
aa(lp17
S'Marcel Communeau'
p18
aS'1906'
p19
aS'Lock, No. 8, Wing'
p20
aS'Beauvais'
p21
aS'21'
p22
aS'1'
aS'3'
aS'9'
aa(lp23
S'William Crichton'
p24
aS'1906'
p25
aS'Fullback'
p26
aS'Cockermouth'
p27
aS'2'
aS'0'
aS'0'
aS'0'
aa(lp28
S'Paul Dedeyn'
p29
aS'1906'
p30
aS'Hooker'
p31
aS'Moulineaux'
p32
aS'1'
aS'0'
aS'0'
aS'0'
aa(lp33
S'Jacques Dufourcq'
p34
aS'1906'
p35
aS'Flanker, Lock'
p36
aS'Salies-de-Bearn'
p37
aS'4'
aS'0'
aS'0'
aS'0'
aa(lp38
S'Georges Jerome'
p39
aS'1906'
p40
aS'Lock'
p41
aS'Cayenne'
p42
aS'2'
aS'0'
aS'1'
aS'3'
aa(lp43
S'Henri Lacassagne'
p44
aS'1906'
p45
aS'Scrum-half'
p46
aS'Viella'
p47
aS'2'
aS'0'
aS'0'
aS'0'
aa(lp48
S'Gaston Lane'
p49
aS'1906'
p50
aS'Centre, Wing'
p51
aS'Paris'
p52
aS'16'
p53
aS'1'
aS'1'
aS'3'
aa(lp54
S'Henri Levee'
p55
aS'1906'
p56
aS'Centre'
p57
aS'Paris'
p58
aS'1'
aS'0'
aS'0'
aS'0'
aa(lp59
S'Allan Muhr'
p60
aS'1906'
p61
aS'Prop, Lock'
p62
aS'United States'
p63
aS'3'
aS'0'
aS'2'
aS'6'
aa(lp64
S'Augustin Pujol'
p65
aS'1906'
p66
aS'Wing'
p67
aS'Toulouse'
p68
aS'1'
aS'0'
aS'0'
aS'2'
aa(lp69
S'Paul Sagot'
p70
aS'1906'
p71
aS'Wing, Centre'
p72
aS'Dijon'
p73
aS'3'
aS'0'
aS'1'
aS'5'
aa(lp74
S'Andre Verges'
p75
aS'1906'
p76
aS'Prop, Lock'
p77
aS'?'
aS'3'
aS'0'
aS'0'
aS'0'
aa(lp78
S'Pierre Gaudermen'
p79
aS'1906'
p80
aS'No. 8'
p81
aS'Paris'
p82
aS'1'
aS'0'
aS'0'
aS'0'
aa(lp83
S'Albert Hubert'
p84
aS'1906'
p85
aS'Fly-half'
p86
aS'Noisy-le-Sec'
p87
aS'7'
aS'0'
aS'0'
aS'0'
aa(lp88
S'Emile Lesieur'
p89
aS'1906'
p90
aS'Wing, Centre'
p91
aS'Paris'
p92
aS'12'
p93
aS'0'
aS'2'
aS'6'
aa(lp94
S'Ernest Lewis'
p95
aS'1906'
p96
aS'Centre'
p97
aS'Cardiff'
p98
aS'1'
aS'0'
aS'0'
aS'0'
aa(lp99
S'Paul Maclos'
p100
aS'1906'
p101
aS'Wing, Centre, Flanker'
p102
aS'Amazy'
p103
aS'2'
aS'0'
aS'0'
aS'7'
aa(lp104
S'G. Maurin'
p105
aS'1906'
p106
aS'Flanker'
p107
aS'?'
aS'1'
aS'0'
aS'0'
aS'0'
aa(lp108
S'Theodore Varvier'
p109
aS'1906'
p110
aS'Centre, Fly-half, Fullback'
p111
aS'Lyon'
p112
aS'6'
aS'0'
aS'0'
aS'0'
aa(lp113
S'Charles Beaurin-Gressier'
p114
aS'1907'
p115
aS'No. 8, Prop'
p116
aS'Paris'
p117
aS'2'
aS'0'
aS'0'
aS'0'
aa(lp118
S'Marc Giacardy'
p119
aS'1907'
p120
aS'Halfback, Fly-half, Flanker'
p121
aS'Bordeaux'
p122
aS'1'
aS'0'
aS'0'
aS'0'
aa(lp123
S'Henri Isaac'
p124
aS'1907'
p125
aS'Fullback'
p126
aS'Guadeloupe'
p127
aS'2'
aS'0'
aS'0'
aS'0'
aa(lp128
S'Henri Martin'
p129
aS'1907'
p130
aS'Fullback, Centre'
p131
aS'Cayenne'
p132
aS'2'
aS'0'
aS'0'
aS'0'
aa(lp133
S'Paul Mauriat'
p134
aS'1907'
p135
aS'Hooker, Lock, Prop'
p136
aS'Neuville-sur-Saone'
p137
aS'19'
p138
aS'1'
aS'1'
aS'5'
aa(lp139
S'A. Poirier'
p140
aS'1907'
p141
aS'Hooker'
p142
aS'?'
aS'1'
aS'0'
aS'0'
aS'0'
aa(lp143
S'Charles Vareilles'
p144
aS'1907'
p145
aS'Wing'
p146
aS'Saigon'
p147
aS'5'
aS'0'
aS'0'
aS'4'
aa(lp148
S'Georges Borchard'
p149
aS'1908'
p150
aS'Hooker, Lock, Flanker'
p151
aS'Bordeaux'
p152
aS'5'
aS'0'
aS'0'
aS'0'
aa(lp153
S'Rene Duval'
p154
aS'1908'
p155
aS'Flanker, Fly-half'
p156
aS'Paris'
p157
aS'6'
aS'0'
aS'0'
aS'0'
aa(lp158
S'Pierre Guillemin'
p159
aS'1908'
p160
aS'Prop, Lock'
p161
aS'Bonnevaux'
p162
aS'11'
p163
aS'1'
aS'1'
aS'3'
aa(lp164
S'Alfred Mayssonnie'
p165
aS'1908'
p166
aS'Scrum-half, Fly-half'
p167
aS'Lavernose'
p168
aS'3'
aS'0'
aS'0'
aS'0'
aa(lp169
S'Henri Moure'
p170
aS'1908'
p171
aS'Flanker'
p172
aS'Bordeaux'
p173
aS'1'
aS'0'
aS'0'
aS'0'
aa(lp174
S'Rene von Malmann'
p175
aS'1908'
p176
aS'Lock, Prop'
p177
aS'Paris'
p178
aS'7'
aS'0'
aS'0'
aS'0'
aa(lp179
S'Maurice Leuvielle'
p180
aS'1908'
p181
aS'Centre, Lock, No. 8'
p182
aS'Saint-Loubes'
p183
aS'7'
aS'0'
aS'0'
aS'0'
aa(lp184
S'Alphonse Masse'
p185
aS'1908'
p186
aS'Flanker, Lock'
p187
aS'Saint-Christophe-de-'
p188
aS'7'
aS'0'
aS'0'
aS'0'
aa(lp189
S'Jean Caujolle'
p190
aS'1909'
p191
aS'Fullback'
p192
aS'Saint-Girons'
p193
aS'5'
aS'0'
aS'0'
aS'0'
aa(lp194
S'Georges Fourcade'
p195
aS'1909'
p196
aS'Hooker'
p197
aS'Saint-Pierre-sur-Dro'
p198
aS'2'
aS'0'
aS'0'
aS'0'
aa(lp199
S'Henri Houblain'
p200
aS'1909'
p201
aS'Centre'
p202
aS'?'
aS'2'
aS'0'
aS'0'
aS'0'
aa(lp203
S'Jules Icard'
p204
aS'1909'
p205
aS'Lock'
p206
aS'?'
aS'2'
aS'0'
aS'0'
aS'0'
aa(lp207
S'Andre Theuriet'
p208
aS'1909'
p209
aS'Scrum-half'
p210
aS'Lyon'
p211
aS'5'
aS'0'
aS'0'
aS'0'
aa(lp212
S'Etienne de Jouvencel'
p213
aS'1909'
p214
aS'Fullback'
p215
aS'Paris'
p216
aS'2'
aS'0'
aS'0'
aS'0'
aa(lp217
S'Paul Dupre'
p218
aS'1909'
p219
aS'Flanker'
p220
aS'Gagny'
p221
aS'1'
aS'0'
aS'0'
aS'0'
aa(lp222
S'Marcel Burgun'
p223
aS'1909'
p224
aS'Fly-half, Wing, Centre'
p225
aS'St Petersburg'
p226
aS'11'
p227
aS'1'
aS'0'
aS'0'
aa(lp228
S'Jacques Gommes'
p229
aS'1909'
p230
aS'Scrum-half, Flanker'
p231
aS'Bordeaux'
p232
aS'1'
aS'0'
aS'0'
aS'0'
aa(lp233
S'Augustin Hourdebaigt'
p234
aS'1909'
p235
aS'Lock'
p236
aS'Bordeaux'
p237
aS'5'
aS'0'
aS'1'
aS'3'
aa(lp238
S'Marcel Legrain'
p239
aS'1909'
p240
aS'Centre, Flanker, No. 8'
p241
aS'Paris'
p242
aS'12'
p243
aS'1'
aS'0'
aS'0'
aa(lp244
S'Claude Martin'
p245
aS'1909'
p246
aS'Fly-half'
p247
aS'Lyon'
p248
aS'3'
aS'0'
aS'0'
aS'0'
aa(lp249
S'Francis Mouronval'
p250
aS'1909'
p251
aS'Centre, Flanker'
p252
aS'Avesnes-sur-Helpe'
p253
aS'1'
aS'0'
aS'0'
aS'0'
aa(lp254
S'Joe Anduran'
p255
aS'1910'
p256
aS'Hooker'
p257
aS'Bayonne'
p258
aS'1'
aS'0'
aS'0'
aS'0'
aa(lp259
S'Rene Boudreaux'
p260
aS'1910'
p261
aS'Prop'
p262
aS'Paris'
p263
aS'2'
aS'0'
aS'0'
aS'0'
aa(lp264
S'Maurice Bruneau'
p265
aS'1910'
p266
aS'Wing, Centre, Fly-half'
p267
aS'Bordeaux'
p268
aS'4'
aS'0'
aS'1'
aS'3'
aa(lp269
S'Remi Laffitte'
p270
aS'1910'
p271
aS'Centre, Flanker'
p272
aS'Osserain'
p273
aS'2'
aS'0'
aS'1'
aS'3'
aa(lp274
S'R. Menrath'
p275
aS'1910'
p276
aS'Fullback'
p277
aS'?'
aS'1'
aS'0'
aS'0'
aS'8'
aa(lp278
S'M. Thevenot'
p279
aS'1910'
p280
aS'Lock, Prop'
p281
aS'?'
aS'3'
aS'0'
aS'0'
aS'0'
aa(lp282
S'Jules Cadenat'
p283
aS'1910'
p284
aS'Prop, Lock, No. 8'
p285
aS'Beziers'
p286
aS'7'
aS'0'
aS'0'
aS'0'
aa(lp287
S'Julien Combe'
p288
aS'1910'
p289
aS'Fullback'
p290
aS'?'
aS'4'
aS'1'
aS'0'
aS'0'
aa(lp291
S'Jacques Dedet'
p292
aS'1910'
p293
aS'Centre, Fly-half'
p294
aS'New Caledo'
p295
aS'8'
aS'0'
aS'0'
aS'0'
aa(lp296
S'Guillaume Laterrade'
p297
aS'1910'
p298
aS'Scrum-half, Halfback'
p299
aS'Tarbes'
p300
aS'5'
aS'1'
aS'1'
aS'3'
aa(lp301
S'Joseph de Muizon'
p302
aS'1910'
p303
aS'Wing'
p304
aS'Versailles'
p305
aS'1'
aS'0'
aS'0'
aS'0'
aa(lp306
S'Fernand Roujas'
p307
aS'1910'
p308
aS'Fly-half'
p309
aS"La Mas d'Azil"
p310
aS'1'
aS'0'
aS'0'
aS'0'
aa(lp311
S'Joseph Bavozet'
p312
aS'1911'
p313
aS'Flanker, Lock'
p314
aS'Lyon'
p315
aS'3'
aS'1'
aS'0'
aS'0'
aa(lp316
S'Paul Decamps'
p317
aS'1911'
p318
aS'Flanker, Lock'
p319
aS'Paris'
p320
aS'1'
aS'1'
aS'0'
aS'4'
aa(lp321
S'Pierre Failliot'
p322
aS'1911'
p323
aS'Wing'
p324
aS'Paris'
p325
aS'8'
aS'1'
aS'5'
aS'15'
p326
aa(lp327
S'Fernand Forgues'
p328
aS'1911'
p329
aS'Lock, Flanker'
p330
aS'Pau'
p331
aS'11'
p332
aS'1'
aS'0'
aS'0'
aa(lp333
S'Andre Francquenelle'
p334
aS'1911'
p335
aS'Centre'
p336
aS'Rochefort-sur-Mer'
p337
aS'3'
aS'1'
aS'0'
aS'0'
aa(lp338
S'Pierre Mouniq'
p339
aS'1911'
p340
aS'Prop, Lock'
p341
aS'Luz-Saint-Sauveur'
p342
aS'9'
aS'1'
aS'0'
aS'0'
aa(lp343
S'Georges Peyroutou'
p344
aS'1911'
p345
aS'Fly-half'
p346
aS'Ondres'
p347
aS'2'
aS'1'
aS'1'
aS'3'
aa(lp348
S'Gilbert Charpentier'
p349
aS'1911'
p350
aS'Fly-half, Wing'
p351
aS'Pissotte'
p352
aS'3'
aS'0'
aS'0'
aS'0'
aa(lp353
S'Francois Dutour'
p354
aS'1911'
p355
aS'Fullback'
p356
aS'Moissat'
p357
aS'6'
aS'0'
aS'0'
aS'2'
aa(lp358
S'Rene Duffour'
p359
aS'1911'
p360
aS'Hooker'
p361
aS'Tarbes'
p362
aS'1'
aS'0'
aS'0'
aS'0'
aa(lp363
S'Charles du Souich'
p364
aS'1911'
p365
aS'Centre'
p366
aS'Tours'
p367
aS'2'
aS'0'
aS'0'
aS'0'
aa(lp368
S'Robert Monier'
p369
aS'1911'
p370
aS'Prop'
p371
aS'Bordeaux'
p372
aS'2'
aS'0'
aS'0'
aS'0'
aa(lp373
S'Raymond Simonpaoli'
p374
aS'1911'
p375
aS'Lock'
p376
aS'Courtalain'
p377
aS'3'
aS'0'
aS'1'
aS'3'
aa(lp378
S'Maurice Boyau'
p379
aS'1912'
p380
aS'Flanker'
p381
aS'Mustapha'
p382
aS'6'
aS'0'
aS'0'
aS'4'
aa(lp383
S'Jean-Jacques Conilh de Beyssac'
p384
aS'1912'
p385
aS'Lock, Prop'
p386
aS'Cauderan'
p387
aS'5'
aS'0'
aS'0'
aS'0'
aa(lp388
S'Jean Domercq'
p389
aS'1912'
p390
aS'Back-row'
p391
aS'Orthez'
p392
aS'2'
aS'0'
aS'0'
aS'0'
aa(lp393
S'Julien Dufau'
p394
aS'1912'
p395
aS'Wing, Centre'
p396
aS'Biarritz'
p397
aS'4'
aS'0'
aS'2'
aS'6'
aa(lp398
S'Daniel Ihingoue'
p399
aS'1912'
p400
aS'Centre'
p401
aS'Ilharre'
p402
aS'2'
aS'0'
aS'0'
aS'0'
aa(lp403
S'Jean Larribau'
p404
aS'1912'
p405
aS'Scrum-half, Wing'
p406
aS'Anglet'
p407
aS'7'
aS'0'
aS'1'
aS'3'
aa(lp408
S'Edouard Vallot'
p409
aS'1912'
p410
aS'Hooker'
p411
aS'London'
p412
aS'1'
aS'0'
aS'0'
aS'0'
aa(lp413
S'Jacques Forestier'
p414
aS'1912'
p415
aS'Prop'
p416
aS'Aix-les-Bains'
p417
aS'1'
aS'0'
aS'0'
aS'0'
aa(lp418
S'Marcel Monniot'
p419
aS'1912'
p420
aS'Lock, Prop'
p421
aS'Paris'
p422
aS'2'
aS'0'
aS'0'
aS'0'
aa(lp423
S'Jean-Rene Pascarel'
p424
aS'1912'
p425
aS'Hooker'
p426
aS'Bordeaux'
p427
aS'6'
aS'0'
aS'0'
aS'0'
aa(lp428
S'Jean Sentilles'
p429
aS'1912'
p430
aS'Centre'
p431
aS'Tarbes'
p432
aS'4'
aS'0'
aS'0'
aS'0'
aa(lp433
S'Helier Tilh'
p434
aS'1912'
p435
aS'Prop, Lock, Wing'
p436
aS'Bosdarros'
p437
aS'6'
aS'0'
aS'0'
aS'0'
aa(lp438
S'Maurice Hedembaigt'
p439
aS'1913'
p440
aS'Halfback, Scrum-half'
p441
aS'Anglet'
p442
aS'3'
aS'0'
aS'0'
aS'0'
aa(lp443
S'Pierre Jaureguy'
p444
aS'1913'
p445
aS'Centre, Wing'
p446
aS'Ostabat'
p447
aS'4'
aS'0'
aS'0'
aS'0'
aa(lp448
S'Jean Sebedio'
p449
aS'1913'
p450
aS'Prop, Flanker, No. 8'
p451
aS'Saint-Jean-de-Luz'
p452
aS'9'
aS'2'
aS'1'
aS'3'
aa(lp453
S'Geo Andre'
p454
aS'1913'
p455
aS'Wing'
p456
aS'Paris'
p457
aS'7'
aS'0'
aS'3'
aS'11'
p458
aa(lp459
S'Albert Chatau'
p460
aS'1913'
p461
aS'Fly-half'
p462
aS'Urrugne'
p463
aS'1'
aS'0'
aS'0'
aS'0'
aa(lp464
S'Marcel Favre'
p465
aS'1913'
p466
aS'Prop'
p467
aS'La Roche-sur-Foron'
p468
aS'2'
aS'0'
aS'0'
aS'0'
aa(lp469
S'Clovis Bioussa'
p470
aS'1913'
p471
aS'Fly-half'
p472
aS'Toulouse'
p473
aS'3'
aS'0'
aS'0'
aS'0'
aa(lp474
S'Gustave Podevin'
p475
aS'1913'
p476
aS'Lock'
p477
aS'Paris'
p478
aS'2'
aS'0'
aS'0'
aS'0'
aa(lp479
S'Jean Semmartin'
p480
aS'1913'
p481
aS'Fullback'
p482
aS'Ars-en-Re'
p483
aS'2'
aS'0'
aS'0'
aS'0'
aa(lp484
S'Philippe Struxiano'
p485
aS'1913'
p486
aS'Scrum-half'
p487
aS'Toulouse'
p488
aS'7'
aS'2'
aS'0'
aS'6'
aa(lp489
S'Albert Eutropius'
p490
aS'1913'
p491
aS'Flanker'
p492
aS'Cayenne'
p493
aS'1'
aS'0'
aS'0'
aS'0'
aa(lp494
S'Henri Tavernier'
p495
aS'1913'
p496
aS'Prop'
p497
aS'Saint-Just-en-Chauss'
p498
aS'1'
aS'0'
aS'0'
aS'0'
aa(lp499
S'Jean-Marie Arnal'
p500
aS'1914'
p501
aS'Lock'
p502
aS'Paris'
p503
aS'2'
aS'0'
aS'0'
aS'0'
aa(lp504
S'Paul Faure'
p505
aS'1914'
p506
aS'Prop, Hooker'
p507
aS'Aureilhan'
p508
aS'3'
aS'0'
aS'0'
aS'0'
aa(lp509
S'Robert Lacoste'
p510
aS'1914'
p511
aS'Wing'
p512
aS'?'
aS'3'
aS'0'
aS'1'
aS'3'
aa(lp513
S'Rene Lasserre'
p514
aS'1914'
p515
aS'Flanker, Fullback, Centre'
p516
aS'Bayonne'
p517
aS'15'
p518
aS'4'
aS'2'
aS'10'
p519
aa(lp520
S'Raphael Lavaud'
p521
aS'1914'
p522
aS'Lock, Flanker'
p523
aS'Bordeaux'
p524
aS'2'
aS'0'
aS'0'
aS'0'
aa(lp525
S'Marcel-Frederic Lubin-Lebrere'
p526
aS'1914'
p527
aS'Prop, Lock'
p528
aS'Agen'
p529
aS'15'
p530
aS'3'
aS'2'
aS'6'
aa(lp531
S'Gilbert Pierrot'
p532
aS'1914'
p533
aS'Centre'
p534
aS'Bizanos'
p535
aS'3'
aS'0'
aS'0'
aS'0'
aa(lp536
S'Francois Poeydebasque'
p537
aS'1914'
p538
aS'Fly-half, Centre'
p539
aS'Bayonne'
p540
aS'2'
aS'0'
aS'0'
aS'0'
aa(lp541
S'Lucien Besset'
p542
aS'1914'
p543
aS'Centre, Fly-half'
p544
aS'Paris'
p545
aS'2'
aS'0'
aS'0'
aS'4'
aa(lp546
S'Robert Desvouges'
p547
aS'1914'
p548
aS'Lock'
p549
aS'Neuilly-sur-Seine'
p550
aS'1'
aS'0'
aS'0'
aS'0'
aa(lp551
S'Paulin Bascou'
p552
aS'1914'
p553
aS'Lock'
p554
aS'Urrugne'
p555
aS'1'
aS'0'
aS'0'
aS'0'
aa(lp556
S'Jean-Louis Capmau'
p557
aS'1914'
p558
aS'Flanker'
p559
aS'Siran'
p560
aS'1'
aS'0'
aS'1'
aS'3'
aa(lp561
S'Emmanuel Iguiniz'
p562
aS'1914'
p563
aS'Hooker'
p564
aS'Bayonne'
p565
aS'1'
aS'0'
aS'0'
aS'0'
aa(lp566
S'Eugene Billac'
p567
aS'1920'
p568
aS'Fly-half'
p569
aS'Bayonne'
p570
aS'9'
aS'3'
aS'2'
aS'6'
aa(lp571
S'Aime Cassayet-Armagnac'
p572
aS'1920'
p573
aS'Lock, No. 8'
p574
aS'Mont-de-Marsan'
p575
aS'31'
p576
aS'5'
aS'3'
aS'9'
aa(lp577
S'Andre Chilo'
p578
aS'1920'
p579
aS'Wing, Fullback'
p580
aS'Bordeaux'
p581
aS'4'
aS'0'
aS'0'
aS'0'
aa(lp582
S'Rene Crabos'
p583
aS'1920'
p584
aS'Centre'
p585
aS'Saint-Sever'
p586
aS'17'
p587
aS'6'
aS'1'
aS'19'
p588
aa(lp589
S'Adolphe Jaureguy'
p590
aS'1920'
p591
aS'Wing'
p592
aS'Ostabat'
p593
aS'31'
p594
aS'8'
aS'14'
p595
aS'42'
p596
aa(lp597
S'Joseph Laurent'
p598
aS'1920'
p599
aS'Flanker'
p600
aS'Bayonne'
p601
aS'3'
aS'0'
aS'0'
aS'0'
aa(lp602
S'Robert Marchand'
p603
aS'1920'
p604
aS'No. 8'
p605
aS'Angouleme'
p606
aS'2'
aS'0'
aS'0'
aS'0'
aa(lp607
S'Pierre Pons'
p608
aS'1920'
p609
aS'Hooker, Prop'
p610
aS'Llupia'
p611
aS'6'
aS'1'
aS'0'
aS'0'
aa(lp612
S'Louis Puech'
p613
aS'1920'
p614
aS'Lock'
p615
aS'Gorses'
p616
aS'5'
aS'2'
aS'0'
aS'0'
aa(lp617
S'Paul Serre'
p618
aS'1920'
p619
aS'Wing'
p620
aS'Clairac'
p621
aS'2'
aS'0'
aS'0'
aS'0'
aa(lp622
S'Robert Thierry'
p623
aS'1920'
p624
aS'Lock, Flanker'
p625
aS'Brienon-sur-Armencon'
p626
aS'4'
aS'1'
aS'0'
aS'0'
aa(lp627
S'Theophile Cambre'
p628
aS'1920'
p629
aS'Fullback'
p630
aS'Bordeaux'
p631
aS'4'
aS'2'
aS'0'
aS'0'
aa(lp632
S'Abel Guichemerre'
p633
aS'1920'
p634
aS'Flanker'
p635
aS'Dax'
p636
aS'4'
aS'1'
aS'0'
aS'0'
aa(lp637
S'Jean Lavigne'
p638
aS'1920'
p639
aS'Centre'
p640
aS'Levignacq'
p641
aS'2'
aS'0'
aS'0'
aS'0'
aa(lp642
S'Eugene Soulie'
p643
aS'1920'
p644
aS'Lock, Prop'
p645
aS'Paris'
p646
aS'9'
aS'4'
aS'0'
aS'0'
aa(lp647
S'Maurice Biraben'
p648
aS'1920'
p649
aS'Prop'
p650
aS'Dax'
p651
aS'10'
p652
aS'4'
aS'0'
aS'0'
aa(lp653
S'Georges Constant'
p654
aS'1920'
p655
aS'Flanker'
p656
aS'Perpignan'
p657
aS'1'
aS'0'
aS'0'
aS'0'
aa(lp658
S'Francois Borde'
p659
aS'1920'
p660
aS'Centre'
p661
aS'Lourdes'
p662
aS'12'
p663
aS'4'
aS'1'
aS'3'
aa(lp664
S'William Gayraud-Hirigoyen'
p665
aS'1920'
p666
aS'Hooker'
p667
aS'Laroque-Timbaut'
p668
aS'1'
aS'1'
aS'1'
aS'3'
aa(lp669
S'Raoul Got'
p670
aS'1920'
p671
aS'Wing'
p672
aS'Perpignan'
p673
aS'13'
p674
aS'4'
aS'6'
aS'18'
p675
aa(lp676
S'Jean Larrieu'
p677
aS'1920'
p678
aS'Hooker, Flanker'
p679
aS'Toulouse'
p680
aS'7'
aS'3'
aS'0'
aS'0'
aa(lp681
S'Pierre Moureu'
p682
aS'1920'
p683
aS'No. 8, Prop, Lock'
p684
aS'Larrau'
p685
aS'17'
p686
aS'5'
aS'2'
aS'6'
aa(lp687
S'Jean Boubee'
p688
aS'1921'
p689
aS'Back-row'
p690
aS'Biarritz'
p691
aS'9'
aS'3'
aS'1'
aS'3'
aa(lp692
S'Jean Clement'
p693
aS'1921'
p694
aS'Fullback, Fly-half, Halfback'
p695
aS'Tarbes'
p696
aS'10'
p697
aS'2'
aS'0'
aS'0'
aa(lp698
S'Gilbert Coscolla'
p699
aS'1921'
p700
aS'Lock, Prop'
p701
aS'Beziers'
p702
aS'2'
aS'1'
aS'0'
aS'0'
aa(lp703
S'Jean Lobies'
p704
aS'1921'
p705
aS'Wing'
p706
aS'Bone'
p707
aS'3'
aS'1'
aS'0'
aS'0'
aa(lp708
S'Roger Piteu'
p709
aS'1921'
p710
aS'Scrum-half'
p711
aS'Pau'
p712
aS'15'
p713
aS'2'
aS'2'
aS'6'
aa(lp714
S'Fernand Vaquer'
p715
aS'1921'
p716
aS'No. 8, Lock'
p717
aS'Latour-bas-Elne'
p718
aS'3'
aS'1'
aS'0'
aS'0'
aa(lp719
S'Adolphe Bousquet'
p720
aS'1921'
p721
aS'Fly-half'
p722
aS'Beziers'
p723
aS'3'
aS'2'
aS'0'
aS'0'
aa(lp724
S'Edmond Cayrefourcq'
p725
aS'1921'
p726
aS'Wing'
p727
aS'Tarbes'
p728
aS'1'
aS'0'
aS'0'
aS'0'
aa(lp729
S'Charles-Anthoin Gonnet'
p730
aS'1921'
p731
aS'Hooker'
p732
aS'Laon'
p733
aS'16'
p734
aS'4'
aS'0'
aS'5'
aa(lp735
S'Jacques Baquey'
p736
aS'1921'
p737
aS'Wing'
p738
aS'Saint-Medard-en-Jall'
p739
aS'1'
aS'1'
aS'0'
aS'0'
aa(lp740
S'Marcel de Laborderie'
p741
aS'1921'
p742
aS'Wing, Centre'
p743
aS'Buenos Aires'
p744
aS'4'
aS'1'
aS'1'
aS'3'
aa(lp745
S'Maurice Jeangrand'
p746
aS'1921'
p747
aS'Centre, Wing'
p748
aS'Lourdes'
p749
aS'1'
aS'1'
aS'0'
aS'0'
aa(lp750
S'Francois Cahuc'
p751
aS'1922'
p752
aS'Flanker'
p753
aS'Pamiers'
p754
aS'1'
aS'0'
aS'0'
aS'0'
aa(lp755
S'Joseph Pascot'
p756
aS'1922'
p757
aS'Fly-half'
p758
aS'Port-Vendres'
p759
aS'6'
aS'0'
aS'1'
aS'3'
aa(lp760
S'Andre Lafond'
p761
aS'1922'
p762
aS'Wing'
p763
aS'Le Bouceau'
p764
aS'1'
aS'0'
aS'0'
aS'0'
aa(lp765
S'Roger Ramis'
p766
aS'1922'
p767
aS'Centre, Wing'
p768
aS'Perpignan'
p769
aS'3'
aS'0'
aS'0'
aS'0'
aa(lp770
S'Louis Beguet'
p771
aS'1922'
p772
aS'Hooker, Prop'
p773
aS'Neuf-Mesnil'
p774
aS'10'
p775
aS'3'
aS'1'
aS'32'
p776
aa(lp777
S'Jean Bernon'
p778
aS'1922'
p779
aS'Prop, Lock'
p780
aS'Toulouse'
p781
aS'2'
aS'0'
aS'0'
aS'0'
aa(lp782
S'Albert Etchepare'
p783
aS'1922'
p784
aS'Flanker'
p785
aS'Biaudos'
p786
aS'1'
aS'0'
aS'0'
aS'0'
aa(lp787
S'Noel Sicart'
p788
aS'1922'
p789
aS'Back-row'
p790
aS'Perpignan'
p791
aS'1'
aS'0'
aS'0'
aS'0'
aa(lp792
S'Jean Bayard'
p793
aS'1923'
p794
aS'Hooker'
p795
aS'Toulouse'
p796
aS'6'
aS'1'
aS'0'
aS'0'
aa(lp797
S'Clement Dupont'
p798
aS'1923'
p799
aS'Scrum-half'
p800
aS'Argeles-Gazost'
p801
aS'16'
p802
aS'7'
aS'0'
aS'0'
aa(lp803
S'Max Lalande'
p804
aS'1923'
p805
aS'Wing'
p806
aS'Chateaurenard'
p807
aS'3'
aS'1'
aS'1'
aS'3'
aa(lp808
S'Henri Behoteguy'
p809
aS'1923'
p810
aS'Centre'
p811
aS'Bayonne'
p812
aS'6'
aS'2'
aS'1'
aS'3'
aa(lp813
S'Jean Castets'
p814
aS'1923'
p815
aS'Lock'
p816
aS'Le Boucau'
p817
aS'3'
aS'1'
aS'0'
aS'0'
aa(lp818
S'Jean Etcheberry'
p819
aS'1923'
p820
aS'Prop, Flanker, No. 8'
p821
aS'Le Boucau'
p822
aS'16'
p823
aS'3'
aS'1'
aS'3'
aa(lp824
S'Charles Lacazedieu'
p825
aS'1923'
p826
aS'Fly-half, Scrum-half'
p827
aS'Dax'
p828
aS'5'
aS'1'
aS'0'
aS'0'
aa(lp829
S'Andre Behoteguy'
p830
aS'1923'
p831
aS'Centre'
p832
aS'Bayonne'
p833
aS'19'
p834
aS'6'
aS'5'
aS'28'
p835
aa(lp836
S'Marcel Loustau'
p837
aS'1923'
p838
aS'Wing'
p839
aS'Sarraziet'
p840
aS'1'
aS'0'
aS'0'
aS'0'
aa(lp841
S'Christian Magnanou'
p842
aS'1923'
p843
aS'Centre, Fly-half, Fullback'
p844
aS'Perigueux'
p845
aS'10'
p846
aS'2'
aS'0'
aS'4'
aa(lp847
S'Rene Salinie'
p848
aS'1923'
p849
aS'Centre'
p850
aS'Toulouse'
p851
aS'1'
aS'0'
aS'0'
aS'0'
aa(lp852
S'Georges Fargues'
p853
aS'1923'
p854
aS'Flanker'
p855
aS'Dax'
p856
aS'1'
aS'1'
aS'0'
aS'0'
aa(lp857
S'Edmond Besset'
p858
aS'1924'
p859
aS'Fullback'
p860
aS'Langeac'
p861
aS'1'
aS'1'
aS'0'
aS'0'
aa(lp862
S'Louis Cluchague'
p863
aS'1924'
p864
aS'Wing'
p865
aS'Lons'
p866
aS'2'
aS'1'
aS'1'
aS'3'
aa(lp867
S'Henri Galau'
p868
aS'1924'
p869
aS'Fly-half'
p870
aS'Villefranche-de-Conf'
p871
aS'5'
aS'1'
aS'2'
aS'6'
aa(lp872
S'Louis Lepatey'
p873
aS'1924'
p874
aS'Prop'
p875
aS'Moussan'
p876
aS'3'
aS'1'
aS'0'
aS'0'
aa(lp877
S'Etienne Piquiral'
p878
aS'1924'
p879
aS'Back-row'
p880
aS'Perpignan'
p881
aS'19'
p882
aS'4'
aS'3'
aS'9'
aa(lp883
S'Marcel Besson'
p884
aS'1924'
p885
aS'Centre, Wing'
p886
aS'Verrieres-en-Forez'
p887
aS'6'
aS'0'
aS'1'
aS'3'
aa(lp888
S'Jean Danion'
p889
aS'1924'
p890
aS'Prop'
p891
aS'Bordeaux'
p892
aS'1'
aS'0'
aS'0'
aS'0'
aa(lp893
S'Laurent Pardo'
p894
aS'1924'
p895
aS'Fullback'
p896
aS'Urrugne'
p897
aS'2'
aS'0'
aS'0'
aS'0'
aa(lp898
S'Eugene Ribere'
p899
aS'1924'
p900
aS'Back-row'
p901
aS'Thuir'
p902
aS'34'
p903
aS'12'
p904
aS'9'
aS'27'
p905
aa(lp906
S'Jacques Ballarin'
p907
aS'1924'
p908
aS'Wing, Centre'
p909
aS'San Nicola'
p910
aS'3'
aS'0'
aS'1'
aS'3'
aa(lp911
S'Francois Clauzel'
p912
aS'1924'
p913
aS'Flanker'
p914
aS'Coursan'
p915
aS'3'
aS'0'
aS'0'
aS'0'
aa(lp916
S'Alex Bioussa'
p917
aS'1924'
p918
aS'Flanker'
p919
aS'Toulouse'
p920
aS'21'
p921
aS'5'
aS'3'
aS'9'
aa(lp922
S'Etienne Bonnes'
p923
aS'1924'
p924
aS'Fullback'
p925
aS'Argelliers'
p926
aS'3'
aS'1'
aS'0'
aS'0'
aa(lp927
S'Albert Dupouy'
p928
aS'1924'
p929
aS'Centre'
p930
aS'Carignan'
p931
aS'2'
aS'1'
aS'2'
aS'6'
aa(lp932
S'Rene Araou'
p933
aS'1924'
p934
aS'Prop, Lock'
p935
aS'Narbonne'
p936
aS'1'
aS'1'
aS'0'
aS'0'
aa(lp937
S'Gilbert Gerintes'
p938
aS'1924'
p939
aS'Flanker'
p940
aS'Saint-Etienne'
p941
aS'3'
aS'1'
aS'3'
aS'9'
aa(lp942
S'Jean Vaysse'
p943
aS'1924'
p944
aS'Centre'
p945
aS'Carmaux'
p946
aS'2'
aS'0'
aS'0'
aS'0'
aa(lp947
S'Marcel Baillette'
p948
aS'1925'
p949
aS'Wing, Centre'
p950
aS'Perpignan'
p951
aS'17'
p952
aS'7'
aS'3'
aS'13'
p953
aa(lp954
S'Yves du Manoir'
p955
aS'1925'
p956
aS'Fly-half'
p957
aS'Vaucresson'
p958
aS'8'
aS'0'
aS'0'
aS'4'
aa(lp959
S'Jean Marcet'
p960
aS'1925'
p961
aS'Hooker'
p962
aS'?'
aS'7'
aS'0'
aS'0'
aS'0'
aa(lp963
S'Andre Maury'
p964
aS'1925'
p965
aS'Prop'
p966
aS'Agen'
p967
aS'8'
aS'0'
aS'0'
aS'0'
aa(lp968
S'Camille Montade'
p969
aS'1925'
p970
aS'Prop, Lock'
p971
aS'Villenueve-de-la-Rah'
p972
aS'5'
aS'0'
aS'0'
aS'0'
aa(lp973
S'Rene Halet'
p974
aS'1925'
p975
aS'Wing'
p976
aS'Le Mans'
p977
aS'3'
aS'0'
aS'0'
aS'0'
aa(lp978
S'Auguste Laurent'
p979
aS'1925'
p980
aS'Lock'
p981
aS'Anglet'
p982
aS'5'
aS'0'
aS'0'
aS'0'
aa(lp983
S'Jean Ducousso'
p984
aS'1925'
p985
aS'Fullback'
p986
aS'Tarbes'
p987
aS'3'
aS'0'
aS'0'
aS'4'
aa(lp988
S'Francois Raymond'
p989
aS'1925'
p990
aS'Wing'
p991
aS'Beziers'
p992
aS'3'
aS'0'
aS'0'
aS'0'
aa(lp993
S'Fernand Barthe'
p994
aS'1925'
p995
aS'Flanker'
p996
aS'Saint-Macaire'
p997
aS'2'
aS'0'
aS'1'
aS'3'
aa(lp998
S'Adolphe Bringeon'
p999
aS'1925'
p1000
aS'Wing'
p1001
aS'Saint-Jean-de-Luz'
p1002
aS'1'
aS'0'
aS'0'
aS'0'
aa(lp1003
S'Robert Levasseur'
p1004
aS'1925'
p1005
aS'Lock'
p1006
aS'Paris'
p1007
aS'2'
aS'0'
aS'0'
aS'0'
aa(lp1008
S'Leon Chapuy'
p1009
aS'1926'
p1010
aS'Centre'
p1011
aS'?'
aS'1'
aS'0'
aS'0'
aS'0'
aa(lp1012
S'Louis Destarac'
p1013
aS'1926'
p1014
aS'Fullback'
p1015
aS'Tarbes'
p1016
aS'9'
aS'2'
aS'0'
aS'10'
p1017
aa(lp1018
S'Roger Llari'
p1019
aS'1926'
p1020
aS'Scrum-half, Halfback'
p1021
aS'Saint-Gaudens'
p1022
aS'1'
aS'0'
aS'0'
aS'0'
aa(lp1023
S'Alphonse Puig'
p1024
aS'1926'
p1025
aS'Lock'
p1026
aS'Terrats'
p1027
aS'2'
aS'0'
aS'0'
aS'0'
aa(lp1028
S'Bernard Berges'
p1029
aS'1926'
p1030
aS'Scrum-half'
p1031
aS'Vic-Bigorre'
p1032
aS'1'
aS'0'
aS'0'
aS'0'
aa(lp1033
S'Clement Dulaurens'
p1034
aS'1926'
p1035
aS'Wing'
p1036
aS'Castelan-Magnoac'
p1037
aS'3'
aS'0'
aS'0'
aS'0'
aa(lp1038
S'Rene Graciet'
p1039
aS'1926'
p1040
aS'Centre, Fly-half'
p1041
aS'Bayonne'
p1042
aS'6'
aS'1'
aS'1'
aS'3'
aa(lp1043
S'Vincent Graule'
p1044
aS'1926'
p1045
aS'Fly-half, Centre'
p1046
aS'Perpignan'
p1047
aS'6'
aS'1'
aS'0'
aS'0'
aa(lp1048
S'Jean Revillon'
p1049
aS'1926'
p1050
aS'Wing'
p1051
aS'Paris'
p1052
aS'3'
aS'0'
aS'0'
aS'0'
aa(lp1053
S'Honore Laffont'
p1054
aS'1926'
p1055
aS'Scrum-half'
p1056
aS'Argein'
p1057
aS'1'
aS'0'
aS'0'
aS'0'
aa(lp1058
S'Joseph Sayrou'
p1059
aS'1926'
p1060
aS'Prop'
p1061
aS'Toulouges'
p1062
aS'9'
aS'3'
aS'0'
aS'0'
aa(lp1063
S'Edouard Bader'
p1064
aS'1926'
p1065
aS'Scrum-half'
p1066
aS'Ferrieres-en-Brie'
p1067
aS'3'
aS'0'
aS'0'
aS'0'
aa(lp1068
S'Rene Bousquet'
p1069
aS'1926'
p1070
aS'Prop, Lock'
p1071
aS'Villeneuve-les-Bezie'
p1072
aS'9'
aS'2'
aS'1'
aS'3'
aa(lp1073
S'Alfred Prevost'
p1074
aS'1926'
p1075
aS'Back-row'
p1076
aS'Saint-Girons'
p1077
aS'4'
aS'0'
aS'1'
aS'3'
aa(lp1078
S'Joseph Sourgens'
p1079
aS'1926'
p1080
aS'Fly-half'
p1081
aS'Ychoux'
p1082
aS'1'
aS'0'
aS'0'
aS'0'
aa(lp1083
S'Ernest Vila'
p1084
aS'1926'
p1085
aS'Wing'
p1086
aS'Auch'
p1087
aS'1'
aS'0'
aS'0'
aS'0'
aa(lp1088
S'Robert Hutin'
p1089
aS'1927'
p1090
aS'Prop'
p1091
aS'Paris'
p1092
aS'3'
aS'0'
aS'1'
aS'3'
aa(lp1093
S'Maixent Piquemal'
p1094
aS'1927'
p1095
aS'Fullback'
p1096
aS'Bordeaux'
p1097
aS'9'
aS'4'
aS'0'
aS'0'
aa(lp1098
S'Edmond Vellat'
p1099
aS'1927'
p1100
aS'Wing'
p1101
aS'Chambery'
p1102
aS'5'
aS'2'
aS'5'
aS'15'
p1103
aa(lp1104
S'Robert Houdet'
p1105
aS'1927'
p1106
aS'Wing'
p1107
aS'Paris'
p1108
aS'10'
p1109
aS'4'
aS'7'
aS'21'
p1110
aa(lp1111
S'Jean Carbonne'
p1112
aS'1927'
p1113
aS'Scrum-half'
p1114
aS'Sorede'
p1115
aS'1'
aS'0'
aS'0'
aS'0'
aa(lp1116
S'Andre Verger'
p1117
aS'1927'
p1118
aS'Fly-half'
p1119
aS'Limoges'
p1120
aS'7'
aS'4'
aS'0'
aS'8'
aa(lp1121
S'Albert Cazenave'
p1122
aS'1927'
p1123
aS'Back-row'
p1124
aS'Nay'
p1125
aS'5'
aS'3'
aS'1'
aS'3'
aa(lp1126
S'Jean Galia'
p1127
aS'1927'
p1128
aS'Lock, No. 8'
p1129
aS'Ille-sur-Tet'
p1130
aS'20'
p1131
aS'9'
aS'3'
aS'9'
aa(lp1132
S'Georges Gerald'
p1133
aS'1927'
p1134
aS'Wing, Centre'
p1135
aS'Aixe-sur-Vienne'
p1136
aS'17'
p1137
aS'8'
aS'0'
aS'4'
aa(lp1138
S'Andre Loury'
p1139
aS'1927'
p1140
aS'Prop'
p1141
aS'Paris'
p1142
aS'6'
aS'2'
aS'0'
aS'0'
aa(lp1143
S'Jean Morere'
p1144
aS'1927'
p1145
aS'Prop'
p1146
aS'Castelnau-Magnoac'
p1147
aS'4'
aS'2'
aS'0'
aS'0'
aa(lp1148
S'Fernand Camicas'
p1149
aS'1927'
p1150
aS'Hooker'
p1151
aS'Tarbes'
p1152
aS'10'
p1153
aS'2'
aS'0'
aS'0'
aa(lp1154
S'Paul Descamps'
p1155
aS'1927'
p1156
aS'No. 8'
p1157
aS'Leon'
p1158
aS'1'
aS'0'
aS'0'
aS'0'
aa(lp1159
S'Maurice Larrieux'
p1160
aS'1927'
p1161
aS'Lock'
p1162
aS'La Teste'
p1163
aS'1'
aS'0'
aS'0'
aS'0'
aa(lp1164
S'Gerald Branca'
p1165
aS'1928'
p1166
aS'Back-row'
p1167
aS'Badens'
p1168
aS'3'
aS'0'
aS'0'
aS'0'
aa(lp1169
S'Andre Camel'
p1170
aS'1928'
p1171
aS'Lock'
p1172
aS'Toulouse'
p1173
aS'16'
p1174
aS'7'
aS'2'
aS'6'
aa(lp1175
S'Edouard Coulon'
p1176
aS'1928'
p1177
aS'Centre'
p1178
aS'Beziers'
p1179
aS'1'
aS'0'
aS'0'
aS'0'
aa(lp1180
S'Georges Daudignon'
p1181
aS'1928'
p1182
aS'Scrum-half'
p1183
aS'Le Boucau'
p1184
aS'1'
aS'0'
aS'0'
aS'0'
aa(lp1185
S'Henri Haget'
p1186
aS'1928'
p1187
aS'Fly-half, Centre'
p1188
aS'Biarritz'
p1189
aS'2'
aS'1'
aS'1'
aS'6'
aa(lp1190
S'Louis Magnol'
p1191
aS'1928'
p1192
aS'Fullback'
p1193
aS'Foix'
p1194
aS'4'
aS'0'
aS'0'
aS'0'
aa(lp1195
S'Raoul Bonamy'
p1196
aS'1928'
p1197
aS'Flanker'
p1198
aS"Saint-Jean-d'Angely"
p1199
aS'2'
aS'0'
aS'1'
aS'3'
aa(lp1200
S'Louis Pellissier'
p1201
aS'1928'
p1202
aS'Fullback'
p1203
aS'San Fernando'
p1204
aS'5'
aS'2'
aS'0'
aS'0'
aa(lp1205
S'Georges Vaills'
p1206
aS'1928'
p1207
aS'Hooker'
p1208
aS'Palau-del-Vidre'
p1209
aS'2'
aS'1'
aS'0'
aS'0'
aa(lp1210
S'Jean Duhau'
p1211
aS'1928'
p1212
aS'Prop, Hooker, Lock, Flanker'
p1213
aS'Ondres'
p1214
aS'7'
aS'4'
aS'1'
aS'14'
p1215
aa(lp1216
S'Jean Jardel'
p1217
aS'1928'
p1218
aS'Wing'
p1219
aS'Vitrac'
p1220
aS'2'
aS'0'
aS'0'
aS'0'
aa(lp1221
S'Henri Lacaze'
p1222
aS'1928'
p1223
aS'Lock, Prop'
p1224
aS'Laroquebrou'
p1225
aS'5'
aS'2'
aS'0'
aS'0'
aa(lp1226
S'Jules Hauc'
p1227
aS'1928'
p1228
aS'Prop, Lock'
p1229
aS'Maureilhan'
p1230
aS'5'
aS'2'
aS'2'
aS'6'
aa(lp1231
S'Lucien Serin'
p1232
aS'1928'
p1233
aS'Scrum-half'
p1234
aS'Antignac'
p1235
aS'12'
p1236
aS'6'
aS'1'
aS'3'
aa(lp1237
S'Richard Majerus'
p1238
aS'1928'
p1239
aS'Lock, Prop'
p1240
aS'Paris'
p1241
aS'8'
aS'4'
aS'2'
aS'6'
aa(lp1242
S'Georges Caussarieu'
p1243
aS'1928'
p1244
aS'Centre'
p1245
aS'Hendaye'
p1246
aS'1'
aS'0'
aS'0'
aS'0'
aa(lp1247
S'Robert Sarrade'
p1248
aS'1928'
p1249
aS'Fly-half'
p1250
aS"Aire-sur-l'Adour"
p1251
aS'1'
aS'0'
aS'0'
aS'0'
aa(lp1252
S'Joseph Auge'
p1253
aS'1929'
p1254
aS'No. 8'
p1255
aS'Dax'
p1256
aS'2'
aS'0'
aS'0'
aS'0'
aa(lp1257
S'Marcel Camel'
p1258
aS'1929'
p1259
aS'Back-row'
p1260
aS'Toulouse'
p1261
aS'2'
aS'0'
aS'1'
aS'3'
aa(lp1262
S'Albert Domec'
p1263
aS'1929'
p1264
aS'Wing'
p1265
aS'Saint-Pee-de-Bigorre'
p1266
aS'1'
aS'0'
aS'0'
aS'0'
aa(lp1267
S'Paul Barrere'
p1268
aS'1929'
p1269
aS'Lock'
p1270
aS'Elne'
p1271
aS'2'
aS'1'
aS'0'
aS'0'
aa(lp1272
S'Andre Clady'
p1273
aS'1929'
p1274
aS'Flanker, Lock'
p1275
aS'Lezignan'
p1276
aS'5'
aS'4'
aS'2'
aS'8'
aa(lp1277
S'Amedee Cutzach'
p1278
aS'1929'
p1279
aS'Fly-half'
p1280
aS'Trouillas'
p1281
aS'1'
aS'1'
aS'0'
aS'0'
aa(lp1282
S'Andre Duche'
p1283
aS'1929'
p1284
aS'Wing'
p1285
aS'Limoges'
p1286
aS'1'
aS'1'
aS'1'
aS'9'
aa(lp1287
S'Marcel Soler'
p1288
aS'1929'
p1289
aS'Wing'
p1290
aS'Thuir'
p1291
aS'1'
aS'1'
aS'2'
aS'6'
aa(lp1292
S'Albert Ambert'
p1293
aS'1930'
p1294
aS'Prop, Hooker'
p1295
aS'Beziers'
p1296
aS'5'
aS'3'
aS'1'
aS'11'
p1297
aa(lp1298
S'Charles Bigot'
p1299
aS'1930'
p1300
aS'Hooker, Flanker'
p1301
aS'Lezignan'
p1302
aS'4'
aS'2'
aS'0'
aS'0'
aa(lp1303
S'Joseph Choy'
p1304
aS'1930'
p1305
aS'Lock, Prop'
p1306
aS'Homps'
p1307
aS'10'
p1308
aS'8'
aS'1'
aS'3'
aa(lp1309
S'Robert Samatan'
p1310
aS'1930'
p1311
aS'Wing'
p1312
aS'Toulouse'
p1313
aS'10'
p1314
aS'6'
aS'3'
aS'9'
aa(lp1315
S'Fernand Taillantou'
p1316
aS'1930'
p1317
aS'Wing'
p1318
aS'Pau'
p1319
aS'3'
aS'2'
aS'3'
aS'9'
aa(lp1320
S'Leopold Fabre'
p1321
aS'1930'
p1322
aS'Prop, Hooker'
p1323
aS'Toulouse'
p1324
aS'1'
aS'1'
aS'0'
aS'0'
aa(lp1325
S'Lucien Augras-Fabre'
p1326
aS'1931'
p1327
aS'Wing'
p1328
aS'La Chatre'
p1329
aS'3'
aS'1'
aS'0'
aS'0'
aa(lp1330
S'Ernest Camo'
p1331
aS'1931'
p1332
aS'Lock, Flanker, No. 8'
p1333
aS"Saint-Feliu d'Avall"
p1334
aS'6'
aS'4'
aS'0'
aS'0'
aa(lp1335
S'Maurice Porra'
p1336
aS'1931'
p1337
aS'Hooker'
p1338
aS'Perpignan'
p1339
aS'1'
aS'1'
aS'0'
aS'0'
aa(lp1340
S'Marius Rodrigo'
p1341
aS'1931'
p1342
aS'Prop, Lock'
p1343
aS'Mauleon'
p1344
aS'2'
aS'1'
aS'0'
aS'0'
aa(lp1345
S'Maurice Savy'
p1346
aS'1931'
p1347
aS'Centre, Fullback'
p1348
aS'Clermont-Ferrand'
p1349
aS'5'
aS'3'
aS'0'
aS'0'
aa(lp1350
S'Leopold Servole'
p1351
aS'1931'
p1352
aS'Fly-half'
p1353
aS'Saint-Andre-de-Roque'
p1354
aS'7'
aS'5'
aS'0'
aS'4'
aa(lp1355
S'Antoine Duclos'
p1356
aS'1931'
p1357
aS'Prop'
p1358
aS'Juillan'
p1359
aS'1'
aS'0'
aS'0'
aS'0'
aa(lp1360
S'Max Rousie'
p1361
aS'1931'
p1362
aS'Halfback, Scrum-half'
p1363
aS'Marmande'
p1364
aS'4'
aS'3'
aS'2'
aS'9'
aa(lp1365
S'Robert Scohy'
p1366
aS'1931'
p1367
aS'Prop, Hooker'
p1368
aS'Tunis'
p1369
aS'4'
aS'2'
aS'1'
aS'3'
aa(lp1370
S'Georges Clement'
p1371
aS'1931'
p1372
aS'Centre'
p1373
aS'Saigon'
p1374
aS'1'
aS'0'
aS'0'
aS'0'
aa(lp1375
S'Charles Petit'
p1376
aS'1931'
p1377
aS'Lock'
p1378
aS'Saint-Ouen'
p1379
aS'1'
aS'0'
aS'1'
aS'3'
aa(lp1380
S'Max Vigerie'
p1381
aS'1931'
p1382
aS'Centre'
p1383
aS'Villereal'
p1384
aS'1'
aS'0'
aS'0'
aS'0'
aa(lp1385
S'Henri Empereur-Buisson'
p1386
aS'1931'
p1387
aS'Prop'
p1388
aS'Beziers'
p1389
aS'2'
aS'2'
aS'0'
aS'0'
aa(lp1390
S'Pierre Guelorget'
p1391
aS'1931'
p1392
aS'Wing'
p1393
aS'Parthenay'
p1394
aS'2'
aS'2'
aS'2'
aS'6'
aa(lp1395
S'Rene Namur'
p1396
aS'1931'
p1397
aS'Hooker'
p1398
aS'Montauban'
p1399
aS'2'
aS'2'
aS'0'
aS'0'
aa(lp1400
S'Roger Triviaux'
p1401
aS'1931'
p1402
aS'Flanker'
p1403
aS'Cognac'
p1404
aS'2'
aS'2'
aS'0'
aS'0'
aa(lp1405
S'Marius Guiral'
p1406
aS'1931'
p1407
aS'Fullback'
p1408
aS'Condom'
p1409
aS'3'
aS'3'
aS'0'
aS'8'
aa(lp1410
S'Antonin Barbazanges'
p1411
aS'1932'
p1412
aS'Fly-half'
p1413
aS'Toulouse'
p1414
aS'2'
aS'2'
aS'0'
aS'0'
aa(lp1415
S'Eugene Chaud'
p1416
aS'1932'
p1417
aS'Fullback, Wing'
p1418
aS'Roanne'
p1419
aS'3'
aS'3'
aS'1'
aS'16'
p1420
aa(lp1421
S'Roger Claudel'
p1422
aS'1932'
p1423
aS'Flanker'
p1424
aS'Chartres'
p1425
aS'2'
aS'2'
aS'0'
aS'0'
aa(lp1426
S'Jean Coderc'
p1427
aS'1932'
p1428
aS'Centre'
p1429
aS'Espira-de-Algy'
p1430
aS'5'
aS'5'
aS'2'
aS'6'
aa(lp1431
S'Lucien Cognet'
p1432
aS'1932'
p1433
aS'Back-row'
p1434
aS'Vichy'
p1435
aS'5'
aS'5'
aS'0'
aS'0'
aa(lp1436
S'Henri de Malherbe'
p1437
aS'1932'
p1438
aS'Back-row'
p1439
aS'Ajaccio'
p1440
aS'2'
aS'2'
aS'2'
aS'6'
aa(lp1441
S'Rene Finat'
p1442
aS'1932'
p1443
aS'Wing'
p1444
aS'Chalon-sur-Saone'
p1445
aS'2'
aS'2'
aS'5'
aS'15'
p1446
aa(lp1447
S'Joseph Griffard'
p1448
aS'1932'
p1449
aS'Prop, Lock'
p1450
aS'Limoges'
p1451
aS'3'
aS'3'
aS'0'
aS'0'
aa(lp1452
S'Marcel Laurent'
p1453
aS'1932'
p1454
aS'Prop, Hooker'
p1455
aS'Auch'
p1456
aS'5'
aS'5'
aS'0'
aS'0'
aa(lp1457
S'Albert Potel'
p1458
aS'1932'
p1459
aS'Hooker'
p1460
aS'Oviedo'
p1461
aS'1'
aS'1'
aS'0'
aS'0'
aa(lp1462
S'Edouard Ainciart'
p1463
aS'1933'
p1464
aS'Hooker'
p1465
aS'Bayonne'
p1466
aS'6'
aS'5'
aS'0'
aS'0'
aa(lp1467
S'Jean Daguerre'
p1468
aS'1933'
p1469
aS'Fly-half'
p1470
aS'Saint-Pierre-et-Miqu'
p1471
aS'1'
aS'1'
aS'0'
aS'0'
aa(lp1472
S'Pierre Escaffre'
p1473
aS'1933'
p1474
aS'Prop'
p1475
aS'Narbonne'
p1476
aS'2'
aS'2'
aS'1'
aS'3'
aa(lp1477
S'Firmin Raynaud'
p1478
aS'1933'
p1479
aS'Wing'
p1480
aS'Limoux'
p1481
aS'1'
aS'1'
aS'2'
aS'6'
aa(lp1482
S'Antoine Blain'
p1483
aS'1934'
p1484
aS'Flanker'
p1485
aS'Limoux'
p1486
aS'1'
aS'1'
aS'0'
aS'0'
aa(lp1487
S'Pierre Cussac'
p1488
aS'1934'
p1489
aS'Wing'
p1490
aS'Arcachon'
p1491
aS'1'
aS'1'
aS'0'
aS'0'
aa(lp1492
S'Joseph Desclaux'
p1493
aS'1934'
p1494
aS'Fly-half, Centre'
p1495
aS'Collioure'
p1496
aS'10'
p1497
aS'9'
aS'3'
aS'23'
p1498
aa(lp1499
S'Andre Duluc'
p1500
aS'1934'
p1501
aS'Wing'
p1502
aS'Castres'
p1503
aS'1'
aS'1'
aS'1'
aS'3'
aa(lp1504
S'Louis Dupont'
p1505
aS'1934'
p1506
aS'No. 8'
p1507
aS'Bois-Colombes'
p1508
aS'6'
aS'6'
aS'0'
aS'0'
aa(lp1509
S'Francois Lombard'
p1510
aS'1934'
p1511
aS'Scrum-half, Flanker'
p1512
aS'Narbonne'
p1513
aS'2'
aS'2'
aS'0'
aS'0'
aa(lp1514
S'Jean Blond'
p1515
aS'1935'
p1516
aS'Flanker'
p1517
aS'Le Treport'
p1518
aS'6'
aS'5'
aS'2'
aS'6'
aa(lp1519
S'Paul Boyer'
p1520
aS'1935'
p1521
aS'Scrum-half'
p1522
aS'Arthes'
p1523
aS'1'
aS'1'
aS'0'
aS'0'
aa(lp1524
S'Maurice Celhay'
p1525
aS'1935'
p1526
aS'Wing, Centre'
p1527
aS'Saint-Palais'
p1528
aS'6'
aS'4'
aS'8'
aS'24'
p1529
aa(lp1530
S'Jacques Dorot'
p1531
aS'1935'
p1532
aS'Lock'
p1533
aS'Pergamino'
p1534
aS'1'
aS'1'
aS'0'
aS'0'
aa(lp1535
S'Francois Raynal'
p1536
aS'1935'
p1537
aS'Flanker'
p1538
aS'Saint-Nazaire'
p1539
aS'5'
aS'5'
aS'1'
aS'5'
aa(lp1540
S'Armand Vigneau'
p1541
aS'1935'
p1542
aS'Wing'
p1543
aS'Bayonne'
p1544
aS'1'
aS'1'
aS'1'
aS'3'
aa(lp1545
S'Francis Daguerre'
p1546
aS'1936'
p1547
aS'Prop'
p1548
aS'Saint-Pierre-et-Miqu'
p1549
aS'1'
aS'1'
aS'1'
aS'3'
aa(lp1550
S'Pierre Geschwind'
p1551
aS'1936'
p1552
aS'Wing'
p1553
aS'Wattrelos'
p1554
aS'2'
aS'2'
aS'2'
aS'6'
aa(lp1555
S'Andre Goyard'
p1556
aS'1936'
p1557
aS'Prop, Lock'
p1558
aS'Saint-Jean-sur-Veyle'
p1559
aS'7'
aS'6'
aS'1'
aS'3'
aa(lp1560
S'Etienne Ithurra'
p1561
aS'1936'
p1562
aS'Lock'
p1563
aS'Bayonne'
p1564
aS'3'
aS'3'
aS'0'
aS'0'
aa(lp1565
S'Georges Libaros'
p1566
aS'1936'
p1567
aS'Fly-half'
p1568
aS'?'
aS'2'
aS'1'
aS'0'
aS'0'
aa(lp1569
S'Andre Rochon'
p1570
aS'1936'
p1571
aS'Flanker, Hooker'
p1572
aS'Chastreix'
p1573
aS'1'
aS'1'
aS'0'
aS'0'
aa(lp1574
S'Pierre Thiers'
p1575
aS'1936'
p1576
aS'Scrum-half, Flanker'
p1577
aS'Thiers'
p1578
aS'9'
aS'6'
aS'0'
aS'17'
p1579
aa(lp1580
S'Felix Bergese'
p1581
aS'1936'
p1582
aS'Centre'
p1583
aS'Le Boucau'
p1584
aS'6'
aS'5'
aS'4'
aS'12'
p1585
aa(lp1586
S'Jean Clave'
p1587
aS'1936'
p1588
aS'Hooker'
p1589
aS'Montgaillard'
p1590
aS'3'
aS'3'
aS'0'
aS'0'
aa(lp1591
S'Edmond Elissalde'
p1592
aS'1936'
p1593
aS'Centre, Fly-half'
p1594
aS'Biarritz'
p1595
aS'2'
aS'1'
aS'0'
aS'0'
aa(lp1596
S'Pierre Milliand'
p1597
aS'1936'
p1598
aS'Wing'
p1599
aS'Alberville'
p1600
aS'3'
aS'3'
aS'3'
aS'9'
aa(lp1601
S'Frantz Sahuc'
p1602
aS'1936'
p1603
aS'Fullback'
p1604
aS'Marsoulas'
p1605
aS'1'
aS'1'
aS'0'
aS'0'
aa(lp1606
S'David Aguilar'
p1607
aS'1937'
p1608
aS'Lock'
p1609
aS'Pau'
p1610
aS'1'
aS'1'
aS'0'
aS'0'
aa(lp1611
S'Pierre Daulouede'
p1612
aS'1937'
p1613
aS'Prop'
p1614
aS'Labenne'
p1615
aS'4'
aS'2'
aS'0'
aS'0'
aa(lp1616
S'Gilbert Lavail'
p1617
aS'1937'
p1618
aS'Fly-half'
p1619
aS'Perpignan'
p1620
aS'2'
aS'1'
aS'0'
aS'0'
aa(lp1621
S'Henri Masse'
p1622
aS'1937'
p1623
aS'Fullback'
p1624
aS'Loriol'
p1625
aS'1'
aS'1'
aS'0'
aS'0'
aa(lp1626
S'Michel Bonnus'
p1627
aS'1937'
p1628
aS'Fullback'
p1629
aS'Toulon'
p1630
aS'5'
aS'3'
aS'0'
aS'4'
aa(lp1631
S'Antonin Delque'
p1632
aS'1937'
p1633
aS'Lock'
p1634
aS'Castelbiague'
p1635
aS'4'
aS'3'
aS'2'
aS'6'
aa(lp1636
S'Marcel Deygas'
p1637
aS'1937'
p1638
aS'Centre'
p1639
aS'Ardoix'
p1640
aS'1'
aS'1'
aS'0'
aS'0'
aa(lp1641
S'Emile Fabre'
p1642
aS'1937'
p1643
aS'Lock'
p1644
aS'Toulouse'
p1645
aS'3'
aS'2'
aS'0'
aS'0'
aa(lp1646
S'Robert Cals'
p1647
aS'1938'
p1648
aS'Wing'
p1649
aS'Pezens'
p1650
aS'1'
aS'0'
aS'0'
aS'0'
aa(lp1651
S'Jean Chassagne'
p1652
aS'1938'
p1653
aS'Fly-half'
p1654
aS'Aveze'
p1655
aS'1'
aS'0'
aS'0'
aS'0'
aa(lp1656
S'Henri Clarac'
p1657
aS'1938'
p1658
aS'Flanker'
p1659
aS'Saint-Girons'
p1660
aS'1'
aS'0'
aS'0'
aS'0'
aa(lp1661
S'Jean-Baptiste Lefort'
p1662
aS'1938'
p1663
aS'No. 8'
p1664
aS'Biarritz'
p1665
aS'1'
aS'0'
aS'0'
aS'0'
aa(lp1666
S'Rene Arotca'
p1667
aS'1938'
p1668
aS'Flanker'
p1669
aS'Bayonne'
p1670
aS'1'
aS'1'
aS'0'
aS'0'
aa(lp1671
S'Robert Caunegre'
p1672
aS'1938'
p1673
aS'Wing'
p1674
aS'Bordeaux'
p1675
aS'2'
aS'2'
aS'2'
aS'6'
aa(lp1676
S'Emile Doussau'
p1677
aS'1938'
p1678
aS'Prop'
p1679
aS'Charmant'
p1680
aS'1'
aS'1'
aS'0'
aS'0'
aa(lp1681
S'Raymond le Goff'
p1682
aS'1938'
p1683
aS'Wing'
p1684
aS'Paris'
p1685
aS'2'
aS'2'
aS'1'
aS'3'
aa(lp1686
S'Rene Lombarteix'
p1687
aS'1938'
p1688
aS'Lock, Prop'
p1689
aS'Clermont-Ferrand'
p1690
aS'2'
aS'2'
aS'0'
aS'0'
aa(lp1691
S'Andre Rapin'
p1692
aS'1938'
p1693
aS'Centre'
p1694
aS'Bordeaux'
p1695
aS'1'
aS'1'
aS'0'
aS'0'
aa(lp1696
S'Guy Vassal'
p1697
aS'1938'
p1698
aS'Scrum-half, Fly-half'
p1699
aS'Carcassonne'
p1700
aS'2'
aS'2'
aS'0'
aS'0'
aa(lp1701
S'Jacques Palat'
p1702
aS'1938'
p1703
aS'Flanker'
p1704
aS'Saint-Cyprien'
p1705
aS'1'
aS'1'
aS'0'
aS'0'
aa(lp1706
S'Pierre Charton'
p1707
aS'1940'
p1708
aS'No. 8'
p1709
aS'Saint-Maur-des-Fosse'
p1710
aS'1'
aS'0'
aS'0'
aS'0'
aa(lp1711
S'Joseph Dutrey'
p1712
aS'1940'
p1713
aS'Lock'
p1714
aS'Puan'
p1715
aS'1'
aS'0'
aS'0'
aS'0'
aa(lp1716
S'Lucien Ferrand'
p1717
aS'1940'
p1718
aS'Flanker'
p1719
aS'Le Creusot'
p1720
aS'1'
aS'0'
aS'0'
aS'0'
aa(lp1721
S'Francois Meret'
p1722
aS'1940'
p1723
aS'Prop'
p1724
aS'Pontacq'
p1725
aS'1'
aS'0'
aS'0'
aS'0'
aa(lp1726
S'Roger Paul'
p1727
aS'1940'
p1728
aS'Hooker'
p1729
aS'Sauxillanges'
p1730
aS'1'
aS'0'
aS'0'
aS'0'
aa(lp1731
S'Henri Peyralade'
p1732
aS'1940'
p1733
aS'Scrum-half'
p1734
aS"Borderes-sur-l'Echez"
p1735
aS'1'
aS'0'
aS'0'
aS'0'
aa(lp1736
S'Robert Tourte'
p1737
aS'1940'
p1738
aS'Wing'
p1739
aS'Saint-Girons'
p1740
aS'1'
aS'0'
aS'0'
aS'0'
aa(lp1741
S'Marcel Tucoo-Chala'
p1742
aS'1940'
p1743
aS'Lock'
p1744
aS'Pau'
p1745
aS'1'
aS'0'
aS'0'
aS'0'
aa(lp1746
S'Georges Baladie'
p1747
aS'1945'
p1748
aS'Centre, Wing'
p1749
aS"Ville-d'Avray"
p1750
aS'6'
aS'3'
aS'3'
aS'9'
aa(lp1751
S'Yves Bergougnan'
p1752
aS'1945'
p1753
aS'Scrum-half'
p1754
aS'Toulouse'
p1755
aS'17'
p1756
aS'10'
p1757
aS'0'
aS'12'
p1758
aa(lp1759
S'Jean Dauger'
p1760
aS'1945'
p1761
aS'Centre'
p1762
aS'Cambo'
p1763
aS'3'
aS'2'
aS'2'
aS'6'
aa(lp1764
S'Robert Geneste'
p1765
aS'1945'
p1766
aS'Wing'
p1767
aS'Angouleme'
p1768
aS'2'
aS'2'
aS'0'
aS'0'
aa(lp1769
S'Auguste Jarasse'
p1770
aS'1945'
p1771
aS'Hooker'
p1772
aS'Ussel'
p1773
aS'1'
aS'1'
aS'0'
aS'0'
aa(lp1774
S'Louis Junquas'
p1775
aS'1945'
p1776
aS'Centre'
p1777
aS'Saint-Vincent-de-Tyr'
p1778
aS'13'
p1779
aS'7'
aS'0'
aS'0'
aa(lp1780
S'Jean Massare'
p1781
aS'1945'
p1782
aS'Lock, Prop'
p1783
aS'Fontenay-sous-Bois'
p1784
aS'6'
aS'4'
aS'1'
aS'3'
aa(lp1785
S'Roger Minjat'
p1786
aS'1945'
p1787
aS'Fullback'
p1788
aS'Venissieux'
p1789
aS'1'
aS'1'
aS'0'
aS'0'
aa(lp1790
S'Alban Moga'
p1791
aS'1945'
p1792
aS'Lock'
p1793
aS'Bordeaux'
p1794
aS'22'
p1795
aS'13'
p1796
aS'0'
aS'0'
aa(lp1797
S'Jean Prat'
p1798
aS'1945'
p1799
aS'Flanker'
p1800
aS'Lourdes'
p1801
aS'51'
p1802
aS'30'
p1803
aS'9'
aS'144'
p1804
aa(lp1805
S'Jean Prin-Clary'
p1806
aS'1945'
p1807
aS'Lock, Prop'
p1808
aS'Marseille'
p1809
aS'10'
p1810
aS'6'
aS'1'
aS'3'
aa(lp1811
S'Andre Sahuc'
p1812
aS'1945'
p1813
aS'No. 8'
p1814
aS'Castelnau-Montratier'
p1815
aS'2'
aS'1'
aS'1'
aS'3'
aa(lp1816
S'Robert Soro'
p1817
aS'1945'
p1818
aS'Lock'
p1819
aS'Odos'
p1820
aS'21'
p1821
aS'12'
p1822
aS'2'
aS'6'
aa(lp1823
S'Andre Alvarez'
p1824
aS'1945'
p1825
aS'Fullback, Fly-half'
p1826
aS'Bayonne'
p1827
aS'20'
p1828
aS'13'
p1829
aS'1'
aS'25'
p1830
aa(lp1831
S'Jacques Chaban-Delmas'
p1832
aS'1945'
p1833
aS'Wing'
p1834
aS'Paris'
p1835
aS'1'
aS'0'
aS'0'
aS'0'
aa(lp1836
S'Gaston Combes'
p1837
aS'1945'
p1838
aS'Scrum-half'
p1839
aS'Toulouse'
p1840
aS'1'
aS'0'
aS'0'
aS'0'
aa(lp1841
S'Lucien Rouffia'
p1842
aS'1945'
p1843
aS'Fullback'
p1844
aS'Narbonne'
p1845
aS'4'
aS'1'
aS'0'
aS'0'
aa(lp1846
S'Jean Vilagra'
p1847
aS'1945'
p1848
aS'Hooker'
p1849
aS'Saint-Etienne'
p1850
aS'1'
aS'0'
aS'0'
aS'0'
aa(lp1851
S'Guy Basquet'
p1852
aS'1945'
p1853
aS'Back-row'
p1854
aS'Layrac'
p1855
aS'33'
p1856
aS'17'
p1857
aS'8'
aS'24'
p1858
aa(lp1859
S'Henri Dutrain'
p1860
aS'1945'
p1861
aS'Centre, Wing'
p1862
aS'Toulouse'
p1863
aS'8'
aS'5'
aS'0'
aS'0'
aa(lp1864
S'Jean Matheu-Cambas'
p1865
aS'1945'
p1866
aS'Flanker'
p1867
aS'Gelos'
p1868
aS'24'
p1869
aS'14'
p1870
aS'1'
aS'3'
aa(lp1871
S'Elie Pebeyre'
p1872
aS'1945'
p1873
aS'Wing'
p1874
aS'Seilhac'
p1875
aS'8'
aS'4'
aS'1'
aS'3'
aa(lp1876
S'Maurice Terreau'
p1877
aS'1945'
p1878
aS'Centre, Fly-half'
p1879
aS'Bourg-en-Bresse'
p1880
aS'17'
p1881
aS'11'
p1882
aS'5'
aS'15'
p1883
aa(lp1884
S'Marcel Volot'
p1885
aS'1945'
p1886
aS'Hooker'
p1887
aS"Gonfreville l'Orcher"
p1888
aS'5'
aS'3'
aS'0'
aS'0'
aa(lp1889
S'Albert Kaempf'
p1890
aS'1946'
p1891
aS'Wing'
p1892
aS'Itxassou'
p1893
aS'1'
aS'1'
aS'0'
aS'0'
aa(lp1894
S'Eugene Buzy'
p1895
aS'1946'
p1896
aS'Prop, Lock'
p1897
aS'Benejacq'
p1898
aS'17'
p1899
aS'10'
p1900
aS'0'
aS'0'
aa(lp1901
S'Michel Sorondo'
p1902
aS'1946'
p1903
aS'Fullback, Centre'
p1904
aS'Hendaye'
p1905
aS'6'
aS'2'
aS'1'
aS'3'
aa(lp1906
S'Jean Lassegue'
p1907
aS'1946'
p1908
aS'Wing'
p1909
aS'Rieumes'
p1910
aS'9'
aS'7'
aS'5'
aS'15'
p1911
aa(lp1912
S'Marcel Jol'
p1913
aS'1947'
p1914
aS'Hooker'
p1915
aS'Biarritz'
p1916
aS'10'
p1917
aS'6'
aS'0'
aS'0'
aa(lp1918
S'Lucien Caron'
p1919
aS'1947'
p1920
aS'Prop'
p1921
aS'Lyon'
p1922
aS'10'
p1923
aS'6'
aS'1'
aS'3'
aa(lp1924
S'Gerard Dufau'
p1925
aS'1948'
p1926
aS'Scrum-half'
p1927
aS'Dax'
p1928
aS'38'
p1929
aS'21'
p1930
aS'2'
aS'6'
aa(lp1931
S'Pierre Jeanjean'
p1932
aS'1948'
p1933
aS'Wing'
p1934
aS'Port Vendres'
p1935
aS'1'
aS'0'
aS'0'
aS'0'
aa(lp1936
S'Lucien Martin'
p1937
aS'1948'
p1938
aS'Hooker'
p1939
aS'Pau'
p1940
aS'6'
aS'3'
aS'0'
aS'0'
aa(lp1941
S'Michel Pomathios'
p1942
aS'1948'
p1943
aS'Wing'
p1944
aS'Bourg-en-Bresse'
p1945
aS'24'
p1946
aS'12'
p1947
aS'6'
aS'18'
p1948
aa(lp1949
S'Leon Bordenave'
p1950
aS'1948'
p1951
aS'Fly-half, Centre'
p1952
aS'Odos'
p1953
aS'5'
aS'3'
aS'0'
aS'0'
aa(lp1954
S'Pierre Dizabo'
p1955
aS'1948'
p1956
aS'Fly-half, Centre'
p1957
aS'Saint-Vincent-de-Tyr'
p1958
aS'13'
p1959
aS'8'
aS'1'
aS'6'
aa(lp1960
S'Roger Lacaussade'
p1961
aS'1948'
p1962
aS'Wing'
p1963
aS'Captieux'
p1964
aS'2'
aS'1'
aS'1'
aS'3'
aa(lp1965
S'Pierre Aristouy'
p1966
aS'1948'
p1967
aS'Lock, Prop'
p1968
aS'Arette'
p1969
aS'6'
aS'2'
aS'0'
aS'0'
aa(lp1970
S'Maurice Siman'
p1971
aS'1948'
p1972
aS'Wing'
p1973
aS'Clermont-Ferrand'
p1974
aS'6'
aS'2'
aS'0'
aS'0'
aa(lp1975
S'Noel Baudry'
p1976
aS'1949'
p1977
aS'Fullback'
p1978
aS'Saint-Exupery-les-Ro'
p1979
aS'5'
aS'4'
aS'0'
aS'0'
aa(lp1980
S'Jean Pilon'
p1981
aS'1949'
p1982
aS'Fly-half'
p1983
aS'Bayonne'
p1984
aS'2'
aS'1'
aS'1'
aS'3'
aa(lp1985
S'Francis Desclaux'
p1986
aS'1949'
p1987
aS'Centre'
p1988
aS'Collioure'
p1989
aS'3'
aS'3'
aS'0'
aS'5'
aa(lp1990
S'Felix Lacrampe'
p1991
aS'1949'
p1992
aS'No. 8'
p1993
aS'Lannemezan'
p1994
aS'1'
aS'1'
aS'0'
aS'0'
aa(lp1995
S'Roger Arcalis'
p1996
aS'1950'
p1997
aS'Fullback'
p1998
aS'Tarbes'
p1999
aS'5'
aS'2'
aS'0'
aS'0'
aa(lp2000
S'Rene Bienes'
p2001
aS'1950'
p2002
aS'Flanker, Prop'
p2003
aS'Toulouse'
p2004
aS'29'
p2005
aS'16'
p2006
aS'4'
aS'12'
p2007
aa(lp2008
S'Firmin Bonnus'
p2009
aS'1950'
p2010
aS'Lock'
p2011
aS'Toulon'
p2012
aS'4'
aS'1'
aS'0'
aS'0'
aa(lp2013
S'Roger Ferrien'
p2014
aS'1950'
p2015
aS'Prop'
p2016
aS'Riscle'
p2017
aS'4'
aS'1'
aS'0'
aS'0'
aa(lp2018
S'Pierre Lauga'
p2019
aS'1950'
p2020
aS'Fly-half, Centre'
p2021
aS'Lucq-de-Bearn'
p2022
aS'4'
aS'1'
aS'0'
aS'3'
aa(lp2023
S'Pierre Lavergne'
p2024
aS'1950'
p2025
aS'Prop'
p2026
aS'Ciboure'
p2027
aS'1'
aS'0'
aS'0'
aS'0'
aa(lp2028
S'Jacques Merquey'
p2029
aS'1950'
p2030
aS'Centre'
p2031
aS'Souillac'
p2032
aS'4'
aS'1'
aS'1'
aS'3'
aa(lp2033
S'Daniel Herice'
p2034
aS'1950'
p2035
aS'Flanker'
p2036
aS'Saint-Emiliosen'
p2037
aS'1'
aS'0'
aS'0'
aS'0'
aa(lp2038
S'Paul Lasaosa'
p2039
aS'1950'
p2040
aS'Centre, Scrum-half, Halfback'
p2041
aS'Dax'
p2042
aS'6'
aS'3'
aS'0'
aS'0'
aa(lp2043
S'Pierre Pascalin'
p2044
aS'1950'
p2045
aS'Hooker'
p2046
aS'Saint-Gein'
p2047
aS'7'
aS'4'
aS'0'
aS'0'
aa(lp2048
S'Georges Brun'
p2049
aS'1950'
p2050
aS'Wing, Centre, Fullback'
p2051
aS'Aix-les-Bains'
p2052
aS'14'
p2053
aS'7'
aS'0'
aS'0'
aa(lp2054
S'Fernand Cazenave'
p2055
aS'1950'
p2056
aS'Wing'
p2057
aS'Orthez'
p2058
aS'6'
aS'5'
aS'1'
aS'3'
aa(lp2059
S'Franck Fournet'
p2060
aS'1950'
p2061
aS'Fly-half'
p2062
aS'Clermont-Ferrand'
p2063
aS'1'
aS'0'
aS'0'
aS'0'
aa(lp2064
S'Rene Bernard'
p2065
aS'1951'
p2066
aS'Prop'
p2067
aS'Bergerac'
p2068
aS'4'
aS'3'
aS'0'
aS'0'
aa(lp2069
S'Georges Carabignac'
p2070
aS'1951'
p2071
aS'Fly-half'
p2072
aS'Boe'
p2073
aS'7'
aS'2'
aS'0'
aS'9'
aa(lp2074
S'Henri Foures'
p2075
aS'1951'
p2076
aS'Lock'
p2077
aS'Issus'
p2078
aS'4'
aS'3'
aS'0'
aS'0'
aa(lp2079
S'Lucien Mias'
p2080
aS'1951'
p2081
aS'Lock'
p2082
aS'Saint-Germain-de-Cal'
p2083
aS'29'
p2084
aS'17'
p2085
aS'1'
aS'3'
aa(lp2086
S'Alain Porthault'
p2087
aS'1951'
p2088
aS'Wing'
p2089
aS'Vervins'
p2090
aS'7'
aS'5'
aS'3'
aS'9'
aa(lp2091
S'Guy Belletante'
p2092
aS'1951'
p2093
aS'Centre'
p2094
aS'Perigueux'
p2095
aS'3'
aS'2'
aS'0'
aS'0'
aa(lp2096
S'Pierre Bertrand'
p2097
aS'1951'
p2098
aS'Prop'
p2099
aS'Meximieux'
p2100
aS'8'
aS'4'
aS'0'
aS'13'
p2101
aa(lp2102
S'Dacien Olive'
p2103
aS'1951'
p2104
aS'Wing'
p2105
aS'Claira'
p2106
aS'2'
aS'0'
aS'1'
aS'3'
aa(lp2107
S'Maurice Prat'
p2108
aS'1951'
p2109
aS'Fullback'
p2110
aS'Lourdes'
p2111
aS'31'
p2112
aS'18'
p2113
aS'6'
aS'24'
p2114
aa(lp2115
S'Jean-Roger Bourdeu'
p2116
aS'1952'
p2117
aS'Flanker'
p2118
aS'Gan'
p2119
aS'9'
aS'3'
aS'1'
aS'3'
aa(lp2120
S'Rene Brejassou'
p2121
aS'1952'
p2122
aS'Prop, Lock'
p2123
aS'Aureilhan'
p2124
aS'15'
p2125
aS'8'
aS'1'
aS'3'
aa(lp2126
S'Bernard Chevallier'
p2127
aS'1952'
p2128
aS'Lock'
p2129
aS'Rougnat'
p2130
aS'26'
p2131
aS'15'
p2132
aS'0'
aS'0'
aa(lp2133
S'Roger Furcade'
p2134
aS'1952'
p2135
aS'Fly-half'
p2136
aS'Saint-Nazaire'
p2137
aS'1'
aS'1'
aS'0'
aS'0'
aa(lp2138
S'Paul Labadie'
p2139
aS'1952'
p2140
aS'Hooker'
p2141
aS'Bayonne'
p2142
aS'21'
p2143
aS'13'
p2144
aS'0'
aS'0'
aa(lp2145
S'Robert Labarthete'
p2146
aS'1952'
p2147
aS'Fullback, Scrum-half'
p2148
aS'Gan'
p2149
aS'1'
aS'1'
aS'0'
aS'0'
aa(lp2150
S'Roger Martine'
p2151
aS'1952'
p2152
aS'Fly-half, Fullback, Centre'
p2153
aS'Bellocq'
p2154
aS'25'
p2155
aS'20'
p2156
aS'1'
aS'6'
aa(lp2157
S'Francois Varenne'
p2158
aS'1952'
p2159
aS'Lock'
p2160
aS'Junay'
p2161
aS'1'
aS'1'
aS'0'
aS'0'
aa(lp2162
S'Antoine Labazuy'
p2163
aS'1952'
p2164
aS'Fly-half'
p2165
aS'Carcassonne'
p2166
aS'11'
p2167
aS'8'
aS'0'
aS'39'
p2168
aa(lp2169
S'Jean Colombier'
p2170
aS'1952'
p2171
aS'Wing'
p2172
aS'Saint-Julien-en-Gene'
p2173
aS'3'
aS'0'
aS'0'
aS'0'
aa(lp2174
S'Pierre Guilleux'
p2175
aS'1952'
p2176
aS'Fullback'
p2177
aS'Usseau'
p2178
aS'2'
aS'1'
aS'0'
aS'0'
aa(lp2179
S'Jacques Mauran'
p2180
aS'1952'
p2181
aS'Centre'
p2182
aS'Rignac'
p2183
aS'6'
aS'1'
aS'0'
aS'0'
aa(lp2184
S'Michel Lecointre'
p2185
aS'1952'
p2186
aS'Fly-half'
p2187
aS'Troyes'
p2188
aS'1'
aS'1'
aS'0'
aS'0'
aa(lp2189
S'Lucien Roge'
p2190
aS'1952'
p2191
aS'Wing, Centre'
p2192
aS'Cessenon'
p2193
aS'15'
p2194
aS'10'
p2195
aS'4'
aS'12'
p2196
aa(lp2197
S'Andre Sanac'
p2198
aS'1952'
p2199
aS'Prop, Lock'
p2200
aS'Trouillas'
p2201
aS'10'
p2202
aS'5'
aS'1'
aS'3'
aa(lp2203
S'Jean-Claude Rouan'
p2204
aS'1953'
p2205
aS'Fullback'
p2206
aS'Quillan'
p2207
aS'2'
aS'1'
aS'0'
aS'0'
aa(lp2208
S'Paul Tignol'
p2209
aS'1953'
p2210
aS'No. 8, Lock'
p2211
aS'Toulouse'
p2212
aS'2'
aS'1'
aS'0'
aS'0'
aa(lp2213
S'Julien Arrieta'
p2214
aS'1953'
p2215
aS'Hooker'
p2216
aS'Irun'
p2217
aS'2'
aS'0'
aS'0'
aS'0'
aa(lp2218
S'Robert Carrere'
p2219
aS'1953'
p2220
aS'Prop'
p2221
aS'Saint-Sever'
p2222
aS'2'
aS'1'
aS'0'
aS'0'
aa(lp2223
S'Michel Celaya'
p2224
aS'1953'
p2225
aS'Back-row'
p2226
aS'Biarritz'
p2227
aS'50'
p2228
aS'30'
p2229
aS'6'
aS'18'
p2230
aa(lp2231
S'Andre Haget'
p2232
aS'1953'
p2233
aS'Fly-half'
p2234
aS'Biarritz'
p2235
aS'14'
p2236
aS'10'
p2237
aS'1'
aS'3'
aa(lp2238
S'Laurent Bidart'
p2239
aS'1953'
p2240
aS'Fly-half'
p2241
aS'Le Boucau'
p2242
aS'1'
aS'0'
aS'0'
aS'0'
aa(lp2243
S'Henri Domec'
p2244
aS'1953'
p2245
aS'Flanker'
p2246
aS'Lourdes'
p2247
aS'20'
p2248
aS'15'
p2249
aS'1'
aS'3'
aa(lp2250
S'Joseph Galy'
p2251
aS'1953'
p2252
aS'Centre'
p2253
aS'Bages'
p2254
aS'1'
aS'0'
aS'0'
aS'0'
aa(lp2255
S'Michel Vannier'
p2256
aS'1953'
p2257
aS'Fullback'
p2258
aS'Etain'
p2259
aS'43'
p2260
aS'28'
p2261
aS'1'
aS'180'
p2262
aa(lp2263
S'Jean Darrieussecq'
p2264
aS'1953'
p2265
aS'Scrum-half'
p2266
aS'Peyrehorade'
p2267
aS'1'
aS'1'
aS'0'
aS'0'
aa(lp2268
S'Jean-Henri Pargade'
p2269
aS'1953'
p2270
aS'Centre'
p2271
aS'Bayonne'
p2272
aS'1'
aS'1'
aS'0'
aS'0'
aa(lp2273
S'Robert Baulon'
p2274
aS'1954'
p2275
aS'Back-row'
p2276
aS'Le Boucau'
p2277
aS'18'
p2278
aS'12'
p2279
aS'6'
aS'18'
p2280
aa(lp2281
S'Jacques Bouquet'
p2282
aS'1954'
p2283
aS'Fly-half, Centre'
p2284
aS'Tullins'
p2285
aS'34'
p2286
aS'20'
p2287
aS'3'
aS'21'
p2288
aa(lp2289
S'Andre Boniface'
p2290
aS'1954'
p2291
aS'Wing, Centre'
p2292
aS'Monfort-en-Chalosse'
p2293
aS'48'
p2294
aS'25'
p2295
aS'11'
p2296
aS'44'
p2297
aa(lp2298
S'Henri Claverie'
p2299
aS'1954'
p2300
aS'Fullback'
p2301
aS'Lourdes'
p2302
aS'2'
aS'1'
aS'0'
aS'0'
aa(lp2303
S'Amedee Domenech'
p2304
aS'1954'
p2305
aS'Prop, No. 8'
p2306
aS'Narbonne'
p2307
aS'52'
p2308
aS'32'
p2309
aS'8'
aS'24'
p2310
aa(lp2311
S'Pierre Albaladejo'
p2312
aS'1954'
p2313
aS'Fullback, Fly-half'
p2314
aS'Dax'
p2315
aS'30'
p2316
aS'19'
p2317
aS'0'
aS'104'
p2318
aa(lp2319
S'Jean Benetiere'
p2320
aS'1954'
p2321
aS'Hooker'
p2322
aS'Le Coteau'
p2323
aS'2'
aS'2'
aS'0'
aS'0'
aa(lp2324
S'Jean Bichindaritz'
p2325
aS'1954'
p2326
aS'Prop'
p2327
aS'Biarritz'
p2328
aS'3'
aS'3'
aS'0'
aS'0'
aa(lp2329
S'Gilbert Larreguy'
p2330
aS'1954'
p2331
aS'Flanker'
p2332
aS'Mouguerre'
p2333
aS'1'
aS'1'
aS'1'
aS'3'
aa(lp2334
S'Jacques Lepatey'
p2335
aS'1954'
p2336
aS'Wing'
p2337
aS"Salleles d'Aude"
p2338
aS'5'
aS'4'
aS'2'
aS'6'
aa(lp2339
S'Gerard Murillo'
p2340
aS'1954'
p2341
aS'Wing, Centre'
p2342
aS'Paris'
p2343
aS'2'
aS'2'
aS'3'
aS'9'
aa(lp2344
S'Jean Barthe'
p2345
aS'1954'
p2346
aS'Flanker, No. 8, Lock'
p2347
aS'Lourdes'
p2348
aS'26'
p2349
aS'17'
p2350
aS'0'
aS'0'
aa(lp2351
S'Robert Basauri'
p2352
aS'1954'
p2353
aS'Fly-half'
p2354
aS'Hendaye'
p2355
aS'1'
aS'1'
aS'0'
aS'0'
aa(lp2356
S'Philibert Capitani'
p2357
aS'1954'
p2358
aS'Lock'
p2359
aS'Frassivoro'
p2360
aS'2'
aS'2'
aS'0'
aS'0'
aa(lp2361
S'Pierre Danos'
p2362
aS'1954'
p2363
aS'Scrum-half'
p2364
aS'Toulouse'
p2365
aS'17'
p2366
aS'11'
p2367
aS'3'
aS'15'
p2368
aa(lp2369
S'Yves Duffaut'
p2370
aS'1954'
p2371
aS'Flanker'
p2372
aS'Samatan'
p2373
aS'2'
aS'2'
aS'0'
aS'0'
aa(lp2374
S'Jacques Meynard'
p2375
aS'1954'
p2376
aS'Fullback, Centre'
p2377
aS'Cognac'
p2378
aS'2'
aS'2'
aS'0'
aS'10'
p2379
aa(lp2380
S'Henri Lazies'
p2381
aS'1954'
p2382
aS'Lock, No. 8, Prop'
p2383
aS'Belloc-St-Clamens'
p2384
aS'4'
aS'3'
aS'0'
aS'0'
aa(lp2385
S'Andre Morel'
p2386
aS'1954'
p2387
aS'Wing'
p2388
aS'Grenoble'
p2389
aS'1'
aS'1'
aS'1'
aS'3'
aa(lp2390
S'Henri Rancoule'
p2391
aS'1955'
p2392
aS'Wing'
p2393
aS'Bram'
p2394
aS'27'
p2395
aS'19'
p2396
aS'8'
aS'24'
p2397
aa(lp2398
S'Jacques Chiberry'
p2399
aS'1955'
p2400
aS'Wing'
p2401
aS'Sauveterre-de-Bearn'
p2402
aS'1'
aS'1'
aS'0'
aS'0'
aa(lp2403
S'Michel Escommier'
p2404
aS'1955'
p2405
aS'Hooker'
p2406
aS'Montelimar'
p2407
aS'1'
aS'1'
aS'0'
aS'0'
aa(lp2408
S'Thomas Manterola'
p2409
aS'1955'
p2410
aS'No. 8, Prop'
p2411
aS'Ciboure'
p2412
aS'2'
aS'2'
aS'0'
aS'0'
aa(lp2413
S'Jean Carrere'
p2414
aS'1956'
p2415
aS'Flanker'
p2416
aS'Argeles-sur-Mer'
p2417
aS'8'
aS'2'
aS'0'
aS'0'
aa(lp2418
S'Jean-Vincent Dupuy'
p2419
aS'1956'
p2420
aS'Wing, Centre'
p2421
aS'Vic-en-Bigorre'
p2422
aS'40'
p2423
aS'22'
p2424
aS'19'
p2425
aS'57'
p2426
aa(lp2427
S'Gerard Roucaries'
p2428
aS'1956'
p2429
aS'Lock'
p2430
aS'Rivesaltes'
p2431
aS'1'
aS'0'
aS'0'
aS'0'
aa(lp2432
S'Guy Stener'
p2433
aS'1956'
p2434
aS'Wing, Centre'
p2435
aS'Vichy'
p2436
aS'5'
aS'3'
aS'0'
aS'0'
aa(lp2437
S'Serge Torreilles'
p2438
aS'1956'
p2439
aS'Wing'
p2440
aS'Baixas'
p2441
aS'1'
aS'0'
aS'0'
aS'0'
aa(lp2442
S'Robert Vigier'
p2443
aS'1956'
p2444
aS'Hooker'
p2445
aS'Lanobre'
p2446
aS'24'
p2447
aS'14'
p2448
aS'1'
aS'3'
aa(lp2449
S'Guy Pauthe'
p2450
aS'1956'
p2451
aS'Scrum-half'
p2452
aS'Graulhet'
p2453
aS'1'
aS'1'
aS'1'
aS'3'
aa(lp2454
S'Georges Gauby'
p2455
aS'1956'
p2456
aS'Scrum-half'
p2457
aS'Rivesaltes'
p2458
aS'1'
aS'1'
aS'0'
aS'0'
aa(lp2459
S'Francois Moncla'
p2460
aS'1956'
p2461
aS'Flanker, Lock'
p2462
aS'Louvie-Juzon'
p2463
aS'31'
p2464
aS'18'
p2465
aS'7'
aS'21'
p2466
aa(lp2467
S'Rene Monie'
p2468
aS'1956'
p2469
aS'Centre'
p2470
aS'Theza'
p2471
aS'2'
aS'1'
aS'1'
aS'3'
aa(lp2472
S'Christian Darrouy'
p2473
aS'1957'
p2474
aS'Wing'
p2475
aS'Pouydesseaux'
p2476
aS'40'
p2477
aS'22'
p2478
aS'23'
p2479
aS'69'
p2480
aa(lp2481
S'Michel Hoche'
p2482
aS'1957'
p2483
aS'Lock'
p2484
aS'Levallois-Perret'
p2485
aS'5'
aS'2'
aS'0'
aS'0'
aa(lp2486
S'Paul Cassagne'
p2487
aS'1957'
p2488
aS'Lock'
p2489
aS'Tarbes'
p2490
aS'1'
aS'1'
aS'0'
aS'10'
p2491
aa(lp2492
S'Roland Darracq'
p2493
aS'1957'
p2494
aS'Flanker'
p2495
aS'Dax'
p2496
aS'1'
aS'1'
aS'0'
aS'0'
aa(lp2497
S'Gerard Mauduy'
p2498
aS'1957'
p2499
aS'Wing'
p2500
aS'Perigueux'
p2501
aS'7'
aS'5'
aS'2'
aS'6'
aa(lp2502
S'Michel Crauste'
p2503
aS'1957'
p2504
aS'Back-row'
p2505
aS'Saint-Laurent-de-Gos'
p2506
aS'63'
p2507
aS'38'
p2508
aS'10'
p2509
aS'30'
p2510
aa(lp2511
S'Adrien Normand'
p2512
aS'1957'
p2513
aS'Lock'
p2514
aS'Orthevielle'
p2515
aS'1'
aS'1'
aS'0'
aS'0'
aa(lp2516
S'Christian Vignes'
p2517
aS'1957'
p2518
aS'Centre, Fly-half'
p2519
aS'Biarritz'
p2520
aS'4'
aS'2'
aS'1'
aS'3'
aa(lp2521
S'Aldo Quaglio'
p2522
aS'1957'
p2523
aS'Prop, Flanker'
p2524
aS'Saverdun'
p2525
aS'13'
p2526
aS'8'
aS'1'
aS'3'
aa(lp2527
S'Pierre Lacroix'
p2528
aS'1958'
p2529
aS'Scrum-half'
p2530
aS'Houeill'
p2531
aS'27'
p2532
aS'16'
p2533
aS'4'
aS'12'
p2534
aa(lp2535
S'Alfred Roques'
p2536
aS'1958'
p2537
aS'Prop'
p2538
aS'Cazes-Mondenard'
p2539
aS'30'
p2540
aS'22'
p2541
aS'0'
aS'0'
aa(lp2542
S'Pierre Tarricq'
p2543
aS'1958'
p2544
aS'Wing'
p2545
aS'Labouheyre'
p2546
aS'4'
aS'4'
aS'1'
aS'3'
aa(lp2547
S'Arnaud Marquesuzaa'
p2548
aS'1958'
p2549
aS'Centre'
p2550
aS'Mauleon'
p2551
aS'10'
p2552
aS'7'
aS'1'
aS'3'
aa(lp2553
S'Bernard Mommejat'
p2554
aS'1958'
p2555
aS'Lock'
p2556
aS'Paris'
p2557
aS'22'
p2558
aS'14'
p2559
aS'2'
aS'6'
aa(lp2560
S'Pierre Lacaze'
p2561
aS'1958'
p2562
aS'Fullback'
p2563
aS'Pontacq'
p2564
aS'7'
aS'4'
aS'0'
aS'14'
p2565
aa(lp2566
S'Louis Casaux'
p2567
aS'1959'
p2568
aS'Centre, Fullback'
p2569
aS'Tarbes'
p2570
aS'3'
aS'2'
aS'2'
aS'6'
aa(lp2571
S'Claude Mantoulan'
p2572
aS'1959'
p2573
aS'Fly-half'
p2574
aS'Pau'
p2575
aS'1'
aS'0'
aS'0'
aS'0'
aa(lp2576
S'Serge Mericq'
p2577
aS'1959'
p2578
aS'Wing'
p2579
aS'La Reole'
p2580
aS'5'
aS'3'
aS'2'
aS'6'
aa(lp2581
S'Jean de Gregorio'
p2582
aS'1960'
p2583
aS'Hooker'
p2584
aS'Romans-sur-Isere'
p2585
aS'22'
p2586
aS'14'
p2587
aS'1'
aS'3'
aa(lp2588
S'Sylvain Meyer'
p2589
aS'1960'
p2590
aS'Back-row'
p2591
aS'Strasbourg'
p2592
aS'5'
aS'3'
aS'2'
aS'6'
aa(lp2593
S'Guy Boniface'
p2594
aS'1960'
p2595
aS'Centre'
p2596
aS'Monfort-en-Chalosse'
p2597
aS'35'
p2598
aS'19'
p2599
aS'15'
p2600
aS'45'
p2601
aa(lp2602
S'Herve Larrue'
p2603
aS'1960'
p2604
aS'Lock'
p2605
aS'Boissezon'
p2606
aS'7'
aS'6'
aS'1'
aS'3'
aa(lp2607
S'Jean-Pierre Saux'
p2608
aS'1960'
p2609
aS'Prop, Lock'
p2610
aS'Paris'
p2611
aS'22'
p2612
aS'14'
p2613
aS'2'
aS'6'
aa(lp2614
S'Raoul Barriere'
p2615
aS'1960'
p2616
aS'Prop'
p2617
aS'Beziers'
p2618
aS'1'
aS'0'
aS'0'
aS'0'
aa(lp2619
S'Roger Brethes'
p2620
aS'1960'
p2621
aS'Fullback'
p2622
aS'Saint-Sever'
p2623
aS'1'
aS'1'
aS'0'
aS'3'
aa(lp2624
S'Michel Lacome'
p2625
aS'1960'
p2626
aS'Centre'
p2627
aS'Bagneres-de-Bigorre'
p2628
aS'1'
aS'1'
aS'0'
aS'0'
aa(lp2629
S'Jean Othats'
p2630
aS'1960'
p2631
aS'Wing'
p2632
aS'Bugnein'
p2633
aS'2'
aS'2'
aS'0'
aS'0'
aa(lp2634
S'Roland Crancee'
p2635
aS'1960'
p2636
aS'No. 8'
p2637
aS'Treveray'
p2638
aS'2'
aS'2'
aS'1'
aS'3'
aa(lp2639
S'Jacques Rollet'
p2640
aS'1960'
p2641
aS'Hooker'
p2642
aS'Bayonne'
p2643
aS'5'
aS'4'
aS'0'
aS'0'
aa(lp2644
S'Louis Echave'
p2645
aS'1961'
p2646
aS'Flanker, Lock'
p2647
aS'Ciboure'
p2648
aS'1'
aS'1'
aS'0'
aS'0'
aa(lp2649
S'Jean Gachassin'
p2650
aS'1961'
p2651
aS'Fullback, Wing, Centre, Fly-half'
p2652
aS'Bagneres-de-Bigorre'
p2653
aS'32'
p2654
aS'19'
p2655
aS'8'
aS'32'
p2656
aa(lp2657
S'Gerard Bouguyon'
p2658
aS'1961'
p2659
aS'Lock, Prop'
p2660
aS'Quimerch'
p2661
aS'9'
aS'4'
aS'1'
aS'3'
aa(lp2662
S'Marcel Puget'
p2663
aS'1961'
p2664
aS'Scrum-half'
p2665
aS'Limoux'
p2666
aS'17'
p2667
aS'6'
aS'0'
aS'3'
aa(lp2668
S'Guy Calvo'
p2669
aS'1961'
p2670
aS'Fullback, Wing, Centre'
p2671
aS'Tarbes'
p2672
aS'2'
aS'0'
aS'0'
aS'0'
aa(lp2673
S'Pierre Cazals'
p2674
aS'1961'
p2675
aS'Prop'
p2676
aS'Mont-de-Marsan'
p2677
aS'3'
aS'1'
aS'0'
aS'0'
aa(lp2678
S'Jean Laudouar'
p2679
aS'1961'
p2680
aS'Hooker'
p2681
aS'Soustons'
p2682
aS'5'
aS'1'
aS'0'
aS'0'
aa(lp2683
S'Claude Lacaze'
p2684
aS'1961'
p2685
aS'Fullback'
p2686
aS'Pontacq'
p2687
aS'33'
p2688
aS'18'
p2689
aS'1'
aS'59'
p2690
aa(lp2691
S'Roland Lefevre'
p2692
aS'1961'
p2693
aS'No. 8'
p2694
aS'La Flamengrie'
p2695
aS'1'
aS'0'
aS'0'
aS'0'
aa(lp2696
S'Jean Pique'
p2697
aS'1961'
p2698
aS'Wing, Centre'
p2699
aS'Pau'
p2700
aS'18'
p2701
aS'11'
p2702
aS'2'
aS'6'
aa(lp2703
S'Guy Camberabero'
p2704
aS'1961'
p2705
aS'Fly-half'
p2706
aS'Soubion'
p2707
aS'14'
p2708
aS'10'
p2709
aS'2'
aS'110'
p2710
aa(lp2711
S'Marcel Cassiede'
p2712
aS'1961'
p2713
aS'Lock'
p2714
aS'Gousse'
p2715
aS'3'
aS'1'
aS'0'
aS'0'
aa(lp2716
S'Serge Plantey'
p2717
aS'1961'
p2718
aS'Wing, Fly-half'
p2719
aS'Salles'
p2720
aS'2'
aS'2'
aS'0'
aS'0'
aa(lp2721
S'Rene le Bourhis'
p2722
aS'1961'
p2723
aS'Lock'
p2724
aS'Saint-Malo-de-Guersa'
p2725
aS'1'
aS'0'
aS'0'
aS'0'
aa(lp2726
S'Henri Marracq'
p2727
aS'1961'
p2728
aS'Flanker'
p2729
aS'Pontacq'
p2730
aS'1'
aS'0'
aS'1'
aS'3'
aa(lp2731
S'Roger Gensane'
p2732
aS'1962'
p2733
aS'Flanker'
p2734
aS'Severac-le-Chateau'
p2735
aS'7'
aS'4'
aS'0'
aS'0'
aa(lp2736
S'Henri Romero'
p2737
aS'1962'
p2738
aS'Back-row'
p2739
aS'Sigean'
p2740
aS'7'
aS'4'
aS'0'
aS'0'
aa(lp2741
S'Claude Laborde'
p2742
aS'1962'
p2743
aS'Wing, Scrum-half'
p2744
aS'Peyrehorade'
p2745
aS'5'
aS'2'
aS'0'
aS'0'
aa(lp2746
S'Michel Arino'
p2747
aS'1962'
p2748
aS'Wing'
p2749
aS"Penne-d'Agenais"
p2750
aS'1'
aS'0'
aS'0'
aS'0'
aa(lp2751
S'Maurice Lira'
p2752
aS'1962'
p2753
aS'Flanker, No. 8, Lock'
p2754
aS'La Mure'
p2755
aS'13'
p2756
aS'8'
aS'2'
aS'6'
aa(lp2757
S'Francis Mas'
p2758
aS'1962'
p2759
aS'Prop'
p2760
aS'Cazouls-les-Beziers'
p2761
aS'5'
aS'2'
aS'0'
aS'0'
aa(lp2762
S'Pierre Razat'
p2763
aS'1962'
p2764
aS'Centre, Fullback'
p2765
aS'Fumel'
p2766
aS'4'
aS'1'
aS'0'
aS'0'
aa(lp2767
S'Pierre Besson'
p2768
aS'1963'
p2769
aS'Wing'
p2770
aS'Saint-Astier'
p2771
aS'5'
aS'2'
aS'0'
aS'0'
aa(lp2772
S'Jean Fabre'
p2773
aS'1963'
p2774
aS'No. 8'
p2775
aS'Rodez'
p2776
aS'8'
aS'3'
aS'0'
aS'0'
aa(lp2777
S'Fernand Zago'
p2778
aS'1963'
p2779
aS'Prop'
p2780
aS'Saint-Lys'
p2781
aS'2'
aS'1'
aS'0'
aS'0'
aa(lp2782
S'Paul Dedieu'
p2783
aS'1963'
p2784
aS'Fullback'
p2785
aS'Toulouse'
p2786
aS'12'
p2787
aS'8'
aS'0'
aS'25'
p2788
aa(lp2789
S'Raymond Rebujent'
p2790
aS'1963'
p2791
aS'Hooker'
p2792
aS'Elne'
p2793
aS'1'
aS'0'
aS'0'
aS'0'
aa(lp2794
S'Roger Fite'
p2795
aS'1963'
p2796
aS'No. 8, Lock'
p2797
aS'Cabrerolles'
p2798
aS'2'
aS'2'
aS'0'
aS'0'
aa(lp2799
S'Jean-Claude Lasserre'
p2800
aS'1963'
p2801
aS'Halfback, Scrum-half'
p2802
aS'Hussein Dey'
p2803
aS'13'
p2804
aS'8'
aS'0'
aS'3'
aa(lp2805
S'Jean le Droff'
p2806
aS'1963'
p2807
aS'Lock'
p2808
aS'Ordan-Larroque'
p2809
aS'9'
aS'4'
aS'0'
aS'0'
aa(lp2810
S'Lucien Abadie'
p2811
aS'1963'
p2812
aS'Prop'
p2813
aS'Bouilh Devant'
p2814
aS'1'
aS'0'
aS'0'
aS'0'
aa(lp2815
S'Jean-Claude Berejnoi'
p2816
aS'1963'
p2817
aS'Prop'
p2818
aS'Decazeville'
p2819
aS'27'
p2820
aS'19'
p2821
aS'0'
aS'0'
aa(lp2822
S'Jean-Michel Cabanier'
p2823
aS'1963'
p2824
aS'Hooker'
p2825
aS'Lavilledieu-du-Templ'
p2826
aS'26'
p2827
aS'18'
p2828
aS'4'
aS'12'
p2829
aa(lp2830
S'Andre Herrero'
p2831
aS'1963'
p2832
aS'Back-row'
p2833
aS'Puisserguier'
p2834
aS'22'
p2835
aS'14'
p2836
aS'2'
aS'6'
aa(lp2837
S'Jean-Joseph Rupert'
p2838
aS'1963'
p2839
aS'Flanker'
p2840
aS'Saint-Jean-de-Marsac'
p2841
aS'14'
p2842
aS'9'
aS'4'
aS'12'
p2843
aa(lp2844
S'Jacques Bayardon'
p2845
aS'1964'
p2846
aS'Prop'
p2847
aS'Macon'
p2848
aS'3'
aS'0'
aS'0'
aS'0'
aa(lp2849
S'Benoit Dauga'
p2850
aS'1964'
p2851
aS'Lock, No. 8'
p2852
aS'Montgaillard'
p2853
aS'63'
p2854
aS'30'
p2855
aS'11'
p2856
aS'34'
p2857
aa(lp2858
S'Jean-Baptiste Amestoy'
p2859
aS'1964'
p2860
aS'Prop'
p2861
aS'Ustaritz'
p2862
aS'2'
aS'0'
aS'0'
aS'0'
aa(lp2863
S'Jean-Claude Hiquet'
p2864
aS'1964'
p2865
aS'Fly-half'
p2866
aS'Soustons'
p2867
aS'1'
aS'0'
aS'0'
aS'0'
aa(lp2868
S'Arnaldo Gruarin'
p2869
aS'1964'
p2870
aS'Prop'
p2871
aS'Bagnara'
p2872
aS'26'
p2873
aS'19'
p2874
aS'2'
aS'6'
aa(lp2875
S'Yves Menthillier'
p2876
aS'1964'
p2877
aS'Hooker'
p2878
aS'Bourg-en-Bresse'
p2879
aS'5'
aS'3'
aS'0'
aS'0'
aa(lp2880
S'Michel Sitjar'
p2881
aS'1964'
p2882
aS'Flanker'
p2883
aS'Castelsagrat'
p2884
aS'13'
p2885
aS'10'
p2886
aS'1'
aS'3'
aa(lp2887
S'Andre Abadie'
p2888
aS'1964'
p2889
aS'Hooker'
p2890
aS'Aureilhan'
p2891
aS'1'
aS'1'
aS'0'
aS'0'
aa(lp2892
S'Michel Arnaudet'
p2893
aS'1964'
p2894
aS'Centre, Wing'
p2895
aS'Lourdes'
p2896
aS'3'
aS'3'
aS'4'
aS'12'
p2897
aa(lp2898
S'Jean Capdouze'
p2899
aS'1964'
p2900
aS'Centre, Fly-half'
p2901
aS'Salies-de-Bearn'
p2902
aS'6'
aS'4'
aS'2'
aS'6'
aa(lp2903
S'Walter Spanghero'
p2904
aS'1964'
p2905
aS'No. 8, Lock, Flanker'
p2906
aS"Payra-sur-l'Hers"
p2907
aNaNaNaNaa(lp2908
S'Lilian Camberabero'
p2909
aS'1964'
p2910
aS'Scrum-half'
p2911
aS'Saint-Vincent-de-Tyr'
p2912
aS'13'
p2913
aS'11'
p2914
aS'2'
aS'9'
aa(lp2915
S'Andre Campaes'
p2916
aS'1965'
p2917
aS'Wing'
p2918
aS'Lourdes'
p2919
aS'14'
p2920
aS'8'
aS'4'
aS'12'
p2921
aa(lp2922
S'Andre Abadie'
p2923
aS'1965'
p2924
aS'Prop'
p2925
aS'Toulouse'
p2926
aS'7'
aS'4'
aS'0'
aS'0'
aa(lp2927
S'Elie Cester'
p2928
aS'1966'
p2929
aS'Lock'
p2930
aS"L'Isle-Jourdain"
p2931
aS'35'
p2932
aS'18'
p2933
aS'1'
aS'3'
aa(lp2934
S'Jean-Claude Roques'
p2935
aS'1966'
p2936
aS'Fly-half'
p2937
aS'Brive'
p2938
aS'4'
aS'3'
aS'0'
aS'0'
aa(lp2939
S'Bernard Duprat'
p2940
aS'1966'
p2941
aS'Wing'
p2942
aS'Bayonne'
p2943
aS'15'
p2944
aS'9'
aS'9'
aS'31'
p2945
aa(lp2946
S'Jean-Claude Lagrange'
p2947
aS'1966'
p2948
aS'Centre'
p2949
aS'Perigueux'
p2950
aS'1'
aS'1'
aS'1'
aS'3'
aa(lp2951
S'Jo Maso'
p2952
aS'1966'
p2953
aS'Fly-half, Centre'
p2954
aS'Toulouse'
p2955
aS'25'
p2956
aS'12'
p2957
aS'4'
aS'15'
p2958
aa(lp2959
S'Christian Carrere'
p2960
aS'1966'
p2961
aS'Flanker'
p2962
aS'Tarbes'
p2963
aS'27'
p2964
aS'15'
p2965
aS'4'
aS'12'
p2966
aa(lp2967
S'Claude Dourthe'
p2968
aS'1966'
p2969
aS'Centre'
p2970
aS'Magescq'
p2971
aS'33'
p2972
aS'17'
p2973
aS'10'
p2974
aS'40'
p2975
aa(lp2976
S'Jean Salut'
p2977
aS'1966'
p2978
aS'Flanker'
p2979
aS'Beaumont-de-Lomagne'
p2980
aS'7'
aS'4'
aS'1'
aS'3'
aa(lp2981
S'Jean-Pierre Mir'
p2982
aS'1967'
p2983
aS'Centre'
p2984
aS'Saint-Lary'
p2985
aS'1'
aS'1'
aS'0'
aS'0'
aa(lp2986
S'Jean-Pierre Lux'
p2987
aS'1967'
p2988
aS'Centre, Wing'
p2989
aS'Saint-Vincent-de-Tyr'
p2990
aS'47'
p2991
aS'22'
p2992
aS'12'
p2993
aS'42'
p2994
aa(lp2995
S'Jacques Fort'
p2996
aS'1967'
p2997
aS'Prop, Lock'
p2998
aS'Bordeaux'
p2999
aS'7'
aS'4'
aS'0'
aS'0'
aa(lp3000
S'Pierre Villepreux'
p3001
aS'1967'
p3002
aS'Fullback, Fly-half'
p3003
aS'Pompadour'
p3004
aS'34'
p3005
aS'14'
p3006
aS'2'
aS'166'
p3007
aa(lp3008
S'Jean-Michel Esponda'
p3009
aS'1967'
p3010
aS'Prop'
p3011
aS'Hendaye'
p3012
aS'10'
p3013
aS'1'
aS'0'
aS'0'
aa(lp3014
S'Andre Quilis'
p3015
aS'1967'
p3016
aS'Flanker, Wing'
p3017
aS'Coursan'
p3018
aS'5'
aS'1'
aS'0'
aS'0'
aa(lp3019
S'Jean-Louis Dehez'
p3020
aS'1967'
p3021
aS'Fly-half, Fullback'
p3022
aS'Mont-de-Marsan'
p3023
aS'2'
aS'1'
aS'0'
aS'11'
p3024
aa(lp3025
S'Michel Lasserre'
p3026
aS'1967'
p3027
aS'Lock, No. 8, Prop'
p3028
aS'Le Cause'
p3029
aS'15'
p3030
aS'5'
aS'0'
aS'0'
aa(lp3031
S'Jean-Claude Malbet'
p3032
aS'1967'
p3033
aS'Hooker'
p3034
aS'Larresingle'
p3035
aS'2'
aS'0'
aS'0'
aS'0'
aa(lp3036
S'Alain Plantefol'
p3037
aS'1967'
p3038
aS'Lock'
p3039
aS'Colombes'
p3040
aS'11'
p3041
aS'5'
aS'1'
aS'3'
aa(lp3042
S'Gerard Sutra'
p3043
aS'1967'
p3044
aS'Scrum-half'
p3045
aS'Narbonne'
p3046
aS'4'
aS'2'
aS'0'
aS'0'
aa(lp3047
S'Jacques Londios'
p3048
aS'1967'
p3049
aS'Wing'
p3050
aS'Montauban'
p3051
aS'1'
aS'1'
aS'0'
aS'0'
aa(lp3052
S'Jean Trillo'
p3053
aS'1967'
p3054
aS'Centre'
p3055
aS'Condom'
p3056
aS'28'
p3057
aS'12'
p3058
aS'6'
aS'19'
p3059
aa(lp3060
S'Jacques Crampagne'
p3061
aS'1967'
p3062
aS'Fullback, Wing'
p3063
aS'Foix'
p3064
aS'1'
aS'0'
aS'0'
aS'0'
aa(lp3065
S'Jean-Michel Capendeguy'
p3066
aS'1967'
p3067
aS'Wing'
p3068
aS'Ciboure'
p3069
aS'2'
aS'1'
aS'1'
aS'3'
aa(lp3070
S'Jean-Jacques Lenient'
p3071
aS'1967'
p3072
aS'Wing'
p3073
aS'Saint-Prix'
p3074
aS'1'
aS'1'
aS'0'
aS'0'
aa(lp3075
S'Jean-Henri Mir'
p3076
aS'1967'
p3077
aS'Scrum-half'
p3078
aS'Saint-Lary'
p3079
aS'2'
aS'2'
aS'0'
aS'0'
aa(lp3080
S'Jean-Marie Bonal'
p3081
aS'1968'
p3082
aS'Wing'
p3083
aS'Saint-Cirgues-de-Jor'
p3084
aS'14'
p3085
aS'5'
aS'5'
aS'15'
p3086
aa(lp3087
S'Jean-Claude Noble'
p3088
aS'1968'
p3089
aS'Prop'
p3090
aS'Marseille'
p3091
aS'6'
aS'3'
aS'0'
aS'0'
aa(lp3092
S'Michel Yachvili'
p3093
aS'1968'
p3094
aS'Hooker, Flanker'
p3095
aS'Tulle'
p3096
aS'15'
p3097
aS'5'
aS'0'
aS'0'
aa(lp3098
S'Michel Greffe'
p3099
aS'1968'
p3100
aS'Back-row'
p3101
aS'Lyon'
p3102
aS'5'
aS'2'
aS'0'
aS'0'
aa(lp3103
S'Jean-Paul Baux'
p3104
aS'1968'
p3105
aS'Hooker'
p3106
aS'Larroque'
p3107
aS'4'
aS'0'
aS'0'
aS'0'
aa(lp3108
S'Jean Iracabal'
p3109
aS'1968'
p3110
aS'Prop'
p3111
aS'Larressore'
p3112
aS'34'
p3113
aS'15'
p3114
aS'0'
aS'0'
aa(lp3115
S'Andre Piazza'
p3116
aS'1968'
p3117
aS'Wing'
p3118
aS'Moissac'
p3119
aS'2'
aS'0'
aS'0'
aS'0'
aa(lp3120
S'Christian Boujet'
p3121
aS'1968'
p3122
aS'Fullback, Fly-half'
p3123
aS'Jarrie'
p3124
aS'3'
aS'0'
aS'1'
aS'5'
aa(lp3125
S'Bernard Dutin'
p3126
aS'1968'
p3127
aS'Lock, Flanker'
p3128
aS'Thomes'
p3129
aS'4'
aS'0'
aS'0'
aS'0'
aa(lp3130
S'Jean-Louis Berot'
p3131
aS'1968'
p3132
aS'Scrum-half, Fly-half'
p3133
aS'Dax'
p3134
aS'21'
p3135
aS'7'
aS'1'
aS'23'
p3136
aa(lp3137
S'Michel Billiere'
p3138
aS'1968'
p3139
aS'Back-row'
p3140
aS'Salles-sur-Garonne'
p3141
aS'1'
aS'0'
aS'0'
aS'0'
aa(lp3142
S'Claude Chenevay'
p3143
aS'1968'
p3144
aS'Flanker'
p3145
aS'Grenoble'
p3146
aS'1'
aS'0'
aS'0'
aS'0'
aa(lp3147
S'Henri Magois'
p3148
aS'1968'
p3149
aS'Fullback'
p3150
aS'La Rochelle'
p3151
aS'3'
aS'0'
aS'0'
aS'0'
aa(lp3152
S'Dominique Bontemps'
p3153
aS'1968'
p3154
aS'Flanker'
p3155
aS'Rochefort'
p3156
aS'1'
aS'0'
aS'0'
aS'0'
aa(lp3157
S'Lucien Paries'
p3158
aS'1968'
p3159
aS'Fly-half'
p3160
aS'Anglet'
p3161
aS'8'
aS'4'
aS'0'
aS'46'
p3162
aa(lp3163
S'Andre Ruiz'
p3164
aS'1968'
p3165
aS'Centre'
p3166
aS'Semeac'
p3167
aS'2'
aS'0'
aS'0'
aS'0'
aa(lp3168
S'Jean Sillieres'
p3169
aS'1968'
p3170
aS'Wing'
p3171
aS'Marciac'
p3172
aS'8'
aS'4'
aS'3'
aS'10'
p3173
aa(lp3174
S'Pierre Biemouret'
p3175
aS'1969'
p3176
aS'Flanker'
p3177
aS"Mas d'Auvignon"
p3178
aS'19'
p3179
aS'8'
aS'1'
aS'4'
aa(lp3180
S'Michel Hauser'
p3181
aS'1969'
p3182
aS'Flanker'
p3183
aS'Lourdes'
p3184
aS'1'
aS'0'
aS'0'
aS'0'
aa(lp3185
S'Basile Moraitis'
p3186
aS'1969'
p3187
aS'Wing'
p3188
aS'Marseille'
p3189
aS'2'
aS'0'
aS'0'
aS'0'
aa(lp3190
S'Christian Swierczinski'
p3191
aS'1969'
p3192
aS'Hooker'
p3193
aS'Saint-Mayme-de-Perey'
p3194
aS'2'
aS'0'
aS'0'
aS'0'
aa(lp3195
S'Jean-Louis Azarete'
p3196
aS'1969'
p3197
aS'Prop'
p3198
aS'Urrugne'
p3199
aS'26'
p3200
aS'11'
p3201
aS'0'
aS'0'
aa(lp3202
S'Rene Benesis'
p3203
aS'1969'
p3204
aS'Hooker'
p3205
aS'Orthez'
p3206
aS'30'
p3207
aS'15'
p3208
aS'0'
aS'0'
aa(lp3209
S'Gerard Viard'
p3210
aS'1969'
p3211
aS'Centre, Flanker'
p3212
aS'Saint-Jean-de-Saucie'
p3213
aS'5'
aS'3'
aS'0'
aS'0'
aa(lp3214
S'Jean-Pierre Bastiat'
p3215
aS'1969'
p3216
aS'No. 8, Lock'
p3217
aS'Pouillon'
p3218
aS'32'
p3219
aS'21'
p3220
aS'4'
aS'24'
p3221
aa(lp3222
S'Roger Bourgarel'
p3223
aS'1969'
p3224
aS'Wing'
p3225
aS'Toulouse'
p3226
aS'9'
aS'6'
aS'1'
aS'3'
aa(lp3227
S'Pierre Darbos'
p3228
aS'1969'
p3229
aS'Flanker'
p3230
aS'Saint-Paul-les-Dax'
p3231
aS'1'
aS'1'
aS'0'
aS'0'
aa(lp3232
S'Alain Marot'
p3233
aS'1969'
p3234
aS'Centre'
p3235
aS'Bergerac'
p3236
aS'7'
aS'4'
aS'0'
aS'0'
aa(lp3237
S'Michel Savitsky'
p3238
aS'1969'
p3239
aS'Lock'
p3240
aS'Sarrians'
p3241
aS'1'
aS'1'
aS'0'
aS'0'
aa(lp3242
S'Jack Cantoni'
p3243
aS'1970'
p3244
aS'Fullback, Wing'
p3245
aS'Carmaux'
p3246
aS'17'
p3247
aS'6'
aS'3'
aS'13'
p3248
aa(lp3249
S'Michel Pebeyre'
p3250
aS'1970'
p3251
aS'Scrum-half'
p3252
aS'Brive'
p3253
aS'7'
aS'3'
aS'1'
aS'3'
aa(lp3254
S'Max Barrau'
p3255
aS'1971'
p3256
aS'Scrum-half'
p3257
aS'Beaumont-de-Lomagne'
p3258
aS'15'
p3259
aS'8'
aS'1'
aS'4'
aa(lp3260
S'Daniel Dubois'
p3261
aS'1971'
p3262
aS'Flanker'
p3263
aS'Le Havre'
p3264
aS'1'
aS'1'
aS'0'
aS'0'
aa(lp3265
S'Marc Etcheverry'
p3266
aS'1971'
p3267
aS'Prop'
p3268
aS'Pau'
p3269
aS'2'
aS'1'
aS'0'
aS'0'
aa(lp3270
S'Roland Bertranne'
p3271
aS'1971'
p3272
aS'Wing, Centre'
p3273
aS'Ibos'
p3274
aS'69'
p3275
aS'38'
p3276
aS'17'
p3277
aS'66'
p3278
aa(lp3279
S'Claude Spanghero'
p3280
aS'1971'
p3281
aS'Lock, No. 8'
p3282
aS"Payra-sur-l'Hers"
p3283
aNaNaNaNaa(lp3284
S'Alain Esteve'
p3285
aS'1971'
p3286
aS'Lock, Flanker, No. 8'
p3287
aS'Castelnaudary'
p3288
aS'20'
p3289
aS'7'
aS'0'
aS'0'
aa(lp3290
S'Jean-Claude Skrela'
p3291
aS'1971'
p3292
aS'Flanker'
p3293
aS'Cornebarrieu'
p3294
aS'46'
p3295
aS'27'
p3296
aS'6'
aS'24'
p3297
aa(lp3298
S'Jean-Michel Aguirre'
p3299
aS'1971'
p3300
aS'Scrum-half, Fullback'
p3301
aS'Tostat'
p3302
aS'39'
p3303
aS'25'
p3304
aS'2'
aS'123'
p3305
aa(lp3306
S'Victor Boffelli'
p3307
aS'1971'
p3308
aS'Flanker'
p3309
aS'Arques'
p3310
aS'18'
p3311
aS'8'
aS'2'
aS'8'
aa(lp3312
S'Yvan Buonomo'
p3313
aS'1971'
p3314
aS'No. 8'
p3315
aS'Sete'
p3316
aS'3'
aS'2'
aS'0'
aS'0'
aa(lp3317
S'Andre Dubertrand'
p3318
aS'1971'
p3319
aS'Wing'
p3320
aS'Saubion'
p3321
aS'12'
p3322
aS'8'
aS'5'
aS'20'
p3323
aa(lp3324
S'Jean-Pierre Hortoland'
p3325
aS'1971'
p3326
aS'Prop'
p3327
aS'Marseillan'
p3328
aS'1'
aS'1'
aS'0'
aS'0'
aa(lp3329
S'Jean-Louis Martin'
p3330
aS'1971'
p3331
aS'Prop'
p3332
aS'Beziers'
p3333
aS'4'
aS'2'
aS'0'
aS'0'
aa(lp3334
S'Richard Astre'
p3335
aS'1971'
p3336
aS'Scrum-half'
p3337
aS'Toulouse'
p3338
aS'11'
p3339
aS'5'
aS'1'
aS'10'
p3340
aa(lp3341
S'Olivier Saisset'
p3342
aS'1971'
p3343
aS'Back-row'
p3344
aS'Le Poujol-sur-Oub'
p3345
aS'17'
p3346
aS'9'
aS'2'
aS'8'
aa(lp3347
S'Armand Vaquerin'
p3348
aS'1971'
p3349
aS'Prop'
p3350
aS'Severac-le-Chateau'
p3351
aS'26'
p3352
aS'11'
p3353
aS'0'
aS'0'
aa(lp3354
S'Jacques Fouroux'
p3355
aS'1972'
p3356
aS'Scrum-half'
p3357
aS'Auch'
p3358
aS'27'
p3359
aS'17'
p3360
aS'5'
aS'20'
p3361
aa(lp3362
S'Henri Cabrol'
p3363
aS'1972'
p3364
aS'Fly-half'
p3365
aS'Bize-Minervois'
p3366
aS'4'
aS'2'
aS'0'
aS'8'
aa(lp3367
S'Andre Lubrano'
p3368
aS'1972'
p3369
aS'Hooker'
p3370
aS'Sete'
p3371
aS'2'
aS'2'
aS'0'
aS'0'
aa(lp3372
S'Jean-Claude Rossignol'
p3373
aS'1972'
p3374
aS'Prop, Lock'
p3375
aS'Grignols'
p3376
aS'1'
aS'1'
aS'0'
aS'0'
aa(lp3377
S'Michel Droitecourt'
p3378
aS'1972'
p3379
aS'Fullback, Wing'
p3380
aS'Meaux'
p3381
aS'17'
p3382
aS'9'
aS'2'
aS'14'
p3383
aa(lp3384
S'Jean-Pierre Romeu'
p3385
aS'1972'
p3386
aS'Fly-half'
p3387
aS'Thuir'
p3388
aS'34'
p3389
aS'21'
p3390
aS'4'
aS'265'
p3391
aa(lp3392
S'Andre Darrieussecq'
p3393
aS'1973'
p3394
aS'Prop'
p3395
aS'Saint-Jean-de-Luz'
p3396
aS'1'
aS'0'
aS'0'
aS'0'
aa(lp3397
S'Christian Badin'
p3398
aS'1973'
p3399
aS'Centre'
p3400
aS'Pont-de-Vaux'
p3401
aS'3'
aS'2'
aS'0'
aS'0'
aa(lp3402
S'Jean-Francois Phliponeau'
p3403
aS'1973'
p3404
aS'Wing'
p3405
aS"Fort-de-l'Eau"
p3406
aS'2'
aS'1'
aS'1'
aS'4'
aa(lp3407
S'Gilles Delaigue'
p3408
aS'1973'
p3409
aS'Centre'
p3410
aS'Sainte-Colombe'
p3411
aS'2'
aS'2'
aS'1'
aS'4'
aa(lp3412
S'Jacques Rougerie'
p3413
aS'1973'
p3414
aS'Prop, Hooker'
p3415
aS'Pamiers'
p3416
aS'1'
aS'1'
aS'0'
aS'0'
aa(lp3417
S'Michel Sappa'
p3418
aS'1973'
p3419
aS'Lock'
p3420
aS'Toulon'
p3421
aS'3'
aS'3'
aS'0'
aS'0'
aa(lp3422
S'Rene Seguier'
p3423
aS'1973'
p3424
aS'Wing'
p3425
aS'Vendres'
p3426
aS'2'
aS'2'
aS'0'
aS'0'
aa(lp3427
S'Jean Costantino'
p3428
aS'1973'
p3429
aS'Prop, Hooker'
p3430
aS'Montauban'
p3431
aS'1'
aS'1'
aS'0'
aS'0'
aa(lp3432
S'Daniel Kaczorowski'
p3433
aS'1974'
p3434
aS'Flanker'
p3435
aS'Le Creusot'
p3436
aS'1'
aS'1'
aS'0'
aS'0'
aa(lp3437
S'Joel Pecune'
p3438
aS'1974'
p3439
aS'Wing, Centre'
p3440
aS'Ibos'
p3441
aS'10'
p3442
aS'6'
aS'4'
aS'16'
p3443
aa(lp3444
S'Jean-Francois Gourdon'
p3445
aS'1974'
p3446
aS'Wing'
p3447
aS'Paris'
p3448
aS'22'
p3449
aS'14'
p3450
aS'12'
p3451
aS'48'
p3452
aa(lp3453
S'Francis Haget'
p3454
aS'1974'
p3455
aS'Lock'
p3456
aS'Sauveterre-de-Bearn'
p3457
aS'40'
p3458
aS'24'
p3459
aS'1'
aS'4'
aa(lp3460
S'Alain Paco'
p3461
aS'1974'
p3462
aS'Prop, Hooker'
p3463
aS'Beziers'
p3464
aS'35'
p3465
aS'24'
p3466
aS'1'
aS'4'
aa(lp3467
S'Georges Senal'
p3468
aS'1974'
p3469
aS'Lock'
p3470
aS'Serignan'
p3471
aS'6'
aS'2'
aS'0'
aS'0'
aa(lp3472
S'Laurent Desnoyer'
p3473
aS'1974'
p3474
aS'Wing'
p3475
aS'Brive'
p3476
aS'1'
aS'0'
aS'0'
aS'0'
aa(lp3477
S'Jean-Martin Etchenique'
p3478
aS'1974'
p3479
aS'Centre'
p3480
aS'Ustaritz'
p3481
aS'4'
aS'2'
aS'1'
aS'4'
aa(lp3482
S'Michel Taffary'
p3483
aS'1975'
p3484
aS'Fullback'
p3485
aS'Peyrehorade'
p3486
aS'4'
aS'2'
aS'0'
aS'6'
aa(lp3487
S'Gerard Cholley'
p3488
aS'1975'
p3489
aS'Lock, Prop'
p3490
aS'Fontaine-les-Luxeuil'
p3491
aS'31'
p3492
aS'22'
p3493
aS'3'
aS'12'
p3494
aa(lp3495
S'Alain Guilbert'
p3496
aS'1975'
p3497
aS'No. 8, Lock'
p3498
aS'Saint-Maur-des-Fosse'
p3499
aS'14'
p3500
aS'7'
aS'1'
aS'4'
aa(lp3501
S'Jean-Pierre Rives'
p3502
aS'1975'
p3503
aS'Flanker'
p3504
aS'Toulouse'
p3505
aS'59'
p3506
aS'39'
p3507
aS'5'
aS'20'
p3508
aa(lp3509
S'Jean-Luc Averous'
p3510
aS'1975'
p3511
aS'Wing'
p3512
aS'Beziers'
p3513
aS'25'
p3514
aS'16'
p3515
aS'7'
aS'28'
p3516
aa(lp3517
S'Jean-Louis Ugartemendia'
p3518
aS'1975'
p3519
aS'Hooker'
p3520
aS'Bayonne'
p3521
aS'2'
aS'1'
aS'0'
aS'0'
aa(lp3522
S'Francois Sangalli'
p3523
aS'1975'
p3524
aS'Centre'
p3525
aS'Narbonne'
p3526
aS'15'
p3527
aS'9'
aS'1'
aS'4'
aa(lp3528
S'Yves Brunet'
p3529
aS'1975'
p3530
aS'Hooker'
p3531
aS'Peyrestortes'
p3532
aS'2'
aS'1'
aS'0'
aS'0'
aa(lp3533
S'Dominique Harize'
p3534
aS'1975'
p3535
aS'Wing'
p3536
aS'Saint-Cere'
p3537
aS'9'
aS'6'
aS'4'
aS'16'
p3538
aa(lp3539
S'Michel Palmie'
p3540
aS'1975'
p3541
aS'Lock'
p3542
aS'Beziers'
p3543
aS'23'
p3544
aS'17'
p3545
aS'0'
aS'0'
aa(lp3546
S'Robert Paparemborde'
p3547
aS'1975'
p3548
aS'Prop'
p3549
aS'Laruns'
p3550
aS'55'
p3551
aS'34'
p3552
aS'8'
aS'32'
p3553
aa(lp3554
S'Patrice Peron'
p3555
aS'1975'
p3556
aS'Flanker'
p3557
aS'Colombes'
p3558
aS'2'
aS'0'
aS'1'
aS'4'
aa(lp3559
S'Jean-Pierre Pesteil'
p3560
aS'1975'
p3561
aS'Fullback, Centre, Fly-half'
p3562
aS'Vendres'
p3563
aS'3'
aS'1'
aS'0'
aS'9'
aa(lp3564
S'Gerard Rousset'
p3565
aS'1975'
p3566
aS'Back-row'
p3567
aS'Bourg-les-Valence'
p3568
aS'2'
aS'1'
aS'1'
aS'4'
aa(lp3569
S'Jean-Francois Imbernon'
p3570
aS'1976'
p3571
aS'Lock'
p3572
aS'Perpignan'
p3573
aS'23'
p3574
aS'18'
p3575
aS'0'
aS'0'
aa(lp3576
S'Rene Berges-Cau'
p3577
aS'1976'
p3578
aS'Fullback'
p3579
aS'Encausse-les-Thermes'
p3580
aS'1'
aS'1'
aS'0'
aS'0'
aa(lp3581
S'Jacques Cimarosti'
p3582
aS'1976'
p3583
aS'Centre'
p3584
aS'Lourdes'
p3585
aS'1'
aS'1'
aS'0'
aS'0'
aa(lp3586
S'Guy Gasparotto'
p3587
aS'1976'
p3588
aS'Lock'
p3589
aS'Aucamville'
p3590
aS'2'
aS'1'
aS'0'
aS'0'
aa(lp3591
S'Daniel Bustaffa'
p3592
aS'1977'
p3593
aS'Wing'
p3594
aS'Carcassonne'
p3595
aS'11'
p3596
aS'3'
aS'1'
aS'4'
aa(lp3597
S'Jean-Luc Joinel'
p3598
aS'1977'
p3599
aS'Back-row'
p3600
aS'Saint-Vincent-de-Cos'
p3601
aS'51'
p3602
aS'29'
p3603
aS'1'
aS'4'
aa(lp3604
S'Guy Noves'
p3605
aS'1977'
p3606
aS'Wing'
p3607
aS'Toulouse'
p3608
aS'7'
aS'4'
aS'0'
aS'0'
aa(lp3609
S'Jacques Gasc'
p3610
aS'1977'
p3611
aS'Flanker'
p3612
aS'Graulhet'
p3613
aS'1'
aS'0'
aS'0'
aS'0'
aa(lp3614
S'Christian Belascain'
p3615
aS'1977'
p3616
aS'Centre'
p3617
aS'Biarritz'
p3618
aS'18'
p3619
aS'11'
p3620
aS'1'
aS'4'
aa(lp3621
S'Pierre Dospital'
p3622
aS'1977'
p3623
aS'Prop'
p3624
aS'Itxassou'
p3625
aS'24'
p3626
aS'16'
p3627
aS'0'
aS'0'
aa(lp3628
S'Jerome Gallion'
p3629
aS'1978'
p3630
aS'Scrum-half'
p3631
aS'Toulon'
p3632
aS'27'
p3633
aS'17'
p3634
aS'10'
p3635
aS'40'
p3636
aa(lp3637
S'Bernard Vivies'
p3638
aS'1978'
p3639
aS'Fullback, Fly-half'
p3640
aS'Rieumes'
p3641
aS'10'
p3642
aS'4'
aS'0'
aS'20'
p3643
aa(lp3644
S'Louis Bilbao'
p3645
aS'1978'
p3646
aS'Wing'
p3647
aS'Saint-Jean-de-Luz'
p3648
aS'2'
aS'1'
aS'0'
aS'0'
aa(lp3649
S'Alain Caussade'
p3650
aS'1978'
p3651
aS'Fly-half, Wing'
p3652
aS'Juillan'
p3653
aS'12'
p3654
aS'6'
aS'2'
aS'42'
p3655
aa(lp3656
S'Michel Clemente'
p3657
aS'1978'
p3658
aS'No. 8'
p3659
aS'Oloron-Sainte-Marie'
p3660
aS'3'
aS'2'
aS'0'
aS'0'
aa(lp3661
S'Yves Lafarge'
p3662
aS'1978'
p3663
aS'Centre, Scrum-half'
p3664
aS'Chaville'
p3665
aS'3'
aS'2'
aS'0'
aS'0'
aa(lp3666
S'Alain Maleig'
p3667
aS'1979'
p3668
aS'Lock, No. 8'
p3669
aS'Oloron-Sainte-Marie'
p3670
aS'7'
aS'2'
aS'0'
aS'0'
aa(lp3671
S'Frederic Costes'
p3672
aS'1979'
p3673
aS'Wing'
p3674
aS'La Rochelle'
p3675
aS'7'
aS'4'
aS'1'
aS'4'
aa(lp3676
S'Roger Aguerre'
p3677
aS'1979'
p3678
aS'Fly-half'
p3679
aS'Mauleon'
p3680
aS'1'
aS'1'
aS'0'
aS'6'
aa(lp3681
S'Yves Malquier'
p3682
aS'1979'
p3683
aS'No. 8'
p3684
aS'Sigean'
p3685
aS'1'
aS'1'
aS'2'
aS'8'
aa(lp3686
S'Jean-Francois Marchal'
p3687
aS'1979'
p3688
aS'Lock'
p3689
aS'Paris'
p3690
aS'5'
aS'3'
aS'1'
aS'4'
aa(lp3691
S'Christian Beguerie'
p3692
aS'1979'
p3693
aS'Back-row'
p3694
aS'Layrac'
p3695
aS'1'
aS'0'
aS'0'
aS'0'
aa(lp3696
S'Didier Codorniou'
p3697
aS'1979'
p3698
aS'Centre'
p3699
aS'Narbonne'
p3700
aS'31'
p3701
aS'18'
p3702
aS'5'
aS'20'
p3703
aa(lp3704
S'Guy Colomine'
p3705
aS'1979'
p3706
aS'Prop'
p3707
aS'Narbonne'
p3708
aS'1'
aS'0'
aS'0'
aS'0'
aa(lp3709
S'Philippe Dintrans'
p3710
aS'1979'
p3711
aS'Hooker'
p3712
aS'Tarbes'
p3713
aS'50'
p3714
aS'27'
p3715
aS'3'
aS'12'
p3716
aa(lp3717
S'Patrick Mesny'
p3718
aS'1979'
p3719
aS'Centre'
p3720
aS'Montlucon'
p3721
aS'14'
p3722
aS'7'
aS'3'
aS'12'
p3723
aa(lp3724
S'Patrick Salas'
p3725
aS'1979'
p3726
aS'Prop, Lock, No. 8'
p3727
aS'Narbonne'
p3728
aS'7'
aS'3'
aS'0'
aS'0'
aa(lp3729
S'Daniel Dubroca'
p3730
aS'1979'
p3731
aS'Hooker, Prop'
p3732
aS'Aiguillon'
p3733
aS'33'
p3734
aS'22'
p3735
aS'2'
aS'8'
aa(lp3736
S'Jacques Cristina'
p3737
aS'1979'
p3738
aS'No. 8'
p3739
aS'Clermont-Ferrand'
p3740
aS'1'
aS'1'
aS'0'
aS'0'
aa(lp3741
S'Manuel Carpentier'
p3742
aS'1980'
p3743
aS'Lock, No. 8'
p3744
aS'Calais'
p3745
aS'8'
aS'2'
aS'0'
aS'0'
aa(lp3746
S'Yves Duhard'
p3747
aS'1980'
p3748
aS'Lock'
p3749
aS'Bagneres-de-Bigorre'
p3750
aS'1'
aS'0'
aS'0'
aS'0'
aa(lp3751
S'Serge Gabernet'
p3752
aS'1980'
p3753
aS'Fullback'
p3754
aS'Montrejeau'
p3755
aS'14'
p3756
aS'8'
aS'2'
aS'48'
p3757
aa(lp3758
S'Pierre Pedeutour'
p3759
aS'1980'
p3760
aS'Fly-half'
p3761
aS'Menzel-Bou-Zulfa'
p3762
aS'1'
aS'1'
aS'0'
aS'3'
aa(lp3763
S'Serge Blanco'
p3764
aS'1980'
p3765
aS'Wing, Fullback'
p3766
aS'Caracas'
p3767
aS'93'
p3768
aS'54'
p3769
aS'38'
p3770
aS'233'
p3771
aa(lp3772
S'Jean-Pierre Elissalde'
p3773
aS'1980'
p3774
aS'Scrum-half'
p3775
aS'La Rochelle'
p3776
aS'5'
aS'1'
aS'2'
aS'11'
p3777
aa(lp3778
S'Pierre Lacans'
p3779
aS'1980'
p3780
aS'Flanker'
p3781
aS'Lezignan'
p3782
aS'6'
aS'3'
aS'2'
aS'8'
aa(lp3783
S'Laurent Pardo'
p3784
aS'1980'
p3785
aS'Fullback, Wing, Centre'
p3786
aS'Bayonne'
p3787
aS'14'
p3788
aS'6'
aS'3'
aS'12'
p3789
aa(lp3790
S'Jean-Paul Wolf'
p3791
aS'1980'
p3792
aS'Prop, Lock'
p3793
aS'Montreuil-sous-Bois'
p3794
aS'4'
aS'0'
aS'0'
aS'0'
aa(lp3795
S'Eric Buchet'
p3796
aS'1980'
p3797
aS'Flanker'
p3798
aS'Nice'
p3799
aS'5'
aS'2'
aS'0'
aS'0'
aa(lp3800
S'Michel Cremaschi'
p3801
aS'1980'
p3802
aS'Prop'
p3803
aS'Betbezer'
p3804
aS'11'
p3805
aS'5'
aS'0'
aS'0'
aa(lp3806
S'Jean-Pierre Fauvel'
p3807
aS'1980'
p3808
aS'Flanker'
p3809
aS'Castillonnes'
p3810
aS'1'
aS'0'
aS'0'
aS'0'
aa(lp3811
S'Pierre Berbizier'
p3812
aS'1981'
p3813
aS'Scrum-half'
p3814
aS'Saint-Gaudens'
p3815
aS'56'
p3816
aS'32'
p3817
aS'7'
aS'28'
p3818
aa(lp3819
S'Daniel Revailler'
p3820
aS'1981'
p3821
aS'Lock'
p3822
aS'Rabastens'
p3823
aS'14'
p3824
aS'7'
aS'0'
aS'0'
aa(lp3825
S'Guy Laporte'
p3826
aS'1981'
p3827
aS'Fly-half'
p3828
aS'Beaufort'
p3829
aS'16'
p3830
aS'11'
p3831
aS'3'
aS'143'
p3832
aa(lp3833
S'Dominique Erbani'
p3834
aS'1981'
p3835
aS'Back-row'
p3836
aS'Eymet'
p3837
aS'46'
p3838
aS'30'
p3839
aS'3'
aS'12'
p3840
aa(lp3841
S'Michel Fabre'
p3842
aS'1981'
p3843
aS'Wing'
p3844
aS'Pezenas'
p3845
aS'6'
aS'2'
aS'1'
aS'4'
aa(lp3846
S'Alain Lorieux'
p3847
aS'1981'
p3848
aS'Lock'
p3849
aS'La Tronche'
p3850
aS'30'
p3851
aS'20'
p3852
aS'3'
aS'12'
p3853
aa(lp3854
S'Laurent Rodriguez'
p3855
aS'1981'
p3856
aS'Back-row'
p3857
aS'Poitiers'
p3858
aS'56'
p3859
aS'29'
p3860
aS'7'
aS'28'
p3861
aa(lp3862
S'Adrien Mournet'
p3863
aS'1981'
p3864
aS'Scrum-half'
p3865
aS'Galan'
p3866
aS'1'
aS'0'
aS'0'
aS'0'
aa(lp3867
S'Marc Sallefranque'
p3868
aS'1981'
p3869
aS'Fly-half, Fullback'
p3870
aS'Dax'
p3871
aS'4'
aS'0'
aS'0'
aS'19'
p3872
aa(lp3873
S'Jean-Patrick Lescarboura'
p3874
aS'1982'
p3875
aS'Fly-half'
p3876
aS'Monein'
p3877
aS'28'
p3878
aS'13'
p3879
aS'6'
aS'200'
p3880
aa(lp3881
S'Gerard Martinez'
p3882
aS'1982'
p3883
aS'Scrum-half'
p3884
aS'Montrejeau'
p3885
aS'7'
aS'4'
aS'0'
aS'3'
aa(lp3886
S'Patrick Perrier'
p3887
aS'1982'
p3888
aS'Centre'
p3889
aS'Bayonne'
p3890
aS'4'
aS'1'
aS'0'
aS'0'
aa(lp3891
S'Didier Camberabero'
p3892
aS'1982'
p3893
aS'Fly-half, Fullback, Wing'
p3894
aS'Valence'
p3895
aS'36'
p3896
aS'24'
p3897
aS'12'
p3898
aS'354'
p3899
aa(lp3900
S'Pierre Chadebech'
p3901
aS'1982'
p3902
aS'Centre'
p3903
aS'Ussel'
p3904
aS'5'
aS'3'
aS'0'
aS'0'
aa(lp3905
S'Jean Condom'
p3906
aS'1982'
p3907
aS'Lock'
p3908
aS'Saint-Andre-de-Seign'
p3909
aS'61'
p3910
aS'38'
p3911
aS'0'
aS'0'
aa(lp3912
S'Patrick Esteve'
p3913
aS'1982'
p3914
aS'Wing'
p3915
aS'Lavelanet'
p3916
aS'25'
p3917
aS'15'
p3918
aS'12'
p3919
aS'48'
p3920
aa(lp3921
S'Philippe Sella'
p3922
aS'1982'
p3923
aS'Centre, Wing'
p3924
aS'Tonneins'
p3925
aS'111'
p3926
aS'70'
p3927
aS'30'
p3928
aS'125'
p3929
aa(lp3930
S'Thierry Janeczek'
p3931
aS'1982'
p3932
aS'Flanker'
p3933
aS'St-Denis-du-Sig'
p3934
aS'3'
aS'2'
aS'0'
aS'0'
aa(lp3935
S'Jean-Charles Orso'
p3936
aS'1982'
p3937
aS'Lock, No. 8'
p3938
aS'Cannes'
p3939
aS'11'
p3940
aS'7'
aS'0'
aS'0'
aa(lp3941
S'Jacques Begu'
p3942
aS'1982'
p3943
aS'Wing'
p3944
aS'Dax'
p3945
aS'3'
aS'2'
aS'2'
aS'8'
aa(lp3946
S'Christian Delage'
p3947
aS'1983'
p3948
aS'Fly-half'
p3949
aS'Brive'
p3950
aS'2'
aS'1'
aS'0'
aS'0'
aa(lp3951
S'Jean-Louis Dupont'
p3952
aS'1983'
p3953
aS'Hooker'
p3954
aS'Beaumont-de-Lomagne'
p3955
aS'1'
aS'1'
aS'0'
aS'0'
aa(lp3956
S'Bernard Herrero'
p3957
aS'1983'
p3958
aS'Hooker'
p3959
aS'Toulon'
p3960
aS'2'
aS'0'
aS'0'
aS'0'
aa(lp3961
S'Jean-Pierre Garuet-Lempirou'
p3962
aS'1983'
p3963
aS'Prop'
p3964
aS'Lourdes'
p3965
aS'42'
p3966
aS'24'
p3967
aS'0'
aS'0'
aa(lp3968
S'Jean-Baptiste Lafond'
p3969
aS'1983'
p3970
aS'Fullback, Wing'
p3971
aS'Neuilly-sur-Seine'
p3972
aS'36'
p3973
aS'26'
p3974
aS'14'
p3975
aS'101'
p3976
aa(lp3977
S'Patrice Lagisquet'
p3978
aS'1983'
p3979
aS'Wing'
p3980
aS'Arcachon'
p3981
aS'46'
p3982
aS'27'
p3983
aS'20'
p3984
aS'80'
p3985
aa(lp3986
S'Pierre-Edouard Detrez'
p3987
aS'1983'
p3988
aS'Prop'
p3989
aS'Paris'
p3990
aS'5'
aS'2'
aS'0'
aS'0'
aa(lp3991
S'Jacques Gratton'
p3992
aS'1984'
p3993
aS'Flanker'
p3994
aS'Lectoure'
p3995
aS'10'
p3996
aS'4'
aS'0'
aS'0'
aa(lp3997
S'Eric Bonneval'
p3998
aS'1984'
p3999
aS'Wing, Centre'
p4000
aS'Toulouse'
p4001
aS'18'
p4002
aS'13'
p4003
aS'8'
aS'32'
p4004
aa(lp4005
S'Bernard Lavigne'
p4006
aS'1984'
p4007
aS'Wing'
p4008
aS'Castillonnes'
p4009
aS'2'
aS'1'
aS'0'
aS'0'
aa(lp4010
S'Eric Champ'
p4011
aS'1985'
p4012
aS'Flanker'
p4013
aS'Toulon'
p4014
aS'42'
p4015
aS'30'
p4016
aS'3'
aS'12'
p4017
aa(lp4018
S'Herve Chabowski'
p4019
aS'1985'
p4020
aS'Prop'
p4021
aS'Cavaillon'
p4022
aS'4'
aS'2'
aS'0'
aS'0'
aa(lp4023
S'Thierry Picard'
p4024
aS'1985'
p4025
aS'Lock, No. 8'
p4026
aS"Saint-Sauves-d'Auver"
p4027
aS'3'
aS'3'
aS'0'
aS'0'
aa(lp4028
S'Philippe Marocco'
p4029
aS'1986'
p4030
aS'Prop, Hooker'
p4031
aS'Cintegabelle'
p4032
aS'21'
p4033
aS'14'
p4034
aS'1'
aS'4'
aa(lp4035
S'Denis Charvet'
p4036
aS'1986'
p4037
aS'Centre, Wing'
p4038
aS'Cahors'
p4039
aS'23'
p4040
aS'16'
p4041
aS'6'
aS'27'
p4042
aa(lp4043
S'Jerome Bianchi'
p4044
aS'1986'
p4045
aS'Fullback'
p4046
aS'Pau'
p4047
aS'1'
aS'0'
aS'0'
aS'0'
aa(lp4048
S'Marc Andrieu'
p4049
aS'1986'
p4050
aS'Centre, Wing'
p4051
aS'Carmaux'
p4052
aS'26'
p4053
aS'18'
p4054
aS'6'
aS'24'
p4055
aa(lp4056
S'Claude Portolan'
p4057
aS'1986'
p4058
aS'Prop'
p4059
aS'Auterive'
p4060
aS'3'
aS'1'
aS'0'
aS'0'
aa(lp4061
S'Patrick Serriere'
p4062
aS'1986'
p4063
aS'Lock'
p4064
aS'Saint-Cloud'
p4065
aS'3'
aS'2'
aS'0'
aS'0'
aa(lp4066
S'Philippe Berot'
p4067
aS'1986'
p4068
aS'Fullback, Wing'
p4069
aS'Tarbes'
p4070
aS'19'
p4071
aS'14'
p4072
aS'3'
aS'159'
p4073
aa(lp4074
S'Alain Carminati'
p4075
aS'1986'
p4076
aS'Back-row'
p4077
aS'Champagnole'
p4078
aS'20'
p4079
aS'14'
p4080
aS'3'
aS'14'
p4081
aa(lp4082
S'Franck Mesnel'
p4083
aS'1986'
p4084
aS'Centre, Fly-half'
p4085
aS'Neuilly-sur-Seine'
p4086
aS'56'
p4087
aS'38'
p4088
aS'8'
aS'41'
p4089
aa(lp4090
S'Pascal Ondarts'
p4091
aS'1986'
p4092
aS'Hooker, Prop'
p4093
aS'Meharin'
p4094
aS'42'
p4095
aS'29'
p4096
aS'1'
aS'4'
aa(lp4097
S'Louis Armary'
p4098
aS'1987'
p4099
aS'Prop'
p4100
aS'Lourdes'
p4101
aS'47'
p4102
aS'32'
p4103
aS'1'
aS'4'
aa(lp4104
S'Rodolphe Modin'
p4105
aS'1987'
p4106
aS'Scrum-half'
p4107
aS'Paris'
p4108
aS'1'
aS'1'
aS'3'
aS'12'
p4109
aa(lp4110
S'Jean-Louis Tolot'
p4111
aS'1987'
p4112
aS'Prop'
p4113
aS'Montagnac-sur-Auvign'
p4114
aS'1'
aS'1'
aS'0'
aS'0'
aa(lp4115
S'Karl Janik'
p4116
aS'1987'
p4117
aS'Flanker'
p4118
aS'Oujda'
p4119
aS'1'
aS'1'
aS'0'
aS'0'
aa(lp4120
S'Marc Cecillon'
p4121
aS'1988'
p4122
aS'No. 8'
p4123
aS'Bourgoin'
p4124
aS'46'
p4125
aS'31'
p4126
aS'9'
aS'38'
p4127
aa(lp4128
S'Michel Hondagne-Monge'
p4129
aS'1988'
p4130
aS'Scrum-half'
p4131
aS'Alfou'
p4132
aS'1'
aS'0'
aS'0'
aS'0'
aa(lp4133
S'Gilles Bourguignon'
p4134
aS'1988'
p4135
aS'Lock'
p4136
aS'Evereux'
p4137
aS'6'
aS'2'
aS'0'
aS'0'
aa(lp4138
S'Henri Sanz'
p4139
aS'1988'
p4140
aS'Scrum-half'
p4141
aS'Versailles'
p4142
aS'11'
p4143
aS'6'
aS'1'
aS'4'
aa(lp4144
S'Pierre Harislur-Arthapignet'
p4145
aS'1988'
p4146
aS'Hooker, No. 8'
p4147
aS'Mauleon'
p4148
aS'1'
aS'1'
aS'0'
aS'0'
aa(lp4149
S'Thierry Devergie'
p4150
aS'1988'
p4151
aS'Lock'
p4152
aS'Marseille'
p4153
aS'17'
p4154
aS'9'
aS'0'
aS'0'
aa(lp4155
S'Marc dal Maso'
p4156
aS'1988'
p4157
aS'Hooker'
p4158
aS'Escalans'
p4159
aS'33'
p4160
aS'19'
p4161
aS'4'
aS'20'
p4162
aa(lp4163
S'Dominique Bouet'
p4164
aS'1989'
p4165
aS'Hooker'
p4166
aS'Sort-en-Chalosse'
p4167
aS'5'
aS'2'
aS'0'
aS'0'
aa(lp4168
S'Philippe Rouge-Thomas'
p4169
aS'1989'
p4170
aS'Fly-half'
p4171
aS'Lannemezan'
p4172
aS'2'
aS'0'
aS'1'
aS'4'
aa(lp4173
S'Olivier Roumat'
p4174
aS'1989'
p4175
aS'No. 8, Lock, Flanker'
p4176
aS'Mont-de-Marsan'
p4177
aS'61'
p4178
aS'35'
p4179
aS'5'
aS'23'
p4180
aa(lp4181
S'Philippe Benetton'
p4182
aS'1989'
p4183
aS'Flanker'
p4184
aS'Cahors'
p4185
aS'59'
p4186
aS'39'
p4187
aS'7'
aS'34'
p4188
aa(lp4189
S'Bernard Lacombe'
p4190
aS'1989'
p4191
aS'Wing'
p4192
aS'Rouen'
p4193
aS'2'
aS'0'
aS'1'
aS'4'
aa(lp4194
S'Marc Pujolle'
p4195
aS'1989'
p4196
aS'Lock, Prop'
p4197
aS'Nimes'
p4198
aS'8'
aS'1'
aS'0'
aS'0'
aa(lp4199
S'Laurent Seigne'
p4200
aS'1989'
p4201
aS'Prop'
p4202
aS'Tulle'
p4203
aS'15'
p4204
aS'7'
aS'0'
aS'0'
aa(lp4205
S'Stephane Weller'
p4206
aS'1989'
p4207
aS'Wing'
p4208
aS'Juvisy-sur-Orge'
p4209
aS'4'
aS'1'
aS'0'
aS'0'
aa(lp4210
S'Thierry Lacroix'
p4211
aS'1989'
p4212
aS'Fly-half'
p4213
aS'Nogaro'
p4214
aS'43'
p4215
aS'29'
p4216
aS'6'
aS'367'
p4217
aa(lp4218
S'Peyo Hontas'
p4219
aS'1990'
p4220
aS'Wing'
p4221
aS'Biarritz'
p4222
aS'9'
aS'5'
aS'0'
aS'0'
aa(lp4223
S'Jean-Marc Lhermet'
p4224
aS'1990'
p4225
aS'Flanker'
p4226
aS'Montlucon'
p4227
aS'3'
aS'2'
aS'0'
aS'0'
aa(lp4228
S'Eric Melville'
p4229
aS'1990'
p4230
aS'Flanker'
p4231
aS'Cape Town'
p4232
aS'6'
aS'3'
aS'0'
aS'0'
aa(lp4233
S'Philippe Gallart'
p4234
aS'1990'
p4235
aS'Prop'
p4236
aS'Beziers'
p4237
aS'18'
p4238
aS'10'
p4239
aS'0'
aS'0'
aa(lp4240
S'Jean-Claude Langlade'
p4241
aS'1990'
p4242
aS'Centre'
p4243
aS'Clermont-Ferrand'
p4244
aS'3'
aS'0'
aS'0'
aS'0'
aa(lp4245
S'Philippe Saint-Andre'
p4246
aS'1990'
p4247
aS'Wing'
p4248
aS'Romans-sur-Isere'
p4249
aS'69'
p4250
aS'46'
p4251
aS'32'
p4252
aS'152'
p4253
aa(lp4254
S'Abdelatif Benazzi'
p4255
aS'1990'
p4256
aS'Lock'
p4257
aS'Ouija'
p4258
aS'78'
p4259
aS'48'
p4260
aS'9'
aS'45'
p4261
aa(lp4262
S'Christophe Deslandes'
p4263
aS'1990'
p4264
aS'No. 8'
p4265
aS'Saint-Monde'
p4266
aS'6'
aS'4'
aS'0'
aS'0'
aa(lp4267
S'Fabrice Heyer'
p4268
aS'1990'
p4269
aS'Prop'
p4270
aS'Clermont Ferrand'
p4271
aS'1'
aS'0'
aS'0'
aS'0'
aa(lp4272
S'Xavier Blond'
p4273
aS'1990'
p4274
aS'Flanker'
p4275
aS'Lagny-sur-Marne'
p4276
aS'6'
aS'5'
aS'0'
aS'0'
aa(lp4277
S'Aubin Hueber'
p4278
aS'1990'
p4279
aS'Scrum-half'
p4280
aS'Tarbes'
p4281
aS'23'
p4282
aS'18'
p4283
aS'3'
aS'21'
p4284
aa(lp4285
S'David Berty'
p4286
aS'1990'
p4287
aS'Wing'
p4288
aS'Toulouse'
p4289
aS'6'
aS'4'
aS'0'
aS'0'
aa(lp4290
S'Jean-Francois Gourragne'
p4291
aS'1990'
p4292
aS'Lock'
p4293
aS'Condom'
p4294
aS'2'
aS'1'
aS'0'
aS'0'
aa(lp4295
S'Laurent Cabannes'
p4296
aS'1990'
p4297
aS'Flanker'
p4298
aS'Reims'
p4299
aS'49'
p4300
aS'32'
p4301
aS'2'
aS'8'
aa(lp4302
S'Gregoire Lascube'
p4303
aS'1991'
p4304
aS'Prop'
p4305
aS'Saint-Pee-sur-Nivell'
p4306
aS'12'
p4307
aS'9'
aS'0'
aS'0'
aa(lp4308
S'Michel Tachdjian'
p4309
aS'1991'
p4310
aS'Lock'
p4311
aS'Asnieres'
p4312
aS'3'
aS'2'
aS'0'
aS'0'
aa(lp4313
S'Jean-Marie Cadieu'
p4314
aS'1991'
p4315
aS'Lock'
p4316
aS'Tulle'
p4317
aS'12'
p4318
aS'10'
p4319
aS'1'
aS'4'
aa(lp4320
S'Michel Courtiols'
p4321
aS'1991'
p4322
aS'Flanker'
p4323
aS'Fumel'
p4324
aS'3'
aS'3'
aS'1'
aS'4'
aa(lp4325
S'Fabien Galthie'
p4326
aS'1991'
p4327
aS'Scrum-half'
p4328
aS'Cahors'
p4329
aS'64'
p4330
aS'38'
p4331
aS'10'
p4332
aS'49'
p4333
aa(lp4334
S'Philippe Gimbert'
p4335
aS'1991'
p4336
aS'Prop'
p4337
aS'Firminy'
p4338
aS'4'
aS'3'
aS'0'
aS'0'
aa(lp4339
S'Vincent Moscato'
p4340
aS'1991'
p4341
aS'Hooker'
p4342
aS'Paris'
p4343
aS'4'
aS'3'
aS'0'
aS'0'
aa(lp4344
S'Serge Simon'
p4345
aS'1991'
p4346
aS'Prop'
p4347
aS'Nice'
p4348
aS'2'
aS'2'
aS'1'
aS'4'
aa(lp4349
S'Jean-Francois Tordo'
p4350
aS'1991'
p4351
aS'Flanker'
p4352
aS'Nice'
p4353
aS'15'
p4354
aS'10'
p4355
aS'0'
aS'0'
aa(lp4356
S'Jean-Luc Sadourny'
p4357
aS'1991'
p4358
aS'Fullback'
p4359
aS'Toulouse'
p4360
aS'71'
p4361
aS'46'
p4362
aS'15'
p4363
aS'86'
p4364
aa(lp4365
S'Christophe Mougeot'
p4366
aS'1992'
p4367
aS'Lock'
p4368
aS'Dijon'
p4369
aS'3'
aS'1'
aS'0'
aS'0'
aa(lp4370
S'Alain Penaud'
p4371
aS'1992'
p4372
aS'Fly-half'
p4373
aS'Juillac'
p4374
aS'32'
p4375
aS'21'
p4376
aS'10'
p4377
aS'62'
p4378
aa(lp4379
S'Sebastien Viars'
p4380
aS'1992'
p4381
aS'Fullback'
p4382
aS'Aurillac'
p4383
aS'17'
p4384
aS'10'
p4385
aS'9'
aS'127'
p4386
aa(lp4387
S'Andries van Heerden'
p4388
aS'1992'
p4389
aS'No. 8'
p4390
aS'Cape Town'
p4391
aS'2'
aS'0'
aS'0'
aS'0'
aa(lp4392
S'Pierre Montlaur'
p4393
aS'1992'
p4394
aS'Fly-half, Fullback'
p4395
aS'Castelsarrasin'
p4396
aS'2'
aS'1'
aS'0'
aS'2'
aa(lp4397
S'Jean-Pierre Genet'
p4398
aS'1992'
p4399
aS'Hooker'
p4400
aS'Chatellerault'
p4401
aS'3'
aS'2'
aS'0'
aS'0'
aa(lp4402
S'Christophe Deylaud'
p4403
aS'1992'
p4404
aS'Fly-half'
p4405
aS'Portet'
p4406
aS'16'
p4407
aS'11'
p4408
aS'1'
aS'51'
p4409
aa(lp4410
S'Michel Marfaing'
p4411
aS'1992'
p4412
aS'Centre'
p4413
aS'Pamiers'
p4414
aS'2'
aS'2'
aS'0'
aS'0'
aa(lp4415
S'Stephane Ougier'
p4416
aS'1992'
p4417
aS'Fullback'
p4418
aS'Toulouse'
p4419
aS'4'
aS'2'
aS'0'
aS'4'
aa(lp4420
S'Jean-Michel Gonzalez'
p4421
aS'1992'
p4422
aS'Hooker'
p4423
aS'Bayonne'
p4424
aS'35'
p4425
aS'23'
p4426
aS'1'
aS'5'
aa(lp4427
S'Christian Coeurveille'
p4428
aS'1992'
p4429
aS'Centre'
p4430
aS'Rodez'
p4431
aS'2'
aS'2'
aS'0'
aS'0'
aa(lp4432
S'Philippe Bernat-Salles'
p4433
aS'1992'
p4434
aS'Wing'
p4435
aS'Pau'
p4436
aS'41'
p4437
aS'25'
p4438
aS'26'
p4439
aS'130'
p4440
aa(lp4441
S'Laurent Mazas'
p4442
aS'1992'
p4443
aS'Fly-half'
p4444
aS'Villefranche'
p4445
aS'2'
aS'0'
aS'0'
aS'0'
aa(lp4446
S'Stephane Graou'
p4447
aS'1992'
p4448
aS'Prop'
p4449
aS'Auch'
p4450
aS'8'
aS'4'
aS'0'
aS'0'
aa(lp4451
S'Herve Couffignal'
p4452
aS'1993'
p4453
aS'Centre'
p4454
aS'?'
aS'1'
aS'1'
aS'0'
aS'0'
aa(lp4455
S'Yann Lemeur'
p4456
aS'1993'
p4457
aS'Lock'
p4458
aS'Paris'
p4459
aS'1'
aS'1'
aS'0'
aS'0'
aa(lp4460
S'Laurent Verge'
p4461
aS'1993'
p4462
aS'Prop'
p4463
aS'?'
aS'1'
aS'1'
aS'0'
aS'0'
aa(lp4464
S'Olivier Merle'
p4465
aS'1993'
p4466
aS'Lock'
p4467
aS'Chamalieres'
p4468
aS'45'
p4469
aS'31'
p4470
aS'6'
aS'30'
p4471
aa(lp4472
S'Olivier Campan'
p4473
aS'1993'
p4474
aS'Centre'
p4475
aS'Condom'
p4476
aS'6'
aS'4'
aS'1'
aS'5'
aa(lp4477
S'Leon Loppy'
p4478
aS'1993'
p4479
aS'Flanker'
p4480
aS'La Seyne'
p4481
aS'1'
aS'1'
aS'1'
aS'5'
aa(lp4482
S'Emile Ntamack'
p4483
aS'1994'
p4484
aS'Wing'
p4485
aS'Lyon'
p4486
aS'46'
p4487
aS'32'
p4488
aS'26'
p4489
aS'135'
p4490
aa(lp4491
S'Laurent Benezech'
p4492
aS'1994'
p4493
aS'Prop'
p4494
aS'Pamiers'
p4495
aS'15'
p4496
aS'11'
p4497
aS'0'
aS'0'
aa(lp4498
S'William Techoueyres'
p4499
aS'1994'
p4500
aS'Wing'
p4501
aS'Bordeaux'
p4502
aS'3'
aS'2'
aS'1'
aS'5'
aa(lp4503
S'Olivier Brouzet'
p4504
aS'1994'
p4505
aS'Lock'
p4506
aS'Beziers'
p4507
aS'71'
p4508
aS'46'
p4509
aS'2'
aS'10'
p4510
aa(lp4511
S'Yann Delaigue'
p4512
aS'1994'
p4513
aS'Fly-half'
p4514
aS'Vienne'
p4515
aS'20'
p4516
aS'16'
p4517
aS'2'
aS'37'
p4518
aa(lp4519
S'Alain Macabiau'
p4520
aS'1994'
p4521
aS'Scrum-half'
p4522
aS'Perpignan'
p4523
aS'2'
aS'1'
aS'0'
aS'0'
aa(lp4524
S'Guy Accoceberry'
p4525
aS'1994'
p4526
aS'Scrum-half'
p4527
aS'Vittel'
p4528
aS'19'
p4529
aS'14'
p4530
aS'2'
aS'10'
p4531
aa(lp4532
S'Christian Califano'
p4533
aS'1994'
p4534
aS'Prop'
p4535
aS'Toulon'
p4536
aS'71'
p4537
aS'41'
p4538
aS'6'
aS'30'
p4539
aa(lp4540
S'Arnaud Costes'
p4541
aS'1994'
p4542
aS'Flanker'
p4543
aS'Tulle'
p4544
aS'14'
p4545
aS'9'
aS'1'
aS'5'
aa(lp4546
S'Marc de Rougemont'
p4547
aS'1995'
p4548
aS'Hooker'
p4549
aS'Marseille'
p4550
aS'13'
p4551
aS'9'
aS'0'
aS'0'
aa(lp4552
S'Albert Cigagna'
p4553
aS'1995'
p4554
aS'Back-row'
p4555
aS'Toulouse'
p4556
aS'1'
aS'1'
aS'0'
aS'0'
aa(lp4557
S'Alain Hyardet'
p4558
aS'1995'
p4559
aS'Centre'
p4560
aS'Aix-le-Province'
p4561
aS'2'
aS'2'
aS'0'
aS'0'
aa(lp4562
S'Marc Lievremont'
p4563
aS'1995'
p4564
aS'Flanker'
p4565
aS'Dakar'
p4566
aS'25'
p4567
aS'19'
p4568
aS'5'
aS'25'
p4569
aa(lp4570
S'Franck Tournaire'
p4571
aS'1995'
p4572
aS'Prop'
p4573
aS'Narbonne'
p4574
aS'49'
p4575
aS'32'
p4576
aS'2'
aS'10'
p4577
aa(lp4578
S'Patrick Arlettaz'
p4579
aS'1995'
p4580
aS'Centre'
p4581
aS'Perpignan'
p4582
aS'1'
aS'1'
aS'2'
aS'10'
p4583
aa(lp4584
S'Olivier Azam'
p4585
aS'1995'
p4586
aS'Hooker'
p4587
aS'Tarbes'
p4588
aS'10'
p4589
aS'5'
aS'0'
aS'0'
aa(lp4590
S'Philippe Carbonneau'
p4591
aS'1995'
p4592
aS'Scrum-half'
p4593
aS'Toulouse'
p4594
aS'32'
p4595
aS'22'
p4596
aS'5'
aS'25'
p4597
aa(lp4598
S'Thomas Castaignede'
p4599
aS'1995'
p4600
aS'Fullback, Fly-half'
p4601
aS'Mont-de-Marsan'
p4602
aS'54'
p4603
aS'37'
p4604
aS'18'
p4605
aS'252'
p4606
aa(lp4607
S'Richard Dourthe'
p4608
aS'1995'
p4609
aS'Centre'
p4610
aS'Dax'
p4611
aS'31'
p4612
aS'20'
p4613
aS'3'
aS'183'
p4614
aa(lp4615
S'Christophe Juillet'
p4616
aS'1995'
p4617
aS'No. 8'
p4618
aS'Villeneuve-sur-Lot'
p4619
aS'18'
p4620
aS'10'
p4621
aS'2'
aS'10'
p4622
aa(lp4623
S'Fabien Pelous'
p4624
aS'1995'
p4625
aS'No. 8, Lock'
p4626
aS'Toulouse'
p4627
aS'118'
p4628
aS'79'
p4629
aS'8'
aS'40'
p4630
aa(lp4631
S'Michel Perie'
p4632
aS'1996'
p4633
aS'Prop'
p4634
aS'Le Pradet'
p4635
aS'3'
aS'2'
aS'0'
aS'0'
aa(lp4636
S'Stephane Glas'
p4637
aS'1996'
p4638
aS'Centre'
p4639
aS'Bourgoin'
p4640
aS'37'
p4641
aS'24'
p4642
aS'9'
aS'45'
p4643
aa(lp4644
S'Richard Castel'
p4645
aS'1996'
p4646
aS'Flanker'
p4647
aS'Vendres'
p4648
aS'15'
p4649
aS'7'
aS'2'
aS'10'
p4650
aa(lp4651
S'Sylvain Dispagne'
p4652
aS'1996'
p4653
aS'No. 8'
p4654
aS'Saint-Girons'
p4655
aS'2'
aS'1'
aS'0'
aS'0'
aa(lp4656
S'Raphael Ibanez'
p4657
aS'1996'
p4658
aS'Hooker'
p4659
aS'Dax'
p4660
aS'98'
p4661
aS'63'
p4662
aS'8'
aS'40'
p4663
aa(lp4664
S'Herve Guiraud'
p4665
aS'1996'
p4666
aS'Hooker'
p4667
aS'Castelnaudary'
p4668
aS'1'
aS'1'
aS'0'
aS'0'
aa(lp4669
S'Thierry Labrousse'
p4670
aS'1996'
p4671
aS'Back-row'
p4672
aS'Perigueux'
p4673
aS'2'
aS'1'
aS'2'
aS'10'
p4674
aa(lp4675
S'Hugues Miorin'
p4676
aS'1996'
p4677
aS'Lock'
p4678
aS'Fumel'
p4679
aS'9'
aS'7'
aS'0'
aS'0'
aa(lp4680
S'Christophe Moni'
p4681
aS'1996'
p4682
aS'Flanker'
p4683
aS'Nice'
p4684
aS'8'
aS'4'
aS'1'
aS'5'
aa(lp4685
S'David Venditti'
p4686
aS'1996'
p4687
aS'Wing'
p4688
aS'Bellegarde'
p4689
aS'14'
p4690
aS'9'
aS'6'
aS'30'
p4691
aa(lp4692
S'Jean-Louis Jordana'
p4693
aS'1996'
p4694
aS'Prop'
p4695
aS'Lavelanet'
p4696
aS'7'
aS'7'
aS'0'
aS'0'
aa(lp4697
S'Thomas Lievremont'
p4698
aS'1996'
p4699
aS'No. 8'
p4700
aS'Perpignan'
p4701
aS'35'
p4702
aS'27'
p4703
aS'6'
aS'30'
p4704
aa(lp4705
S'Guillaume Bouic'
p4706
aS'1996'
p4707
aS'Centre'
p4708
aS'Agen'
p4709
aS'1'
aS'0'
aS'0'
aS'0'
aa(lp4710
S'Christophe Lamaison'
p4711
aS'1996'
p4712
aS'Centre, Fly-half'
p4713
aS'Dax'
p4714
aS'37'
p4715
aS'23'
p4716
aS'2'
aS'380'
p4717
aa(lp4718
S'Laurent Leflamand'
p4719
aS'1996'
p4720
aS'Wing'
p4721
aS'Cherbourg'
p4722
aS'8'
aS'5'
aS'5'
aS'25'
p4723
aa(lp4724
S'Jean-Jacques Crenca'
p4725
aS'1996'
p4726
aS'Prop'
p4727
aS'Marmande'
p4728
aS'39'
p4729
aS'27'
p4730
aS'4'
aS'20'
p4731
aa(lp4732
S'David Aucagne'
p4733
aS'1997'
p4734
aS'Fly-half'
p4735
aS'Vichy'
p4736
aS'15'
p4737
aS'9'
aS'1'
aS'38'
p4738
aa(lp4739
S'Olivier Magne'
p4740
aS'1997'
p4741
aS'Flanker'
p4742
aS'Aurillac'
p4743
aS'89'
p4744
aS'59'
p4745
aS'14'
p4746
aS'70'
p4747
aa(lp4748
S'Didier Casadei'
p4749
aS'1997'
p4750
aS'Prop'
p4751
aS'Brive'
p4752
aS'3'
aS'2'
aS'0'
aS'0'
aa(lp4753
S'Pierre Bondouy'
p4754
aS'1997'
p4755
aS'Fullback'
p4756
aS'Ville Lauragais'
p4757
aS'5'
aS'3'
aS'2'
aS'10'
p4758
aa(lp4759
S'Ugo Mola'
p4760
aS'1997'
p4761
aS'Wing'
p4762
aS'Saint-Foy-la-Grande'
p4763
aS'12'
p4764
aS'8'
aS'6'
aS'30'
p4765
aa(lp4766
S'Serge Betsen Tchoua'
p4767
aS'1997'
p4768
aS'Flanker'
p4769
aS'Kumba'
p4770
aS'63'
p4771
aS'43'
p4772
aS'9'
aS'45'
p4773
aa(lp4774
S'David Dantiacq'
p4775
aS'1997'
p4776
aS'Centre'
p4777
aS'Paris'
p4778
aS'1'
aS'1'
aS'0'
aS'0'
aa(lp4779
S'Frederic Torossian'
p4780
aS'1997'
p4781
aS'Scrum-half'
p4782
aS'Auch'
p4783
aS'1'
aS'1'
aS'0'
aS'0'
aa(lp4784
S'David Laperne'
p4785
aS'1997'
p4786
aS'Prop'
p4787
aS'Oloron'
p4788
aS'1'
aS'1'
aS'0'
aS'0'
aa(lp4789
S'Jerome Cazalbou'
p4790
aS'1997'
p4791
aS'Scrum-half'
p4792
aS'Toulouse'
p4793
aS'4'
aS'3'
aS'0'
aS'0'
aa(lp4794
S'Nicolas Bacque'
p4795
aS'1997'
p4796
aS'Flanker'
p4797
aS'Tarbes'
p4798
aS'1'
aS'1'
aS'0'
aS'0'
aa(lp4799
S'Cedric Soulette'
p4800
aS'1997'
p4801
aS'Prop'
p4802
aS'Beziers'
p4803
aS'13'
p4804
aS'11'
p4805
aS'2'
aS'10'
p4806
aa(lp4807
S'Nicolas Brusque'
p4808
aS'1997'
p4809
aS'Fullback, Wing'
p4810
aS'Pau'
p4811
aS'27'
p4812
aS'17'
p4813
aS'7'
aS'38'
p4814
aa(lp4815
S'Pierre Mignoni'
p4816
aS'1997'
p4817
aS'Scrum-half'
p4818
aS'Toulon'
p4819
aS'28'
p4820
aS'21'
p4821
aS'6'
aS'30'
p4822
aa(lp4823
S'Christophe Dominici'
p4824
aS'1998'
p4825
aS'Wing, Fullback'
p4826
aS'Toulon'
p4827
aS'67'
p4828
aS'44'
p4829
aS'25'
p4830
aS'125'
p4831
aa(lp4832
S'Thierry Cleda'
p4833
aS'1998'
p4834
aS'Lock'
p4835
aS'Soissons'
p4836
aS'9'
aS'8'
aS'0'
aS'0'
aa(lp4837
S'Xavier Garbajosa'
p4838
aS'1998'
p4839
aS'Centre'
p4840
aS'Toulouse'
p4841
aS'32'
p4842
aS'19'
p4843
aS'6'
aS'30'
p4844
aa(lp4845
S'Jean-Marc Aue'
p4846
aS'1998'
p4847
aS'Centre'
p4848
aS'Carmaux'
p4849
aS'1'
aS'1'
aS'0'
aS'0'
aa(lp4850
S'Franck Comba'
p4851
aS'1998'
p4852
aS'Centre'
p4853
aS'Hyeres'
p4854
aS'13'
p4855
aS'7'
aS'2'
aS'10'
p4856
aa(lp4857
S'Arthur Gomes'
p4858
aS'1998'
p4859
aS'Fullback'
p4860
aS'Canedo Ribeira dPena'
p4861
aS'6'
aS'5'
aS'1'
aS'5'
aa(lp4862
S'Stephane de Besombes'
p4863
aS'1998'
p4864
aS'Prop'
p4865
aS'Perpignan'
p4866
aS'2'
aS'2'
aS'0'
aS'0'
aa(lp4867
S'Jimmy Marlu'
p4868
aS'1998'
p4869
aS'Wing'
p4870
aS'1977'
p4871
aS'4'
aS'4'
aS'0'
aS'0'
aa(lp4872
S'Thomas Lombard'
p4873
aS'1998'
p4874
aS'Centre, Wing'
p4875
aS'Le Chesnay'
p4876
aS'12'
p4877
aS'5'
aS'1'
aS'5'
aa(lp4878
S'Sylvain Marconnet'
p4879
aS'1998'
p4880
aS'Prop'
p4881
aS'Givors'
p4882
aS'84'
p4883
aS'49'
p4884
aS'3'
aS'15'
p4885
aa(lp4886
S'Marc Raynaud'
p4887
aS'1999'
p4888
aS'Back-row'
p4889
aS'Narbonne'
p4890
aS'2'
aS'0'
aS'0'
aS'0'
aa(lp4891
S'Pascal Giordani'
p4892
aS'1999'
p4893
aS'Centre'
p4894
aS'Belfort'
p4895
aS'2'
aS'0'
aS'0'
aS'0'
aa(lp4896
S'David Auradou'
p4897
aS'1999'
p4898
aS'Lock'
p4899
aS'Harfleur'
p4900
aS'41'
p4901
aS'24'
p4902
aS'0'
aS'0'
aa(lp4903
S'Christian Labit'
p4904
aS'1999'
p4905
aS'Back-row'
p4906
aS'Lezignan'
p4907
aS'17'
p4908
aS'7'
aS'0'
aS'0'
aa(lp4909
S'Christophe Laussucq'
p4910
aS'1999'
p4911
aS'Scrum-half'
p4912
aS'Bordeaux'
p4913
aS'4'
aS'2'
aS'1'
aS'5'
aa(lp4914
S'Jean-Luc Aqua'
p4915
aS'1999'
p4916
aS'Flanker'
p4917
aS'Aubagne'
p4918
aS'3'
aS'1'
aS'0'
aS'0'
aa(lp4919
S'Guillaume Delmotte'
p4920
aS'1999'
p4921
aS'Centre'
p4922
aS'Frejus'
p4923
aS'2'
aS'1'
aS'2'
aS'10'
p4924
aa(lp4925
S'Lionel Mallier'
p4926
aS'1999'
p4927
aS'Back-row'
p4928
aS'Grenoble'
p4929
aS'5'
aS'3'
aS'1'
aS'5'
aa(lp4930
S'Olivier Sarramea'
p4931
aS'1999'
p4932
aS'Fullback, Wing'
p4933
aS'Tarbes'
p4934
aS'4'
aS'2'
aS'2'
aS'10'
p4935
aa(lp4936
S'Gerald Merceron'
p4937
aS'1999'
p4938
aS'Fly-half'
p4939
aS'Cognac'
p4940
aS'32'
p4941
aS'19'
p4942
aS'3'
aS'267'
p4943
aa(lp4944
S'Eric Artiguste'
p4945
aS'1999'
p4946
aS'Centre'
p4947
aS'Lourdes'
p4948
aS'1'
aS'1'
aS'1'
aS'5'
aa(lp4949
S'Alexandre Chazalet'
p4950
aS'1999'
p4951
aS'Flanker'
p4952
aS'Valence'
p4953
aS'1'
aS'0'
aS'0'
aS'0'
aa(lp4954
S'David Gerard'
p4955
aS'1999'
p4956
aS'Lock'
p4957
aS'Toulon'
p4958
aS'1'
aS'0'
aS'0'
aS'0'
aa(lp4959
S'Stephane Castaignede'
p4960
aS'1999'
p4961
aS'Scrum-half'
p4962
aS'Mont-de-Marsan'
p4963
aS'7'
aS'5'
aS'0'
aS'0'
aa(lp4964
S'Pieter de Villiers'
p4965
aS'1999'
p4966
aS'Prop'
p4967
aS'Malmesbury'
p4968
aS'69'
p4969
aS'45'
p4970
aS'2'
aS'10'
p4971
aa(lp4972
S'Cedric Desbrosse'
p4973
aS'1999'
p4974
aS'Centre'
p4975
aS'Givors'
p4976
aS'2'
aS'1'
aS'0'
aS'0'
aa(lp4977
S'Legi Matiu'
p4978
aS'2000'
p4979
aS'Lock'
p4980
aS'Auckland'
p4981
aS'2'
aS'1'
aS'0'
aS'0'
aa(lp4982
S'Sebastien Chabal'
p4983
aS'2000'
p4984
aS'No. 8'
p4985
aS'Valence'
p4986
aS'62'
p4987
aS'35'
p4988
aS'6'
aS'30'
p4989
aa(lp4990
S'Jean Daude'
p4991
aS'2000'
p4992
aS'Lock'
p4993
aS'Nimes'
p4994
aS'1'
aS'1'
aS'0'
aS'0'
aa(lp4995
S'Jean-Baptiste Elissalde'
p4996
aS'2000'
p4997
aS'Fly-half, Scrum-half'
p4998
aS'La Rochelle'
p4999
aS'35'
p5000
aS'24'
p5001
aS'4'
aS'214'
p5002
aa(lp5003
S'David Bory'
p5004
aS'2000'
p5005
aS'Wing'
p5006
aS'Vichy'
p5007
aS'18'
p5008
aS'12'
p5009
aS'2'
aS'10'
p5010
aa(lp5011
S'Franck Belot'
p5012
aS'2000'
p5013
aS'Lock'
p5014
aS'Athis-Mons'
p5015
aS'1'
aS'0'
aS'0'
aS'0'
aa(lp5016
S'Cedric Heymans'
p5017
aS'2000'
p5018
aS'Fullback'
p5019
aS'Brive-la-Gallarde'
p5020
aS'59'
p5021
aS'37'
p5022
aS'16'
p5023
aS'80'
p5024
aa(lp5025
S'Alexandre Audebert'
p5026
aS'2000'
p5027
aS'Back-row'
p5028
aS'Suresnes'
p5029
aS'2'
aS'2'
aS'0'
aS'0'
aa(lp5030
S'Frederic Cermeno'
p5031
aS'2000'
p5032
aS'Utility back'
p5033
aS'Perpignan'
p5034
aS'1'
aS'1'
aS'0'
aS'0'
aa(lp5035
S'Patrice Collazo'
p5036
aS'2000'
p5037
aS'Prop'
p5038
aS'La Seyne-sur-Mer'
p5039
aS'1'
aS'1'
aS'0'
aS'0'
aa(lp5040
S'Fabrice Lalanne'
p5041
aS'2000'
p5042
aS'Lock'
p5043
aS'Lagarenne'
p5044
aS'1'
aS'1'
aS'0'
aS'0'
aa(lp5045
S'Lionel Nallet'
p5046
aS'2000'
p5047
aS'Lock'
p5048
aS'Bourg-en-Bresse'
p5049
aS'74'
p5050
aS'49'
p5051
aS'9'
aS'45'
p5052
aa(lp5053
S'Jean-Marc Souverbie'
p5054
aS'2000'
p5055
aS'Fullback'
p5056
aS'Pau'
p5057
aS'1'
aS'1'
aS'1'
aS'5'
aa(lp5058
S'Jean-Charles Cistacq'
p5059
aS'2000'
p5060
aS'Centre'
p5061
aS'Auch'
p5062
aS'1'
aS'1'
aS'0'
aS'0'
aa(lp5063
S'Alessio Galasso'
p5064
aS'2000'
p5065
aS'Prop'
p5066
aS'Dakar'
p5067
aS'2'
aS'1'
aS'0'
aS'0'
aa(lp5068
S'Olivier Milloud'
p5069
aS'2000'
p5070
aS'Prop'
p5071
aS'Saint-Vallier'
p5072
aS'50'
p5073
aS'34'
p5074
aS'1'
aS'5'
aa(lp5075
S'Fabrice Landreau'
p5076
aS'2000'
p5077
aS'Hooker'
p5078
aS'Angouleme'
p5079
aS'4'
aS'1'
aS'0'
aS'0'
aa(lp5080
S'Mathieu Dourthe'
p5081
aS'2000'
p5082
aS'Wing'
p5083
aS'Dax'
p5084
aS'1'
aS'1'
aS'0'
aS'0'
aa(lp5085
S'Sebastien Bonetti'
p5086
aS'2001'
p5087
aS'Fullback, Centre'
p5088
aS'Bergerac'
p5089
aS'3'
aS'1'
aS'2'
aS'10'
p5090
aa(lp5091
S'Christophe Milheres'
p5092
aS'2001'
p5093
aS'Flanker'
p5094
aS'Saint-Saulve'
p5095
aS'1'
aS'0'
aS'0'
aS'0'
aa(lp5096
S'Yannick Jauzion'
p5097
aS'2001'
p5098
aS'Centre'
p5099
aS'Castres'
p5100
aS'73'
p5101
aS'46'
p5102
aS'20'
p5103
aS'103'
p5104
aa(lp5105
S'Nicolas Jeanjean'
p5106
aS'2001'
p5107
aS'Wing'
p5108
aS'Montpellier'
p5109
aS'9'
aS'5'
aS'2'
aS'10'
p5110
aa(lp5111
S'Patrick Tabacco'
p5112
aS'2001'
p5113
aS'Back-row'
p5114
aS'Toulouse'
p5115
aS'18'
p5116
aS'12'
p5117
aS'1'
aS'5'
aa(lp5118
S'Elvis Vermeulen'
p5119
aS'2001'
p5120
aS'No. 8'
p5121
aS'Senlis'
p5122
aS'10'
p5123
aS'5'
aS'1'
aS'5'
aa(lp5124
S'Jean Bouilhou'
p5125
aS'2001'
p5126
aS'Flanker'
p5127
aS'Pau'
p5128
aS'2'
aS'0'
aS'0'
aS'0'
aa(lp5129
S'Pepito Elhorga'
p5130
aS'2001'
p5131
aS'Fullback'
p5132
aS'Agboville'
p5133
aS'18'
p5134
aS'11'
p5135
aS'3'
aS'15'
p5136
aa(lp5137
S'David Skrela'
p5138
aS'2001'
p5139
aS'Fly-half'
p5140
aS'Toulouse'
p5141
aS'23'
p5142
aS'15'
p5143
aS'0'
aS'112'
p5144
aa(lp5145
S'Francois Gelez'
p5146
aS'2001'
p5147
aS'Fly-half'
p5148
aS'Tyrosse'
p5149
aS'8'
aS'5'
aS'0'
aS'81'
p5150
aa(lp5151
S'Tony Marsh'
p5152
aS'2001'
p5153
aS'Centre'
p5154
aS'Auckland'
p5155
aS'21'
p5156
aS'14'
p5157
aS'7'
aS'35'
p5158
aa(lp5159
S'Francis Ntamack'
p5160
aS'2001'
p5161
aS'No. 8'
p5162
aS'Lyon'
p5163
aS'1'
aS'1'
aS'0'
aS'0'
aa(lp5164
S'Clement Poitrenaud'
p5165
aS'2001'
p5166
aS'Fullback'
p5167
aS'Castres'
p5168
aS'47'
p5169
aS'29'
p5170
aS'7'
aS'35'
p5171
aa(lp5172
S'Thibault Privat'
p5173
aS'2001'
p5174
aS'Lock'
p5175
aS'Nimes'
p5176
aS'10'
p5177
aS'7'
aS'0'
aS'0'
aa(lp5178
S'Aurelien Rougerie'
p5179
aS'2001'
p5180
aS'Centre'
p5181
aS'Beaumont'
p5182
aS'76'
p5183
aS'48'
p5184
aS'23'
p5185
aS'115'
p5186
aa(lp5187
S'Damien Traille'
p5188
aS'2001'
p5189
aS'Centre'
p5190
aS'Pau'
p5191
aS'86'
p5192
aS'55'
p5193
aS'14'
p5194
aS'128'
p5195
aa(lp5196
S'Frederic Michalak'
p5197
aS'2001'
p5198
aS'Fly-half'
p5199
aS'Toulouse'
p5200
aS'71'
p5201
aS'44'
p5202
aS'10'
p5203
aS'377'
p5204
aa(lp5205
S'Yannick Bru'
p5206
aS'2001'
p5207
aS'Hooker'
p5208
aS'Auch'
p5209
aS'18'
p5210
aS'14'
p5211
aS'1'
aS'5'
aa(lp5212
S'Jean-Baptiste Poux'
p5213
aS'2001'
p5214
aS'Prop, Hooker'
p5215
aS'Beziers'
p5216
aS'42'
p5217
aS'25'
p5218
aS'3'
aS'15'
p5219
aa(lp5220
S'Steven Hall'
p5221
aS'2002'
p5222
aS'Lock'
p5223
aS'Johannesburg'
p5224
aS'2'
aS'2'
aS'0'
aS'0'
aa(lp5225
S'Alexandre Albouy'
p5226
aS'2002'
p5227
aS'Scrum-half'
p5228
aS'Castres'
p5229
aS'1'
aS'1'
aS'0'
aS'0'
aa(lp5230
S'Imanol Harinordoquy'
p5231
aS'2002'
p5232
aS'No. 8'
p5233
aS'Bayonne'
p5234
aS'82'
p5235
aS'52'
p5236
aS'13'
p5237
aS'65'
p5238
aa(lp5239
S'Sebastien Bruno'
p5240
aS'2002'
p5241
aS'Hooker'
p5242
aS'Nimes'
p5243
aS'26'
p5244
aS'14'
p5245
aS'4'
aS'20'
p5246
aa(lp5247
S'Remy Martin'
p5248
aS'2002'
p5249
aS'Lock'
p5250
aS'Aubenas'
p5251
aS'23'
p5252
aS'13'
p5253
aS'3'
aS'15'
p5254
aa(lp5255
S'Christophe Porcu'
p5256
aS'2002'
p5257
aS'Lock'
p5258
aS'Mauvezin'
p5259
aS'3'
aS'0'
aS'0'
aS'0'
aa(lp5260
S'Arnaud Martinez'
p5261
aS'2002'
p5262
aS'Prop'
p5263
aS'Narbonne'
p5264
aS'2'
aS'1'
aS'0'
aS'0'
aa(lp5265
S'Vincent Clerc'
p5266
aS'2002'
p5267
aS'Wing'
p5268
aS'Echirolles'
p5269
aS'67'
p5270
aS'42'
p5271
aS'34'
p5272
aS'170'
p5273
aa(lp5274
S'Jean-Baptiste Rue'
p5275
aS'2002'
p5276
aS'Hooker'
p5277
aS'Nanterre'
p5278
aS'8'
aS'5'
aS'0'
aS'0'
aa(lp5279
S'Dimitri Yachvili'
p5280
aS'2002'
p5281
aS'Scrum-half'
p5282
aS'Brive-la-Gallarde'
p5283
aS'61'
p5284
aS'37'
p5285
aS'2'
aS'373'
p5286
aa(lp5287
S'Jerome Thion'
p5288
aS'2003'
p5289
aS'Lock'
p5290
aS'Senlis'
p5291
aS'54'
p5292
aS'36'
p5293
aS'1'
aS'5'
aa(lp5294
S'Nicolas Mas'
p5295
aS'2003'
p5296
aS'Prop'
p5297
aS'Perpignan'
p5298
aS'78'
p5299
aS'44'
p5300
aS'0'
aS'0'
aa(lp5301
S'Brian Liebenberg'
p5302
aS'2003'
p5303
aS'Centre'
p5304
aS'Benoni'
p5305
aS'12'
p5306
aS'9'
aS'5'
aS'25'
p5307
aa(lp5308
S'Pascal Pape'
p5309
aS'2004'
p5310
aS'Lock'
p5311
aS'Lyon'
p5312
aS'59'
p5313
aS'34'
p5314
aS'4'
aS'20'
p5315
aa(lp5316
S'William Servat'
p5317
aS'2004'
p5318
aS'Hooker'
p5319
aS'Saint-Gaudens'
p5320
aS'49'
p5321
aS'31'
p5322
aS'2'
aS'10'
p5323
aa(lp5324
S'Julien Peyrelongue'
p5325
aS'2004'
p5326
aS'Fly-half'
p5327
aS'Bayonne'
p5328
aS'6'
aS'4'
aS'0'
aS'3'
aa(lp5329
S'Julien Bonnaire'
p5330
aS'2004'
p5331
aS'Flanker'
p5332
aS'Bourgoin'
p5333
aS'75'
p5334
aS'49'
p5335
aS'6'
aS'30'
p5336
aa(lp5337
S'Mathieu Barrau'
p5338
aS'2004'
p5339
aS'Scrum-half'
p5340
aS'Beaumont'
p5341
aS'3'
aS'2'
aS'1'
aS'5'
aa(lp5342
S'David Couzinet'
p5343
aS'2004'
p5344
aS'Lock'
p5345
aS'Toulouse'
p5346
aS'3'
aS'2'
aS'0'
aS'0'
aa(lp5347
S'Yannick Nyanga Kabasele'
p5348
aS'2004'
p5349
aS'Back-row'
p5350
aS'Zaire'
p5351
aS'40'
p5352
aS'26'
p5353
aS'5'
aS'25'
p5354
aa(lp5355
S'Alexandre Peclier'
p5356
aS'2004'
p5357
aS'Fullback'
p5358
aS'Villefranche'
p5359
aS'2'
aS'2'
aS'0'
aS'33'
p5360
aa(lp5361
S'Ludovic Valbon'
p5362
aS'2004'
p5363
aS'Wing, Centre'
p5364
aS'Neuilly-sur-Seine'
p5365
aS'5'
aS'3'
aS'1'
aS'5'
aa(lp5366
S'Romain Froment'
p5367
aS'2004'
p5368
aS'Back-row'
p5369
aS'Clamart'
p5370
aS'1'
aS'1'
aS'0'
aS'0'
aa(lp5371
S'Pierre Rabadan'
p5372
aS'2004'
p5373
aS'Flanker'
p5374
aS'Aix-en-Province'
p5375
aS'2'
aS'2'
aS'0'
aS'0'
aa(lp5376
S'Philippe Bidabe'
p5377
aS'2004'
p5378
aS'Wing'
p5379
aS'Bayonne'
p5380
aS'2'
aS'2'
aS'0'
aS'0'
aa(lp5381
S'Bernard Goutta'
p5382
aS'2004'
p5383
aS'Flanker'
p5384
aS'Perpignan'
p5385
aS'1'
aS'1'
aS'1'
aS'5'
aa(lp5386
S'Ludovic Loustau'
p5387
aS'2004'
p5388
aS'Scrum-half'
p5389
aS'Talence'
p5390
aS'1'
aS'1'
aS'0'
aS'0'
aa(lp5391
S'Dimitri Szarzewski'
p5392
aS'2004'
p5393
aS'Hooker'
p5394
aS'Beziers'
p5395
aS'79'
p5396
aS'46'
p5397
aS'7'
aS'35'
p5398
aa(lp5399
S'Gregory Lamboley'
p5400
aS'2005'
p5401
aS'Back-row'
p5402
aS'Paris'
p5403
aS'14'
p5404
aS'9'
aS'1'
aS'5'
aa(lp5405
S'Jean-Philippe Grandclaude'
p5406
aS'2005'
p5407
aS'Centre'
p5408
aS'Frejus'
p5409
aS'3'
aS'1'
aS'0'
aS'0'
aa(lp5410
S'Julien Laharrague'
p5411
aS'2005'
p5412
aS'Fullback'
p5413
aS'Tarbes'
p5414
aS'12'
p5415
aS'7'
aS'4'
aS'20'
p5416
aa(lp5417
S'Benoit Baby'
p5418
aS'2005'
p5419
aS'Centre'
p5420
aS'Lavelanet'
p5421
aS'9'
aS'5'
aS'1'
aS'8'
aa(lp5422
S'David Marty'
p5423
aS'2005'
p5424
aS'Centre'
p5425
aS'Perpignan'
p5426
aS'37'
p5427
aS'30'
p5428
aS'11'
p5429
aS'55'
p5430
aa(lp5431
S'Julien Candelon'
p5432
aS'2005'
p5433
aS'Wing'
p5434
aS'Agen'
p5435
aS'2'
aS'0'
aS'2'
aS'10'
p5436
aa(lp5437
S'Florian Fritz'
p5438
aS'2005'
p5439
aS'Centre'
p5440
aS'Burgundy'
p5441
aS'34'
p5442
aS'14'
p5443
aS'3'
aS'24'
p5444
aa(lp5445
S'Romain Millo-Chluski'
p5446
aS'2005'
p5447
aS'Lock'
p5448
aS'Ris-Orangis'
p5449
aS'18'
p5450
aS'10'
p5451
aS'0'
aS'0'
aa(lp5452
S'Denis Avril'
p5453
aS'2005'
p5454
aS'Prop'
p5455
aS'Thouars'
p5456
aS'1'
aS'0'
aS'0'
aS'0'
aa(lp5457
S'Guilliaume Bousses'
p5458
aS'2006'
p5459
aS'Centre'
p5460
aS'Toulouse'
p5461
aS'1'
aS'0'
aS'0'
aS'0'
aa(lp5462
S'Benjamin Boyet'
p5463
aS'2006'
p5464
aS'Fly-half'
p5465
aS'Vienne'
p5466
aS'5'
aS'1'
aS'0'
aS'11'
p5467
aa(lp5468
S'David Attoub'
p5469
aS'2006'
p5470
aS'Prop'
p5471
aS'Valence'
p5472
aS'4'
aS'2'
aS'0'
aS'0'
aa(lp5473
S'Thierry Dusautoir'
p5474
aS'2006'
p5475
aS'Back-row'
p5476
aS'Ivory Coas'
p5477
aS'75'
p5478
aS'38'
p5479
aS'6'
aS'30'
p5480
aa(lp5481
S'Vincent Debaty'
p5482
aS'2006'
p5483
aS'Prop'
p5484
aS'Woluwe-Saint-Lambert'
p5485
aS'29'
p5486
aS'11'
p5487
aS'1'
aS'5'
aa(lp5488
S'Loic Jacquet'
p5489
aS'2006'
p5490
aS'Lock'
p5491
aS'Saint-Doulchard'
p5492
aS'4'
aS'3'
aS'0'
aS'0'
aa(lp5493
S'Lionel Beauxis'
p5494
aS'2007'
p5495
aS'Fly-half'
p5496
aS'Tarbes'
p5497
aS'20'
p5498
aS'12'
p5499
aS'1'
aS'125'
p5500
aa(lp5501
S'Benoit August'
p5502
aS'2007'
p5503
aS'Hooker'
p5504
aS'Mont-de-Marsan'
p5505
aS'1'
aS'1'
aS'0'
aS'0'
aa(lp5506
S'Jean-Francois Coux'
p5507
aS'2007'
p5508
aS'Wing'
p5509
aS'Grenoble'
p5510
aS'2'
aS'0'
aS'1'
aS'5'
aa(lp5511
S'Nicolas Durand'
p5512
aS'2007'
p5513
aS'Scrum-half'
p5514
aS'Toulouse'
p5515
aS'2'
aS'0'
aS'0'
aS'0'
aa(lp5516
S'Gregory le Corvec'
p5517
aS'2007'
p5518
aS'Back-row'
p5519
aS'Toulon'
p5520
aS'1'
aS'0'
aS'0'
aS'0'
aa(lp5521
S'Arnaud Mignardi'
p5522
aS'2007'
p5523
aS'Centre'
p5524
aS'Auch'
p5525
aS'2'
aS'0'
aS'0'
aS'0'
aa(lp5526
S'Julien Pierre'
p5527
aS'2007'
p5528
aS'Lock'
p5529
aS'Rodez'
p5530
aS'27'
p5531
aS'16'
p5532
aS'1'
aS'5'
aa(lp5533
S'Benjamin Thiery'
p5534
aS'2007'
p5535
aS'Fullback'
p5536
aS'Reims'
p5537
aS'4'
aS'0'
aS'0'
aS'0'
aa(lp5538
S'Damien Chouly'
p5539
aS'2007'
p5540
aS'No. 8'
p5541
aS'Limoges'
p5542
aS'29'
p5543
aS'11'
p5544
aS'1'
aS'5'
aa(lp5545
S'Mickael Forest'
p5546
aS'2007'
p5547
aS'Scrum-half'
p5548
aS'Chambery'
p5549
aS'2'
aS'0'
aS'0'
aS'0'
aa(lp5550
S'Nicolas Laharrague'
p5551
aS'2007'
p5552
aS'Fly-half'
p5553
aS'Tarbes'
p5554
aS'2'
aS'0'
aS'0'
aS'0'
aa(lp5555
S'Franck Montanella'
p5556
aS'2007'
p5557
aS'Prop'
p5558
aS'Cannes'
p5559
aS'1'
aS'0'
aS'0'
aS'0'
aa(lp5560
S'Olivier Olibeau'
p5561
aS'2007'
p5562
aS'Lock'
p5563
aS'Perpignan'
p5564
aS'2'
aS'0'
aS'0'
aS'0'
aa(lp5565
S'Lionel Mazars'
p5566
aS'2007'
p5567
aS'Centre'
p5568
aS'Toulouse'
p5569
aS'2'
aS'0'
aS'0'
aS'0'
aa(lp5570
S'Olivier Sourgens'
p5571
aS'2007'
p5572
aS'Prop'
p5573
aS'Cenon'
p5574
aS'1'
aS'0'
aS'0'
aS'0'
aa(lp5575
S'Fulgence Ouedraogo'
p5576
aS'2007'
p5577
aS'Flanker'
p5578
aS'Ouagadougou'
p5579
aS'36'
p5580
aS'19'
p5581
aS'1'
aS'5'
aa(lp5582
S'Julien Brugnaut'
p5583
aS'2008'
p5584
aS'Prop'
p5585
aS'Lille'
p5586
aS'2'
aS'2'
aS'0'
aS'0'
aa(lp5587
S'Lionel Faure'
p5588
aS'2008'
p5589
aS'Prop'
p5590
aS'Montauban'
p5591
aS'8'
aS'3'
aS'0'
aS'0'
aa(lp5592
S'Julien Malzieu'
p5593
aS'2008'
p5594
aS'Wing'
p5595
aS'Le Puy-en-Velay'
p5596
aS'20'
p5597
aS'13'
p5598
aS'5'
aS'25'
p5599
aa(lp5600
S'Francois Trinh-Duc'
p5601
aS'2008'
p5602
aS'Fly-half'
p5603
aS'Herault'
p5604
aS'49'
p5605
aS'28'
p5606
aS'9'
aS'70'
p5607
aa(lp5608
S'Arnaud Mela'
p5609
aS'2008'
p5610
aS'Lock'
p5611
aS'Saint-Gaudens'
p5612
aS'4'
aS'3'
aS'0'
aS'0'
aa(lp5613
S'Morgan Parra'
p5614
aS'2008'
p5615
aS'Scrum-half'
p5616
aS'Metz'
p5617
aS'59'
p5618
aS'33'
p5619
aS'3'
aS'325'
p5620
aa(lp5621
S'Louis Picamoles'
p5622
aS'2008'
p5623
aS'No. 8'
p5624
aS'Paris'
p5625
aS'44'
p5626
aS'20'
p5627
aS'6'
aS'30'
p5628
aa(lp5629
S'Anthony Floch'
p5630
aS'2008'
p5631
aS'Fullback'
p5632
aS'Clermont-Ferrand'
p5633
aS'3'
aS'1'
aS'1'
aS'5'
aa(lp5634
S'Fabien Barcella'
p5635
aS'2008'
p5636
aS'Prop'
p5637
aS'Agen'
p5638
aS'20'
p5639
aS'12'
p5640
aS'0'
aS'0'
aa(lp5641
S'Yann David'
p5642
aS'2008'
p5643
aS'Centre'
p5644
aS'Bourgoin'
p5645
aS'4'
aS'3'
aS'0'
aS'0'
aa(lp5646
S'Ibrahim Diarra'
p5647
aS'2008'
p5648
aS'Flanker'
p5649
aS'Savignu-sur-Orge'
p5650
aS'1'
aS'1'
aS'0'
aS'0'
aa(lp5651
S'Guilhem Guirado'
p5652
aS'2008'
p5653
aS'Hooker'
p5654
aS'Ceret'
p5655
aS'31'
p5656
aS'15'
p5657
aS'1'
aS'5'
aa(lp5658
S'Julien Tomas'
p5659
aS'2008'
p5660
aS'Scrum-half'
p5661
aS'Montpellier'
p5662
aS'3'
aS'2'
aS'0'
aS'0'
aa(lp5663
S'Benoit Lecouls'
p5664
aS'2008'
p5665
aS'Prop'
p5666
aS'Agen'
p5667
aS'6'
aS'2'
aS'0'
aS'0'
aa(lp5668
S'Alexis Palisson'
p5669
aS'2008'
p5670
aS'Wing'
p5671
aS'Montauban'
p5672
aS'21'
p5673
aS'13'
p5674
aS'2'
aS'10'
p5675
aa(lp5676
S'Renaud Boyoud'
p5677
aS'2008'
p5678
aS'Prop'
p5679
aS'Grenoble'
p5680
aS'3'
aS'1'
aS'0'
aS'0'
aa(lp5681
S'David Janin'
p5682
aS'2008'
p5683
aS'Centre'
p5684
aS'Tremblay-les-Gonesse'
p5685
aS'2'
aS'0'
aS'0'
aS'0'
aa(lp5686
S'Benjamin Kayser'
p5687
aS'2008'
p5688
aS'Hooker'
p5689
aS'Paris'
p5690
aS'32'
p5691
aS'15'
p5692
aS'2'
aS'10'
p5693
aa(lp5694
S'Thibault Lacroix'
p5695
aS'2008'
p5696
aS'Centre'
p5697
aS'Niort'
p5698
aS'2'
aS'0'
aS'0'
aS'0'
aa(lp5699
S'Matthieu Lievremont'
p5700
aS'2008'
p5701
aS'Back-row'
p5702
aS'Perpignan'
p5703
aS'2'
aS'0'
aS'0'
aS'0'
aa(lp5704
S'Sebastien Tillous-Borde'
p5705
aS'2008'
p5706
aS'Scrum-half'
p5707
aS'Oloron-Sainte-Marie'
p5708
aS'14'
p5709
aS'6'
aS'3'
aS'15'
p5710
aa(lp5711
S'Pierre Correia'
p5712
aS'2008'
p5713
aS'Prop'
p5714
aS'Talence'
p5715
aS'1'
aS'0'
aS'0'
aS'0'
aa(lp5716
S'Maxime Mermoz'
p5717
aS'2008'
p5718
aS'Centre'
p5719
aS'Epinal'
p5720
aS'30'
p5721
aS'14'
p5722
aS'3'
aS'15'
p5723
aa(lp5724
S'Yannick Caballero'
p5725
aS'2008'
p5726
aS'Flanker'
p5727
aS'Castres'
p5728
aS'1'
aS'0'
aS'0'
aS'0'
aa(lp5729
S'Jean-Baptiste Peyras-Loustalet'
p5730
aS'2008'
p5731
aS'Fullback'
p5732
aS'Pau'
p5733
aS'1'
aS'0'
aS'0'
aS'0'
aa(lp5734
S'Maxime Medard'
p5735
aS'2008'
p5736
aS'Wing'
p5737
aS'Toulouse'
p5738
aS'41'
p5739
aS'24'
p5740
aS'11'
p5741
aS'58'
p5742
aa(lp5743
S'Mathieu Bastareaud'
p5744
aS'2009'
p5745
aS'Centre'
p5746
aS'Creteil'
p5747
aS'33'
p5748
aS'17'
p5749
aS'3'
aS'15'
p5750
aa(lp5751
S'Thomas Domingo'
p5752
aS'2009'
p5753
aS'Prop'
p5754
aS'Tulle'
p5755
aS'36'
p5756
aS'20'
p5757
aS'1'
aS'5'
aa(lp5758
S'Julien Dupuy'
p5759
aS'2009'
p5760
aS'Scrum-half'
p5761
aS'Perigueux'
p5762
aS'8'
aS'4'
aS'0'
aS'38'
p5763
aa(lp5764
S'Julien Puricelli'
p5765
aS'2009'
p5766
aS'Flanker'
p5767
aS'Grenoble'
p5768
aS'4'
aS'2'
aS'0'
aS'0'
aa(lp5769
S'Julien Arias'
p5770
aS'2009'
p5771
aS'Wing'
p5772
aS'Marseille'
p5773
aS'2'
aS'1'
aS'0'
aS'0'
aa(lp5774
S'Benjamin Fall'
p5775
aS'2009'
p5776
aS'Wing'
p5777
aS'Langon'
p5778
aS'6'
aS'3'
aS'3'
aS'15'
p5779
aa(lp5780
S'Alexandre Lapandry'
p5781
aS'2009'
p5782
aS'Flanker'
p5783
aS'Paray-le-Monial'
p5784
aS'10'
p5785
aS'8'
aS'2'
aS'10'
p5786
aa(lp5787
S'Luc Ducalcon'
p5788
aS'2010'
p5789
aS'Prop'
p5790
aS'La Fere'
p5791
aS'17'
p5792
aS'8'
aS'0'
aS'0'
aa(lp5793
S'Marc Andreu'
p5794
aS'2010'
p5795
aS'Wing'
p5796
aS'Frejus'
p5797
aS'7'
aS'4'
aS'2'
aS'10'
p5798
aa(lp5799
S'Wenceslas Lauret'
p5800
aS'2010'
p5801
aS'Flanker'
p5802
aS'Tarbes'
p5803
aS'7'
aS'1'
aS'0'
aS'0'
aa(lp5804
S'Jerome Porical'
p5805
aS'2010'
p5806
aS'Fullback'
p5807
aS'Perpignan'
p5808
aS'4'
aS'2'
aS'0'
aS'3'
aa(lp5809
S'Fabrice Estebanez'
p5810
aS'2010'
p5811
aS'Centre'
p5812
aS'Carcassonne'
p5813
aS'8'
aS'5'
aS'0'
aS'0'
aa(lp5814
S'Jerome Schuster'
p5815
aS'2010'
p5816
aS'Prop'
p5817
aS'Perpignan'
p5818
aS'2'
aS'1'
aS'0'
aS'0'
aa(lp5819
S'Benjamin Noirot'
p5820
aS'2010'
p5821
aS'Hooker'
p5822
aS'Dijon'
p5823
aS'1'
aS'1'
aS'0'
aS'0'
aa(lp5824
S'Yoann Huget'
p5825
aS'2010'
p5826
aS'Wing'
p5827
aS'Pamiers'
p5828
aS'38'
p5829
aS'16'
p5830
aS'6'
aS'30'
p5831
aa(lp5832
S'Raphael Lakafia'
p5833
aS'2011'
p5834
aS'No. 8'
p5835
aS'Tours'
p5836
aS'3'
aS'2'
aS'0'
aS'0'
aa(lp5837
S'Jean-Marc Doussain'
p5838
aS'2011'
p5839
aS'Scrum-half'
p5840
aS'Toulouse'
p5841
aS'10'
p5842
aS'3'
aS'0'
aS'36'
p5843
aa(lp5844
S'Wesley Fofana'
p5845
aS'2012'
p5846
aS'Centre'
p5847
aS'Paris'
p5848
aS'33'
p5849
aS'13'
p5850
aS'11'
p5851
aS'55'
p5852
aa(lp5853
S'Yoann Maestri'
p5854
aS'2012'
p5855
aS'Lock'
p5856
aS'Hyeres'
p5857
aS'36'
p5858
aS'14'
p5859
aS'1'
aS'5'
aa(lp5860
S'Jean-Marcelin Buttin'
p5861
aS'2012'
p5862
aS'Fullback'
p5863
aS'Colmar'
p5864
aS'2'
aS'0'
aS'0'
aS'0'
aa(lp5865
S'Brice Dulin'
p5866
aS'2012'
p5867
aS'Fullback'
p5868
aS'Lot-et-Garonne'
p5869
aS'19'
p5870
aS'8'
aS'4'
aS'23'
p5871
aa(lp5872
S'Yvan Watremez'
p5873
aS'2012'
p5874
aS'Prop'
p5875
aS'Foix'
p5876
aS'1'
aS'0'
aS'0'
aS'0'
aa(lp5877
S'Romain Taofifenua'
p5878
aS'2012'
p5879
aS'Lock'
p5880
aS'Mont-de-Marsan'
p5881
aS'8'
aS'2'
aS'1'
aS'5'
aa(lp5882
S'Christopher Tolofua'
p5883
aS'2012'
p5884
aS'Hooker'
p5885
aS'Frejus'
p5886
aS'4'
aS'1'
aS'0'
aS'0'
aa(lp5887
S'Maxime Machenaud'
p5888
aS'2012'
p5889
aS'Scrum-half'
p5890
aS'Bordeaux'
p5891
aS'18'
p5892
aS'8'
aS'1'
aS'43'
p5893
aa(lp5894
S'Christophe Samson'
p5895
aS'2012'
p5896
aS'Lock'
p5897
aS'Clermont-Ferrand'
p5898
aS'5'
aS'2'
aS'0'
aS'0'
aa(lp5899
S'Yannick Forestier'
p5900
aS'2012'
p5901
aS'Prop'
p5902
aS'Narbonne'
p5903
aS'11'
p5904
aS'6'
aS'0'
aS'0'
aa(lp5905
S'Jocelino Suta'
p5906
aS'2012'
p5907
aS'Lock'
p5908
aS'Port Vila'
p5909
aS'6'
aS'3'
aS'0'
aS'0'
aa(lp5910
S'Sebastien Vahaamahina'
p5911
aS'2012'
p5912
aS'Lock'
p5913
aS'New Caledo'
p5914
aS'15'
p5915
aS'5'
aS'0'
aS'0'
aa(lp5916
S'Antonie Claassen'
p5917
aS'2013'
p5918
aS'No. 8'
p5919
aS'Durban'
p5920
aS'6'
aS'2'
aS'0'
aS'0'
aa(lp5921
S'Gael Fickou'
p5922
aS'2013'
p5923
aS'Centre'
p5924
aS'La Seyne-sur-Mer'
p5925
aS'11'
p5926
aS'6'
aS'1'
aS'5'
aa(lp5927
S'Camille Lopez'
p5928
aS'2013'
p5929
aS'Fly-half'
p5930
aS'Oloron-Sainte-Marie'
p5931
aS'9'
aS'4'
aS'0'
aS'72'
p5932
aa(lp5933
S'Adrien Plante'
p5934
aS'2013'
p5935
aS'Wing'
p5936
aS'Longjumeau'
p5937
aS'2'
aS'0'
aS'0'
aS'0'
aa(lp5938
S'Alexandre Flanquart'
p5939
aS'2013'
p5940
aS'Lock'
p5941
aS'Cambrai'
p5942
aS'12'
p5943
aS'5'
aS'0'
aS'0'
aa(lp5944
S'Dan Kotze'
p5945
aS'2013'
p5946
aS'Prop'
p5947
aS'Frankfort'
p5948
aS'1'
aS'0'
aS'0'
aS'0'
aa(lp5949
S'Bernard le Roux'
p5950
aS'2013'
p5951
aS'Flanker'
p5952
aS'Moorreesburg'
p5953
aS'16'
p5954
aS'7'
aS'0'
aS'0'
aa(lp5955
S'Remi Tales'
p5956
aS'2013'
p5957
aS'Fly-half'
p5958
aS'Mont-de-Marsan'
p5959
aS'16'
p5960
aS'4'
aS'0'
aS'0'
aa(lp5961
S'Eddy Ben Arous'
p5962
aS'2013'
p5963
aS'Prop'
p5964
aS'Trappes'
p5965
aS'5'
aS'2'
aS'0'
aS'0'
aa(lp5966
S'Rabah Slimani'
p5967
aS'2013'
p5968
aS'Prop'
p5969
aS'Sarcelles'
p5970
aS'15'
p5971
aS'6'
aS'0'
aS'0'
aa(lp5972
S'Sofiane Guitoune'
p5973
aS'2013'
p5974
aS'Fullback'
p5975
aS'Algiers'
p5976
aS'3'
aS'1'
aS'1'
aS'5'
aa(lp5977
S'Jonathan Pelissie'
p5978
aS'2013'
p5979
aS'Scrum-half'
p5980
aS'Aubergenville'
p5981
aS'1'
aS'1'
aS'0'
aS'0'
aa(lp5982
S'Jules Plisson'
p5983
aS'2014'
p5984
aS'Fly-half'
p5985
aS'Neuilly-sur-Seine'
p5986
aS'6'
aS'4'
aS'0'
aS'20'
p5987
aa(lp5988
S'Antoine Burban'
p5989
aS'2014'
p5990
aS'Flanker'
p5991
aS'Neuilly-sur-Seine'
p5992
aS'3'
aS'1'
aS'0'
aS'0'
aa(lp5993
S'Hugo Bonneval'
p5994
aS'2014'
p5995
aS'Fullback'
p5996
aS'Toulouse'
p5997
aS'4'
aS'1'
aS'1'
aS'5'
aa(lp5998
S'Brice Mach'
p5999
aS'2014'
p6000
aS'Hooker'
p6001
aS'Perpignan'
p6002
aS'3'
aS'1'
aS'0'
aS'0'
aa(lp6003
S'Felix le Bourhis'
p6004
aS'2014'
p6005
aS'Centre'
p6006
aS'Pithiviers'
p6007
aS'1'
aS'0'
aS'0'
aS'0'
aa(lp6008
S'Remi Lamerat'
p6009
aS'2014'
p6010
aS'Centre'
p6011
aS'Sainte-Foy-la-Grande'
p6012
aS'6'
aS'1'
aS'0'
aS'0'
aa(lp6013
S'Alexandre Menini'
p6014
aS'2014'
p6015
aS'Prop'
p6016
aS'Basse-Ham'
p6017
aS'6'
aS'3'
aS'0'
aS'0'
aa(lp6018
S'Alexandre Dumoulin'
p6019
aS'2014'
p6020
aS'Centre'
p6021
aS'Bourgoin'
p6022
aS'2'
aS'2'
aS'0'
aS'0'
aa(lp6023
S'Scott Spedding'
p6024
aS'2014'
p6025
aS'Fullback'
p6026
aS'Krugersdorp'
p6027
aS'7'
aS'4'
aS'0'
aS'3'
aa(lp6028
S'Teddy Thomas'
p6029
aS'2014'
p6030
aS'Wing'
p6031
aS'Biarritz'
p6032
aS'4'
aS'3'
aS'4'
aS'20'
p6033
aa(lp6034
S'Uini Atonio'
p6035
aS'2014'
p6036
aS'Prop'
p6037
aS'Timaru'
p6038
aS'7'
aS'3'
aS'0'
aS'0'
aa(lp6039
S'Xavier Chiocci'
p6040
aS'2014'
p6041
aS'Prop'
p6042
aS'Toulon'
p6043
aS'3'
aS'2'
aS'0'
aS'0'
aa(lp6044
S'Rory Kockott'
p6045
aS'2014'
p6046
aS'Scrum-half'
p6047
aS'East London'
p6048
aS'7'
aS'4'
aS'0'
aS'11'
p6049
aa(lp6050
S'Charles Ollivon'
p6051
aS'2014'
p6052
aS'Flanker'
p6053
aS'Saint-Pee-sur-Nivell'
p6054
aS'2'
aS'1'
aS'0'
aS'0'
aa(lp6055
S'Loann Goujon'
p6056
aS'2015'
p6057
aS'No. 8'
p6058
aS'Combronde'
p6059
aS'5'
aS'2'
aS'0'
aS'0'
aa(lp6060
S'Noa Nakaitaci'
p6061
aS'2015'
p6062
aS'Wing'
p6063
aS'Naluwai'
p6064
aS'2'
aS'1'
aS'1'
aS'5'
aa.