(lp1
S'http://www.espnscrum.com/ireland/rugby/player/336.html'
p2
aS'http://www.espnscrum.com/ireland/rugby/player/337.html'
p3
aS'http://www.espnscrum.com/ireland/rugby/player/338.html'
p4
aS'http://www.espnscrum.com/ireland/rugby/player/339.html'
p5
aS'http://www.espnscrum.com/ireland/rugby/player/340.html'
p6
aS'http://www.espnscrum.com/ireland/rugby/player/341.html'
p7
aS'http://www.espnscrum.com/ireland/rugby/player/342.html'
p8
aS'http://www.espnscrum.com/ireland/rugby/player/343.html'
p9
aS'http://www.espnscrum.com/ireland/rugby/player/344.html'
p10
aS'http://www.espnscrum.com/ireland/rugby/player/346.html'
p11
aS'http://www.espnscrum.com/ireland/rugby/player/347.html'
p12
aS'http://www.espnscrum.com/ireland/rugby/player/348.html'
p13
aS'http://www.espnscrum.com/ireland/rugby/player/350.html'
p14
aS'http://www.espnscrum.com/ireland/rugby/player/352.html'
p15
aS'http://www.espnscrum.com/ireland/rugby/player/353.html'
p16
aS'http://www.espnscrum.com/ireland/rugby/player/354.html'
p17
aS'http://www.espnscrum.com/ireland/rugby/player/356.html'
p18
aS'http://www.espnscrum.com/ireland/rugby/player/360.html'
p19
aS'http://www.espnscrum.com/ireland/rugby/player/362.html'
p20
aS'http://www.espnscrum.com/ireland/rugby/player/363.html'
p21
aS'http://www.espnscrum.com/ireland/rugby/player/376.html'
p22
aS'http://www.espnscrum.com/ireland/rugby/player/381.html'
p23
aS'http://www.espnscrum.com/ireland/rugby/player/382.html'
p24
aS'http://www.espnscrum.com/ireland/rugby/player/384.html'
p25
aS'http://www.espnscrum.com/ireland/rugby/player/387.html'
p26
aS'http://www.espnscrum.com/ireland/rugby/player/388.html'
p27
aS'http://www.espnscrum.com/ireland/rugby/player/391.html'
p28
aS'http://www.espnscrum.com/ireland/rugby/player/394.html'
p29
aS'http://www.espnscrum.com/ireland/rugby/player/412.html'
p30
aS'http://www.espnscrum.com/ireland/rugby/player/413.html'
p31
aS'http://www.espnscrum.com/ireland/rugby/player/414.html'
p32
aS'http://www.espnscrum.com/ireland/rugby/player/416.html'
p33
aS'http://www.espnscrum.com/ireland/rugby/player/417.html'
p34
aS'http://www.espnscrum.com/ireland/rugby/player/420.html'
p35
aS'http://www.espnscrum.com/ireland/rugby/player/421.html'
p36
aS'http://www.espnscrum.com/ireland/rugby/player/422.html'
p37
aS'http://www.espnscrum.com/ireland/rugby/player/425.html'
p38
aS'http://www.espnscrum.com/ireland/rugby/player/426.html'
p39
aS'http://www.espnscrum.com/ireland/rugby/player/427.html'
p40
aS'http://www.espnscrum.com/ireland/rugby/player/428.html'
p41
aS'http://www.espnscrum.com/ireland/rugby/player/431.html'
p42
aS'http://www.espnscrum.com/ireland/rugby/player/434.html'
p43
aS'http://www.espnscrum.com/ireland/rugby/player/456.html'
p44
aS'http://www.espnscrum.com/ireland/rugby/player/459.html'
p45
aS'http://www.espnscrum.com/ireland/rugby/player/461.html'
p46
aS'http://www.espnscrum.com/ireland/rugby/player/462.html'
p47
aS'http://www.espnscrum.com/ireland/rugby/player/464.html'
p48
aS'http://www.espnscrum.com/ireland/rugby/player/465.html'
p49
aS'http://www.espnscrum.com/ireland/rugby/player/467.html'
p50
aS'http://www.espnscrum.com/ireland/rugby/player/470.html'
p51
aS'http://www.espnscrum.com/ireland/rugby/player/471.html'
p52
aS'http://www.espnscrum.com/ireland/rugby/player/474.html'
p53
aS'http://www.espnscrum.com/ireland/rugby/player/475.html'
p54
aS'http://www.espnscrum.com/ireland/rugby/player/476.html'
p55
aS'http://www.espnscrum.com/ireland/rugby/player/478.html'
p56
aS'http://www.espnscrum.com/ireland/rugby/player/479.html'
p57
aS'http://www.espnscrum.com/ireland/rugby/player/480.html'
p58
aS'http://www.espnscrum.com/ireland/rugby/player/483.html'
p59
aS'http://www.espnscrum.com/ireland/rugby/player/493.html'
p60
aS'http://www.espnscrum.com/ireland/rugby/player/494.html'
p61
aS'http://www.espnscrum.com/ireland/rugby/player/495.html'
p62
aS'http://www.espnscrum.com/ireland/rugby/player/497.html'
p63
aS'http://www.espnscrum.com/ireland/rugby/player/499.html'
p64
aS'http://www.espnscrum.com/ireland/rugby/player/501.html'
p65
aS'http://www.espnscrum.com/ireland/rugby/player/504.html'
p66
aS'http://www.espnscrum.com/ireland/rugby/player/506.html'
p67
aS'http://www.espnscrum.com/ireland/rugby/player/507.html'
p68
aS'http://www.espnscrum.com/ireland/rugby/player/510.html'
p69
aS'http://www.espnscrum.com/ireland/rugby/player/518.html'
p70
aS'http://www.espnscrum.com/ireland/rugby/player/524.html'
p71
aS'http://www.espnscrum.com/ireland/rugby/player/525.html'
p72
aS'http://www.espnscrum.com/ireland/rugby/player/528.html'
p73
aS'http://www.espnscrum.com/ireland/rugby/player/529.html'
p74
aS'http://www.espnscrum.com/ireland/rugby/player/530.html'
p75
aS'http://www.espnscrum.com/ireland/rugby/player/533.html'
p76
aS'http://www.espnscrum.com/ireland/rugby/player/541.html'
p77
aS'http://www.espnscrum.com/ireland/rugby/player/543.html'
p78
aS'http://www.espnscrum.com/ireland/rugby/player/566.html'
p79
aS'http://www.espnscrum.com/ireland/rugby/player/567.html'
p80
aS'http://www.espnscrum.com/ireland/rugby/player/571.html'
p81
aS'http://www.espnscrum.com/ireland/rugby/player/573.html'
p82
aS'http://www.espnscrum.com/ireland/rugby/player/575.html'
p83
aS'http://www.espnscrum.com/ireland/rugby/player/576.html'
p84
aS'http://www.espnscrum.com/ireland/rugby/player/578.html'
p85
aS'http://www.espnscrum.com/ireland/rugby/player/580.html'
p86
aS'http://www.espnscrum.com/ireland/rugby/player/581.html'
p87
aS'http://www.espnscrum.com/ireland/rugby/player/584.html'
p88
aS'http://www.espnscrum.com/ireland/rugby/player/591.html'
p89
aS'http://www.espnscrum.com/ireland/rugby/player/593.html'
p90
aS'http://www.espnscrum.com/ireland/rugby/player/595.html'
p91
aS'http://www.espnscrum.com/ireland/rugby/player/596.html'
p92
aS'http://www.espnscrum.com/ireland/rugby/player/599.html'
p93
aS'http://www.espnscrum.com/ireland/rugby/player/602.html'
p94
aS'http://www.espnscrum.com/ireland/rugby/player/603.html'
p95
aS'http://www.espnscrum.com/ireland/rugby/player/604.html'
p96
aS'http://www.espnscrum.com/ireland/rugby/player/635.html'
p97
aS'http://www.espnscrum.com/ireland/rugby/player/636.html'
p98
aS'http://www.espnscrum.com/ireland/rugby/player/637.html'
p99
aS'http://www.espnscrum.com/ireland/rugby/player/641.html'
p100
aS'http://www.espnscrum.com/ireland/rugby/player/642.html'
p101
aS'http://www.espnscrum.com/ireland/rugby/player/644.html'
p102
aS'http://www.espnscrum.com/ireland/rugby/player/662.html'
p103
aS'http://www.espnscrum.com/ireland/rugby/player/664.html'
p104
aS'http://www.espnscrum.com/ireland/rugby/player/666.html'
p105
aS'http://www.espnscrum.com/ireland/rugby/player/667.html'
p106
aS'http://www.espnscrum.com/ireland/rugby/player/668.html'
p107
aS'http://www.espnscrum.com/ireland/rugby/player/674.html'
p108
aS'http://www.espnscrum.com/ireland/rugby/player/675.html'
p109
aS'http://www.espnscrum.com/ireland/rugby/player/676.html'
p110
aS'http://www.espnscrum.com/ireland/rugby/player/677.html'
p111
aS'http://www.espnscrum.com/ireland/rugby/player/678.html'
p112
aS'http://www.espnscrum.com/ireland/rugby/player/679.html'
p113
aS'http://www.espnscrum.com/ireland/rugby/player/681.html'
p114
aS'http://www.espnscrum.com/ireland/rugby/player/683.html'
p115
aS'http://www.espnscrum.com/ireland/rugby/player/684.html'
p116
aS'http://www.espnscrum.com/ireland/rugby/player/685.html'
p117
aS'http://www.espnscrum.com/ireland/rugby/player/687.html'
p118
aS'http://www.espnscrum.com/ireland/rugby/player/688.html'
p119
aS'http://www.espnscrum.com/ireland/rugby/player/691.html'
p120
aS'http://www.espnscrum.com/ireland/rugby/player/692.html'
p121
aS'http://www.espnscrum.com/ireland/rugby/player/693.html'
p122
aS'http://www.espnscrum.com/ireland/rugby/player/694.html'
p123
aS'http://www.espnscrum.com/ireland/rugby/player/695.html'
p124
aS'http://www.espnscrum.com/ireland/rugby/player/717.html'
p125
aS'http://www.espnscrum.com/ireland/rugby/player/718.html'
p126
aS'http://www.espnscrum.com/ireland/rugby/player/719.html'
p127
aS'http://www.espnscrum.com/ireland/rugby/player/721.html'
p128
aS'http://www.espnscrum.com/ireland/rugby/player/722.html'
p129
aS'http://www.espnscrum.com/ireland/rugby/player/723.html'
p130
aS'http://www.espnscrum.com/ireland/rugby/player/724.html'
p131
aS'http://www.espnscrum.com/ireland/rugby/player/725.html'
p132
aS'http://www.espnscrum.com/ireland/rugby/player/728.html'
p133
aS'http://www.espnscrum.com/ireland/rugby/player/730.html'
p134
aS'http://www.espnscrum.com/ireland/rugby/player/731.html'
p135
aS'http://www.espnscrum.com/ireland/rugby/player/753.html'
p136
aS'http://www.espnscrum.com/ireland/rugby/player/754.html'
p137
aS'http://www.espnscrum.com/ireland/rugby/player/755.html'
p138
aS'http://www.espnscrum.com/ireland/rugby/player/758.html'
p139
aS'http://www.espnscrum.com/ireland/rugby/player/759.html'
p140
aS'http://www.espnscrum.com/ireland/rugby/player/761.html'
p141
aS'http://www.espnscrum.com/ireland/rugby/player/762.html'
p142
aS'http://www.espnscrum.com/ireland/rugby/player/763.html'
p143
aS'http://www.espnscrum.com/ireland/rugby/player/764.html'
p144
aS'http://www.espnscrum.com/ireland/rugby/player/765.html'
p145
aS'http://www.espnscrum.com/ireland/rugby/player/781.html'
p146
aS'http://www.espnscrum.com/ireland/rugby/player/783.html'
p147
aS'http://www.espnscrum.com/ireland/rugby/player/784.html'
p148
aS'http://www.espnscrum.com/ireland/rugby/player/785.html'
p149
aS'http://www.espnscrum.com/ireland/rugby/player/787.html'
p150
aS'http://www.espnscrum.com/ireland/rugby/player/789.html'
p151
aS'http://www.espnscrum.com/ireland/rugby/player/790.html'
p152
aS'http://www.espnscrum.com/ireland/rugby/player/791.html'
p153
aS'http://www.espnscrum.com/ireland/rugby/player/792.html'
p154
aS'http://www.espnscrum.com/ireland/rugby/player/795.html'
p155
aS'http://www.espnscrum.com/ireland/rugby/player/803.html'
p156
aS'http://www.espnscrum.com/ireland/rugby/player/805.html'
p157
aS'http://www.espnscrum.com/ireland/rugby/player/806.html'
p158
aS'http://www.espnscrum.com/ireland/rugby/player/823.html'
p159
aS'http://www.espnscrum.com/ireland/rugby/player/824.html'
p160
aS'http://www.espnscrum.com/ireland/rugby/player/825.html'
p161
aS'http://www.espnscrum.com/ireland/rugby/player/826.html'
p162
aS'http://www.espnscrum.com/ireland/rugby/player/829.html'
p163
aS'http://www.espnscrum.com/ireland/rugby/player/830.html'
p164
aS'http://www.espnscrum.com/ireland/rugby/player/831.html'
p165
aS'http://www.espnscrum.com/ireland/rugby/player/832.html'
p166
aS'http://www.espnscrum.com/ireland/rugby/player/833.html'
p167
aS'http://www.espnscrum.com/ireland/rugby/player/834.html'
p168
aS'http://www.espnscrum.com/ireland/rugby/player/835.html'
p169
aS'http://www.espnscrum.com/ireland/rugby/player/836.html'
p170
aS'http://www.espnscrum.com/ireland/rugby/player/837.html'
p171
aS'http://www.espnscrum.com/ireland/rugby/player/838.html'
p172
aS'http://www.espnscrum.com/ireland/rugby/player/839.html'
p173
aS'http://www.espnscrum.com/ireland/rugby/player/880.html'
p174
aS'http://www.espnscrum.com/ireland/rugby/player/882.html'
p175
aS'http://www.espnscrum.com/ireland/rugby/player/888.html'
p176
aS'http://www.espnscrum.com/ireland/rugby/player/890.html'
p177
aS'http://www.espnscrum.com/ireland/rugby/player/895.html'
p178
aS'http://www.espnscrum.com/ireland/rugby/player/899.html'
p179
aS'http://www.espnscrum.com/ireland/rugby/player/901.html'
p180
aS'http://www.espnscrum.com/ireland/rugby/player/903.html'
p181
aS'http://www.espnscrum.com/ireland/rugby/player/905.html'
p182
aS'http://www.espnscrum.com/ireland/rugby/player/907.html'
p183
aS'http://www.espnscrum.com/ireland/rugby/player/927.html'
p184
aS'http://www.espnscrum.com/ireland/rugby/player/928.html'
p185
aS'http://www.espnscrum.com/ireland/rugby/player/929.html'
p186
aS'http://www.espnscrum.com/ireland/rugby/player/930.html'
p187
aS'http://www.espnscrum.com/ireland/rugby/player/931.html'
p188
aS'http://www.espnscrum.com/ireland/rugby/player/935.html'
p189
aS'http://www.espnscrum.com/ireland/rugby/player/941.html'
p190
aS'http://www.espnscrum.com/ireland/rugby/player/959.html'
p191
aS'http://www.espnscrum.com/ireland/rugby/player/965.html'
p192
aS'http://www.espnscrum.com/ireland/rugby/player/966.html'
p193
aS'http://www.espnscrum.com/ireland/rugby/player/967.html'
p194
aS'http://www.espnscrum.com/ireland/rugby/player/968.html'
p195
aS'http://www.espnscrum.com/ireland/rugby/player/970.html'
p196
aS'http://www.espnscrum.com/ireland/rugby/player/971.html'
p197
aS'http://www.espnscrum.com/ireland/rugby/player/975.html'
p198
aS'http://www.espnscrum.com/ireland/rugby/player/978.html'
p199
aS'http://www.espnscrum.com/ireland/rugby/player/1035.html'
p200
aS'http://www.espnscrum.com/ireland/rugby/player/1038.html'
p201
aS'http://www.espnscrum.com/ireland/rugby/player/1040.html'
p202
aS'http://www.espnscrum.com/ireland/rugby/player/1043.html'
p203
aS'http://www.espnscrum.com/ireland/rugby/player/1045.html'
p204
aS'http://www.espnscrum.com/ireland/rugby/player/1046.html'
p205
aS'http://www.espnscrum.com/ireland/rugby/player/1047.html'
p206
aS'http://www.espnscrum.com/ireland/rugby/player/1048.html'
p207
aS'http://www.espnscrum.com/ireland/rugby/player/1067.html'
p208
aS'http://www.espnscrum.com/ireland/rugby/player/1068.html'
p209
aS'http://www.espnscrum.com/ireland/rugby/player/1073.html'
p210
aS'http://www.espnscrum.com/ireland/rugby/player/1074.html'
p211
aS'http://www.espnscrum.com/ireland/rugby/player/1079.html'
p212
aS'http://www.espnscrum.com/ireland/rugby/player/1083.html'
p213
aS'http://www.espnscrum.com/ireland/rugby/player/1084.html'
p214
aS'http://www.espnscrum.com/ireland/rugby/player/1085.html'
p215
aS'http://www.espnscrum.com/ireland/rugby/player/1094.html'
p216
aS'http://www.espnscrum.com/ireland/rugby/player/1095.html'
p217
aS'http://www.espnscrum.com/ireland/rugby/player/1103.html'
p218
aS'http://www.espnscrum.com/ireland/rugby/player/1106.html'
p219
aS'http://www.espnscrum.com/ireland/rugby/player/1110.html'
p220
aS'http://www.espnscrum.com/ireland/rugby/player/1114.html'
p221
aS'http://www.espnscrum.com/ireland/rugby/player/1115.html'
p222
aS'http://www.espnscrum.com/ireland/rugby/player/1146.html'
p223
aS'http://www.espnscrum.com/ireland/rugby/player/1148.html'
p224
aS'http://www.espnscrum.com/ireland/rugby/player/1149.html'
p225
aS'http://www.espnscrum.com/ireland/rugby/player/1150.html'
p226
aS'http://www.espnscrum.com/ireland/rugby/player/1151.html'
p227
aS'http://www.espnscrum.com/ireland/rugby/player/1152.html'
p228
aS'http://www.espnscrum.com/ireland/rugby/player/1153.html'
p229
aS'http://www.espnscrum.com/ireland/rugby/player/1154.html'
p230
aS'http://www.espnscrum.com/ireland/rugby/player/1155.html'
p231
aS'http://www.espnscrum.com/ireland/rugby/player/1156.html'
p232
aS'http://www.espnscrum.com/ireland/rugby/player/1157.html'
p233
aS'http://www.espnscrum.com/ireland/rugby/player/1159.html'
p234
aS'http://www.espnscrum.com/ireland/rugby/player/1160.html'
p235
aS'http://www.espnscrum.com/ireland/rugby/player/1186.html'
p236
aS'http://www.espnscrum.com/ireland/rugby/player/1187.html'
p237
aS'http://www.espnscrum.com/ireland/rugby/player/1188.html'
p238
aS'http://www.espnscrum.com/ireland/rugby/player/1189.html'
p239
aS'http://www.espnscrum.com/ireland/rugby/player/1191.html'
p240
aS'http://www.espnscrum.com/ireland/rugby/player/1257.html'
p241
aS'http://www.espnscrum.com/ireland/rugby/player/1260.html'
p242
aS'http://www.espnscrum.com/ireland/rugby/player/1261.html'
p243
aS'http://www.espnscrum.com/ireland/rugby/player/1264.html'
p244
aS'http://www.espnscrum.com/ireland/rugby/player/1271.html'
p245
aS'http://www.espnscrum.com/ireland/rugby/player/1272.html'
p246
aS'http://www.espnscrum.com/ireland/rugby/player/1276.html'
p247
aS'http://www.espnscrum.com/ireland/rugby/player/1286.html'
p248
aS'http://www.espnscrum.com/ireland/rugby/player/1298.html'
p249
aS'http://www.espnscrum.com/ireland/rugby/player/1305.html'
p250
aS'http://www.espnscrum.com/ireland/rugby/player/1306.html'
p251
aS'http://www.espnscrum.com/ireland/rugby/player/1322.html'
p252
aS'http://www.espnscrum.com/ireland/rugby/player/1323.html'
p253
aS'http://www.espnscrum.com/ireland/rugby/player/1325.html'
p254
aS'http://www.espnscrum.com/ireland/rugby/player/1327.html'
p255
aS'http://www.espnscrum.com/ireland/rugby/player/1328.html'
p256
aS'http://www.espnscrum.com/ireland/rugby/player/1329.html'
p257
aS'http://www.espnscrum.com/ireland/rugby/player/1331.html'
p258
aS'http://www.espnscrum.com/ireland/rugby/player/1332.html'
p259
aS'http://www.espnscrum.com/ireland/rugby/player/1235.html'
p260
aS'http://www.espnscrum.com/ireland/rugby/player/1335.html'
p261
aS'http://www.espnscrum.com/ireland/rugby/player/1344.html'
p262
aS'http://www.espnscrum.com/ireland/rugby/player/1419.html'
p263
aS'http://www.espnscrum.com/ireland/rugby/player/1420.html'
p264
aS'http://www.espnscrum.com/ireland/rugby/player/1421.html'
p265
aS'http://www.espnscrum.com/ireland/rugby/player/1422.html'
p266
aS'http://www.espnscrum.com/ireland/rugby/player/1423.html'
p267
aS'http://www.espnscrum.com/ireland/rugby/player/1425.html'
p268
aS'http://www.espnscrum.com/ireland/rugby/player/1201.html'
p269
aS'http://www.espnscrum.com/ireland/rugby/player/1428.html'
p270
aS'http://www.espnscrum.com/ireland/rugby/player/1434.html'
p271
aS'http://www.espnscrum.com/ireland/rugby/player/1465.html'
p272
aS'http://www.espnscrum.com/ireland/rugby/player/1468.html'
p273
aS'http://www.espnscrum.com/ireland/rugby/player/1469.html'
p274
aS'http://www.espnscrum.com/ireland/rugby/player/1476.html'
p275
aS'http://www.espnscrum.com/ireland/rugby/player/1484.html'
p276
aS'http://www.espnscrum.com/ireland/rugby/player/1508.html'
p277
aS'http://www.espnscrum.com/ireland/rugby/player/1509.html'
p278
aS'http://www.espnscrum.com/ireland/rugby/player/1510.html'
p279
aS'http://www.espnscrum.com/ireland/rugby/player/1512.html'
p280
aS'http://www.espnscrum.com/ireland/rugby/player/1516.html'
p281
aS'http://www.espnscrum.com/ireland/rugby/player/1537.html'
p282
aS'http://www.espnscrum.com/ireland/rugby/player/1538.html'
p283
aS'http://www.espnscrum.com/ireland/rugby/player/1541.html'
p284
aS'http://www.espnscrum.com/ireland/rugby/player/1542.html'
p285
aS'http://www.espnscrum.com/ireland/rugby/player/1544.html'
p286
aS'http://www.espnscrum.com/ireland/rugby/player/1545.html'
p287
aS'http://www.espnscrum.com/ireland/rugby/player/1547.html'
p288
aS'http://www.espnscrum.com/ireland/rugby/player/1632.html'
p289
aS'http://www.espnscrum.com/ireland/rugby/player/1633.html'
p290
aS'http://www.espnscrum.com/ireland/rugby/player/1634.html'
p291
aS'http://www.espnscrum.com/ireland/rugby/player/1597.html'
p292
aS'http://www.espnscrum.com/ireland/rugby/player/1635.html'
p293
aS'http://www.espnscrum.com/ireland/rugby/player/1637.html'
p294
aS'http://www.espnscrum.com/ireland/rugby/player/1641.html'
p295
aS'http://www.espnscrum.com/ireland/rugby/player/1643.html'
p296
aS'http://www.espnscrum.com/ireland/rugby/player/1644.html'
p297
aS'http://www.espnscrum.com/ireland/rugby/player/1645.html'
p298
aS'http://www.espnscrum.com/ireland/rugby/player/1647.html'
p299
aS'http://www.espnscrum.com/ireland/rugby/player/1699.html'
p300
aS'http://www.espnscrum.com/ireland/rugby/player/1702.html'
p301
aS'http://www.espnscrum.com/ireland/rugby/player/1755.html'
p302
aS'http://www.espnscrum.com/ireland/rugby/player/1798.html'
p303
aS'http://www.espnscrum.com/ireland/rugby/player/1799.html'
p304
aS'http://www.espnscrum.com/ireland/rugby/player/1803.html'
p305
aS'http://www.espnscrum.com/ireland/rugby/player/1805.html'
p306
aS'http://www.espnscrum.com/ireland/rugby/player/1836.html'
p307
aS'http://www.espnscrum.com/ireland/rugby/player/1841.html'
p308
aS'http://www.espnscrum.com/ireland/rugby/player/1875.html'
p309
aS'http://www.espnscrum.com/ireland/rugby/player/1876.html'
p310
aS'http://www.espnscrum.com/ireland/rugby/player/1877.html'
p311
aS'http://www.espnscrum.com/ireland/rugby/player/1880.html'
p312
aS'http://www.espnscrum.com/ireland/rugby/player/1881.html'
p313
aS'http://www.espnscrum.com/ireland/rugby/player/1885.html'
p314
aS'http://www.espnscrum.com/ireland/rugby/player/1886.html'
p315
aS'http://www.espnscrum.com/ireland/rugby/player/1943.html'
p316
aS'http://www.espnscrum.com/ireland/rugby/player/1944.html'
p317
aS'http://www.espnscrum.com/ireland/rugby/player/1945.html'
p318
aS'http://www.espnscrum.com/ireland/rugby/player/1946.html'
p319
aS'http://www.espnscrum.com/ireland/rugby/player/1947.html'
p320
aS'http://www.espnscrum.com/ireland/rugby/player/1948.html'
p321
aS'http://www.espnscrum.com/ireland/rugby/player/1949.html'
p322
aS'http://www.espnscrum.com/ireland/rugby/player/1950.html'
p323
aS'http://www.espnscrum.com/ireland/rugby/player/2027.html'
p324
aS'http://www.espnscrum.com/ireland/rugby/player/2028.html'
p325
aS'http://www.espnscrum.com/ireland/rugby/player/2031.html'
p326
aS'http://www.espnscrum.com/ireland/rugby/player/2032.html'
p327
aS'http://www.espnscrum.com/ireland/rugby/player/2039.html'
p328
aS'http://www.espnscrum.com/ireland/rugby/player/2040.html'
p329
aS'http://www.espnscrum.com/ireland/rugby/player/2044.html'
p330
aS'http://www.espnscrum.com/ireland/rugby/player/2047.html'
p331
aS'http://www.espnscrum.com/ireland/rugby/player/2058.html'
p332
aS'http://www.espnscrum.com/ireland/rugby/player/2087.html'
p333
aS'http://www.espnscrum.com/ireland/rugby/player/2089.html'
p334
aS'http://www.espnscrum.com/ireland/rugby/player/2090.html'
p335
aS'http://www.espnscrum.com/ireland/rugby/player/2091.html'
p336
aS'http://www.espnscrum.com/ireland/rugby/player/2092.html'
p337
aS'http://www.espnscrum.com/ireland/rugby/player/2093.html'
p338
aS'http://www.espnscrum.com/ireland/rugby/player/2097.html'
p339
aS'http://www.espnscrum.com/ireland/rugby/player/2108.html'
p340
aS'http://www.espnscrum.com/ireland/rugby/player/2109.html'
p341
aS'http://www.espnscrum.com/ireland/rugby/player/2110.html'
p342
aS'http://www.espnscrum.com/ireland/rugby/player/2111.html'
p343
aS'http://www.espnscrum.com/ireland/rugby/player/2114.html'
p344
aS'http://www.espnscrum.com/ireland/rugby/player/2117.html'
p345
aS'http://www.espnscrum.com/ireland/rugby/player/2221.html'
p346
aS'http://www.espnscrum.com/ireland/rugby/player/2222.html'
p347
aS'http://www.espnscrum.com/ireland/rugby/player/2223.html'
p348
aS'http://www.espnscrum.com/ireland/rugby/player/2224.html'
p349
aS'http://www.espnscrum.com/ireland/rugby/player/2237.html'
p350
aS'http://www.espnscrum.com/ireland/rugby/player/2244.html'
p351
aS'http://www.espnscrum.com/ireland/rugby/player/2245.html'
p352
aS'http://www.espnscrum.com/ireland/rugby/player/2248.html'
p353
aS'http://www.espnscrum.com/ireland/rugby/player/2249.html'
p354
aS'http://www.espnscrum.com/ireland/rugby/player/2250.html'
p355
aS'http://www.espnscrum.com/ireland/rugby/player/2275.html'
p356
aS'http://www.espnscrum.com/ireland/rugby/player/2276.html'
p357
aS'http://www.espnscrum.com/ireland/rugby/player/2277.html'
p358
aS'http://www.espnscrum.com/ireland/rugby/player/2278.html'
p359
aS'http://www.espnscrum.com/ireland/rugby/player/2332.html'
p360
aS'http://www.espnscrum.com/ireland/rugby/player/2333.html'
p361
aS'http://www.espnscrum.com/ireland/rugby/player/2334.html'
p362
aS'http://www.espnscrum.com/ireland/rugby/player/2335.html'
p363
aS'http://www.espnscrum.com/ireland/rugby/player/2336.html'
p364
aS'http://www.espnscrum.com/ireland/rugby/player/2337.html'
p365
aS'http://www.espnscrum.com/ireland/rugby/player/2338.html'
p366
aS'http://www.espnscrum.com/ireland/rugby/player/2375.html'
p367
aS'http://www.espnscrum.com/ireland/rugby/player/2376.html'
p368
aS'http://www.espnscrum.com/ireland/rugby/player/2378.html'
p369
aS'http://www.espnscrum.com/ireland/rugby/player/2379.html'
p370
aS'http://www.espnscrum.com/ireland/rugby/player/2380.html'
p371
aS'http://www.espnscrum.com/ireland/rugby/player/2382.html'
p372
aS'http://www.espnscrum.com/ireland/rugby/player/2391.html'
p373
aS'http://www.espnscrum.com/ireland/rugby/player/2392.html'
p374
aS'http://www.espnscrum.com/ireland/rugby/player/2393.html'
p375
aS'http://www.espnscrum.com/ireland/rugby/player/2394.html'
p376
aS'http://www.espnscrum.com/ireland/rugby/player/2395.html'
p377
aS'http://www.espnscrum.com/ireland/rugby/player/2463.html'
p378
aS'http://www.espnscrum.com/ireland/rugby/player/2464.html'
p379
aS'http://www.espnscrum.com/ireland/rugby/player/2470.html'
p380
aS'http://www.espnscrum.com/ireland/rugby/player/2495.html'
p381
aS'http://www.espnscrum.com/ireland/rugby/player/2496.html'
p382
aS'http://www.espnscrum.com/ireland/rugby/player/2497.html'
p383
aS'http://www.espnscrum.com/ireland/rugby/player/2498.html'
p384
aS'http://www.espnscrum.com/ireland/rugby/player/2502.html'
p385
aS'http://www.espnscrum.com/ireland/rugby/player/2626.html'
p386
aS'http://www.espnscrum.com/ireland/rugby/player/2627.html'
p387
aS'http://www.espnscrum.com/ireland/rugby/player/2628.html'
p388
aS'http://www.espnscrum.com/ireland/rugby/player/2629.html'
p389
aS'http://www.espnscrum.com/ireland/rugby/player/2630.html'
p390
aS'http://www.espnscrum.com/ireland/rugby/player/2631.html'
p391
aS'http://www.espnscrum.com/ireland/rugby/player/2632.html'
p392
aS'http://www.espnscrum.com/ireland/rugby/player/2633.html'
p393
aS'http://www.espnscrum.com/ireland/rugby/player/2635.html'
p394
aS'http://www.espnscrum.com/ireland/rugby/player/2637.html'
p395
aS'http://www.espnscrum.com/ireland/rugby/player/2639.html'
p396
aS'http://www.espnscrum.com/ireland/rugby/player/2646.html'
p397
aS'http://www.espnscrum.com/ireland/rugby/player/2647.html'
p398
aS'http://www.espnscrum.com/ireland/rugby/player/2648.html'
p399
aS'http://www.espnscrum.com/ireland/rugby/player/2649.html'
p400
aS'http://www.espnscrum.com/ireland/rugby/player/2650.html'
p401
aS'http://www.espnscrum.com/ireland/rugby/player/2651.html'
p402
aS'http://www.espnscrum.com/ireland/rugby/player/2652.html'
p403
aS'http://www.espnscrum.com/ireland/rugby/player/2653.html'
p404
aS'http://www.espnscrum.com/ireland/rugby/player/2655.html'
p405
aS'http://www.espnscrum.com/ireland/rugby/player/2660.html'
p406
aS'http://www.espnscrum.com/ireland/rugby/player/2665.html'
p407
aS'http://www.espnscrum.com/ireland/rugby/player/2666.html'
p408
aS'http://www.espnscrum.com/ireland/rugby/player/2756.html'
p409
aS'http://www.espnscrum.com/ireland/rugby/player/2757.html'
p410
aS'http://www.espnscrum.com/ireland/rugby/player/2758.html'
p411
aS'http://www.espnscrum.com/ireland/rugby/player/2759.html'
p412
aS'http://www.espnscrum.com/ireland/rugby/player/2760.html'
p413
aS'http://www.espnscrum.com/ireland/rugby/player/2761.html'
p414
aS'http://www.espnscrum.com/ireland/rugby/player/2762.html'
p415
aS'http://www.espnscrum.com/ireland/rugby/player/2773.html'
p416
aS'http://www.espnscrum.com/ireland/rugby/player/2781.html'
p417
aS'http://www.espnscrum.com/ireland/rugby/player/2784.html'
p418
aS'http://www.espnscrum.com/ireland/rugby/player/2873.html'
p419
aS'http://www.espnscrum.com/ireland/rugby/player/2874.html'
p420
aS'http://www.espnscrum.com/ireland/rugby/player/2877.html'
p421
aS'http://www.espnscrum.com/ireland/rugby/player/2878.html'
p422
aS'http://www.espnscrum.com/ireland/rugby/player/2879.html'
p423
aS'http://www.espnscrum.com/ireland/rugby/player/2880.html'
p424
aS'http://www.espnscrum.com/ireland/rugby/player/2882.html'
p425
aS'http://www.espnscrum.com/ireland/rugby/player/2884.html'
p426
aS'http://www.espnscrum.com/ireland/rugby/player/2885.html'
p427
aS'http://www.espnscrum.com/ireland/rugby/player/2895.html'
p428
aS'http://www.espnscrum.com/ireland/rugby/player/2959.html'
p429
aS'http://www.espnscrum.com/ireland/rugby/player/2960.html'
p430
aS'http://www.espnscrum.com/ireland/rugby/player/2961.html'
p431
aS'http://www.espnscrum.com/ireland/rugby/player/2962.html'
p432
aS'http://www.espnscrum.com/ireland/rugby/player/2963.html'
p433
aS'http://www.espnscrum.com/ireland/rugby/player/2964.html'
p434
aS'http://www.espnscrum.com/ireland/rugby/player/2965.html'
p435
aS'http://www.espnscrum.com/ireland/rugby/player/2966.html'
p436
aS'http://www.espnscrum.com/ireland/rugby/player/2970.html'
p437
aS'http://www.espnscrum.com/ireland/rugby/player/2978.html'
p438
aS'http://www.espnscrum.com/ireland/rugby/player/2992.html'
p439
aS'http://www.espnscrum.com/ireland/rugby/player/3067.html'
p440
aS'http://www.espnscrum.com/ireland/rugby/player/3069.html'
p441
aS'http://www.espnscrum.com/ireland/rugby/player/3072.html'
p442
aS'http://www.espnscrum.com/ireland/rugby/player/3073.html'
p443
aS'http://www.espnscrum.com/ireland/rugby/player/3083.html'
p444
aS'http://www.espnscrum.com/ireland/rugby/player/3092.html'
p445
aS'http://www.espnscrum.com/ireland/rugby/player/3093.html'
p446
aS'http://www.espnscrum.com/ireland/rugby/player/3146.html'
p447
aS'http://www.espnscrum.com/ireland/rugby/player/3187.html'
p448
aS'http://www.espnscrum.com/ireland/rugby/player/3197.html'
p449
aS'http://www.espnscrum.com/ireland/rugby/player/3227.html'
p450
aS'http://www.espnscrum.com/ireland/rugby/player/3228.html'
p451
aS'http://www.espnscrum.com/ireland/rugby/player/3236.html'
p452
aS'http://www.espnscrum.com/ireland/rugby/player/3237.html'
p453
aS'http://www.espnscrum.com/ireland/rugby/player/3238.html'
p454
aS'http://www.espnscrum.com/ireland/rugby/player/3242.html'
p455
aS'http://www.espnscrum.com/ireland/rugby/player/3306.html'
p456
aS'http://www.espnscrum.com/ireland/rugby/player/3309.html'
p457
aS'http://www.espnscrum.com/ireland/rugby/player/3310.html'
p458
aS'http://www.espnscrum.com/ireland/rugby/player/3317.html'
p459
aS'http://www.espnscrum.com/ireland/rugby/player/3320.html'
p460
aS'http://www.espnscrum.com/ireland/rugby/player/3322.html'
p461
aS'http://www.espnscrum.com/ireland/rugby/player/3324.html'
p462
aS'http://www.espnscrum.com/ireland/rugby/player/3385.html'
p463
aS'http://www.espnscrum.com/ireland/rugby/player/3386.html'
p464
aS'http://www.espnscrum.com/ireland/rugby/player/3388.html'
p465
aS'http://www.espnscrum.com/ireland/rugby/player/3390.html'
p466
aS'http://www.espnscrum.com/ireland/rugby/player/3412.html'
p467
aS'http://www.espnscrum.com/ireland/rugby/player/3413.html'
p468
aS'http://www.espnscrum.com/ireland/rugby/player/3523.html'
p469
aS'http://www.espnscrum.com/ireland/rugby/player/3524.html'
p470
aS'http://www.espnscrum.com/ireland/rugby/player/3528.html'
p471
aS'http://www.espnscrum.com/ireland/rugby/player/3534.html'
p472
aS'http://www.espnscrum.com/ireland/rugby/player/3539.html'
p473
aS'http://www.espnscrum.com/ireland/rugby/player/3637.html'
p474
aS'http://www.espnscrum.com/ireland/rugby/player/3660.html'
p475
aS'http://www.espnscrum.com/ireland/rugby/player/3663.html'
p476
aS'http://www.espnscrum.com/ireland/rugby/player/3664.html'
p477
aS'http://www.espnscrum.com/ireland/rugby/player/3665.html'
p478
aS'http://www.espnscrum.com/ireland/rugby/player/3756.html'
p479
aS'http://www.espnscrum.com/ireland/rugby/player/3757.html'
p480
aS'http://www.espnscrum.com/ireland/rugby/player/3767.html'
p481
aS'http://www.espnscrum.com/ireland/rugby/player/3768.html'
p482
aS'http://www.espnscrum.com/ireland/rugby/player/3769.html'
p483
aS'http://www.espnscrum.com/ireland/rugby/player/3770.html'
p484
aS'http://www.espnscrum.com/ireland/rugby/player/3771.html'
p485
aS'http://www.espnscrum.com/ireland/rugby/player/3824.html'
p486
aS'http://www.espnscrum.com/ireland/rugby/player/3825.html'
p487
aS'http://www.espnscrum.com/ireland/rugby/player/3828.html'
p488
aS'http://www.espnscrum.com/ireland/rugby/player/3831.html'
p489
aS'http://www.espnscrum.com/ireland/rugby/player/3832.html'
p490
aS'http://www.espnscrum.com/ireland/rugby/player/3858.html'
p491
aS'http://www.espnscrum.com/ireland/rugby/player/3859.html'
p492
aS'http://www.espnscrum.com/ireland/rugby/player/3861.html'
p493
aS'http://www.espnscrum.com/ireland/rugby/player/3868.html'
p494
aS'http://www.espnscrum.com/ireland/rugby/player/3972.html'
p495
aS'http://www.espnscrum.com/ireland/rugby/player/3973.html'
p496
aS'http://www.espnscrum.com/ireland/rugby/player/3974.html'
p497
aS'http://www.espnscrum.com/ireland/rugby/player/3976.html'
p498
aS'http://www.espnscrum.com/ireland/rugby/player/4080.html'
p499
aS'http://www.espnscrum.com/ireland/rugby/player/4093.html'
p500
aS'http://www.espnscrum.com/ireland/rugby/player/4094.html'
p501
aS'http://www.espnscrum.com/ireland/rugby/player/4101.html'
p502
aS'http://www.espnscrum.com/ireland/rugby/player/4103.html'
p503
aS'http://www.espnscrum.com/ireland/rugby/player/4169.html'
p504
aS'http://www.espnscrum.com/ireland/rugby/player/4170.html'
p505
aS'http://www.espnscrum.com/ireland/rugby/player/4171.html'
p506
aS'http://www.espnscrum.com/ireland/rugby/player/4172.html'
p507
aS'http://www.espnscrum.com/ireland/rugby/player/4173.html'
p508
aS'http://www.espnscrum.com/ireland/rugby/player/4187.html'
p509
aS'http://www.espnscrum.com/ireland/rugby/player/4188.html'
p510
aS'http://www.espnscrum.com/ireland/rugby/player/4189.html'
p511
aS'http://www.espnscrum.com/ireland/rugby/player/4191.html'
p512
aS'http://www.espnscrum.com/ireland/rugby/player/4193.html'
p513
aS'http://www.espnscrum.com/ireland/rugby/player/4194.html'
p514
aS'http://www.espnscrum.com/ireland/rugby/player/4195.html'
p515
aS'http://www.espnscrum.com/ireland/rugby/player/4259.html'
p516
aS'http://www.espnscrum.com/ireland/rugby/player/4260.html'
p517
aS'http://www.espnscrum.com/ireland/rugby/player/4261.html'
p518
aS'http://www.espnscrum.com/ireland/rugby/player/4263.html'
p519
aS'http://www.espnscrum.com/ireland/rugby/player/4264.html'
p520
aS'http://www.espnscrum.com/ireland/rugby/player/4267.html'
p521
aS'http://www.espnscrum.com/ireland/rugby/player/4309.html'
p522
aS'http://www.espnscrum.com/ireland/rugby/player/4311.html'
p523
aS'http://www.espnscrum.com/ireland/rugby/player/4312.html'
p524
aS'http://www.espnscrum.com/ireland/rugby/player/4313.html'
p525
aS'http://www.espnscrum.com/ireland/rugby/player/4331.html'
p526
aS'http://www.espnscrum.com/ireland/rugby/player/4332.html'
p527
aS'http://www.espnscrum.com/ireland/rugby/player/4479.html'
p528
aS'http://www.espnscrum.com/ireland/rugby/player/4480.html'
p529
aS'http://www.espnscrum.com/ireland/rugby/player/4489.html'
p530
aS'http://www.espnscrum.com/ireland/rugby/player/4490.html'
p531
aS'http://www.espnscrum.com/ireland/rugby/player/4491.html'
p532
aS'http://www.espnscrum.com/ireland/rugby/player/4569.html'
p533
aS'http://www.espnscrum.com/ireland/rugby/player/4570.html'
p534
aS'http://www.espnscrum.com/ireland/rugby/player/4571.html'
p535
aS'http://www.espnscrum.com/ireland/rugby/player/4573.html'
p536
aS'http://www.espnscrum.com/ireland/rugby/player/4575.html'
p537
aS'http://www.espnscrum.com/ireland/rugby/player/4576.html'
p538
aS'http://www.espnscrum.com/ireland/rugby/player/4577.html'
p539
aS'http://www.espnscrum.com/ireland/rugby/player/4579.html'
p540
aS'http://www.espnscrum.com/ireland/rugby/player/4580.html'
p541
aS'http://www.espnscrum.com/ireland/rugby/player/4697.html'
p542
aS'http://www.espnscrum.com/ireland/rugby/player/4698.html'
p543
aS'http://www.espnscrum.com/ireland/rugby/player/4699.html'
p544
aS'http://www.espnscrum.com/ireland/rugby/player/4701.html'
p545
aS'http://www.espnscrum.com/ireland/rugby/player/4921.html'
p546
aS'http://www.espnscrum.com/ireland/rugby/player/4922.html'
p547
aS'http://www.espnscrum.com/ireland/rugby/player/4923.html'
p548
aS'http://www.espnscrum.com/ireland/rugby/player/4924.html'
p549
aS'http://www.espnscrum.com/ireland/rugby/player/4925.html'
p550
aS'http://www.espnscrum.com/ireland/rugby/player/4926.html'
p551
aS'http://www.espnscrum.com/ireland/rugby/player/4806.html'
p552
aS'http://www.espnscrum.com/ireland/rugby/player/4807.html'
p553
aS'http://www.espnscrum.com/ireland/rugby/player/4927.html'
p554
aS'http://www.espnscrum.com/ireland/rugby/player/4928.html'
p555
aS'http://www.espnscrum.com/ireland/rugby/player/4810.html'
p556
aS'http://www.espnscrum.com/ireland/rugby/player/4811.html'
p557
aS'http://www.espnscrum.com/ireland/rugby/player/4929.html'
p558
aS'http://www.espnscrum.com/ireland/rugby/player/4930.html'
p559
aS'http://www.espnscrum.com/ireland/rugby/player/4940.html'
p560
aS'http://www.espnscrum.com/ireland/rugby/player/4941.html'
p561
aS'http://www.espnscrum.com/ireland/rugby/player/4942.html'
p562
aS'http://www.espnscrum.com/ireland/rugby/player/4946.html'
p563
aS'http://www.espnscrum.com/ireland/rugby/player/4956.html'
p564
aS'http://www.espnscrum.com/ireland/rugby/player/5010.html'
p565
aS'http://www.espnscrum.com/ireland/rugby/player/5011.html'
p566
aS'http://www.espnscrum.com/ireland/rugby/player/4809.html'
p567
aS'http://www.espnscrum.com/ireland/rugby/player/5012.html'
p568
aS'http://www.espnscrum.com/ireland/rugby/player/5013.html'
p569
aS'http://www.espnscrum.com/ireland/rugby/player/4812.html'
p570
aS'http://www.espnscrum.com/ireland/rugby/player/4813.html'
p571
aS'http://www.espnscrum.com/ireland/rugby/player/5014.html'
p572
aS'http://www.espnscrum.com/ireland/rugby/player/5020.html'
p573
aS'http://www.espnscrum.com/ireland/rugby/player/5038.html'
p574
aS'http://www.espnscrum.com/ireland/rugby/player/5039.html'
p575
aS'http://www.espnscrum.com/ireland/rugby/player/5040.html'
p576
aS'http://www.espnscrum.com/ireland/rugby/player/5044.html'
p577
aS'http://www.espnscrum.com/ireland/rugby/player/5149.html'
p578
aS'http://www.espnscrum.com/ireland/rugby/player/5150.html'
p579
aS'http://www.espnscrum.com/ireland/rugby/player/5151.html'
p580
aS'http://www.espnscrum.com/ireland/rugby/player/5152.html'
p581
aS'http://www.espnscrum.com/ireland/rugby/player/5155.html'
p582
aS'http://www.espnscrum.com/ireland/rugby/player/5156.html'
p583
aS'http://www.espnscrum.com/ireland/rugby/player/5306.html'
p584
aS'http://www.espnscrum.com/ireland/rugby/player/5307.html'
p585
aS'http://www.espnscrum.com/ireland/rugby/player/5310.html'
p586
aS'http://www.espnscrum.com/ireland/rugby/player/5313.html'
p587
aS'http://www.espnscrum.com/ireland/rugby/player/5314.html'
p588
aS'http://www.espnscrum.com/ireland/rugby/player/5315.html'
p589
aS'http://www.espnscrum.com/ireland/rugby/player/5319.html'
p590
aS'http://www.espnscrum.com/ireland/rugby/player/5321.html'
p591
aS'http://www.espnscrum.com/ireland/rugby/player/5366.html'
p592
aS'http://www.espnscrum.com/ireland/rugby/player/5367.html'
p593
aS'http://www.espnscrum.com/ireland/rugby/player/5369.html'
p594
aS'http://www.espnscrum.com/ireland/rugby/player/5371.html'
p595
aS'http://www.espnscrum.com/ireland/rugby/player/5377.html'
p596
aS'http://www.espnscrum.com/ireland/rugby/player/5380.html'
p597
aS'http://www.espnscrum.com/ireland/rugby/player/5382.html'
p598
aS'http://www.espnscrum.com/ireland/rugby/player/5385.html'
p599
aS'http://www.espnscrum.com/ireland/rugby/player/5489.html'
p600
aS'http://www.espnscrum.com/ireland/rugby/player/5490.html'
p601
aS'http://www.espnscrum.com/ireland/rugby/player/5492.html'
p602
aS'http://www.espnscrum.com/ireland/rugby/player/5518.html'
p603
aS'http://www.espnscrum.com/ireland/rugby/player/5522.html'
p604
aS'http://www.espnscrum.com/ireland/rugby/player/5523.html'
p605
aS'http://www.espnscrum.com/ireland/rugby/player/5533.html'
p606
aS'http://www.espnscrum.com/ireland/rugby/player/5535.html'
p607
aS'http://www.espnscrum.com/ireland/rugby/player/5536.html'
p608
aS'http://www.espnscrum.com/ireland/rugby/player/5537.html'
p609
aS'http://www.espnscrum.com/ireland/rugby/player/5538.html'
p610
aS'http://www.espnscrum.com/ireland/rugby/player/5576.html'
p611
aS'http://www.espnscrum.com/ireland/rugby/player/5659.html'
p612
aS'http://www.espnscrum.com/ireland/rugby/player/5579.html'
p613
aS'http://www.espnscrum.com/ireland/rugby/player/5584.html'
p614
aS'http://www.espnscrum.com/ireland/rugby/player/5660.html'
p615
aS'http://www.espnscrum.com/ireland/rugby/player/5663.html'
p616
aS'http://www.espnscrum.com/ireland/rugby/player/5666.html'
p617
aS'http://www.espnscrum.com/ireland/rugby/player/5677.html'
p618
aS'http://www.espnscrum.com/ireland/rugby/player/5678.html'
p619
aS'http://www.espnscrum.com/ireland/rugby/player/5751.html'
p620
aS'http://www.espnscrum.com/ireland/rugby/player/5581.html'
p621
aS'http://www.espnscrum.com/ireland/rugby/player/5770.html'
p622
aS'http://www.espnscrum.com/ireland/rugby/player/5772.html'
p623
aS'http://www.espnscrum.com/ireland/rugby/player/5774.html'
p624
aS'http://www.espnscrum.com/ireland/rugby/player/5775.html'
p625
aS'http://www.espnscrum.com/ireland/rugby/player/5776.html'
p626
aS'http://www.espnscrum.com/ireland/rugby/player/5779.html'
p627
aS'http://www.espnscrum.com/ireland/rugby/player/5880.html'
p628
aS'http://www.espnscrum.com/ireland/rugby/player/5886.html'
p629
aS'http://www.espnscrum.com/ireland/rugby/player/5887.html'
p630
aS'http://www.espnscrum.com/ireland/rugby/player/5888.html'
p631
aS'http://www.espnscrum.com/ireland/rugby/player/5891.html'
p632
aS'http://www.espnscrum.com/ireland/rugby/player/5898.html'
p633
aS'http://www.espnscrum.com/ireland/rugby/player/5899.html'
p634
aS'http://www.espnscrum.com/ireland/rugby/player/5902.html'
p635
aS'http://www.espnscrum.com/ireland/rugby/player/5904.html'
p636
aS'http://www.espnscrum.com/ireland/rugby/player/5910.html'
p637
aS'http://www.espnscrum.com/ireland/rugby/player/6008.html'
p638
aS'http://www.espnscrum.com/ireland/rugby/player/6009.html'
p639
aS'http://www.espnscrum.com/ireland/rugby/player/6010.html'
p640
aS'http://www.espnscrum.com/ireland/rugby/player/6011.html'
p641
aS'http://www.espnscrum.com/ireland/rugby/player/6012.html'
p642
aS'http://www.espnscrum.com/ireland/rugby/player/6013.html'
p643
aS'http://www.espnscrum.com/ireland/rugby/player/6015.html'
p644
aS'http://www.espnscrum.com/ireland/rugby/player/6016.html'
p645
aS'http://www.espnscrum.com/ireland/rugby/player/6017.html'
p646
aS'http://www.espnscrum.com/ireland/rugby/player/6018.html'
p647
aS'http://www.espnscrum.com/ireland/rugby/player/6029.html'
p648
aS'http://www.espnscrum.com/ireland/rugby/player/6110.html'
p649
aS'http://www.espnscrum.com/ireland/rugby/player/6113.html'
p650
aS'http://www.espnscrum.com/ireland/rugby/player/6114.html'
p651
aS'http://www.espnscrum.com/ireland/rugby/player/6119.html'
p652
aS'http://www.espnscrum.com/ireland/rugby/player/6210.html'
p653
aS'http://www.espnscrum.com/ireland/rugby/player/6211.html'
p654
aS'http://www.espnscrum.com/ireland/rugby/player/6213.html'
p655
aS'http://www.espnscrum.com/ireland/rugby/player/6216.html'
p656
aS'http://www.espnscrum.com/ireland/rugby/player/6217.html'
p657
aS'http://www.espnscrum.com/ireland/rugby/player/6218.html'
p658
aS'http://www.espnscrum.com/ireland/rugby/player/6245.html'
p659
aS'http://www.espnscrum.com/ireland/rugby/player/6254.html'
p660
aS'http://www.espnscrum.com/ireland/rugby/player/6255.html'
p661
aS'http://www.espnscrum.com/ireland/rugby/player/6256.html'
p662
aS'http://www.espnscrum.com/ireland/rugby/player/6364.html'
p663
aS'http://www.espnscrum.com/ireland/rugby/player/6365.html'
p664
aS'http://www.espnscrum.com/ireland/rugby/player/6387.html'
p665
aS'http://www.espnscrum.com/ireland/rugby/player/6482.html'
p666
aS'http://www.espnscrum.com/ireland/rugby/player/6483.html'
p667
aS'http://www.espnscrum.com/ireland/rugby/player/6484.html'
p668
aS'http://www.espnscrum.com/ireland/rugby/player/6489.html'
p669
aS'http://www.espnscrum.com/ireland/rugby/player/6491.html'
p670
aS'http://www.espnscrum.com/ireland/rugby/player/6497.html'
p671
aS'http://www.espnscrum.com/ireland/rugby/player/6556.html'
p672
aS'http://www.espnscrum.com/ireland/rugby/player/6574.html'
p673
aS'http://www.espnscrum.com/ireland/rugby/player/6575.html'
p674
aS'http://www.espnscrum.com/ireland/rugby/player/6581.html'
p675
aS'http://www.espnscrum.com/ireland/rugby/player/6590.html'
p676
aS'http://www.espnscrum.com/ireland/rugby/player/6591.html'
p677
aS'http://www.espnscrum.com/ireland/rugby/player/6594.html'
p678
aS'http://www.espnscrum.com/ireland/rugby/player/6662.html'
p679
aS'http://www.espnscrum.com/ireland/rugby/player/6663.html'
p680
aS'http://www.espnscrum.com/ireland/rugby/player/6664.html'
p681
aS'http://www.espnscrum.com/ireland/rugby/player/6665.html'
p682
aS'http://www.espnscrum.com/ireland/rugby/player/6666.html'
p683
aS'http://www.espnscrum.com/ireland/rugby/player/6667.html'
p684
aS'http://www.espnscrum.com/ireland/rugby/player/6668.html'
p685
aS'http://www.espnscrum.com/ireland/rugby/player/6669.html'
p686
aS'http://www.espnscrum.com/ireland/rugby/player/6670.html'
p687
aS'http://www.espnscrum.com/ireland/rugby/player/6671.html'
p688
aS'http://www.espnscrum.com/ireland/rugby/player/6677.html'
p689
aS'http://www.espnscrum.com/ireland/rugby/player/6678.html'
p690
aS'http://www.espnscrum.com/ireland/rugby/player/6732.html'
p691
aS'http://www.espnscrum.com/ireland/rugby/player/6736.html'
p692
aS'http://www.espnscrum.com/ireland/rugby/player/6741.html'
p693
aS'http://www.espnscrum.com/ireland/rugby/player/6771.html'
p694
aS'http://www.espnscrum.com/ireland/rugby/player/6772.html'
p695
aS'http://www.espnscrum.com/ireland/rugby/player/6779.html'
p696
aS'http://www.espnscrum.com/ireland/rugby/player/6780.html'
p697
aS'http://www.espnscrum.com/ireland/rugby/player/6854.html'
p698
aS'http://www.espnscrum.com/ireland/rugby/player/6855.html'
p699
aS'http://www.espnscrum.com/ireland/rugby/player/6881.html'
p700
aS'http://www.espnscrum.com/ireland/rugby/player/6890.html'
p701
aS'http://www.espnscrum.com/ireland/rugby/player/6891.html'
p702
aS'http://www.espnscrum.com/ireland/rugby/player/6892.html'
p703
aS'http://www.espnscrum.com/ireland/rugby/player/6893.html'
p704
aS'http://www.espnscrum.com/ireland/rugby/player/6972.html'
p705
aS'http://www.espnscrum.com/ireland/rugby/player/6973.html'
p706
aS'http://www.espnscrum.com/ireland/rugby/player/6974.html'
p707
aS'http://www.espnscrum.com/ireland/rugby/player/6975.html'
p708
aS'http://www.espnscrum.com/ireland/rugby/player/6976.html'
p709
aS'http://www.espnscrum.com/ireland/rugby/player/6981.html'
p710
aS'http://www.espnscrum.com/ireland/rugby/player/6983.html'
p711
aS'http://www.espnscrum.com/ireland/rugby/player/7086.html'
p712
aS'http://www.espnscrum.com/ireland/rugby/player/7090.html'
p713
aS'http://www.espnscrum.com/ireland/rugby/player/7094.html'
p714
aS'http://www.espnscrum.com/ireland/rugby/player/7097.html'
p715
aS'http://www.espnscrum.com/ireland/rugby/player/7171.html'
p716
aS'http://www.espnscrum.com/ireland/rugby/player/7172.html'
p717
aS'http://www.espnscrum.com/ireland/rugby/player/7173.html'
p718
aS'http://www.espnscrum.com/ireland/rugby/player/7174.html'
p719
aS'http://www.espnscrum.com/ireland/rugby/player/7186.html'
p720
aS'http://www.espnscrum.com/ireland/rugby/player/7190.html'
p721
aS'http://www.espnscrum.com/ireland/rugby/player/7238.html'
p722
aS'http://www.espnscrum.com/ireland/rugby/player/7345.html'
p723
aS'http://www.espnscrum.com/ireland/rugby/player/7346.html'
p724
aS'http://www.espnscrum.com/ireland/rugby/player/7350.html'
p725
aS'http://www.espnscrum.com/ireland/rugby/player/7358.html'
p726
aS'http://www.espnscrum.com/ireland/rugby/player/7359.html'
p727
aS'http://www.espnscrum.com/ireland/rugby/player/7451.html'
p728
aS'http://www.espnscrum.com/ireland/rugby/player/7473.html'
p729
aS'http://www.espnscrum.com/ireland/rugby/player/7474.html'
p730
aS'http://www.espnscrum.com/ireland/rugby/player/7479.html'
p731
aS'http://www.espnscrum.com/ireland/rugby/player/7591.html'
p732
aS'http://www.espnscrum.com/ireland/rugby/player/7592.html'
p733
aS'http://www.espnscrum.com/ireland/rugby/player/7596.html'
p734
aS'http://www.espnscrum.com/ireland/rugby/player/7720.html'
p735
aS'http://www.espnscrum.com/ireland/rugby/player/7721.html'
p736
aS'http://www.espnscrum.com/ireland/rugby/player/7675.html'
p737
aS'http://www.espnscrum.com/ireland/rugby/player/7612.html'
p738
aS'http://www.espnscrum.com/ireland/rugby/player/7883.html'
p739
aS'http://www.espnscrum.com/ireland/rugby/player/7674.html'
p740
aS'http://www.espnscrum.com/ireland/rugby/player/7884.html'
p741
aS'http://www.espnscrum.com/ireland/rugby/player/7885.html'
p742
aS'http://www.espnscrum.com/ireland/rugby/player/7676.html'
p743
aS'http://www.espnscrum.com/ireland/rugby/player/8012.html'
p744
aS'http://www.espnscrum.com/ireland/rugby/player/7673.html'
p745
aS'http://www.espnscrum.com/ireland/rugby/player/7737.html'
p746
aS'http://www.espnscrum.com/ireland/rugby/player/7889.html'
p747
aS'http://www.espnscrum.com/ireland/rugby/player/8008.html'
p748
aS'http://www.espnscrum.com/ireland/rugby/player/8024.html'
p749
aS'http://www.espnscrum.com/ireland/rugby/player/8038.html'
p750
aS'http://www.espnscrum.com/ireland/rugby/player/8193.html'
p751
aS'http://www.espnscrum.com/ireland/rugby/player/8197.html'
p752
aS'http://www.espnscrum.com/ireland/rugby/player/8190.html'
p753
aS'http://www.espnscrum.com/ireland/rugby/player/8169.html'
p754
aS'http://www.espnscrum.com/ireland/rugby/player/8200.html'
p755
aS'http://www.espnscrum.com/ireland/rugby/player/8301.html'
p756
aS'http://www.espnscrum.com/ireland/rugby/player/8324.html'
p757
aS'http://www.espnscrum.com/ireland/rugby/player/8330.html'
p758
aS'http://www.espnscrum.com/ireland/rugby/player/8340.html'
p759
aS'http://www.espnscrum.com/ireland/rugby/player/8013.html'
p760
aS'http://www.espnscrum.com/ireland/rugby/player/8360.html'
p761
aS'http://www.espnscrum.com/ireland/rugby/player/8468.html'
p762
aS'http://www.espnscrum.com/ireland/rugby/player/8469.html'
p763
aS'http://www.espnscrum.com/ireland/rugby/player/8471.html'
p764
aS'http://www.espnscrum.com/ireland/rugby/player/7890.html'
p765
aS'http://www.espnscrum.com/ireland/rugby/player/8472.html'
p766
aS'http://www.espnscrum.com/ireland/rugby/player/8489.html'
p767
aS'http://www.espnscrum.com/ireland/rugby/player/8492.html'
p768
aS'http://www.espnscrum.com/ireland/rugby/player/8021.html'
p769
aS'http://www.espnscrum.com/ireland/rugby/player/8495.html'
p770
aS'http://www.espnscrum.com/ireland/rugby/player/8496.html'
p771
aS'http://www.espnscrum.com/ireland/rugby/player/8499.html'
p772
aS'http://www.espnscrum.com/ireland/rugby/player/8500.html'
p773
aS'http://www.espnscrum.com/ireland/rugby/player/7739.html'
p774
aS'http://www.espnscrum.com/ireland/rugby/player/8342.html'
p775
aS'http://www.espnscrum.com/ireland/rugby/player/8652.html'
p776
aS'http://www.espnscrum.com/ireland/rugby/player/8502.html'
p777
aS'http://www.espnscrum.com/ireland/rugby/player/8529.html'
p778
aS'http://www.espnscrum.com/ireland/rugby/player/8659.html'
p779
aS'http://www.espnscrum.com/ireland/rugby/player/8662.html'
p780
aS'http://www.espnscrum.com/ireland/rugby/player/8665.html'
p781
aS'http://www.espnscrum.com/ireland/rugby/player/8667.html'
p782
aS'http://www.espnscrum.com/ireland/rugby/player/8666.html'
p783
aS'http://www.espnscrum.com/ireland/rugby/player/8677.html'
p784
aS'http://www.espnscrum.com/ireland/rugby/player/8809.html'
p785
aS'http://www.espnscrum.com/ireland/rugby/player/8815.html'
p786
aS'http://www.espnscrum.com/ireland/rugby/player/8816.html'
p787
aS'http://www.espnscrum.com/ireland/rugby/player/8819.html'
p788
aS'http://www.espnscrum.com/ireland/rugby/player/8821.html'
p789
aS'http://www.espnscrum.com/ireland/rugby/player/8894.html'
p790
aS'http://www.espnscrum.com/ireland/rugby/player/8833.html'
p791
aS'http://www.espnscrum.com/ireland/rugby/player/8914.html'
p792
aS'http://www.espnscrum.com/ireland/rugby/player/8814.html'
p793
aS'http://www.espnscrum.com/ireland/rugby/player/8212.html'
p794
aS'http://www.espnscrum.com/ireland/rugby/player/8918.html'
p795
aS'http://www.espnscrum.com/ireland/rugby/player/8919.html'
p796
aS'http://www.espnscrum.com/ireland/rugby/player/8913.html'
p797
aS'http://www.espnscrum.com/ireland/rugby/player/8808.html'
p798
aS'http://www.espnscrum.com/ireland/rugby/player/8983.html'
p799
aS'http://www.espnscrum.com/ireland/rugby/player/8982.html'
p800
aS'http://www.espnscrum.com/ireland/rugby/player/9096.html'
p801
aS'http://www.espnscrum.com/ireland/rugby/player/9100.html'
p802
aS'http://www.espnscrum.com/ireland/rugby/player/9095.html'
p803
aS'http://www.espnscrum.com/ireland/rugby/player/9117.html'
p804
aS'http://www.espnscrum.com/ireland/rugby/player/9305.html'
p805
aS'http://www.espnscrum.com/ireland/rugby/player/9277.html'
p806
aS'http://www.espnscrum.com/ireland/rugby/player/9317.html'
p807
aS'http://www.espnscrum.com/ireland/rugby/player/9328.html'
p808
aS'http://www.espnscrum.com/ireland/rugby/player/9331.html'
p809
aS'http://www.espnscrum.com/ireland/rugby/player/9308.html'
p810
aS'http://www.espnscrum.com/ireland/rugby/player/9330.html'
p811
aS'http://www.espnscrum.com/ireland/rugby/player/9388.html'
p812
aS'http://www.espnscrum.com/ireland/rugby/player/9390.html'
p813
aS'http://www.espnscrum.com/ireland/rugby/player/9387.html'
p814
aS'http://www.espnscrum.com/ireland/rugby/player/9419.html'
p815
aS'http://www.espnscrum.com/ireland/rugby/player/9386.html'
p816
aS'http://www.espnscrum.com/ireland/rugby/player/9721.html'
p817
aS'http://www.espnscrum.com/ireland/rugby/player/9724.html'
p818
aS'http://www.espnscrum.com/ireland/rugby/player/9720.html'
p819
aS'http://www.espnscrum.com/ireland/rugby/player/9554.html'
p820
aS'http://www.espnscrum.com/ireland/rugby/player/9718.html'
p821
aS'http://www.espnscrum.com/ireland/rugby/player/9729.html'
p822
aS'http://www.espnscrum.com/ireland/rugby/player/9735.html'
p823
aS'http://www.espnscrum.com/ireland/rugby/player/9727.html'
p824
aS'http://www.espnscrum.com/ireland/rugby/player/9817.html'
p825
aS'http://www.espnscrum.com/ireland/rugby/player/9553.html'
p826
aS'http://www.espnscrum.com/ireland/rugby/player/9820.html'
p827
aS'http://www.espnscrum.com/ireland/rugby/player/9821.html'
p828
aS'http://www.espnscrum.com/ireland/rugby/player/9822.html'
p829
aS'http://www.espnscrum.com/ireland/rugby/player/9840.html'
p830
aS'http://www.espnscrum.com/ireland/rugby/player/9845.html'
p831
aS'http://www.espnscrum.com/ireland/rugby/player/9819.html'
p832
aS'http://www.espnscrum.com/ireland/rugby/player/9997.html'
p833
aS'http://www.espnscrum.com/ireland/rugby/player/9911.html'
p834
aS'http://www.espnscrum.com/ireland/rugby/player/9842.html'
p835
aS'http://www.espnscrum.com/ireland/rugby/player/10244.html'
p836
aS'http://www.espnscrum.com/ireland/rugby/player/9909.html'
p837
aS'http://www.espnscrum.com/ireland/rugby/player/10254.html'
p838
aS'http://www.espnscrum.com/ireland/rugby/player/10263.html'
p839
aS'http://www.espnscrum.com/ireland/rugby/player/10245.html'
p840
aS'http://www.espnscrum.com/ireland/rugby/player/10338.html'
p841
aS'http://www.espnscrum.com/ireland/rugby/player/10339.html'
p842
aS'http://www.espnscrum.com/ireland/rugby/player/10343.html'
p843
aS'http://www.espnscrum.com/ireland/rugby/player/10353.html'
p844
aS'http://www.espnscrum.com/ireland/rugby/player/10354.html'
p845
aS'http://www.espnscrum.com/ireland/rugby/player/10358.html'
p846
aS'http://www.espnscrum.com/ireland/rugby/player/10335.html'
p847
aS'http://www.espnscrum.com/ireland/rugby/player/10365.html'
p848
aS'http://www.espnscrum.com/ireland/rugby/player/10367.html'
p849
aS'http://www.espnscrum.com/ireland/rugby/player/10266.html'
p850
aS'http://www.espnscrum.com/ireland/rugby/player/10472.html'
p851
aS'http://www.espnscrum.com/ireland/rugby/player/10474.html'
p852
aS'http://www.espnscrum.com/ireland/rugby/player/10468.html'
p853
aS'http://www.espnscrum.com/ireland/rugby/player/10532.html'
p854
aS'http://www.espnscrum.com/ireland/rugby/player/10607.html'
p855
aS'http://www.espnscrum.com/ireland/rugby/player/9844.html'
p856
aS'http://www.espnscrum.com/ireland/rugby/player/10187.html'
p857
aS'http://www.espnscrum.com/ireland/rugby/player/10693.html'
p858
aS'http://www.espnscrum.com/ireland/rugby/player/10695.html'
p859
aS'http://www.espnscrum.com/ireland/rugby/player/10698.html'
p860
aS'http://www.espnscrum.com/ireland/rugby/player/10908.html'
p861
aS'http://www.espnscrum.com/ireland/rugby/player/10909.html'
p862
aS'http://www.espnscrum.com/ireland/rugby/player/10913.html'
p863
aS'http://www.espnscrum.com/ireland/rugby/player/10726.html'
p864
aS'http://www.espnscrum.com/ireland/rugby/player/10959.html'
p865
aS'http://www.espnscrum.com/ireland/rugby/player/10961.html'
p866
aS'http://www.espnscrum.com/ireland/rugby/player/10608.html'
p867
aS'http://www.espnscrum.com/ireland/rugby/player/10962.html'
p868
aS'http://www.espnscrum.com/ireland/rugby/player/10963.html'
p869
aS'http://www.espnscrum.com/ireland/rugby/player/10965.html'
p870
aS'http://www.espnscrum.com/ireland/rugby/player/10966.html'
p871
aS'http://www.espnscrum.com/ireland/rugby/player/10964.html'
p872
aS'http://www.espnscrum.com/ireland/rugby/player/11040.html'
p873
aS'http://www.espnscrum.com/ireland/rugby/player/10603.html'
p874
aS'http://www.espnscrum.com/ireland/rugby/player/11123.html'
p875
aS'http://www.espnscrum.com/ireland/rugby/player/11154.html'
p876
aS'http://www.espnscrum.com/ireland/rugby/player/11128.html'
p877
aS'http://www.espnscrum.com/ireland/rugby/player/11203.html'
p878
aS'http://www.espnscrum.com/ireland/rugby/player/11204.html'
p879
aS'http://www.espnscrum.com/ireland/rugby/player/11205.html'
p880
aS'http://www.espnscrum.com/ireland/rugby/player/11207.html'
p881
aS'http://www.espnscrum.com/ireland/rugby/player/11206.html'
p882
aS'http://www.espnscrum.com/ireland/rugby/player/9897.html'
p883
aS'http://www.espnscrum.com/ireland/rugby/player/11355.html'
p884
aS'http://www.espnscrum.com/ireland/rugby/player/11380.html'
p885
aS'http://www.espnscrum.com/ireland/rugby/player/11385.html'
p886
aS'http://www.espnscrum.com/ireland/rugby/player/11360.html'
p887
aS'http://www.espnscrum.com/ireland/rugby/player/11409.html'
p888
aS'http://www.espnscrum.com/ireland/rugby/player/11410.html'
p889
aS'http://www.espnscrum.com/ireland/rugby/player/11381.html'
p890
aS'http://www.espnscrum.com/ireland/rugby/player/11412.html'
p891
aS'http://www.espnscrum.com/ireland/rugby/player/11668.html'
p892
aS'http://www.espnscrum.com/ireland/rugby/player/11693.html'
p893
aS'http://www.espnscrum.com/ireland/rugby/player/11699.html'
p894
aS'http://www.espnscrum.com/ireland/rugby/player/11799.html'
p895
aS'http://www.espnscrum.com/ireland/rugby/player/11800.html'
p896
aS'http://www.espnscrum.com/ireland/rugby/player/11361.html'
p897
aS'http://www.espnscrum.com/ireland/rugby/player/11802.html'
p898
aS'http://www.espnscrum.com/ireland/rugby/player/11806.html'
p899
aS'http://www.espnscrum.com/ireland/rugby/player/11667.html'
p900
aS'http://www.espnscrum.com/ireland/rugby/player/11932.html'
p901
aS'http://www.espnscrum.com/ireland/rugby/player/11934.html'
p902
aS'http://www.espnscrum.com/ireland/rugby/player/11935.html'
p903
aS'http://www.espnscrum.com/ireland/rugby/player/11939.html'
p904
aS'http://www.espnscrum.com/ireland/rugby/player/11951.html'
p905
aS'http://www.espnscrum.com/ireland/rugby/player/11694.html'
p906
aS'http://www.espnscrum.com/ireland/rugby/player/12011.html'
p907
aS'http://www.espnscrum.com/ireland/rugby/player/12012.html'
p908
aS'http://www.espnscrum.com/ireland/rugby/player/12013.html'
p909
aS'http://www.espnscrum.com/ireland/rugby/player/12131.html'
p910
aS'http://www.espnscrum.com/ireland/rugby/player/12139.html'
p911
aS'http://www.espnscrum.com/ireland/rugby/player/12130.html'
p912
aS'http://www.espnscrum.com/ireland/rugby/player/12135.html'
p913
aS'http://www.espnscrum.com/ireland/rugby/player/12136.html'
p914
aS'http://www.espnscrum.com/ireland/rugby/player/12146.html'
p915
aS'http://www.espnscrum.com/ireland/rugby/player/12149.html'
p916
aS'http://www.espnscrum.com/ireland/rugby/player/12165.html'
p917
aS'http://www.espnscrum.com/ireland/rugby/player/12174.html'
p918
aS'http://www.espnscrum.com/ireland/rugby/player/12389.html'
p919
aS'http://www.espnscrum.com/ireland/rugby/player/12393.html'
p920
aS'http://www.espnscrum.com/ireland/rugby/player/12399.html'
p921
aS'http://www.espnscrum.com/ireland/rugby/player/12391.html'
p922
aS'http://www.espnscrum.com/ireland/rugby/player/12422.html'
p923
aS'http://www.espnscrum.com/ireland/rugby/player/12421.html'
p924
aS'http://www.espnscrum.com/ireland/rugby/player/12432.html'
p925
aS'http://www.espnscrum.com/ireland/rugby/player/12434.html'
p926
aS'http://www.espnscrum.com/ireland/rugby/player/12405.html'
p927
aS'http://www.espnscrum.com/ireland/rugby/player/12538.html'
p928
aS'http://www.espnscrum.com/ireland/rugby/player/12705.html'
p929
aS'http://www.espnscrum.com/ireland/rugby/player/12706.html'
p930
aS'http://www.espnscrum.com/ireland/rugby/player/12707.html'
p931
aS'http://www.espnscrum.com/ireland/rugby/player/12547.html'
p932
aS'http://www.espnscrum.com/ireland/rugby/player/12539.html'
p933
aS'http://www.espnscrum.com/ireland/rugby/player/12545.html'
p934
aS'http://www.espnscrum.com/ireland/rugby/player/12701.html'
p935
aS'http://www.espnscrum.com/ireland/rugby/player/12730.html'
p936
aS'http://www.espnscrum.com/ireland/rugby/player/12752.html'
p937
aS'http://www.espnscrum.com/ireland/rugby/player/12768.html'
p938
aS'http://www.espnscrum.com/ireland/rugby/player/12536.html'
p939
aS'http://www.espnscrum.com/ireland/rugby/player/12540.html'
p940
aS'http://www.espnscrum.com/ireland/rugby/player/12907.html'
p941
aS'http://www.espnscrum.com/ireland/rugby/player/12898.html'
p942
aS'http://www.espnscrum.com/ireland/rugby/player/13032.html'
p943
aS'http://www.espnscrum.com/ireland/rugby/player/13030.html'
p944
aS'http://www.espnscrum.com/ireland/rugby/player/13045.html'
p945
aS'http://www.espnscrum.com/ireland/rugby/player/13169.html'
p946
aS'http://www.espnscrum.com/ireland/rugby/player/13120.html'
p947
aS'http://www.espnscrum.com/ireland/rugby/player/13171.html'
p948
aS'http://www.espnscrum.com/ireland/rugby/player/13243.html'
p949
aS'http://www.espnscrum.com/ireland/rugby/player/13255.html'
p950
aS'http://www.espnscrum.com/ireland/rugby/player/13262.html'
p951
aS'http://www.espnscrum.com/ireland/rugby/player/13263.html'
p952
aS'http://www.espnscrum.com/ireland/rugby/player/13264.html'
p953
aS'http://www.espnscrum.com/ireland/rugby/player/13308.html'
p954
aS'http://www.espnscrum.com/ireland/rugby/player/13310.html'
p955
aS'http://www.espnscrum.com/ireland/rugby/player/13311.html'
p956
aS'http://www.espnscrum.com/ireland/rugby/player/13312.html'
p957
aS'http://www.espnscrum.com/ireland/rugby/player/13283.html'
p958
aS'http://www.espnscrum.com/ireland/rugby/player/13420.html'
p959
aS'http://www.espnscrum.com/ireland/rugby/player/12554.html'
p960
aS'http://www.espnscrum.com/ireland/rugby/player/13309.html'
p961
aS'http://www.espnscrum.com/ireland/rugby/player/13430.html'
p962
aS'http://www.espnscrum.com/ireland/rugby/player/13431.html'
p963
aS'http://www.espnscrum.com/ireland/rugby/player/13429.html'
p964
aS'http://www.espnscrum.com/ireland/rugby/player/13281.html'
p965
aS'http://www.espnscrum.com/ireland/rugby/player/13518.html'
p966
aS'http://www.espnscrum.com/ireland/rugby/player/13566.html'
p967
aS'http://www.espnscrum.com/ireland/rugby/player/11969.html'
p968
aS'http://www.espnscrum.com/ireland/rugby/player/13650.html'
p969
aS'http://www.espnscrum.com/ireland/rugby/player/13185.html'
p970
aS'http://www.espnscrum.com/ireland/rugby/player/13857.html'
p971
aS'http://www.espnscrum.com/ireland/rugby/player/13851.html'
p972
aS'http://www.espnscrum.com/ireland/rugby/player/13870.html'
p973
aS'http://www.espnscrum.com/ireland/rugby/player/13985.html'
p974
aS'http://www.espnscrum.com/ireland/rugby/player/14152.html'
p975
aS'http://www.espnscrum.com/ireland/rugby/player/14234.html'
p976
aS'http://www.espnscrum.com/ireland/rugby/player/14232.html'
p977
aS'http://www.espnscrum.com/ireland/rugby/player/14249.html'
p978
aS'http://www.espnscrum.com/ireland/rugby/player/14250.html'
p979
aS'http://www.espnscrum.com/ireland/rugby/player/14029.html'
p980
aS'http://www.espnscrum.com/ireland/rugby/player/14556.html'
p981
aS'http://www.espnscrum.com/ireland/rugby/player/84933.html'
p982
aS'http://www.espnscrum.com/ireland/rugby/player/14655.html'
p983
aS'http://www.espnscrum.com/ireland/rugby/player/14667.html'
p984
aS'http://www.espnscrum.com/ireland/rugby/player/14904.html'
p985
aS'http://www.espnscrum.com/ireland/rugby/player/14916.html'
p986
aS'http://www.espnscrum.com/ireland/rugby/player/14901.html'
p987
aS'http://www.espnscrum.com/ireland/rugby/player/14902.html'
p988
aS'http://www.espnscrum.com/ireland/rugby/player/14903.html'
p989
aS'http://www.espnscrum.com/ireland/rugby/player/14909.html'
p990
aS'http://www.espnscrum.com/ireland/rugby/player/14952.html'
p991
aS'http://www.espnscrum.com/ireland/rugby/player/15048.html'
p992
aS'http://www.espnscrum.com/ireland/rugby/player/15049.html'
p993
aS'http://www.espnscrum.com/ireland/rugby/player/15083.html'
p994
aS'http://www.espnscrum.com/ireland/rugby/player/15090.html'
p995
aS'http://www.espnscrum.com/ireland/rugby/player/15107.html'
p996
aS'http://www.espnscrum.com/ireland/rugby/player/15262.html'
p997
aS'http://www.espnscrum.com/ireland/rugby/player/15278.html'
p998
aS'http://www.espnscrum.com/ireland/rugby/player/15223.html'
p999
aS'http://www.espnscrum.com/ireland/rugby/player/15435.html'
p1000
aS'http://www.espnscrum.com/ireland/rugby/player/15436.html'
p1001
aS'http://www.espnscrum.com/ireland/rugby/player/15202.html'
p1002
aS'http://www.espnscrum.com/ireland/rugby/player/15615.html'
p1003
aS'http://www.espnscrum.com/ireland/rugby/player/15614.html'
p1004
aS'http://www.espnscrum.com/ireland/rugby/player/15621.html'
p1005
aS'http://www.espnscrum.com/ireland/rugby/player/15218.html'
p1006
aS'http://www.espnscrum.com/ireland/rugby/player/15207.html'
p1007
aS'http://www.espnscrum.com/ireland/rugby/player/15208.html'
p1008
aS'http://www.espnscrum.com/ireland/rugby/player/15966.html'
p1009
aS'http://www.espnscrum.com/ireland/rugby/player/16000.html'
p1010
aS'http://www.espnscrum.com/ireland/rugby/player/15196.html'
p1011
aS'http://www.espnscrum.com/ireland/rugby/player/27640.html'
p1012
aS'http://www.espnscrum.com/ireland/rugby/player/27701.html'
p1013
aS'http://www.espnscrum.com/ireland/rugby/player/15977.html'
p1014
aS'http://www.espnscrum.com/ireland/rugby/player/15217.html'
p1015
aS'http://www.espnscrum.com/ireland/rugby/player/78662.html'
p1016
aS'http://www.espnscrum.com/ireland/rugby/player/90180.html'
p1017
aS'http://www.espnscrum.com/ireland/rugby/player/15959.html'
p1018
aS'http://www.espnscrum.com/ireland/rugby/player/15999.html'
p1019
aS'http://www.espnscrum.com/ireland/rugby/player/15973.html'
p1020
aS'http://www.espnscrum.com/ireland/rugby/player/15972.html'
p1021
aS'http://www.espnscrum.com/ireland/rugby/player/16004.html'
p1022
aS'http://www.espnscrum.com/ireland/rugby/player/15961.html'
p1023
aS'http://www.espnscrum.com/ireland/rugby/player/27724.html'
p1024
aS'http://www.espnscrum.com/ireland/rugby/player/95453.html'
p1025
aS'http://www.espnscrum.com/ireland/rugby/player/15200.html'
p1026
aS'http://www.espnscrum.com/ireland/rugby/player/27307.html'
p1027
aS'http://www.espnscrum.com/ireland/rugby/player/89751.html'
p1028
aS'http://www.espnscrum.com/ireland/rugby/player/106762.html'
p1029
aS'http://www.espnscrum.com/ireland/rugby/player/79294.html'
p1030
aS'http://www.espnscrum.com/ireland/rugby/player/27723.html'
p1031
aS'http://www.espnscrum.com/ireland/rugby/player/82145.html'
p1032
aS'http://www.espnscrum.com/ireland/rugby/player/27672.html'
p1033
aS'http://www.espnscrum.com/ireland/rugby/player/82144.html'
p1034
aS'http://www.espnscrum.com/ireland/rugby/player/96413.html'
p1035
aS'http://www.espnscrum.com/ireland/rugby/player/107693.html'
p1036
aS'http://www.espnscrum.com/ireland/rugby/player/15199.html'
p1037
aS'http://www.espnscrum.com/ireland/rugby/player/114227.html'
p1038
aS'http://www.espnscrum.com/ireland/rugby/player/27682.html'
p1039
aS'http://www.espnscrum.com/ireland/rugby/player/91529.html'
p1040
aS'http://www.espnscrum.com/ireland/rugby/player/120354.html'
p1041
aS'http://www.espnscrum.com/ireland/rugby/player/134573.html'
p1042
aS'http://www.espnscrum.com/ireland/rugby/player/104760.html'
p1043
aS'http://www.espnscrum.com/ireland/rugby/player/129490.html'
p1044
aS'http://www.espnscrum.com/ireland/rugby/player/131727.html'
p1045
aS'http://www.espnscrum.com/ireland/rugby/player/125887.html'
p1046
aS'http://www.espnscrum.com/ireland/rugby/player/96690.html'
p1047
aS'http://www.espnscrum.com/ireland/rugby/player/104487.html'
p1048
aS'http://www.espnscrum.com/ireland/rugby/player/89845.html'
p1049
aS'http://www.espnscrum.com/ireland/rugby/player/169067.html'
p1050
aS'http://www.espnscrum.com/ireland/rugby/player/156533.html'
p1051
aS'http://www.espnscrum.com/ireland/rugby/player/87420.html'
p1052
aS'http://www.espnscrum.com/ireland/rugby/player/92340.html'
p1053
aS'http://www.espnscrum.com/ireland/rugby/player/107552.html'
p1054
aS'http://www.espnscrum.com/ireland/rugby/player/27820.html'
p1055
aS'http://www.espnscrum.com/ireland/rugby/player/114470.html'
p1056
aS'http://www.espnscrum.com/ireland/rugby/player/96691.html'
p1057
aS'http://www.espnscrum.com/ireland/rugby/player/136573.html'
p1058
aS'http://www.espnscrum.com/ireland/rugby/player/117439.html'
p1059
aS'http://www.espnscrum.com/ireland/rugby/player/27641.html'
p1060
aS'http://www.espnscrum.com/ireland/rugby/player/124172.html'
p1061
aS'http://www.espnscrum.com/ireland/rugby/player/158694.html'
p1062
aS'http://www.espnscrum.com/ireland/rugby/player/180368.html'
p1063
aS'http://www.espnscrum.com/ireland/rugby/player/115159.html'
p1064
aS'http://www.espnscrum.com/ireland/rugby/player/116760.html'
p1065
aS'http://www.espnscrum.com/ireland/rugby/player/91589.html'
p1066
aS'http://www.espnscrum.com/ireland/rugby/player/96412.html'
p1067
aS'http://www.espnscrum.com/ireland/rugby/player/106763.html'
p1068
aS'http://www.espnscrum.com/ireland/rugby/player/169070.html'
p1069
aS'http://www.espnscrum.com/ireland/rugby/player/158698.html'
p1070
aS'http://www.espnscrum.com/ireland/rugby/player/110375.html'
p1071
aS'http://www.espnscrum.com/ireland/rugby/player/136576.html'
p1072
aS'http://www.espnscrum.com/ireland/rugby/player/117453.html'
p1073
aS'http://www.espnscrum.com/ireland/rugby/player/216409.html'
p1074
aS'http://www.espnscrum.com/ireland/rugby/player/165575.html'
p1075
aS'http://www.espnscrum.com/ireland/rugby/player/251237.html'
p1076
aS'http://www.espnscrum.com/ireland/rugby/player/134572.html'
p1077
aS'http://www.espnscrum.com/ireland/rugby/player/146491.html'
p1078
aS'http://www.espnscrum.com/ireland/rugby/player/103879.html'
p1079
aS'http://www.espnscrum.com/ireland/rugby/player/194463.html'
p1080
aS'http://www.espnscrum.com/ireland/rugby/player/173466.html'
p1081
aS'http://www.espnscrum.com/ireland/rugby/player/255103.html'
p1082
aS'http://www.espnscrum.com/ireland/rugby/player/86295.html'
p1083
aS'http://www.espnscrum.com/ireland/rugby/player/184987.html'
p1084
aS'http://www.espnscrum.com/ireland/rugby/player/212583.html'
p1085
aS'http://www.espnscrum.com/ireland/rugby/player/239723.html'
p1086
aS'http://www.espnscrum.com/ireland/rugby/player/184443.html'
p1087
aS'http://www.espnscrum.com/ireland/rugby/player/158703.html'
p1088
aS'http://www.espnscrum.com/ireland/rugby/player/149936.html'
p1089
aS'http://www.espnscrum.com/ireland/rugby/player/134566.html'
p1090
aS'http://www.espnscrum.com/ireland/rugby/player/158695.html'
p1091
aS'http://www.espnscrum.com/ireland/rugby/player/111706.html'
p1092
a.