(lp1
VDecember 3, 1879, Tauranga
p2
aVcirca 1880, ?
p3
aVNovember 12, 1869, Dunedin
p4
aVNovember 11, 1874, Christchurch
p5
aVOctober 30, 1873, Ramelton
p6
aVJuly 24, 1876, Wanganui
p7
aVNovember 13, 1879, Auckland
p8
aVJuly 16, 1881, Kaiapoi
p9
aVDecember 31, 1874, Thames
p10
aVAugust 14, 1880, Marton
p11
aVAugust 3, 1878, Auckland
p12
aVFebruary 10, 1879, Auckland
p13
aVMay 21, 1874, Greytown
p14
aVAugust 2, 1878, Wellington
p15
aVOctober 9, 1876, Waipawa
p16
aVJanuary 21, 1876, Dunedin
p17
aVFebruary 21, 1877, Greymouth
p18
aVDecember 1, 1877, Christchurch
p19
aVApril 3, 1880, S Rakaia
p20
aVNovember 10, 1874, Turkina
p21
aVMay 14, 1883, Wanganui
p22
aVSeptember 18, 1877, Invercargill
p23
aVJuly 23, 1879, Caversham
p24
aVSeptember 20, 1883, Invercargill
p25
aVMarch 21, 1880, Wellington
p26
aVJune 8, 1882, Wanganui
p27
aVMarch 17, 1885, Broughty Ferry
p28
aVJuly 23, 1882, Waimate
p29
aVJune 10, 1874, Mataura
p30
aVcirca 1878, Dipton
p31
aVMarch 9, 1881, Wellington
p32
aVNovember 27, 1880, Wellington
p33
aVFebruary 1, 1880, Mile End, London
p34
aVMarch 18, 1880, Akaroa
p35
aVJune 15, 1886, Masterton
p36
aVDecember 24, 1882, Dunedin
p37
aVJuly 8, 1874, Rangiaohia
p38
aVFebruary 19, 1884, Christchurch
p39
aVApril 23, 1877, Leeston
p40
aVAugust 17, 1880, S Dunedin
p41
aVMarch 6, 1879, Hawera
p42
aVApril 23, 1883, Dunedin
p43
aVFebruary 5, 1883, Okaiawa
p44
aVApril 7, 1881, Wellington
p45
aVSeptember 20, 1874, Auckland
p46
aVJune 4, 1876, Auckland
p47
aVMay 7, 1881, Christchurch
p48
aVJune 17, 1882, Camerontown
p49
aVFebruary 24, 1876, Teschemakers
p50
aVJuly 20, 1881, Milton
p51
aVJanuary 14, 1887, Hawera
p52
aVNovember 2, 1886, Riccarton
p53
aVApril 26, 1881, Invercargill
p54
aVSeptember 13, 1881, Dunedin
p55
aVSeptember 3, 1884, Lawrence
p56
aVJuly 15, 1887, Waitara
p57
aVFebruary 20, 1881, Napier
p58
aVMay 18, 1886, Christchurch
p59
aVMarch 10, 1881, Lyttelton
p60
aVcirca 1880, ?
p61
aVJanuary 19, 1883, Invercargill
p62
aVJanuary 23, 1884, Southern Grove
p63
aVOctober 31, 1885, Dunedin
p64
aVJanuary 1, 1880, Buller
p65
aVMay 23, 1883, Blenheim
p66
aVOctober 3, 1885, Wellington
p67
aVApril 9, 1883, Christchurch
p68
aVJanuary 9, 1884, Cromwell
p69
aVFebruary 6, 1886, Auckland
p70
aVSeptember 29, 1883, Masterton
p71
aVFebruary 12, 1881, Dunedin
p72
aVMarch 3, 1882, Invercargill
p73
aVNovember 13, 1889, New Plymouth
p74
aVOctober 4, 1886, Napier
p75
aVNovember 28, 1890, Melbourne, VIC
p76
aVFebruary 8, 1887, Masterton
p77
aVJune 22, 1888, Dunedin
p78
aVAugust 24, 1892, Inverleithen
p79
aVOctober 13, 1883, Wellington
p80
aVJuly 12, 1886, Napier
p81
aVMarch 6, 1892, Milton
p82
aVDecember 16, 1889, Thames
p83
aVMarch 15, 1892, Lyttelton
p84
aVFebruary 9, 1888, Christchurch
p85
aVJanuary 23, 1889, Manaia
p86
aVApril 16, 1886, Auckland
p87
aVFebruary 5, 1889, Christchurch
p88
aVApril 22, 1884, Dunedin
p89
aVOctober 26, 1887, Galatea
p90
aVDecember 17, 1893, Dunedin
p91
aVOctober 8, 1888, Auckland
p92
aVDecember 19, 1887, New Plymouth
p93
aVMarch 13, 1889, Timaru
p94
aVFebruary 4, 1894, New Plymouth
p95
aVMay 13, 1893, Auckland
p96
aVJune 24, 1883, Masterton
p97
aVApril 26, 1889, Christchurch
p98
aVSeptember 3, 1887, Auckland
p99
aVDecember 24, 1885, Invercargill
p100
aVMay 10, 1888, Geraldine
p101
aVOctober 3, 1890, Kaiapoi
p102
aVMarch 23, 1889, Hillsborough, Taranak
p103
aVSeptember 10, 1890, Clinton
p104
aVMarch 31, 1890, Linwood
p105
aVAugust 27, 1889, Waratah
p106
aVJuly 7, 1885, Waitara
p107
aVApril 23, 1884, Dunedin
p108
aVAugust 23, 1893, Arrowtown
p109
aVNovember 11, 1887, Wellington
p110
aVJuly 1, 1888, Dunedin
p111
aVDecember 9, 1889, Wellington
p112
aVMay 10, 1891, Wellington
p113
aVJuly 2, 1898, Westport
p114
aVNovember 7, 1896, Auckland
p115
aVApril 1, 1894, Palmerston North
p116
aVJune 4, 1898, Featherston
p117
aVJune 11, 1892, Port Chalmers
p118
aVDecember 12, 1891, Matakanui
p119
aVJuly 2, 1895, Auckland
p120
aVJune 3, 1889, Waikaia
p121
aVJanuary 21, 1900, Wellington
p122
aVJuly 13, 1901, Greytown
p123
aVApril 2, 1899, Dunedin
p124
aVNovember 10, 1898, Dillmanstown
p125
aVFebruary 11, 1897, Temuka
p126
aVMarch 21, 1894, Invercargill
p127
aVOctober 31, 1898, Auckland
p128
aVMay 6, 1893, Inglewood
p129
aVOctober 5, 1898, Dunedin
p130
aVMay 9, 1894, Rewiti
p131
aVJanuary 6, 1893, Auckland
p132
aVJuly 16, 1897, Wellington
p133
aVAugust 10, 1897, Wanganui
p134
aVOctober 5, 1901, Auckland
p135
aVFebruary 8, 1898, Otautau
p136
aVNovember 18, 1901, Lyttelton
p137
aVMarch 13, 1900, Featherston
p138
aVMarch 28, 1897, Auckland
p139
aVDecember 2, 1898, Wairapapa
p140
aVJanuary 30, 1902, Auckland
p141
aVOctober 19, 1900, Picton
p142
aVApril 25, 1905, Wairoa
p143
aVFebruary 1, 1897, Lyttelton
p144
aVDecember 6, 1898, Toowoomba
p145
aVAugust 6, 1895, Wanganui
p146
aVDecember 29, 1901, Lowburn
p147
aVNovember 19, 1899, Tokomaru Bay
p148
aVMay 5, 1899, Edinburgh
p149
aVFebruary 4, 1903, Amberley
p150
aVFebruary 22, 1904, Christchurch
p151
aVJuly 4, 1899, Maungaturoto
p152
aVApril 9, 1899, Hastings
p153
aVSeptember 19, 1904, Whangaroa
p154
aVNovember 8, 1905, Invercargill
p155
aVAugust 9, 1897, Lumsden
p156
aVDecember 9, 1906, Studholm
p157
aVDecember 20, 1903, Ashburton
p158
aVDecember 1, 1902, Islington
p159
aVJanuary 12, 1904, Waikaia
p160
aVOctober 18, 1906, Invercargill
p161
aVcirca 1902, Sydney, NSW
p162
aVJune 12, 1901, Paeroa
p163
aVMarch 16, 1908, Burnham
p164
aVJanuary 1, 1903, Masterton
p165
aVFebruary 10, 1907, Westport
p166
aVJanuary 9, 1907, Invercargill
p167
aVSeptember 3, 1894, King Country
p168
aVMay 4, 1905, Puni
p169
aVNovember 1, 1905, Wanganui
p170
aVMay 25, 1904, Clareville
p171
aVOctober 6, 1905, Masterton
p172
aVApril 19, 1898, Nelson
p173
aVJune 6, 1894, Dunedin
p174
aVMay 13, 1907, Tikokino
p175
aVDecember 31, 1903, Epsom, Auckland
p176
aVFebruary 26, 1905, Chertsey
p177
aVApril 12, 1897, Thames
p178
aVNovember 14, 1901, Mosstown
p179
aVAugust 15, 1901, Featherston
p180
aVMay 25, 1907, Wellington
p181
aVJanuary 1, 1905
p182
aVFebruary 10, 1909, Christchurch
p183
aVApril 29, 1909, Dunedin
p184
aVJuly 10, 1908, Raetihi
p185
aVJuly 5, 1908, Auckland
p186
aVAugust 9, 1907, Dunedin
p187
aVJuly 18, 1907, Wanganui
p188
aVOctober 11, 1908, Foxton
p189
aVMay 3, 1909, Nelson
p190
aVOctober 11, 1904, Leichhard
p191
aVMarch 7, 1907, Nelson
p192
aVMay 13, 1909, Invercargill
p193
aVMay 10, 1908, Dunedin
p194
aVMay 4, 1909, Invercargill
p195
aVMay 30, 1906, Pago Pago
p196
aVJune 4, 1911, Wanganui
p197
aVJuly 4, 1911, Auckland
p198
aVApril 24, 1906, Invercargill
p199
aVJanuary 29, 1908, Waimate
p200
aVSeptember 7, 1909, Petone
p201
aVMay 22, 1906, Dunedin
p202
aVJuly 7, 1908, Wairea
p203
aVJuly 19, 1906, Stratford
p204
aVSeptember 8, 1910, Dunedin
p205
aVMarch 11, 1910, Auckland
p206
aVJanuary 26, 1906, Auckland
p207
aVJanuary 11, 1910, Maryborough, QLD
p208
aVSeptember 16, 1909, Rakaia
p209
aVSeptember 3, 1905, Temuka
p210
aVSeptember 9, 1912, Wellington
p211
aVJuly 26, 1908, Seddonville
p212
aVAugust 19, 1909, Waiuta
p213
aVDecember 3, 1910, Nuhaka
p214
aVMarch 1, 1911, Rothesay
p215
aVJuly 15, 1908, Woodville
p216
aVNovember 22, 1913, Invercargill
p217
aVSeptember 22, 1912, Tokomaru Bay
p218
aVJuly 28, 1914, Wellington
p219
aVJanuary 18, 1913, Napier
p220
aVDecember 18, 1910, Nelson
p221
aVJanuary 12, 1914, Hastings
p222
aVApril 13, 1911, Wellington
p223
aVFebruary 14, 1914, Christchurch
p224
aVJuly 5, 1914, Dunedin
p225
aVJanuary 4, 1908, Oretea, nr.Dargaville
p226
aVOctober 8, 1912, Oamaru
p227
aVDecember 1, 1915, Riverton
p228
aVAugust 11, 1914, Christchurch
p229
aVOctober 3, 1912, Auckland
p230
aVNovember 20, 1913, Christchurch
p231
aVApril 22, 1912, Palmerston
p232
aVMarch 7, 1911, Kingston
p233
aVMarch 30, 1915, Tahora
p234
aVJanuary 12, 1913, Mataura
p235
aVMay 6, 1912, Mosgiel Junction
p236
aVJanuary 30, 1914, Raglan
p237
aVJuly 13, 1914, Houhora
p238
aVMay 5, 1915, Auckland
p239
aVJune 5, 1908, Invercargill
p240
aVFebruary 27, 1914, Christchurch
p241
aVJuly 28, 1913, Gisborne
p242
aVAugust 17, 1908, Christchurch
p243
aVMay 23, 1913, Kurow
p244
aVFebruary 9, 1920, Oamaru
p245
aVMay 29, 1921, Auckland
p246
aVSeptember 23, 1915, Hamilton
p247
aVNovember 17, 1918, Otahuhu
p248
aVMarch 3, 1922, Wellington
p249
aVMarch 2, 1923, Timaru
p250
aVJanuary 31, 1916, Normanby
p251
aVApril 21, 1916, Wanganui
p252
aVDecember 7, 1924, Prestonpans
p253
aVFebruary 19, 1917, Auckland
p254
aVJune 20, 1915, Lyttelton
p255
aVFebruary 6, 1921, Wellington
p256
aVSeptember 25, 1922, Kaikohe
p257
aVOctober 18, 1917, Dannevirke
p258
aVJune 28, 1919, Balclutha
p259
aVApril 29, 1914, Springhills
p260
aVMarch 28, 1922, Whangarei
p261
aVAugust 1, 1922, Bluff
p262
aVSeptember 28, 1921, Timaru
p263
aVMarch 1, 1920, Feilding
p264
aVJune 27, 1925, Christchurch
p265
aVJuly 14, 1919, Te Awamutu
p266
aVOctober 4, 1923, Temuka
p267
aVOctober 1, 1923, Thames
p268
aVMarch 18, 1922, Rotorua
p269
aVJuly 14, 1920, Taupiri
p270
aVDecember 12, 1918, Otahuhu
p271
aVApril 4, 1920, Naseby
p272
aVNovember 21, 1923, Wellington
p273
aVApril 14, 1919, Dunedin
p274
aVApril 18, 1926, Gisborne
p275
aVMarch 26, 1924, Owaka
p276
aVFebruary 17, 1928, Nelson
p277
aVNovember 24, 1927, Dunedin
p278
aVAugust 9, 1922, Mosgiel
p279
aVMay 26, 1923, Greymouth
p280
aVDecember 24, 1921, Wellington
p281
aVNovember 3, 1922, Carterton
p282
aVNovember 14, 1919, Raetihi
p283
aVMarch 26, 1923, Auckland
p284
aVOctober 11, 1924, Auckland
p285
aVDecember 7, 1926, Ashburton
p286
aVSeptember 17, 1926, Alexandra
p287
aVMarch 18, 1923, Wellington
p288
aVMarch 26, 1923, Mokihinui
p289
aVJune 19, 1924, Gore
p290
aVOctober 28, 1920, Dunedin
p291
aVJune 11, 1925, Gisborne
p292
aVJanuary 27, 1924, Beaumont
p293
aVApril 25, 1925, Kawakawa
p294
aVOctober 20, 1923, Wanganui
p295
aVSeptember 9, 1923, Auckland
p296
aVApril 3, 1920, Thames
p297
aVMay 24, 1920, Carterton
p298
aVJanuary 19, 1925, Wellington
p299
aVOctober 7, 1921, Palmerston North
p300
aVAugust 11, 1923, Owhango
p301
aVJune 15, 1924, Cromwell
p302
aVMarch 29, 1925, New Plymouth
p303
aVMarch 5, 1924, Otiria
p304
aVOctober 18, 1922, Prestonpans
p305
aVFebruary 3, 1927, Greytown
p306
aVJanuary 11, 1927, Auckland
p307
aVDecember 8, 1928, Hawera
p308
aVAugust 5, 1925, Lyttelton
p309
aVNovember 28, 1928, Waipapakauri
p310
aVDecember 14, 1929, Lower Hutt
p311
aVJuly 20, 1927, Naseby
p312
aVAugust 26, 1927, Gore
p313
aVApril 5, 1927, Bluff
p314
aVJanuary 19, 1929, Wellington
p315
aVDecember 13, 1923, Masterton
p316
aVDecember 31, 1925, Dunedin
p317
aVJuly 10, 1927, Nelson
p318
aVJuly 18, 1925, Christchurch
p319
aVAugust 6, 1928, Wellington
p320
aVDecember 7, 1929, Alexandra
p321
aVMarch 6, 1929, Carterton
p322
aVJune 8, 1926, Auckland
p323
aVFebruary 20, 1930, Greymouth
p324
aVApril 12, 1929, Te Kuiti
p325
aVMarch 19, 1926, Whangarei
p326
aVAugust 2, 1930, Otorohanga
p327
aVMay 21, 1930, Whakatane
p328
aVOctober 25, 1925, Blenheim
p329
aVDecember 23, 1928, Auckland
p330
aVNovember 16, 1929, Motueka
p331
aVMarch 5, 1931, Kaponga
p332
aVMarch 26, 1921, Rotherham, N.Cant.
p333
aVMarch 5, 1931, Opotiki
p334
aVMay 15, 1933, Whangarei
p335
aVNovember 5, 1932, Rawhiti
p336
aVFebruary 6, 1929, Christchurch
p337
aVMarch 10, 1931, Dannevirke
p338
aVOctober 26, 1930, Palmerston North
p339
aVMarch 27, 1929, Kawakawa
p340
aVMarch 24, 1932, Kaitaia
p341
aVJanuary 30, 1931, Wanganui
p342
aVSeptember 19, 1930, Gore
p343
aVSeptember 22, 1927, Tauranga
p344
aVFebruary 10, 1935, Gisborne
p345
aVApril 21, 1929, Ashburton
p346
aVSeptember 19, 1928, Dunedin
p347
aVMarch 3, 1934, Mataura
p348
aVApril 8, 1930, Wanganui
p349
aVMay 6, 1936, Kaitaia
p350
aVDecember 23, 1932, Te Puke
p351
aVAugust 14, 1929, Okaiawa, Taranaki
p352
aVSeptember 8, 1934, New Plymouth
p353
aVOctober 31, 1933, Auckland
p354
aVApril 9, 1927, New Plymouth
p355
aVApril 1, 1931, Lower Hutt
p356
aVJanuary 6, 1926, Wataroa
p357
aVMay 15, 1934, Middlemarch
p358
aVMay 1, 1934, Auckland
p359
aVApril 1, 1930, Christchurch
p360
aVNovember 10, 1933, Pihama
p361
aVJanuary 5, 1936, Auckland
p362
aVJanuary 18, 1933, Auckland
p363
aVJune 3, 1936, Cambridge
p364
aVJuly 10, 1935, Auckland
p365
aVJanuary 21, 1935, Papakura
p366
aVApril 9, 1934, Temuka
p367
aVJanuary 1, 1935, Stratford
p368
aVFebruary 15, 1931, Mataura
p369
aVNovember 23, 1936, Te Kuiti
p370
aVDecember 29, 1935, Dunedin
p371
aVFebruary 23, 1938, Christchurch
p372
aVAugust 6, 1934, Cromwell
p373
aVNovember 7, 1927, Cromwell
p374
aVJanuary 26, 1937, Ashburton
p375
aVJuly 31, 1934, Opunake
p376
aVAugust 20, 1936, New Plymouth
p377
aVJanuary 10, 1937, Wellington
p378
aVApril 22, 1935, Whakatane
p379
aVJuly 22, 1932, Invercargill
p380
aVJanuary 8, 1936, Stratford
p381
aVFebruary 21, 1938, Auckland
p382
aVSeptember 9, 1934, Kawakawa
p383
aVNovember 27, 1936, New Plymouth
p384
aVJuly 4, 1932, Wellington
p385
aVAugust 9, 1934, Nightcaps
p386
aVFebruary 13, 1936, Auckland
p387
aVSeptember 16, 1939, Auckland
p388
aVAugust 9, 1935, Ashgrove, Brisbane
p389
aVMarch 7, 1937, Auckland
p390
aVJuly 12, 1938, Arapuni
p391
aVOctober 20, 1941, New Plymouth
p392
aVJune 15, 1939, Kaitaia
p393
aVSeptember 14, 1934, Auckland
p394
aVMarch 7, 1938, Hamilton
p395
aVJuly 8, 1940, Auckland
p396
aVMarch 13, 1939, Marton
p397
aVJanuary 30, 1942, Invercargill
p398
aVJuly 18, 1939, Christchurch
p399
aVMarch 10, 1937, Rotherham
p400
aVAugust 17, 1933, Akaroa
p401
aVNovember 26, 1938, Auckland
p402
aVOctober 17, 1940, Mokai
p403
aVJuly 21, 1937, Auckland
p404
aVOctober 11, 1940, Temuka
p405
aVDecember 3, 1941, Christchurch
p406
aVJanuary 10, 1941, Balclutha
p407
aVJanuary 3, 1941, Auckland
p408
aVJune 24, 1938, Porirua
p409
aVSeptember 3, 1940, Masterton
p410
aVNovember 16, 1943, Dunedin
p411
aVFebruary 22, 1940, Cromwell
p412
aVFebruary 1, 1939, Tokomaru Nay
p413
aVJanuary 30, 1940, Auckland
p414
aVAugust 20, 1941, Dunedin
p415
aVFebruary 25, 1940, Wellington
p416
aVJune 17, 1941, Auckland
p417
aVFebruary 4, 1941, Auckland
p418
aVJuly 4, 1939, Auckland
p419
aVApril 24, 1939, Ashburton
p420
aVJuly 21, 1938, Invercargill
p421
aVApril 6, 1943, Christchurch
p422
aVJuly 31, 1941, Greymouth
p423
aVDecember 15, 1942, Hastings
p424
aVAugust 19, 1943, Kawakawa
p425
aVAugust 8, 1940, Whakatane
p426
aVJune 11, 1942, Eltham
p427
aVDecember 25, 1944, Palmerston North
p428
aVDecember 29, 1940, Taumarunui
p429
aVJanuary 26, 1945, Wellington
p430
aVMay 24, 1946, Gisborne
p431
aVMay 30, 1941, Mosgiel
p432
aVSeptember 30, 1943, Christchurch
p433
aVOctober 27, 1943, Ashburton
p434
aVFebruary 25, 1946, Devonport, Auckland
p435
aVMarch 27, 1945, Milton
p436
aVApril 27, 1946, Culverden
p437
aVJanuary 9, 1947, Paeroa
p438
aVDecember 10, 1942, Stratford
p439
aVFebruary 10, 1948, Te Puke
p440
aVOctober 3, 1950, Auckland
p441
aVJanuary 4, 1944, Blenheim
p442
aVAugust 30, 1944, Christchurch
p443
aVFebruary 12, 1946, Tokomaru Bay
p444
aVJune 19, 1939, Lower Hutt
p445
aVFebruary 8, 1944, Auckland
p446
aVMarch 10, 1945, Dannevirke
p447
aVNovember 15, 1945, Wellington
p448
aVSeptember 9, 1943, Dunedin
p449
aVMarch 26, 1949, New Plymouth
p450
aVSeptember 3, 1950, Whakatane
p451
aVApril 6, 1941, Lower Hutt
p452
aVSeptember 16, 1950, Oamaru
p453
aVSeptember 20, 1950, Christchurch
p454
aVMarch 30, 1942, Waikari
p455
aVAugust 6, 1946, Auckland
p456
aVAugust 25, 1949, Christchurch
p457
aVFebruary 16, 1946, Dunedin
p458
aVAugust 8, 1947, Waipawa
p459
aVNovember 20, 1947, Kurow
p460
aVDecember 22, 1946, Lower Hutt
p461
aVNovember 22, 1947, Dannevirke
p462
aVMarch 30, 1948, Palmerston
p463
aVJanuary 3, 1942, Nelson
p464
aVMay 30, 1948, Wairoa
p465
aVApril 9, 1952, Hastings
p466
aVOctober 21, 1948, Patea
p467
aVJune 4, 1946, Wanganui
p468
aVApril 17, 1950, Dunedin
p469
aVJune 25, 1951, Featherston
p470
aVAugust 31, 1951, Greytown
p471
aVNovember 21, 1951, Taumarunui
p472
aVJanuary 11, 1947, Rawene
p473
aVApril 13, 1948, Waipawa
p474
aVMarch 23, 1952, Wairoa
p475
aVAugust 27, 1951, Oamaru
p476
aVOctober 26, 1942, Warkworth
p477
aVMarch 22, 1948, Waiuku
p478
aVJanuary 3, 1953, Gore
p479
aVJune 16, 1951, Hamilton
p480
aVJanuary 24, 1949, Napier
p481
aVMay 24, 1950, Palmerston North
p482
aVMay 12, 1950, Auckland
p483
aVNovember 10, 1944, Lower Hutt
p484
aVFebruary 6, 1947, Dunedin
p485
aVApril 25, 1945, Hamilton
p486
aVJune 23, 1949, Auckland
p487
aVDecember 10, 1946, New Plymouth
p488
aVAugust 7, 1945, Whangarei
p489
aVApril 24, 1955, Wanganui
p490
aVDecember 22, 1943, Christchurch
p491
aVJanuary 31, 1953, Cromwell
p492
aVMay 23, 1947, Dunedin
p493
aVNovember 8, 1947, Palmerston North
p494
aVOctober 28, 1954, Matamata
p495
aVJuly 30, 1950, Auckland
p496
aVJanuary 11, 1946, Feilding
p497
aVDecember 24, 1948, Dunedin
p498
aVSeptember 11, 1950, Takara
p499
aVMarch 19, 1956, Auckland
p500
aVSeptember 26, 1950, Wanganui
p501
aVSeptember 24, 1949, Auckland
p502
aVJanuary 11, 1951, Auckland
p503
aVJuly 10, 1951, Kaikoura
p504
aVOctober 26, 1947, New Plymouth
p505
aVSeptember 8, 1952, Opunake
p506
aVMarch 22, 1956, Dunstan
p507
aVJuly 25, 1951, Timaru
p508
aVNovember 6, 1955, Palmerston North
p509
aVAugust 26, 1951, Wellington
p510
aVNovember 6, 1953, Gore
p511
aVFebruary 19, 1952, Dunedin
p512
aVJuly 22, 1955, Gore
p513
aVJanuary 9, 1948, Napier
p514
aVNovember 16, 1951, Dunedin
p515
aVSeptember 23, 1949, Waiuku
p516
aVSeptember 15, 1949, Makahu
p517
aVApril 12, 1952, Christchurch
p518
aVJuly 6, 1950, Hamilton
p519
aVDecember 25, 1955, Wellington
p520
aVApril 22, 1952, Stratford
p521
aVAugust 25, 1956, Hamilton
p522
aVMarch 31, 1955, Patea
p523
aVApril 13, 1957, Tauranga
p524
aVMay 12, 1955, Auckland
p525
aVSeptember 16, 1951, Hastings
p526
aVJanuary 19, 1955, Te Kopuru
p527
aVMay 2, 1953, Auckland
p528
aVJuly 21, 1953, Lautoka
p529
aVSeptember 5, 1953, Wellington
p530
aVAugust 4, 1947, Otahuhu
p531
aVMay 19, 1953, Leeston
p532
aVSeptember 10, 1948, Whangarei
p533
aVNovember 29, 1956, Pukekohe
p534
aVApril 8, 1958, Rotorua
p535
aVMay 23, 1956, Palmerston North
p536
aVApril 19, 1957, Putaruru
p537
aVMay 14, 1952, Taumarunui
p538
aVAugust 30, 1958, Auckland
p539
aVApril 12, 1959, Hamilton
p540
aVOctober 10, 1960, Tokoroa
p541
aVDecember 14, 1954, Rangiora
p542
aVNovember 11, 1954, Papakura
p543
aVMay 14, 1953, Papakura
p544
aVJune 6, 1954, Lower Hutt
p545
aVJune 13, 1953, Gisborne
p546
aVFebruary 19, 1951, Taupo
p547
aVFebruary 10, 1958, Kaikohe
p548
aVJuly 6, 1954, Auckland
p549
aVJanuary 22, 1956, Eltham
p550
aVAugust 11, 1958, Hawera
p551
aVMay 16, 1955, Waioeka
p552
aVDecember 15, 1959, Auckland
p553
aVOctober 16, 1959
p554
aVDecember 19, 1960, Auckland
p555
aVSeptember 30, 1956, Tokoroa
p556
aVJune 11, 1960, Te Kopuru
p557
aVFebruary 15, 1960, Christchurch
p558
aVMarch 11, 1960, Hamilton
p559
aVFebruary 5, 1961, Christchurch
p560
aVJuly 25, 1960, Tauranga
p561
aVFebruary 18, 1954, Wanganui
p562
aVSeptember 4, 1959, Cheviot
p563
aVMay 11, 1957, Wanganui
p564
aVDecember 31, 1958, Wellington
p565
aVMarch 23, 1961, Christchurch
p566
aVSeptember 19, 1955, Christchurch
p567
aVDecember 16, 1964, Auckland
p568
aVJanuary 4, 1959, Wairoa
p569
aVDecember 15, 1959, Auckland
p570
aVDecember 26, 1961, Wellington
p571
aVAugust 31, 1961, Kaponga
p572
aVOctober 5, 1960, Wellington
p573
aVNovember 1, 1957, Timaru
p574
aVJune 6, 1962, New Plymouth
p575
aVAugust 27, 1961, Rotorua
p576
aVFebruary 26, 1960, Gisborne
p577
aVOctober 4, 1960, Te Kuiti
p578
aVAugust 3, 1963, Mangakino
p579
aVNovember 6, 1964, Pukekohe
p580
aVJune 12, 1963, Auckland
p581
aVJune 10, 1965, Gisborne
p582
aVSeptember 12, 1961, Christchurch
p583
aVJune 4, 1963, Auckland
p584
aVOctober 6, 1959, Palmerston North
p585
aVOctober 9, 1962, Gisborne
p586
aVApril 13, 1957, Auckland
p587
aVJanuary 21, 1963, Takapuna
p588
aVMarch 10, 1960, Lower Hutt
p589
aVFebruary 24, 1962, Auckland
p590
aVJuly 13, 1966, Wellington
p591
aVJanuary 22, 1959, Auckland
p592
aVDecember 13, 1957, Rotorua
p593
aVJanuary 29, 1964, Lewisham, London
p594
aVApril 8, 1965, Auckland
p595
aVApril 6, 1960, Chevot
p596
aVFebruary 14, 1965, Waiuku
p597
aVJune 28, 1964, Auckland
p598
aVNovember 25, 1960, Cheviot
p599
aVJanuary 17, 1964, Apia, Western Samoa
p600
aVJune 11, 1967, Christchurch
p601
aVSeptember 10, 1969, New Plymouth
p602
aVApril 17, 1967, Whangarei
p603
aVOctober 14, 1969, Tokoroa
p604
aVMarch 11, 1967, Te Aroha
p605
aVSeptember 21, 1964, Bluff
p606
aVMay 8, 1969, Dannevirke
p607
aVNovember 7, 1968, Auckland
p608
aVNovember 15, 1967, Dunedin
p609
aVOctober 14, 1960, Waihi
p610
aVSeptember 4, 1969, Faleasiu, Western Samoa
p611
aVOctober 17, 1968, Clyde
p612
aVSeptember 21, 1965, Christchurch
p613
aVFebruary 4, 1962, Auckland
p614
aVApril 11, 1971, Auckland
p615
aVMarch 15, 1968, Napier
p616
aVOctober 26, 1967, Hamilton
p617
aVJuly 31, 1968, Apia, Western Samoa
p618
aVNovember 21, 1969, Blenheim
p619
aVJanuary 20, 1969, Northshore
p620
aVJune 7, 1966, Te Awamutu
p621
aVDecember 17, 1963, Takapuna
p622
aVDecember 10, 1966, Warkworth
p623
aVOctober 24, 1967, Apia, Western Samoa
p624
aVOctober 10, 1966, Gisborne
p625
aVOctober 26, 1969, Auckland
p626
aVDecember 24, 1970, Auckland
p627
aVJuly 27, 1967, Stratford
p628
aVOctober 8, 1971, Wellington
p629
aVFebruary 12, 1969, Pahiatua
p630
aVMay 16, 1967, Te Awamutu
p631
aVOctober 24, 1973, Invercargill
p632
aVMay 12, 1975, Auckland
p633
aVAugust 10, 1971, Lower Hutt
p634
aVApril 2, 1966, Lyttelton
p635
aVJuly 8, 1968, Auckland
p636
aVOctober 27, 1970, Apia, Western Samoa
p637
aVJune 20, 1971, Hastings
p638
aVApril 28, 1973, Durban
p639
aVAugust 27, 1971, Wanganui
p640
aVNovember 11, 1968, Hastings
p641
aVFebruary 11, 1965, Auckland
p642
aVMarch 10, 1968, Invercargill
p643
aVMarch 15, 1971, Takapuna
p644
aVAugust 5, 1973, Mataura
p645
aVFebruary 12, 1976, Paraparaumu
p646
aVFebruary 28, 1973, S Brisbane
p647
aVJuly 25, 1973, Tokoroa
p648
aVMarch 27, 1975, Otahuhu
p649
aVSeptember 23, 1970, Whangarei
p650
aVNovember 5, 1974, Hastings
p651
aVMay 27, 1973, Lower Hutt
p652
aVSeptember 9, 1975, Invercargill
p653
aVApril 26, 1972, Nuku'alofa
p654
aVFebruary 3, 1970, Wellington
p655
aVOctober 14, 1975, Levin
p656
aVOctober 8, 1972, Auckland
p657
aVSeptember 20, 1971, Rangiora
p658
aVAugust 21, 1975, Palmerston North
p659
aVSeptember 10, 1977, Rotorua
p660
aVNovember 13, 1974, Auckland
p661
aVMay 25, 1975, Longoteme
p662
aVJanuary 23, 1973, Nausori Highland
p663
aVAugust 21, 1974, Tauranga
p664
aVAugust 28, 1975, Tokoroa
p665
aVApril 15, 1973, Wellington
p666
aVJuly 26, 1974, Auckland
p667
aVJuly 13, 1977, Auckland
p668
aVJanuary 17, 1975, Blenheim
p669
aVMarch 2, 1975, Lumsden
p670
aVMarch 5, 1976, Rawene
p671
aVApril 17, 1972, Auckland
p672
aVJuly 20, 1975, New Plymouth
p673
aVDecember 3, 1976, Dunedin
p674
aVMarch 11, 1976, Nuku'alofa
p675
aVJuly 13, 1972, Christchurch
p676
aVJanuary 2, 1975, Burwood
p677
aVJuly 31, 1972, Rotorua
p678
aVNovember 4, 1976, Otahuhu
p679
aVNovember 28, 1977, Wairoa
p680
aVSeptember 21, 1978, Auckland
p681
aVJune 4, 1971, Wellington
p682
aVJuly 7, 1976, Wanganui
p683
aVDecember 21, 1977, Blenheim
p684
aVJanuary 17, 1974, Stratford
p685
aVNovember 21, 1971, New Plymouth
p686
aVApril 6, 1976, Thames
p687
aVFebruary 28, 1972, Lower Hutt
p688
aVSeptember 10, 1976, Hamilton
p689
aVNovember 14, 1979, Opunake
p690
aVJune 1, 1977, Putaruhu
p691
aVNovember 4, 1980, Apia, Western Samoa
p692
aVSeptember 5, 1978, Christchurch
p693
aVDecember 31, 1980, Oamaru
p694
aVNovember 29, 1980, Christchurch
p695
aVJuly 14, 1971, Christchurch
p696
aVMarch 26, 1979, Westport
p697
aVJanuary 6, 1974, Turangi
p698
aVMarch 1, 1973, Hastings
p699
aVJune 3, 1975, Christchurch
p700
aVApril 20, 1979, Dunedin
p701
aVDecember 1, 1980, Subiaco
p702
aVJuly 29, 1976, Christchurch
p703
aVDecember 21, 1976, Boggabri, NSW
p704
aVSeptember 13, 1978, Dunedin
p705
aVJuly 14, 1976, Huntly
p706
aVDecember 14, 1976, Te Aroha
p707
aVApril 30, 1981, Auckland
p708
aVMarch 1, 1976, Hastings
p709
aVJune 2, 1981, Auckland
p710
aVFebruary 13, 1981, Tauranga
p711
aVOctober 2, 1980, Cambridge
p712
aVMarch 20, 1979, Tokoroa
p713
aVOctober 3, 1979, Moto'otua, Western Samoa
p714
aVJanuary 27, 1981, Helensville
p715
aVJanuary 26, 1977, Paraparaumu
p716
aVMay 21, 1982, Wellington
p717
aVJune 6, 1983, Nadi
p718
aVJuly 31, 1980, Salesi, Western Samoa
p719
aVMarch 5, 1982, Leeston
p720
aVFebruary 3, 1975, Mosgiel
p721
aVJanuary 5, 1981, Invercargill
p722
aVMay 5, 1983, Auckland
p723
aVJanuary 22, 1977, Henderson
p724
aVAugust 14, 1980, Takapuna
p725
aVFebruary 1, 1982, Auckland
p726
aVJuly 27, 1979, Rotorua
p727
aVMarch 25, 1981, Auckland
p728
aVFebruary 26, 1978, Gisborne
p729
aVOctober 12, 1981, Hawera
p730
aVDecember 21, 1979, Ha'apai
p731
aVJanuary 16, 1980, Auckland
p732
aVMarch 6, 1982, Gore
p733
aVMay 3, 1982, Moto'otua, Western Samoa
p734
aVSeptember 7, 1983, Lower Hutt
p735
aVFebruary 10, 1983, Christchurch
p736
aVApril 19, 1982, Suva
p737
aVOctober 30, 1978, Hobart, TAS
p738
aVJuly 3, 1981, Apia, Western Samoa
p739
aVJanuary 7, 1980, Waipukarau
p740
aVJune 22, 1981, Ha'apai
p741
aVAugust 28, 1983, Waitara
p742
aVJuly 6, 1978, Auckland
p743
aVMay 15, 1979, Savai'i, Western Samoa
p744
aVJuly 15, 1982, Lower Hutt
p745
aVJanuary 12, 1981, Whangarei
p746
aVOctober 16, 1983, Auckland
p747
aVAugust 21, 1982, Palmerston North
p748
aVJanuary 15, 1986, Moto'otua, Western Samoa
p749
aVApril 22, 1980, Invercargill
p750
aVAugust 14, 1978, Durban
p751
aVApril 6, 1983, Faga'alu
p752
aVJuly 31, 1978, Blenheim
p753
aVMarch 4, 1980, Christchurch
p754
aVFebruary 21, 1984, Christchurch
p755
aVApril 16, 1985, Morrinsville
p756
aVApril 14, 1979, Lower Hutt
p757
aVSeptember 28, 1983, Apia, Western Samoa
p758
aVFebruary 12, 1982, Auckland
p759
aVMarch 13, 1982, Ashburton
p760
aVDecember 27, 1983, Auckland
p761
aVDecember 3, 1983, Papakura
p762
aVJune 9, 1985, Tokoroa
p763
aVFebruary 2, 1984, Auckland
p764
aVFebruary 24, 1982, Te Aroha
p765
aVMarch 16, 1984, Gisborne
p766
aVFebruary 8, 1983, Lower Hutt
p767
aVFebruary 20, 1985, Invercargill
p768
aVMarch 25, 1984, Blenheim
p769
aVOctober 26, 1985, Papakura
p770
aVOctober 27, 1984, Ashburton
p771
aVOctober 28, 1984, Hastings
p772
aVMay 6, 1986, Te Puke
p773
aVJanuary 24, 1983, Burwood
p774
aVAugust 30, 1986, Wellington
p775
aVSeptember 11, 1984, Palmerston North
p776
aVDecember 23, 1987, Motueka
p777
aVMarch 27, 1986, Palmerston North
p778
aVOctober 1, 1981, Rotorua
p779
aVFebruary 8, 1989, Greytown
p780
aVJune 15, 1982, Rotorua
p781
aVApril 1, 1983, Wellington
p782
aVJune 1, 1986, Dunedin
p783
aVJune 6, 1988, Marton
p784
aVMarch 27, 1984, Frankston, VIC
p785
aVSeptember 11, 1984, Wollongong, NSW
p786
aVJanuary 8, 1989, Palmerston North
p787
aVMarch 27, 1987, Wellington
p788
aVOctober 12, 1988, Palmerston North
p789
aVSeptember 30, 1986, Whangarei
p790
aVDecember 13, 1985, Hastings
p791
aVOctober 10, 1987, Burwood
p792
aVAugust 3, 1985, Auckland
p793
aVJanuary 22, 1986, Hastings
p794
aVDecember 12, 1982, Wellington
p795
aVMay 31, 1991, Rangiora
p796
aVAugust 7, 1990, Wellington
p797
aVNovember 21, 1988, Palmerston North
p798
aVJanuary 13, 1992, Rotorua
p799
aVFebruary 16, 1986, Nelson
p800
aVMay 27, 1991, New Plymouth
p801
aVDecember 24, 1986, South Auckland
p802
aVDecember 10, 1986, Wellington
p803
aVAugust 15, 1990, Altona, VIC
p804
aVJanuary 12, 1988, Auckland
p805
aVApril 19, 1985, Auckland
p806
aVApril 24, 1991, Auckland
p807
aVOctober 31, 1991, Auckland
p808
aVMarch 24, 1988, Christchurch
p809
aVSeptember 23, 1988, Nelson
p810
aVMarch 11, 1989, Christchurch
p811
aVFebruary 16, 1991, Auckland
p812
aVApril 9, 1991, Waipukurau
p813
aVMarch 6, 1988, Pangai
p814
aVNovember 19, 1990, Wellington
p815
aVJanuary 29, 1991, Palmerston North
p816
aVMay 10, 1992, Hihifo
p817
aVJanuary 23, 1992, Porirua
p818
aVJanuary 23, 1993, Auckland
p819
aVSeptember 18, 1988, Christchurch
p820
aVMarch 8, 1992, Tauranga
p821
aVJanuary 5, 1990, S Auckland
p822
aVNovember 27, 1986, Auckland
p823
aVNovember 5, 1990, Auckland
p824
aVNovember 6, 1991, Fagaalu
p825
aVAugust 17, 1990, Gisborne
p826
aVJanuary 17, 1991, Napier
p827
aVMay 8, 1991, Sigatoka
p828
aVMarch 31, 1991, Levin
p829
aVDecember 1, 1987, Kaitaia
p830
aVFebruary 3, 1991, Wellington
p831
aVDecember 15, 1990, Taihape
p832
a.