(lp1
VAustralia v New Zealand at Sydney, Aug 15, 1903
p2
aVAustralia v New Zealand at Sydney, Aug 15, 1903
p3
aVAustralia v New Zealand at Sydney, Aug 15, 1903
p4
aVAustralia v New Zealand at Sydney, Aug 15, 1903
p5
aVAustralia v New Zealand at Sydney, Aug 15, 1903
p6
aVAustralia v New Zealand at Sydney, Aug 15, 1903
p7
aVAustralia v New Zealand at Sydney, Aug 15, 1903
p8
aVAustralia v New Zealand at Sydney, Aug 15, 1903
p9
aVAustralia v New Zealand at Sydney, Aug 15, 1903
p10
aVAustralia v New Zealand at Sydney, Aug 15, 1903
p11
aVAustralia v New Zealand at Sydney, Aug 15, 1903
p12
aVAustralia v New Zealand at Sydney, Aug 15, 1903
p13
aVAustralia v New Zealand at Sydney, Aug 15, 1903
p14
aVAustralia v New Zealand at Sydney, Aug 15, 1903
p15
aVAustralia v New Zealand at Sydney, Aug 15, 1903
p16
aVNew Zealand v Great Britain at Wellington, Aug 13, 1904
p17
aVNew Zealand v Great Britain at Wellington, Aug 13, 1904
p18
aVNew Zealand v Great Britain at Wellington, Aug 13, 1904
p19
aVNew Zealand v Great Britain at Wellington, Aug 13, 1904
p20
aVNew Zealand v Great Britain at Wellington, Aug 13, 1904
p21
aVNew Zealand v Great Britain at Wellington, Aug 13, 1904
p22
aVNew Zealand v Great Britain at Wellington, Aug 13, 1904
p23
aVNew Zealand v Australia at Dunedin, Sep 2, 1905
p24
aVNew Zealand v Australia at Dunedin, Sep 2, 1905
p25
aVNew Zealand v Australia at Dunedin, Sep 2, 1905
p26
aVNew Zealand v Australia at Dunedin, Sep 2, 1905
p27
aVNew Zealand v Australia at Dunedin, Sep 2, 1905
p28
aVNew Zealand v Australia at Dunedin, Sep 2, 1905
p29
aVNew Zealand v Australia at Dunedin, Sep 2, 1905
p30
aVNew Zealand v Australia at Dunedin, Sep 2, 1905
p31
aVNew Zealand v Australia at Dunedin, Sep 2, 1905
p32
aVNew Zealand v Australia at Dunedin, Sep 2, 1905
p33
aVNew Zealand v Australia at Dunedin, Sep 2, 1905
p34
aVNew Zealand v Australia at Dunedin, Sep 2, 1905
p35
aVNew Zealand v Australia at Dunedin, Sep 2, 1905
p36
aVScotland v New Zealand at Inverleith, Nov 18, 1905
p37
aVScotland v New Zealand at Inverleith, Nov 18, 1905
p38
aVScotland v New Zealand at Inverleith, Nov 18, 1905
p39
aVScotland v New Zealand at Inverleith, Nov 18, 1905
p40
aVScotland v New Zealand at Inverleith, Nov 18, 1905
p41
aVScotland v New Zealand at Inverleith, Nov 18, 1905
p42
aVScotland v New Zealand at Inverleith, Nov 18, 1905
p43
aVScotland v New Zealand at Inverleith, Nov 18, 1905
p44
aVScotland v New Zealand at Inverleith, Nov 18, 1905
p45
aVScotland v New Zealand at Inverleith, Nov 18, 1905
p46
aVIreland v New Zealand at Lansdowne Road, Nov 25, 1905
p47
aVEngland v New Zealand at Crystal Palace, Dec 2, 1905
p48
aVFrance v New Zealand at Parc des Princes, Jan 1, 1906
p49
aVFrance v New Zealand at Parc des Princes, Jan 1, 1906
p50
aVFrance v New Zealand at Parc des Princes, Jan 1, 1906
p51
aVAustralia v New Zealand at Sydney, Jul 20, 1907
p52
aVAustralia v New Zealand at Sydney, Jul 20, 1907
p53
aVAustralia v New Zealand at Sydney, Jul 20, 1907
p54
aVAustralia v New Zealand at Sydney, Jul 20, 1907
p55
aVAustralia v New Zealand at Sydney, Jul 20, 1907
p56
aVNew Zealand v Anglo-Welsh at Dunedin, Jun 6, 1908
p57
aVNew Zealand v Anglo-Welsh at Dunedin, Jun 6, 1908
p58
aVNew Zealand v Anglo-Welsh at Dunedin, Jun 6, 1908
p59
aVNew Zealand v Anglo-Welsh at Wellington, Jun 27, 1908
p60
aVNew Zealand v Anglo-Welsh at Wellington, Jun 27, 1908
p61
aVNew Zealand v Anglo-Welsh at Wellington, Jun 27, 1908
p62
aVNew Zealand v Anglo-Welsh at Wellington, Jun 27, 1908
p63
aVNew Zealand v Anglo-Welsh at Wellington, Jun 27, 1908
p64
aVNew Zealand v Anglo-Welsh at Wellington, Jun 27, 1908
p65
aVNew Zealand v Anglo-Welsh at Auckland, Jul 25, 1908
p66
aVAustralia v New Zealand at Sydney, Jun 25, 1910
p67
aVAustralia v New Zealand at Sydney, Jun 25, 1910
p68
aVAustralia v New Zealand at Sydney, Jun 25, 1910
p69
aVAustralia v New Zealand at Sydney, Jun 25, 1910
p70
aVAustralia v New Zealand at Sydney, Jun 25, 1910
p71
aVAustralia v New Zealand at Sydney, Jun 25, 1910
p72
aVAustralia v New Zealand at Sydney, Jun 25, 1910
p73
aVAustralia v New Zealand at Sydney, Jun 25, 1910
p74
aVAustralia v New Zealand at Sydney, Jun 27, 1910
p75
aVAustralia v New Zealand at Sydney, Jun 27, 1910
p76
aVAustralia v New Zealand at Sydney, Jun 27, 1910
p77
aVNew Zealand v Australia at Wellington, Sep 6, 1913
p78
aVNew Zealand v Australia at Wellington, Sep 6, 1913
p79
aVNew Zealand v Australia at Wellington, Sep 6, 1913
p80
aVNew Zealand v Australia at Wellington, Sep 6, 1913
p81
aVNew Zealand v Australia at Wellington, Sep 6, 1913
p82
aVNew Zealand v Australia at Wellington, Sep 6, 1913
p83
aVNew Zealand v Australia at Wellington, Sep 6, 1913
p84
aVNew Zealand v Australia at Wellington, Sep 6, 1913
p85
aVNew Zealand v Australia at Wellington, Sep 6, 1913
p86
aVNew Zealand v Australia at Wellington, Sep 6, 1913
p87
aVNew Zealand v Australia at Wellington, Sep 6, 1913
p88
aVNew Zealand v Australia at Wellington, Sep 6, 1913
p89
aVNew Zealand v Australia at Wellington, Sep 6, 1913
p90
aVNew Zealand v Australia at Dunedin, Sep 13, 1913
p91
aVNew Zealand v Australia at Dunedin, Sep 13, 1913
p92
aVNew Zealand v Australia at Dunedin, Sep 13, 1913
p93
aVNew Zealand v Australia at Dunedin, Sep 13, 1913
p94
aVNew Zealand v Australia at Dunedin, Sep 13, 1913
p95
aVNew Zealand v Australia at Dunedin, Sep 13, 1913
p96
aVNew Zealand v Australia at Dunedin, Sep 13, 1913
p97
aVNew Zealand v Australia at Dunedin, Sep 13, 1913
p98
aVNew Zealand v Australia at Dunedin, Sep 13, 1913
p99
aVNew Zealand v Australia at Dunedin, Sep 13, 1913
p100
aVNew Zealand v Australia at Dunedin, Sep 13, 1913
p101
aVNew Zealand v Australia at Dunedin, Sep 13, 1913
p102
aVNew Zealand v Australia at Dunedin, Sep 13, 1913
p103
aVNew Zealand v Australia at Christchurch, Sep 20, 1913
p104
aVNew Zealand v Australia at Christchurch, Sep 20, 1913
p105
aVNew Zealand v Australia at Christchurch, Sep 20, 1913
p106
aVUnited States of America v New Zealand at Berkeley, Nov 15, 1913
p107
aVUnited States of America v New Zealand at Berkeley, Nov 15, 1913
p108
aVAustralia v New Zealand at Sydney, Jul 18, 1914
p109
aVAustralia v New Zealand at Sydney, Jul 18, 1914
p110
aVAustralia v New Zealand at Sydney, Jul 18, 1914
p111
aVAustralia v New Zealand at Sydney, Jul 18, 1914
p112
aVAustralia v New Zealand at Sydney, Jul 18, 1914
p113
aVNew Zealand v South Africa at Dunedin, Aug 13, 1921
p114
aVNew Zealand v South Africa at Dunedin, Aug 13, 1921
p115
aVNew Zealand v South Africa at Dunedin, Aug 13, 1921
p116
aVNew Zealand v South Africa at Dunedin, Aug 13, 1921
p117
aVNew Zealand v South Africa at Dunedin, Aug 13, 1921
p118
aVNew Zealand v South Africa at Dunedin, Aug 13, 1921
p119
aVNew Zealand v South Africa at Dunedin, Aug 13, 1921
p120
aVNew Zealand v South Africa at Dunedin, Aug 13, 1921
p121
aVNew Zealand v South Africa at Dunedin, Aug 13, 1921
p122
aVNew Zealand v South Africa at Dunedin, Aug 13, 1921
p123
aVNew Zealand v South Africa at Dunedin, Aug 13, 1921
p124
aVNew Zealand v South Africa at Dunedin, Aug 13, 1921
p125
aVNew Zealand v South Africa at Dunedin, Aug 13, 1921
p126
aVNew Zealand v South Africa at Dunedin, Aug 13, 1921
p127
aVNew Zealand v South Africa at Auckland, Aug 27, 1921
p128
aVNew Zealand v South Africa at Auckland, Aug 27, 1921
p129
aVNew Zealand v South Africa at Wellington, Sep 17, 1921
p130
aVNew Zealand v South Africa at Wellington, Sep 17, 1921
p131
aVNew Zealand v South Africa at Wellington, Sep 17, 1921
p132
aVNew Zealand v South Africa at Wellington, Sep 17, 1921
p133
aVIreland v New Zealand at Lansdowne Road, Nov 1, 1924
p134
aVIreland v New Zealand at Lansdowne Road, Nov 1, 1924
p135
aVIreland v New Zealand at Lansdowne Road, Nov 1, 1924
p136
aVIreland v New Zealand at Lansdowne Road, Nov 1, 1924
p137
aVIreland v New Zealand at Lansdowne Road, Nov 1, 1924
p138
aVIreland v New Zealand at Lansdowne Road, Nov 1, 1924
p139
aVIreland v New Zealand at Lansdowne Road, Nov 1, 1924
p140
aVIreland v New Zealand at Lansdowne Road, Nov 1, 1924
p141
aVIreland v New Zealand at Lansdowne Road, Nov 1, 1924
p142
aVIreland v New Zealand at Lansdowne Road, Nov 1, 1924
p143
aVIreland v New Zealand at Lansdowne Road, Nov 1, 1924
p144
aVIreland v New Zealand at Lansdowne Road, Nov 1, 1924
p145
aVWales v New Zealand at Swansea, Nov 29, 1924
p146
aVWales v New Zealand at Swansea, Nov 29, 1924
p147
aVWales v New Zealand at Swansea, Nov 29, 1924
p148
aVFrance v New Zealand at Toulouse, Jan 18, 1925
p149
aVSouth Africa v New Zealand at Durban, Jun 30, 1928
p150
aVSouth Africa v New Zealand at Durban, Jun 30, 1928
p151
aVSouth Africa v New Zealand at Durban, Jun 30, 1928
p152
aVSouth Africa v New Zealand at Durban, Jun 30, 1928
p153
aVSouth Africa v New Zealand at Durban, Jun 30, 1928
p154
aVSouth Africa v New Zealand at Durban, Jun 30, 1928
p155
aVSouth Africa v New Zealand at Durban, Jun 30, 1928
p156
aVSouth Africa v New Zealand at Durban, Jun 30, 1928
p157
aVSouth Africa v New Zealand at Durban, Jun 30, 1928
p158
aVSouth Africa v New Zealand at Durban, Jun 30, 1928
p159
aVSouth Africa v New Zealand at Durban, Jun 30, 1928
p160
aVSouth Africa v New Zealand at Durban, Jun 30, 1928
p161
aVSouth Africa v New Zealand at Durban, Jun 30, 1928
p162
aVSouth Africa v New Zealand at Johannesburg, Jul 21, 1928
p163
aVSouth Africa v New Zealand at Port Elizabeth, Aug 18, 1928
p164
aVSouth Africa v New Zealand at Cape Town, Sep 1, 1928
p165
aVAustralia v New Zealand at Sydney, Jul 6, 1929
p166
aVAustralia v New Zealand at Sydney, Jul 6, 1929
p167
aVAustralia v New Zealand at Sydney, Jul 6, 1929
p168
aVAustralia v New Zealand at Sydney, Jul 6, 1929
p169
aVAustralia v New Zealand at Sydney, Jul 6, 1929
p170
aVAustralia v New Zealand at Sydney, Jul 6, 1929
p171
aVAustralia v New Zealand at Sydney, Jul 6, 1929
p172
aVAustralia v New Zealand at Sydney, Jul 6, 1929
p173
aVAustralia v New Zealand at Sydney, Jul 6, 1929
p174
aVAustralia v New Zealand at Sydney, Jul 6, 1929
p175
aVAustralia v New Zealand at Sydney, Jul 6, 1929
p176
aVAustralia v New Zealand at Sydney, Jul 6, 1929
p177
aVAustralia v New Zealand at Brisbane, Jul 20, 1929
p178
aVAustralia v New Zealand at Brisbane, Jul 20, 1929
p179
aVAustralia v New Zealand at Brisbane, Jul 20, 1929
p180
aVAustralia v New Zealand at Sydney, Jul 27, 1929
p181
aVNew Zealand v Great Britain at Dunedin, Jun 21, 1930
p182
aVNew Zealand v Great Britain at Dunedin, Jun 21, 1930
p183
aVNew Zealand v Great Britain at Dunedin, Jun 21, 1930
p184
aVNew Zealand v Great Britain at Dunedin, Jun 21, 1930
p185
aVNew Zealand v Great Britain at Christchurch, Jul 5, 1930
p186
aVNew Zealand v Great Britain at Christchurch, Jul 5, 1930
p187
aVNew Zealand v Great Britain at Auckland, Jul 26, 1930
p188
aVNew Zealand v Australia at Auckland, Sep 12, 1931
p189
aVNew Zealand v Australia at Auckland, Sep 12, 1931
p190
aVNew Zealand v Australia at Auckland, Sep 12, 1931
p191
aVNew Zealand v Australia at Auckland, Sep 12, 1931
p192
aVNew Zealand v Australia at Auckland, Sep 12, 1931
p193
aVNew Zealand v Australia at Auckland, Sep 12, 1931
p194
aVNew Zealand v Australia at Auckland, Sep 12, 1931
p195
aVNew Zealand v Australia at Auckland, Sep 12, 1931
p196
aVAustralia v New Zealand at Sydney, Jul 2, 1932
p197
aVAustralia v New Zealand at Sydney, Jul 2, 1932
p198
aVAustralia v New Zealand at Sydney, Jul 2, 1932
p199
aVAustralia v New Zealand at Sydney, Jul 2, 1932
p200
aVAustralia v New Zealand at Sydney, Jul 2, 1932
p201
aVAustralia v New Zealand at Sydney, Jul 2, 1932
p202
aVAustralia v New Zealand at Brisbane, Jul 16, 1932
p203
aVAustralia v New Zealand at Brisbane, Jul 16, 1932
p204
aVAustralia v New Zealand at Brisbane, Jul 16, 1932
p205
aVAustralia v New Zealand at Sydney, Aug 11, 1934
p206
aVAustralia v New Zealand at Sydney, Aug 11, 1934
p207
aVAustralia v New Zealand at Sydney, Aug 11, 1934
p208
aVAustralia v New Zealand at Sydney, Aug 11, 1934
p209
aVAustralia v New Zealand at Sydney, Aug 25, 1934
p210
aVAustralia v New Zealand at Sydney, Aug 25, 1934
p211
aVAustralia v New Zealand at Sydney, Aug 25, 1934
p212
aVAustralia v New Zealand at Sydney, Aug 25, 1934
p213
aVAustralia v New Zealand at Sydney, Aug 25, 1934
p214
aVScotland v New Zealand at Murrayfield, Nov 23, 1935
p215
aVScotland v New Zealand at Murrayfield, Nov 23, 1935
p216
aVScotland v New Zealand at Murrayfield, Nov 23, 1935
p217
aVScotland v New Zealand at Murrayfield, Nov 23, 1935
p218
aVScotland v New Zealand at Murrayfield, Nov 23, 1935
p219
aVIreland v New Zealand at Lansdowne Road, Dec 7, 1935
p220
aVEngland v New Zealand at Twickenham, Jan 4, 1936
p221
aVNew Zealand v Australia at Wellington, Sep 5, 1936
p222
aVNew Zealand v Australia at Wellington, Sep 5, 1936
p223
aVNew Zealand v Australia at Wellington, Sep 5, 1936
p224
aVNew Zealand v Australia at Wellington, Sep 5, 1936
p225
aVNew Zealand v Australia at Wellington, Sep 5, 1936
p226
aVNew Zealand v Australia at Dunedin, Sep 12, 1936
p227
aVNew Zealand v Australia at Dunedin, Sep 12, 1936
p228
aVNew Zealand v South Africa at Wellington, Aug 14, 1937
p229
aVNew Zealand v South Africa at Wellington, Aug 14, 1937
p230
aVNew Zealand v South Africa at Wellington, Aug 14, 1937
p231
aVNew Zealand v South Africa at Wellington, Aug 14, 1937
p232
aVNew Zealand v South Africa at Wellington, Aug 14, 1937
p233
aVNew Zealand v South Africa at Wellington, Aug 14, 1937
p234
aVNew Zealand v South Africa at Wellington, Aug 14, 1937
p235
aVNew Zealand v South Africa at Wellington, Aug 14, 1937
p236
aVNew Zealand v South Africa at Christchurch, Sep 4, 1937
p237
aVAustralia v New Zealand at Sydney, Jul 23, 1938
p238
aVAustralia v New Zealand at Sydney, Jul 23, 1938
p239
aVAustralia v New Zealand at Sydney, Jul 23, 1938
p240
aVAustralia v New Zealand at Sydney, Jul 23, 1938
p241
aVAustralia v New Zealand at Sydney, Jul 23, 1938
p242
aVAustralia v New Zealand at Sydney, Jul 23, 1938
p243
aVAustralia v New Zealand at Sydney, Jul 23, 1938
p244
aVNew Zealand v Australia at Dunedin, Sep 14, 1946
p245
aVNew Zealand v Australia at Dunedin, Sep 14, 1946
p246
aVNew Zealand v Australia at Dunedin, Sep 14, 1946
p247
aVNew Zealand v Australia at Dunedin, Sep 14, 1946
p248
aVNew Zealand v Australia at Dunedin, Sep 14, 1946
p249
aVNew Zealand v Australia at Dunedin, Sep 14, 1946
p250
aVNew Zealand v Australia at Dunedin, Sep 14, 1946
p251
aVNew Zealand v Australia at Dunedin, Sep 14, 1946
p252
aVNew Zealand v Australia at Dunedin, Sep 14, 1946
p253
aVNew Zealand v Australia at Dunedin, Sep 14, 1946
p254
aVNew Zealand v Australia at Dunedin, Sep 14, 1946
p255
aVNew Zealand v Australia at Dunedin, Sep 14, 1946
p256
aVNew Zealand v Australia at Dunedin, Sep 14, 1946
p257
aVNew Zealand v Australia at Dunedin, Sep 14, 1946
p258
aVNew Zealand v Australia at Dunedin, Sep 14, 1946
p259
aVNew Zealand v Australia at Dunedin, Sep 14, 1946
p260
aVNew Zealand v Australia at Auckland, Sep 28, 1946
p261
aVNew Zealand v Australia at Auckland, Sep 28, 1946
p262
aVNew Zealand v Australia at Auckland, Sep 28, 1946
p263
aVAustralia v New Zealand at Brisbane, Jun 14, 1947
p264
aVAustralia v New Zealand at Brisbane, Jun 14, 1947
p265
aVAustralia v New Zealand at Brisbane, Jun 14, 1947
p266
aVAustralia v New Zealand at Brisbane, Jun 14, 1947
p267
aVAustralia v New Zealand at Brisbane, Jun 14, 1947
p268
aVAustralia v New Zealand at Brisbane, Jun 14, 1947
p269
aVAustralia v New Zealand at Brisbane, Jun 14, 1947
p270
aVAustralia v New Zealand at Brisbane, Jun 14, 1947
p271
aVAustralia v New Zealand at Sydney, Jun 28, 1947
p272
aVAustralia v New Zealand at Sydney, Jun 28, 1947
p273
aVSouth Africa v New Zealand at Cape Town, Jul 16, 1949
p274
aVSouth Africa v New Zealand at Cape Town, Jul 16, 1949
p275
aVSouth Africa v New Zealand at Cape Town, Jul 16, 1949
p276
aVSouth Africa v New Zealand at Cape Town, Jul 16, 1949
p277
aVSouth Africa v New Zealand at Cape Town, Jul 16, 1949
p278
aVSouth Africa v New Zealand at Johannesburg, Aug 13, 1949
p279
aVSouth Africa v New Zealand at Johannesburg, Aug 13, 1949
p280
aVNew Zealand v Australia at Wellington, Sep 3, 1949
p281
aVNew Zealand v Australia at Wellington, Sep 3, 1949
p282
aVNew Zealand v Australia at Wellington, Sep 3, 1949
p283
aVNew Zealand v Australia at Wellington, Sep 3, 1949
p284
aVNew Zealand v Australia at Wellington, Sep 3, 1949
p285
aVNew Zealand v Australia at Wellington, Sep 3, 1949
p286
aVNew Zealand v Australia at Wellington, Sep 3, 1949
p287
aVNew Zealand v Australia at Wellington, Sep 3, 1949
p288
aVNew Zealand v Australia at Wellington, Sep 3, 1949
p289
aVNew Zealand v Australia at Wellington, Sep 3, 1949
p290
aVNew Zealand v Australia at Wellington, Sep 3, 1949
p291
aVNew Zealand v Australia at Wellington, Sep 3, 1949
p292
aVNew Zealand v Australia at Wellington, Sep 3, 1949
p293
aVSouth Africa v New Zealand at Durban, Sep 3, 1949
p294
aVSouth Africa v New Zealand at Durban, Sep 3, 1949
p295
aVSouth Africa v New Zealand at Port Elizabeth, Sep 17, 1949
p296
aVSouth Africa v New Zealand at Port Elizabeth, Sep 17, 1949
p297
aVNew Zealand v Australia at Auckland, Sep 24, 1949
p298
aVNew Zealand v Australia at Auckland, Sep 24, 1949
p299
aVNew Zealand v Australia at Auckland, Sep 24, 1949
p300
aVNew Zealand v Australia at Auckland, Sep 24, 1949
p301
aVNew Zealand v Australia at Auckland, Sep 24, 1949
p302
aVNew Zealand v British and Irish Lions at Dunedin, May 27, 1950
p303
aVNew Zealand v British and Irish Lions at Dunedin, May 27, 1950
p304
aVNew Zealand v British and Irish Lions at Christchurch, Jun 10, 1950
p305
aVNew Zealand v British and Irish Lions at Auckland, Jul 29, 1950
p306
aVNew Zealand v British and Irish Lions at Auckland, Jul 29, 1950
p307
aVAustralia v New Zealand at Sydney, Jun 23, 1951
p308
aVAustralia v New Zealand at Sydney, Jun 23, 1951
p309
aVAustralia v New Zealand at Sydney, Jun 23, 1951
p310
aVAustralia v New Zealand at Sydney, Jun 23, 1951
p311
aVAustralia v New Zealand at Sydney, Jun 23, 1951
p312
aVAustralia v New Zealand at Sydney, Jun 23, 1951
p313
aVAustralia v New Zealand at Sydney, Jun 23, 1951
p314
aVAustralia v New Zealand at Sydney, Jun 23, 1951
p315
aVAustralia v New Zealand at Sydney, Jun 23, 1951
p316
aVAustralia v New Zealand at Brisbane, Jul 21, 1951
p317
aVNew Zealand v Australia at Christchurch, Sep 6, 1952
p318
aVNew Zealand v Australia at Christchurch, Sep 6, 1952
p319
aVNew Zealand v Australia at Christchurch, Sep 6, 1952
p320
aVNew Zealand v Australia at Christchurch, Sep 6, 1952
p321
aVNew Zealand v Australia at Christchurch, Sep 6, 1952
p322
aVNew Zealand v Australia at Christchurch, Sep 6, 1952
p323
aVNew Zealand v Australia at Christchurch, Sep 6, 1952
p324
aVNew Zealand v Australia at Christchurch, Sep 6, 1952
p325
aVNew Zealand v Australia at Wellington, Sep 13, 1952
p326
aVNew Zealand v Australia at Wellington, Sep 13, 1952
p327
aVNew Zealand v Australia at Wellington, Sep 13, 1952
p328
aVNew Zealand v Australia at Wellington, Sep 13, 1952
p329
aVNew Zealand v Australia at Wellington, Sep 13, 1952
p330
aVWales v New Zealand at Cardiff, Dec 19, 1953
p331
aVWales v New Zealand at Cardiff, Dec 19, 1953
p332
aVWales v New Zealand at Cardiff, Dec 19, 1953
p333
aVWales v New Zealand at Cardiff, Dec 19, 1953
p334
aVWales v New Zealand at Cardiff, Dec 19, 1953
p335
aVIreland v New Zealand at Lansdowne Road, Jan 9, 1954
p336
aVIreland v New Zealand at Lansdowne Road, Jan 9, 1954
p337
aVIreland v New Zealand at Lansdowne Road, Jan 9, 1954
p338
aVIreland v New Zealand at Lansdowne Road, Jan 9, 1954
p339
aVIreland v New Zealand at Lansdowne Road, Jan 9, 1954
p340
aVEngland v New Zealand at Twickenham, Jan 30, 1954
p341
aVEngland v New Zealand at Twickenham, Jan 30, 1954
p342
aVNew Zealand v Australia at Wellington, Aug 20, 1955
p343
aVNew Zealand v Australia at Wellington, Aug 20, 1955
p344
aVNew Zealand v Australia at Wellington, Aug 20, 1955
p345
aVNew Zealand v Australia at Wellington, Aug 20, 1955
p346
aVNew Zealand v Australia at Wellington, Aug 20, 1955
p347
aVNew Zealand v Australia at Wellington, Aug 20, 1955
p348
aVNew Zealand v Australia at Wellington, Aug 20, 1955
p349
aVNew Zealand v Australia at Wellington, Aug 20, 1955
p350
aVNew Zealand v Australia at Dunedin, Sep 3, 1955
p351
aVNew Zealand v Australia at Dunedin, Sep 3, 1955
p352
aVNew Zealand v Australia at Auckland, Sep 17, 1955
p353
aVNew Zealand v Australia at Auckland, Sep 17, 1955
p354
aVNew Zealand v Australia at Auckland, Sep 17, 1955
p355
aVNew Zealand v South Africa at Dunedin, Jul 14, 1956
p356
aVNew Zealand v South Africa at Dunedin, Jul 14, 1956
p357
aVNew Zealand v South Africa at Wellington, Aug 4, 1956
p358
aVNew Zealand v South Africa at Wellington, Aug 4, 1956
p359
aVNew Zealand v South Africa at Wellington, Aug 4, 1956
p360
aVNew Zealand v South Africa at Christchurch, Aug 18, 1956
p361
aVAustralia v New Zealand at Sydney, May 25, 1957
p362
aVAustralia v New Zealand at Sydney, May 25, 1957
p363
aVAustralia v New Zealand at Sydney, May 25, 1957
p364
aVAustralia v New Zealand at Sydney, May 25, 1957
p365
aVNew Zealand v Australia at Wellington, Aug 23, 1958
p366
aVNew Zealand v Australia at Wellington, Aug 23, 1958
p367
aVNew Zealand v Australia at Wellington, Aug 23, 1958
p368
aVNew Zealand v Australia at Christchurch, Sep 6, 1958
p369
aVNew Zealand v Australia at Christchurch, Sep 6, 1958
p370
aVNew Zealand v Australia at Christchurch, Sep 6, 1958
p371
aVNew Zealand v Australia at Auckland, Sep 20, 1958
p372
aVNew Zealand v Australia at Auckland, Sep 20, 1958
p373
aVNew Zealand v British and Irish Lions at Dunedin, Jul 18, 1959
p374
aVNew Zealand v British and Irish Lions at Dunedin, Jul 18, 1959
p375
aVNew Zealand v British and Irish Lions at Dunedin, Jul 18, 1959
p376
aVNew Zealand v British and Irish Lions at Wellington, Aug 15, 1959
p377
aVNew Zealand v British and Irish Lions at Wellington, Aug 15, 1959
p378
aVNew Zealand v British and Irish Lions at Wellington, Aug 15, 1959
p379
aVNew Zealand v British and Irish Lions at Wellington, Aug 15, 1959
p380
aVNew Zealand v British and Irish Lions at Wellington, Aug 15, 1959
p381
aVNew Zealand v British and Irish Lions at Wellington, Aug 15, 1959
p382
aVNew Zealand v British and Irish Lions at Wellington, Aug 15, 1959
p383
aVSouth Africa v New Zealand at Johannesburg, Jun 25, 1960
p384
aVSouth Africa v New Zealand at Cape Town, Jul 23, 1960
p385
aVSouth Africa v New Zealand at Cape Town, Jul 23, 1960
p386
aVSouth Africa v New Zealand at Cape Town, Jul 23, 1960
p387
aVSouth Africa v New Zealand at Port Elizabeth, Aug 27, 1960
p388
aVWales v Australia at Cardiff, Jan 4, 1958
p389
aVNew Zealand v France at Auckland, Jul 22, 1961
p390
aVNew Zealand v France at Auckland, Jul 22, 1961
p391
aVNew Zealand v France at Auckland, Jul 22, 1961
p392
aVNew Zealand v France at Auckland, Jul 22, 1961
p393
aVNew Zealand v France at Wellington, Aug 5, 1961
p394
aVAustralia v New Zealand at Brisbane, May 26, 1962
p395
aVAustralia v New Zealand at Brisbane, May 26, 1962
p396
aVAustralia v New Zealand at Brisbane, May 26, 1962
p397
aVNew Zealand v Australia at Wellington, Aug 25, 1962
p398
aVNew Zealand v Australia at Wellington, Aug 25, 1962
p399
aVNew Zealand v Australia at Dunedin, Sep 8, 1962
p400
aVNew Zealand v Australia at Dunedin, Sep 8, 1962
p401
aVNew Zealand v Australia at Dunedin, Sep 8, 1962
p402
aVNew Zealand v Australia at Auckland, Sep 22, 1962
p403
aVNew Zealand v Australia at Auckland, Sep 22, 1962
p404
aVNew Zealand v England at Auckland, May 25, 1963
p405
aVNew Zealand v England at Auckland, May 25, 1963
p406
aVIreland v New Zealand at Lansdowne Road, Dec 7, 1963
p407
aVIreland v New Zealand at Lansdowne Road, Dec 7, 1963
p408
aVIreland v New Zealand at Lansdowne Road, Dec 7, 1963
p409
aVEngland v New Zealand at Twickenham, Jan 4, 1964
p410
aVFrance v New Zealand at Colombes, Feb 8, 1964
p411
aVNew Zealand v Australia at Dunedin, Aug 15, 1964
p412
aVNew Zealand v Australia at Dunedin, Aug 15, 1964
p413
aVNew Zealand v Australia at Dunedin, Aug 15, 1964
p414
aVNew Zealand v Australia at Dunedin, Aug 15, 1964
p415
aVNew Zealand v Australia at Dunedin, Aug 15, 1964
p416
aVNew Zealand v Australia at Christchurch, Aug 22, 1964
p417
aVNew Zealand v Australia at Christchurch, Aug 22, 1964
p418
aVNew Zealand v South Africa at Wellington, Jul 31, 1965
p419
aVNew Zealand v South Africa at Auckland, Sep 18, 1965
p420
aVNew Zealand v British and Irish Lions at Dunedin, Jul 16, 1966
p421
aVNew Zealand v British and Irish Lions at Dunedin, Jul 16, 1966
p422
aVNew Zealand v British and Irish Lions at Dunedin, Jul 16, 1966
p423
aVNew Zealand v Australia at Wellington, Aug 19, 1967
p424
aVNew Zealand v Australia at Wellington, Aug 19, 1967
p425
aVNew Zealand v Australia at Wellington, Aug 19, 1967
p426
aVNew Zealand v Australia at Wellington, Aug 19, 1967
p427
aVNew Zealand v Australia at Wellington, Aug 19, 1967
p428
aVEngland v New Zealand at Twickenham, Nov 4, 1967
p429
aVEngland v New Zealand at Twickenham, Nov 4, 1967
p430
aVFrance v New Zealand at Colombes, Nov 25, 1967
p431
aVScotland v New Zealand at Murrayfield, Dec 2, 1967
p432
aVAustralia v New Zealand at Sydney, Jun 15, 1968
p433
aVAustralia v New Zealand at Sydney, Jun 15, 1968
p434
aVAustralia v New Zealand at Sydney, Jun 15, 1968
p435
aVAustralia v New Zealand at Brisbane, Jun 22, 1968
p436
aVNew Zealand v France at Christchurch, Jul 13, 1968
p437
aVNew Zealand v France at Auckland, Aug 10, 1968
p438
aVNew Zealand v Wales at Christchurch, May 31, 1969
p439
aVNew Zealand v Wales at Auckland, Jun 14, 1969
p440
aVSouth Africa v New Zealand at Pretoria, Jul 25, 1970
p441
aVSouth Africa v New Zealand at Cape Town, Aug 8, 1970
p442
aVSouth Africa v New Zealand at Cape Town, Aug 8, 1970
p443
aVSouth Africa v New Zealand at Port Elizabeth, Aug 29, 1970
p444
aVSouth Africa v New Zealand at Port Elizabeth, Aug 29, 1970
p445
a.