(lp1
S'Opai Asher'
p2
aS'Reuben Cooke'
p3
aS'Jimmy Duncan'
p4
aS'Bernard Fanning'
p5
aS'David Gallaher'
p6
aS'Mickey Kiernan'
p7
aS'Paddy Long'
p8
aS'Duncan McGregor'
p9
aS'Dick McGregor'
p10
aS'Archie McMinn'
p11
aS'George Nicholson'
p12
aS'Bubs Tyler'
p13
aS'Daniel Udy'
p14
aS'Carbine Wallace'
p15
aS'Maurice Wood'
p16
aS'Tom Cross'
p17
aS'Billy Glenn'
p18
aS'Eric Harper'
p19
aS'Peter Harvey'
p20
aS'Paddy McMinn'
p21
aS'Bronco Seeling'
p22
aS'Billy Stead'
p23
aS'Rob Bennet'
p24
aS'Jerry Burgess'
p25
aS'Ernie Dodd'
p26
aS'Bolla Francis'
p27
aS'Colin Gilray'
p28
aS'Donald Macpherson'
p29
aS'Charles Purdue'
p30
aS'Pat Purdue'
p31
aS'Bill Smith'
p32
aS'John Spencer'
p33
aS'Hubert Turtill'
p34
aS'Eric Watkins'
p35
aS'Edgar Wrigley'
p36
aS'Steve Casey'
p37
aS'Bill Cunningham'
p38
aS'Bob Deans'
p39
aS'George Gillett'
p40
aS'Francis Glasgow'
p41
aS'Jimmy Hunter'
p42
aS'Alex McDonald'
p43
aS"Jimmy O'Sullivan"
p44
aS'Fred Roberts'
p45
aS'George Smith'
p46
aS'Simon Mynott'
p47
aS'Fred Newton'
p48
aS'Bunny Abbott'
p49
aS'Ernest Booth'
p50
aS'Bill Mackrell'
p51
aS'Ginger Colman'
p52
aS'Frank Fryer'
p53
aS'Ned Hughes'
p54
aS'Massa Johnston'
p55
aS'Frank Mitchinson'
p56
aS'Don Cameron'
p57
aS'Mona Thomson'
p58
aS'Ranji Wilson'
p59
aS'Paddy Burns'
p60
aS'Doddy Gray'
p61
aS'Don Hamilton'
p62
aS'Peter Murray'
p63
aS'Sandy Paterson'
p64
aS'Bill Reedy'
p65
aS'Circus Hayward'
p66
aS'Henry Avery'
p67
aS'William Fuller'
p68
aS'Gerald McKellar'
p69
aS'James Maguire'
p70
aS"Joe O'Leary"
p71
aS'Henry Paton'
p72
aS'Jimmy Ridland'
p73
aS'Jack Stohr'
p74
aS'Dave Evans'
p75
aS'Billy Mitchell'
p76
aS'James Ryan'
p77
aS'Harry Atkinson'
p78
aS'Jock Cuthill'
p79
aS'Norkey Dewar'
p80
aS'Doolan Downing'
p81
aS'Tiger Lynch'
p82
aS'Dougie McGregor'
p83
aS'Jock McKenzie'
p84
aS'Toby Murray'
p85
aS'Dick Roberts'
p86
aS'George Sellars'
p87
aS'Harry Taylor'
p88
aS'Peter Williams'
p89
aS'Jim Wylie'
p90
aS'James Baird'
p91
aS'Buster Barrett'
p92
aS'Charles Brown'
p93
aS'William Cummings'
p94
aS'William Francis'
p95
aS'William Geddes'
p96
aS'Charles Gillespie'
p97
aS'Edward Hasell'
p98
aS'John Macky'
p99
aS'Jim McNeece'
p100
aS'Augustine Spillane'
p101
aS'James Stewart'
p102
aS'Reginald Taylor'
p103
aS'Eric Cockroft'
p104
aS'Alfred Fanning'
p105
aS'James Tilyard'
p106
aS'Michael Cain'
p107
aS'James Graham'
p108
aS'Robert Black'
p109
aS'John Bruce'
p110
aS'Sal Irvine'
p111
aS"John O'Brien"
p112
aS'Teddy Roberts'
p113
aS'George Aitken'
p114
aS'Cecil Badeley'
p115
aS'Moke Belliss'
p116
aS'Jim Donald'
p117
aS'Bill Duncan'
p118
aS'Richard Fogarty'
p119
aS'Nipper Kingstone'
p120
aS'Jim Moffitt'
p121
aS'Ginger Nicholls'
p122
aS'Mark Nicholls'
p123
aS'Jock Richardson'
p124
aS'John Steel'
p125
aS'Percival Storey'
p126
aS'Son White'
p127
aS'Andrew McLean'
p128
aS'Alfred West'
p129
aS'Billy Fea'
p130
aS'Charles Fletcher'
p131
aS'Karl Ifwersen'
p132
aS'Stanley Siddells'
p133
aS'Maurice Brownlie'
p134
aS'Bert Cooke'
p135
aS'Les Cupples'
p136
aS'Bill Dalley'
p137
aS'Quentin Donald'
p138
aS'Augustine Hart'
p139
aS'Bull Irvine'
p140
aS'Fred Lucas'
p141
aS'Read Masters'
p142
aS'George Nepia'
p143
aS'James Parker'
p144
aS'Snowy Svenson'
p145
aS'Cyril Brownlie'
p146
aS'Neil McGregor'
p147
aS'Jimmy Mill'
p148
aS'Cliff Porter'
p149
aS'Geoff Alley'
p150
aS'Syd Carleton'
p151
aS'Bunny Finlayson'
p152
aS'Bert Grenside'
p153
aS'Swin Hadley'
p154
aS'Bill Hazlett'
p155
aS'Lance Johnson'
p156
aS'David Lindsay'
p157
aS'Alan Robilliard'
p158
aS'George Scrimshaw'
p159
aS'Ron Stewart'
p160
aS'Archie Strang'
p161
aS'Tuna Swain'
p162
aS'Reuben McWilliams'
p163
aS'Herb Lilburne'
p164
aS'Ian Harvey'
p165
aS'Beau Cottrell'
p166
aS'Bert Geddes'
p167
aS'Bill Heke'
p168
aS'Lew Hook'
p169
aS'Charlie Oliver'
p170
aS'Keith Reid'
p171
aS'Wattie Reside'
p172
aS'Fritz Snow'
p173
aS'Charlie Sonntag'
p174
aS'Jack Tuck'
p175
aS'Alfred Waterman'
p176
aS'Clinton Stringfellow'
p177
aS'Alfred Kivell'
p178
aS'Bert Palmer'
p179
aS'Rawi Cundy'
p180
aS'Tiny Leys'
p181
aS'Walter Batty'
p182
aS'George Hart'
p183
aS'Don Oliver'
p184
aS'Dick Steere'
p185
aS'Merv Corner'
p186
aS'John Hore'
p187
aS'Hugh McLean'
p188
aS'Kelly Ball'
p189
aS'Ron Bush'
p190
aS'Ted Jessep'
p191
aS'Don Max'
p192
aS'Tom Metcalfe'
p193
aS'Rusty Page'
p194
aS'George Purdue'
p195
aS'Frank Solomon'
p196
aS'George Bullock-Douglas'
p197
aS'Pat Caughey'
p198
aS'Frank Kilby'
p199
aS'Jack Manchester'
p200
aS'Bunk Pollock'
p201
aS'Joe Procter'
p202
aS'Ray Clarke'
p203
aS'Arthur Collins'
p204
aS'Gordon Innes'
p205
aS'Bill Hadley'
p206
aS'Bubs Knight'
p207
aS'Arthur Lambourn'
p208
aS'Roderick McKenzie'
p209
aS'Ned Barry'
p210
aS'Jack Griffiths'
p211
aS'Edward Holder'
p212
aS'Ron King'
p213
aS'Hawea Mataira'
p214
aS'Mike Gilbert'
p215
aS'Tonk Mahoney'
p216
aS'Brushy Mitchell'
p217
aS'Tori Reid'
p218
aS'Joey Sadler'
p219
aS'Doug Dalton'
p220
aS'Snowy Tindill'
p221
aS'Everard Jackson'
p222
aS'Shorty Killeen'
p223
aS'John Rankin'
p224
aS'Jim Watt'
p225
aS'Jock Wells'
p226
aS'Colin Gillies'
p227
aS'Ronald Ward'
p228
aS'Donald Cobden'
p229
aS'John Dick'
p230
aS'John Hooper'
p231
aS'Allan Parkhill'
p232
aS'Harold Simon'
p233
aS'John Sullivan'
p234
aS'John Taylor'
p235
aS'David Trevathan'
p236
aS'Bill Phillips'
p237
aS'Trevor Berghan'
p238
aS'Snow Bowman'
p239
aS'Les George'
p240
aS'Harold Milliken'
p241
aS'Thomas Morrison'
p242
aS'Charlie Quaid'
p243
aS'Charlie Saxton'
p244
aS'Fred Allen'
p245
aS'Wally Argus'
p246
aS'Has Catley'
p247
aS'John Dunn'
p248
aS'Ken Elliott'
p249
aS'Ron Elvidge'
p250
aS'Jack Finlay'
p251
aS'Harry Frazer'
p252
aS'Jimmy Haig'
p253
aS'Maurice McHugh'
p254
aS'Pat Rhind'
p255
aS'Bob Scott'
p256
aS'John Smith'
p257
aS'Roy White'
p258
aS'Charlie Willocks'
p259
aS'John McRae'
p260
aS'Eric Boggs'
p261
aS'Alf Budd'
p262
aS'Maurice Goddard'
p263
aS'Keith Arnold'
p264
aS'Ben Couch'
p265
aS'Ray Dalton'
p266
aS'Lachie Grant'
p267
aS'John McLean'
p268
aS'Johnny Simpson'
p269
aS'Percy Tetzlaff'
p270
aS'Neville Thornton'
p271
aS'Jim Kearney'
p272
aS'Tim Mason'
p273
aS'Lester Harvey'
p274
aS'Sammy Henderson'
p275
aS'Jack McNab'
p276
aS'Laurence Savage'
p277
aS'Kevin Skinner'
p278
aS'Peter Johnstone'
p279
aS'Bill Meates'
p280
aS'Vince Bevan'
p281
aS'Kiwi Blake'
p282
aS'Ron Bryers'
p283
aS'Ronald Dobson'
p284
aS'Arthur Hughes'
p285
aS'Jack Kelly'
p286
aS'Bert Lunn'
p287
aS'Graham Moore'
p288
aS'Bill Mumm'
p289
aS'Rex Orr'
p290
aS'Bob Stuart'
p291
aS'Tiny White'
p292
aS'Hector Wilson'
p293
aS'Neville Black'
p294
aS'Pat Crowley'
p295
aS'Des Christian'
p296
aS'Red Delamore'
p297
aS'Jack Bond'
p298
aS"Ray O'Callaghan"
p299
aS"Des O'Donnell"
p300
aS'Roy Roper'
p301
aS'Harry Rowley'
p302
aS'George Beatty'
p303
aS'Brownie Cherrington'
p304
aS'Laurie Haig'
p305
aS'Graham Mexted'
p306
aS'John Tanner'
p307
aS'Snow Cockerill'
p308
aS'Bob Duff'
p309
aS'Percy Erceg'
p310
aS'Ron Jarden'
p311
aS'Thomas Lynch'
p312
aS'Bill McCaw'
p313
aS'Eddie Robinson'
p314
aS'Leo Steele'
p315
aS'Norman Wilson'
p316
aS'Raymond Bell'
p317
aS'Peter Eastgate'
p318
aS'Allan Elsom'
p319
aS'Jim Fitzgerald'
p320
aS'John Hotop'
p321
aS'Ian Irvine'
p322
aS'Hugh McLaren'
p323
aS'Kevin Meates'
p324
aS'Ponty Reid'
p325
aS'Noel Bowden'
p326
aS'Mick Bremner'
p327
aS'Keith Davis'
p328
aS'Ian Hammond'
p329
aS'Jack Skeen'
p330
aS'Bill Clark'
p331
aS'Ian Clarke'
p332
aS'Nelson Dalzell'
p333
aS'Brian Fitzpatrick'
p334
aS'Ron Hemi'
p335
aS'Richard Bowers'
p336
aS'Morrie Dixon'
p337
aS'Colin Loader'
p338
aS'Desmond Oliver'
p339
aS'Snow White'
p340
aS'Tiger Hilton-Jones'
p341
aS'Douglas Wilson'
p342
aS'Robin Archer'
p343
aS'Peter Burke'
p344
aS'Mark Irwin'
p345
aS'Ross Smith'
p346
aS'Kevin Stuart'
p347
aS'Lindsay Townsend'
p348
aS'Ivan Vodanovich'
p349
aS'Pat Walsh'
p350
aS'Bill Gray'
p351
aS'Tom Katene'
p352
aS'Ross Brown'
p353
aS'John Buxton'
p354
aS'Tiny Hill'
p355
aS'Donald McIntosh'
p356
aS'Patrick Vincent'
p357
aS'Francis McAtamney'
p358
aS'Ian MacEwan'
p359
aS'Denis Young'
p360
aS'Don Clarke'
p361
aS'Terry Lineen'
p362
aS'Frank McMullen'
p363
aS'Colin Meads'
p364
aS'Wilson Whineray'
p365
aS'Mick Cossey'
p366
aS'Tom Coughlan'
p367
aS'David Graham'
p368
aS'Lloyd Ashby'
p369
aS'Rex Pickering'
p370
aS'Russell Watt'
p371
aS'Adrian Clarke'
p372
aS'William Gillespie'
p373
aS'Brian Finlay'
p374
aS'Bruce McPhail'
p375
aS'Spider Urbahn'
p376
aS'Kevin Briscoe'
p377
aS'Ralph Caulton'
p378
aS'Dick Conway'
p379
aS'Tuppy Diack'
p380
aS'John McCullough'
p381
aS'Kel Tremain'
p382
aS'Des Webb'
p383
aS"Terry O'Sullivan"
p384
aS'Ronald Horsley'
p385
aS'Kevin Laidlaw'
p386
aS'Steve Nesbit'
p387
aS'Tony Davies'
p388
aS'Desmond Connor'
p389
aS'Donald McKay'
p390
aS'Stan Meads'
p391
aS'Neil Wolfe'
p392
aS'Vic Yates'
p393
aS'Paul Little'
p394
aS'Rod Heeps'
p395
aS'Waka Nathan'
p396
aS'Bruce Watt'
p397
aS'Raymond Moreton'
p398
aS'Peter Morrissey'
p399
aS'John Creighton'
p400
aS'Jules le Lievre'
p401
aS'Keith Nelson'
p402
aS'Mac Herewini'
p403
aS'Barry Thomas'
p404
aS'Allan Stewart'
p405
aS'Ian Uttley'
p406
aS'Derek Arnold'
p407
aS'Malcolm Dick'
p408
aS'Ken Gray'
p409
aS'Brian Lochore'
p410
aS'Chris Laidlaw'
p411
aS'Don Clark'
p412
aS'John Collins'
p413
aS'Bruce McLeod'
p414
aS'Spooky Smith'
p415
aS'Mick Williment'
p416
aS'Peter Murdoch'
p417
aS'Ron Rangi'
p418
aS'Bill Birtwistle'
p419
aS'Fergie McCormick'
p420
aS'Jack Hazlett'
p421
aS'Ian MacRae'
p422
aS'Anthony Steel'
p423
aS'Bill Davis'
p424
aS'Sid Going'
p425
aS'John Major'
p426
aS'Jazz Muller'
p427
aS'Sam Strahan'
p428
aS'Earle Kirton'
p429
aS'Graham Williams'
p430
aS'Ian Kirkpatrick'
p431
aS'Alister Hopkinson'
p432
aS'Wayne Cottrell'
p433
aS'Tom Lister'
p434
aS'Grahame Thorne'
p435
aS'Anthony Kreft'
p436
aS"Michael O'Callaghan"
p437
aS'Owen Stephens'
p438
aS'Alan Smith'
p439
aS'George Skudder'
p440
aS'Bryan Williams'
p441
aS'Alan Sutherland'
p442
aS'Alex Wyllie'
p443
aS'Buff Milner'
p444
aS'Neil Thimbleby'
p445
aS'Ron Urlich'
p446
aS'Blair Furlong'
p447
aS'Gerald Kember'
p448
aS'Keith Murdoch'
p449
aS'Bob Burgess'
p450
aS'Ken Carrington'
p451
aS'Richard Guy'
p452
aS'Bruce Hunter'
p453
aS'Alan McNaughton'
p454
aS'Tane Norton'
p455
aS'Pole Whiting'
p456
aS'Howard Joseph'
p457
aS'Laurie Mains'
p458
aS'Mick Duncan'
p459
aS'Phil Gard'
p460
aS'John Dougan'
p461
aS'Duncan Hales'
p462
aS'Jeff Matheson'
p463
aS'Trevor Morris'
p464
aS'Mike Parkinson'
p465
aS'Bruce Robertson'
p466
aS'Alistair Scown'
p467
aS'Graham Whiting'
p468
aS'Lyn Jaffray'
p469
aS'Graham Sims'
p470
aS'Grant Batty'
p471
aS'Joe Karam'
p472
aS'Hamish Macdonald'
p473
aS'Ian Stevens'
p474
aS'Kent Lambert'
p475
aS'Ian Hurst'
p476
aS'Murray Jones'
p477
aS'Robert Lendrum'
p478
aS'Ken Stewart'
p479
aS'Terry Morrison'
p480
aS'Billy Bush'
p481
aS'John Callesen'
p482
aS'Bruce Gemmell'
p483
aS'Andy Leslie'
p484
aS'Duncan Robertson'
p485
aS'Kerry Tanner'
p486
aS'Jon McLachlan'
p487
aS'Ash Gardiner'
p488
aS'Joe Morgan'
p489
aS'Bill Osborne'
p490
aS'Lyn Davis'
p491
aS'Neil Purvis'
p492
aS'Doug Bruce'
p493
aS'Kevin Everleigh'
p494
aS'Kit Fawcett'
p495
aS'Brad Johnstone'
p496
aS'Perry Harris'
p497
aS'Frank Oliver'
p498
aS'Terry Mitchell'
p499
aS'Colin Farrell'
p500
aS'Andy Haden'
p501
aS'Laurie Knight'
p502
aS'Mark Taylor'
p503
aS'Brian Ford'
p504
aS'John McEldowney'
p505
aS'Graham Mourie'
p506
aS'Bev Wilson'
p507
aS'John Black'
p508
aS'Mark Donaldson'
p509
aS'Gary Knight'
p510
aS'Brian McKechnie'
p511
aS'Gary Seear'
p512
aS'Stu Wilson'
p513
aS'Robbie Stuart'
p514
aS'Andy Dalton'
p515
aS'Barry Ashworth'
p516
aS'John Ashworth'
p517
aS'Leicester Rutledge'
p518
aS'Dick Myers'
p519
aS'Clive Currie'
p520
aS'Dave Loveridge'
p521
aS'Murray Taylor'
p522
aS'Murray Watts'
p523
aS'Wayne Graham'
p524
aS'Gary Cunningham'
p525
aS'Mike McCool'
p526
aS'Eddie Dunn'
p527
aS'John Fleming'
p528
aS'Bernie Fraser'
p529
aS'Murray Mexted'
p530
aS'John Spiers'
p531
aS'Richard Wilson'
p532
aS'Peter Sloane'
p533
aS'Brett Codlin'
p534
aS'Hika Reid'
p535
aS'Mark Shaw'
p536
aS'Wayne Smith'
p537
aS'Tim Twigden'
p538
aS'Nicky Allen'
p539
aS'Lachie Cameron'
p540
aS'Geoffrey Hines'
p541
aS'Graeme Higginson'
p542
aS'Rod Ketels'
p543
aS'Doug Rollerson'
p544
aS'Allan Hewson'
p545
aS'Andy Jefferd'
p546
aS'Haydn Rickit'
p547
aS'Freddy Woodman'
p548
aS'Greg Burgess'
p549
aS'Geoff Old'
p550
aS'Steve Pokere'
p551
aS'Frank Shelford'
p552
aS'Gary Whetton'
p553
aS'Jamie Salmon'
p554
aS'Arthur Stone'
p555
aS'Paul Koteka'
p556
aS'Ian Dunn'
p557
aS'Jock Hobbs'
p558
aS'Warwick Taylor'
p559
aS'Albert Anderson'
p560
aS'Gary Braid'
p561
aS'Scott Crichton'
p562
aS'Robbie Deans'
p563
aS'Andy Donald'
p564
aS'Brian McGrattan'
p565
aS'Craig Green'
p566
aS'Murray Davie'
p567
aS'John Kirwan'
p568
aS'Bruce Smith'
p569
aS'Alan Whetton'
p570
aS'Mike Clamp'
p571
aS'Kieran Crowley'
p572
aS'David Kirk'
p573
aS'Murray Pierce'
p574
aS'Grant Fox'
p575
aS'Steve McDowall'
p576
aS'Vic Simpson'
p577
aS'Kevin Boroevich'
p578
aS'Frano Botica'
p579
aS'Mike Brewer'
p580
aS'Mark Brooke-Cowden'
p581
aS'Greg Cooper'
p582
aS'Andy Earl'
p583
aS'Sean Fitzpatrick'
p584
aS'Brett Harvey'
p585
aS'Gordon Macpherson'
p586
aS'Joe Stanley'
p587
aS'Terry Wright'
p588
aS'Brent Anderson'
p589
aS'Michael Speight'
p590
aS'Marty Berry'
p591
aS'John Drake'
p592
aS'Buck Shelford'
p593
aS'John Gallagher'
p594
aS'Michael Jones'
p595
aS'Richard Loe'
p596
aS'Zinzan Brooke'
p597
aS'Bernie McCahill'
p598
aS'Bruce Deans'
p599
aS'John Schuster'
p600
aS'Graeme Bachop'
p601
aS'Craig Innes'
p602
aS'Ian Jones'
p603
aS'Walter Little'
p604
aS'Kevin Schuler'
p605
aS'Paul Henderson'
p606
aS'John Timu'
p607
aS'Mark Carter'
p608
aS'Jon Preston'
p609
aS'Graham Purvis'
p610
aS'Inga Tuigamala'
p611
aS'Jason Hewett'
p612
aS'Shayne Philpott'
p613
aS'Frank Bunce'
p614
aS'Mark Cooksley'
p615
aS'Richard Turner'
p616
aS'Arran Pene'
p617
aS'Eroni Clarke'
p618
aS'Jamie Joseph'
p619
aS'Blair Larsen'
p620
aS'Ant Strachan'
p621
aS'Graham Dowd'
p622
aS'Robin Brooke'
p623
aS'Olo Brown'
p624
aS'Matthew Cooper'
p625
aS'Craig Dowd'
p626
aS'Lee Stensness'
p627
aS'Bull Allen'
p628
aS'Marc Ellis'
p629
aS'Stu Forster'
p630
aS'Steve Gordon'
p631
aS'Jeff Wilson'
p632
aS'Jonah Lomu'
p633
aS'Simon Mannix'
p634
aS'Stephen Bachop'
p635
aS'Shane Howarth'
p636
aS'Alama Ieremia'
p637
aS'Josh Kronfeld'
p638
aS'Andrew Mehrtens'
p639
aS'Glen Osborne'
p640
aS'Norm Hewitt'
p641
aS'Eric Rush'
p642
aS'Simon Culhane'
p643
aS'Liam Barry'
p644
aS'Justin Marshall'
p645
aS'Christian Cullen'
p646
aS'Scott McLeod'
p647
aS'Adrian Cashmore'
p648
aS'Andrew Blowers'
p649
aS'Glenn Taylor'
p650
aS'Taine Randell'
p651
aS'Tana Umaga'
p652
aS'Anton Oliver'
p653
aS'Charles Riechelmann'
p654
aS"Junior Tonu'u"
p655
aS'Carlos Spencer'
p656
aS'Mark Mayerhofler'
p657
aS'Todd Blackadder'
p658
aS'Mark Robinson'
p659
aS'Caleb Ralph'
p660
aS'Carl Hoeft'
p661
aS'Isitolo Maka'
p662
aS'Joeli Vidiri'
p663
aS'Scott Robertson'
p664
aS'Royce Willis'
p665
aS'Norm Berryman'
p666
aS'Kees Meeuws'
p667
aS'Xavier Rush'
p668
aS'Tony Brown'
p669
aS'Daryl Gibson'
p670
aS'Norm Maxwell'
p671
aS'Dylan Mika'
p672
aS'Greg Feek'
p673
aS'Byron Kelleher'
p674
aS'Pita Alatini'
p675
aS'Mark Hammett'
p676
aS'Reuben Thorne'
p677
aS'Rhys Duggan'
p678
aS'Troy Flavell'
p679
aS'Greg Somerville'
p680
aS'Doug Howlett'
p681
aS'Filo Tiatia'
p682
aS'Ron Cribb'
p683
aS'Leon MacDonald'
p684
aS'Mark Robinson'
p685
aS'Gordon Slater'
p686
aS'Bruce Reihana'
p687
aS"Jason O'Halloran"
p688
aS'Marty Holah'
p689
aS'Carl Hayman'
p690
aS'Mark Ranby'
p691
aS'Jerry Collins'
p692
aS'Chris Jack'
p693
aS'Richie McCaw'
p694
aS'Aaron Mauger'
p695
aS'Dave Hewett'
p696
aS'Ben Blair'
p697
aS'Dion Waller'
p698
aS'Joe McDonnell'
p699
aS'Simon Maling'
p700
aS'Tom Willis'
p701
aS'Sam Harding'
p702
aS'Sam Broomhall'
p703
aS'Steve Devine'
p704
aS'Andrew Hore'
p705
aS'Keith Lowen'
p706
aS'Keith Robinson'
p707
aS'Ali Williams'
p708
aS'Danny Lee'
p709
aS'Brad Mika'
p710
aS'Dan Braid'
p711
aS'Regan King'
p712
aS'Keven Mealamu'
p713
aS"Rodney So'oialo"
p714
aS'Tony Woodcock'
p715
aS'Paul Steinmetz'
p716
aS"Ma'a Nonu"
p717
aS'Joe Rokocoko'
p718
aS'Mils Muliaina'
p719
aS'Dan Carter'
p720
aS'Brad Thorn'
p721
aS'Corey Flynn'
p722
aS'Ben Atiga'
p723
aS'Jono Gibbes'
p724
aS'Nick Evans'
p725
aS'Sam Tuitupou'
p726
aS'Craig Newby'
p727
aS"Mose Tuiali'i"
p728
aS'Rico Gear'
p729
aS'Conrad Smith'
p730
aS'Saimone Taumoepeau'
p731
aS'Steven Bates'
p732
aS'Jimmy Cowan'
p733
aS'Casey Laulala'
p734
aS'Piri Weepu'
p735
aS'James Ryan'
p736
aS'Sitiveni Sivivatu'
p737
aS'Derren Witcombe'
p738
aS'Sosene Anesi'
p739
aS'Campbell Johnstone'
p740
aS'Sione Lauaki'
p741
aS'Luke McAlister'
p742
aS'Kevin Senio'
p743
aS'Chris Masoe'
p744
aS'Neemia Tialata'
p745
aS'Angus Macdonald'
p746
aS'John Afoa'
p747
aS'Jason Eaton'
p748
aS'Isaia Toeava'
p749
aS'Clarke Dermody'
p750
aS'Greg Rawlinson'
p751
aS'Jerome Kaino'
p752
aS'David Hill'
p753
aS'Scott Hamilton'
p754
aS'Andy Ellis'
p755
aS'Brendon Leonard'
p756
aS'Ross Filipo'
p757
aS'John Schwalger'
p758
aS'Anthony Tuitavake'
p759
aS'Adam Thomson'
p760
aS'Anthony Boric'
p761
aS'Stephen Donald'
p762
aS'Richard Kahui'
p763
aS'Rudi Wulf'
p764
aS"Kevin O'Neill"
p765
aS'Hosea Gear'
p766
aS'Cory Jane'
p767
aS'Jamie Mackintosh'
p768
aS'Liam Messam'
p769
aS'Kieran Read'
p770
aS'Isaac Ross'
p771
aS'Bryn Evans'
p772
aS'Tanerau Latimer'
p773
aS'Wyatt Crockett'
p774
aS'Lelia Masaga'
p775
aS'Aled de Malmanche'
p776
aS'Owen Franks'
p777
aS'George Whitelock'
p778
aS'Tom Donnelly'
p779
aS'Zac Guildford'
p780
aS'Mike Delany'
p781
aS'Tamati Ellison'
p782
aS'Ben Smith'
p783
aS'Israel Dagg'
p784
aS'Ben Franks'
p785
aS'Benson Stanley'
p786
aS'Aaron Cruden'
p787
aS'Victor Vito'
p788
aS'Sam Whitelock'
p789
aS'Rene Ranger'
p790
aS'Alby Mathewson'
p791
aS'Colin Slade'
p792
aS'Sonny Bill Williams'
p793
aS'Hika Elliot'
p794
aS'Jarrad Hoeata'
p795
aS'Brodie Retallick'
p796
aS'Julian Savea'
p797
aS'Aaron Smith'
p798
aS'Sam Cane'
p799
aS'Luke Romano'
p800
aS'Beauden Barrett'
p801
aS'Charlie Faumuina'
p802
aS'Dane Coles'
p803
aS'Tawera Kerr-Barlow'
p804
aS'Ben Afeaki'
p805
aS'Jeremy Thrush'
p806
aS'Steven Luatua'
p807
aS'Charles Piutau'
p808
aS'Matt Todd'
p809
aS'Ryan Crotty'
p810
aS'Tom Taylor'
p811
aS'Francis Saili'
p812
aS'Dominic Bird'
p813
aS'Frank Halai'
p814
aS'Jeff Toomaga-Allen'
p815
aS'Luke Whitelock'
p816
aS'Malakai Fekitoa'
p817
aS'TJ Perenara'
p818
aS'Patrick Tuipulotu'
p819
aS'Joe Moody'
p820
aS'Nathan Harris'
p821
aS'Augustine Pulu'
p822
aS'James Parsons'
p823
aS'George Moala'
p824
aS'Nepo Laulala'
p825
aS'Charlie Ngatai'
p826
aS'Brad Weber'
p827
aS'Waisake Naholo'
p828
aS'Codie Taylor'
p829
aS'James Broadhurst'
p830
aS'Lima Sopoaga'
p831
aS'Nehe Milner-Skudder'
p832
a.