(lp1
S'Opai Asher'
p2
aS'Reuben Cooke'
p3
aS'Jimmy Duncan'
p4
aS'Bernard Fanning'
p5
aS'David Gallaher'
p6
aS'Mickey Kiernan'
p7
aS'Paddy Long'
p8
aS'Duncan McGregor'
p9
aS'Dick McGregor'
p10
aS'Archie McMinn'
p11
aS'George Nicholson'
p12
aS'Bubs Tyler'
p13
aS'Daniel Udy'
p14
aS'Carbine Wallace'
p15
aS'Maurice Wood'
p16
aS'Tom Cross'
p17
aS'Billy Glenn'
p18
aS'Eric Harper'
p19
aS'Peter Harvey'
p20
aS'Paddy McMinn'
p21
aS'Bronco Seeling'
p22
aS'Billy Stead'
p23
aS'Rob Bennet'
p24
aS'Jerry Burgess'
p25
aS'Ernie Dodd'
p26
aS'Bolla Francis'
p27
aS'Colin Gilray'
p28
aS'Donald Macpherson'
p29
aS'Charles Purdue'
p30
aS'Pat Purdue'
p31
aS'Bill Smith'
p32
aS'John Spencer'
p33
aS'Hubert Turtill'
p34
aS'Eric Watkins'
p35
aS'Edgar Wrigley'
p36
aS'Steve Casey'
p37
aS'Bill Cunningham'
p38
aS'Bob Deans'
p39
aS'George Gillett'
p40
aS'Francis Glasgow'
p41
aS'Jimmy Hunter'
p42
aS'Alex McDonald'
p43
aS"Jimmy O'Sullivan"
p44
aS'Fred Roberts'
p45
aS'George Smith'
p46
aS'Simon Mynott'
p47
aS'Fred Newton'
p48
aS'Bunny Abbott'
p49
aS'Ernest Booth'
p50
aS'Bill Mackrell'
p51
aS'Ginger Colman'
p52
aS'Frank Fryer'
p53
aS'Ned Hughes'
p54
aS'Massa Johnston'
p55
aS'Frank Mitchinson'
p56
aS'Don Cameron'
p57
aS'Mona Thomson'
p58
aS'Ranji Wilson'
p59
aS'Paddy Burns'
p60
aS'Doddy Gray'
p61
aS'Don Hamilton'
p62
aS'Peter Murray'
p63
aS'Sandy Paterson'
p64
aS'Bill Reedy'
p65
aS'Circus Hayward'
p66
aS'Henry Avery'
p67
aS'William Fuller'
p68
aS'Gerald McKellar'
p69
aS'James Maguire'
p70
aS"Joe O'Leary"
p71
aS'Henry Paton'
p72
aS'Jimmy Ridland'
p73
aS'Jack Stohr'
p74
aS'Dave Evans'
p75
aS'Billy Mitchell'
p76
aS'James Ryan'
p77
aS'Harry Atkinson'
p78
aS'Jock Cuthill'
p79
aS'Norkey Dewar'
p80
aS'Doolan Downing'
p81
aS'Tiger Lynch'
p82
aS'Dougie McGregor'
p83
aS'Jock McKenzie'
p84
aS'Toby Murray'
p85
aS'Dick Roberts'
p86
aS'George Sellars'
p87
aS'Harry Taylor'
p88
aS'Peter Williams'
p89
aS'Jim Wylie'
p90
aS'James Baird'
p91
aS'Buster Barrett'
p92
aS'Charles Brown'
p93
aS'William Cummings'
p94
aS'William Francis'
p95
aS'William Geddes'
p96
aS'Charles Gillespie'
p97
aS'Edward Hasell'
p98
aS'John Macky'
p99
aS'Jim McNeece'
p100
aS'Augustine Spillane'
p101
aS'James Stewart'
p102
aS'Reginald Taylor'
p103
aS'Eric Cockroft'
p104
aS'Alfred Fanning'
p105
aS'James Tilyard'
p106
aS'Michael Cain'
p107
aS'James Graham'
p108
aS'Robert Black'
p109
aS'John Bruce'
p110
aS'Sal Irvine'
p111
aS"John O'Brien"
p112
aS'Teddy Roberts'
p113
aS'George Aitken'
p114
aS'Cecil Badeley'
p115
aS'Moke Belliss'
p116
aS'Jim Donald'
p117
aS'Bill Duncan'
p118
aS'Richard Fogarty'
p119
aS'Nipper Kingstone'
p120
aS'Jim Moffitt'
p121
aS'Ginger Nicholls'
p122
aS'Mark Nicholls'
p123
aS'Jock Richardson'
p124
aS'John Steel'
p125
aS'Percival Storey'
p126
aS'Son White'
p127
aS'Andrew McLean'
p128
aS'Alfred West'
p129
aS'Billy Fea'
p130
aS'Charles Fletcher'
p131
aS'Karl Ifwersen'
p132
aS'Stanley Siddells'
p133
aS'Maurice Brownlie'
p134
aS'Bert Cooke'
p135
aS'Les Cupples'
p136
aS'Bill Dalley'
p137
aS'Quentin Donald'
p138
aS'Augustine Hart'
p139
aS'Bull Irvine'
p140
aS'Fred Lucas'
p141
aS'Read Masters'
p142
aS'George Nepia'
p143
aS'James Parker'
p144
aS'Snowy Svenson'
p145
aS'Cyril Brownlie'
p146
aS'Neil McGregor'
p147
aS'Jimmy Mill'
p148
aS'Cliff Porter'
p149
aS'Geoff Alley'
p150
aS'Syd Carleton'
p151
aS'Bunny Finlayson'
p152
aS'Bert Grenside'
p153
aS'Swin Hadley'
p154
aS'Bill Hazlett'
p155
aS'Lance Johnson'
p156
aS'David Lindsay'
p157
aS'Alan Robilliard'
p158
aS'George Scrimshaw'
p159
aS'Ron Stewart'
p160
aS'Archie Strang'
p161
aS'Tuna Swain'
p162
aS'Reuben McWilliams'
p163
aS'Herb Lilburne'
p164
aS'Ian Harvey'
p165
aS'Beau Cottrell'
p166
aS'Bert Geddes'
p167
aS'Bill Heke'
p168
aS'Lew Hook'
p169
aS'Charlie Oliver'
p170
aS'Keith Reid'
p171
aS'Wattie Reside'
p172
aS'Fritz Snow'
p173
aS'Charlie Sonntag'
p174
aS'Jack Tuck'
p175
aS'Alfred Waterman'
p176
aS'Clinton Stringfellow'
p177
aS'Alfred Kivell'
p178
aS'Bert Palmer'
p179
aS'Rawi Cundy'
p180
aS'Tiny Leys'
p181
aS'Walter Batty'
p182
aS'George Hart'
p183
aS'Don Oliver'
p184
aS'Dick Steere'
p185
aS'Merv Corner'
p186
aS'John Hore'
p187
aS'Hugh McLean'
p188
aS'Kelly Ball'
p189
aS'Ron Bush'
p190
aS'Ted Jessep'
p191
aS'Don Max'
p192
aS'Tom Metcalfe'
p193
aS'Rusty Page'
p194
aS'George Purdue'
p195
aS'Frank Solomon'
p196
aS'George Bullock-Douglas'
p197
aS'Pat Caughey'
p198
aS'Frank Kilby'
p199
aS'Jack Manchester'
p200
aS'Bunk Pollock'
p201
aS'Joe Procter'
p202
aS'Ray Clarke'
p203
aS'Arthur Collins'
p204
aS'Gordon Innes'
p205
aS'Bill Hadley'
p206
aS'Bubs Knight'
p207
aS'Arthur Lambourn'
p208
aS'Roderick McKenzie'
p209
aS'Ned Barry'
p210
aS'Jack Griffiths'
p211
aS'Edward Holder'
p212
aS'Ron King'
p213
aS'Hawea Mataira'
p214
aS'Mike Gilbert'
p215
aS'Tonk Mahoney'
p216
aS'Brushy Mitchell'
p217
aS'Tori Reid'
p218
aS'Joey Sadler'
p219
aS'Doug Dalton'
p220
aS'Snowy Tindill'
p221
aS'Everard Jackson'
p222
aS'Shorty Killeen'
p223
aS'John Rankin'
p224
aS'Jim Watt'
p225
aS'Jock Wells'
p226
aS'Colin Gillies'
p227
aS'Ronald Ward'
p228
aS'Donald Cobden'
p229
aS'John Dick'
p230
aS'John Hooper'
p231
aS'Allan Parkhill'
p232
aS'Harold Simon'
p233
aS'John Sullivan'
p234
aS'John Taylor'
p235
aS'David Trevathan'
p236
aS'Bill Phillips'
p237
aS'Trevor Berghan'
p238
aS'Snow Bowman'
p239
aS'Les George'
p240
aS'Harold Milliken'
p241
aS'Thomas Morrison'
p242
aS'Charlie Quaid'
p243
aS'Charlie Saxton'
p244
aS'Fred Allen'
p245
aS'Wally Argus'
p246
aS'Has Catley'
p247
aS'John Dunn'
p248
aS'Ken Elliott'
p249
aS'Ron Elvidge'
p250
aS'Jack Finlay'
p251
aS'Harry Frazer'
p252
aS'Jimmy Haig'
p253
aS'Maurice McHugh'
p254
aS'Pat Rhind'
p255
aS'Bob Scott'
p256
aS'John Smith'
p257
aS'Roy White'
p258
aS'Charlie Willocks'
p259
aS'John McRae'
p260
aS'Eric Boggs'
p261
aS'Alf Budd'
p262
aS'Maurice Goddard'
p263
aS'Keith Arnold'
p264
aS'Ben Couch'
p265
aS'Ray Dalton'
p266
aS'Lachie Grant'
p267
aS'John McLean'
p268
aS'Johnny Simpson'
p269
aS'Percy Tetzlaff'
p270
aS'Neville Thornton'
p271
aS'Jim Kearney'
p272
aS'Tim Mason'
p273
aS'Lester Harvey'
p274
aS'Sammy Henderson'
p275
aS'Jack McNab'
p276
aS'Laurence Savage'
p277
aS'Kevin Skinner'
p278
aS'Peter Johnstone'
p279
aS'Bill Meates'
p280
aS'Vince Bevan'
p281
aS'Kiwi Blake'
p282
aS'Ron Bryers'
p283
aS'Ronald Dobson'
p284
aS'Arthur Hughes'
p285
aS'Jack Kelly'
p286
aS'Bert Lunn'
p287
aS'Graham Moore'
p288
aS'Bill Mumm'
p289
aS'Rex Orr'
p290
aS'Bob Stuart'
p291
aS'Tiny White'
p292
aS'Hector Wilson'
p293
aS'Neville Black'
p294
aS'Pat Crowley'
p295
aS'Des Christian'
p296
aS'Red Delamore'
p297
aS'Jack Bond'
p298
aS"Ray O'Callaghan"
p299
aS"Des O'Donnell"
p300
aS'Roy Roper'
p301
aS'Harry Rowley'
p302
aS'George Beatty'
p303
aS'Brownie Cherrington'
p304
aS'Laurie Haig'
p305
aS'Graham Mexted'
p306
aS'John Tanner'
p307
aS'Snow Cockerill'
p308
aS'Bob Duff'
p309
aS'Percy Erceg'
p310
aS'Ron Jarden'
p311
aS'Thomas Lynch'
p312
aS'Bill McCaw'
p313
aS'Eddie Robinson'
p314
aS'Leo Steele'
p315
aS'Norman Wilson'
p316
aS'Raymond Bell'
p317
aS'Peter Eastgate'
p318
aS'Allan Elsom'
p319
aS'Jim Fitzgerald'
p320
aS'John Hotop'
p321
aS'Ian Irvine'
p322
aS'Hugh McLaren'
p323
aS'Kevin Meates'
p324
aS'Ponty Reid'
p325
aS'Noel Bowden'
p326
aS'Mick Bremner'
p327
aS'Keith Davis'
p328
aS'Ian Hammond'
p329
aS'Jack Skeen'
p330
aS'Bill Clark'
p331
aS'Ian Clarke'
p332
aS'Nelson Dalzell'
p333
aS'Brian Fitzpatrick'
p334
aS'Ron Hemi'
p335
aS'Richard Bowers'
p336
aS'Morrie Dixon'
p337
aS'Colin Loader'
p338
aS'Desmond Oliver'
p339
aS'Snow White'
p340
aS'Tiger Hilton-Jones'
p341
aS'Douglas Wilson'
p342
aS'Robin Archer'
p343
aS'Peter Burke'
p344
aS'Mark Irwin'
p345
aS'Ross Smith'
p346
aS'Kevin Stuart'
p347
aS'Lindsay Townsend'
p348
aS'Ivan Vodanovich'
p349
aS'Pat Walsh'
p350
aS'Bill Gray'
p351
aS'Tom Katene'
p352
aS'Ross Brown'
p353
aS'John Buxton'
p354
aS'Tiny Hill'
p355
aS'Donald McIntosh'
p356
aS'Patrick Vincent'
p357
aS'Francis McAtamney'
p358
aS'Ian MacEwan'
p359
aS'Denis Young'
p360
aS'Don Clarke'
p361
aS'Terry Lineen'
p362
aS'Frank McMullen'
p363
aS'Colin Meads'
p364
aS'Wilson Whineray'
p365
aS'Mick Cossey'
p366
aS'Tom Coughlan'
p367
aS'David Graham'
p368
aS'Lloyd Ashby'
p369
aS'Rex Pickering'
p370
aS'Russell Watt'
p371
aS'Adrian Clarke'
p372
aS'William Gillespie'
p373
aS'Brian Finlay'
p374
aS'Bruce McPhail'
p375
aS'Spider Urbahn'
p376
aS'Kevin Briscoe'
p377
aS'Ralph Caulton'
p378
aS'Dick Conway'
p379
aS'Tuppy Diack'
p380
aS'John McCullough'
p381
aS'Kel Tremain'
p382
aS'Des Webb'
p383
aS"Terry O'Sullivan"
p384
aS'Ronald Horsley'
p385
aS'Kevin Laidlaw'
p386
aS'Steve Nesbit'
p387
aS'Tony Davies'
p388
aS'Desmond Connor'
p389
aS'Donald McKay'
p390
aS'Stan Meads'
p391
aS'Neil Wolfe'
p392
aS'Vic Yates'
p393
aS'Paul Little'
p394
aS'Rod Heeps'
p395
aS'Waka Nathan'
p396
aS'Bruce Watt'
p397
aS'Raymond Moreton'
p398
aS'Peter Morrissey'
p399
aS'John Creighton'
p400
aS'Jules le Lievre'
p401
aS'Keith Nelson'
p402
aS'Mac Herewini'
p403
aS'Barry Thomas'
p404
aS'Allan Stewart'
p405
aS'Ian Uttley'
p406
aS'Derek Arnold'
p407
aS'Malcolm Dick'
p408
aS'Ken Gray'
p409
aS'Brian Lochore'
p410
aS'Chris Laidlaw'
p411
aS'Don Clark'
p412
aS'John Collins'
p413
aS'Bruce McLeod'
p414
aS'Spooky Smith'
p415
aS'Mick Williment'
p416
aS'Peter Murdoch'
p417
aS'Ron Rangi'
p418
aS'Bill Birtwistle'
p419
aS'Fergie McCormick'
p420
aS'Jack Hazlett'
p421
aS'Ian MacRae'
p422
aS'Anthony Steel'
p423
aS'Bill Davis'
p424
aS'Sid Going'
p425
aS'John Major'
p426
aS'Jazz Muller'
p427
aS'Sam Strahan'
p428
aS'Earle Kirton'
p429
aS'Graham Williams'
p430
aS'Ian Kirkpatrick'
p431
aS'Alister Hopkinson'
p432
aS'Wayne Cottrell'
p433
aS'Tom Lister'
p434
aS'Grahame Thorne'
p435
aS'Anthony Kreft'
p436
aS"Michael O'Callaghan"
p437
aS'Owen Stephens'
p438
aS'Alan Smith'
p439
aS'George Skudder'
p440
aS'Bryan Williams'
p441
aS'Alan Sutherland'
p442
aS'Alex Wyllie'
p443
aS'Buff Milner'
p444
aS'Neil Thimbleby'
p445
a.