(lp1
S'http://www.espnscrum.com/newzealand/rugby/player/1553.html'
p2
aS'http://www.espnscrum.com/newzealand/rugby/player/1555.html'
p3
aS'http://www.espnscrum.com/newzealand/rugby/player/1556.html'
p4
aS'http://www.espnscrum.com/newzealand/rugby/player/1558.html'
p5
aS'http://www.espnscrum.com/newzealand/rugby/player/1559.html'
p6
aS'http://www.espnscrum.com/newzealand/rugby/player/1562.html'
p7
aS'http://www.espnscrum.com/newzealand/rugby/player/1564.html'
p8
aS'http://www.espnscrum.com/newzealand/rugby/player/1566.html'
p9
aS'http://www.espnscrum.com/newzealand/rugby/player/1567.html'
p10
aS'http://www.espnscrum.com/newzealand/rugby/player/1568.html'
p11
aS'http://www.espnscrum.com/newzealand/rugby/player/139498.html'
p12
aS'http://www.espnscrum.com/newzealand/rugby/player/1574.html'
p13
aS'http://www.espnscrum.com/newzealand/rugby/player/1575.html'
p14
aS'http://www.espnscrum.com/newzealand/rugby/player/1576.html'
p15
aS'http://www.espnscrum.com/newzealand/rugby/player/1579.html'
p16
aS'http://www.espnscrum.com/newzealand/rugby/player/1678.html'
p17
aS'http://www.espnscrum.com/newzealand/rugby/player/1680.html'
p18
aS'http://www.espnscrum.com/newzealand/rugby/player/1681.html'
p19
aS'http://www.espnscrum.com/newzealand/rugby/player/1682.html'
p20
aS'http://www.espnscrum.com/newzealand/rugby/player/1683.html'
p21
aS'http://www.espnscrum.com/newzealand/rugby/player/1685.html'
p22
aS'http://www.espnscrum.com/newzealand/rugby/player/1686.html'
p23
aS'http://www.espnscrum.com/newzealand/rugby/player/1716.html'
p24
aS'http://www.espnscrum.com/newzealand/rugby/player/1717.html'
p25
aS'http://www.espnscrum.com/newzealand/rugby/player/1719.html'
p26
aS'http://www.espnscrum.com/newzealand/rugby/player/1721.html'
p27
aS'http://www.espnscrum.com/newzealand/rugby/player/1722.html'
p28
aS'http://www.espnscrum.com/newzealand/rugby/player/1725.html'
p29
aS'http://www.espnscrum.com/newzealand/rugby/player/1727.html'
p30
aS'http://www.espnscrum.com/newzealand/rugby/player/1728.html'
p31
aS'http://www.espnscrum.com/newzealand/rugby/player/1731.html'
p32
aS'http://www.espnscrum.com/newzealand/rugby/player/1732.html'
p33
aS'http://www.espnscrum.com/newzealand/rugby/player/1733.html'
p34
aS'http://www.espnscrum.com/newzealand/rugby/player/1734.html'
p35
aS'http://www.espnscrum.com/newzealand/rugby/player/1736.html'
p36
aS'http://www.espnscrum.com/newzealand/rugby/player/1737.html'
p37
aS'http://www.espnscrum.com/newzealand/rugby/player/1738.html'
p38
aS'http://www.espnscrum.com/newzealand/rugby/player/1739.html'
p39
aS'http://www.espnscrum.com/newzealand/rugby/player/1740.html'
p40
aS'http://www.espnscrum.com/newzealand/rugby/player/1741.html'
p41
aS'http://www.espnscrum.com/newzealand/rugby/player/1742.html'
p42
aS'http://www.espnscrum.com/newzealand/rugby/player/1744.html'
p43
aS'http://www.espnscrum.com/newzealand/rugby/player/1747.html'
p44
aS'http://www.espnscrum.com/newzealand/rugby/player/1748.html'
p45
aS'http://www.espnscrum.com/newzealand/rugby/player/1753.html'
p46
aS'http://www.espnscrum.com/newzealand/rugby/player/1754.html'
p47
aS'http://www.espnscrum.com/newzealand/rugby/player/1763.html'
p48
aS'http://www.espnscrum.com/newzealand/rugby/player/1766.html'
p49
aS'http://www.espnscrum.com/newzealand/rugby/player/1768.html'
p50
aS'http://www.espnscrum.com/newzealand/rugby/player/1780.html'
p51
aS'http://www.espnscrum.com/newzealand/rugby/player/1897.html'
p52
aS'http://www.espnscrum.com/newzealand/rugby/player/1900.html'
p53
aS'http://www.espnscrum.com/newzealand/rugby/player/1903.html'
p54
aS'http://www.espnscrum.com/newzealand/rugby/player/1905.html'
p55
aS'http://www.espnscrum.com/newzealand/rugby/player/1908.html'
p56
aS'http://www.espnscrum.com/newzealand/rugby/player/1964.html'
p57
aS'http://www.espnscrum.com/newzealand/rugby/player/1971.html'
p58
aS'http://www.espnscrum.com/newzealand/rugby/player/1972.html'
p59
aS'http://www.espnscrum.com/newzealand/rugby/player/1973.html'
p60
aS'http://www.espnscrum.com/newzealand/rugby/player/1975.html'
p61
aS'http://www.espnscrum.com/newzealand/rugby/player/1976.html'
p62
aS'http://www.espnscrum.com/newzealand/rugby/player/1981.html'
p63
aS'http://www.espnscrum.com/newzealand/rugby/player/1982.html'
p64
aS'http://www.espnscrum.com/newzealand/rugby/player/1983.html'
p65
aS'http://www.espnscrum.com/newzealand/rugby/player/1986.html'
p66
aS'http://www.espnscrum.com/newzealand/rugby/player/2144.html'
p67
aS'http://www.espnscrum.com/newzealand/rugby/player/2149.html'
p68
aS'http://www.espnscrum.com/newzealand/rugby/player/2153.html'
p69
aS'http://www.espnscrum.com/newzealand/rugby/player/2154.html'
p70
aS'http://www.espnscrum.com/newzealand/rugby/player/2156.html'
p71
aS'http://www.espnscrum.com/newzealand/rugby/player/2157.html'
p72
aS'http://www.espnscrum.com/newzealand/rugby/player/2158.html'
p73
aS'http://www.espnscrum.com/newzealand/rugby/player/2159.html'
p74
aS'http://www.espnscrum.com/newzealand/rugby/player/2161.html'
p75
aS'http://www.espnscrum.com/newzealand/rugby/player/2163.html'
p76
aS'http://www.espnscrum.com/newzealand/rugby/player/2165.html'
p77
aS'http://www.espnscrum.com/newzealand/rugby/player/2402.html'
p78
aS'http://www.espnscrum.com/newzealand/rugby/player/2405.html'
p79
aS'http://www.espnscrum.com/newzealand/rugby/player/2406.html'
p80
aS'http://www.espnscrum.com/newzealand/rugby/player/2407.html'
p81
aS'http://www.espnscrum.com/newzealand/rugby/player/2409.html'
p82
aS'http://www.espnscrum.com/newzealand/rugby/player/2410.html'
p83
aS'http://www.espnscrum.com/newzealand/rugby/player/2411.html'
p84
aS'http://www.espnscrum.com/newzealand/rugby/player/2413.html'
p85
aS'http://www.espnscrum.com/newzealand/rugby/player/2415.html'
p86
aS'http://www.espnscrum.com/newzealand/rugby/player/2416.html'
p87
aS'http://www.espnscrum.com/newzealand/rugby/player/2420.html'
p88
aS'http://www.espnscrum.com/newzealand/rugby/player/2423.html'
p89
aS'http://www.espnscrum.com/newzealand/rugby/player/2425.html'
p90
aS'http://www.espnscrum.com/newzealand/rugby/player/2426.html'
p91
aS'http://www.espnscrum.com/newzealand/rugby/player/2427.html'
p92
aS'http://www.espnscrum.com/newzealand/rugby/player/2428.html'
p93
aS'http://www.espnscrum.com/newzealand/rugby/player/2429.html'
p94
aS'http://www.espnscrum.com/newzealand/rugby/player/2431.html'
p95
aS'http://www.espnscrum.com/newzealand/rugby/player/2432.html'
p96
aS'http://www.espnscrum.com/newzealand/rugby/player/2433.html'
p97
aS'http://www.espnscrum.com/newzealand/rugby/player/2434.html'
p98
aS'http://www.espnscrum.com/newzealand/rugby/player/2437.html'
p99
aS'http://www.espnscrum.com/newzealand/rugby/player/2438.html'
p100
aS'http://www.espnscrum.com/newzealand/rugby/player/2440.html'
p101
aS'http://www.espnscrum.com/newzealand/rugby/player/2441.html'
p102
aS'http://www.espnscrum.com/newzealand/rugby/player/2442.html'
p103
aS'http://www.espnscrum.com/newzealand/rugby/player/2443.html'
p104
aS'http://www.espnscrum.com/newzealand/rugby/player/2444.html'
p105
aS'http://www.espnscrum.com/newzealand/rugby/player/2445.html'
p106
aS'http://www.espnscrum.com/newzealand/rugby/player/2448.html'
p107
aS'http://www.espnscrum.com/newzealand/rugby/player/2452.html'
p108
aS'http://www.espnscrum.com/newzealand/rugby/player/2513.html'
p109
aS'http://www.espnscrum.com/newzealand/rugby/player/2514.html'
p110
aS'http://www.espnscrum.com/newzealand/rugby/player/2517.html'
p111
aS'http://www.espnscrum.com/newzealand/rugby/player/2518.html'
p112
aS'http://www.espnscrum.com/newzealand/rugby/player/2519.html'
p113
aS'http://www.espnscrum.com/newzealand/rugby/player/2818.html'
p114
aS'http://www.espnscrum.com/newzealand/rugby/player/2667.html'
p115
aS'http://www.espnscrum.com/newzealand/rugby/player/2669.html'
p116
aS'http://www.espnscrum.com/newzealand/rugby/player/2675.html'
p117
aS'http://www.espnscrum.com/newzealand/rugby/player/2676.html'
p118
aS'http://www.espnscrum.com/newzealand/rugby/player/2533.html'
p119
aS'http://www.espnscrum.com/newzealand/rugby/player/2819.html'
p120
aS'http://www.espnscrum.com/newzealand/rugby/player/2540.html'
p121
aS'http://www.espnscrum.com/newzealand/rugby/player/2821.html'
p122
aS'http://www.espnscrum.com/newzealand/rugby/player/2822.html'
p123
aS'http://www.espnscrum.com/newzealand/rugby/player/2823.html'
p124
aS'http://www.espnscrum.com/newzealand/rugby/player/2686.html'
p125
aS'http://www.espnscrum.com/newzealand/rugby/player/2548.html'
p126
aS'http://www.espnscrum.com/newzealand/rugby/player/2825.html'
p127
aS'http://www.espnscrum.com/newzealand/rugby/player/2826.html'
p128
aS'http://www.espnscrum.com/newzealand/rugby/player/2550.html'
p129
aS'http://www.espnscrum.com/newzealand/rugby/player/2532.html'
p130
aS'http://www.espnscrum.com/newzealand/rugby/player/2832.html'
p131
aS'http://www.espnscrum.com/newzealand/rugby/player/2844.html'
p132
aS'http://www.espnscrum.com/newzealand/rugby/player/2845.html'
p133
aS'http://www.espnscrum.com/newzealand/rugby/player/2929.html'
p134
aS'http://www.espnscrum.com/newzealand/rugby/player/3133.html'
p135
aS'http://www.espnscrum.com/newzealand/rugby/player/3032.html'
p136
aS'http://www.espnscrum.com/newzealand/rugby/player/3140.html'
p137
aS'http://www.espnscrum.com/newzealand/rugby/player/3025.html'
p138
aS'http://www.espnscrum.com/newzealand/rugby/player/3134.html'
p139
aS'http://www.espnscrum.com/newzealand/rugby/player/3033.html'
p140
aS'http://www.espnscrum.com/newzealand/rugby/player/3026.html'
p141
aS'http://www.espnscrum.com/newzealand/rugby/player/3034.html'
p142
aS'http://www.espnscrum.com/newzealand/rugby/player/3137.html'
p143
aS'http://www.espnscrum.com/newzealand/rugby/player/3186.html'
p144
aS'http://www.espnscrum.com/newzealand/rugby/player/3142.html'
p145
aS'http://www.espnscrum.com/newzealand/rugby/player/3132.html'
p146
aS'http://www.espnscrum.com/newzealand/rugby/player/3188.html'
p147
aS'http://www.espnscrum.com/newzealand/rugby/player/2907.html'
p148
aS'http://www.espnscrum.com/newzealand/rugby/player/3039.html'
p149
aS'http://www.espnscrum.com/newzealand/rugby/player/3341.html'
p150
aS'http://www.espnscrum.com/newzealand/rugby/player/3545.html'
p151
aS'http://www.espnscrum.com/newzealand/rugby/player/3251.html'
p152
aS'http://www.espnscrum.com/newzealand/rugby/player/3549.html'
p153
aS'http://www.espnscrum.com/newzealand/rugby/player/3550.html'
p154
aS'http://www.espnscrum.com/newzealand/rugby/player/3345.html'
p155
aS'http://www.espnscrum.com/newzealand/rugby/player/3254.html'
p156
aS'http://www.espnscrum.com/newzealand/rugby/player/3551.html'
p157
aS'http://www.espnscrum.com/newzealand/rugby/player/3280.html'
p158
aS'http://www.espnscrum.com/newzealand/rugby/player/3557.html'
p159
aS'http://www.espnscrum.com/newzealand/rugby/player/3041.html'
p160
aS'http://www.espnscrum.com/newzealand/rugby/player/3558.html'
p161
aS'http://www.espnscrum.com/newzealand/rugby/player/3559.html'
p162
aS'http://www.espnscrum.com/newzealand/rugby/player/3563.html'
p163
aS'http://www.espnscrum.com/newzealand/rugby/player/3568.html'
p164
aS'http://www.espnscrum.com/newzealand/rugby/player/3333.html'
p165
aS'http://www.espnscrum.com/newzealand/rugby/player/3716.html'
p166
aS'http://www.espnscrum.com/newzealand/rugby/player/3717.html'
p167
aS'http://www.espnscrum.com/newzealand/rugby/player/3372.html'
p168
aS'http://www.espnscrum.com/newzealand/rugby/player/3594.html'
p169
aS'http://www.espnscrum.com/newzealand/rugby/player/3599.html'
p170
aS'http://www.espnscrum.com/newzealand/rugby/player/3721.html'
p171
aS'http://www.espnscrum.com/newzealand/rugby/player/3631.html'
p172
aS'http://www.espnscrum.com/newzealand/rugby/player/3722.html'
p173
aS'http://www.espnscrum.com/newzealand/rugby/player/3723.html'
p174
aS'http://www.espnscrum.com/newzealand/rugby/player/3727.html'
p175
aS'http://www.espnscrum.com/newzealand/rugby/player/3728.html'
p176
aS'http://www.espnscrum.com/newzealand/rugby/player/3724.html'
p177
aS'http://www.espnscrum.com/newzealand/rugby/player/3730.html'
p178
aS'http://www.espnscrum.com/newzealand/rugby/player/3600.html'
p179
aS'http://www.espnscrum.com/newzealand/rugby/player/3729.html'
p180
aS'http://www.espnscrum.com/newzealand/rugby/player/3733.html'
p181
aS'http://www.espnscrum.com/newzealand/rugby/player/3586.html'
p182
aS'http://www.espnscrum.com/newzealand/rugby/player/3798.html'
p183
aS'http://www.espnscrum.com/newzealand/rugby/player/3801.html'
p184
aS'http://www.espnscrum.com/newzealand/rugby/player/3603.html'
p185
aS'http://www.espnscrum.com/newzealand/rugby/player/3802.html'
p186
aS'http://www.espnscrum.com/newzealand/rugby/player/3803.html'
p187
aS'http://www.espnscrum.com/newzealand/rugby/player/3804.html'
p188
aS'http://www.espnscrum.com/newzealand/rugby/player/3898.html'
p189
aS'http://www.espnscrum.com/newzealand/rugby/player/3899.html'
p190
aS'http://www.espnscrum.com/newzealand/rugby/player/3901.html'
p191
aS'http://www.espnscrum.com/newzealand/rugby/player/3902.html'
p192
aS'http://www.espnscrum.com/newzealand/rugby/player/3903.html'
p193
aS'http://www.espnscrum.com/newzealand/rugby/player/3904.html'
p194
aS'http://www.espnscrum.com/newzealand/rugby/player/3890.html'
p195
aS'http://www.espnscrum.com/newzealand/rugby/player/3905.html'
p196
aS'http://www.espnscrum.com/newzealand/rugby/player/3993.html'
p197
aS'http://www.espnscrum.com/newzealand/rugby/player/3994.html'
p198
aS'http://www.espnscrum.com/newzealand/rugby/player/3996.html'
p199
aS'http://www.espnscrum.com/newzealand/rugby/player/3998.html'
p200
aS'http://www.espnscrum.com/newzealand/rugby/player/3999.html'
p201
aS'http://www.espnscrum.com/newzealand/rugby/player/4000.html'
p202
aS'http://www.espnscrum.com/newzealand/rugby/player/4004.html'
p203
aS'http://www.espnscrum.com/newzealand/rugby/player/4005.html'
p204
aS'http://www.espnscrum.com/newzealand/rugby/player/4017.html'
p205
aS'http://www.espnscrum.com/newzealand/rugby/player/4211.html'
p206
aS'http://www.espnscrum.com/newzealand/rugby/player/3337.html'
p207
aS'http://www.espnscrum.com/newzealand/rugby/player/4213.html'
p208
aS'http://www.espnscrum.com/newzealand/rugby/player/4215.html'
p209
aS'http://www.espnscrum.com/newzealand/rugby/player/4219.html'
p210
aS'http://www.espnscrum.com/newzealand/rugby/player/4220.html'
p211
aS'http://www.espnscrum.com/newzealand/rugby/player/4221.html'
p212
aS'http://www.espnscrum.com/newzealand/rugby/player/4222.html'
p213
aS'http://www.espnscrum.com/newzealand/rugby/player/4223.html'
p214
aS'http://www.espnscrum.com/newzealand/rugby/player/4302.html'
p215
aS'http://www.espnscrum.com/newzealand/rugby/player/4305.html'
p216
aS'http://www.espnscrum.com/newzealand/rugby/player/4306.html'
p217
aS'http://www.espnscrum.com/newzealand/rugby/player/3891.html'
p218
aS'http://www.espnscrum.com/newzealand/rugby/player/4307.html'
p219
aS'http://www.espnscrum.com/newzealand/rugby/player/4310.html'
p220
aS'http://www.espnscrum.com/newzealand/rugby/player/4322.html'
p221
aS'http://www.espnscrum.com/newzealand/rugby/player/4411.html'
p222
aS'http://www.espnscrum.com/newzealand/rugby/player/4413.html'
p223
aS'http://www.espnscrum.com/newzealand/rugby/player/4418.html'
p224
aS'http://www.espnscrum.com/newzealand/rugby/player/4421.html'
p225
aS'http://www.espnscrum.com/newzealand/rugby/player/4422.html'
p226
aS'http://www.espnscrum.com/newzealand/rugby/player/4423.html'
p227
aS'http://www.espnscrum.com/newzealand/rugby/player/4426.html'
p228
aS'http://www.espnscrum.com/newzealand/rugby/player/4524.html'
p229
aS'http://www.espnscrum.com/newzealand/rugby/player/4525.html'
p230
aS'http://www.espnscrum.com/newzealand/rugby/player/4526.html'
p231
aS'http://www.espnscrum.com/newzealand/rugby/player/4529.html'
p232
aS'http://www.espnscrum.com/newzealand/rugby/player/4530.html'
p233
aS'http://www.espnscrum.com/newzealand/rugby/player/4531.html'
p234
aS'http://www.espnscrum.com/newzealand/rugby/player/4532.html'
p235
aS'http://www.espnscrum.com/newzealand/rugby/player/4533.html'
p236
aS'http://www.espnscrum.com/newzealand/rugby/player/4444.html'
p237
aS'http://www.espnscrum.com/newzealand/rugby/player/4604.html'
p238
aS'http://www.espnscrum.com/newzealand/rugby/player/4605.html'
p239
aS'http://www.espnscrum.com/newzealand/rugby/player/4608.html'
p240
aS'http://www.espnscrum.com/newzealand/rugby/player/4611.html'
p241
aS'http://www.espnscrum.com/newzealand/rugby/player/4612.html'
p242
aS'http://www.espnscrum.com/newzealand/rugby/player/4614.html'
p243
aS'http://www.espnscrum.com/newzealand/rugby/player/4615.html'
p244
aS'http://www.espnscrum.com/newzealand/rugby/player/4828.html'
p245
aS'http://www.espnscrum.com/newzealand/rugby/player/4829.html'
p246
aS'http://www.espnscrum.com/newzealand/rugby/player/4831.html'
p247
aS'http://www.espnscrum.com/newzealand/rugby/player/4834.html'
p248
aS'http://www.espnscrum.com/newzealand/rugby/player/4836.html'
p249
aS'http://www.espnscrum.com/newzealand/rugby/player/4837.html'
p250
aS'http://www.espnscrum.com/newzealand/rugby/player/4838.html'
p251
aS'http://www.espnscrum.com/newzealand/rugby/player/4840.html'
p252
aS'http://www.espnscrum.com/newzealand/rugby/player/4842.html'
p253
aS'http://www.espnscrum.com/newzealand/rugby/player/4848.html'
p254
aS'http://www.espnscrum.com/newzealand/rugby/player/4853.html'
p255
aS'http://www.espnscrum.com/newzealand/rugby/player/4855.html'
p256
aS'http://www.espnscrum.com/newzealand/rugby/player/4856.html'
p257
aS'http://www.espnscrum.com/newzealand/rugby/player/4858.html'
p258
aS'http://www.espnscrum.com/newzealand/rugby/player/4859.html'
p259
aS'http://www.espnscrum.com/newzealand/rugby/player/4851.html'
p260
aS'http://www.espnscrum.com/newzealand/rugby/player/4879.html'
p261
aS'http://www.espnscrum.com/newzealand/rugby/player/4880.html'
p262
aS'http://www.espnscrum.com/newzealand/rugby/player/4882.html'
p263
aS'http://www.espnscrum.com/newzealand/rugby/player/4962.html'
p264
aS'http://www.espnscrum.com/newzealand/rugby/player/4964.html'
p265
aS'http://www.espnscrum.com/newzealand/rugby/player/4965.html'
p266
aS'http://www.espnscrum.com/newzealand/rugby/player/4966.html'
p267
aS'http://www.espnscrum.com/newzealand/rugby/player/4969.html'
p268
aS'http://www.espnscrum.com/newzealand/rugby/player/4971.html'
p269
aS'http://www.espnscrum.com/newzealand/rugby/player/4972.html'
p270
aS'http://www.espnscrum.com/newzealand/rugby/player/4973.html'
p271
aS'http://www.espnscrum.com/newzealand/rugby/player/4977.html'
p272
aS'http://www.espnscrum.com/newzealand/rugby/player/4979.html'
p273
aS'http://www.espnscrum.com/newzealand/rugby/player/5198.html'
p274
aS'http://www.espnscrum.com/newzealand/rugby/player/5199.html'
p275
aS'http://www.espnscrum.com/newzealand/rugby/player/5204.html'
p276
aS'http://www.espnscrum.com/newzealand/rugby/player/5208.html'
p277
aS'http://www.espnscrum.com/newzealand/rugby/player/5209.html'
p278
aS'http://www.espnscrum.com/newzealand/rugby/player/5218.html'
p279
aS'http://www.espnscrum.com/newzealand/rugby/player/5220.html'
p280
aS'http://www.espnscrum.com/newzealand/rugby/player/5231.html'
p281
aS'http://www.espnscrum.com/newzealand/rugby/player/5076.html'
p282
aS'http://www.espnscrum.com/newzealand/rugby/player/4862.html'
p283
aS'http://www.espnscrum.com/newzealand/rugby/player/5235.html'
p284
aS'http://www.espnscrum.com/newzealand/rugby/player/5239.html'
p285
aS'http://www.espnscrum.com/newzealand/rugby/player/5240.html'
p286
aS'http://www.espnscrum.com/newzealand/rugby/player/5241.html'
p287
aS'http://www.espnscrum.com/newzealand/rugby/player/5242.html'
p288
aS'http://www.espnscrum.com/newzealand/rugby/player/5244.html'
p289
aS'http://www.espnscrum.com/newzealand/rugby/player/5245.html'
p290
aS'http://www.espnscrum.com/newzealand/rugby/player/5246.html'
p291
aS'http://www.espnscrum.com/newzealand/rugby/player/5247.html'
p292
aS'http://www.espnscrum.com/newzealand/rugby/player/5249.html'
p293
aS'http://www.espnscrum.com/newzealand/rugby/player/5232.html'
p294
aS'http://www.espnscrum.com/newzealand/rugby/player/5233.html'
p295
aS'http://www.espnscrum.com/newzealand/rugby/player/5255.html'
p296
aS'http://www.espnscrum.com/newzealand/rugby/player/5256.html'
p297
aS'http://www.espnscrum.com/newzealand/rugby/player/5260.html'
p298
aS'http://www.espnscrum.com/newzealand/rugby/player/5261.html'
p299
aS'http://www.espnscrum.com/newzealand/rugby/player/5262.html'
p300
aS'http://www.espnscrum.com/newzealand/rugby/player/5263.html'
p301
aS'http://www.espnscrum.com/newzealand/rugby/player/5264.html'
p302
aS'http://www.espnscrum.com/newzealand/rugby/player/5327.html'
p303
aS'http://www.espnscrum.com/newzealand/rugby/player/5078.html'
p304
aS'http://www.espnscrum.com/newzealand/rugby/player/5328.html'
p305
aS'http://www.espnscrum.com/newzealand/rugby/player/5329.html'
p306
aS'http://www.espnscrum.com/newzealand/rugby/player/5331.html'
p307
aS'http://www.espnscrum.com/newzealand/rugby/player/5416.html'
p308
aS'http://www.espnscrum.com/newzealand/rugby/player/5417.html'
p309
aS'http://www.espnscrum.com/newzealand/rugby/player/5418.html'
p310
aS'http://www.espnscrum.com/newzealand/rugby/player/5420.html'
p311
aS'http://www.espnscrum.com/newzealand/rugby/player/5421.html'
p312
aS'http://www.espnscrum.com/newzealand/rugby/player/5422.html'
p313
aS'http://www.espnscrum.com/newzealand/rugby/player/5424.html'
p314
aS'http://www.espnscrum.com/newzealand/rugby/player/5427.html'
p315
aS'http://www.espnscrum.com/newzealand/rugby/player/5429.html'
p316
aS'http://www.espnscrum.com/newzealand/rugby/player/5432.html'
p317
aS'http://www.espnscrum.com/newzealand/rugby/player/5587.html'
p318
aS'http://www.espnscrum.com/newzealand/rugby/player/5588.html'
p319
aS'http://www.espnscrum.com/newzealand/rugby/player/5589.html'
p320
aS'http://www.espnscrum.com/newzealand/rugby/player/5590.html'
p321
aS'http://www.espnscrum.com/newzealand/rugby/player/5591.html'
p322
aS'http://www.espnscrum.com/newzealand/rugby/player/5592.html'
p323
aS'http://www.espnscrum.com/newzealand/rugby/player/5593.html'
p324
aS'http://www.espnscrum.com/newzealand/rugby/player/5595.html'
p325
aS'http://www.espnscrum.com/newzealand/rugby/player/5596.html'
p326
aS'http://www.espnscrum.com/newzealand/rugby/player/5597.html'
p327
aS'http://www.espnscrum.com/newzealand/rugby/player/5598.html'
p328
aS'http://www.espnscrum.com/newzealand/rugby/player/5600.html'
p329
aS'http://www.espnscrum.com/newzealand/rugby/player/5601.html'
p330
aS'http://www.espnscrum.com/newzealand/rugby/player/5741.html'
p331
aS'http://www.espnscrum.com/newzealand/rugby/player/5742.html'
p332
aS'http://www.espnscrum.com/newzealand/rugby/player/5743.html'
p333
aS'http://www.espnscrum.com/newzealand/rugby/player/5744.html'
p334
aS'http://www.espnscrum.com/newzealand/rugby/player/5745.html'
p335
aS'http://www.espnscrum.com/newzealand/rugby/player/5749.html'
p336
aS'http://www.espnscrum.com/newzealand/rugby/player/5750.html'
p337
aS'http://www.espnscrum.com/newzealand/rugby/player/5752.html'
p338
aS'http://www.espnscrum.com/newzealand/rugby/player/5755.html'
p339
aS'http://www.espnscrum.com/newzealand/rugby/player/5757.html'
p340
aS'http://www.espnscrum.com/newzealand/rugby/player/5767.html'
p341
aS'http://www.espnscrum.com/newzealand/rugby/player/5768.html'
p342
aS'http://www.espnscrum.com/newzealand/rugby/player/5963.html'
p343
aS'http://www.espnscrum.com/newzealand/rugby/player/5964.html'
p344
aS'http://www.espnscrum.com/newzealand/rugby/player/5967.html'
p345
aS'http://www.espnscrum.com/newzealand/rugby/player/5970.html'
p346
aS'http://www.espnscrum.com/newzealand/rugby/player/5971.html'
p347
aS'http://www.espnscrum.com/newzealand/rugby/player/5973.html'
p348
aS'http://www.espnscrum.com/newzealand/rugby/player/5975.html'
p349
aS'http://www.espnscrum.com/newzealand/rugby/player/5976.html'
p350
aS'http://www.espnscrum.com/newzealand/rugby/player/5848.html'
p351
aS'http://www.espnscrum.com/newzealand/rugby/player/5978.html'
p352
aS'http://www.espnscrum.com/newzealand/rugby/player/5983.html'
p353
aS'http://www.espnscrum.com/newzealand/rugby/player/5984.html'
p354
aS'http://www.espnscrum.com/newzealand/rugby/player/5985.html'
p355
aS'http://www.espnscrum.com/newzealand/rugby/player/6060.html'
p356
aS'http://www.espnscrum.com/newzealand/rugby/player/6061.html'
p357
aS'http://www.espnscrum.com/newzealand/rugby/player/6062.html'
p358
aS'http://www.espnscrum.com/newzealand/rugby/player/6063.html'
p359
aS'http://www.espnscrum.com/newzealand/rugby/player/6064.html'
p360
aS'http://www.espnscrum.com/newzealand/rugby/player/6065.html'
p361
aS'http://www.espnscrum.com/newzealand/rugby/player/6147.html'
p362
aS'http://www.espnscrum.com/newzealand/rugby/player/6148.html'
p363
aS'http://www.espnscrum.com/newzealand/rugby/player/6149.html'
p364
aS'http://www.espnscrum.com/newzealand/rugby/player/6153.html'
p365
aS'http://www.espnscrum.com/newzealand/rugby/player/6298.html'
p366
aS'http://www.espnscrum.com/newzealand/rugby/player/6299.html'
p367
aS'http://www.espnscrum.com/newzealand/rugby/player/6304.html'
p368
aS'http://www.espnscrum.com/newzealand/rugby/player/6307.html'
p369
aS'http://www.espnscrum.com/newzealand/rugby/player/6309.html'
p370
aS'http://www.espnscrum.com/newzealand/rugby/player/6310.html'
p371
aS'http://www.espnscrum.com/newzealand/rugby/player/6324.html'
p372
aS'http://www.espnscrum.com/newzealand/rugby/player/6326.html'
p373
aS'http://www.espnscrum.com/newzealand/rugby/player/6401.html'
p374
aS'http://www.espnscrum.com/newzealand/rugby/player/6403.html'
p375
aS'http://www.espnscrum.com/newzealand/rugby/player/6404.html'
p376
aS'http://www.espnscrum.com/newzealand/rugby/player/6405.html'
p377
aS'http://www.espnscrum.com/newzealand/rugby/player/6406.html'
p378
aS'http://www.espnscrum.com/newzealand/rugby/player/6407.html'
p379
aS'http://www.espnscrum.com/newzealand/rugby/player/6408.html'
p380
aS'http://www.espnscrum.com/newzealand/rugby/player/6409.html'
p381
aS'http://www.espnscrum.com/newzealand/rugby/player/6411.html'
p382
aS'http://www.espnscrum.com/newzealand/rugby/player/6412.html'
p383
aS'http://www.espnscrum.com/newzealand/rugby/player/6519.html'
p384
aS'http://www.espnscrum.com/newzealand/rugby/player/6524.html'
p385
aS'http://www.espnscrum.com/newzealand/rugby/player/6526.html'
p386
aS'http://www.espnscrum.com/newzealand/rugby/player/6528.html'
p387
aS'http://www.espnscrum.com/newzealand/rugby/player/6546.html'
p388
aS'http://www.espnscrum.com/newzealand/rugby/player/6199.html'
p389
aS'http://www.espnscrum.com/newzealand/rugby/player/6630.html'
p390
aS'http://www.espnscrum.com/newzealand/rugby/player/6631.html'
p391
aS'http://www.espnscrum.com/newzealand/rugby/player/6632.html'
p392
aS'http://www.espnscrum.com/newzealand/rugby/player/6633.html'
p393
aS'http://www.espnscrum.com/newzealand/rugby/player/6636.html'
p394
aS'http://www.espnscrum.com/newzealand/rugby/player/6686.html'
p395
aS'http://www.espnscrum.com/newzealand/rugby/player/6689.html'
p396
aS'http://www.espnscrum.com/newzealand/rugby/player/6693.html'
p397
aS'http://www.espnscrum.com/newzealand/rugby/player/6710.html'
p398
aS'http://www.espnscrum.com/newzealand/rugby/player/6711.html'
p399
aS'http://www.espnscrum.com/newzealand/rugby/player/6714.html'
p400
aS'http://www.espnscrum.com/newzealand/rugby/player/6716.html'
p401
aS'http://www.espnscrum.com/newzealand/rugby/player/6718.html'
p402
aS'http://www.espnscrum.com/newzealand/rugby/player/6719.html'
p403
aS'http://www.espnscrum.com/newzealand/rugby/player/6720.html'
p404
aS'http://www.espnscrum.com/newzealand/rugby/player/6817.html'
p405
aS'http://www.espnscrum.com/newzealand/rugby/player/6818.html'
p406
aS'http://www.espnscrum.com/newzealand/rugby/player/6852.html'
p407
aS'http://www.espnscrum.com/newzealand/rugby/player/6853.html'
p408
aS'http://www.espnscrum.com/newzealand/rugby/player/6856.html'
p409
aS'http://www.espnscrum.com/newzealand/rugby/player/6868.html'
p410
aS'http://www.espnscrum.com/newzealand/rugby/player/6882.html'
p411
aS'http://www.espnscrum.com/newzealand/rugby/player/6919.html'
p412
aS'http://www.espnscrum.com/newzealand/rugby/player/6920.html'
p413
aS'http://www.espnscrum.com/newzealand/rugby/player/6927.html'
p414
aS'http://www.espnscrum.com/newzealand/rugby/player/6933.html'
p415
aS'http://www.espnscrum.com/newzealand/rugby/player/6935.html'
p416
aS'http://www.espnscrum.com/newzealand/rugby/player/6944.html'
p417
aS'http://www.espnscrum.com/newzealand/rugby/player/6945.html'
p418
aS'http://www.espnscrum.com/newzealand/rugby/player/7042.html'
p419
aS'http://www.espnscrum.com/newzealand/rugby/player/7060.html'
p420
aS'http://www.espnscrum.com/newzealand/rugby/player/7116.html'
p421
aS'http://www.espnscrum.com/newzealand/rugby/player/7117.html'
p422
aS'http://www.espnscrum.com/newzealand/rugby/player/7119.html'
p423
aS'http://www.espnscrum.com/newzealand/rugby/player/7286.html'
p424
aS'http://www.espnscrum.com/newzealand/rugby/player/7287.html'
p425
aS'http://www.espnscrum.com/newzealand/rugby/player/7288.html'
p426
aS'http://www.espnscrum.com/newzealand/rugby/player/7290.html'
p427
aS'http://www.espnscrum.com/newzealand/rugby/player/7294.html'
p428
aS'http://www.espnscrum.com/newzealand/rugby/player/7315.html'
p429
aS'http://www.espnscrum.com/newzealand/rugby/player/7317.html'
p430
aS'http://www.espnscrum.com/newzealand/rugby/player/7325.html'
p431
aS'http://www.espnscrum.com/newzealand/rugby/player/7327.html'
p432
aS'http://www.espnscrum.com/newzealand/rugby/player/7386.html'
p433
aS'http://www.espnscrum.com/newzealand/rugby/player/7389.html'
p434
aS'http://www.espnscrum.com/newzealand/rugby/player/7394.html'
p435
aS'http://www.espnscrum.com/newzealand/rugby/player/7396.html'
p436
aS'http://www.espnscrum.com/newzealand/rugby/player/7412.html'
p437
aS'http://www.espnscrum.com/newzealand/rugby/player/7418.html'
p438
aS'http://www.espnscrum.com/newzealand/rugby/player/7524.html'
p439
aS'http://www.espnscrum.com/newzealand/rugby/player/7527.html'
p440
aS'http://www.espnscrum.com/newzealand/rugby/player/7659.html'
p441
aS'http://www.espnscrum.com/newzealand/rugby/player/7662.html'
p442
aS'http://www.espnscrum.com/newzealand/rugby/player/7664.html'
p443
aS'http://www.espnscrum.com/newzealand/rugby/player/7665.html'
p444
aS'http://www.espnscrum.com/newzealand/rugby/player/7666.html'
p445
a.