(lp1
VWing
p2
aVLock
p3
aVFly-half
p4
aVLock
p5
aVWing-forward
p6
aVScrum-half
p7
aVLock
p8
aVWing
p9
aVFullback
p10
aVFlanker
p11
aVLock
p12
aVProp
p13
aVProp
p14
aVWing
p15
aVFive-eighth
p16
aVLock
p17
aVFlanker
p18
aVCentre
p19
aVScrum-half
p20
aVProp
p21
aVFlanker
p22
aVFly-half
p23
aVCentre
p24
aVScrum-half
p25
aVProp
p26
aVLock
p27
aVWing
p28
aVWing
p29
aVFlanker
p30
aVLock
p31
aVFly-half
p32
aVLock
p33
aVFullback
p34
aVProp
p35
aVFive-eighth
p36
aVProp
p37
aVLock
p38
aVCentre
p39
aVWing-forward
p40
aVLock
p41
aVFive-eighth
p42
aVFlanker
p43
aVLock
p44
aVScrum-half
p45
aVWing
p46
aVFly-half
p47
aVLock
p48
aVWing
p49
aVFullback
p50
aVProp
p51
aVFullback
p52
aVWing
p53
aVProp
p54
aVLock
p55
aVCentre
p56
aVWing
p57
aVWing
p58
aVFlanker
p59
aVCentre
p60
aVFly-half
p61
aVWing-forward
p62
aVProp
p63
aVLock
p64
aVProp
p65
aVFlanker
p66
aVWing-forward
p67
aVFive-eighth
p68
aVFlanker
p69
aVProp
p70
aVFullback
p71
aVLock
p72
aVProp
p73
aVWing
p74
aVLock
p75
aVWing
p76
aVFive-eighth
p77
aVLock
p78
aVFullback
p79
aVFlanker
p80
aVLock
p81
aVWing
p82
aVWing
p83
aVFive-eighth
p84
aVWing-forward
p85
aVCentre
p86
aVProp
p87
aVWing
p88
aVProp
p89
aVLock
p90
aVCentre
p91
aVFlanker
p92
aVScrum-half
p93
aVLock
p94
aVProp
p95
aVFly-half
p96
aVLock
p97
aVProp
p98
aVWing
p99
aVLock
p100
aVFive-eighth
p101
aVWing
p102
aVWing-forward
p103
aVFullback
p104
aVLock
p105
aVFly-half
p106
aVProp
p107
aVLock
p108
aVFly-half
p109
aVFlanker
p110
aVLock
p111
aVFullback
p112
aVScrum-half
p113
aVCentre
p114
aVFly-half
p115
aVFlanker
p116
aVWing-forward
p117
aVProp
p118
aVProp
p119
aVFullback
p120
aVLock
p121
aVScrum-half
p122
aVFive-eighth
p123
aVLock
p124
aVWing
p125
aVWing
p126
aVFlanker
p127
aVLock
p128
aVFlanker
p129
aVFly-half
p130
aVFlanker
p131
aVFive-eighth
p132
aVWing
p133
aVLock
p134
aVFive-eighth
p135
aVFlanker
p136
aVScrum-half
p137
aVProp
p138
aVWing
p139
aVProp
p140
aVCentre
p141
aVLock
p142
aVFullback
p143
aVWing-forward
p144
aVWing
p145
aVLock
p146
aVFly-half
p147
aVScrum-half
p148
aVWing-forward
p149
aVLock
p150
aVCentre
p151
aVLock
p152
aVWing
p153
aVProp
p154
aVFlanker
p155
aVFly-half
p156
aVFullback
p157
aVWing
p158
aVWing-forward
p159
aVWing-forward
p160
aVFly-half
p161
aVProp
p162
aVFlanker
p163
aVFly-half
p164
aVLock
p165
aVProp
p166
aVWing
p167
aVLock
p168
aVCentre
p169
aVFive-eighth
p170
aVProp
p171
aVLock
p172
aVFlanker
p173
aVLock
p174
aVScrum-half
p175
aVWing
p176
aVCentre
p177
aVLock
p178
aVHooker
p179
aVWing-forward
p180
aVScrum-half
p181
aVFlanker
p182
aVWing
p183
aVWing
p184
aVLock
p185
aVScrum-half
p186
aVProp
p187
aVFlanker
p188
aVWing
p189
aVFullback
p190
aVProp
p191
aVLock
p192
aVNo. 8
p193
aVFly-half
p194
aVLock
p195
aVNo. 8
p196
aVWing
p197
aVCentre
p198
aVScrum-half
p199
aVFlanker
p200
aVFive-eighth
p201
aVWing
p202
aVLock
p203
aVFullback
p204
aVFive-eighth
p205
aVHooker
p206
aVLock
p207
aVProp
p208
aVFlanker
p209
aVFlanker
p210
aVFly-half
p211
aVWing
p212
aVLock
p213
aVNo. 8
p214
aVFullback
p215
aVNo. 8
p216
aVCentre
p217
aVLock
p218
aVScrum-half
p219
aVProp
p220
aVFly-half, Scrum-half
p221
aVProp
p222
aVFive-eighth
p223
aVNo. 8
p224
aVWing
p225
aVFlanker
p226
aVFly-half
p227
aVFlanker
p228
aVWing
p229
aVWing
p230
aVFive-eighth
p231
aVNo. 8
p232
aVScrum-half
p233
aVCentre
p234
aVFullback
p235
aVFly-half
p236
aVWing
p237
aVFly-half
p238
aVFlanker
p239
aVProp
p240
aVLock
p241
aVWing
p242
aVHooker
p243
aVScrum-half
p244
aVFive-eighth
p245
aVWing
p246
aVHooker
p247
aVWing
p248
aVNo. 8
p249
aVFive-eighth
p250
aVNo. 8
p251
aVLock
p252
aVScrum-half
p253
aVFlanker
p254
aVProp
p255
aVFullback
p256
aVCentre
p257
aVFlanker
p258
aVLock
p259
aVHooker
p260
aVWing
p261
aVLock
p262
aVCentre
p263
aVFlanker
p264
aVFly-half
p265
aVProp
p266
aVLock
p267
aVWing
p268
aVProp
p269
aVScrum-half
p270
aVNo. 8
p271
aVFly-half
p272
aVWing
p273
aVLock
p274
aVWing
p275
aVFlanker
p276
aVScrum-half
p277
aVProp
p278
aVNo. 8
p279
aVWing
p280
aVScrum-half
p281
aVFlanker
p282
aVLock
p283
aVFive-eighth
p284
aVHooker
p285
aVFullback
p286
aVFlanker
p287
aVWing
p288
aVProp
p289
aVFullback
p290
aVNo. 8
p291
aVLock
p292
aVProp
p293
aVScrum-half
p294
aVFlanker
p295
aVNo. 8
p296
aVFly-half
p297
aVProp
p298
aVFive-eighth
p299
aVProp
p300
aVCentre
p301
aVNo. 8
p302
aVFly-half
p303
aVWing
p304
aVFly-half
p305
aVNo. 8
p306
aVCentre
p307
aVFullback
p308
aVLock
p309
aVWing
p310
aVWing
p311
aVFive-eighth
p312
aVNo. 8
p313
aVFlanker
p314
aVScrum-half
p315
aVHooker
p316
aVWing
p317
aVProp
p318
aVCentre
p319
aVFive-eighth
p320
aVFly-half
p321
aVHooker
p322
aVNo. 8
p323
aVNo. 8
p324
aVScrum-half
p325
aVFullback
p326
aVFive-eighth
p327
aVScrum-half
p328
aVHooker
p329
aVFlanker
p330
aVFlanker
p331
aVProp
p332
aVLock
p333
aVFive-eighth
p334
aVHooker
p335
aVFly-half
p336
aVWing
p337
aVCentre
p338
aVFlanker
p339
aVProp
p340
aVFlanker
p341
aVFive-eighth
p342
aVFly-half
p343
aVNo. 8
p344
aVProp
p345
aVWing
p346
aVFullback
p347
aVScrum-half
p348
aVProp
p349
aVFullback
p350
aVFive-eighth
p351
aVWing
p352
aVFly-half
p353
aVFlanker
p354
aVLock
p355
aVFlanker
p356
aVScrum-half
p357
aVProp
p358
aVLock
p359
aVHooker
p360
aVFullback
p361
aVFive-eighth
p362
aVWing
p363
aVLock
p364
aVProp
p365
aVWing
p366
aVFlanker
p367
aVFlanker
p368
aVFullback
p369
aVFlanker
p370
aVWing
p371
aVFly-half
p372
aVFlanker
p373
aVFlanker
p374
aVWing
p375
aVScrum-half
p376
aVScrum-half
p377
aVWing
p378
aVNo. 8
p379
aVWing
p380
aVFly-half
p381
aVFlanker
p382
aVHooker
p383
aVCentre
p384
aVLock
p385
aVCentre
p386
aVFly-half
p387
aVFive-eighth
p388
aVScrum-half
p389
aVWing
p390
aVLock
p391
aVFly-half
p392
aVNo. 8
p393
aVCentre
p394
aVWing
p395
aVFlanker
p396
aVFly-half
p397
aVFive-eighth
p398
aVWing
p399
aVHooker
p400
aVProp
p401
aVNo. 8
p402
aVFly-half
p403
aVProp
p404
aVLock
p405
aVCentre
p406
aVFive-eighth
p407
aVWing
p408
aVProp
p409
aVNo. 8
p410
aVScrum-half
p411
aVFlanker
p412
aVFive-eighth
p413
aVHooker
p414
aVWing
p415
aVFullback
p416
aVFly-half
p417
aVCentre
p418
aVWing
p419
aVFullback
p420
aVProp
p421
aVFive-eighth
p422
aVWing
p423
aVCentre
p424
aVScrum-half
p425
aVHooker
p426
aVProp
p427
aVLock
p428
aVFly-half
p429
aVFlanker
p430
aVFlanker
p431
aVProp
p432
aVFive-eighth
p433
aVFlanker
p434
aVWing
p435
aVProp
p436
aVWing
p437
aVWing
p438
aVLock
p439
aVWing
p440
aVWing
p441
aVNo. 8
p442
aVFlanker
p443
aVWing
p444
aVProp
p445
a.