(lp1
(lp2
S'John Arthur'
p3
aS'1871'
p4
aS'Halfback'
p5
aS'Glasgow'
p6
aS'2'
aS'1'
aS'0'
aNaa(lp7
S'William Brown'
p8
aS'1871'
p9
aS'Fullback'
p10
aS'Glasgow'
p11
aS'5'
aS'1'
aS'0'
aNaa(lp12
S'Angus Buchanan'
p13
aS'1871'
p14
aS'Forward'
p15
aS'Inverary'
p16
aS'1'
aS'1'
aS'1'
aNaa(lp17
S'Tom Chalmers'
p18
aS'1871'
p19
aS'Fullback'
p20
aS'Glasgow'
p21
aS'6'
aS'1'
aS'0'
aNaa(lp22
S'Alfred Clunies-Ross'
p23
aS'1871'
p24
aS'Fullback'
p25
aS'Cocos Islands'
p26
aS'1'
aS'1'
aS'0'
aNaa(lp27
S'Andrew Colville'
p28
aS'1871'
p29
aS'Forward'
p30
aS'Edinburgh'
p31
aS'2'
aS'1'
aS'0'
aNaa(lp32
S'William Cross'
p33
aS'1871'
p34
aS'Halfback'
p35
aS'Glasgow'
p36
aS'2'
aS'1'
aS'1'
aNaa(lp37
S'Daniel Drew'
p38
aS'1871'
p39
aS'Forward'
p40
aS'Dunoon'
p41
aS'2'
aS'1'
aS'0'
aNaa(lp42
S'Jim Finlay'
p43
aS'1871'
p44
aS'Forward'
p45
aS'Edinburgh'
p46
aS'4'
aS'1'
aS'1'
aNaa(lp47
S'William Forsyth'
p48
aS'1871'
p49
aS'Forward'
p50
aS'Ross'
p51
aS'1'
aS'1'
aS'0'
aNaa(lp52
S'Bulldog Irvine'
p53
aS'1871'
p54
aS'Forward'
p55
aS'Blair Atholl'
p56
aS'13'
p57
aS'5'
aS'1'
aNaa(lp58
S'William Lyall'
p59
aS'1871'
p60
aS'Forward'
p61
aS"St Cuthbert's"
p62
aS'1'
aS'1'
aS'0'
aNaa(lp63
S'John MacFarlane'
p64
aS'1871'
p65
aS'Forward'
p66
aS'Montego Bay'
p67
aS'3'
aS'1'
aS'0'
aNaa(lp68
S'Thomas Marshall'
p69
aS'1871'
p70
aS'Three-quarters'
p71
aS'NHumb'
p72
aS'4'
aS'1'
aS'0'
aNaa(lp73
S'James Mein'
p74
aS'1871'
p75
aS'Forward'
p76
aS'Jedburgh'
p77
aS'5'
aS'1'
aS'0'
aNaa(lp78
S'Francis Moncreiff'
p79
aS'1871'
p80
aS'Forward'
p81
aS'Midlothian'
p82
aS'3'
aS'1'
aS'0'
aNaa(lp83
S'Robert Munro'
p84
aS'1871'
p85
aS'Forward'
p86
aS'?'
aS'1'
aS'1'
aS'0'
aNaa(lp87
S'George Ritchie'
p88
aS'1871'
p89
aS'Forward'
p90
aS'Edinburgh'
p91
aS'1'
aS'1'
aS'0'
aNaa(lp92
S'Alexander Robertson'
p93
aS'1871'
p94
aS'Forward'
p95
aS'Ayr'
p96
aS'1'
aS'1'
aS'0'
aNaa(lp97
S'John Thomson'
p98
aS'1871'
p99
aS'Forward'
p100
aS'?'
aS'1'
aS'1'
aS'0'
aNaa(lp101
S'John Anderson'
p102
aS'1872'
p103
aS'Forward'
p104
aS'Edinburgh'
p105
aS'1'
aS'0'
aS'0'
aNaa(lp106
S'Leslie Balfour-Melville'
p107
aS'1872'
p108
aS'Fullback'
p109
aS'Edinburgh'
p110
aS'1'
aS'0'
aS'0'
aNaa(lp111
S'Edward Bannerman'
p112
aS'1872'
p113
aS'Forward'
p114
aS'Aberdeenshire'
p115
aS'2'
aS'0'
aS'0'
aNaa(lp116
S'Charles Cathcart'
p117
aS'1872'
p118
aS'Forward'
p119
aS'Edinburgh'
p120
aS'3'
aS'0'
aS'0'
aNaa(lp121
S'James McClure'
p122
aS'1872'
p123
aS'Forward'
p124
aS'Glasgow'
p125
aS'1'
aS'0'
aS'0'
aNaa(lp126
S'Reginald Maitland'
p127
aS'1872'
p128
aS'Three-quarters'
p129
aS'Hants'
p130
aS'1'
aS'0'
aS'0'
aNaa(lp131
S'William Marshall'
p132
aS'1872'
p133
aS'Forward'
p134
aS'?'
aS'1'
aS'0'
aS'0'
aNaa(lp135
S'Frederick Maxwell'
p136
aS'1872'
p137
aS'Forward'
p138
aS'Devonport'
p139
aS'1'
aS'0'
aS'0'
aNaa(lp140
S'Henry Renny-Tailyour'
p141
aS'1872'
p142
aS'Forward'
p143
aS'Mussorrie'
p144
aS'1'
aS'0'
aS'0'
aNaa(lp145
S'Henry Allan'
p146
aS'1873'
p147
aS'Forward'
p148
aS'Glasgow'
p149
aS'1'
aS'0'
aS'0'
aNaa(lp150
S'Peter Anton'
p151
aS'1873'
p152
aS'Forward'
p153
aS'Errol'
p154
aS'1'
aS'0'
aS'0'
aNaa(lp155
S'Charles Bryce'
p156
aS'1873'
p157
aS'Forward'
p158
aS'Glasgow'
p159
aS'2'
aS'0'
aS'0'
aNaa(lp160
S'John Davidson'
p161
aS'1873'
p162
aS'Forward'
p163
aS'Banchory'
p164
aS'2'
aS'0'
aS'0'
aNaa(lp165
S'William Grant'
p166
aS'1873'
p167
aS'Halfback'
p168
aS'Bengal'
p169
aS'2'
aS'0'
aS'0'
aNaa(lp170
S'George McClure'
p171
aS'1873'
p172
aS'Three-quarters'
p173
aS'Glasgow'
p174
aS'1'
aS'0'
aS'0'
aNaa(lp175
S'Alexander Petrie'
p176
aS'1873'
p177
aS'Forward'
p178
aS'Birkenhead'
p179
aS'11'
p180
aS'4'
aS'0'
aNaa(lp181
S'James Sanderson'
p182
aS'1873'
p183
aS'Fullback'
p184
aS'Madras'
p185
aS'1'
aS'0'
aS'0'
aNaa(lp186
S'Tom Whittington'
p187
aS'1873'
p188
aS'Forward'
p189
aS'Neath'
p190
aS'1'
aS'0'
aS'0'
aNaa(lp191
S'Robert Wilson'
p192
aS'1873'
p193
aS'Forward'
p194
aS'?'
aS'2'
aS'0'
aS'0'
aNaa(lp195
S'Alexander Wood'
p196
aS'1873'
p197
aS'Forward'
p198
aS'Kincardin'
p199
aS'3'
aS'0'
aS'0'
aNaa(lp200
S'Hugh Hamilton'
p201
aS'1874'
p202
aS'Three-quarters'
p203
aS'New South Wales'
p204
aS'2'
aS'0'
aS'0'
aNaa(lp205
S'Gilbert Heron'
p206
aS'1874'
p207
aS'Forward'
p208
aS'?'
aS'2'
aS'0'
aS'0'
aNaa(lp209
S'William Kidston'
p210
aS'1874'
p211
aS'Three-quarters'
p212
aS'Glasgow'
p213
aS'1'
aS'0'
aS'0'
aNaa(lp214
S'Tom Neilson'
p215
aS'1874'
p216
aS'Forward'
p217
aS'?'
aS'1'
aS'0'
aS'0'
aNaa(lp218
S'James Reid'
p219
aS'1874'
p220
aS'Forward'
p221
aS'?'
aS'5'
aS'2'
aS'1'
aNaa(lp222
S'Alexander Stewart'
p223
aS'1874'
p224
aS'Halfback'
p225
aS'Bombay'
p226
aS'2'
aS'0'
aS'0'
aNaa(lp227
S'John Tod'
p228
aS'1874'
p229
aS'Forward'
p230
aS'Glasgow'
p231
aS'2'
aS'0'
aS'0'
aNaa(lp232
S'Arthur Young'
p233
aS'1874'
p234
aS'Forward'
p235
aS'1855'
p236
aS'1'
aS'0'
aS'0'
aNaa(lp237
S'Allan Arthur'
p238
aS'1875'
p239
aS'Forward'
p240
aS'?'
aS'2'
aS'0'
aS'0'
aNaa(lp241
S'Malcolm Cross'
p242
aS'1875'
p243
aS'Three-quarters'
p244
aS'Glasgow'
p245
aS'9'
aS'4'
aS'0'
aNaa(lp246
S'James Dunlop'
p247
aS'1875'
p248
aS'Forward'
p249
aS'?'
aS'1'
aS'0'
aS'0'
aNaa(lp250
S'Alec Finlay'
p251
aS'1875'
p252
aS'Forward'
p253
aS'?'
aS'1'
aS'0'
aS'0'
aNaa(lp254
S'Ninian Finlay'
p255
aS'1875'
p256
aS'Three-quarters'
p257
aS'Edinburgh'
p258
aS'9'
aS'2'
aS'0'
aNaa(lp259
S'George Fleming'
p260
aS'1875'
p261
aS'Forward'
p262
aS'Renfrew'
p263
aS'2'
aS'0'
aS'0'
aNaa(lp264
S'John Gordon'
p265
aS'1875'
p266
aS'Halfback'
p267
aS'Clerkenwell'
p268
aS'3'
aS'2'
aS'0'
aNaa(lp269
S'Arthur Marshall'
p270
aS'1875'
p271
aS'Forward'
p272
aS'?'
aS'1'
aS'0'
aS'0'
aNaa(lp273
S'Duncan Robertson'
p274
aS'1875'
p275
aS'Forward'
p276
aS'?'
aS'1'
aS'0'
aS'0'
aNaa(lp277
S'William Bolton'
p278
aS'1876'
p279
aS'Forward'
p280
aS'Stirling'
p281
aS'1'
aS'0'
aS'0'
aNaa(lp282
S'Nat Brewis'
p283
aS'1876'
p284
aS'Forward'
p285
aS'Nthb'
p286
aS'6'
aS'2'
aS'0'
aNaa(lp287
S'James Carrick'
p288
aS'1876'
p289
aS'Fullback'
p290
aS'Glasgow'
p291
aS'2'
aS'1'
aS'0'
aNaa(lp292
S'Gussie Graham'
p293
aS'1876'
p294
aS'Forward'
p295
aS'Middlebie'
p296
aS'10'
p297
aS'4'
aS'1'
aNaa(lp298
S'John Junor'
p299
aS'1876'
p300
aS'Forward'
p301
aS'Glasgow'
p302
aS'6'
aS'2'
aS'0'
aNaa(lp303
S'David Lang'
p304
aS'1876'
p305
aS'Forward'
p306
aS'Paisley'
p307
aS'2'
aS'1'
aS'0'
aNaa(lp308
S'George Paterson'
p309
aS'1876'
p310
aS'Halfback'
p311
aS'Bangalore'
p312
aS'1'
aS'0'
aS'0'
aNaa(lp313
S'Charles Villar'
p314
aS'1876'
p315
aS'Forward'
p316
aS'Cheltenham'
p317
aS'3'
aS'2'
aS'0'
aNaa(lp318
S'David Watson'
p319
aS'1876'
p320
aS'Forward'
p321
aS'Glasgow'
p322
aS'3'
aS'2'
aS'0'
aNaa(lp323
S'Henry Johnston'
p324
aS'1877'
p325
aS'Fullback'
p326
aS'Kirkwall'
p327
aS'2'
aS'2'
aS'0'
aNaa(lp328
S'Robert Mackenzie'
p329
aS'1877'
p330
aS'Three-quarters'
p331
aS'Glasgow'
p332
aS'4'
aS'2'
aS'3'
aNaa(lp333
S'Henry Napier'
p334
aS'1877'
p335
aS'Forward'
p336
aS'Glasgow'
p337
aS'5'
aS'3'
aS'0'
aNaa(lp338
S'Edward Pocock'
p339
aS'1877'
p340
aS'Three-quarters'
p341
aS'Clifton'
p342
aS'2'
aS'2'
aS'1'
aNaa(lp343
S'Stewart Smith'
p344
aS'1877'
p345
aS'Forward'
p346
aS'Glasgow'
p347
aS'2'
aS'1'
aS'0'
aNaa(lp348
S'Thomas Torrie'
p349
aS'1877'
p350
aS'Forward'
p351
aS'Edinburgh'
p352
aS'1'
aS'1'
aS'0'
aNaa(lp353
S'Louis Auldjo'
p354
aS'1878'
p355
aS'Forward'
p356
aS'Cawnpore'
p357
aS'1'
aS'0'
aS'0'
aNaa(lp358
S'James Campbell'
p359
aS'1878'
p360
aS'Halfback'
p361
aS'Lake Athabasca'
p362
aS'5'
aS'1'
aS'0'
aNaa(lp363
S'Duncan Irvine'
p364
aS'1878'
p365
aS'Forward'
p366
aS'Perthshire'
p367
aS'3'
aS'1'
aS'0'
aNaa(lp368
S'Bill Maclagan'
p369
aS'1878'
p370
aS'Three-quarters'
p371
aS'Edinburgh'
p372
aS'29'
p373
aS'18'
p374
aS'4'
aS'2'
aa(lp375
S'George MacLeod'
p376
aS'1878'
p377
aS'Forward'
p378
aS'Midlothian'
p379
aS'2'
aS'1'
aS'0'
aNaa(lp380
S'John Neilson'
p381
aS'1878'
p382
aS'Halfback'
p383
aS'Glasgow'
p384
aS'2'
aS'0'
aS'0'
aNaa(lp385
S'Bob Ainslie'
p386
aS'1879'
p387
aS'Forward'
p388
aS'Lasswade'
p389
aS'7'
aS'4'
aS'3'
aNaa(lp390
S'John Brown'
p391
aS'1879'
p392
aS'Forward'
p393
aS'Glasgow'
p394
aS'19'
p395
aS'12'
p396
aS'2'
aNaa(lp397
S'William Masters'
p398
aS'1879'
p399
aS'Halfback'
p400
aS'Edinburgh'
p401
aS'3'
aS'2'
aS'1'
aNaa(lp402
S'Errol Smith'
p403
aS'1879'
p404
aS'Forward'
p405
aS'Edinburgh'
p406
aS'1'
aS'1'
aS'0'
aNaa(lp407
S'D. Somerville'
p408
aS'1879'
p409
aS'Forward'
p410
aS'?'
aS'6'
aS'5'
aS'2'
aNaa(lp411
S'Edward Ewart'
p412
aS'1879'
p413
aS'Forward'
p414
aS'Moffat'
p415
aS'3'
aS'1'
aS'2'
aNaa(lp416
S'William Brown'
p417
aS'1880'
p418
aS'Halfback'
p419
aS'Glasgow'
p420
aS'6'
aS'4'
aS'2'
aNaa(lp421
S'David McCowan'
p422
aS'1880'
p423
aS'Forward'
p424
aS'Ayr'
p425
aS'10'
p426
aS'5'
aS'1'
aNaa(lp427
S'Charles Stewart'
p428
aS'1880'
p429
aS'Forward'
p430
aS'Glasgow'
p431
aS'2'
aS'1'
aS'0'
aNaa(lp432
S'Jack Tait'
p433
aS'1880'
p434
aS'Forward'
p435
aS'Edinburgh'
p436
aS'2'
aS'2'
aS'0'
aNaa(lp437
S'David Cassels'
p438
aS'1880'
p439
aS'Forward'
p440
aS'Shettleston'
p441
aS'7'
aS'4'
aS'0'
aNaa(lp442
S'Bryce Allan'
p443
aS'1881'
p444
aS'Forward'
p445
aS'Glasgow'
p446
aS'1'
aS'0'
aS'0'
aNaa(lp447
S'Thomas Begbie'
p448
aS'1881'
p449
aS'Fullback'
p450
aS'E Lothian'
p451
aS'2'
aS'0'
aS'0'
aNaa(lp452
S'Charlie Reid'
p453
aS'1881'
p454
aS'Forward'
p455
aS'Lochwinnoch'
p456
aS'21'
p457
aS'13'
p458
aS'4'
aNaa(lp459
S'George Robb'
p460
aS'1881'
p461
aS'Forward'
p462
aS'Glasgow'
p463
aS'2'
aS'0'
aS'0'
aNaa(lp464
S'Pat Smeaton'
p465
aS'1881'
p466
aS'Halfback'
p467
aS'Kincardine'
p468
aS'3'
aS'1'
aS'0'
aNaa(lp469
S'Archibald Walker'
p470
aS'1881'
p471
aS'Forward'
p472
aS'Glasgow'
p473
aS'5'
aS'3'
aS'0'
aNaa(lp474
S'Tom Ainslie'
p475
aS'1881'
p476
aS'Forward'
p477
aS'Lasswade'
p478
aS'12'
p479
aS'8'
aS'1'
aNaa(lp480
S'James Fraser'
p481
aS'1881'
p482
aS'Forward'
p483
aS'Hull'
p484
aS'1'
aS'0'
aS'0'
aNaa(lp485
S'Robert Maitland'
p486
aS'1881'
p487
aS'Forward'
p488
aS'Alloa'
p489
aS'5'
aS'3'
aS'0'
aNaa(lp490
S'William Peterkin'
p491
aS'1881'
p492
aS'Forward'
p493
aS'Edinburgh'
p494
aS'8'
aS'5'
aS'2'
aNaa(lp495
S'Bunny Wauchope'
p496
aS'1881'
p497
aS'Halfback'
p498
aS'Glasgow'
p499
aS'13'
p500
aS'9'
aS'6'
aNaa(lp501
S'Tom Anderson'
p502
aS'1882'
p503
aS'Fullback'
p504
aS'Ledcamerock'
p505
aS'1'
aS'1'
aS'0'
aNaa(lp506
S'Fraser Gore'
p507
aS'1882'
p508
aS'Forward'
p509
aS'?'
aS'1'
aS'1'
aS'0'
aNaa(lp510
S'Augustus Grant-Asher'
p511
aS'1882'
p512
aS'Halfback'
p513
aS'Poona'
p514
aS'7'
aS'4'
aS'1'
aNaa(lp515
S'Frank Hunter'
p516
aS'1882'
p517
aS'Three-quarters'
p518
aS'?'
aS'1'
aS'1'
aS'0'
aNaa(lp519
S'Andrew Philp'
p520
aS'1882'
p521
aS'Three-quarters'
p522
aS'?'
aS'1'
aS'1'
aS'0'
aNaa(lp523
S'James Veitch'
p524
aS'1882'
p525
aS'Fullback'
p526
aS'Penicuik'
p527
aS'8'
aS'6'
aS'0'
aNaa(lp528
S'James Walker'
p529
aS'1882'
p530
aS'Forward'
p531
aS'Glasgow'
p532
aS'2'
aS'2'
aS'0'
aNaa(lp533
S'Andrew Walls'
p534
aS'1882'
p535
aS'Forward'
p536
aS'Glasgow'
p537
aS'10'
p538
aS'7'
aS'0'
aNaa(lp539
S'John Jamieson'
p540
aS'1883'
p541
aS'Forward'
p542
aS'?'
aS'9'
aS'6'
aS'2'
aNaa(lp543
S'David Kidston'
p544
aS'1883'
p545
aS'Fullback'
p546
aS'Glasgow'
p547
aS'2'
aS'1'
aS'0'
aNaa(lp548
S'David McFarlan'
p549
aS'1883'
p550
aS'Three-quarters'
p551
aS'Meerut'
p552
aS'8'
aS'7'
aS'4'
aNaa(lp553
S'John Mowat'
p554
aS'1883'
p555
aS'Forward'
p556
aS'Glasgow'
p557
aS'2'
aS'1'
aS'0'
aNaa(lp558
S'George Aitchison'
p559
aS'1883'
p560
aS'Halfback'
p561
aS'Edinburgh'
p562
aS'1'
aS'1'
aS'0'
aNaa(lp563
S'Marshall Reid'
p564
aS'1883'
p565
aS'Three-quarters'
p566
aS'Partick'
p567
aS'2'
aS'1'
aS'0'
aNaa(lp568
S'George Lindsay'
p569
aS'1884'
p570
aS'Three-quarters'
p571
aS'1863'
p572
aS'4'
aS'3'
aS'5'
aNaa(lp573
S'John Tod'
p574
aS'1884'
p575
aS'Forward'
p576
aS'Perth'
p577
aS'9'
aS'6'
aS'2'
aNaa(lp578
S'Charles Berry'
p579
aS'1884'
p580
aS'Forward'
p581
aS'Fife'
p582
aS'9'
aS'5'
aS'0'
aNaa(lp583
S'Ernest Roland'
p584
aS'1884'
p585
aS'Three-quarters'
p586
aS'Edinburgh'
p587
aS'2'
aS'1'
aS'0'
aNaa(lp588
S'Pat Harrower'
p589
aS'1885'
p590
aS'Fullback'
p591
aS'Broughty Ferry'
p592
aS'1'
aS'0'
aS'0'
aNaa(lp593
S'Gardyne Maitland'
p594
aS'1885'
p595
aS'Three-quarters'
p596
aS'Alloa'
p597
aS'2'
aS'1'
aS'0'
aNaa(lp598
S'Gordon Mitchell'
p599
aS'1885'
p600
aS'Forward'
p601
aS'Hamilton'
p602
aS'3'
aS'2'
aS'0'
aNaa(lp603
S'Alexander Stephen'
p604
aS'1885'
p605
aS'Three-quarters'
p606
aS'Glasgow'
p607
aS'2'
aS'1'
aS'0'
aNaa(lp608
S'Henry Evans'
p609
aS'1885'
p610
aS'Three-quarters'
p611
aS'Clifton'
p612
aS'2'
aS'2'
aS'0'
aNaa(lp613
S'Walter Irvine'
p614
aS'1885'
p615
aS'Forward'
p616
aS'Aberdeenshre'
p617
aS'11'
p618
aS'8'
aS'0'
aNaa(lp619
S'Patrick Wauchope'
p620
aS'1885'
p621
aS'Halfback'
p622
aS'Midlothian'
p623
aS'6'
aS'5'
aS'1'
aNaa(lp624
S'Alexander Clay'
p625
aS'1886'
p626
aS'Forward'
p627
aS'Kelso'
p628
aS'7'
aS'4'
aS'1'
aNaa(lp629
S'J. French'
p630
aS'1886'
p631
aS'Forward'
p632
aS'?'
aS'4'
aS'3'
aS'0'
aNaa(lp633
S'William Holms'
p634
aS'1886'
p635
aS'Three-quarters'
p636
aS'Thox'
p637
aS'6'
aS'4'
aS'0'
aNaa(lp638
S'Flowerdew McIndoe'
p639
aS'1886'
p640
aS'Fullback'
p641
aS'Hamilton'
p642
aS'2'
aS'2'
aS'0'
aNaa(lp643
S'William MacLeod'
p644
aS'1886'
p645
aS'Forward'
p646
aS'Glasgow'
p647
aS'2'
aS'2'
aS'0'
aNaa(lp648
S'Charles Milne'
p649
aS'1886'
p650
aS'Forward'
p651
aS'Kingston'
p652
aS'3'
aS'2'
aS'0'
aNaa(lp653
S'Reggie Morrison'
p654
aS'1886'
p655
aS'Three-quarters'
p656
aS'Vic'
p657
aS'3'
aS'2'
aS'2'
aNaa(lp658
S'Duncan MacLeod'
p659
aS'1886'
p660
aS'Forward'
p661
aS'Berwick'
p662
aS'2'
aS'1'
aS'0'
aNaa(lp663
S'Matthew McEwan'
p664
aS'1886'
p665
aS'Forward'
p666
aS'Ayr'
p667
aS'15'
p668
aS'10'
p669
aS'2'
aS'7'
aa(lp670
S'George Wilson'
p671
aS'1886'
p672
aS'Three-quarters'
p673
aS'?'
aS'5'
aS'3'
aS'0'
aS'0'
aa(lp674
S'Hugh Ker'
p675
aS'1887'
p676
aS'Forward'
p677
aS'Partick'
p678
aS'7'
aS'5'
aS'1'
aS'0'
aa(lp679
S'Judy MacMillan'
p680
aS'1887'
p681
aS'Forward'
p682
aS'Edinburgh'
p683
aS'24'
p684
aS'17'
p685
aS'1'
aS'0'
aa(lp686
S'David Morton'
p687
aS'1887'
p688
aS'Forward'
p689
aS'Glasgow'
p690
aS'9'
aS'6'
aS'3'
aS'0'
aa(lp691
S'Charles Orr'
p692
aS'1887'
p693
aS'Halfback'
p694
aS'Neilston'
p695
aS'16'
p696
aS'12'
p697
aS'3'
aS'1'
aa(lp698
S'Alexander Woodrow'
p699
aS'1887'
p700
aS'Three-quarters'
p701
aS'Glasgow'
p702
aS'3'
aS'2'
aS'0'
aNaa(lp703
S'Alec Cameron'
p704
aS'1887'
p705
aS'Fullback'
p706
aS'Oban'
p707
aS'3'
aS'1'
aS'0'
aS'0'
aa(lp708
S'Henry Chambers'
p709
aS'1888'
p710
aS'Fullback'
p711
aS'Victoria'
p712
aS'4'
aS'3'
aS'0'
aNaa(lp713
S'Alfred Duke'
p714
aS'1888'
p715
aS'Forward'
p716
aS'Forfar'
p717
aS'6'
aS'5'
aS'0'
aS'0'
aa(lp718
S'Macbeth Duncan'
p719
aS'1888'
p720
aS'Three-quarters'
p721
aS'Aberdeen'
p722
aS'1'
aS'0'
aS'0'
aNaa(lp723
S'Charles Fraser'
p724
aS'1888'
p725
aS'Halfback'
p726
aS'Paisley'
p727
aS'2'
aS'1'
aS'0'
aNaa(lp728
S'Harry Stevenson'
p729
aS'1888'
p730
aS'Fullback'
p731
aS'Edinburgh'
p732
aS'15'
p733
aS'11'
p734
aS'0'
aS'3'
aa(lp735
S'Louis Stevenson'
p736
aS'1888'
p737
aS'Forward'
p738
aS'Jedburgh'
p739
aS'1'
aS'0'
aS'0'
aNaa(lp740
S'Tom White'
p741
aS'1888'
p742
aS'Forward'
p743
aS'Cumnock'
p744
aS'3'
aS'2'
aS'0'
aNaa(lp745
S'Alexander Malcolm'
p746
aS'1888'
p747
aS'Forward'
p748
aS'Glasgow'
p749
aS'1'
aS'1'
aS'0'
aNaa(lp750
S'Bill Auld'
p751
aS'1889'
p752
aS'Forward'
p753
aS'?'
aS'2'
aS'2'
aS'0'
aS'0'
aa(lp754
S'John Boswell'
p755
aS'1889'
p756
aS'Forward'
p757
aS'Garallan'
p758
aS'15'
p759
aS'11'
p760
aS'5'
aS'26'
p761
aa(lp762
S'William Macdonald'
p763
aS'1889'
p764
aS'Forward'
p765
aS'Inverness'
p766
aS'3'
aS'2'
aS'0'
aS'0'
aa(lp767
S'James Marsh'
p768
aS'1889'
p769
aS'Three-quarters'
p770
aS'?'
aS'3'
aS'3'
aS'0'
aS'0'
aa(lp771
S'Alfred Methuen'
p772
aS'1889'
p773
aS'Forward'
p774
aS'1868'
p775
aS'2'
aS'2'
aS'0'
aNaa(lp776
S'Alexander Aitken'
p777
aS'1889'
p778
aS'Forward'
p779
aS'Edinburgh'
p780
aS'1'
aS'1'
aS'0'
aNaa(lp781
S'Darsie Anderson'
p782
aS'1889'
p783
aS'Halfback'
p784
aS'Kent'
p785
aS'8'
aS'6'
aS'1'
aS'1'
aa(lp786
S'J.G. McKendrick'
p787
aS'1889'
p788
aS'Forward'
p789
aS'?'
aS'1'
aS'1'
aS'0'
aNaa(lp790
S'Jack Orr'
p791
aS'1889'
p792
aS'Forward'
p793
aS'Neilston'
p794
aS'12'
p795
aS'9'
aS'3'
aS'4'
aa(lp796
S'Adam Dalgleish'
p797
aS'1890'
p798
aS'Forward'
p799
aS'Bellingham'
p800
aS'8'
aS'4'
aS'0'
aS'0'
aa(lp801
S'Frederick Goodhue'
p802
aS'1890'
p803
aS'Forward'
p804
aS'ON'
p805
aS'9'
aS'7'
aS'1'
aS'1'
aa(lp806
S'Gregor MacGregor'
p807
aS'1890'
p808
aS'Three-quarters'
p809
aS'Edinburgh'
p810
aS'13'
p811
aS'8'
aS'1'
aS'5'
aa(lp812
S'Ian MacIntyre'
p813
aS'1890'
p814
aS'Forward'
p815
aS'?'
aS'6'
aS'5'
aS'0'
aS'0'
aa(lp816
S'Paul Clauss'
p817
aS'1891'
p818
aS'Three-quarters'
p819
aS'Munich'
p820
aS'9'
aS'8'
aS'3'
aS'6'
aa(lp821
S'Herbert Leggatt'
p822
aS'1891'
p823
aS'Forward'
p824
aS'East Indie'
p825
aS'9'
aS'7'
aS'1'
aS'1'
aa(lp826
S'George Neilson'
p827
aS'1891'
p828
aS'Forward'
p829
aS'Glasgow'
p830
aS'14'
p831
aS'8'
aS'1'
aS'6'
aa(lp832
S'William Neilson'
p833
aS'1891'
p834
aS'Three-quarters'
p835
aS'Bothwell'
p836
aS'14'
p837
aS'10'
p838
aS'1'
aS'4'
aa(lp839
S'William Gibson'
p840
aS'1891'
p841
aS'Forward'
p842
aS'Edinburgh'
p843
aS'14'
p844
aS'9'
aS'0'
aS'0'
aa(lp845
S'William Wotherspoon'
p846
aS'1891'
p847
aS'Halfback'
p848
aS'Fife'
p849
aS'8'
aS'5'
aS'3'
aS'3'
aa(lp850
S'George Campbell'
p851
aS'1892'
p852
aS'Centre'
p853
aS'Sussex'
p854
aS'17'
p855
aS'9'
aS'2'
aS'9'
aa(lp856
S'John Millar'
p857
aS'1892'
p858
aS'Forward'
p859
aS'?'
aS'6'
aS'4'
aS'1'
aS'2'
aa(lp860
S'Nelson Henderson'
p861
aS'1892'
p862
aS'Forward'
p863
aS'London'
p864
aS'1'
aS'1'
aS'0'
aS'0'
aa(lp865
S'James Woodburn'
p866
aS'1892'
p867
aS'Three-quarters'
p868
aS'Glasgow'
p869
aS'1'
aS'1'
aS'0'
aS'0'
aa(lp870
S'William Cownie'
p871
aS'1893'
p872
aS'Forward'
p873
aS'Edinburgh'
p874
aS'9'
aS'5'
aS'0'
aS'0'
aa(lp875
S'James Gowans'
p876
aS'1893'
p877
aS'Wing'
p878
aS'Durham'
p879
aS'8'
aS'5'
aS'2'
aS'6'
aa(lp880
S'Robert Greig'
p881
aS'1893'
p882
aS'Halfback'
p883
aS'Glasgow'
p884
aS'2'
aS'1'
aS'0'
aS'0'
aa(lp885
S'Thomas Hendry'
p886
aS'1893'
p887
aS'Forward'
p888
aS'Glasgow'
p889
aS'4'
aS'2'
aS'0'
aS'0'
aa(lp890
S'Henry Menzies'
p891
aS'1893'
p892
aS'Forward'
p893
aS'ON'
p894
aS'4'
aS'1'
aS'0'
aS'0'
aa(lp895
S'David Robertson'
p896
aS'1893'
p897
aS'Three-quarters'
p898
aS'Glasgow'
p899
aS'1'
aS'0'
aS'0'
aS'0'
aa(lp900
S'James Bishop'
p901
aS'1893'
p902
aS'Forward'
p903
aS'Glasgow'
p904
aS'1'
aS'0'
aS'0'
aS'0'
aa(lp905
S'William Donaldson'
p906
aS'1893'
p907
aS'Halfback'
p908
aS'Glasgow'
p909
aS'6'
aS'2'
aS'0'
aS'3'
aa(lp910
S'D. Fisher'
p911
aS'1893'
p912
aS'Forward'
p913
aS'?'
aS'1'
aS'0'
aS'0'
aS'0'
aa(lp914
S'Jim Ford'
p915
aS'1893'
p916
aS'Forward'
p917
aS'?'
aS'1'
aS'0'
aS'0'
aS'0'
aa(lp918
S'John Simpson'
p919
aS'1893'
p920
aS'Halfback'
p921
aS'?'
aS'13'
p922
aS'7'
aS'0'
aS'0'
aa(lp923
S'Roger Davidson'
p924
aS'1893'
p925
aS'Forward'
p926
aS'Kinfauns'
p927
aS'1'
aS'1'
aS'0'
aS'0'
aa(lp928
S'Tom Scott'
p929
aS'1893'
p930
aS'Forward'
p931
aS'Melrose'
p932
aS'12'
p933
aS'7'
aS'0'
aS'9'
aa(lp934
S'Henry Gedge'
p935
aS'1894'
p936
aS'Wing'
p937
aS'London'
p938
aS'6'
aS'4'
aS'2'
aS'10'
p939
aa(lp940
S'Willie McEwan'
p941
aS'1894'
p942
aS'Forward'
p943
aS'Edinburgh'
p944
aS'18'
p945
aS'9'
aS'1'
aS'3'
aa(lp946
S'John Rogerson'
p947
aS'1894'
p948
aS'Fullback'
p949
aS'?'
aS'1'
aS'0'
aS'0'
aS'0'
aa(lp950
S'Hugh Wright'
p951
aS'1894'
p952
aS'Forward'
p953
aS'Inverary'
p954
aS'1'
aS'0'
aS'0'
aS'0'
aa(lp955
S'Alexander Anderson'
p956
aS'1894'
p957
aS'Forward'
p958
aS'?'
aS'1'
aS'0'
aS'0'
aS'0'
aa(lp959
S'Gordon Neilson'
p960
aS'1894'
p961
aS'Forward'
p962
aS'Bothwell'
p963
aS'1'
aS'1'
aS'0'
aS'0'
aa(lp964
S'Harry Dods'
p965
aS'1895'
p966
aS'Forward'
p967
aS'Glasgow'
p968
aS'8'
aS'5'
aS'0'
aS'0'
aa(lp969
S'Mattha Elliot'
p970
aS'1895'
p971
aS'Halfback'
p972
aS'Hawick'
p973
aS'6'
aS'4'
aS'0'
aS'0'
aa(lp974
S'Allan Smith'
p975
aS'1895'
p976
aS'Fullback'
p977
aS'?'
aS'11'
p978
aS'5'
aS'0'
aS'2'
aa(lp979
S'Harry Smith'
p980
aS'1895'
p981
aS'Forward'
p982
aS'N Berwick'
p983
aS'11'
p984
aS'5'
aS'1'
aS'3'
aa(lp985
S'Robin Welsh'
p986
aS'1895'
p987
aS'Wing'
p988
aS'Edinburgh'
p989
aS'4'
aS'3'
aS'1'
aS'3'
aa(lp990
S'Andrew Balfour'
p991
aS'1896'
p992
aS'Forward'
p993
aS'Edinburgh'
p994
aS'4'
aS'1'
aS'0'
aS'0'
aa(lp995
S'James Couper'
p996
aS'1896'
p997
aS'Forward'
p998
aS'Glasgow'
p999
aS'3'
aS'0'
aS'0'
aS'0'
aa(lp1000
S'Mark Morrison'
p1001
aS'1896'
p1002
aS'Forward'
p1003
aS'Dalmeny'
p1004
aS'26'
p1005
aS'12'
p1006
aS'0'
aS'0'
aa(lp1007
S'Davie Patterson'
p1008
aS'1896'
p1009
aS'Halfback'
p1010
aS'Hawick'
p1011
aS'1'
aS'0'
aS'0'
aS'0'
aa(lp1012
S'Tom Scott'
p1013
aS'1896'
p1014
aS'Wing'
p1015
aS'?'
aS'11'
p1016
aS'4'
aS'2'
aS'6'
aa(lp1017
S'Alec Timms'
p1018
aS'1896'
p1019
aS'Centre'
p1020
aS'Vic'
p1021
aS'17'
p1022
aS'11'
p1023
aS'4'
aS'19'
p1024
aa(lp1025
S'Charles Fleming'
p1026
aS'1896'
p1027
aS'Centre'
p1028
aS'1868'
p1029
aS'3'
aS'2'
aS'1'
aS'3'
aa(lp1030
S'George Turnbull'
p1031
aS'1896'
p1032
aS'Forward'
p1033
aS'?'
aS'5'
aS'2'
aS'1'
aS'3'
aa(lp1034
S'Alec Laidlaw'
p1035
aS'1897'
p1036
aS'Forward'
p1037
aS'Edinburgh'
p1038
aS'1'
aS'1'
aS'0'
aS'0'
aa(lp1039
S'Ronald Stevenson'
p1040
aS'1897'
p1041
aS'Forward'
p1042
aS'South Shields'
p1043
aS'6'
aS'3'
aS'0'
aS'0'
aa(lp1044
S'Alfred Bucher'
p1045
aS'1897'
p1046
aS'Wing'
p1047
aS'Edinburgh'
p1048
aS'4'
aS'2'
aS'4'
aS'12'
p1049
aa(lp1050
S'Alec Robertson'
p1051
aS'1897'
p1052
aS'Centre'
p1053
aS'Edinburgh'
p1054
aS'1'
aS'0'
aS'0'
aS'0'
aa(lp1055
S'John Dykes'
p1056
aS'1898'
p1057
aS'Forward'
p1058
aS'Glasgow'
p1059
aS'10'
p1060
aS'6'
aS'1'
aS'3'
aa(lp1061
S'Graham Kerr'
p1062
aS'1898'
p1063
aS'Forward'
p1064
aS'Aberdeen'
p1065
aS'8'
aS'3'
aS'0'
aS'0'
aa(lp1066
S'Joe Mabon'
p1067
aS'1898'
p1068
aS'Halfback'
p1069
aS'Jedburgh'
p1070
aS'4'
aS'1'
aS'0'
aS'0'
aa(lp1071
S'Andrew MacKinnon'
p1072
aS'1898'
p1073
aS'Forward'
p1074
aS'Glasgow'
p1075
aS'6'
aS'3'
aS'0'
aS'0'
aa(lp1076
S'Robbie Neilson'
p1077
aS'1898'
p1078
aS'Halfback'
p1079
aS'Bothwell'
p1080
aS'6'
aS'2'
aS'0'
aS'0'
aa(lp1081
S'James Reid'
p1082
aS'1898'
p1083
aS'Fullback'
p1084
aS'?'
aS'3'
aS'1'
aS'0'
aS'0'
aa(lp1085
S'Robert Scott'
p1086
aS'1898'
p1087
aS'Forward'
p1088
aS'?'
aS'3'
aS'1'
aS'0'
aS'0'
aa(lp1089
S'Edward Spencer'
p1090
aS'1898'
p1091
aS'Centre'
p1092
aS'?'
aS'1'
aS'1'
aS'0'
aS'0'
aa(lp1093
S'Tommy Nelson'
p1094
aS'1898'
p1095
aS'Centre'
p1096
aS'Edinburgh'
p1097
aS'1'
aS'0'
aS'0'
aS'0'
aa(lp1098
S'Lawrence Harvey'
p1099
aS'1899'
p1100
aS'Forward'
p1101
aS'Glasgow'
p1102
aS'1'
aS'0'
aS'0'
aS'0'
aa(lp1103
S'Douglas Monypenny'
p1104
aS'1899'
p1105
aS'Centre'
p1106
aS'Fife'
p1107
aS'3'
aS'2'
aS'1'
aS'3'
aa(lp1108
S'George Lamond'
p1109
aS'1899'
p1110
aS'Centre'
p1111
aS'Glasgow'
p1112
aS'3'
aS'3'
aS'0'
aS'4'
aa(lp1113
S'Harry Rottenburg'
p1114
aS'1899'
p1115
aS'Fullback'
p1116
aS'Glasgow'
p1117
aS'5'
aS'2'
aS'0'
aS'0'
aa(lp1118
S'William Thomson'
p1119
aS'1899'
p1120
aS'Forward'
p1121
aS'Glasgow'
p1122
aS'3'
aS'2'
aS'0'
aS'6'
aa(lp1123
S'John Gillespie'
p1124
aS'1899'
p1125
aS'Halfback'
p1126
aS'Edinburgh'
p1127
aS'13'
p1128
aS'6'
aS'5'
aS'31'
p1129
aa(lp1130
S'David Bedell-Sivright'
p1131
aS'1900'
p1132
aS'Forward'
p1133
aS'Edinburgh'
p1134
aS'23'
p1135
aS'13'
p1136
aS'3'
aS'9'
aa(lp1137
S'Jack Crabbie'
p1138
aS'1900'
p1139
aS'Wing'
p1140
aS'Edinburgh'
p1141
aS'6'
aS'3'
aS'2'
aS'6'
aa(lp1142
S'Frank Fasson'
p1143
aS'1900'
p1144
aS'Halfback'
p1145
aS'Peebles'
p1146
aS'5'
aS'2'
aS'0'
aS'0'
aa(lp1147
S'Frederick Henderson'
p1148
aS'1900'
p1149
aS'Forward'
p1150
aS'Dundee'
p1151
aS'2'
aS'0'
aS'0'
aS'0'
aa(lp1152
S'William Morrison'
p1153
aS'1900'
p1154
aS'Centre'
p1155
aS'Edinburgh'
p1156
aS'1'
aS'0'
aS'0'
aS'0'
aa(lp1157
S'John Campbell'
p1158
aS'1900'
p1159
aS'Forward'
p1160
aS'Las Flores'
p1161
aS'1'
aS'0'
aS'0'
aS'0'
aa(lp1162
S'James Greenlees'
p1163
aS'1900'
p1164
aS'Forward'
p1165
aS'Glasgow'
p1166
aS'7'
aS'3'
aS'0'
aS'0'
aa(lp1167
S'Bill Scott'
p1168
aS'1900'
p1169
aS'Forward'
p1170
aS'Wishaw'
p1171
aS'24'
p1172
aS'11'
p1173
aS'0'
aS'2'
aa(lp1174
S'William Welsh'
p1175
aS'1900'
p1176
aS'Wing'
p1177
aS'Edinburgh'
p1178
aS'8'
aS'3'
aS'4'
aS'12'
p1179
aa(lp1180
S'Lewis Bell'
p1181
aS'1900'
p1182
aS'Forward'
p1183
aS'Edinburgh'
p1184
aS'3'
aS'1'
aS'0'
aS'0'
aa(lp1185
S'John Bell'
p1186
aS'1901'
p1187
aS'Forward'
p1188
aS'Airdrie'
p1189
aS'6'
aS'3'
aS'0'
aS'0'
aa(lp1190
S'Alexander Duncan'
p1191
aS'1901'
p1192
aS'Fullback'
p1193
aS'Midlothian'
p1194
aS'6'
aS'3'
aS'0'
aS'0'
aa(lp1195
S'Nolan Fell'
p1196
aS'1901'
p1197
aS'Wing'
p1198
aS'Nelson'
p1199
aS'7'
aS'5'
aS'2'
aS'6'
aa(lp1200
S'Andrew Flett'
p1201
aS'1901'
p1202
aS'Forward'
p1203
aS'Edinburgh'
p1204
aS'5'
aS'3'
aS'1'
aS'5'
aa(lp1205
S'Alex Frew'
p1206
aS'1901'
p1207
aS'Forward'
p1208
aS'Ayrshire'
p1209
aS'4'
aS'3'
aS'1'
aS'3'
aa(lp1210
S'Jimmy Ross'
p1211
aS'1901'
p1212
aS'Forward'
p1213
aS'Roxburgh'
p1214
aS'5'
aS'4'
aS'0'
aS'0'
aa(lp1215
S'Robert Stronach'
p1216
aS'1901'
p1217
aS'Forward'
p1218
aS'Partick'
p1219
aS'5'
aS'3'
aS'1'
aS'3'
aa(lp1220
S'Phipps Turnbull'
p1221
aS'1901'
p1222
aS'Centre'
p1223
aS'?'
aS'6'
aS'3'
aS'1'
aS'3'
aa(lp1224
S'Francis Dods'
p1225
aS'1901'
p1226
aS'Forward'
p1227
aS'Glasgow'
p1228
aS'1'
aS'1'
aS'0'
aS'0'
aa(lp1229
S'Robert Neill'
p1230
aS'1901'
p1231
aS'Fullback'
p1232
aS'Edinburgh'
p1233
aS'4'
aS'1'
aS'0'
aS'0'
aa(lp1234
S'John Bedell-Sivright'
p1235
aS'1902'
p1236
aS'Forward'
p1237
aS'Inverkeithing'
p1238
aS'1'
aS'0'
aS'0'
aS'0'
aa(lp1239
S'Bill Kyle'
p1240
aS'1902'
p1241
aS'Forward'
p1242
aS'Hawick'
p1243
aS'21'
p1244
aS'10'
p1245
aS'2'
aS'6'
aa(lp1246
S'Herbert Bullmore'
p1247
aS'1902'
p1248
aS'Forward'
p1249
aS'Qld'
p1250
aS'1'
aS'0'
aS'0'
aS'0'
aa(lp1251
S'Andrew Drybrough'
p1252
aS'1902'
p1253
aS'Centre'
p1254
aS'Edinburgh'
p1255
aS'2'
aS'1'
aS'0'
aS'0'
aa(lp1256
S'Ernest Simson'
p1257
aS'1902'
p1258
aS'Halfback'
p1259
aS'Edinburgh'
p1260
aS'17'
p1261
aS'10'
p1262
aS'4'
aS'16'
p1263
aa(lp1264
S'Fatty Cairns'
p1265
aS'1903'
p1266
aS'Forward'
p1267
aS'Hamilton'
p1268
aS'12'
p1269
aS'7'
aS'0'
aS'0'
aa(lp1270
S'Walter Forrest'
p1271
aS'1903'
p1272
aS'Fullback'
p1273
aS'Kelso'
p1274
aS'8'
aS'5'
aS'0'
aS'2'
aa(lp1275
S'Norman Kennedy'
p1276
aS'1903'
p1277
aS'Lock'
p1278
aS'Ayr'
p1279
aS'3'
aS'3'
aS'0'
aS'0'
aa(lp1280
S'John Knox'
p1281
aS'1903'
p1282
aS'Scrum-half'
p1283
aS'?'
aS'3'
aS'3'
aS'0'
aS'0'
aa(lp1284
S'Hugh Orr'
p1285
aS'1903'
p1286
aS'Centre'
p1287
aS'Dineliquin'
p1288
aS'5'
aS'4'
aS'1'
aS'3'
aa(lp1289
S'Leonard West'
p1290
aS'1903'
p1291
aS'Forward'
p1292
aS'?'
aS'9'
aS'5'
aS'0'
aS'0'
aa(lp1293
S'Charles France'
p1294
aS'1903'
p1295
aS'Wing'
p1296
aS'?'
aS'1'
aS'1'
aS'0'
aS'0'
aa(lp1297
S'Jack Dallas'
p1298
aS'1903'
p1299
aS'Forward'
p1300
aS'Edinburgh'
p1301
aS'1'
aS'1'
aS'1'
aS'3'
aa(lp1302
S'Jimmy Macdonald'
p1303
aS'1903'
p1304
aS'Wing'
p1305
aS'Stellenbosch'
p1306
aS'5'
aS'3'
aS'2'
aS'10'
p1307
aa(lp1308
S'Alexander Bisset'
p1309
aS'1904'
p1310
aS'Halfback'
p1311
aS'Duns'
p1312
aS'1'
aS'0'
aS'0'
aS'0'
aa(lp1313
S'George Crabbie'
p1314
aS'1904'
p1315
aS'Wing'
p1316
aS'Edinburgh'
p1317
aS'1'
aS'0'
aS'0'
aS'0'
aa(lp1318
S'Lewis MacLeod'
p1319
aS'1904'
p1320
aS'Centre'
p1321
aS'?'
aS'6'
aS'2'
aS'0'
aS'0'
aa(lp1322
S'Edward Ross'
p1323
aS'1904'
p1324
aS'Forward'
p1325
aS'?'
aS'1'
aS'0'
aS'0'
aS'0'
aa(lp1326
S'William Milne'
p1327
aS'1904'
p1328
aS'Forward'
p1329
aS'Glasgow'
p1330
aS'4'
aS'2'
aS'0'
aS'0'
aa(lp1331
S'Joseph Waters'
p1332
aS'1904'
p1333
aS'Forward'
p1334
aS'Dunoon'
p1335
aS'2'
aS'2'
aS'0'
aS'0'
aa(lp1336
S'Hugh Fletcher'
p1337
aS'1904'
p1338
aS'Forward'
p1339
aS'Norwich'
p1340
aS'2'
aS'1'
aS'0'
aS'0'
aa(lp1341
S'John Forbes'
p1342
aS'1905'
p1343
aS'Centre'
p1344
aS'Edinburgh'
p1345
aS'3'
aS'1'
aS'0'
aS'0'
aa(lp1346
S'Ned Little'
p1347
aS'1905'
p1348
aS'Forward'
p1349
aS'Hawick'
p1350
aS'1'
aS'0'
aS'1'
aS'3'
aa(lp1351
S'Pat Munro'
p1352
aS'1905'
p1353
aS'Halfback'
p1354
aS'Leeds'
p1355
aS'13'
p1356
aS'5'
aS'2'
aS'14'
p1357
aa(lp1358
S'Andrew Ross'
p1359
aS'1905'
p1360
aS'Forward'
p1361
aS'Edinburgh'
p1362
aS'5'
aS'2'
aS'0'
aS'0'
aa(lp1363
S'Maurice Dickson'
p1364
aS'1905'
p1365
aS'Forward'
p1366
aS'Angus'
p1367
aS'1'
aS'0'
aS'0'
aS'0'
aa(lp1368
S'Harold McCowat'
p1369
aS'1905'
p1370
aS'Wing'
p1371
aS'Durban'
p1372
aS'1'
aS'0'
aS'0'
aS'0'
aa(lp1373
S'William Ritchie'
p1374
aS'1905'
p1375
aS'Wing'
p1376
aS'Dunedin'
p1377
aS'2'
aS'1'
aS'0'
aS'0'
aa(lp1378
S'Tom Elliot'
p1379
aS'1905'
p1380
aS'Wing'
p1381
aS'?'
aS'1'
aS'1'
aS'0'
aS'0'
aa(lp1382
S'John MacCallum'
p1383
aS'1905'
p1384
aS'Forward'
p1385
aS'?'
aS'26'
p1386
aS'13'
p1387
aS'2'
aS'24'
p1388
aa(lp1389
S'Hugh Monteith'
p1390
aS'1905'
p1391
aS'Forward'
p1392
aS'Dumfriesshi'
p1393
aS'8'
aS'6'
aS'1'
aS'3'
aa(lp1394
S'Douglas Schulze'
p1395
aS'1905'
p1396
aS'Fullback'
p1397
aS'Glasgow'
p1398
aS'13'
p1399
aS'7'
aS'0'
aS'4'
aa(lp1400
S'Louis Greig'
p1401
aS'1903'
p1402
aS'Halfback'
p1403
aS'Glasgow'
p1404
aS'8'
aS'2'
aS'0'
aS'0'
aa(lp1405
S'James Mackenzie'
p1406
aS'1905'
p1407
aS'Forward'
p1408
aS'Sunderland'
p1409
aS'9'
aS'3'
aS'0'
aS'0'
aa(lp1410
S'Ken MacLeod'
p1411
aS'1905'
p1412
aS'Wing'
p1413
aS'Dumba'
p1414
aS'10'
p1415
aS'6'
aS'4'
aS'25'
p1416
aa(lp1417
S'William Russell'
p1418
aS'1905'
p1419
aS'Flanker'
p1420
aS'?'
aS'4'
aS'1'
aS'0'
aS'0'
aa(lp1421
S'John Scoular'
p1422
aS'1905'
p1423
aS'Fullback'
p1424
aS'Whitehaven'
p1425
aS'5'
aS'2'
aS'0'
aS'0'
aa(lp1426
S'John Simson'
p1427
aS'1905'
p1428
aS'Wing'
p1429
aS'?'
aS'7'
aS'3'
aS'2'
aS'6'
aa(lp1430
S'Tennant Sloan'
p1431
aS'1905'
p1432
aS'Centre'
p1433
aS'Glasgow'
p1434
aS'7'
aS'4'
aS'0'
aS'0'
aa(lp1435
S'Bill Church'
p1436
aS'1906'
p1437
aS'Centre'
p1438
aS'Glasgow'
p1439
aS'1'
aS'0'
aS'0'
aS'0'
aa(lp1440
S'Alec Purves'
p1441
aS'1906'
p1442
aS'Wing'
p1443
aS'Kingston-upon-Thames'
p1444
aS'10'
p1445
aS'6'
aS'6'
aS'22'
p1446
aa(lp1447
S'Maurie Walter'
p1448
aS'1906'
p1449
aS'Centre'
p1450
aS'Yokohama'
p1451
aS'8'
aS'5'
aS'2'
aS'6'
aa(lp1452
S'George Frew'
p1453
aS'1906'
p1454
aS'Forward'
p1455
aS'Larkhall'
p1456
aS'15'
p1457
aS'9'
aS'1'
aS'3'
aa(lp1458
S'Campbell Geddes'
p1459
aS'1906'
p1460
aS'Forward'
p1461
aS'Hampstead'
p1462
aS'6'
aS'5'
aS'0'
aS'10'
p1463
aa(lp1464
S'Louis Speirs'
p1465
aS'1906'
p1466
aS'Forward'
p1467
aS'Edinburgh'
p1468
aS'10'
p1469
aS'6'
aS'0'
aS'0'
aa(lp1470
S'William Thomson'
p1471
aS'1906'
p1472
aS'Forward'
p1473
aS'Lancs'
p1474
aS'1'
aS'1'
aS'0'
aS'0'
aa(lp1475
S'Duncan MacGregor'
p1476
aS'1907'
p1477
aS'Centre'
p1478
aS'Pontypridd'
p1479
aS'3'
aS'3'
aS'0'
aS'0'
aa(lp1480
S'George Sanderson'
p1481
aS'1907'
p1482
aS'Forward'
p1483
aS'Edinburgh'
p1484
aS'4'
aS'3'
aS'1'
aS'3'
aa(lp1485
S'Jock Scott'
p1486
aS'1907'
p1487
aS'Flanker'
p1488
aS'Edinburgh'
p1489
aS'21'
p1490
aS'8'
aS'1'
aS'3'
aa(lp1491
S'J.A. Brown'
p1492
aS'1908'
p1493
aS'Hooker'
p1494
aS'date unknown'
p1495
aS'2'
aS'0'
aS'0'
aS'0'
aa(lp1496
S'George Cunningham'
p1497
aS'1908'
p1498
aS'Halfback'
p1499
aS'Broughty Ferry'
p1500
aS'8'
aS'3'
aS'0'
aS'11'
p1501
aa(lp1502
S'Geoffrey Gowlland'
p1503
aS'1908'
p1504
aS'Forward'
p1505
aS'Ealing'
p1506
aS'7'
aS'3'
aS'1'
aS'3'
aa(lp1507
S'Hugh Martin'
p1508
aS'1908'
p1509
aS'Wing'
p1510
aS'Edinburgh'
p1511
aS'5'
aS'2'
aS'1'
aS'3'
aa(lp1512
S'John Wilson'
p1513
aS'1908'
p1514
aS'Forward'
p1515
aS'Trinidad'
p1516
aS'2'
aS'0'
aS'0'
aS'0'
aa(lp1517
S'Colin Gilray'
p1518
aS'1905'
p1519
aS'Wing'
p1520
aS'Broughty Ferry'
p1521
aS'5'
aS'3'
aS'1'
aS'3'
aa(lp1522
S'James Robertson'
p1523
aS'1908'
p1524
aS'Fly-half'
p1525
aS'?'
aS'1'
aS'1'
aS'0'
aS'0'
aa(lp1526
S'Lewis Robertson'
p1527
aS'1908'
p1528
aS'Forward'
p1529
aS'Hawthornden'
p1530
aS'9'
aS'3'
aS'0'
aS'0'
aa(lp1531
S'Albert Wade'
p1532
aS'1908'
p1533
aS'Scrum-half'
p1534
aS'Glasgow'
p1535
aS'1'
aS'1'
aS'0'
aS'0'
aa(lp1536
S'Gus Angus'
p1537
aS'1909'
p1538
aS'Centre'
p1539
aS'NSW'
p1540
aS'18'
p1541
aS'7'
aS'3'
aS'9'
aa(lp1542
S'Jim Tennent'
p1543
aS'1909'
p1544
aS'Halfback'
p1545
aS'Glasgow'
p1546
aS'6'
aS'3'
aS'5'
aS'15'
p1547
aa(lp1548
S'William Lely'
p1549
aS'1909'
p1550
aS'Prop'
p1551
aS'London'
p1552
aS'1'
aS'1'
aS'0'
aS'0'
aa(lp1553
S'Robert Lindsay-Watson'
p1554
aS'1909'
p1555
aS'Wing'
p1556
aS'Hawick'
p1557
aS'1'
aS'1'
aS'1'
aS'3'
aa(lp1558
S'John MacGregor'
p1559
aS'1909'
p1560
aS'Fly-half'
p1561
aS'Pontypridd'
p1562
aS'1'
aS'1'
aS'1'
aS'3'
aa(lp1563
S'Jimmy Pearson'
p1564
aS'1909'
p1565
aS'Centre'
p1566
aS'Edinburgh'
p1567
aS'12'
p1568
aS'6'
aS'1'
aS'10'
p1569
aa(lp1570
S'Charles Stuart'
p1571
aS'1909'
p1572
aS'Forward'
p1573
aS'Glasgow'
p1574
aS'7'
aS'3'
aS'1'
aS'3'
aa(lp1575
S'Alexander Moodie'
p1576
aS'1909'
p1577
aS'Forward'
p1578
aS'Dundee'
p1579
aS'3'
aS'2'
aS'0'
aS'0'
aa(lp1580
S'James Reid-Kerr'
p1581
aS'1909'
p1582
aS'Forward'
p1583
aS'Greenock'
p1584
aS'1'
aS'1'
aS'0'
aS'0'
aa(lp1585
S'Fletcher Buchanan'
p1586
aS'1910'
p1587
aS'Centre'
p1588
aS'Glasgow'
p1589
aS'3'
aS'1'
aS'0'
aS'0'
aa(lp1590
S'Ian Robertson'
p1591
aS'1910'
p1592
aS'Wing'
p1593
aS'?'
aS'1'
aS'1'
aS'2'
aS'6'
aa(lp1594
S'Robert Stevenson'
p1595
aS'1910'
p1596
aS'Forward'
p1597
aS'Perth'
p1598
aS'9'
aS'3'
aS'0'
aS'0'
aa(lp1599
S'Puss Milroy'
p1600
aS'1910'
p1601
aS'Scrum-half'
p1602
aS'Edinburgh'
p1603
aS'12'
p1604
aS'3'
aS'1'
aS'3'
aa(lp1605
S'Walter Sutherland'
p1606
aS'1910'
p1607
aS'Wing'
p1608
aS'Hawick'
p1609
aS'13'
p1610
aS'4'
aS'4'
aS'12'
p1611
aa(lp1612
S'Cecil Abercrombie'
p1613
aS'1910'
p1614
aS'Forward'
p1615
aS'Mozufferpore'
p1616
aS'6'
aS'2'
aS'1'
aS'3'
aa(lp1617
S'Jimmy Dobson'
p1618
aS'1910'
p1619
aS'Wing'
p1620
aS'Glasgow'
p1621
aS'1'
aS'1'
aS'1'
aS'3'
aa(lp1622
S'Andrew Lindsay'
p1623
aS'1910'
p1624
aS'Scrum-half'
p1625
aS'Otepopo'
p1626
aS'2'
aS'1'
aS'0'
aS'0'
aa(lp1627
S'Donald Macpherson'
p1628
aS'1905'
p1629
aS'Wing'
p1630
aS'Waimate'
p1631
aS'3'
aS'2'
aS'1'
aS'3'
aa(lp1632
S'Rowland Fraser'
p1633
aS'1911'
p1634
aS'Prop'
p1635
aS'Perth'
p1636
aS'4'
aS'0'
aS'0'
aS'0'
aa(lp1637
S'Frank Osler'
p1638
aS'1911'
p1639
aS'Scrum-half'
p1640
aS'Riversdale'
p1641
aS'2'
aS'0'
aS'0'
aS'0'
aa(lp1642
S'Alexander Stevenson'
p1643
aS'1911'
p1644
aS'Forward'
p1645
aS'Glasgow'
p1646
aS'1'
aS'0'
aS'0'
aS'0'
aa(lp1647
S'Borth Todd'
p1648
aS'1911'
p1649
aS'Fullback'
p1650
aS'Peebles'
p1651
aS'1'
aS'0'
aS'0'
aS'0'
aa(lp1652
S'Freddie Turner'
p1653
aS'1911'
p1654
aS'Flanker'
p1655
aS'Liverpool'
p1656
aS'15'
p1657
aS'4'
aS'3'
aS'37'
p1658
aa(lp1659
S'Thomas Young'
p1660
aS'1911'
p1661
aS'Centre'
p1662
aS'Hartlepool'
p1663
aS'1'
aS'0'
aS'0'
aS'0'
aa(lp1664
S'Donald Grant'
p1665
aS'1911'
p1666
aS'Wing'
p1667
aS'Burma'
p1668
aS'2'
aS'0'
aS'0'
aS'0'
aa(lp1669
S'John Macdonald'
p1670
aS'1911'
p1671
aS'Wing'
p1672
aS'?'
aS'1'
aS'0'
aS'0'
aS'0'
aa(lp1673
S'Andrew Ross'
p1674
aS'1911'
p1675
aS'Lock'
p1676
aS'Edinbu'
p1677
aS'4'
aS'0'
aS'0'
aS'0'
aa(lp1678
S'Andrew Greig'
p1679
aS'1911'
p1680
aS'Fullback'
p1681
aS'Glasgow'
p1682
aS'1'
aS'0'
aS'0'
aS'0'
aa(lp1683
S'Carl Ogilvy'
p1684
aS'1911'
p1685
aS'Fullback'
p1686
aS'?'
aS'3'
aS'0'
aS'0'
aS'0'
aa(lp1687
S'David Bain'
p1688
aS'1911'
p1689
aS'Prop'
p1690
aS'Edinburgh'
p1691
aS'11'
p1692
aS'4'
aS'0'
aS'0'
aa(lp1693
S'John Dobson'
p1694
aS'1911'
p1695
aS'Hooker'
p1696
aS'?'
aS'6'
aS'2'
aS'0'
aS'0'
aa(lp1697
S'JY Henderson'
p1698
aS'1911'
p1699
aS'Fly-half'
p1700
aS'Edinburgh'
p1701
aS'1'
aS'0'
aS'0'
aS'0'
aa(lp1702
S'William Hutchison'
p1703
aS'1911'
p1704
aS'Lock'
p1705
aS'Glasgow'
p1706
aS'1'
aS'0'
aS'0'
aS'0'
aa(lp1707
S'Ronald Simson'
p1708
aS'1911'
p1709
aS'Centre'
p1710
aS'Edinburgh'
p1711
aS'1'
aS'0'
aS'1'
aS'3'
aa(lp1712
S'Stephen Steyn'
p1713
aS'1911'
p1714
aS'Wing'
p1715
aS'Moorreesburg'
p1716
aS'2'
aS'0'
aS'0'
aS'0'
aa(lp1717
S'Mike Dickson'
p1718
aS'1912'
p1719
aS'Fullback'
p1720
aS'1884'
p1721
aS'7'
aS'4'
aS'0'
aS'0'
aa(lp1722
S'Sandy Gunn'
p1723
aS'1912'
p1724
aS'Fly-half'
p1725
aS'Pontypool'
p1726
aS'5'
aS'2'
aS'1'
aS'3'
aa(lp1727
S'Colin Hill'
p1728
aS'1912'
p1729
aS'Forward'
p1730
aS'Fife'
p1731
aS'2'
aS'1'
aS'0'
aS'0'
aa(lp1732
S'Dave Howie'
p1733
aS'1912'
p1734
aS'Lock'
p1735
aS'Mid'
p1736
aS'7'
aS'3'
aS'0'
aS'0'
aa(lp1737
S'Jenny Hume'
p1738
aS'1912'
p1739
aS'Scrum-half'
p1740
aS'Edinburgh'
p1741
aS'7'
aS'3'
aS'1'
aS'3'
aa(lp1742
S'William Purves'
p1743
aS'1912'
p1744
aS'Lock'
p1745
aS'Wimbledon'
p1746
aS'6'
aS'2'
aS'1'
aS'3'
aa(lp1747
S'Robert Robertson'
p1748
aS'1912'
p1749
aS'Forward'
p1750
aS'?'
aS'1'
aS'1'
aS'0'
aS'0'
aa(lp1751
S'George Will'
p1752
aS'1912'
p1753
aS'Wing'
p1754
aS'Croydon'
p1755
aS'7'
aS'2'
aS'5'
aS'15'
p1756
aa(lp1757
S'James Boyd'
p1758
aS'1912'
p1759
aS'Fly-half'
p1760
aS'Amoy'
p1761
aS'2'
aS'1'
aS'0'
aS'0'
aa(lp1762
S'Billy Burnet'
p1763
aS'1912'
p1764
aS'Centre'
p1765
aS'?'
aS'1'
aS'1'
aS'0'
aS'0'
aa(lp1766
S'Charlie Usher'
p1767
aS'1912'
p1768
aS'No. 8'
p1769
aS'?'
aS'16'
p1770
aS'8'
aS'2'
aS'6'
aa(lp1771
S'Patrick Blair'
p1772
aS'1912'
p1773
aS'Prop'
p1774
aS'Wanlockhead'
p1775
aS'5'
aS'2'
aS'0'
aS'0'
aa(lp1776
S'Roland Gordon'
p1777
aS'1913'
p1778
aS'Centre'
p1779
aS'Malaya'
p1780
aS'3'
aS'2'
aS'2'
aS'6'
aa(lp1781
S'George Ledingham'
p1782
aS'1913'
p1783
aS'Forward'
p1784
aS'Aberdeen'
p1785
aS'1'
aS'1'
aS'0'
aS'0'
aa(lp1786
S'John Macdougall'
p1787
aS'1913'
p1788
aS'Lock'
p1789
aS'Greenock'
p1790
aS'5'
aS'1'
aS'0'
aS'0'
aa(lp1791
S'Bill Stewart'
p1792
aS'1913'
p1793
aS'Wing'
p1794
aS'Tas'
p1795
aS'4'
aS'2'
aS'8'
aS'24'
p1796
aa(lp1797
S'Rufus Bruce-Lockhart'
p1798
aS'1913'
p1799
aS'Centre'
p1800
aS'Ayrshire'
p1801
aS'2'
aS'0'
aS'0'
aS'4'
aa(lp1802
S'Thomas Bowie'
p1803
aS'1913'
p1804
aS'Fly-half'
p1805
aS'Edinburgh'
p1806
aS'4'
aS'1'
aS'1'
aS'7'
aa(lp1807
S'George Maxwell'
p1808
aS'1913'
p1809
aS'Flanker'
p1810
aS'Edinburgh'
p1811
aS'13'
p1812
aS'3'
aS'0'
aS'7'
aa(lp1813
S'Eric Loudoun-Shand'
p1814
aS'1913'
p1815
aS'Centre'
p1816
aS'Lambeth'
p1817
aS'1'
aS'0'
aS'0'
aS'0'
aa(lp1818
S'John Sweet'
p1819
aS'1913'
p1820
aS'Wing'
p1821
aS'?'
aS'2'
aS'0'
aS'0'
aS'0'
aa(lp1822
S'Willie Wallace'
p1823
aS'1913'
p1824
aS'Fullback'
p1825
aS'Edinburgh'
p1826
aS'4'
aS'0'
aS'0'
aS'0'
aa(lp1827
S'David Donald'
p1828
aS'1914'
p1829
aS'Prop'
p1830
aS'?'
aS'2'
aS'0'
aS'0'
aS'0'
aa(lp1831
S'Andrew Hamilton'
p1832
aS'1914'
p1833
aS'Fly-half'
p1834
aS'Hamilton'
p1835
aS'2'
aS'1'
aS'0'
aS'0'
aa(lp1836
S'Podger Laing'
p1837
aS'1914'
p1838
aS'Lock'
p1839
aS'?'
aS'7'
aS'3'
aS'0'
aS'4'
aa(lp1840
S'Ronald Scobie'
p1841
aS'1914'
p1842
aS'Centre'
p1843
aS'?'
aS'3'
aS'0'
aS'0'
aS'0'
aa(lp1844
S'Allen Sloan'
p1845
aS'1914'
p1846
aS'Wing'
p1847
aS'Edinburgh'
p1848
aS'9'
aS'4'
aS'3'
aS'9'
aa(lp1849
S'Archibald Stewart'
p1850
aS'1914'
p1851
aS'Forward'
p1852
aS'Leith'
p1853
aS'1'
aS'0'
aS'0'
aS'0'
aa(lp1854
S'Archibald Symington'
p1855
aS'1914'
p1856
aS'Lock'
p1857
aS'Calcutta'
p1858
aS'2'
aS'0'
aS'0'
aS'0'
aa(lp1859
S'Jock Wemyss'
p1860
aS'1914'
p1861
aS'Prop'
p1862
aS'Galashiels'
p1863
aS'7'
aS'2'
aS'0'
aS'0'
aa(lp1864
S'Jack Warren'
p1865
aS'1914'
p1866
aS'Centre'
p1867
aS'Glasgow'
p1868
aS'1'
aS'0'
aS'0'
aS'0'
aa(lp1869
S'James Huggan'
p1870
aS'1914'
p1871
aS'Wing'
p1872
aS'Jedburgh'
p1873
aS'1'
aS'0'
aS'1'
aS'3'
aa(lp1874
S'Ian Moffat-Pender'
p1875
aS'1914'
p1876
aS'Prop'
p1877
aS'?'
aS'1'
aS'0'
aS'0'
aS'0'
aa(lp1878
S'Eric Young'
p1879
aS'1914'
p1880
aS'Flanker'
p1881
aS'?'
aS'1'
aS'0'
aS'0'
aS'0'
aa(lp1882
S'Gerard Crole'
p1883
aS'1920'
p1884
aS'Wing'
p1885
aS'Edinburgh'
p1886
aS'4'
aS'3'
aS'3'
aS'9'
aa(lp1887
S'Denoon Duncan'
p1888
aS'1920'
p1889
aS'Prop'
p1890
aS'1893'
p1891
aS'4'
aS'3'
aS'0'
aS'0'
aa(lp1892
S'Ernest Fahmy'
p1893
aS'1920'
p1894
aS'Centre'
p1895
aS'Amoy'
p1896
aS'4'
aS'3'
aS'0'
aS'0'
aa(lp1897
S'Bob Gallie'
p1898
aS'1920'
p1899
aS'Hooker'
p1900
aS'?'
aS'8'
aS'4'
aS'0'
aS'0'
aa(lp1901
S'Finlay Kennedy'
p1902
aS'1920'
p1903
aS'Prop'
p1904
aS'?'
aS'5'
aS'3'
aS'0'
aS'13'
p1905
aa(lp1906
S'Monty Murray'
p1907
aS'1920'
p1908
aS'Flanker'
p1909
aS'Glasgow'
p1910
aS'3'
aS'2'
aS'0'
aS'0'
aa(lp1911
S'George Pattullo'
p1912
aS'1920'
p1913
aS'Fullback'
p1914
aS'Ceylon'
p1915
aS'4'
aS'3'
aS'0'
aS'0'
aa(lp1916
S'George Thom'
p1917
aS'1920'
p1918
aS'Flanker'
p1919
aS'Fife'
p1920
aS'4'
aS'3'
aS'0'
aS'0'
aa(lp1921
S'Eric MacKay'
p1922
aS'1920'
p1923
aS'Wing'
p1924
aS'Glasgow'
p1925
aS'2'
aS'1'
aS'0'
aS'0'
aa(lp1926
S'Neil Macpherson'
p1927
aS'1920'
p1928
aS'Forward'
p1929
aS'Cardiff'
p1930
aS'11'
p1931
aS'3'
aS'0'
aS'0'
aa(lp1932
S'Jake Selby'
p1933
aS'1920'
p1934
aS'Scrum-half'
p1935
aS'Port William'
p1936
aS'2'
aS'2'
aS'0'
aS'0'
aa(lp1937
S'Arthur Browning'
p1938
aS'1920'
p1939
aS'Wing'
p1940
aS'Renfrew'
p1941
aS'7'
aS'4'
aS'5'
aS'22'
p1942
aa(lp1943
S'Charles Nimmo'
p1944
aS'1920'
p1945
aS'Scrum-half'
p1946
aS'Edinburgh'
p1947
aS'1'
aS'0'
aS'0'
aS'0'
aa(lp1948
S'John Bannerman'
p1949
aS'1921'
p1950
aS'Lock'
p1951
aS'Glasgow'
p1952
aS'37'
p1953
aS'22'
p1954
aS'2'
aS'6'
aa(lp1955
S'Jimmy Carmichael'
p1956
aS'1921'
p1957
aS'Wing'
p1958
aS'Edinburgh'
p1959
aS'3'
aS'1'
aS'0'
aS'0'
aa(lp1960
S'Ronald Cumming'
p1961
aS'1921'
p1962
aS'Prop'
p1963
aS'Speyside'
p1964
aS'2'
aS'1'
aS'0'
aS'0'
aa(lp1965
S'Hector Forsayth'
p1966
aS'1921'
p1967
aS'Fullback'
p1968
aS'NSW'
p1969
aS'7'
aS'2'
aS'0'
aS'0'
aa(lp1970
S'Leslie Gracie'
p1971
aS'1921'
p1972
aS'Centre'
p1973
aS'Ceylon'
p1974
aS'13'
p1975
aS'5'
aS'2'
aS'6'
aa(lp1976
S'Ian Kilgour'
p1977
aS'1921'
p1978
aS'Wing'
p1979
aS'?'
aS'1'
aS'0'
aS'0'
aS'0'
aa(lp1980
S'Alpin Thomson'
p1981
aS'1921'
p1982
aS'Centre'
p1983
aS'WA'
p1984
aS'3'
aS'1'
aS'1'
aS'3'
aa(lp1985
S'Rankin Buchanan'
p1986
aS'1921'
p1987
aS'Hooker'
p1988
aS'1896'
p1989
aS'16'
p1990
aS'9'
aS'1'
aS'3'
aa(lp1991
S'Russell Donald'
p1992
aS'1921'
p1993
aS'Fly-half'
p1994
aS'Glasgow'
p1995
aS'3'
aS'1'
aS'0'
aS'0'
aa(lp1996
S'George Douglas'
p1997
aS'1921'
p1998
aS'Lock'
p1999
aS'?'
aS'1'
aS'1'
aS'0'
aS'0'
aa(lp2000
S'Hamish Shaw'
p2001
aS'1921'
p2002
aS'No. 8'
p2003
aS'?'
aS'2'
aS'1'
aS'0'
aS'0'
aa(lp2004
S'John McCrow'
p2005
aS'1921'
p2006
aS'Wing'
p2007
aS'Chirnside'
p2008
aS'1'
aS'0'
aS'0'
aS'0'
aa(lp2009
S'George Murray'
p2010
aS'1921'
p2011
aS'Prop'
p2012
aS'Glasgow'
p2013
aS'2'
aS'1'
aS'0'
aS'0'
aa(lp2014
S'Jock Stewart'
p2015
aS'1921'
p2016
aS'Flanker'
p2017
aS'?'
aS'1'
aS'0'
aS'0'
aS'0'
aa(lp2018
S'Cecil Mackenzie'
p2019
aS'1921'
p2020
aS'Centre'
p2021
aS'1889'
p2022
aS'1'
aS'0'
aS'0'
aS'0'
aa(lp2023
S'David Bertram'
p2024
aS'1922'
p2025
aS'Hooker'
p2026
aS'Edinburgh'
p2027
aS'11'
p2028
aS'6'
aS'2'
aS'8'
aa(lp2029
S'Doug Davies'
p2030
aS'1922'
p2031
aS'No. 8'
p2032
aS'Ashkirk'
p2033
aS'24'
p2034
aS'12'
p2035
aS'0'
aS'3'
aa(lp2036
S'Jimmy Dykes'
p2037
aS'1922'
p2038
aS'Centre'
p2039
aS'Glasgow'
p2040
aS'20'
p2041
aS'14'
p2042
aS'3'
aS'20'
p2043
aa(lp2044
S'Bill Johnston'
p2045
aS'1922'
p2046
aS'Fullback'
p2047
aS'1896'
p2048
aS'1'
aS'0'
aS'0'
aS'0'
aa(lp2049
S'Jock Lawrie'
p2050
aS'1922'
p2051
aS'Flanker'
p2052
aS'Melrose'
p2053
aS'11'
p2054
aS'6'
aS'0'
aS'0'
aa(lp2055
S'Eric Liddell'
p2056
aS'1922'
p2057
aS'Wing'
p2058
aS'Tientsin'
p2059
aS'7'
aS'4'
aS'4'
aS'12'
p2060
aa(lp2061
S'Phil Macpherson'
p2062
aS'1922'
p2063
aS'Centre'
p2064
aS'Newtonmore'
p2065
aS'26'
p2066
aS'13'
p2067
aS'4'
aS'12'
p2068
aa(lp2069
S'Andrew Stevenson'
p2070
aS'1922'
p2071
aS'Prop'
p2072
aS'Glasgow'
p2073
aS'4'
aS'2'
aS'0'
aS'0'
aa(lp2074
S'Willie Bryce'
p2075
aS'1922'
p2076
aS'Scrum-half'
p2077
aS'Lancs'
p2078
aS'11'
p2079
aS'6'
aS'3'
aS'9'
aa(lp2080
S'William Dobson'
p2081
aS'1922'
p2082
aS'Prop'
p2083
aS'?'
aS'3'
aS'1'
aS'0'
aS'0'
aa(lp2084
S'Ronald Warren'
p2085
aS'1922'
p2086
aS'Fullback'
p2087
aS'Glasgow'
p2088
aS'5'
aS'2'
aS'0'
aS'0'
aa(lp2089
S'Jimmy Tolmie'
p2090
aS'1922'
p2091
aS'Wing'
p2092
aS'United States'
p2093
aS'1'
aS'0'
aS'0'
aS'0'
aa(lp2094
S'Dan Drysdale'
p2095
aS'1923'
p2096
aS'Fullback'
p2097
aS'Stirlingshire'
p2098
aS'30'
p2099
aS'18'
p2100
aS'0'
aS'45'
p2101
aa(lp2102
S'David Kerr'
p2103
aS'1923'
p2104
aS'Prop'
p2105
aS'?'
aS'10'
p2106
aS'5'
aS'2'
aS'6'
aa(lp2107
S'Teddy McLaren'
p2108
aS'1923'
p2109
aS'Centre'
p2110
aS'?'
aS'5'
aS'3'
aS'3'
aS'9'
aa(lp2111
S'Samuel McQueen'
p2112
aS'1923'
p2113
aS'Fly-half'
p2114
aS'Liverpool'
p2115
aS'4'
aS'3'
aS'1'
aS'3'
aa(lp2116
S'Ludo Stuart'
p2117
aS'1923'
p2118
aS'Lock'
p2119
aS'?'
aS'8'
aS'3'
aS'1'
aS'3'
aa(lp2120
S'Johnny Wallace'
p2121
aS'1921'
p2122
aS'Wing'
p2123
aS'NSW'
p2124
aS'17'
p2125
aS'11'
p2126
aS'16'
p2127
aS'48'
p2128
aa(lp2129
S'Robert Simpson'
p2130
aS'1923'
p2131
aS'Flanker'
p2132
aS'Glasgow'
p2133
aS'1'
aS'1'
aS'0'
aS'0'
aa(lp2134
S'Kelvin Hendrie'
p2135
aS'1924'
p2136
aS'No. 8'
p2137
aS'1898'
p2138
aS'4'
aS'2'
aS'0'
aS'0'
aa(lp2139
S'Bob Howie'
p2140
aS'1924'
p2141
aS'Prop'
p2142
aS'Gorebridge'
p2143
aS'11'
p2144
aS'5'
aS'0'
aS'0'
aa(lp2145
S'Chris Mackintosh'
p2146
aS'1924'
p2147
aS'Wing'
p2148
aS'Charville'
p2149
aS'1'
aS'0'
aS'0'
aS'0'
aa(lp2150
S'Andrew Ross'
p2151
aS'1924'
p2152
aS'Hooker'
p2153
aS'1904'
p2154
aS'2'
aS'1'
aS'0'
aS'0'
aa(lp2155
S'Herbert Waddell'
p2156
aS'1924'
p2157
aS'Fly-half'
p2158
aS'Glasgow'
p2159
aS'18'
p2160
aS'11'
p2161
aS'7'
aS'45'
p2162
aa(lp2163
S'George Aitken'
p2164
aS'1921'
p2165
aS'Centre'
p2166
aS'Westport'
p2167
aS'10'
p2168
aS'8'
aS'0'
aS'0'
aa(lp2169
S'Sandy Gillies'
p2170
aS'1924'
p2171
aS'No. 8'
p2172
aS'Argyll'
p2173
aS'12'
p2174
aS'10'
p2175
aS'1'
aS'26'
p2176
aa(lp2177
S'Ian Smith'
p2178
aS'1924'
p2179
aS'Wing'
p2180
aS'VIC'
p2181
aS'34'
p2182
aS'20'
p2183
aS'24'
p2184
aS'72'
p2185
aa(lp2186
S'Robert Henderson'
p2187
aS'1924'
p2188
aS'Forward'
p2189
aS'Coldstream'
p2190
aS'4'
aS'1'
aS'0'
aS'0'
aa(lp2191
S'Robert Millar'
p2192
aS'1924'
p2193
aS'Wing'
p2194
aS'?'
aS'1'
aS'1'
aS'0'
aS'0'
aa(lp2195
S'James Gilchrist'
p2196
aS'1925'
p2197
aS'Hooker'
p2198
aS'?'
aS'1'
aS'1'
aS'0'
aS'0'
aa(lp2199
S'David MacMyn'
p2200
aS'1925'
p2201
aS'Lock'
p2202
aS'Kirkcudbright'
p2203
aS'11'
p2204
aS'10'
p2205
aS'2'
aS'6'
aa(lp2206
S'Jimmy Nelson'
p2207
aS'1925'
p2208
aS'Scrum-half'
p2209
aS'Glasgow'
p2210
aS'25'
p2211
aS'15'
p2212
aS'2'
aS'6'
aa(lp2213
S'John Paterson'
p2214
aS'1925'
p2215
aS'Flanker'
p2216
aS'?'
aS'21'
p2217
aS'15'
p2218
aS'2'
aS'6'
aa(lp2219
S'James Scott'
p2220
aS'1925'
p2221
aS'Lock'
p2222
aS'?'
aS'18'
p2223
aS'13'
p2224
aS'2'
aS'6'
aa(lp2225
S'William Stevenson'
p2226
aS'1925'
p2227
aS'Prop'
p2228
aS'?'
aS'1'
aS'1'
aS'0'
aS'0'
aa(lp2229
S'Jimmie Ireland'
p2230
aS'1925'
p2231
aS'Hooker'
p2232
aS'Glasgow'
p2233
aS'11'
p2234
aS'9'
aS'0'
aS'0'
aa(lp2235
S'William Berkley'
p2236
aS'1926'
p2237
aS'Prop'
p2238
aS'?'
aS'4'
aS'3'
aS'0'
aS'0'
aa(lp2239
S'Roy Kinnear'
p2240
aS'1924'
p2241
aS'Centre'
p2242
aS'Edinburgh'
p2243
aS'7'
aS'2'
aS'0'
aS'0'
aa(lp2244
S'Max Simmers'
p2245
aS'1926'
p2246
aS'Wing'
p2247
aS'Glasgow'
p2248
aS'28'
p2249
aS'13'
p2250
aS'6'
aS'18'
p2251
aa(lp2252
S'Jimmie Graham'
p2253
aS'1926'
p2254
aS'Flanker'
p2255
aS'Selkirk'
p2256
aS'15'
p2257
aS'6'
aS'1'
aS'3'
aa(lp2258
S'Gordon Boyd'
p2259
aS'1926'
p2260
aS'Wing'
p2261
aS'Lanarkshire'
p2262
aS'1'
aS'1'
aS'0'
aS'0'
aa(lp2263
S'Jock Allan'
p2264
aS'1927'
p2265
aS'Prop'
p2266
aS'?'
aS'17'
p2267
aS'7'
aS'0'
aS'27'
p2268
aa(lp2269
S'Edward Taylor'
p2270
aS'1927'
p2271
aS'Wing'
p2272
aS'1907'
p2273
aS'2'
aS'2'
aS'0'
aS'0'
aa(lp2274
S'Peter Douty'
p2275
aS'1927'
p2276
aS'Scrum-half'
p2277
aS'Leeds'
p2278
aS'3'
aS'2'
aS'1'
aS'3'
aa(lp2279
S'William Ferguson'
p2280
aS'1927'
p2281
aS'Prop'
p2282
aS'?'
aS'5'
aS'2'
aS'0'
aS'0'
aa(lp2283
S'Harry Greenlees'
p2284
aS'1927'
p2285
aS'Fly-half'
p2286
aS'Pollockshields'
p2287
aS'6'
aS'4'
aS'0'
aS'0'
aa(lp2288
S'Robert Kelly'
p2289
aS'1927'
p2290
aS'Centre'
p2291
aS'Edinburgh'
p2292
aS'4'
aS'2'
aS'0'
aS'0'
aa(lp2293
S'William Roughead'
p2294
aS'1927'
p2295
aS'Hooker'
p2296
aS'?'
aS'12'
p2297
aS'4'
aS'0'
aS'0'
aa(lp2298
S'Willie Welsh'
p2299
aS'1927'
p2300
aS'Flanker'
p2301
aS'Hawick'
p2302
aS'22'
p2303
aS'10'
p2304
aS'1'
aS'3'
aa(lp2305
S'Jimmy Ferguson'
p2306
aS'1928'
p2307
aS'Prop'
p2308
aS'?'
aS'1'
aS'0'
aS'0'
aS'0'
aa(lp2309
S'John Goodfellow'
p2310
aS'1928'
p2311
aS'Wing'
p2312
aS'?'
aS'3'
aS'0'
aS'0'
aS'0'
aa(lp2313
S'Jo Hume'
p2314
aS'1928'
p2315
aS'Centre'
p2316
aS'Mx'
p2317
aS'2'
aS'0'
aS'0'
aS'0'
aa(lp2318
S'Harry Lind'
p2319
aS'1928'
p2320
aS'Centre'
p2321
aS'Fifeshire'
p2322
aS'16'
p2323
aS'6'
aS'1'
aS'7'
aa(lp2324
S'Alex Brown'
p2325
aS'1928'
p2326
aS'Fly-half'
p2327
aS'Edinburgh'
p2328
aS'3'
aS'1'
aS'0'
aS'7'
aa(lp2329
S'Jock Beattie'
p2330
aS'1929'
p2331
aS'Lock'
p2332
aS'Hawick'
p2333
aS'23'
p2334
aS'9'
aS'0'
aS'0'
aa(lp2335
S'Hugh Mackintosh'
p2336
aS'1929'
p2337
aS'Hooker'
p2338
aS'Helmsdale'
p2339
aS'16'
p2340
aS'6'
aS'3'
aS'9'
aa(lp2341
S'Bob Smith'
p2342
aS'1929'
p2343
aS'Prop'
p2344
aS'?'
aS'7'
aS'4'
aS'0'
aS'0'
aa(lp2345
S'Kenneth Wright'
p2346
aS'1929'
p2347
aS'Flanker'
p2348
aS'?'
aS'4'
aS'3'
aS'0'
aS'0'
aa(lp2349
S'Tom Aitchison'
p2350
aS'1929'
p2351
aS'Fullback'
p2352
aS'Galashiels'
p2353
aS'3'
aS'2'
aS'0'
aS'0'
aa(lp2354
S'Thomas Brown'
p2355
aS'1929'
p2356
aS'Centre'
p2357
aS'Edinburg'
p2358
aS'1'
aS'0'
aS'0'
aS'0'
aa(lp2359
S'Charlie Brown'
p2360
aS'1929'
p2361
aS'Wing'
p2362
aS'nr Falkirk'
p2363
aS'1'
aS'1'
aS'1'
aS'3'
aa(lp2364
S'William Emslie'
p2365
aS'1930'
p2366
aS'Fly-half'
p2367
aS'United States'
p2368
aS'2'
aS'0'
aS'0'
aS'0'
aa(lp2369
S'Reginald Langrish'
p2370
aS'1930'
p2371
aS'Fullback'
p2372
aS'?'
aS'4'
aS'1'
aS'0'
aS'0'
aa(lp2373
S'Bobby Rowand'
p2374
aS'1930'
p2375
aS'Flanker'
p2376
aS'?'
aS'7'
aS'4'
aS'0'
aS'0'
aa(lp2377
S'Jack Stewart'
p2378
aS'1930'
p2379
aS'Lock'
p2380
aS'?'
aS'1'
aS'0'
aS'0'
aS'0'
aa(lp2381
S'Frank Waters'
p2382
aS'1930'
p2383
aS'Flanker'
p2384
aS'Middx'
p2385
aS'7'
aS'1'
aS'1'
aS'7'
aa(lp2386
S'Bill Agnew'
p2387
aS'1930'
p2388
aS'Lock'
p2389
aS'Glasgow'
p2390
aS'2'
aS'1'
aS'0'
aS'0'
aa(lp2391
S'Jerry Foster'
p2392
aS'1930'
p2393
aS'Prop'
p2394
aS'Hallrule Hobkirk'
p2395
aS'4'
aS'1'
aS'0'
aS'0'
aa(lp2396
S'Thomas Hart'
p2397
aS'1930'
p2398
aS'Centre'
p2399
aS'Glasgow'
p2400
aS'2'
aS'1'
aS'0'
aS'0'
aa(lp2401
S'Sammy Ford'
p2402
aS'1930'
p2403
aS'Centre'
p2404
aS'Hants'
p2405
aS'5'
aS'1'
aS'2'
aS'6'
aa(lp2406
S'James Hutton'
p2407
aS'1930'
p2408
aS'Centre'
p2409
aS'Tsientsin'
p2410
aS'2'
aS'1'
aS'0'
aS'0'
aa(lp2411
S'Henry Polson'
p2412
aS'1930'
p2413
aS'Flanker'
p2414
aS'Gala'
p2415
aS'1'
aS'0'
aS'0'
aS'0'
aa(lp2416
S'David McLaren'
p2417
aS'1931'
p2418
aS'Lock'
p2419
aS'?'
aS'1'
aS'1'
aS'0'
aS'0'
aa(lp2420
S'Alexander Walker'
p2421
aS'1931'
p2422
aS'Lock'
p2423
aS'Ayrshire'
p2424
aS'5'
aS'2'
aS'0'
aS'0'
aa(lp2425
S'Alfred Wilson'
p2426
aS'1931'
p2427
aS'Centre'
p2428
aS'?'
aS'3'
aS'2'
aS'0'
aS'0'
aa(lp2429
S'James Wilson'
p2430
aS'1931'
p2431
aS'No. 8'
p2432
aS'Dundee'
p2433
aS'5'
aS'2'
aS'0'
aS'0'
aa(lp2434
S'Donald Crichton-Miller'
p2435
aS'1931'
p2436
aS'Flanker'
p2437
aS'San Resno'
p2438
aS'3'
aS'1'
aS'2'
aS'6'
aa(lp2439
S'Dod Wood'
p2440
aS'1931'
p2441
aS'Wing'
p2442
aS'Galashiels'
p2443
aS'5'
aS'0'
aS'1'
aS'3'
aa(lp2444
S'Ross Logan'
p2445
aS'1931'
p2446
aS'Scrum-half'
p2447
aS'Edinburgh'
p2448
aS'20'
p2449
aS'7'
aS'2'
aS'6'
aa(lp2450
S'James Forrest'
p2451
aS'1932'
p2452
aS'Wing'
p2453
aS'?'
aS'3'
aS'1'
aS'0'
aS'0'
aa(lp2454
S'Thomas Lawther'
p2455
aS'1932'
p2456
aS'Fullback'
p2457
aS'Bute'
p2458
aS'2'
aS'0'
aS'0'
aS'0'
aa(lp2459
S'Mark Stewart'
p2460
aS'1932'
p2461
aS'Lock'
p2462
aS'Musselburgh'
p2463
aS'9'
aS'4'
aS'0'
aS'0'
aa(lp2464
S'Harry Hutton'
p2465
aS'1932'
p2466
aS'Fullback'
p2467
aS'?'
aS'1'
aS'0'
aS'0'
aS'0'
aa(lp2468
S'Andrew Dykes'
p2469
aS'1932'
p2470
aS'Fullback'
p2471
aS'Bearsden'
p2472
aS'1'
aS'0'
aS'0'
aS'0'
aa(lp2473
S'John Macarthur'
p2474
aS'1932'
p2475
aS'Scrum-half'
p2476
aS'West Derby'
p2477
aS'1'
aS'0'
aS'0'
aS'0'
aa(lp2478
S'George Ritchie'
p2479
aS'1932'
p2480
aS'No. 8'
p2481
aS'Dundee'
p2482
aS'1'
aS'0'
aS'0'
aS'0'
aa(lp2483
S'Francis Wright'
p2484
aS'1932'
p2485
aS'Lock'
p2486
aS'?'
aS'1'
aS'0'
aS'0'
aS'0'
aa(lp2487
S'David Brown'
p2488
aS'1933'
p2489
aS'Fullback'
p2490
aS'Dunscore.Dumfries'
p2491
aS'3'
aS'3'
aS'0'
aS'0'
aa(lp2492
S'Ken Fyfe'
p2493
aS'1933'
p2494
aS'Wing'
p2495
aS'Karachi'
p2496
aS'10'
p2497
aS'3'
aS'3'
aS'25'
p2498
aa(lp2499
S'Mac Henderson'
p2500
aS'1933'
p2501
aS'No. 8'
p2502
aS'Tranent'
p2503
aS'3'
aS'3'
aS'0'
aS'0'
aa(lp2504
S'Ken Jackson'
p2505
aS'1933'
p2506
aS'Fly-half'
p2507
aS'Shanghai'
p2508
aS'4'
aS'3'
aS'1'
aS'7'
aa(lp2509
S'Bertie Lorraine'
p2510
aS'1933'
p2511
aS'Centre'
p2512
aS'?'
aS'3'
aS'3'
aS'0'
aS'0'
aa(lp2513
S'Jim Ritchie'
p2514
aS'1933'
p2515
aS'Prop'
p2516
aS'?'
aS'6'
aS'4'
aS'0'
aS'3'
aa(lp2517
S'James Thom'
p2518
aS'1933'
p2519
aS'Prop'
p2520
aS'Kirkcaldy'
p2521
aS'3'
aS'3'
aS'0'
aS'0'
aa(lp2522
S'Jack Waters'
p2523
aS'1933'
p2524
aS'No. 8'
p2525
aS'Musselburgh'
p2526
aS'17'
p2527
aS'7'
aS'0'
aS'0'
aa(lp2528
S'Peter Gedge'
p2529
aS'1933'
p2530
aS'Wing'
p2531
aS'York'
p2532
aS'1'
aS'1'
aS'0'
aS'0'
aa(lp2533
S'Bill Burnet'
p2534
aS'1934'
p2535
aS'Lock'
p2536
aS'Glasgo'
p2537
aS'8'
aS'1'
aS'0'
aS'0'
aa(lp2538
S'Charles Dick'
p2539
aS'1934'
p2540
aS'Centre'
p2541
aS'Sevenoaks'
p2542
aS'14'
p2543
aS'6'
aS'6'
aS'18'
p2544
aa(lp2545
S'Lindsay Lambie'
p2546
aS'1934'
p2547
aS'Flanker'
p2548
aS'Lanark'
p2549
aS'7'
aS'2'
aS'1'
aS'3'
aa(lp2550
S'Douglas Lowe'
p2551
aS'1934'
p2552
aS'Lock'
p2553
aS'?'
aS'1'
aS'0'
aS'0'
aS'0'
aa(lp2554
S'Kenneth Marshall'
p2555
aS'1934'
p2556
aS'Fullback'
p2557
aS'Kimberley'
p2558
aS'8'
aS'2'
aS'0'
aS'0'
aa(lp2559
S'Jack Park'
p2560
aS'1934'
p2561
aS'Wing'
p2562
aS'Edinburgh'
p2563
aS'1'
aS'0'
aS'0'
aS'0'
aa(lp2564
S'Wilson Shaw'
p2565
aS'1934'
p2566
aS'Fly-half'
p2567
aS'1913'
p2568
aS'19'
p2569
aS'6'
aS'8'
aS'28'
p2570
aa(lp2571
S'David Thom'
p2572
aS'1934'
p2573
aS'Flanker'
p2574
aS'Hawick'
p2575
aS'5'
aS'1'
aS'1'
aS'3'
aa(lp2576
S'James Cotter'
p2577
aS'1934'
p2578
aS'Fly-half'
p2579
aS'Motherwell'
p2580
aS'2'
aS'1'
aS'0'
aS'0'
aa(lp2581
S'Gordon Cottington'
p2582
aS'1934'
p2583
aS'Hooker'
p2584
aS'?'
aS'5'
aS'1'
aS'0'
aS'0'
aa(lp2585
S'John Crawford'
p2586
aS'1934'
p2587
aS'Wing'
p2588
aS'Kensington'
p2589
aS'1'
aS'1'
aS'1'
aS'3'
aa(lp2590
S'Jack Watherston'
p2591
aS'1934'
p2592
aS'Flanker'
p2593
aS'Edinburgh'
p2594
aS'2'
aS'1'
aS'0'
aS'0'
aa(lp2595
S'Charlie Grieve'
p2596
aS'1935'
p2597
aS'Fullback'
p2598
aS'Philippine'
p2599
aS'4'
aS'1'
aS'0'
aS'4'
aa(lp2600
S'Bob Grieve'
p2601
aS'1935'
p2602
aS'Prop'
p2603
aS'St Boswells'
p2604
aS'7'
aS'1'
aS'0'
aS'0'
aa(lp2605
S'Johnny Johnston'
p2606
aS'1935'
p2607
aS'Wing'
p2608
aS'Croydon'
p2609
aS'5'
aS'1'
aS'0'
aS'0'
aa(lp2610
S'Ronald Murray'
p2611
aS'1935'
p2612
aS'Prop'
p2613
aS'Glasgow'
p2614
aS'2'
aS'1'
aS'0'
aS'0'
aa(lp2615
S'Alastair McNeil'
p2616
aS'1935'
p2617
aS'Prop'
p2618
aS'Edinburgh'
p2619
aS'1'
aS'0'
aS'0'
aS'0'
aa(lp2620
S'William Murdoch'
p2621
aS'1935'
p2622
aS'Fullback'
p2623
aS'Old Kilpatrick'
p2624
aS'9'
aS'3'
aS'1'
aS'15'
p2625
aa(lp2626
S'Peter Tait'
p2627
aS'1935'
p2628
aS'Hooker'
p2629
aS'?'
aS'1'
aS'1'
aS'0'
aS'0'
aa(lp2630
S'Dod Gray'
p2631
aS'1935'
p2632
aS'Hooker'
p2633
aS'?'
aS'4'
aS'1'
aS'0'
aS'0'
aa(lp2634
S'Jimmy Kerr'
p2635
aS'1935'
p2636
aS'Fullback'
p2637
aS'Edinburgh'
p2638
aS'5'
aS'1'
aS'0'
aS'0'
aa(lp2639
S'Duncan Shaw'
p2640
aS'1935'
p2641
aS'Flanker'
p2642
aS'Galashiels'
p2643
aS'6'
aS'1'
aS'0'
aS'7'
aa(lp2644
S'Malcolm Cooper'
p2645
aS'1936'
p2646
aS'Flanker'
p2647
aS'Napier'
p2648
aS'2'
aS'0'
aS'0'
aS'0'
aa(lp2649
S'Harvey Druitt'
p2650
aS'1936'
p2651
aS'Hooker'
p2652
aS'?'
aS'3'
aS'0'
aS'0'
aS'0'
aa(lp2653
S'Laurie Duff'
p2654
aS'1936'
p2655
aS'No. 8'
p2656
aS'Lanark'
p2657
aS'8'
aS'4'
aS'2'
aS'6'
aa(lp2658
S'Hugh Murray'
p2659
aS'1936'
p2660
aS'Centre'
p2661
aS'Coatbridge'
p2662
aS'2'
aS'0'
aS'1'
aS'3'
aa(lp2663
S'Vivian Weston'
p2664
aS'1936'
p2665
aS'Flanker'
p2666
aS'Glasgow'
p2667
aS'2'
aS'0'
aS'0'
aS'0'
aa(lp2668
S'Robert Whitworth'
p2669
aS'1936'
p2670
aS'Wing'
p2671
aS'United States'
p2672
aS'1'
aS'0'
aS'0'
aS'0'
aa(lp2673
S'Rob Barrie'
p2674
aS'1936'
p2675
aS'Flanker'
p2676
aS'Hawick'
p2677
aS'1'
aS'0'
aS'0'
aS'0'
aa(lp2678
S'Maurice Henderson'
p2679
aS'1937'
p2680
aS'Prop'
p2681
aS'?'
aS'3'
aS'1'
aS'0'
aS'0'
aa(lp2682
S'George Horsburgh'
p2683
aS'1937'
p2684
aS'Lock'
p2685
aS'Stirling'
p2686
aS'9'
aS'4'
aS'0'
aS'0'
aa(lp2687
S'Joe Inglis'
p2688
aS'1937'
p2689
aS'Prop'
p2690
aS'Berwick'
p2691
aS'6'
aS'4'
aS'0'
aS'0'
aa(lp2692
S'Duncan Macrae'
p2693
aS'1937'
p2694
aS'Centre'
p2695
aS'Balmacara'
p2696
aS'10'
p2697
aS'4'
aS'1'
aS'3'
aa(lp2698
S'Christian Melville'
p2699
aS'1937'
p2700
aS'Lock'
p2701
aS'?'
aS'3'
aS'1'
aS'0'
aS'0'
aa(lp2702
S'Bill Ross'
p2703
aS'1937'
p2704
aS'Fly-half'
p2705
aS'?'
aS'2'
aS'1'
aS'0'
aS'0'
aa(lp2706
S'Bill Young'
p2707
aS'1937'
p2708
aS'Flanker'
p2709
aS'Ardrossan'
p2710
aS'10'
p2711
aS'5'
aS'1'
aS'3'
aa(lp2712
S'Rab Bruce-Lockhart'
p2713
aS'1937'
p2714
aS'Fly-half'
p2715
aS'Rugby'
p2716
aS'3'
aS'0'
aS'0'
aS'0'
aa(lp2717
S'Ian Shaw'
p2718
aS'1937'
p2719
aS'Centre'
p2720
aS'Glasgow'
p2721
aS'1'
aS'0'
aS'0'
aS'4'
aa(lp2722
S'Robert Dryden'
p2723
aS'1937'
p2724
aS'Wing'
p2725
aS'Edinburgh'
p2726
aS'1'
aS'0'
aS'0'
aS'0'
aa(lp2727
S'Jake Borthwick'
p2728
aS'1938'
p2729
aS'Prop'
p2730
aS'Edinburgh'
p2731
aS'2'
aS'2'
aS'0'
aS'0'
aa(lp2732
S'Wilf Crawford'
p2733
aS'1938'
p2734
aS'Flanker'
p2735
aS'Rochester'
p2736
aS'5'
aS'3'
aS'1'
aS'21'
p2737
aa(lp2738
S'Tommy Dorward'
p2739
aS'1938'
p2740
aS'Scrum-half'
p2741
aS'Galashiels'
p2742
aS'5'
aS'3'
aS'0'
aS'4'
aa(lp2743
S'Archibald Drummond'
p2744
aS'1938'
p2745
aS'Wing'
p2746
aS'Glasgow'
p2747
aS'2'
aS'2'
aS'1'
aS'6'
aa(lp2748
S'John Forrest'
p2749
aS'1938'
p2750
aS'Wing'
p2751
aS'Rhodesia'
p2752
aS'3'
aS'3'
aS'2'
aS'6'
aa(lp2753
S'John Hastie'
p2754
aS'1938'
p2755
aS'Hooker'
p2756
aS'Peebles'
p2757
aS'3'
aS'3'
aS'0'
aS'0'
aa(lp2758
S'George Roberts'
p2759
aS'1938'
p2760
aS'Fullback'
p2761
aS'Edinburgh'
p2762
aS'5'
aS'3'
aS'0'
aS'0'
aa(lp2763
S'Allan Roy'
p2764
aS'1938'
p2765
aS'Lock'
p2766
aS'Southport'
p2767
aS'6'
aS'3'
aS'0'
aS'0'
aa(lp2768
S'William Blackadder'
p2769
aS'1938'
p2770
aS'Prop'
p2771
aS'Edinburgh'
p2772
aS'1'
aS'1'
aS'0'
aS'0'
aa(lp2773
S'William Renwick'
p2774
aS'1938'
p2775
aS'Wing'
p2776
aS'Edinburgh'
p2777
aS'2'
aS'1'
aS'2'
aS'6'
aa(lp2778
S'Willie Brydon'
p2779
aS'1939'
p2780
aS'Scrum-half'
p2781
aS'?'
aS'1'
aS'0'
aS'0'
aS'0'
aa(lp2782
S'John Craig'
p2783
aS'1939'
p2784
aS'Wing'
p2785
aS'Calcutta'
p2786
aS'1'
aS'0'
aS'0'
aS'0'
aa(lp2787
S'George Gallie'
p2788
aS'1939'
p2789
aS'Prop'
p2790
aS'Edinburgh'
p2791
aS'1'
aS'0'
aS'0'
aS'0'
aa(lp2792
S'Donny Innes'
p2793
aS'1939'
p2794
aS'Centre'
p2795
aS'Aberdeen'
p2796
aS'8'
aS'2'
aS'1'
aS'3'
aa(lp2797
S'Bill Purdie'
p2798
aS'1939'
p2799
aS'Prop'
p2800
aS'Jedburgh'
p2801
aS'3'
aS'0'
aS'0'
aS'0'
aa(lp2802
S'Sammy Sampson'
p2803
aS'1939'
p2804
aS'Hooker'
p2805
aS'South America'
p2806
aS'2'
aS'0'
aS'0'
aS'0'
aa(lp2807
S'Ian Graham'
p2808
aS'1939'
p2809
aS'Hooker'
p2810
aS'Forfar'
p2811
aS'2'
aS'0'
aS'0'
aS'0'
aa(lp2812
S'Ian Henderson'
p2813
aS'1939'
p2814
aS'Prop'
p2815
aS'Tranent'
p2816
aS'8'
aS'1'
aS'0'
aS'0'
aa(lp2817
S'Donald Mackenzie'
p2818
aS'1939'
p2819
aS'No. 8'
p2820
aS'Edinburgh'
p2821
aS'2'
aS'0'
aS'0'
aS'0'
aa(lp2822
S'Bill Penman'
p2823
aS'1939'
p2824
aS'Fullback'
p2825
aS'London'
p2826
aS'1'
aS'0'
aS'0'
aS'0'
aa(lp2827
S'Gus Black'
p2828
aS'1947'
p2829
aS'Scrum-half'
p2830
aS'Dunfermline'
p2831
aS'8'
aS'2'
aS'0'
aS'0'
aa(lp2832
S'Russell Bruce'
p2833
aS'1947'
p2834
aS'Fly-half'
p2835
aS'?'
aS'8'
aS'2'
aS'0'
aS'0'
aa(lp2836
S'George Cawkwell'
p2837
aS'1947'
p2838
aS'Lock'
p2839
aS'Auckland'
p2840
aS'1'
aS'0'
aS'0'
aS'0'
aa(lp2841
S'David Deas'
p2842
aS'1947'
p2843
aS'No. 8'
p2844
aS'?'
aS'2'
aS'0'
aS'0'
aS'0'
aa(lp2845
S'Charlie Drummond'
p2846
aS'1947'
p2847
aS'Centre'
p2848
aS'St Boswells'
p2849
aS'11'
p2850
aS'4'
aS'1'
aS'3'
aa(lp2851
S'Doug Elliot'
p2852
aS'1947'
p2853
aS'Flanker'
p2854
aS'Midlothian'
p2855
aS'29'
p2856
aS'7'
aS'2'
aS'6'
aa(lp2857
S'Keith Geddes'
p2858
aS'1947'
p2859
aS'Fullback'
p2860
aS'Woking'
p2861
aS'4'
aS'0'
aS'0'
aS'10'
p2862
aa(lp2863
S'John Hunter'
p2864
aS'1947'
p2865
aS'Lock'
p2866
aS'Kirkcaldy'
p2867
aS'1'
aS'0'
aS'0'
aS'0'
aa(lp2868
S'Graeme Jackson'
p2869
aS'1947'
p2870
aS'Wing'
p2871
aS'Sidcup'
p2872
aS'12'
p2873
aS'4'
aS'2'
aS'6'
aa(lp2874
S'Ian Lumsden'
p2875
aS'1947'
p2876
aS'Fullback'
p2877
aS'Edinbur'
p2878
aS'7'
aS'2'
aS'0'
aS'0'
aa(lp2879
S'Thomas McGlashan'
p2880
aS'1947'
p2881
aS'Prop'
p2882
aS'Edinburgh'
p2883
aS'8'
aS'0'
aS'0'
aS'0'
aa(lp2884
S'Bill MacLennan'
p2885
aS'1947'
p2886
aS'Wing'
p2887
aS'Edinburgh'
p2888
aS'2'
aS'0'
aS'0'
aS'0'
aa(lp2889
S'John Orr'
p2890
aS'1947'
p2891
aS'Flanker'
p2892
aS'Edinburgh'
p2893
aS'2'
aS'0'
aS'0'
aS'0'
aa(lp2894
S'Alexander Watt'
p2895
aS'1947'
p2896
aS'No. 8'
p2897
aS'?'
aS'6'
aS'1'
aS'0'
aS'0'
aa(lp2898
S'Richard Aitken'
p2899
aS'1947'
p2900
aS'Prop'
p2901
aS'Dunbar'
p2902
aS'1'
aS'0'
aS'0'
aS'0'
aa(lp2903
S'Frank Coutts'
p2904
aS'1947'
p2905
aS'Lock'
p2906
aS'Glasgow'
p2907
aS'3'
aS'0'
aS'0'
aS'0'
aa(lp2908
S'David Mackenzie'
p2909
aS'1947'
p2910
aS'Wing'
p2911
aS'Wallsend-on-Tyne'
p2912
aS'6'
aS'1'
aS'0'
aS'0'
aa(lp2913
S'Ernie Anderson'
p2914
aS'1947'
p2915
aS'Scrum-half'
p2916
aS'?'
aS'2'
aS'0'
aS'0'
aS'0'
aa(lp2917
S'Howard Campbell'
p2918
aS'1947'
p2919
aS'Prop'
p2920
aS'Nairobi'
p2921
aS'4'
aS'1'
aS'0'
aS'0'
aa(lp2922
S'Alastair Fisher'
p2923
aS'1947'
p2924
aS'Hooker'
p2925
aS'Edinburgh'
p2926
aS'2'
aS'0'
aS'0'
aS'0'
aa(lp2927
S'Jimmy Lees'
p2928
aS'1947'
p2929
aS'Flanker'
p2930
aS'Selkirk'
p2931
aS'5'
aS'2'
aS'0'
aS'0'
aa(lp2932
S'Duncan McLean'
p2933
aS'1947'
p2934
aS'No. 8'
p2935
aS'?'
aS'2'
aS'0'
aS'0'
aS'0'
aa(lp2936
S'Billy Munro'
p2937
aS'1947'
p2938
aS'Centre'
p2939
aS'?'
aS'2'
aS'0'
aS'0'
aS'0'
aa(lp2940
S'Dave Valentine'
p2941
aS'1947'
p2942
aS'Flanker'
p2943
aS'Hawick'
p2944
aS'2'
aS'0'
aS'0'
aS'0'
aa(lp2945
S'Dallas Allardice'
p2946
aS'1947'
p2947
aS'Scrum-half'
p2948
aS'Glasgow'
p2949
aS'8'
aS'3'
aS'0'
aS'5'
aa(lp2950
S'Robert Bruce'
p2951
aS'1947'
p2952
aS'Prop'
p2953
aS'Aberdeen'
p2954
aS'4'
aS'1'
aS'0'
aS'0'
aa(lp2955
S'Leslie Currie'
p2956
aS'1947'
p2957
aS'Lock'
p2958
aS'?'
aS'8'
aS'3'
aS'0'
aS'0'
aa(lp2959
S'Hamish Dawson'
p2960
aS'1947'
p2961
aS'Prop'
p2962
aS'?'
aS'20'
p2963
aS'6'
aS'1'
aS'3'
aa(lp2964
S'Peter Hepburn'
p2965
aS'1947'
p2966
aS'Fly-half'
p2967
aS'?'
aS'9'
aS'4'
aS'0'
aS'4'
aa(lp2968
S'Doddie Lyall'
p2969
aS'1947'
p2970
aS'Hooker'
p2971
aS'?'
aS'5'
aS'2'
aS'0'
aS'0'
aa(lp2972
S'Charlie McDonald'
p2973
aS'1947'
p2974
aS'Wing'
p2975
aS'Jedburgh'
p2976
aS'1'
aS'0'
aS'0'
aS'3'
aa(lp2977
S'Tommy Wright'
p2978
aS'1947'
p2979
aS'Centre'
p2980
aS'Hawick'
p2981
aS'1'
aS'0'
aS'0'
aS'0'
aa(lp2982
S'Bill Black'
p2983
aS'1948'
p2984
aS'Prop'
p2985
aS'United States'
p2986
aS'5'
aS'2'
aS'0'
aS'0'
aa(lp2987
S'Angus Cameron'
p2988
aS'1948'
p2989
aS'Fly-half'
p2990
aS'Glasgow'
p2991
aS'19'
p2992
aS'6'
aS'2'
aS'29'
p2993
aa(lp2994
S'Stewart Coltman'
p2995
aS'1948'
p2996
aS'Prop'
p2997
aS'Hawick'
p2998
aS'5'
aS'2'
aS'0'
aS'0'
aa(lp2999
S'Logie Bruce-Lockhart'
p3000
aS'1948'
p3001
aS'Fly-half'
p3002
aS'Rugby'
p3003
aS'5'
aS'2'
aS'0'
aS'2'
aa(lp3004
S'Robert Finlay'
p3005
aS'1948'
p3006
aS'Lock'
p3007
aS'Edinburgh'
p3008
aS'1'
aS'1'
aS'0'
aS'0'
aa(lp3009
S'Gibbie Abercrombie'
p3010
aS'1949'
p3011
aS'Hooker'
p3012
aS'1928'
p3013
aS'7'
aS'4'
aS'1'
aS'3'
aa(lp3014
S'Laurie Gloag'
p3015
aS'1949'
p3016
aS'Centre'
p3017
aS'Stokesley'
p3018
aS'4'
aS'2'
aS'1'
aS'3'
aa(lp3019
S'Doug Keller'
p3020
aS'1947'
p3021
aS'Flanker'
p3022
aS'NSW'
p3023
aS'13'
p3024
aS'6'
aS'0'
aS'0'
aa(lp3025
S'Peter Kininmonth'
p3026
aS'1949'
p3027
aS'No. 8'
p3028
aS'Cheshire'
p3029
aS'24'
p3030
aS'5'
aS'1'
aS'6'
aa(lp3031
S'Doug Smith'
p3032
aS'1949'
p3033
aS'Wing'
p3034
aS'Aberdeen'
p3035
aS'9'
aS'4'
aS'1'
aS'3'
aa(lp3036
S'Gullie Wilson'
p3037
aS'1949'
p3038
aS'Lock'
p3039
aS'?'
aS'3'
aS'2'
aS'0'
aS'3'
aa(lp3040
S'Alex Thomson'
p3041
aS'1949'
p3042
aS'Lock'
p3043
aS'?'
aS'1'
aS'0'
aS'0'
aS'0'
aa(lp3044
S'John Macphail'
p3045
aS'1949'
p3046
aS'Hooker'
p3047
aS'?'
aS'2'
aS'0'
aS'0'
aS'0'
aa(lp3048
S'Steven Wright'
p3049
aS'1949'
p3050
aS'Prop'
p3051
aS'Tsengchow'
p3052
aS'1'
aS'0'
aS'0'
aS'0'
aa(lp3053
S'Grahame Budge'
p3054
aS'1950'
p3055
aS'Prop'
p3056
aS'Manitoba'
p3057
aS'5'
aS'2'
aS'1'
aS'3'
aa(lp3058
S'Dod Burrell'
p3059
aS'1950'
p3060
aS'Fullback'
p3061
aS'Galashiels'
p3062
aS'4'
aS'1'
aS'0'
aS'0'
aa(lp3063
S'Arthur Dorward'
p3064
aS'1950'
p3065
aS'Scrum-half'
p3066
aS'Galashiels'
p3067
aS'15'
p3068
aS'3'
aS'0'
aS'3'
aa(lp3069
S'Bob Gemmill'
p3070
aS'1950'
p3071
aS'Lock'
p3072
aS'Glasgow'
p3073
aS'7'
aS'3'
aS'0'
aS'0'
aa(lp3074
S'Ranald Macdonald'
p3075
aS'1950'
p3076
aS'Centre'
p3077
aS'Consett'
p3078
aS'6'
aS'3'
aS'2'
aS'6'
aa(lp3079
S'Douglas Muir'
p3080
aS'1950'
p3081
aS'Lock'
p3082
aS'Edinburgh'
p3083
aS'7'
aS'2'
aS'0'
aS'0'
aa(lp3084
S'Donald Sloan'
p3085
aS'1950'
p3086
aS'Centre'
p3087
aS'Edinburgh'
p3088
aS'7'
aS'3'
aS'3'
aS'9'
aa(lp3089
S'Donald Scott'
p3090
aS'1950'
p3091
aS'Centre'
p3092
aS'Langholm'
p3093
aS'10'
p3094
aS'2'
aS'0'
aS'0'
aa(lp3095
S'Tommy Gray'
p3096
aS'1950'
p3097
aS'Fullback'
p3098
aS'?'
aS'3'
aS'1'
aS'0'
aS'10'
p3099
aa(lp3100
S'Hamish Scott'
p3101
aS'1950'
p3102
aS'Flanker'
p3103
aS'Edinburgh'
p3104
aS'1'
aS'1'
aS'0'
aS'0'
aa(lp3105
S'Allan Cameron'
p3106
aS'1951'
p3107
aS'Centre'
p3108
aS'Glasgow'
p3109
aS'3'
aS'0'
aS'0'
aS'0'
aa(lp3110
S'Ian Coutts'
p3111
aS'1951'
p3112
aS'Centre'
p3113
aS'Herne Hill'
p3114
aS'2'
aS'0'
aS'0'
aS'0'
aa(lp3115
S'Jack Hegarty'
p3116
aS'1951'
p3117
aS'Lock'
p3118
aS'Hawick'
p3119
aS'6'
aS'0'
aS'0'
aS'0'
aa(lp3120
S'Hamish Inglis'
p3121
aS'1951'
p3122
aS'Lock'
p3123
aS'Calcutta'
p3124
aS'7'
aS'1'
aS'0'
aS'2'
aa(lp3125
S'Norman Mair'
p3126
aS'1951'
p3127
aS'Hooker'
p3128
aS'Edinburgh'
p3129
aS'4'
aS'1'
aS'0'
aS'0'
aa(lp3130
S'David Rose'
p3131
aS'1951'
p3132
aS'Wing'
p3133
aS'Jedburgh'
p3134
aS'7'
aS'1'
aS'3'
aS'9'
aa(lp3135
S'Iain Ross'
p3136
aS'1951'
p3137
aS'Scrum-half'
p3138
aS'?'
aS'4'
aS'1'
aS'0'
aS'0'
aa(lp3139
S'Oliver Turnbull'
p3140
aS'1951'
p3141
aS'Centre'
p3142
aS'Melrose'
p3143
aS'2'
aS'0'
aS'0'
aS'0'
aa(lp3144
S'Bob Wilson'
p3145
aS'1951'
p3146
aS'Prop'
p3147
aS'Galashiels'
p3148
aS'8'
aS'1'
aS'0'
aS'0'
aa(lp3149
S'Bob Gordon'
p3150
aS'1951'
p3151
aS'Wing'
p3152
aS'?'
aS'6'
aS'1'
aS'2'
aS'6'
aa(lp3153
S'Robert Taylor'
p3154
aS'1951'
p3155
aS'Flanker'
p3156
aS'?'
aS'4'
aS'1'
aS'0'
aS'0'
aa(lp3157
S'Ian Thomson'
p3158
aS'1951'
p3159
aS'Fullback'
p3160
aS'Edinburgh'
p3161
aS'7'
aS'1'
aS'0'
aS'27'
p3162
aa(lp3163
S'Ken Dalgleish'
p3164
aS'1951'
p3165
aS'Wing'
p3166
aS'Burma'
p3167
aS'4'
aS'0'
aS'0'
aS'0'
aa(lp3168
S'John Hart'
p3169
aS'1951'
p3170
aS'Wing'
p3171
aS'Stirling'
p3172
aS'1'
aS'0'
aS'0'
aS'0'
aa(lp3173
S'Jimmy Johnston'
p3174
aS'1951'
p3175
aS'Lock'
p3176
aS'St Boswells'
p3177
aS'5'
aS'0'
aS'1'
aS'3'
aa(lp3178
S'Les Allan'
p3179
aS'1952'
p3180
aS'Centre'
p3181
aS'Melrose'
p3182
aS'4'
aS'0'
aS'0'
aS'0'
aa(lp3183
S'Ian Cordial'
p3184
aS'1952'
p3185
aS'Centre'
p3186
aS'?'
aS'4'
aS'0'
aS'1'
aS'3'
aa(lp3187
S'Norman Davidson'
p3188
aS'1952'
p3189
aS'Fly-half'
p3190
aS'Hawick'
p3191
aS'7'
aS'0'
aS'1'
aS'3'
aa(lp3192
S'John Fox'
p3193
aS'1952'
p3194
aS'Prop'
p3195
aS'1921'
p3196
aS'4'
aS'0'
aS'0'
aS'0'
aa(lp3197
S'Kelso Fulton'
p3198
aS'1952'
p3199
aS'Scrum-half'
p3200
aS'Edinburgh'
p3201
aS'2'
aS'0'
aS'0'
aS'0'
aa(lp3202
S'Jim Greenwood'
p3203
aS'1952'
p3204
aS'No. 8'
p3205
aS'Dunfermline'
p3206
aS'24'
p3207
aS'10'
p3208
aS'2'
aS'6'
aa(lp3209
S'Norman Munnoch'
p3210
aS'1952'
p3211
aS'Hooker'
p3212
aS'nr Falkirk'
p3213
aS'3'
aS'0'
aS'0'
aS'0'
aa(lp3214
S'Mike Walker'
p3215
aS'1952'
p3216
aS'Lock'
p3217
aS'London'
p3218
aS'1'
aS'0'
aS'0'
aS'0'
aa(lp3219
S'Neil Cameron'
p3220
aS'1952'
p3221
aS'Fullback'
p3222
aS'Carlisle'
p3223
aS'3'
aS'0'
aS'0'
aS'2'
aa(lp3224
S'Percy Friebe'
p3225
aS'1952'
p3226
aS'No. 8'
p3227
aS'?'
aS'1'
aS'0'
aS'0'
aS'0'
aa(lp3228
S'David Gilbert-Smith'
p3229
aS'1952'
p3230
aS'Flanker'
p3231
aS'Poona'
p3232
aS'1'
aS'0'
aS'0'
aS'0'
aa(lp3233
S'James Inglis'
p3234
aS'1952'
p3235
aS'Prop'
p3236
aS'?'
aS'1'
aS'0'
aS'0'
aS'0'
aa(lp3237
S'Grant Weatherstone'
p3238
aS'1952'
p3239
aS'Wing'
p3240
aS'1931'
p3241
aS'16'
p3242
aS'2'
aS'3'
aS'9'
aa(lp3243
S'Chick Henderson'
p3244
aS'1953'
p3245
aS'Lock, Flanker'
p3246
aS'Johannesburg'
p3247
aS'9'
aS'0'
aS'3'
aS'9'
aa(lp3248
S'Jock King'
p3249
aS'1953'
p3250
aS'Hooker'
p3251
aS'?'
aS'4'
aS'0'
aS'0'
aS'0'
aa(lp3252
S'Donald Macdonald'
p3253
aS'1953'
p3254
aS'No. 8'
p3255
aS'Banff'
p3256
aS'4'
aS'0'
aS'0'
aS'0'
aa(lp3257
S'Keith McMillan'
p3258
aS'1953'
p3259
aS'Flanker'
p3260
aS'South Africa?'
p3261
aS'4'
aS'0'
aS'0'
aS'0'
aa(lp3262
S'Bruce Thomson'
p3263
aS'1953'
p3264
aS'Prop'
p3265
aS'1930'
p3266
aS'3'
aS'0'
aS'0'
aS'0'
aa(lp3267
S'Alec Valentine'
p3268
aS'1953'
p3269
aS'Flanker'
p3270
aS'Hawick'
p3271
aS'3'
aS'0'
aS'0'
aS'0'
aa(lp3272
S'Donald Cameron'
p3273
aS'1953'
p3274
aS'Centre'
p3275
aS'Glasgow'
p3276
aS'6'
aS'0'
aS'0'
aS'0'
aa(lp3277
S'Edwin Henriksen'
p3278
aS'1953'
p3279
aS'No. 8'
p3280
aS'?'
aS'1'
aS'0'
aS'0'
aS'0'
aa(lp3281
S'Gurth Hoyer-Millar'
p3282
aS'1953'
p3283
aS'Hooker'
p3284
aS'London'
p3285
aS'1'
aS'0'
aS'0'
aS'0'
aa(lp3286
S'Ken Spence'
p3287
aS'1953'
p3288
aS'Scrum-half'
p3289
aS'?'
aS'1'
aS'0'
aS'0'
aS'0'
aa(lp3290
S'John Wilson'
p3291
aS'1953'
p3292
aS'Prop'
p3293
aS'Edinburgh'
p3294
aS'1'
aS'0'
aS'0'
aS'0'
aa(lp3295
S'William Cowie'
p3296
aS'1953'
p3297
aS'No. 8'
p3298
aS'Glasgow'
p3299
aS'1'
aS'0'
aS'0'
aS'0'
aa(lp3300
S'Walter Kerr'
p3301
aS'1953'
p3302
aS'Flanker'
p3303
aS'Purley'
p3304
aS'1'
aS'0'
aS'0'
aS'0'
aa(lp3305
S'Ian Swan'
p3306
aS'1953'
p3307
aS'Wing'
p3308
aS"St Andrew's"
p3309
aS'17'
p3310
aS'6'
aS'1'
aS'3'
aa(lp3311
S'Ewen Fergusson'
p3312
aS'1954'
p3313
aS'Lock'
p3314
aS'1932'
p3315
aS'5'
aS'0'
aS'0'
aS'0'
aa(lp3316
S'Bob MacEwen'
p3317
aS'1954'
p3318
aS'Hooker'
p3319
aS'Oxford'
p3320
aS'13'
p3321
aS'3'
aS'0'
aS'0'
aa(lp3322
S'Hugh McLeod'
p3323
aS'1954'
p3324
aS'Prop'
p3325
aS'Hawick'
p3326
aS'46'
p3327
aS'16'
p3328
aS'0'
aS'0'
aa(lp3329
S'John Marshall'
p3330
aS'1954'
p3331
aS'Fullback'
p3332
aS'Sheffield'
p3333
aS'5'
aS'0'
aS'0'
aS'0'
aa(lp3334
S'Ernie Michie'
p3335
aS'1954'
p3336
aS'Lock'
p3337
aS'Aberdeen'
p3338
aS'15'
p3339
aS'5'
aS'1'
aS'3'
aa(lp3340
S'Adam Robson'
p3341
aS'1954'
p3342
aS'Flanker'
p3343
aS'Hawick'
p3344
aS'22'
p3345
aS'7'
aS'0'
aS'0'
aa(lp3346
S'Kim Elgie'
p3347
aS'1954'
p3348
aS'Centre'
p3349
aS'Durban'
p3350
aS'8'
aS'2'
aS'1'
aS'14'
p3351
aa(lp3352
S'Pat MacLachlan'
p3353
aS'1954'
p3354
aS'Scrum-half'
p3355
aS'South Rhodesia'
p3356
aS'4'
aS'0'
aS'0'
aS'0'
aa(lp3357
S'Graham Ross'
p3358
aS'1954'
p3359
aS'Fly-half'
p3360
aS'Edinburgh'
p3361
aS'4'
aS'0'
aS'0'
aS'0'
aa(lp3362
S'Hamish Kemp'
p3363
aS'1954'
p3364
aS'Lock'
p3365
aS'Glasgow'
p3366
aS'27'
p3367
aS'9'
aS'2'
aS'6'
aa(lp3368
S'Jimmy Docherty'
p3369
aS'1955'
p3370
aS'Centre'
p3371
aS'Glasgow'
p3372
aS'8'
aS'3'
aS'0'
aS'3'
aa(lp3373
S'Hugh Duffy'
p3374
aS'1955'
p3375
aS'Flanker'
p3376
aS'Shotts'
p3377
aS'1'
aS'0'
aS'0'
aS'0'
aa(lp3378
S'Micky Grant'
p3379
aS'1955'
p3380
aS'Fly-half'
p3381
aS'Norwich'
p3382
aS'4'
aS'2'
aS'0'
aS'0'
aa(lp3383
S'Ian Hastie'
p3384
aS'1955'
p3385
aS'Prop'
p3386
aS'Kelso'
p3387
aS'6'
aS'2'
aS'1'
aS'3'
aa(lp3388
S'William Relph'
p3389
aS'1955'
p3390
aS'Hooker'
p3391
aS'?'
aS'4'
aS'2'
aS'0'
aS'0'
aa(lp3392
S'Robin Charters'
p3393
aS'1955'
p3394
aS'Centre'
p3395
aS'Hawick'
p3396
aS'3'
aS'2'
aS'0'
aS'0'
aa(lp3397
S'Tom Elliot'
p3398
aS'1955'
p3399
aS'Prop'
p3400
aS'nr Gala'
p3401
aS'14'
p3402
aS'6'
aS'0'
aS'0'
aa(lp3403
S'William Glen'
p3404
aS'1955'
p3405
aS'Flanker'
p3406
aS'?'
aS'1'
aS'1'
aS'0'
aS'0'
aa(lp3407
S'James Nichol'
p3408
aS'1955'
p3409
aS'Scrum-half'
p3410
aS'Edinburgh'
p3411
aS'3'
aS'2'
aS'1'
aS'3'
aa(lp3412
S'Arthur Smith'
p3413
aS'1955'
p3414
aS'Wing'
p3415
aS'Castle Douglas'
p3416
aS'36'
p3417
aS'13'
p3418
aS'12'
p3419
aS'58'
p3420
aa(lp3421
S'Robin Chisholm'
p3422
aS'1955'
p3423
aS'Fullback'
p3424
aS'St Boswells'
p3425
aS'11'
p3426
aS'4'
aS'0'
aS'5'
aa(lp3427
S'Ian MacGregor'
p3428
aS'1955'
p3429
aS'Flanker'
p3430
aS'Glasgow'
p3431
aS'9'
aS'4'
aS'0'
aS'0'
aa(lp3432
S'Nim Campbell'
p3433
aS'1956'
p3434
aS'Scrum-half'
p3435
aS'Rhondda'
p3436
aS'2'
aS'1'
aS'0'
aS'0'
aa(lp3437
S'Keith Macdonald'
p3438
aS'1956'
p3439
aS'Centre'
p3440
aS'Dundee'
p3441
aS'6'
aS'2'
aS'0'
aS'0'
aa(lp3442
S'Tommy McClung'
p3443
aS'1956'
p3444
aS'Centre'
p3445
aS'?'
aS'9'
aS'2'
aS'0'
aS'4'
aa(lp3446
S'George Stevenson'
p3447
aS'1956'
p3448
aS'Centre'
p3449
aS'Hawick'
p3450
aS'24'
p3451
aS'10'
p3452
aS'3'
aS'9'
aa(lp3453
S'Edward McKeating'
p3454
aS'1957'
p3455
aS'Centre'
p3456
aS'Edinburgh'
p3457
aS'6'
aS'4'
aS'0'
aS'0'
aa(lp3458
S'Ken Scotland'
p3459
aS'1957'
p3460
aS'Fullback'
p3461
aS'Edinburgh'
p3462
aS'32'
p3463
aS'13'
p3464
aS'0'
aS'79'
p3465
aa(lp3466
S'John Allan'
p3467
aS'1957'
p3468
aS'Wing'
p3469
aS'?'
aS'2'
aS'0'
aS'0'
aS'0'
aa(lp3470
S'Jimmy Maxwell'
p3471
aS'1957'
p3472
aS'Fly-half'
p3473
aS'?'
aS'1'
aS'0'
aS'0'
aS'0'
aa(lp3474
S'Ken Smith'
p3475
aS'1957'
p3476
aS'Flanker'
p3477
aS'Edinburgh'
p3478
aS'22'
p3479
aS'8'
aS'1'
aS'3'
aa(lp3480
S'Gordon Waddell'
p3481
aS'1957'
p3482
aS'Fly-half'
p3483
aS'Glasgow'
p3484
aS'20'
p3485
aS'6'
aS'0'
aS'0'
aa(lp3486
S'Norman Bruce'
p3487
aS'1958'
p3488
aS'Hooker'
p3489
aS'Edinburgh'
p3490
aS'31'
p3491
aS'13'
p3492
aS'3'
aS'9'
aa(lp3493
S'Mike Robertson'
p3494
aS'1958'
p3495
aS'Flanker'
p3496
aS'?'
aS'1'
aS'1'
aS'0'
aS'0'
aa(lp3497
S'Tremayne Rodd'
p3498
aS'1958'
p3499
aS'Scrum-half'
p3500
aS'?'
aS'14'
p3501
aS'3'
aS'0'
aS'0'
aa(lp3502
S'Malcolm Swan'
p3503
aS'1958'
p3504
aS'Lock'
p3505
aS'Buenos Aires'
p3506
aS'8'
aS'3'
aS'0'
aS'0'
aa(lp3507
S'Christie Elliot'
p3508
aS'1958'
p3509
aS'Wing'
p3510
aS'1933'
p3511
aS'12'
p3512
aS'3'
aS'0'
aS'8'
aa(lp3513
S'Stan Coughtrie'
p3514
aS'1959'
p3515
aS'Scrum-half'
p3516
aS'Hamilton'
p3517
aS'11'
p3518
aS'5'
aS'0'
aS'8'
aa(lp3519
S'Ian Laughland'
p3520
aS'1959'
p3521
aS'Centre'
p3522
aS'Bombay'
p3523
aS'31'
p3524
aS'13'
p3525
aS'2'
aS'9'
aa(lp3526
S'Frans Bos'
p3527
aS'1959'
p3528
aS'Lock'
p3529
aS'Richmond'
p3530
aS'17'
p3531
aS'6'
aS'1'
aS'3'
aa(lp3532
S'Jock Davidson'
p3533
aS'1959'
p3534
aS'No. 8'
p3535
aS'Ross'
p3536
aS'3'
aS'1'
aS'0'
aS'0'
aa(lp3537
S'David Rollo'
p3538
aS'1959'
p3539
aS'Prop'
p3540
aS'Fife'
p3541
aS'40'
p3542
aS'15'
p3543
aS'0'
aS'0'
aa(lp3544
S'Jim Shackleton'
p3545
aS'1959'
p3546
aS'Centre'
p3547
aS'Assam'
p3548
aS'7'
aS'2'
aS'1'
aS'3'
aa(lp3549
S'Keith Bearne'
p3550
aS'1960'
p3551
aS'No. 8'
p3552
aS'London'
p3553
aS'2'
aS'0'
aS'0'
aS'0'
aa(lp3554
S'Joe McPartlin'
p3555
aS'1960'
p3556
aS'Centre'
p3557
aS'West Hartlepool'
p3558
aS'6'
aS'2'
aS'0'
aS'0'
aa(lp3559
S'Gregor Sharp'
p3560
aS'1960'
p3561
aS'Fly-half'
p3562
aS'Motherwell'
p3563
aS'4'
aS'1'
aS'0'
aS'0'
aa(lp3564
S'Charlie Stewart'
p3565
aS'1960'
p3566
aS'Flanker'
p3567
aS'Yarrow'
p3568
aS'2'
aS'0'
aS'0'
aS'0'
aa(lp3569
S'David Edwards'
p3570
aS'1960'
p3571
aS'Flanker'
p3572
aS'?'
aS'3'
aS'1'
aS'0'
aS'0'
aa(lp3573
S'Oliver Grant'
p3574
aS'1960'
p3575
aS'No. 8'
p3576
aS'Hawick'
p3577
aS'6'
aS'2'
aS'0'
aS'0'
aa(lp3578
S'Brian Shillinglaw'
p3579
aS'1960'
p3580
aS'Scrum-half'
p3581
aS'?'
aS'5'
aS'1'
aS'0'
aS'0'
aa(lp3582
S'Ronnie Thomson'
p3583
aS'1960'
p3584
aS'Wing'
p3585
aS'Finchley'
p3586
aS'15'
p3587
aS'6'
aS'3'
aS'9'
aa(lp3588
S'Patrick Burnet'
p3589
aS'1960'
p3590
aS'Centre'
p3591
aS'Edinburgh'
p3592
aS'1'
aS'0'
aS'0'
aS'0'
aa(lp3593
S'Walter Hart'
p3594
aS'1960'
p3595
aS'Flanker'
p3596
aS'Newton St Boswells'
p3597
aS'1'
aS'0'
aS'0'
aS'0'
aa(lp3598
S'Mike Campbell-Lamerton'
p3599
aS'1961'
p3600
aS'Lock'
p3601
aS'Valletta'
p3602
aS'31'
p3603
aS'13'
p3604
aS'1'
aS'3'
aa(lp3605
S'Ron Cowan'
p3606
aS'1961'
p3607
aS'Wing'
p3608
aS'Selkirk'
p3609
aS'6'
aS'2'
aS'2'
aS'6'
aa(lp3610
S'John Douglas'
p3611
aS'1961'
p3612
aS'No. 8'
p3613
aS'Woolwich'
p3614
aS'12'
p3615
aS'6'
aS'1'
aS'3'
aa(lp3616
S'Ken Ross'
p3617
aS'1961'
p3618
aS'Flanker'
p3619
aS'?'
aS'11'
p3620
aS'5'
aS'2'
aS'6'
aa(lp3621
S'Alec Hastie'
p3622
aS'1961'
p3623
aS'Scrum-half'
p3624
aS'Hawick'
p3625
aS'18'
p3626
aS'10'
p3627
aS'0'
aS'0'
aa(lp3628
S'John Brash'
p3629
aS'1961'
p3630
aS'Flanker'
p3631
aS'?'
aS'1'
aS'0'
aS'0'
aS'0'
aa(lp3632
S'Ron Glasgow'
p3633
aS'1962'
p3634
aS'Flanker'
p3635
aS'?'
aS'10'
p3636
aS'5'
aS'3'
aS'9'
aa(lp3637
S'Robert Steven'
p3638
aS'1962'
p3639
aS'Prop'
p3640
aS'Fyfe'
p3641
aS'1'
aS'1'
aS'0'
aS'0'
aa(lp3642
S'Cameron Boyle'
p3643
aS'1963'
p3644
aS'Prop'
p3645
aS'Glasgow'
p3646
aS'3'
aS'2'
aS'0'
aS'0'
aa(lp3647
S'William Watherston'
p3648
aS'1963'
p3649
aS'Flanker'
p3650
aS'Ford Midlothian'
p3651
aS'3'
aS'2'
aS'0'
aS'0'
aa(lp3652
S'David White'
p3653
aS'1963'
p3654
aS'Centre'
p3655
aS'?'
aS'4'
aS'2'
aS'0'
aS'0'
aa(lp3656
S'Colin Blaikie'
p3657
aS'1963'
p3658
aS'Fullback'
p3659
aS'Edinburgh'
p3660
aS'8'
aS'4'
aS'0'
aS'15'
p3661
aa(lp3662
S'Pringle Fisher'
p3663
aS'1963'
p3664
aS'Flanker'
p3665
aS'Edinburgh'
p3666
aS'25'
p3667
aS'9'
aS'0'
aS'0'
aa(lp3668
S'Brian Henderson'
p3669
aS'1963'
p3670
aS'Centre'
p3671
aS'?'
aS'12'
p3672
aS'5'
aS'2'
aS'6'
aa(lp3673
S'Brian Neill'
p3674
aS'1963'
p3675
aS'Prop'
p3676
aS'Edinburgh'
p3677
aS'7'
aS'3'
aS'0'
aS'0'
aa(lp3678
S'Peter Brown'
p3679
aS'1964'
p3680
aS'No. 8'
p3681
aS'Troon'
p3682
aS'27'
p3683
aS'13'
p3684
aS'3'
aS'67'
p3685
aa(lp3686
S'Billy Hunter'
p3687
aS'1964'
p3688
aS'Lock'
p3689
aS'?'
aS'7'
aS'3'
aS'0'
aS'0'
aa(lp3690
S'Jim Telfer'
p3691
aS'1964'
p3692
aS'No. 8'
p3693
aS'Midlothian'
p3694
aS'33'
p3695
aS'11'
p3696
aS'3'
aS'9'
aa(lp3697
S'Stewart Wilson'
p3698
aS'1964'
p3699
aS'Fullback'
p3700
aS'Downham'
p3701
aS'27'
p3702
aS'9'
aS'0'
aS'98'
p3703
aa(lp3704
S'David Chisholm'
p3705
aS'1964'
p3706
aS'Fly-half'
p3707
aS'St Boswells'
p3708
aS'14'
p3709
aS'8'
aS'1'
aS'15'
p3710
aa(lp3711
S'Doug Jackson'
p3712
aS'1964'
p3713
aS'Wing'
p3714
aS'?'
aS'8'
aS'4'
aS'0'
aS'0'
aa(lp3715
S'Derrick Grant'
p3716
aS'1965'
p3717
aS'Flanker'
p3718
aS'Hawick'
p3719
aS'14'
p3720
aS'6'
aS'1'
aS'3'
aa(lp3721
S'Frank Laidlaw'
p3722
aS'1965'
p3723
aS'Hooker'
p3724
aS'Hawick'
p3725
aS'34'
p3726
aS'10'
p3727
aS'0'
aS'0'
aa(lp3728
S'Brian Simmers'
p3729
aS'1965'
p3730
aS'Centre'
p3731
aS'Glasgow'
p3732
aS'7'
aS'3'
aS'0'
aS'9'
aa(lp3733
S'Peter Stagg'
p3734
aS'1965'
p3735
aS'Lock'
p3736
aS'Twickenham'
p3737
aS'31'
p3738
aS'10'
p3739
aS'0'
aS'0'
aa(lp3740
S'Norm Suddon'
p3741
aS'1965'
p3742
aS'Prop'
p3743
aS'Roxburghshire'
p3744
aS'13'
p3745
aS'5'
aS'0'
aS'0'
aa(lp3746
S'David Whyte'
p3747
aS'1965'
p3748
aS'Wing'
p3749
aS'?'
aS'13'
p3750
aS'6'
aS'2'
aS'6'
aa(lp3751
S'Sandy Hinshelwood'
p3752
aS'1966'
p3753
aS'Wing'
p3754
aS'1942'
p3755
aS'24'
p3756
aS'8'
aS'6'
aS'18'
p3757
aa(lp3758
S'John Macdonald'
p3759
aS'1966'
p3760
aS'Prop'
p3761
aS'Kirkcaldy'
p3762
aS'8'
aS'4'
aS'0'
aS'0'
aa(lp3763
S'Jock Turner'
p3764
aS'1966'
p3765
aS'Centre'
p3766
aS'Hawick'
p3767
aS'24'
p3768
aS'8'
aS'2'
aS'6'
aa(lp3769
S'Alasdair Boyle'
p3770
aS'1966'
p3771
aS'No. 8'
p3772
aS'Glasgow'
p3773
aS'6'
aS'2'
aS'1'
aS'3'
aa(lp3774
S'Sandy Carmichael'
p3775
aS'1967'
p3776
aS'Prop'
p3777
aS'Glasgow'
p3778
aS'50'
p3779
aS'19'
p3780
aS'1'
aS'3'
aa(lp3781
S'Rob Welsh'
p3782
aS'1967'
p3783
aS'Centre'
p3784
aS'Hawick'
p3785
aS'2'
aS'0'
aS'0'
aS'0'
aa(lp3786
S'Ian McCrae'
p3787
aS'1967'
p3788
aS'Scrum-half'
p3789
aS'?'
aS'6'
aS'2'
aS'0'
aS'0'
aa(lp3790
S'John Frame'
p3791
aS'1967'
p3792
aS'Centre'
p3793
aS'Edinburgh'
p3794
aS'23'
p3795
aS'7'
aS'4'
aS'13'
p3796
aa(lp3797
S'Bob Keddie'
p3798
aS'1967'
p3799
aS'Wing'
p3800
aS'Edinburgh'
p3801
aS'1'
aS'0'
aS'0'
aS'0'
aa(lp3802
S'George Mitchell'
p3803
aS'1967'
p3804
aS'Lock'
p3805
aS'Edinburgh'
p3806
aS'3'
aS'0'
aS'0'
aS'0'
aa(lp3807
S'Hamish Keith'
p3808
aS'1968'
p3809
aS'Wing'
p3810
aS'?'
aS'2'
aS'0'
aS'1'
aS'3'
aa(lp3811
S'Tommy Elliot'
p3812
aS'1968'
p3813
aS'Flanker'
p3814
aS'Langholm'
p3815
aS'5'
aS'3'
aS'0'
aS'0'
aa(lp3816
S'Rodger Arneil'
p3817
aS'1968'
p3818
aS'Flanker'
p3819
aS'Edinburgh'
p3820
aS'26'
p3821
aS'8'
aS'0'
aS'0'
aa(lp3822
S'Charlie Hodgson'
p3823
aS'1968'
p3824
aS'Wing'
p3825
aS'?'
aS'2'
aS'0'
aS'0'
aS'0'
aa(lp3826
S'Alastair McHarg'
p3827
aS'1968'
p3828
aS'Lock'
p3829
aS'Irvine'
p3830
aS'44'
p3831
aS'17'
p3832
aS'2'
aS'8'
aa(lp3833
S'Gordon Connell'
p3834
aS'1968'
p3835
aS'Scrum-half'
p3836
aS'Edinburgh'
p3837
aS'6'
aS'2'
aS'0'
aS'3'
aa(lp3838
S'Derek Deans'
p3839
aS'1968'
p3840
aS'Hooker'
p3841
aS'Hawick'
p3842
aS'1'
aS'0'
aS'0'
aS'0'
aa(lp3843
S'Ian Robertson'
p3844
aS'1968'
p3845
aS'Fly-half'
p3846
aS'London'
p3847
aS'8'
aS'2'
aS'1'
aS'9'
aa(lp3848
S'Chris Rea'
p3849
aS'1968'
p3850
aS'Centre'
p3851
aS'Dundee'
p3852
aS'13'
p3853
aS'5'
aS'3'
aS'9'
aa(lp3854
S'Colin Telfer'
p3855
aS'1968'
p3856
aS'Fly-half'
p3857
aS'Hawick'
p3858
aS'17'
p3859
aS'9'
aS'3'
aS'18'
p3860
aa(lp3861
S'Dick Allan'
p3862
aS'1969'
p3863
aS'Scrum-half'
p3864
aS'Glasgow'
p3865
aS'1'
aS'0'
aS'0'
aS'0'
aa(lp3866
S'Wilson Lauder'
p3867
aS'1969'
p3868
aS'Flanker'
p3869
aS'Fife'
p3870
aS'18'
p3871
aS'5'
aS'2'
aS'19'
p3872
aa(lp3873
S'Gordon Macdonald'
p3874
aS'1969'
p3875
aS'Fullback'
p3876
aS'Glasgow'
p3877
aS'1'
aS'0'
aS'0'
aS'0'
aa(lp3878
S'Ian McLauchlan'
p3879
aS'1969'
p3880
aS'Prop'
p3881
aS'Tarbolton'
p3882
aS'51'
p3883
aS'20'
p3884
aS'1'
aS'3'
aa(lp3885
S'Billy Steele'
p3886
aS'1969'
p3887
aS'Wing'
p3888
aS'Langholm'
p3889
aS'25'
p3890
aS'12'
p3891
aS'6'
aS'22'
p3892
aa(lp3893
S'Alastair Biggar'
p3894
aS'1969'
p3895
aS'Wing'
p3896
aS'Edinburgh'
p3897
aS'12'
p3898
aS'5'
aS'1'
aS'3'
aa(lp3899
S'Gordon Brown'
p3900
aS'1969'
p3901
aS'Lock'
p3902
aS'Troon'
p3903
aS'38'
p3904
aS'19'
p3905
aS'2'
aS'8'
aa(lp3906
S'Duncan Paterson'
p3907
aS'1969'
p3908
aS'Scrum-half'
p3909
aS'Galashiels'
p3910
aS'10'
p3911
aS'4'
aS'1'
aS'6'
aa(lp3912
S'Ian Smith'
p3913
aS'1969'
p3914
aS'Fullback'
p3915
aS'Dundee'
p3916
aS'8'
aS'2'
aS'2'
aS'14'
p3917
aa(lp3918
S'Mike Smith'
p3919
aS'1970'
p3920
aS'Wing'
p3921
aS'Liverpool'
p3922
aS'4'
aS'1'
aS'1'
aS'3'
aa(lp3923
S'Robert Young'
p3924
aS'1970'
p3925
aS'Scrum-half'
p3926
aS'Edinburgh'
p3927
aS'1'
aS'0'
aS'0'
aS'0'
aa(lp3928
S'Ken Oliver'
p3929
aS'1970'
p3930
aS'No. 8'
p3931
aS'Galashiels'
p3932
aS'1'
aS'0'
aS'0'
aS'0'
aa(lp3933
S'Nairn MacEwan'
p3934
aS'1971'
p3935
aS'Flanker'
p3936
aS'Dar-es-Salaam'
p3937
aS'20'
p3938
aS'10'
p3939
aS'1'
aS'4'
aa(lp3940
S'Ronnie Hannah'
p3941
aS'1971'
p3942
aS'Wing'
p3943
aS'?'
aS'1'
aS'0'
aS'0'
aS'0'
aa(lp3944
S'Arthur Brown'
p3945
aS'1971'
p3946
aS'Fullback'
p3947
aS'Galashiels'
p3948
aS'5'
aS'4'
aS'0'
aS'13'
p3949
aa(lp3950
S'Quintin Dunlop'
p3951
aS'1971'
p3952
aS'Hooker'
p3953
aS'Ayr'
p3954
aS'2'
aS'2'
aS'0'
aS'0'
aa(lp3955
S'Stephen Turk'
p3956
aS'1971'
p3957
aS'Centre'
p3958
aS'Cresswell'
p3959
aS'1'
aS'1'
aS'0'
aS'0'
aa(lp3960
S'Gordon Strachan'
p3961
aS'1971'
p3962
aS'No. 8'
p3963
aS'Ayrshire'
p3964
aS'5'
aS'4'
aS'0'
aS'0'
aa(lp3965
S'Bobby Clark'
p3966
aS'1972'
p3967
aS'Hooker'
p3968
aS'Edinburgh'
p3969
aS'9'
aS'5'
aS'1'
aS'4'
aa(lp3970
S'Jim Renwick'
p3971
aS'1972'
p3972
aS'Centre'
p3973
aS'Hawick'
p3974
aS'53'
p3975
aS'17'
p3976
aS'8'
aS'67'
p3977
aa(lp3978
S'Alan Lawson'
p3979
aS'1972'
p3980
aS'Scrum-half'
p3981
aS'Kirkcaldy'
p3982
aS'15'
p3983
aS'5'
aS'3'
aS'12'
p3984
aa(lp3985
S'Ian Barnes'
p3986
aS'1972'
p3987
aS'Lock'
p3988
aS'Hawick'
p3989
aS'7'
aS'2'
aS'0'
aS'0'
aa(lp3990
S'Lewis Dick'
p3991
aS'1972'
p3992
aS'Wing'
p3993
aS'Perth'
p3994
aS'14'
p3995
aS'6'
aS'2'
aS'8'
aa(lp3996
S'Ian Forsyth'
p3997
aS'1972'
p3998
aS'Centre'
p3999
aS'Edinburgh'
p4000
aS'6'
aS'3'
aS'1'
aS'4'
aa(lp4001
S'Andy Irvine'
p4002
aS'1972'
p4003
aS'Fullback'
p4004
aS'Edinburgh'
p4005
aS'60'
p4006
aS'22'
p4007
aS'12'
p4008
aS'301'
p4009
aa(lp4010
S'Ian McGeechan'
p4011
aS'1972'
p4012
aS'Centre'
p4013
aS'Leeds'
p4014
aS'40'
p4015
aS'15'
p4016
aS'0'
aS'24'
p4017
aa(lp4018
S'David Shedden'
p4019
aS'1972'
p4020
aS'Wing'
p4021
aS'Kilwinning'
p4022
aS'15'
p4023
aS'6'
aS'2'
aS'8'
aa(lp4024
S'Ronald Wright'
p4025
aS'1973'
p4026
aS'Lock'
p4027
aS'?'
aS'1'
aS'0'
aS'0'
aS'0'
aa(lp4028
S'Jock Millican'
p4029
aS'1973'
p4030
aS'Flanker'
p4031
aS'Edinburgh'
p4032
aS'3'
aS'2'
aS'0'
aS'0'
aa(lp4033
S'Doug Morgan'
p4034
aS'1973'
p4035
aS'Scrum-half'
p4036
aS'Edinburgh'
p4037
aS'23'
p4038
aS'8'
aS'1'
aS'80'
p4039
aa(lp4040
S'Hamish Bryce'
p4041
aS'1973'
p4042
aS'Prop'
p4043
aS'?'
aS'1'
aS'1'
aS'0'
aS'0'
aa(lp4044
S'Drew Gill'
p4045
aS'1973'
p4046
aS'Wing'
p4047
aS'Edinburgh'
p4048
aS'5'
aS'3'
aS'2'
aS'8'
aa(lp4049
S'Duncan Madsen'
p4050
aS'1974'
p4051
aS'Hooker'
p4052
aS'Gosforth'
p4053
aS'14'
p4054
aS'5'
aS'1'
aS'4'
aa(lp4055
S'Bill Watson'
p4056
aS'1974'
p4057
aS'No. 8'
p4058
aS'Edinburgh'
p4059
aS'10'
p4060
aS'3'
aS'0'
aS'0'
aa(lp4061
S'Michael Hunter'
p4062
aS'1974'
p4063
aS'Centre'
p4064
aS'?'
aS'1'
aS'1'
aS'0'
aS'0'
aa(lp4065
S'David Bell'
p4066
aS'1975'
p4067
aS'Centre'
p4068
aS'Edinburgh'
p4069
aS'4'
aS'2'
aS'0'
aS'0'
aa(lp4070
S'Mike Biggar'
p4071
aS'1975'
p4072
aS'Flanker'
p4073
aS'Aberdeen'
p4074
aS'24'
p4075
aS'6'
aS'0'
aS'0'
aa(lp4076
S'David Leslie'
p4077
aS'1975'
p4078
aS'Flanker'
p4079
aS'Dundee'
p4080
aS'32'
p4081
aS'14'
p4082
aS'2'
aS'8'
aa(lp4083
S'Graham Birkett'
p4084
aS'1975'
p4085
aS'Centre'
p4086
aS'Dumbarton'
p4087
aS'1'
aS'0'
aS'0'
aS'0'
aa(lp4088
S'Colin Fisher'
p4089
aS'1975'
p4090
aS'Hooker'
p4091
aS'Liverpool'
p4092
aS'5'
aS'3'
aS'0'
aS'0'
aa(lp4093
S'Bruce Hay'
p4094
aS'1975'
p4095
aS'Wing'
p4096
aS'Edinburgh'
p4097
aS'26'
p4098
aS'5'
aS'4'
aS'16'
p4099
aa(lp4100
S'George Mackie'
p4101
aS'1975'
p4102
aS'No. 8'
p4103
aS'Aberdeen'
p4104
aS'4'
aS'1'
aS'0'
aS'0'
aa(lp4105
S'Alastair Cranston'
p4106
aS'1976'
p4107
aS'Centre'
p4108
aS'Hawick'
p4109
aS'11'
p4110
aS'2'
aS'0'
aS'0'
aa(lp4111
S'Alan Tomes'
p4112
aS'1976'
p4113
aS'Lock'
p4114
aS'Hawick'
p4115
aS'48'
p4116
aS'17'
p4117
aS'3'
aS'12'
p4118
aa(lp4119
S'Ron Wilson'
p4120
aS'1976'
p4121
aS'Fly-half'
p4122
aS'Mx'
p4123
aS'9'
aS'4'
aS'0'
aS'3'
aa(lp4124
S'Jim Aitken'
p4125
aS'1977'
p4126
aS'Prop'
p4127
aS'Penicuik'
p4128
aS'24'
p4129
aS'12'
p4130
aS'1'
aS'4'
aa(lp4131
S'Alex Brewster'
p4132
aS'1977'
p4133
aS'Prop'
p4134
aS'Dechmont'
p4135
aS'6'
aS'4'
aS'0'
aS'0'
aa(lp4136
S'Don Macdonald'
p4137
aS'1977'
p4138
aS'No. 8'
p4139
aS'Durban'
p4140
aS'7'
aS'1'
aS'0'
aS'0'
aa(lp4141
S'Bill Gammell'
p4142
aS'1977'
p4143
aS'Wing'
p4144
aS'Edinburgh'
p4145
aS'5'
aS'1'
aS'2'
aS'8'
aa(lp4146
S'Norman Pender'
p4147
aS'1977'
p4148
aS'Prop'
p4149
aS'Bridlington'
p4150
aS'4'
aS'1'
aS'0'
aS'0'
aa(lp4151
S'Brian Hegarty'
p4152
aS'1978'
p4153
aS'Flanker'
p4154
aS'?'
aS'4'
aS'0'
aS'0'
aS'0'
aa(lp4155
S'Colin Deans'
p4156
aS'1978'
p4157
aS'Hooker'
p4158
aS'Hawick'
p4159
aS'52'
p4160
aS'21'
p4161
aS'2'
aS'8'
aa(lp4162
S'Graham Hogg'
p4163
aS'1978'
p4164
aS'Wing'
p4165
aS'Hawick'
p4166
aS'2'
aS'0'
aS'0'
aS'0'
aa(lp4167
S'Richard Breakey'
p4168
aS'1978'
p4169
aS'Fly-half'
p4170
aS'Consett'
p4171
aS'1'
aS'0'
aS'0'
aS'0'
aa(lp4172
S'David Gray'
p4173
aS'1978'
p4174
aS'Lock'
p4175
aS'Kilmarnock'
p4176
aS'9'
aS'1'
aS'0'
aS'0'
aa(lp4177
S'Bob Cunningham'
p4178
aS'1978'
p4179
aS'Prop'
p4180
aS'Musselburgh'
p4181
aS'3'
aS'0'
aS'0'
aS'0'
aa(lp4182
S'Gordon Dickson'
p4183
aS'1978'
p4184
aS'Flanker'
p4185
aS'Galashiels'
p4186
aS'9'
aS'1'
aS'1'
aS'4'
aa(lp4187
S'Keith Robertson'
p4188
aS'1978'
p4189
aS'Wing'
p4190
aS'Hawick'
p4191
aS'44'
p4192
aS'14'
p4193
aS'8'
aS'41'
p4194
aa(lp4195
S'Iain Lambie'
p4196
aS'1978'
p4197
aS'No. 8'
p4198
aS'Edinburgh'
p4199
aS'4'
aS'0'
aS'0'
aS'0'
aa(lp4200
S'John Rutherford'
p4201
aS'1979'
p4202
aS'Fly-half'
p4203
aS'Selkirk'
p4204
aS'43'
p4205
aS'18'
p4206
aS'8'
aS'68'
p4207
aa(lp4208
S'Iain Milne'
p4209
aS'1979'
p4210
aS'Prop'
p4211
aS'Edinburgh'
p4212
aS'44'
p4213
aS'19'
p4214
aS'0'
aS'0'
aa(lp4215
S'David Johnston'
p4216
aS'1979'
p4217
aS'Centre'
p4218
aS'Edinburgh'
p4219
aS'27'
p4220
aS'14'
p4221
aS'4'
aS'16'
p4222
aa(lp4223
S'John Beattie'
p4224
aS'1980'
p4225
aS'No. 8'
p4226
aS'North Borneo'
p4227
aS'26'
p4228
aS'11'
p4229
aS'2'
aS'8'
aa(lp4230
S'James Burnett'
p4231
aS'1980'
p4232
aS'Prop'
p4233
aS'Kilmarnock'
p4234
aS'4'
aS'1'
aS'0'
aS'0'
aa(lp4235
S'Bill Cuthbertson'
p4236
aS'1980'
p4237
aS'Lock'
p4238
aS'Kilwinning'
p4239
aS'21'
p4240
aS'9'
aS'0'
aS'0'
aa(lp4241
S'Roy Laidlaw'
p4242
aS'1980'
p4243
aS'Scrum-half'
p4244
aS'Jedburgh'
p4245
aS'51'
p4246
aS'21'
p4247
aS'7'
aS'28'
p4248
aa(lp4249
S'Steve Munro'
p4250
aS'1980'
p4251
aS'Wing'
p4252
aS'Ayr'
p4253
aS'10'
p4254
aS'5'
aS'2'
aS'8'
aa(lp4255
S'Ken Lawrie'
p4256
aS'1980'
p4257
aS'Hooker'
p4258
aS'Gala'
p4259
aS'3'
aS'1'
aS'0'
aS'0'
aa(lp4260
S'Bryan Gossman'
p4261
aS'1980'
p4262
aS'Fly-half'
p4263
aS'?'
aS'3'
aS'0'
aS'0'
aS'6'
aa(lp4264
S'Norrie Rowan'
p4265
aS'1980'
p4266
aS'Prop'
p4267
aS'Edinburgh'
p4268
aS'13'
p4269
aS'4'
aS'0'
aS'0'
aa(lp4270
S'Jim Gossman'
p4271
aS'1980'
p4272
aS'Centre'
p4273
aS'1955'
p4274
aS'1'
aS'0'
aS'0'
aS'0'
aa(lp4275
S'Jim Calder'
p4276
aS'1981'
p4277
aS'Flanker'
p4278
aS'Haddington'
p4279
aS'28'
p4280
aS'12'
p4281
aS'3'
aS'12'
p4282
aa(lp4283
S'Iain Paxton'
p4284
aS'1981'
p4285
aS'No. 8'
p4286
aS'Dunfermline'
p4287
aS'40'
p4288
aS'17'
p4289
aS'5'
aS'20'
p4290
aa(lp4291
S'Roger Baird'
p4292
aS'1981'
p4293
aS'Wing'
p4294
aS'Kelso'
p4295
aS'31'
p4296
aS'13'
p4297
aS'1'
aS'4'
aa(lp4298
S'Eric Paxton'
p4299
aS'1982'
p4300
aS'Flanker'
p4301
aS'?'
aS'2'
aS'0'
aS'0'
aS'0'
aa(lp4302
S'Derek White'
p4303
aS'1982'
p4304
aS'No. 8'
p4305
aS'Haddington'
p4306
aS'42'
p4307
aS'22'
p4308
aS'11'
p4309
aS'44'
p4310
aa(lp4311
S'Jim Pollock'
p4312
aS'1982'
p4313
aS'Wing'
p4314
aS'?'
aS'8'
aS'5'
aS'2'
aS'8'
aa(lp4315
S'Rick Gordon'
p4316
aS'1982'
p4317
aS'Centre'
p4318
aS'Lahore'
p4319
aS'2'
aS'1'
aS'0'
aS'0'
aa(lp4320
S'Gerry McGuinness'
p4321
aS'1982'
p4322
aS'Prop'
p4323
aS'Glasgow'
p4324
aS'7'
aS'1'
aS'0'
aS'0'
aa(lp4325
S'Peter Dods'
p4326
aS'1983'
p4327
aS'Fullback'
p4328
aS'Galashiels'
p4329
aS'23'
p4330
aS'9'
aS'2'
aS'210'
p4331
aa(lp4332
S'Tom Smith'
p4333
aS'1983'
p4334
aS'Lock'
p4335
aS'E Lothian'
p4336
aS'4'
aS'1'
aS'1'
aS'4'
aa(lp4337
S'Euan Kennedy'
p4338
aS'1983'
p4339
aS'Centre'
p4340
aS'Edinburgh'
p4341
aS'4'
aS'2'
aS'1'
aS'4'
aa(lp4342
S'Alister Campbell'
p4343
aS'1984'
p4344
aS'Lock'
p4345
aS'Hawick'
p4346
aS'15'
p4347
aS'7'
aS'0'
aS'0'
aa(lp4348
S'Gordon Hunter'
p4349
aS'1984'
p4350
aS'Scrum-half'
p4351
aS'Hawick'
p4352
aS'4'
aS'1'
aS'0'
aS'0'
aa(lp4353
S'Gary Callander'
p4354
aS'1984'
p4355
aS'Hooker'
p4356
aS'Kelso'
p4357
aS'6'
aS'1'
aS'0'
aS'0'
aa(lp4358
S'Sean McGaughey'
p4359
aS'1984'
p4360
aS'Flanker'
p4361
aS'1962'
p4362
aS'1'
aS'0'
aS'0'
aS'0'
aa(lp4363
S'John Jeffrey'
p4364
aS'1984'
p4365
aS'Flanker'
p4366
aS'Kelso'
p4367
aS'40'
p4368
aS'22'
p4369
aS'11'
p4370
aS'44'
p4371
aa(lp4372
S'Gregor Mackenzie'
p4373
aS'1984'
p4374
aS'Prop'
p4375
aS'Inverness'
p4376
aS'1'
aS'0'
aS'0'
aS'0'
aa(lp4377
S'Peter Steven'
p4378
aS'1984'
p4379
aS'Wing'
p4380
aS'Kilwinning'
p4381
aS'4'
aS'0'
aS'0'
aS'0'
aa(lp4382
S'Douglas Wyllie'
p4383
aS'1984'
p4384
aS'Centre'
p4385
aS'Edinburgh'
p4386
aS'18'
p4387
aS'6'
aS'0'
aS'3'
aa(lp4388
S'Keith Murray'
p4389
aS'1985'
p4390
aS'Centre'
p4391
aS'Hawick'
p4392
aS'3'
aS'0'
aS'0'
aS'0'
aa(lp4393
S'Iwan Tukalo'
p4394
aS'1985'
p4395
aS'Wing'
p4396
aS'Edinburgh'
p4397
aS'37'
p4398
aS'19'
p4399
aS'15'
p4400
aS'60'
p4401
aa(lp4402
S'Finlay Calder'
p4403
aS'1986'
p4404
aS'Flanker'
p4405
aS'Haddington'
p4406
aS'37'
p4407
aS'21'
p4408
aS'2'
aS'8'
aa(lp4409
S'Jeremy Campbell-Lamerton'
p4410
aS'1986'
p4411
aS'Lock'
p4412
aS'Gibraltar'
p4413
aS'3'
aS'3'
aS'0'
aS'0'
aa(lp4414
S'Matt Duncan'
p4415
aS'1986'
p4416
aS'Wing'
p4417
aS'Glasgow'
p4418
aS'18'
p4419
aS'9'
aS'7'
aS'28'
p4420
aa(lp4421
S'Gavin Hastings'
p4422
aS'1986'
p4423
aS'Fullback'
p4424
aS'Edinburgh'
p4425
aS'67'
p4426
aS'35'
p4427
aS'18'
p4428
aS'733'
p4429
aa(lp4430
S'Scott Hastings'
p4431
aS'1986'
p4432
aS'Centre'
p4433
aS'Edinburgh'
p4434
aS'67'
p4435
aS'36'
p4436
aS'10'
p4437
aS'43'
p4438
aa(lp4439
S'David Sole'
p4440
aS'1986'
p4441
aS'Prop'
p4442
aS'Aylesbury'
p4443
aS'47'
p4444
aS'24'
p4445
aS'3'
aS'12'
p4446
aa(lp4447
S'Alan Tait'
p4448
aS'1987'
p4449
aS'Centre'
p4450
aS'Kelso'
p4451
aS'29'
p4452
aS'13'
p4453
aS'18'
p4454
aS'86'
p4455
aa(lp4456
S'Greig Oliver'
p4457
aS'1987'
p4458
aS'Scrum-half'
p4459
aS'Hawick'
p4460
aS'3'
aS'2'
aS'1'
aS'4'
aa(lp4461
S'Richard Cramb'
p4462
aS'1987'
p4463
aS'Fly-half'
p4464
aS'Falkirk'
p4465
aS'4'
aS'2'
aS'0'
aS'3'
aa(lp4466
S'Derek Turnbull'
p4467
aS'1987'
p4468
aS'Flanker'
p4469
aS'Hawick'
p4470
aS'15'
p4471
aS'7'
aS'2'
aS'9'
aa(lp4472
S'Damian Cronin'
p4473
aS'1988'
p4474
aS'Lock'
p4475
aS'Wegberg'
p4476
aS'45'
p4477
aS'20'
p4478
aS'5'
aS'23'
p4479
aa(lp4480
S'Andrew Ker'
p4481
aS'1988'
p4482
aS'Fly-half'
p4483
aS'Kelso'
p4484
aS'2'
aS'0'
aS'0'
aS'0'
aa(lp4485
S'Gary Armstrong'
p4486
aS'1988'
p4487
aS'Scrum-half'
p4488
aS'Edinburgh'
p4489
aS'51'
p4490
aS'23'
p4491
aS'5'
aS'21'
p4492
aa(lp4493
S'Graham Marshall'
p4494
aS'1988'
p4495
aS'Flanker'
p4496
aS'Glasgow'
p4497
aS'4'
aS'3'
aS'0'
aS'0'
aa(lp4498
S'Craig Chalmers'
p4499
aS'1989'
p4500
aS'Fly-half'
p4501
aS'Galashiels'
p4502
aS'61'
p4503
aS'28'
p4504
aS'5'
aS'172'
p4505
aa(lp4506
S'Chris Gray'
p4507
aS'1989'
p4508
aS'Lock'
p4509
aS'Haddington'
p4510
aS'22'
p4511
aS'14'
p4512
aS'3'
aS'12'
p4513
aa(lp4514
S'Sean Lineen'
p4515
aS'1989'
p4516
aS'Centre'
p4517
aS'Auckland'
p4518
aS'29'
p4519
aS'16'
p4520
aS'2'
aS'8'
aa(lp4521
S'Kenny Milne'
p4522
aS'1989'
p4523
aS'Hooker'
p4524
aS'Edinburgh'
p4525
aS'40'
p4526
aS'20'
p4527
aS'3'
aS'12'
p4528
aa(lp4529
S'Paul Burnell'
p4530
aS'1989'
p4531
aS'Prop'
p4532
aS'Edinburgh'
p4533
aS'53'
p4534
aS'26'
p4535
aS'1'
aS'5'
aa(lp4536
S'Tony Stanger'
p4537
aS'1989'
p4538
aS'Wing'
p4539
aS'Hawick'
p4540
aS'52'
p4541
aS'22'
p4542
aS'24'
p4543
aS'106'
p4544
aa(lp4545
S'George Buchanan-Smith'
p4546
aS'1989'
p4547
aS'Flanker'
p4548
aS'Edinburgh'
p4549
aS'2'
aS'2'
aS'0'
aS'0'
aa(lp4550
S'Lindsay Renwick'
p4551
aS'1989'
p4552
aS'Wing'
p4553
aS'Hawick'
p4554
aS'1'
aS'1'
aS'0'
aS'0'
aa(lp4555
S'John Allan'
p4556
aS'1990'
p4557
aS'Hooker'
p4558
aS'Glasgow'
p4559
aS'22'
p4560
aS'11'
p4561
aS'0'
aS'0'
aa(lp4562
S'Alex Moore'
p4563
aS'1990'
p4564
aS'Wing'
p4565
aS'Qld'
p4566
aS'5'
aS'2'
aS'2'
aS'8'
aa(lp4567
S'Doddie Weir'
p4568
aS'1990'
p4569
aS'Lock'
p4570
aS'Edinburgh'
p4571
aS'61'
p4572
aS'24'
p4573
aS'4'
aS'19'
p4574
aa(lp4575
S'David Milne'
p4576
aS'1991'
p4577
aS'Prop'
p4578
aS'Edinburgh'
p4579
aS'1'
aS'1'
aS'0'
aS'0'
aa(lp4580
S'Alan Watt'
p4581
aS'1991'
p4582
aS'Prop'
p4583
aS'Glasgow'
p4584
aS'4'
aS'2'
aS'0'
aS'0'
aa(lp4585
S'Graham Shiel'
p4586
aS'1991'
p4587
aS'Centre'
p4588
aS'Galashiels'
p4589
aS'18'
p4590
aS'6'
aS'3'
aS'20'
p4591
aa(lp4592
S'Neil Edwards'
p4593
aS'1992'
p4594
aS'Lock'
p4595
aS'Surrey'
p4596
aS'6'
aS'2'
aS'1'
aS'4'
aa(lp4597
S'Dave McIvor'
p4598
aS'1992'
p4599
aS'Flanker'
p4600
aS'Kirkcaldy'
p4601
aS'6'
aS'2'
aS'0'
aS'0'
aa(lp4602
S'Andy Nicol'
p4603
aS'1992'
p4604
aS'Scrum-half'
p4605
aS'Dundee'
p4606
aS'23'
p4607
aS'5'
aS'2'
aS'9'
aa(lp4608
S'Ian Smith'
p4609
aS'1992'
p4610
aS'Flanker'
p4611
aS'Gloucester'
p4612
aS'25'
p4613
aS'7'
aS'0'
aS'0'
aa(lp4614
S'Rob Wainwright'
p4615
aS'1992'
p4616
aS'Flanker'
p4617
aS'Perth'
p4618
aS'38'
p4619
aS'14'
p4620
aS'3'
aS'14'
p4621
aa(lp4622
S'Peter Jones'
p4623
aS'1992'
p4624
aS'Prop'
p4625
aS'Arbroath'
p4626
aS'1'
aS'0'
aS'0'
aS'0'
aa(lp4627
S'Carl Hogg'
p4628
aS'1992'
p4629
aS'Flanker'
p4630
aS'Galashiels'
p4631
aS'5'
aS'0'
aS'0'
aS'0'
aa(lp4632
S'Peter Wright'
p4633
aS'1992'
p4634
aS'Prop'
p4635
aS'Bonnyrigg'
p4636
aS'21'
p4637
aS'11'
p4638
aS'1'
aS'5'
aa(lp4639
S'Ian Corcoran'
p4640
aS'1992'
p4641
aS'Hooker'
p4642
aS'Edinburgh'
p4643
aS'1'
aS'0'
aS'0'
aS'0'
aa(lp4644
S'Kenny Logan'
p4645
aS'1992'
p4646
aS'Wing'
p4647
aS'Stirling'
p4648
aS'70'
p4649
aS'27'
p4650
aS'13'
p4651
aS'220'
p4652
aa(lp4653
S'Martin Scott'
p4654
aS'1992'
p4655
aS'Hooker'
p4656
aS'Falkirk'
p4657
aS'1'
aS'0'
aS'0'
aS'0'
aa(lp4658
S'Iain Morrison'
p4659
aS'1993'
p4660
aS'Flanker'
p4661
aS'Linlithgow'
p4662
aS'15'
p4663
aS'8'
aS'0'
aS'0'
aa(lp4664
S'Andy Reed'
p4665
aS'1993'
p4666
aS'Lock'
p4667
aS'Cornwall'
p4668
aS'19'
p4669
aS'7'
aS'0'
aS'0'
aa(lp4670
S'Derek Stark'
p4671
aS'1993'
p4672
aS'Wing'
p4673
aS'Johnstone'
p4674
aS'9'
aS'3'
aS'3'
aS'15'
p4675
aa(lp4676
S'Gregor Townsend'
p4677
aS'1993'
p4678
aS'Fly-half'
p4679
aS'Edinburgh'
p4680
aS'84'
p4681
aS'34'
p4682
aS'17'
p4683
aS'164'
p4684
aa(lp4685
S'Ian Jardine'
p4686
aS'1993'
p4687
aS'Centre'
p4688
aS'Dunfermline'
p4689
aS'18'
p4690
aS'7'
aS'0'
aS'0'
aa(lp4691
S'Andrew MacDonald'
p4692
aS'1993'
p4693
aS'Lock'
p4694
aS'Nairn'
p4695
aS'1'
aS'0'
aS'0'
aS'0'
aa(lp4696
S'Bryan Redpath'
p4697
aS'1993'
p4698
aS'Scrum-half'
p4699
aS'Galashiels'
p4700
aS'60'
p4701
aS'28'
p4702
aS'1'
aS'5'
aa(lp4703
S'Shade Munro'
p4704
aS'1994'
p4705
aS'Lock'
p4706
aS'Paisley'
p4707
aS'7'
aS'0'
aS'0'
aS'0'
aa(lp4708
S'Alan Sharp'
p4709
aS'1994'
p4710
aS'Prop'
p4711
aS'Bristol'
p4712
aS'6'
aS'0'
aS'0'
aS'0'
aa(lp4713
S'Peter Walton'
p4714
aS'1994'
p4715
aS'Flanker'
p4716
aS'Alnwick'
p4717
aS'24'
p4718
aS'10'
p4719
aS'4'
aS'20'
p4720
aa(lp4721
S'Michael Dods'
p4722
aS'1994'
p4723
aS'Fullback, Wing'
p4724
aS'Galashiels'
p4725
aS'8'
aS'3'
aS'3'
aS'80'
p4726
aa(lp4727
S'Craig Joiner'
p4728
aS'1994'
p4729
aS'Wing'
p4730
aS'Glasgow'
p4731
aS'25'
p4732
aS'13'
p4733
aS'3'
aS'15'
p4734
aa(lp4735
S'Kevin McKenzie'
p4736
aS'1994'
p4737
aS'Hooker'
p4738
aS'Stirling'
p4739
aS'14'
p4740
aS'6'
aS'1'
aS'5'
aa(lp4741
S'Scott Nichol'
p4742
aS'1994'
p4743
aS'Centre'
p4744
aS'Selkirk'
p4745
aS'1'
aS'0'
aS'0'
aS'0'
aa(lp4746
S'Derrick Patterson'
p4747
aS'1994'
p4748
aS'Scrum-half'
p4749
aS'Hawick'
p4750
aS'2'
aS'1'
aS'0'
aS'0'
aa(lp4751
S'Jeremy Richardson'
p4752
aS'1994'
p4753
aS'Lock'
p4754
aS'Crawley'
p4755
aS'1'
aS'0'
aS'0'
aS'0'
aa(lp4756
S'Stewart Campbell'
p4757
aS'1995'
p4758
aS'Lock'
p4759
aS'Glasgow'
p4760
aS'17'
p4761
aS'9'
aS'0'
aS'0'
aa(lp4762
S'Dave Hilton'
p4763
aS'1995'
p4764
aS'Prop'
p4765
aS'Bristol'
p4766
aS'42'
p4767
aS'19'
p4768
aS'1'
aS'5'
aa(lp4769
S'Eric Peters'
p4770
aS'1995'
p4771
aS'Back-row'
p4772
aS'Glasgow'
p4773
aS'29'
p4774
aS'13'
p4775
aS'5'
aS'25'
p4776
aa(lp4777
S'John Manson'
p4778
aS'1995'
p4779
aS'Prop'
p4780
aS'Bridge of Allan'
p4781
aS'1'
aS'0'
aS'0'
aS'0'
aa(lp4782
S'Jim Hay'
p4783
aS'1995'
p4784
aS'Hooker'
p4785
aS'Hawick'
p4786
aS'1'
aS'0'
aS'0'
aS'0'
aa(lp4787
S'Stuart Reid'
p4788
aS'1995'
p4789
aS'Flanker'
p4790
aS'Kendal'
p4791
aS'8'
aS'3'
aS'0'
aS'0'
aa(lp4792
S'Rowen Shepherd'
p4793
aS'1995'
p4794
aS'Fullback'
p4795
aS'Edinburgh'
p4796
aS'20'
p4797
aS'6'
aS'2'
aS'104'
p4798
aa(lp4799
S'Ronnie Eriksson'
p4800
aS'1996'
p4801
aS'Centre'
p4802
aS'Athlone'
p4803
aS'3'
aS'0'
aS'1'
aS'5'
aa(lp4804
S'Barry Stewart'
p4805
aS'1996'
p4806
aS'Prop'
p4807
aS'Edinburgh'
p4808
aS'4'
aS'0'
aS'0'
aS'0'
aa(lp4809
S'Murray Wallace'
p4810
aS'1996'
p4811
aS'Flanker'
p4812
aS'Milton of Campsie'
p4813
aS'3'
aS'1'
aS'0'
aS'0'
aa(lp4814
S'Mattie Stewart'
p4815
aS'1996'
p4816
aS'Prop'
p4817
aS'Dartford'
p4818
aS'34'
p4819
aS'11'
p4820
aS'0'
aS'0'
aa(lp4821
S'Graham Ellis'
p4822
aS'1997'
p4823
aS'Hooker'
p4824
aS'Hawick'
p4825
aS'4'
aS'1'
aS'0'
aS'0'
aa(lp4826
S'Tom Smith'
p4827
aS'1997'
p4828
aS'Prop'
p4829
aS'London'
p4830
aS'67'
p4831
aS'29'
p4832
aS'6'
aS'30'
p4833
aa(lp4834
S'Cameron Glasgow'
p4835
aS'1997'
p4836
aS'Fullback'
p4837
aS'Bridge of Allan'
p4838
aS'1'
aS'0'
aS'0'
aS'0'
aa(lp4839
S'Duncan Hodge'
p4840
aS'1997'
p4841
aS'Fly-half'
p4842
aS'Dumfries'
p4843
aS'26'
p4844
aS'11'
p4845
aS'6'
aS'123'
p4846
aa(lp4847
S'James Craig'
p4848
aS'1997'
p4849
aS'Wing'
p4850
aS'Glasgow'
p4851
aS'4'
aS'1'
aS'0'
aS'0'
aa(lp4852
S'Grant McKelvey'
p4853
aS'1997'
p4854
aS'Hooker'
p4855
aS'Chingola'
p4856
aS'1'
aS'0'
aS'0'
aS'0'
aa(lp4857
S'Scott Murray'
p4858
aS'1997'
p4859
aS'Lock'
p4860
aS'Musselburgh'
p4861
aS'87'
p4862
aS'31'
p4863
aS'3'
aS'15'
p4864
aa(lp4865
S'Adam Roxburgh'
p4866
aS'1997'
p4867
aS'Flanker'
p4868
aS'Edinburgh'
p4869
aS'8'
aS'0'
aS'0'
aS'0'
aa(lp4870
S'George Graham'
p4871
aS'1997'
p4872
aS'Prop'
p4873
aS'Stirling'
p4874
aS'25'
p4875
aS'11'
p4876
aS'1'
aS'5'
aa(lp4877
S'Stuart Grimes'
p4878
aS'1997'
p4879
aS'Lock'
p4880
aS'Aberdeen'
p4881
aS'71'
p4882
aS'27'
p4883
aS'5'
aS'25'
p4884
aa(lp4885
S'Gordon Bulloch'
p4886
aS'1997'
p4887
aS'Hooker'
p4888
aS'Glasgow'
p4889
aS'77'
p4890
aS'26'
p4891
aS'4'
aS'20'
p4892
aa(lp4893
S'Simon Holmes'
p4894
aS'1998'
p4895
aS'Flanker'
p4896
aS'Workington'
p4897
aS'3'
aS'1'
aS'0'
aS'0'
aa(lp4898
S'Derrick Lee'
p4899
aS'1998'
p4900
aS'Fullback'
p4901
aS'Ayr'
p4902
aS'12'
p4903
aS'1'
aS'1'
aS'34'
p4904
aa(lp4905
S'Shaun Longstaff'
p4906
aS'1998'
p4907
aS'Wing'
p4908
aS'Wellington'
p4909
aS'15'
p4910
aS'5'
aS'2'
aS'10'
p4911
aa(lp4912
S'Cammie Murray'
p4913
aS'1998'
p4914
aS'Wing'
p4915
aS'Hawick'
p4916
aS'26'
p4917
aS'11'
p4918
aS'7'
aS'35'
p4919
aa(lp4920
S'Hugh Gilmour'
p4921
aS'1998'
p4922
aS'Wing'
p4923
aS'Edinburgh'
p4924
aS'1'
aS'0'
aS'1'
aS'5'
aa(lp4925
S'Gordon McIlwham'
p4926
aS'1998'
p4927
aS'Prop'
p4928
aS'Glasgow'
p4929
aS'16'
p4930
aS'5'
aS'0'
aS'0'
aa(lp4931
S'Matthew Proudfoot'
p4932
aS'1998'
p4933
aS'Prop'
p4934
aS'Klerksdorp'
p4935
aS'4'
aS'0'
aS'0'
aS'0'
aa(lp4936
S'Glenn Metcalfe'
p4937
aS'1998'
p4938
aS'Fullback'
p4939
aS'Auckland'
p4940
aS'40'
p4941
aS'17'
p4942
aS'4'
aS'20'
p4943
aa(lp4944
S'Gordon Simpson'
p4945
aS'1998'
p4946
aS'No. 8'
p4947
aS'Takapuna'
p4948
aS'15'
p4949
aS'5'
aS'3'
aS'15'
p4950
aa(lp4951
S'John Leslie'
p4952
aS'1998'
p4953
aS'Centre'
p4954
aS'Lower Hutt'
p4955
aS'23'
p4956
aS'10'
p4957
aS'4'
aS'20'
p4958
aa(lp4959
S'Jamie Mayer'
p4960
aS'1998'
p4961
aS'Centre'
p4962
aS'Edinburgh'
p4963
aS'8'
aS'3'
aS'0'
aS'0'
aa(lp4964
S'Budge Pountney'
p4965
aS'1998'
p4966
aS'Flanker'
p4967
aS'Southampton'
p4968
aS'31'
p4969
aS'15'
p4970
aS'5'
aS'25'
p4971
aa(lp4972
S'Martin Leslie'
p4973
aS'1998'
p4974
aS'Flanker'
p4975
aS'Lower Hutt'
p4976
aS'37'
p4977
aS'17'
p4978
aS'10'
p4979
aS'50'
p4980
aa(lp4981
S'Iain Fairley'
p4982
aS'1999'
p4983
aS'Scrum-half'
p4984
aS'Kelso'
p4985
aS'3'
aS'3'
aS'0'
aS'0'
aa(lp4986
S'Graeme Burns'
p4987
aS'1999'
p4988
aS'Scrum-half'
p4989
aS'Edinburgh'
p4990
aS'4'
aS'3'
aS'0'
aS'0'
aa(lp4991
S'Steve Brotherstone'
p4992
aS'1999'
p4993
aS'Hooker'
p4994
aS'Duns'
p4995
aS'8'
aS'4'
aS'0'
aS'0'
aa(lp4996
S'James McLaren'
p4997
aS'1999'
p4998
aS'Centre'
p4999
aS'Stirling'
p5000
aS'30'
p5001
aS'13'
p5002
aS'6'
aS'30'
p5003
aa(lp5004
S'Robbie Russell'
p5005
aS'1999'
p5006
aS'Hooker'
p5007
aS'QLD'
p5008
aS'27'
p5009
aS'12'
p5010
aS'4'
aS'20'
p5011
aa(lp5012
S'Cameron Mather'
p5013
aS'1999'
p5014
aS'Back-row'
p5015
aS'Christchurch'
p5016
aS'10'
p5017
aS'4'
aS'2'
aS'10'
p5018
aa(lp5019
S'Chris Paterson'
p5020
aS'1999'
p5021
aS'Fullback, Wing'
p5022
aS'Edinburgh'
p5023
aS'109'
p5024
aS'43'
p5025
aS'22'
p5026
aS'809'
p5027
aa(lp5028
S'Craig Moir'
p5029
aS'2000'
p5030
aS'Wing, Centre'
p5031
aS'Aberdeen'
p5032
aS'3'
aS'1'
aS'0'
aS'0'
aa(lp5033
S'Richard Metcalfe'
p5034
aS'2000'
p5035
aS'Lock'
p5036
aS'Leeds'
p5037
aS'9'
aS'3'
aS'1'
aS'5'
aa(lp5038
S'Jason White'
p5039
aS'2000'
p5040
aS'Back-row'
p5041
aS'Edinburgh'
p5042
aS'77'
p5043
aS'31'
p5044
aS'4'
aS'20'
p5045
aa(lp5046
S'Ross Beattie'
p5047
aS'2000'
p5048
aS'Back-row'
p5049
aS'Sittingbourne'
p5050
aS'9'
aS'5'
aS'0'
aS'0'
aa(lp5051
S'Iain Fullarton'
p5052
aS'2000'
p5053
aS'Lock'
p5054
aS'Edinburgh'
p5055
aS'8'
aS'2'
aS'0'
aS'0'
aa(lp5056
S'Jon Petrie'
p5057
aS'2000'
p5058
aS'Back-row'
p5059
aS'Dundee'
p5060
aS'45'
p5061
aS'17'
p5062
aS'3'
aS'15'
p5063
aa(lp5064
S'Graeme Beveridge'
p5065
aS'2000'
p5066
aS'Scrum-half'
p5067
aS'Edinburgh'
p5068
aS'6'
aS'4'
aS'0'
aS'0'
aa(lp5069
S'Nathan Hines'
p5070
aS'2000'
p5071
aS'Lock'
p5072
aS'Wagga Wagga'
p5073
aS'77'
p5074
aS'30'
p5075
aS'2'
aS'10'
p5076
aa(lp5077
S'Steve Scott'
p5078
aS'2000'
p5079
aS'Hooker'
p5080
aS'Galashiels'
p5081
aS'11'
p5082
aS'8'
aS'0'
aS'0'
aa(lp5083
S'Alan Bulloch'
p5084
aS'2000'
p5085
aS'Centre'
p5086
aS'Glasgow'
p5087
aS'5'
aS'2'
aS'1'
aS'5'
aa(lp5088
S'Jon Steel'
p5089
aS'2000'
p5090
aS'Outside back'
p5091
aS'Middlesbrough'
p5092
aS'5'
aS'3'
aS'0'
aS'0'
aa(lp5093
S'Simon Taylor'
p5094
aS'2000'
p5095
aS'Back-row'
p5096
aS'Stirling'
p5097
aS'66'
p5098
aS'29'
p5099
aS'6'
aS'30'
p5100
aa(lp5101
S'Andrew Henderson'
p5102
aS'2001'
p5103
aS'Centre'
p5104
aS'Kent'
p5105
aS'53'
p5106
aS'17'
p5107
aS'8'
aS'40'
p5108
aa(lp5109
S'Andrew Mower'
p5110
aS'2001'
p5111
aS'Flanker'
p5112
aS'NSW'
p5113
aS'13'
p5114
aS'4'
aS'0'
aS'0'
aa(lp5115
S'Gordon Ross'
p5116
aS'2001'
p5117
aS'Fly-half'
p5118
aS'Edinburgh'
p5119
aS'25'
p5120
aS'13'
p5121
aS'2'
aS'55'
p5122
aa(lp5123
S'Roland Reid'
p5124
aS'2001'
p5125
aS'Wing'
p5126
aS'Middleberg'
p5127
aS'2'
aS'1'
aS'1'
aS'5'
aa(lp5128
S'Brendan Laney'
p5129
aS'2001'
p5130
aS'Centre, Fly-half'
p5131
aS'Invercargill'
p5132
aS'20'
p5133
aS'7'
aS'4'
aS'141'
p5134
aa(lp5135
S'Mike Blair'
p5136
aS'2002'
p5137
aS'Scrum-half'
p5138
aS'Edinburgh'
p5139
aS'85'
p5140
aS'33'
p5141
aS'7'
aS'35'
p5142
aa(lp5143
S'Andy Craig'
p5144
aS'2002'
p5145
aS'Centre'
p5146
aS'Lancs'
p5147
aS'23'
p5148
aS'9'
aS'8'
aS'40'
p5149
aa(lp5150
S'Rory Kerr'
p5151
aS'2002'
p5152
aS'Fullback'
p5153
aS'Glasgow'
p5154
aS'3'
aS'1'
aS'1'
aS'5'
aa(lp5155
S'Craig Smith'
p5156
aS'2002'
p5157
aS'Prop'
p5158
aS'York'
p5159
aS'25'
p5160
aS'12'
p5161
aS'0'
aS'0'
aa(lp5162
S'Ben Hinshelwood'
p5163
aS'2002'
p5164
aS'Centre'
p5165
aS'VIC'
p5166
aS'19'
p5167
aS'10'
p5168
aS'1'
aS'5'
aa(lp5169
S'Allan Jacobsen'
p5170
aS'2002'
p5171
aS'Prop'
p5172
aS'Edinburgh'
p5173
aS'65'
p5174
aS'24'
p5175
aS'0'
aS'0'
aa(lp5176
S'Donnie Macfadyen'
p5177
aS'2002'
p5178
aS'Flanker'
p5179
aS'Edinburgh'
p5180
aS'11'
p5181
aS'3'
aS'2'
aS'10'
p5182
aa(lp5183
S'Marcus di Rollo'
p5184
aS'2002'
p5185
aS'Centre'
p5186
aS'Edinburgh'
p5187
aS'21'
p5188
aS'10'
p5189
aS'2'
aS'13'
p5190
aa(lp5191
S'Andy Hall'
p5192
aS'2002'
p5193
aS'Flanker, Lock'
p5194
aS'Solihull'
p5195
aS'1'
aS'1'
aS'0'
aS'0'
aa(lp5196
S'Bruce Douglas'
p5197
aS'2002'
p5198
aS'Prop'
p5199
aS'Edinburgh'
p5200
aS'43'
p5201
aS'15'
p5202
aS'1'
aS'5'
aa(lp5203
S'Stuart Moffat'
p5204
aS'2002'
p5205
aS'Fullback'
p5206
aS'Edinburgh'
p5207
aS'4'
aS'3'
aS'1'
aS'5'
aa(lp5208
S'Nikki Walker'
p5209
aS'2002'
p5210
aS'Wing'
p5211
aS'Aberdeen'
p5212
aS'24'
p5213
aS'13'
p5214
aS'6'
aS'30'
p5215
aa(lp5216
S'Gavin Kerr'
p5217
aS'2003'
p5218
aS'Prop'
p5219
aS'Newcastle-upon-Tyne'
p5220
aS'50'
p5221
aS'15'
p5222
aS'1'
aS'5'
aa(lp5223
S'Kevin Utterson'
p5224
aS'2003'
p5225
aS'Centre'
p5226
aS'Edinburgh'
p5227
aS'3'
aS'1'
aS'0'
aS'0'
aa(lp5228
S'Simon Danielli'
p5229
aS'2003'
p5230
aS'Wing'
p5231
aS'Edinburgh'
p5232
aS'32'
p5233
aS'12'
p5234
aS'8'
aS'40'
p5235
aa(lp5236
S'Andrew Dall'
p5237
aS'2003'
p5238
aS'Back-row'
p5239
aS'Edinburgh'
p5240
aS'1'
aS'0'
aS'0'
aS'0'
aa(lp5241
S'Dougie Hall'
p5242
aS'2003'
p5243
aS'Hooker'
p5244
aS'Dingwall'
p5245
aS'42'
p5246
aS'18'
p5247
aS'1'
aS'5'
aa(lp5248
S'Simon Webster'
p5249
aS'2003'
p5250
aS'Wing'
p5251
aS'Hartlepool'
p5252
aS'37'
p5253
aS'15'
p5254
aS'8'
aS'40'
p5255
aa(lp5256
S'Chris Cusiter'
p5257
aS'2004'
p5258
aS'Scrum-half'
p5259
aS'Aberdeen'
p5260
aS'71'
p5261
aS'24'
p5262
aS'3'
aS'15'
p5263
aa(lp5264
S'Ally Hogg'
p5265
aS'2004'
p5266
aS'Back-row'
p5267
aS'Stirling'
p5268
aS'48'
p5269
aS'15'
p5270
aS'10'
p5271
aS'50'
p5272
aa(lp5273
S'Tom Philip'
p5274
aS'2004'
p5275
aS'Outside back'
p5276
aS'Edinburgh'
p5277
aS'5'
aS'0'
aS'0'
aS'0'
aa(lp5278
S'Dan Parks'
p5279
aS'2004'
p5280
aS'Fly-half'
p5281
aS'Hornsby'
p5282
aS'67'
p5283
aS'25'
p5284
aS'4'
aS'266'
p5285
aa(lp5286
S'Sean Lamont'
p5287
aS'2004'
p5288
aS'Wing'
p5289
aS'Perth'
p5290
aS'93'
p5291
aS'38'
p5292
aS'12'
p5293
aS'60'
p5294
aa(lp5295
S'Hugo Southwell'
p5296
aS'2004'
p5297
aS'Fullback'
p5298
aS'London'
p5299
aS'59'
p5300
aS'22'
p5301
aS'8'
aS'40'
p5302
aa(lp5303
S'Graeme Morrison'
p5304
aS'2004'
p5305
aS'Centre'
p5306
aS'1982'
p5307
aS'35'
p5308
aS'14'
p5309
aS'3'
aS'15'
p5310
aa(lp5311
S'Craig Hamilton'
p5312
aS'2004'
p5313
aS'Lock'
p5314
aS'Dumfries'
p5315
aS'5'
aS'2'
aS'0'
aS'0'
aa(lp5316
S'Scott Gray'
p5317
aS'2004'
p5318
aS'Back-row'
p5319
aS'Rhodesia'
p5320
aS'8'
aS'2'
aS'1'
aS'5'
aa(lp5321
S'Scott Macleod'
p5322
aS'2004'
p5323
aS'Lock'
p5324
aS'Hawick'
p5325
aS'24'
p5326
aS'11'
p5327
aS'0'
aS'0'
aa(lp5328
S'Ross Ford'
p5329
aS'2004'
p5330
aS'Hooker'
p5331
aS'Edinburgh'
p5332
aS'86'
p5333
aS'32'
p5334
aS'2'
aS'10'
p5335
aa(lp5336
S'Alastair Kellock'
p5337
aS'2004'
p5338
aS'Lock'
p5339
aS'Bishopbriggs'
p5340
aS'56'
p5341
aS'24'
p5342
aS'1'
aS'5'
aa(lp5343
S'Jon Dunbar'
p5344
aS'2005'
p5345
aS'Back-row'
p5346
aS'Wegberg'
p5347
aS'2'
aS'1'
aS'0'
aS'0'
aa(lp5348
S'Rory Lamont'
p5349
aS'2005'
p5350
aS'Fullback, Wing'
p5351
aS'Perth'
p5352
aS'29'
p5353
aS'12'
p5354
aS'6'
aS'30'
p5355
aa(lp5356
S'Kelly Brown'
p5357
aS'2005'
p5358
aS'Back-row'
p5359
aS'Edinburgh'
p5360
aS'64'
p5361
aS'25'
p5362
aS'4'
aS'20'
p5363
aa(lp5364
S'Scott Lawson'
p5365
aS'2005'
p5366
aS'Hooker'
p5367
aS'Lanark'
p5368
aS'46'
p5369
aS'20'
p5370
aS'2'
aS'10'
p5371
aa(lp5372
S'Phil Godman'
p5373
aS'2005'
p5374
aS'Fly-half'
p5375
aS'Edinburgh'
p5376
aS'23'
p5377
aS'10'
p5378
aS'1'
aS'71'
p5379
aa(lp5380
S'Euan Murray'
p5381
aS'2005'
p5382
aS'Prop'
p5383
aS'Glasgow'
p5384
aS'66'
p5385
aS'25'
p5386
aS'2'
aS'10'
p5387
aa(lp5388
S'Andy Wilson'
p5389
aS'2005'
p5390
aS'Back-row, Wing'
p5391
aS'Fort Brown'
p5392
aS'1'
aS'1'
aS'0'
aS'0'
aa(lp5393
S'Ben MacDougall'
p5394
aS'2006'
p5395
aS'Outside back'
p5396
aS'NSW'
p5397
aS'2'
aS'0'
aS'0'
aS'0'
aa(lp5398
S'Sam Pinder'
p5399
aS'2006'
p5400
aS'Scrum-half'
p5401
aS'1979'
p5402
aS'2'
aS'0'
aS'0'
aS'0'
aa(lp5403
S'Johnnie Beattie'
p5404
aS'2006'
p5405
aS'No. 8'
p5406
aS'Glasgow'
p5407
aS'38'
p5408
aS'15'
p5409
aS'3'
aS'15'
p5410
aa(lp5411
S'Rob Dewey'
p5412
aS'2006'
p5413
aS'Wing, Centre'
p5414
aS'Marlborough'
p5415
aS'13'
p5416
aS'6'
aS'4'
aS'20'
p5417
aa(lp5418
S'David Callam'
p5419
aS'2006'
p5420
aS'No. 8'
p5421
aS'Edinburgh'
p5422
aS'11'
p5423
aS'3'
aS'1'
aS'5'
aa(lp5424
S'Jim Hamilton'
p5425
aS'2006'
p5426
aS'Lock'
p5427
aS'Swindon'
p5428
aS'61'
p5429
aS'17'
p5430
aS'1'
aS'5'
aa(lp5431
S'Rory Lawson'
p5432
aS'2006'
p5433
aS'Scrum-half'
p5434
aS'Dunfermline'
p5435
aS'31'
p5436
aS'13'
p5437
aS'0'
aS'0'
aa(lp5438
S'Alasdair Strokosch'
p5439
aS'2006'
p5440
aS'Back-row'
p5441
aS'Paisley'
p5442
aS'44'
p5443
aS'20'
p5444
aS'2'
aS'10'
p5445
aa(lp5446
S'Fergus Thomson'
p5447
aS'2007'
p5448
aS'Hooker'
p5449
aS'Dundee'
p5450
aS'8'
aS'2'
aS'0'
aS'0'
aa(lp5451
S'John Barclay'
p5452
aS'2007'
p5453
aS'Flanker'
p5454
aS'1986'
p5455
aS'43'
p5456
aS'16'
p5457
aS'2'
aS'10'
p5458
aa(lp5459
S'Alasdair Dickinson'
p5460
aS'2007'
p5461
aS'Prop'
p5462
aS'Dundee'
p5463
aS'44'
p5464
aS'15'
p5465
aS'2'
aS'10'
p5466
aa(lp5467
S'Nick de Luca'
p5468
aS'2008'
p5469
aS'Centre'
p5470
aS'Dumfries'
p5471
aS'43'
p5472
aS'16'
p5473
aS'1'
aS'5'
aa(lp5474
S'Ross Rennie'
p5475
aS'2008'
p5476
aS'Back-row'
p5477
aS'Edinburgh'
p5478
aS'20'
p5479
aS'9'
aS'0'
aS'0'
aa(lp5480
S'Ben Cairns'
p5481
aS'2008'
p5482
aS'Centre'
p5483
aS'Leeds'
p5484
aS'7'
aS'2'
aS'1'
aS'5'
aa(lp5485
S'Thom Evans'
p5486
aS'2008'
p5487
aS'Wing'
p5488
aS'Harare'
p5489
aS'10'
p5490
aS'1'
aS'1'
aS'5'
aa(lp5491
S'Matt Mustchin'
p5492
aS'2008'
p5493
aS'Lock'
p5494
aS'Christchurch'
p5495
aS'5'
aS'2'
aS'0'
aS'0'
aa(lp5496
S'Max Evans'
p5497
aS'2008'
p5498
aS'Centre'
p5499
aS'Torquay'
p5500
aS'44'
p5501
aS'15'
p5502
aS'3'
aS'15'
p5503
aa(lp5504
S'Geoff Cross'
p5505
aS'2009'
p5506
aS'Prop'
p5507
aS'Edinburgh'
p5508
aS'40'
p5509
aS'13'
p5510
aS'2'
aS'10'
p5511
aa(lp5512
S'Moray Low'
p5513
aS'2009'
p5514
aS'Prop'
p5515
aS'Torphins'
p5516
aS'29'
p5517
aS'13'
p5518
aS'0'
aS'0'
aa(lp5519
S'Alex Grove'
p5520
aS'2009'
p5521
aS'Centre'
p5522
aS'Solihull'
p5523
aS'3'
aS'2'
aS'0'
aS'0'
aa(lp5524
S'Kyle Traynor'
p5525
aS'2009'
p5526
aS'Prop'
p5527
aS'Farnborough'
p5528
aS'4'
aS'2'
aS'0'
aS'0'
aa(lp5529
S'Richie Vernon'
p5530
aS'2009'
p5531
aS'Back-row'
p5532
aS'Dundee'
p5533
aS'20'
p5534
aS'9'
aS'0'
aS'0'
aa(lp5535
S'Alan MacDonald'
p5536
aS'2009'
p5537
aS'Back-row'
p5538
aS'Edinburgh'
p5539
aS'4'
aS'1'
aS'0'
aS'0'
aa(lp5540
S'Richie Gray'
p5541
aS'2010'
p5542
aS'Lock'
p5543
aS'Rutherglen'
p5544
aS'45'
p5545
aS'20'
p5546
aS'2'
aS'10'
p5547
aa(lp5548
S'Ruaridh Jackson'
p5549
aS'2010'
p5550
aS'Fly-half'
p5551
aS'Northampton'
p5552
aS'25'
p5553
aS'10'
p5554
aS'0'
aS'18'
p5555
aa(lp5556
S'Greig Laidlaw'
p5557
aS'2010'
p5558
aS'Fly-half'
p5559
aS'Edinburgh'
p5560
aS'39'
p5561
aS'13'
p5562
aS'3'
aS'340'
p5563
aa(lp5564
S'Joe Ansbro'
p5565
aS'2010'
p5566
aS'Centre'
p5567
aS'Glasgow'
p5568
aS'11'
p5569
aS'7'
aS'3'
aS'15'
p5570
aa(lp5571
S'Jack Cuthbert'
p5572
aS'2011'
p5573
aS'Fullback, Wing'
p5574
aS'Bristol'
p5575
aS'1'
aS'1'
aS'0'
aS'0'
aa(lp5576
S'David Denton'
p5577
aS'2011'
p5578
aS'Back-row'
p5579
aS'Marondera'
p5580
aS'25'
p5581
aS'6'
aS'0'
aS'0'
aa(lp5582
S'Lee Jones'
p5583
aS'2012'
p5584
aS'Wing'
p5585
aS'Edinburgh'
p5586
aS'4'
aS'0'
aS'1'
aS'5'
aa(lp5587
S'Stuart Hogg'
p5588
aS'2012'
p5589
aS'Fullback'
p5590
aS'Melrose'
p5591
aS'32'
p5592
aS'11'
p5593
aS'9'
aS'48'
p5594
aa(lp5595
S'Ed Kalman'
p5596
aS'2012'
p5597
aS'Prop'
p5598
aS'Plymouth'
p5599
aS'2'
aS'0'
aS'0'
aS'0'
aa(lp5600
S'Duncan Weir'
p5601
aS'2012'
p5602
aS'Fly-half'
p5603
aS'Rutherglen'
p5604
aS'18'
p5605
aS'7'
aS'1'
aS'36'
p5606
aa(lp5607
S'Matt Scott'
p5608
aS'2012'
p5609
aS'Centre'
p5610
aS'Dunfermline'
p5611
aS'25'
p5612
aS'8'
aS'3'
aS'15'
p5613
aa(lp5614
S'Jon Welsh'
p5615
aS'2012'
p5616
aS'Prop'
p5617
aS'Glasgow'
p5618
aS'4'
aS'2'
aS'1'
aS'5'
aa(lp5619
S'Ryan Grant'
p5620
aS'2012'
p5621
aS'Prop'
p5622
aS'Kirkcaldy'
p5623
aS'22'
p5624
aS'8'
aS'0'
aS'0'
aa(lp5625
S'Tom Brown'
p5626
aS'2012'
p5627
aS'Fullback, Wing'
p5628
aS'Edinburgh'
p5629
aS'1'
aS'1'
aS'0'
aS'0'
aa(lp5630
S'Tim Visser'
p5631
aS'2012'
p5632
aS'Wing'
p5633
aS'Netherland'
p5634
aS'18'
p5635
aS'8'
aS'7'
aS'35'
p5636
aa(lp5637
S'Tom Ryder'
p5638
aS'2012'
p5639
aS'Lock'
p5640
aS'Nottingham'
p5641
aS'2'
aS'2'
aS'0'
aS'0'
aa(lp5642
S'Rob Harley'
p5643
aS'2012'
p5644
aS'Back-row'
p5645
aS'Cheshire'
p5646
aS'15'
p5647
aS'7'
aS'1'
aS'5'
aa(lp5648
S'Henry Pyrgos'
p5649
aS'2012'
p5650
aS'Scrum-half'
p5651
aS'Dorchester'
p5652
aS'13'
p5653
aS'5'
aS'2'
aS'10'
p5654
aa(lp5655
S'Tom Heathcote'
p5656
aS'2012'
p5657
aS'Fly-half'
p5658
aS'Inverness'
p5659
aS'3'
aS'1'
aS'0'
aS'0'
aa(lp5660
S'Sean Maitland'
p5661
aS'2013'
p5662
aS'Fullback, Wing'
p5663
aS'Tokoroa'
p5664
aS'15'
p5665
aS'7'
aS'2'
aS'10'
p5666
aa(lp5667
S'Ryan Wilson'
p5668
aS'2013'
p5669
aS'No. 8'
p5670
aS'Aldershot'
p5671
aS'9'
aS'1'
aS'0'
aS'0'
aa(lp5672
S'Grant Gilchrist'
p5673
aS'2013'
p5674
aS'Lock'
p5675
aS'Stirling'
p5676
aS'8'
aS'4'
aS'1'
aS'5'
aa(lp5677
S'Alex Dunbar'
p5678
aS'2013'
p5679
aS'Centre'
p5680
aS'Dumfries'
p5681
aS'14'
p5682
aS'4'
aS'4'
aS'20'
p5683
aa(lp5684
S'Pat MacArthur'
p5685
aS'2013'
p5686
aS'Hooker'
p5687
aS'Irvine'
p5688
aS'6'
aS'3'
aS'0'
aS'0'
aa(lp5689
S'Greig Tonks'
p5690
aS'2013'
p5691
aS'Fullback'
p5692
aS'Pretoria'
p5693
aS'4'
aS'0'
aS'0'
aS'0'
aa(lp5694
S'Peter Horne'
p5695
aS'2013'
p5696
aS'Centre'
p5697
aS'Kirkcaldy'
p5698
aS'7'
aS'2'
aS'0'
aS'0'
aa(lp5699
S'Steven Lawrie'
p5700
aS'2013'
p5701
aS'Hooker'
p5702
aS'Edinburgh'
p5703
aS'1'
aS'0'
aS'0'
aS'0'
aa(lp5704
S'Duncan Taylor'
p5705
aS'2013'
p5706
aS'Wing'
p5707
aS'Northampton'
p5708
aS'12'
p5709
aS'5'
aS'0'
aS'0'
aa(lp5710
S'Peter Murchie'
p5711
aS'2013'
p5712
aS'Fullback'
p5713
aS'Carlisle'
p5714
aS'3'
aS'1'
aS'0'
aS'0'
aa(lp5715
S'Tommy Seymour'
p5716
aS'2013'
p5717
aS'Wing'
p5718
aS'United States'
p5719
aS'17'
p5720
aS'6'
aS'6'
aS'30'
p5721
aa(lp5722
S'Tim Swinson'
p5723
aS'2013'
p5724
aS'Lock'
p5725
aS'London'
p5726
aS'12'
p5727
aS'3'
aS'0'
aS'0'
aa(lp5728
S'Fraser Brown'
p5729
aS'2013'
p5730
aS'Hooker'
p5731
aS'Lanark'
p5732
aS'8'
aS'2'
aS'0'
aS'0'
aa(lp5733
S'Jonny Gray'
p5734
aS'2013'
p5735
aS'Lock'
p5736
aS'Glasgow'
p5737
aS'13'
p5738
aS'3'
aS'1'
aS'5'
aa(lp5739
S'Kieran Low'
p5740
aS'2013'
p5741
aS'Lock'
p5742
aS'Chichester'
p5743
aS'5'
aS'4'
aS'0'
aS'0'
aa(lp5744
S'Chris Fusaro'
p5745
aS'2014'
p5746
aS'Flanker'
p5747
aS'Kirkcaldy'
p5748
aS'4'
aS'2'
aS'0'
aS'0'
aa(lp5749
S'Dougie Fife'
p5750
aS'2014'
p5751
aS'Wing, Centre'
p5752
aS'Edinburgh'
p5753
aS'6'
aS'1'
aS'1'
aS'5'
aa(lp5754
S'Blair Cowan'
p5755
aS'2014'
p5756
aS'Flanker'
p5757
aS'Upper Hutt'
p5758
aS'11'
p5759
aS'5'
aS'1'
aS'5'
aa(lp5760
S'Gordon Reid'
p5761
aS'2014'
p5762
aS'Prop'
p5763
aS'Irvine'
p5764
aS'8'
aS'5'
aS'0'
aS'0'
aa(lp5765
S'Finn Russell'
p5766
aS'2014'
p5767
aS'Fly-half'
p5768
aS'Bridge of Allan'
p5769
aS'9'
aS'4'
aS'1'
aS'7'
aa(lp5770
S'Alex Allan'
p5771
aS'2014'
p5772
aS'Prop'
p5773
aS'Harrogate'
p5774
aS'1'
aS'1'
aS'0'
aS'0'
aa(lp5775
S'Kevin Bryce'
p5776
aS'2014'
p5777
aS'Hooker'
p5778
aS'Alloa'
p5779
aS'2'
aS'1'
aS'0'
aS'0'
aa(lp5780
S'Grayson Hart'
p5781
aS'2014'
p5782
aS'Scrum-half'
p5783
aS'Auckland'
p5784
aS'3'
aS'2'
aS'0'
aS'0'
aa(lp5785
S'Adam Ashe'
p5786
aS'2014'
p5787
aS'Back-row'
p5788
aS'Livingston'
p5789
aS'5'
aS'1'
aS'0'
aS'0'
aa(lp5790
S'Tyrone Holmes'
p5791
aS'2014'
p5792
aS'Back-row'
p5793
aS'Johannesburg'
p5794
aS'1'
aS'0'
aS'0'
aS'0'
aa(lp5795
S'Mark Bennett'
p5796
aS'2014'
p5797
aS'Centre'
p5798
aS'Cumnock'
p5799
aS'7'
aS'1'
aS'2'
aS'10'
p5800
aa(lp5801
S'Sam Hidalgo-Clyne'
p5802
aS'2015'
p5803
aS'Scrum-half'
p5804
aS'Granada'
p5805
aS'5'
aS'0'
aS'0'
aS'0'
aa(lp5806
S'Ben Toolis'
p5807
aS'2015'
p5808
aS'Lock'
p5809
aS'QLD'
p5810
aS'1'
aS'0'
aS'0'
aS'0'
aa(lp5811
S'Hamish Watson'
p5812
aS'2015'
p5813
aS'Back-row'
p5814
aS'Manchester'
p5815
aS'1'
aS'0'
aS'0'
aS'0'
aa.