(lp1
(lp2
S'A. Bover'
p3
aS'1910'
p4
aS'Prop'
p5
aS'date unknown'
p6
aS'1'
aS'0'
aS'0'
aS'0'
aa(lp7
S'A. Donelly'
p8
aS'1910'
p9
aS'Hooker'
p10
aS'date unknown'
p11
aS'1'
aS'0'
aS'0'
aS'0'
aa(lp12
S'Oswald Gebbie'
p13
aS'1910'
p14
aS'Centre'
p15
aS'Florencia Varela'
p16
aS'1'
aS'0'
aS'0'
aS'0'
aa(lp17
S'L.H. Gribbell'
p18
aS'1910'
p19
aS'Flanker'
p20
aS'date unknown'
p21
aS'1'
aS'0'
aS'0'
aS'0'
aa(lp22
S'Fairy Heatlie'
p23
aS'1891'
p24
aS'Forward'
p25
aS'Cape Prov'
p26
aS'7'
aS'2'
aS'0'
aS'6'
aa(lp27
S'F. Henrys'
p28
aS'1910'
p29
aS'Lock'
p30
aS'date unknown'
p31
aS'1'
aS'0'
aS'0'
aS'0'
aa(lp32
S'Frank Heriot'
p33
aS'1910'
p34
aS'Centre'
p35
aS'Philippine'
p36
aS'1'
aS'0'
aS'0'
aS'0'
aa(lp37
S'W.H. Hyman'
p38
aS'1910'
p39
aS'Flanker'
p40
aS'date unknown'
p41
aS'1'
aS'0'
aS'0'
aS'0'
aa(lp42
S'C.J. MacCarthy'
p43
aS'1910'
p44
aS'Wing'
p45
aS'date unknown'
p46
aS'1'
aS'0'
aS'1'
aS'3'
aa(lp47
S'Carlos Mold'
p48
aS'1910'
p49
aS'Fly-half'
p50
aS'date unknown'
p51
aS'1'
aS'0'
aS'0'
aS'0'
aa(lp52
S'Alvan Reid'
p53
aS'1910'
p54
aS'Prop'
p55
aS'date unknown'
p56
aS'1'
aS'0'
aS'0'
aS'0'
aa(lp57
S'J.E. Saffery'
p58
aS'1910'
p59
aS'Fullback'
p60
aS'date unknown'
p61
aS'1'
aS'0'
aS'0'
aS'0'
aa(lp62
S'Frederick Sawyer'
p63
aS'1910'
p64
aS'Lock'
p65
aS'Surrey'
p66
aS'1'
aS'0'
aS'0'
aS'0'
aa(lp67
S'Henry Talbot'
p68
aS'1910'
p69
aS'Wing'
p70
aS'date unknown'
p71
aS'1'
aS'0'
aS'0'
aS'0'
aa(lp72
S'Arnaldo Watson-Hutton'
p73
aS'1910'
p74
aS'Scrum-half'
p75
aS'date unknown'
p76
aS'1'
aS'0'
aS'0'
aS'0'
aa(lp77
S'W. Braddon'
p78
aS'1927'
p79
aS''
aS'date unknown'
p80
aS'1'
aS'0'
aS'0'
aS'0'
aa(lp81
S'Enrique Bustamante'
p82
aS'1927'
p83
aS''
aS'date unknown'
p84
aS'4'
aS'0'
aS'0'
aS'0'
aa(lp85
S'Ray Cameron'
p86
aS'1927'
p87
aS''
aS'date unknown'
p88
aS'3'
aS'0'
aS'0'
aS'0'
aa(lp89
S'Jorge Conrard'
p90
aS'1927'
p91
aS''
aS'date unknown'
p92
aS'2'
aS'0'
aS'0'
aS'0'
aa(lp93
S'Reginald Cooper'
p94
aS'1927'
p95
aS''
aS'date unknown'
p96
aS'4'
aS'0'
aS'0'
aS'0'
aa(lp97
S'Jose Cuesta Silva'
p98
aS'1927'
p99
aS''
aS'date unknown'
p100
aS'4'
aS'0'
aS'0'
aS'0'
aa(lp101
S'Antonio Hobson'
p102
aS'1927'
p103
aS''
aS'date unknown'
p104
aS'1'
aS'0'
aS'0'
aS'0'
aa(lp105
S'Fabio Lucioni'
p106
aS'1927'
p107
aS''
aS'date unknown'
p108
aS'1'
aS'0'
aS'0'
aS'0'
aa(lp109
S'Miguel McCormick'
p110
aS'1927'
p111
aS''
aS'date unknown'
p112
aS'1'
aS'0'
aS'0'
aS'0'
aa(lp113
S'Antonio Pasalagua'
p114
aS'1927'
p115
aS''
aS'date unknown'
p116
aS'2'
aS'0'
aS'0'
aS'0'
aa(lp117
S'Cesar Pollano'
p118
aS'1927'
p119
aS''
aS'date unknown'
p120
aS'1'
aS'0'
aS'0'
aS'0'
aa(lp121
S'Arturo Rodriguez Jurado'
p122
aS'1927'
p123
aS''
aS'Buenos Aires'
p124
aS'8'
aS'2'
aS'0'
aS'0'
aa(lp125
S'Rodolfo Serra'
p126
aS'1927'
p127
aS''
aS'date unknown'
p128
aS'3'
aS'0'
aS'0'
aS'0'
aa(lp129
S'Cesar Vazquez'
p130
aS'1927'
p131
aS''
aS'date unknown'
p132
aS'3'
aS'0'
aS'0'
aS'0'
aa(lp133
S'Alberto Zappa'
p134
aS'1927'
p135
aS''
aS'date unknown'
p136
aS'1'
aS'0'
aS'0'
aS'0'
aa(lp137
S'Martin Ayerra'
p138
aS'1927'
p139
aS''
aS'date unknown'
p140
aS'1'
aS'0'
aS'0'
aS'0'
aa(lp141
S'Roberto Botting'
p142
aS'1927'
p143
aS''
aS'date unknown'
p144
aS'3'
aS'0'
aS'0'
aS'0'
aa(lp145
S'G.E.F. Cooke'
p146
aS'1927'
p147
aS''
aS'date unknown'
p148
aS'1'
aS'0'
aS'0'
aS'0'
aa(lp149
S'Marco Hernandez'
p150
aS'1927'
p151
aS''
aS'date unknown'
p152
aS'3'
aS'0'
aS'0'
aS'0'
aa(lp153
S'A. Jacobs'
p154
aS'1927'
p155
aS''
aS'date unknown'
p156
aS'2'
aS'0'
aS'0'
aS'0'
aa(lp157
S'Carlos Reyes'
p158
aS'1927'
p159
aS''
aS'date unknown'
p160
aS'3'
aS'0'
aS'0'
aS'0'
aa(lp161
S'Alfredo Riganti'
p162
aS'1927'
p163
aS''
aS'date unknown'
p164
aS'3'
aS'0'
aS'0'
aS'0'
aa(lp165
S'Julian Sommer'
p166
aS'1927'
p167
aS''
aS'date unknown'
p168
aS'1'
aS'0'
aS'0'
aS'0'
aa(lp169
S'C. Derkheim'
p170
aS'1927'
p171
aS''
aS'date unknown'
p172
aS'1'
aS'0'
aS'0'
aS'0'
aa(lp173
S'Norberto Escary'
p174
aS'1927'
p175
aS''
aS'date unknown'
p176
aS'4'
aS'0'
aS'1'
aS'3'
aa(lp177
S'Vicente Grimoldi'
p178
aS'1927'
p179
aS''
aS'date unknown'
p180
aS'2'
aS'0'
aS'0'
aS'0'
aa(lp181
S'Llewellyn Makin'
p182
aS'1927'
p183
aS''
aS'date unknown'
p184
aS'1'
aS'0'
aS'0'
aS'0'
aa(lp185
S'Francisco Torino'
p186
aS'1927'
p187
aS''
aS'date unknown'
p188
aS'2'
aS'0'
aS'0'
aS'3'
aa(lp189
S'Salvador Muller'
p190
aS'1927'
p191
aS''
aS'date unknown'
p192
aS'1'
aS'0'
aS'0'
aS'0'
aa(lp193
S'J. Bridger'
p194
aS'1932'
p195
aS''
aS'date unknown'
p196
aS'1'
aS'0'
aS'0'
aS'0'
aa(lp197
S'Ernesto Cilley'
p198
aS'1932'
p199
aS''
aS'date unknown'
p200
aS'2'
aS'0'
aS'0'
aS'0'
aa(lp201
S'K.A.M. Cookson'
p202
aS'1932'
p203
aS''
aS'date unknown'
p204
aS'1'
aS'0'
aS'0'
aS'0'
aa(lp205
S'Roberto de Abelleyra'
p206
aS'1932'
p207
aS''
aS'date unknown'
p208
aS'2'
aS'0'
aS'0'
aS'0'
aa(lp209
S'Carlos Echeverria'
p210
aS'1932'
p211
aS''
aS'date unknown'
p212
aS'1'
aS'0'
aS'0'
aS'0'
aa(lp213
S'Jumbo Francombe'
p214
aS'1932'
p215
aS''
aS'date unknown'
p216
aS'3'
aS'0'
aS'0'
aS'0'
aa(lp217
S'Carlos Huntley-Robertson'
p218
aS'1932'
p219
aS''
aS'date unknown'
p220
aS'2'
aS'0'
aS'0'
aS'0'
aa(lp221
S'Harald Maurer'
p222
aS'1932'
p223
aS''
aS'date unknown'
p224
aS'2'
aS'0'
aS'0'
aS'0'
aa(lp225
S'Adolfo Navajas'
p226
aS'1932'
p227
aS''
aS'date unknown'
p228
aS'2'
aS'0'
aS'0'
aS'0'
aa(lp229
S'Edmundo Stanfield'
p230
aS'1932'
p231
aS''
aS'date unknown'
p232
aS'1'
aS'0'
aS'0'
aS'0'
aa(lp233
S'Jorge Stewart'
p234
aS'1932'
p235
aS''
aS'date unknown'
p236
aS'2'
aS'0'
aS'0'
aS'0'
aa(lp237
S'Norman Tozer'
p238
aS'1932'
p239
aS''
aS'date unknown'
p240
aS'2'
aS'0'
aS'0'
aS'0'
aa(lp241
S'A. Turner'
p242
aS'1932'
p243
aS''
aS'date unknown'
p244
aS'2'
aS'0'
aS'0'
aS'0'
aa(lp245
S'Oscar Bernat'
p246
aS'1932'
p247
aS''
aS'date unknown'
p248
aS'1'
aS'0'
aS'0'
aS'0'
aa(lp249
S'Antonio Lanusse'
p250
aS'1932'
p251
aS''
aS'date unknown'
p252
aS'1'
aS'0'
aS'0'
aS'0'
aa(lp253
S'Ian Lewis'
p254
aS'1932'
p255
aS''
aS'date unknown'
p256
aS'1'
aS'0'
aS'0'
aS'0'
aa(lp257
S'Tomas Sanderson'
p258
aS'1932'
p259
aS''
aS'date unknown'
p260
aS'1'
aS'0'
aS'0'
aS'0'
aa(lp261
S'Hector Alfonso'
p262
aS'1936'
p263
aS''
aS'date unknown'
p264
aS'2'
aS'1'
aS'0'
aS'0'
aa(lp265
S'Jorge Cilley'
p266
aS'1936'
p267
aS''
aS'date unknown'
p268
aS'4'
aS'3'
aS'0'
aS'0'
aa(lp269
S'Noel Cooper'
p270
aS'1936'
p271
aS''
aS'date unknown'
p272
aS'3'
aS'2'
aS'0'
aS'0'
aa(lp273
S'Riebeck Elliot'
p274
aS'1936'
p275
aS''
aS'date unknown'
p276
aS'2'
aS'1'
aS'0'
aS'0'
aa(lp277
S'Jose Frigoli'
p278
aS'1936'
p279
aS''
aS'date unknown'
p280
aS'3'
aS'2'
aS'0'
aS'0'
aa(lp281
S'Virgilio Inchausti'
p282
aS'1936'
p283
aS''
aS'date unknown'
p284
aS'3'
aS'2'
aS'0'
aS'0'
aa(lp285
S'Gilbert Logan'
p286
aS'1936'
p287
aS''
aS'date unknown'
p288
aS'1'
aS'0'
aS'0'
aS'0'
aa(lp289
S'Bernardo Mitchelstein'
p290
aS'1936'
p291
aS''
aS'date unknown'
p292
aS'1'
aS'0'
aS'0'
aS'0'
aa(lp293
S'Horacio Pascuali'
p294
aS'1936'
p295
aS''
aS'date unknown'
p296
aS'1'
aS'0'
aS'0'
aS'0'
aa(lp297
S'Tomas Salzman'
p298
aS'1936'
p299
aS''
aS'date unknown'
p300
aS'3'
aS'2'
aS'0'
aS'0'
aa(lp301
S'Emilio Schiavio'
p302
aS'1936'
p303
aS''
aS'date unknown'
p304
aS'3'
aS'2'
aS'0'
aS'0'
aa(lp305
S'Herbert Talbot'
p306
aS'1936'
p307
aS''
aS'date unknown'
p308
aS'4'
aS'3'
aS'0'
aS'0'
aa(lp309
S'Percy Talbot'
p310
aS'1936'
p311
aS''
aS'date unknown'
p312
aS'2'
aS'1'
aS'0'
aS'0'
aa(lp313
S'Eduardo Arriaga'
p314
aS'1936'
p315
aS''
aS'date unknown'
p316
aS'2'
aS'2'
aS'0'
aS'0'
aa(lp317
S'Archie Cameron'
p318
aS'1936'
p319
aS'Hooker'
p320
aS'date unknown'
p321
aS'3'
aS'3'
aS'0'
aS'0'
aa(lp322
S'Luis Hughes'
p323
aS'1936'
p324
aS''
aS'date unknown'
p325
aS'1'
aS'1'
aS'0'
aS'0'
aa(lp326
S'Walter Sutton'
p327
aS'1936'
p328
aS''
aS'date unknown'
p329
aS'1'
aS'1'
aS'0'
aS'0'
aa(lp330
S'Jose Tagliabue'
p331
aS'1936'
p332
aS''
aS'date unknown'
p333
aS'2'
aS'2'
aS'0'
aS'0'
aa(lp334
S'Raymond Wilkins'
p335
aS'1936'
p336
aS''
aS'date unknown'
p337
aS'2'
aS'2'
aS'0'
aS'0'
aa(lp338
S'Archie Ker'
p339
aS'1936'
p340
aS''
aS'date unknown'
p341
aS'2'
aS'2'
aS'0'
aS'0'
aa(lp342
S'Hector Pasman'
p343
aS'1936'
p344
aS''
aS'date unknown'
p345
aS'1'
aS'1'
aS'0'
aS'0'
aa(lp346
S'Samuel Ratcliff'
p347
aS'1936'
p348
aS''
aS'date unknown'
p349
aS'1'
aS'1'
aS'0'
aS'0'
aa(lp350
S'Tomas Blades'
p351
aS'1938'
p352
aS''
aS'date unknown'
p353
aS'1'
aS'1'
aS'0'
aS'0'
aa(lp354
S'Eric Buckley'
p355
aS'1938'
p356
aS''
aS'date unknown'
p357
aS'1'
aS'1'
aS'0'
aS'0'
aa(lp358
S'Keith Bush'
p359
aS'1938'
p360
aS''
aS'date unknown'
p361
aS'1'
aS'1'
aS'0'
aS'0'
aa(lp362
S'Jeronimo Cernegoy'
p363
aS'1938'
p364
aS''
aS'date unknown'
p365
aS'1'
aS'1'
aS'0'
aS'0'
aa(lp366
S'P.H. Cox'
p367
aS'1938'
p368
aS''
aS'date unknown'
p369
aS'1'
aS'1'
aS'0'
aS'0'
aa(lp370
S'Douglas Hine'
p371
aS'1938'
p372
aS''
aS'date unknown'
p373
aS'1'
aS'1'
aS'0'
aS'0'
aa(lp374
S'Ricardo Martin'
p375
aS'1938'
p376
aS''
aS'date unknown'
p377
aS'1'
aS'1'
aS'0'
aS'0'
aa(lp378
S'Marcelo Pacheco'
p379
aS'1938'
p380
aS''
aS'date unknown'
p381
aS'1'
aS'1'
aS'0'
aS'0'
aa(lp382
S'J. Topping'
p383
aS'1938'
p384
aS''
aS'date unknown'
p385
aS'1'
aS'1'
aS'0'
aS'0'
aa(lp386
S'Matias Avellaneda'
p387
aS'1948'
p388
aS'Wing'
p389
aS'Parana'
p390
aS'4'
aS'2'
aS'0'
aS'0'
aa(lp391
S'Juan de Pablo'
p392
aS'1948'
p393
aS'Wing'
p394
aS'date unknown'
p395
aS'1'
aS'0'
aS'0'
aS'0'
aa(lp396
S'Guillermo Ehrman'
p397
aS'1948'
p398
aS'Scrum-half'
p399
aS'date unknown'
p400
aS'10'
p401
aS'3'
aS'5'
aS'21'
p402
aa(lp403
S'Ricardo Follett'
p404
aS'1948'
p405
aS'Prop'
p406
aS'Buenos Aires'
p407
aS'5'
aS'0'
aS'0'
aS'0'
aa(lp408
S'Ricardo Frigerio'
p409
aS'1948'
p410
aS'Fullback'
p411
aS'date unknown'
p412
aS'3'
aS'0'
aS'0'
aS'0'
aa(lp413
S'Ricardo Giles'
p414
aS'1948'
p415
aS'Fly-half'
p416
aS'date unknown'
p417
aS'6'
aS'1'
aS'0'
aS'0'
aa(lp418
S'Lucas Glastra'
p419
aS'1948'
p420
aS'Lock'
p421
aS'date unknown'
p422
aS'3'
aS'0'
aS'0'
aS'0'
aa(lp423
S'Bruno Grigolon'
p424
aS'1948'
p425
aS'Flanker, Prop'
p426
aS'date unknown'
p427
aS'3'
aS'0'
aS'0'
aS'0'
aa(lp428
S'Luis Maurette'
p429
aS'1948'
p430
aS'Lock'
p431
aS'date unknown'
p432
aS'3'
aS'0'
aS'0'
aS'0'
aa(lp433
S'Enrique Monpelat'
p434
aS'1948'
p435
aS'Centre, Fly-half'
p436
aS'date unknown'
p437
aS'2'
aS'0'
aS'0'
aS'0'
aa(lp438
S'Miguel Sarandon'
p439
aS'1948'
p440
aS'Back-row, Hooker'
p441
aS'date unknown'
p442
aS'9'
aS'3'
aS'0'
aS'0'
aa(lp443
S'Ronaldo Sharpe'
p444
aS'1948'
p445
aS'Prop'
p446
aS'date unknown'
p447
aS'1'
aS'0'
aS'0'
aS'0'
aa(lp448
S'Carlos Swain'
p449
aS'1948'
p450
aS'Hooker'
p451
aS'date unknown'
p452
aS'7'
aS'3'
aS'1'
aS'3'
aa(lp453
S'Normando Tompkins'
p454
aS'1948'
p455
aS'Lock, Flanker'
p456
aS'date unknown'
p457
aS'5'
aS'0'
aS'0'
aS'0'
aa(lp458
S'Prudencio Torres Garcia'
p459
aS'1948'
p460
aS'Centre'
p461
aS'date unknown'
p462
aS'1'
aS'0'
aS'0'
aS'0'
aa(lp463
S'Horacio Achaval'
p464
aS'1948'
p465
aS'Hooker'
p466
aS'date unknown'
p467
aS'1'
aS'0'
aS'0'
aS'0'
aa(lp468
S'Juan Hardie'
p469
aS'1948'
p470
aS'Prop'
p471
aS'date unknown'
p472
aS'1'
aS'0'
aS'0'
aS'0'
aa(lp473
S'Ezequiel Holmberg'
p474
aS'1948'
p475
aS'Scrum-half, Flanker'
p476
aS'date unknown'
p477
aS'2'
aS'0'
aS'0'
aS'0'
aa(lp478
S'A. Jones'
p479
aS'1948'
p480
aS'Centre'
p481
aS'date unknown'
p482
aS'1'
aS'0'
aS'0'
aS'0'
aa(lp483
S"Jaime O'Farrell"
p484
aS'1948'
p485
aS'Prop, Flanker'
p486
aS'date unknown'
p487
aS'4'
aS'2'
aS'6'
aS'18'
p488
aa(lp489
S'Arturo Phillips'
p490
aS'1948'
p491
aS'No. 8'
p492
aS'date unknown'
p493
aS'3'
aS'0'
aS'0'
aS'0'
aa(lp494
S'Jorge Sansot'
p495
aS'1948'
p496
aS'Centre'
p497
aS'date unknown'
p498
aS'1'
aS'0'
aS'0'
aS'0'
aa(lp499
S'Julian Santiago'
p500
aS'1948'
p501
aS'Wing'
p502
aS'date unknown'
p503
aS'2'
aS'0'
aS'0'
aS'0'
aa(lp504
S'Edmundo Caffarone'
p505
aS'1949'
p506
aS'Wing'
p507
aS'date unknown'
p508
aS'8'
aS'2'
aS'2'
aS'6'
aa(lp509
S'Emilio Dominguez'
p510
aS'1949'
p511
aS'Lock'
p512
aS'date unknown'
p513
aS'6'
aS'0'
aS'0'
aS'0'
aa(lp514
S'Luis Dorado'
p515
aS'1949'
p516
aS'Wing'
p517
aS'date unknown'
p518
aS'1'
aS'0'
aS'0'
aS'0'
aa(lp519
S'Barry Holmes'
p520
aS'1949'
p521
aS'Fullback'
p522
aS'Buenos Aires'
p523
aS'6'
aS'2'
aS'0'
aS'4'
aa(lp524
S'Miguel Hughes'
p525
aS'1949'
p526
aS'Flanker'
p527
aS'date unknown'
p528
aS'2'
aS'0'
aS'0'
aS'0'
aa(lp529
S'Pedro Macadam'
p530
aS'1949'
p531
aS'Centre'
p532
aS'1921'
p533
aS'2'
aS'0'
aS'0'
aS'0'
aa(lp534
S'Carlos Orti'
p535
aS'1949'
p536
aS'Prop'
p537
aS'date unknown'
p538
aS'2'
aS'0'
aS'0'
aS'0'
aa(lp539
S'Alfredo Palma'
p540
aS'1949'
p541
aS'Centre'
p542
aS'date unknown'
p543
aS'6'
aS'0'
aS'1'
aS'3'
aa(lp544
S'Juan Petrone'
p545
aS'1949'
p546
aS'Prop'
p547
aS'date unknown'
p548
aS'2'
aS'0'
aS'0'
aS'0'
aa(lp549
S'William Chiswell'
p550
aS'1949'
p551
aS'Wing'
p552
aS'date unknown'
p553
aS'1'
aS'0'
aS'0'
aS'0'
aa(lp554
S'Emilio Dacharry'
p555
aS'1949'
p556
aS'Hooker'
p557
aS'date unknown'
p558
aS'1'
aS'0'
aS'0'
aS'0'
aa(lp559
S'Leslie Allen'
p560
aS'1951'
p561
aS'Prop'
p562
aS'date unknown'
p563
aS'3'
aS'3'
aS'0'
aS'0'
aa(lp564
S'Ricardo Bazan'
p565
aS'1951'
p566
aS'Centre'
p567
aS'date unknown'
p568
aS'4'
aS'3'
aS'2'
aS'8'
aa(lp569
S'Desmond Farrell'
p570
aS'1951'
p571
aS''
aS'date unknown'
p572
aS'1'
aS'1'
aS'2'
aS'6'
aa(lp573
S'Enrique Fernandez del Casal'
p574
aS'1951'
p575
aS'Centre'
p576
aS'date unknown'
p577
aS'7'
aS'3'
aS'0'
aS'40'
p578
aa(lp579
S'Marcelo Lanusse'
p580
aS'1951'
p581
aS'Back-row'
p582
aS'date unknown'
p583
aS'3'
aS'3'
aS'0'
aS'0'
aa(lp584
S'Carlos Morea'
p585
aS'1951'
p586
aS'Lock'
p587
aS'date unknown'
p588
aS'3'
aS'3'
aS'2'
aS'6'
aa(lp589
S'Jose Morganti'
p590
aS'1951'
p591
aS'Lock'
p592
aS'date unknown'
p593
aS'3'
aS'3'
aS'0'
aS'0'
aa(lp594
S"Uriel O'Farrell"
p595
aS'1951'
p596
aS'Wing'
p597
aS'date unknown'
p598
aS'3'
aS'3'
aS'14'
p599
aS'42'
p600
aa(lp601
S'Ricardo Pont Lezica'
p602
aS'1951'
p603
aS'Back-row'
p604
aS'date unknown'
p605
aS'3'
aS'3'
aS'0'
aS'0'
aa(lp606
S'Horacio Solveyra'
p607
aS'1951'
p608
aS''
aS'date unknown'
p609
aS'1'
aS'1'
aS'0'
aS'0'
aa(lp610
S'Isidro Comas'
p611
aS'1951'
p612
aS'Fly-half'
p613
aS'date unknown'
p614
aS'5'
aS'4'
aS'1'
aS'3'
aa(lp615
S'Alberto Conen'
p616
aS'1951'
p617
aS'No. 8'
p618
aS'date unknown'
p619
aS'3'
aS'1'
aS'0'
aS'0'
aa(lp620
S'Julio Genoud'
p621
aS'1952'
p622
aS'Fullback'
p623
aS'date unknown'
p624
aS'3'
aS'0'
aS'0'
aS'0'
aa(lp625
S'Rodolfo Grosse'
p626
aS'1952'
p627
aS'Flanker'
p628
aS'date unknown'
p629
aS'4'
aS'0'
aS'0'
aS'0'
aa(lp630
S'Gaston Recagno'
p631
aS'1952'
p632
aS'Centre'
p633
aS'date unknown'
p634
aS'1'
aS'0'
aS'0'
aS'0'
aa(lp635
S'Antonio Salinas'
p636
aS'1952'
p637
aS'Flanker, Wing'
p638
aS'date unknown'
p639
aS'7'
aS'2'
aS'1'
aS'3'
aa(lp640
S'Osvaldo Bernacchi'
p641
aS'1954'
p642
aS'Wing'
p643
aS'date unknown'
p644
aS'6'
aS'3'
aS'0'
aS'3'
aa(lp645
S'Victor Christianson'
p646
aS'1954'
p647
aS'Hooker'
p648
aS'date unknown'
p649
aS'3'
aS'0'
aS'0'
aS'0'
aa(lp650
S'Eric Gahan'
p651
aS'1954'
p652
aS'Centre'
p653
aS'date unknown'
p654
aS'2'
aS'0'
aS'0'
aS'0'
aa(lp655
S'Erwin Hirsch'
p656
aS'1954'
p657
aS'Prop'
p658
aS'date unknown'
p659
aS'2'
aS'0'
aS'0'
aS'0'
aa(lp660
S'Michael Hughes'
p661
aS'1954'
p662
aS'Fly-half'
p663
aS'date unknown'
p664
aS'2'
aS'0'
aS'1'
aS'3'
aa(lp665
S'Roberto Pineo'
p666
aS'1954'
p667
aS'Flanker'
p668
aS'date unknown'
p669
aS'1'
aS'0'
aS'0'
aS'0'
aa(lp670
S'Bernardo Yustini'
p671
aS'1954'
p672
aS'Lock'
p673
aS'date unknown'
p674
aS'2'
aS'0'
aS'0'
aS'0'
aa(lp675
S'Luis Bavio'
p676
aS'1954'
p677
aS'No. 8'
p678
aS'date unknown'
p679
aS'1'
aS'0'
aS'0'
aS'0'
aa(lp680
S'Osvaldo Elia'
p681
aS'1954'
p682
aS'Fullback'
p683
aS'date unknown'
p684
aS'1'
aS'0'
aS'0'
aS'0'
aa(lp685
S'Jesus Loures'
p686
aS'1954'
p687
aS'Flanker'
p688
aS'date unknown'
p689
aS'1'
aS'0'
aS'0'
aS'0'
aa(lp690
S'Oscar Martinez Basante'
p691
aS'1954'
p692
aS'Lock'
p693
aS'date unknown'
p694
aS'1'
aS'0'
aS'0'
aS'0'
aa(lp695
S'Juan Manuel Belgrano'
p696
aS'1956'
p697
aS''
aS'date unknown'
p698
aS'1'
aS'0'
aS'0'
aS'0'
aa(lp699
S'Malcolm Caldwell'
p700
aS'1956'
p701
aS''
aS'date unknown'
p702
aS'1'
aS'0'
aS'0'
aS'0'
aa(lp703
S"Ricardo Dell'Acqua"
p704
aS'1956'
p705
aS''
aS'date unknown'
p706
aS'1'
aS'0'
aS'0'
aS'0'
aa(lp707
S'Juan Diez'
p708
aS'1956'
p709
aS''
aS'date unknown'
p710
aS'1'
aS'0'
aS'0'
aS'0'
aa(lp711
S'Pedro Felisari'
p712
aS'1956'
p713
aS''
aS'date unknown'
p714
aS'1'
aS'0'
aS'0'
aS'0'
aa(lp715
S'Elias Gavina'
p716
aS'1956'
p717
aS'Prop'
p718
aS'date unknown'
p719
aS'12'
p720
aS'6'
aS'0'
aS'0'
aa(lp721
S'Stanley Hogg'
p722
aS'1956'
p723
aS''
aS'date unknown'
p724
aS'7'
aS'3'
aS'1'
aS'3'
aa(lp725
S'Roque Lagarde'
p726
aS'1956'
p727
aS''
aS'date unknown'
p728
aS'1'
aS'0'
aS'0'
aS'0'
aa(lp729
S'Enrique Mitchelstein'
p730
aS'1956'
p731
aS'No. 8'
p732
aS'date unknown'
p733
aS'3'
aS'0'
aS'0'
aS'0'
aa(lp734
S'Roberto Ochoa'
p735
aS'1956'
p736
aS''
aS'date unknown'
p737
aS'1'
aS'0'
aS'0'
aS'0'
aa(lp738
S'Martin Azpiros'
p739
aS'1956'
p740
aS''
aS'date unknown'
p741
aS'6'
aS'3'
aS'0'
aS'0'
aa(lp742
S'Roberto Dillon'
p743
aS'1956'
p744
aS''
aS'date unknown'
p745
aS'1'
aS'0'
aS'0'
aS'0'
aa(lp746
S'Angel Guastella'
p747
aS'1956'
p748
aS'Fly-half'
p749
aS'date unknown'
p750
aS'4'
aS'0'
aS'0'
aS'6'
aa(lp751
S'Eamon Horan'
p752
aS'1956'
p753
aS''
aS'date unknown'
p754
aS'1'
aS'0'
aS'0'
aS'0'
aa(lp755
S'Uriel Propato'
p756
aS'1956'
p757
aS''
aS'date unknown'
p758
aS'1'
aS'0'
aS'0'
aS'0'
aa(lp759
S'Pablo Yanguela'
p760
aS'1956'
p761
aS''
aS'date unknown'
p762
aS'1'
aS'0'
aS'0'
aS'0'
aa(lp763
S'Carlos Alvarez'
p764
aS'1958'
p765
aS'Flanker'
p766
aS'date unknown'
p767
aS'6'
aS'3'
aS'0'
aS'0'
aa(lp768
S'Carlos Ezcurra'
p769
aS'1958'
p770
aS''
aS'date unknown'
p771
aS'3'
aS'3'
aS'0'
aS'0'
aa(lp772
S'Juan Guidi'
p773
aS'1958'
p774
aS'Fly-half'
p775
aS'date unknown'
p776
aS'8'
aS'6'
aS'1'
aS'3'
aa(lp777
S'Ricardo Hogg'
p778
aS'1958'
p779
aS''
aS'date unknown'
p780
aS'8'
aS'6'
aS'1'
aS'3'
aa(lp781
S'Enrique Holmgren'
p782
aS'1958'
p783
aS'Scrum-half'
p784
aS'date unknown'
p785
aS'7'
aS'3'
aS'0'
aS'0'
aa(lp786
S'Carlos Lennon'
p787
aS'1958'
p788
aS'Wing'
p789
aS'date unknown'
p790
aS'2'
aS'2'
aS'0'
aS'0'
aa(lp791
S'Luis Mendez'
p792
aS'1958'
p793
aS''
aS'date unknown'
p794
aS'4'
aS'3'
aS'0'
aS'0'
aa(lp795
S'Carlos Olivera'
p796
aS'1958'
p797
aS''
aS'date unknown'
p798
aS'5'
aS'3'
aS'0'
aS'0'
aa(lp799
S'Raul Pesce'
p800
aS'1958'
p801
aS''
aS'date unknown'
p802
aS'3'
aS'3'
aS'0'
aS'0'
aa(lp803
S'Eduardo Sorhaburu'
p804
aS'1958'
p805
aS'Prop'
p806
aS'date unknown'
p807
aS'4'
aS'3'
aS'0'
aS'0'
aa(lp808
S'Eduardo Verardo'
p809
aS'1958'
p810
aS''
aS'date unknown'
p811
aS'8'
aS'6'
aS'1'
aS'3'
aa(lp812
S'Enrique Bianchetti'
p813
aS'1959'
p814
aS''
aS'date unknown'
p815
aS'2'
aS'0'
aS'0'
aS'0'
aa(lp816
S'Juan Casanegra'
p817
aS'1959'
p818
aS'Hooker'
p819
aS'date unknown'
p820
aS'4'
aS'0'
aS'0'
aS'0'
aa(lp821
S'Carlos Giuliano'
p822
aS'1959'
p823
aS'Wing'
p824
aS'date unknown'
p825
aS'3'
aS'0'
aS'0'
aS'0'
aa(lp826
S'Esteban Karplus'
p827
aS'1959'
p828
aS'Centre'
p829
aS'date unknown'
p830
aS'5'
aS'0'
aS'1'
aS'3'
aa(lp831
S'Ricardo Raimundez'
p832
aS'1959'
p833
aS''
aS'date unknown'
p834
aS'2'
aS'0'
aS'0'
aS'3'
aa(lp835
S'Rodolfo Devoto'
p836
aS'1960'
p837
aS'Fullback'
p838
aS'date unknown'
p839
aS'1'
aS'0'
aS'0'
aS'3'
aa(lp840
S'Eduardo Gonzalez del Solar'
p841
aS'1960'
p842
aS'Scrum-half'
p843
aS'date unknown'
p844
aS'4'
aS'3'
aS'1'
aS'3'
aa(lp845
S'Enrique Krossler'
p846
aS'1960'
p847
aS'Wing'
p848
aS'date unknown'
p849
aS'3'
aS'0'
aS'0'
aS'0'
aa(lp850
S'Enrico Neri'
p851
aS'1960'
p852
aS'Wing'
p853
aS'date unknown'
p854
aS'13'
p855
aS'7'
aS'12'
p856
aS'36'
p857
aa(lp858
S'Ricardo Oliveri'
p859
aS'1960'
p860
aS'Centre'
p861
aS'date unknown'
p862
aS'6'
aS'3'
aS'1'
aS'34'
p863
aa(lp864
S'Aitor Otano'
p865
aS'1960'
p866
aS'Lock'
p867
aS'1938'
p868
aS'26'
p869
aS'15'
p870
aS'6'
aS'18'
p871
aa(lp872
S'Jorge Pulido'
p873
aS'1960'
p874
aS'Flanker'
p875
aS'date unknown'
p876
aS'1'
aS'0'
aS'0'
aS'0'
aa(lp877
S'Rodolfo Schmidt'
p878
aS'1960'
p879
aS'Lock'
p880
aS'date unknown'
p881
aS'7'
aS'4'
aS'0'
aS'0'
aa(lp882
S'Florencio Varela'
p883
aS'1960'
p884
aS'No. 8'
p885
aS'date unknown'
p886
aS'1'
aS'0'
aS'0'
aS'0'
aa(lp887
S'Glauco Wessek'
p888
aS'1960'
p889
aS'Flanker'
p890
aS'Buenos Aires'
p891
aS'1'
aS'0'
aS'0'
aS'0'
aa(lp892
S'Cristobal Hirsch'
p893
aS'1960'
p894
aS'Prop'
p895
aS'date unknown'
p896
aS'2'
aS'0'
aS'0'
aS'0'
aa(lp897
S'Jorge Rios'
p898
aS'1960'
p899
aS'Fullback'
p900
aS'date unknown'
p901
aS'2'
aS'0'
aS'0'
aS'6'
aa(lp902
S'Horacio Vidou'
p903
aS'1960'
p904
aS'Hooker'
p905
aS'date unknown'
p906
aS'2'
aS'1'
aS'0'
aS'0'
aa(lp907
S'Walter Aniz'
p908
aS'1960'
p909
aS'Prop'
p910
aS'date unknown'
p911
aS'1'
aS'0'
aS'0'
aS'0'
aa(lp912
S'John Vibart'
p913
aS'1960'
p914
aS'Flanker'
p915
aS'date unknown'
p916
aS'1'
aS'0'
aS'0'
aS'0'
aa(lp917
S'Camilo Aldao'
p918
aS'1961'
p919
aS''
aS'date unknown'
p920
aS'3'
aS'3'
aS'0'
aS'0'
aa(lp921
S'Hector Goti'
p922
aS'1961'
p923
aS''
aS'date unknown'
p924
aS'8'
aS'6'
aS'11'
p925
aS'37'
p926
aa(lp927
S'Jorge Lavayen'
p928
aS'1961'
p929
aS''
aS'date unknown'
p930
aS'3'
aS'3'
aS'1'
aS'3'
aa(lp931
S'Guillermo Montes de Oca'
p932
aS'1961'
p933
aS''
aS'date unknown'
p934
aS'3'
aS'3'
aS'2'
aS'6'
aa(lp935
S'Martin Odriozola'
p936
aS'1961'
p937
aS'Centre, Fly-half'
p938
aS'date unknown'
p939
aS'2'
aS'2'
aS'0'
aS'0'
aa(lp940
S'Eduardo Scharemberg'
p941
aS'1961'
p942
aS'Flanker'
p943
aS'date unknown'
p944
aS'11'
p945
aS'8'
aS'3'
aS'9'
aa(lp946
S'Luis Varela'
p947
aS'1961'
p948
aS''
aS'date unknown'
p949
aS'3'
aS'3'
aS'0'
aS'0'
aa(lp950
S'Adolfo Etchegaray'
p951
aS'1964'
p952
aS'Scrum-half'
p953
aS'circa 1942'
p954
aS'25'
p955
aS'15'
p956
aS'3'
aS'10'
p957
aa(lp958
S'Nicanor Gonzalez del Solar'
p959
aS'1964'
p960
aS'Hooker'
p961
aS'date unknown'
p962
aS'8'
aS'5'
aS'0'
aS'0'
aa(lp963
S'Jose Lasalle'
p964
aS'1964'
p965
aS''
aS'date unknown'
p966
aS'1'
aS'1'
aS'1'
aS'3'
aa(lp967
S'Raul Loyola'
p968
aS'1964'
p969
aS'Flanker'
p970
aS'date unknown'
p971
aS'19'
p972
aS'12'
p973
aS'11'
p974
aS'33'
p975
aa(lp976
S'Mariano Molina Berro'
p977
aS'1964'
p978
aS''
aS'date unknown'
p979
aS'3'
aS'3'
aS'1'
aS'26'
p980
aa(lp981
S'Miguel Puigdeval'
p982
aS'1964'
p983
aS''
aS'date unknown'
p984
aS'2'
aS'2'
aS'0'
aS'0'
aa(lp985
S'Juan Queirolo'
p986
aS'1964'
p987
aS''
aS'date unknown'
p988
aS'3'
aS'3'
aS'0'
aS'5'
aa(lp989
S'Guillermo Schmitt'
p990
aS'1964'
p991
aS''
aS'date unknown'
p992
aS'2'
aS'2'
aS'2'
aS'6'
aa(lp993
S'Leopoldo Tahier'
p994
aS'1964'
p995
aS''
aS'date unknown'
p996
aS'1'
aS'1'
aS'0'
aS'0'
aa(lp997
S'Carlos Contepomi'
p998
aS'1964'
p999
aS''
aS'date unknown'
p1000
aS'2'
aS'2'
aS'1'
aS'3'
aa(lp1001
S'Alejandro da Milano'
p1002
aS'1964'
p1003
aS''
aS'date unknown'
p1004
aS'2'
aS'2'
aS'0'
aS'0'
aa(lp1005
S'Jorge Dartiguelongue'
p1006
aS'1964'
p1007
aS'Fly-half'
p1008
aS'date unknown'
p1009
aS'4'
aS'3'
aS'1'
aS'3'
aa(lp1010
S'Roberto Gallo'
p1011
aS'1964'
p1012
aS''
aS'date unknown'
p1013
aS'2'
aS'2'
aS'0'
aS'0'
aa(lp1014
S'Willie McCormick'
p1015
aS'1964'
p1016
aS''
aS'date unknown'
p1017
aS'8'
aS'3'
aS'1'
aS'3'
aa(lp1018
S'Manuel Beccar Varela'
p1019
aS'1965'
p1020
aS''
aS'date unknown'
p1021
aS'3'
aS'0'
aS'0'
aS'0'
aa(lp1022
S'Juan Benzi'
p1023
aS'1965'
p1024
aS'Centre'
p1025
aS'date unknown'
p1026
aS'4'
aS'2'
aS'3'
aS'9'
aa(lp1027
S'Roberto Cazenave'
p1028
aS'1965'
p1029
aS'Fullback'
p1030
aS'date unknown'
p1031
aS'6'
aS'2'
aS'1'
aS'14'
p1032
aa(lp1033
S'Ronnie Foster'
p1034
aS'1965'
p1035
aS'Prop'
p1036
aS'date unknown'
p1037
aS'14'
p1038
aS'7'
aS'0'
aS'0'
aa(lp1039
S'Luis Garcia Yanez'
p1040
aS'1965'
p1041
aS'Prop'
p1042
aS'date unknown'
p1043
aS'20'
p1044
aS'12'
p1045
aS'0'
aS'0'
aa(lp1046
S'Guillermo Illia'
p1047
aS'1965'
p1048
aS''
aS'date unknown'
p1049
aS'1'
aS'0'
aS'0'
aS'0'
aa(lp1050
S'Marcelo Pascual'
p1051
aS'1965'
p1052
aS'Wing, Centre'
p1053
aS'date unknown'
p1054
aS'21'
p1055
aS'13'
p1056
aS'8'
aS'24'
p1057
aa(lp1058
S'Eduardo Espana'
p1059
aS'1965'
p1060
aS'Wing'
p1061
aS'date unknown'
p1062
aS'6'
aS'4'
aS'4'
aS'12'
p1063
aa(lp1064
S'Eduardo Poggi'
p1065
aS'1965'
p1066
aS'Fly-half'
p1067
aS'date unknown'
p1068
aS'7'
aS'4'
aS'1'
aS'36'
p1069
aa(lp1070
S'Arturo Rodriguez Jurado'
p1071
aS'1965'
p1072
aS'Centre'
p1073
aS'circa 1944'
p1074
aS'24'
p1075
aS'12'
p1076
aS'11'
p1077
aS'43'
p1078
aa(lp1079
S'Hector Silva'
p1080
aS'1965'
p1081
aS'No. 8'
p1082
aS'circa 1945'
p1083
aS'24'
p1084
aS'15'
p1085
aS'5'
aS'16'
p1086
aa(lp1087
S'Luis Gradin'
p1088
aS'1965'
p1089
aS'Scrum-half'
p1090
aS'date unknown'
p1091
aS'14'
p1092
aS'9'
aS'5'
aS'32'
p1093
aa(lp1094
S'Adrian Anthony'
p1095
aS'1965'
p1096
aS'Lock'
p1097
aS'date unknown'
p1098
aS'19'
p1099
aS'12'
p1100
aS'2'
aS'6'
aa(lp1101
S'Eduardo Quetglas'
p1102
aS'1965'
p1103
aS''
aS'date unknown'
p1104
aS'1'
aS'1'
aS'0'
aS'0'
aa(lp1105
S'Mario Bouza'
p1106
aS'1966'
p1107
aS''
aS'date unknown'
p1108
aS'4'
aS'2'
aS'0'
aS'0'
aa(lp1109
S'Miguel Chesta'
p1110
aS'1966'
p1111
aS'Flanker'
p1112
aS'date unknown'
p1113
aS'6'
aS'3'
aS'1'
aS'3'
aa(lp1114
S'Marcos Dumas'
p1115
aS'1966'
p1116
aS''
aS'date unknown'
p1117
aS'2'
aS'0'
aS'0'
aS'0'
aa(lp1118
S'Ricardo Handley'
p1119
aS'1966'
p1120
aS'Hooker'
p1121
aS'date unknown'
p1122
aS'14'
p1123
aS'8'
aS'0'
aS'0'
aa(lp1124
S'Jose Imhoff'
p1125
aS'1967'
p1126
aS''
aS'date unknown'
p1127
aS'2'
aS'2'
aS'0'
aS'0'
aa(lp1128
S'Hector Mendez'
p1129
aS'1967'
p1130
aS''
aS'circa 1945'
p1131
aS'2'
aS'2'
aS'1'
aS'15'
p1132
aa(lp1133
S'Ronaldo Seaton'
p1134
aS'1967'
p1135
aS''
aS'date unknown'
p1136
aS'2'
aS'2'
aS'0'
aS'0'
aa(lp1137
S'Alejandro Travaglini'
p1138
aS'1967'
p1139
aS'Centre'
p1140
aS'circa 1947'
p1141
aS'27'
p1142
aS'15'
p1143
aS'10'
p1144
aS'36'
p1145
aa(lp1146
S'Mario Walther'
p1147
aS'1967'
p1148
aS'Wing'
p1149
aS'date unknown'
p1150
aS'17'
p1151
aS'13'
p1152
aS'9'
aS'31'
p1153
aa(lp1154
S'Dudley Morgan'
p1155
aS'1967'
p1156
aS'Fullback'
p1157
aS'date unknown'
p1158
aS'11'
p1159
aS'8'
aS'0'
aS'0'
aa(lp1160
S'Marcelo Farina'
p1161
aS'1968'
p1162
aS'Prop'
p1163
aS'date unknown'
p1164
aS'4'
aS'2'
aS'0'
aS'0'
aa(lp1165
S'Jorge Seaton'
p1166
aS'1968'
p1167
aS'Fullback'
p1168
aS'date unknown'
p1169
aS'4'
aS'3'
aS'0'
aS'40'
p1170
aa(lp1171
S'Nestor Perez'
p1172
aS'1968'
p1173
aS'Wing'
p1174
aS'date unknown'
p1175
aS'1'
aS'0'
aS'0'
aS'0'
aa(lp1176
S'Tomas Harris-Smith'
p1177
aS'1969'
p1178
aS'Fly-half'
p1179
aS'date unknown'
p1180
aS'7'
aS'6'
aS'1'
aS'32'
p1181
aa(lp1182
S'Hugo Miguens'
p1183
aS'1969'
p1184
aS'No. 8'
p1185
aS'date unknown'
p1186
aS'18'
p1187
aS'13'
p1188
aS'2'
aS'7'
aa(lp1189
S'Arturo Abella'
p1190
aS'1969'
p1191
aS''
aS'date unknown'
p1192
aS'2'
aS'2'
aS'0'
aS'0'
aa(lp1193
S'Nestor Carbone'
p1194
aS'1969'
p1195
aS'Flanker'
p1196
aS'date unknown'
p1197
aS'5'
aS'2'
aS'1'
aS'3'
aa(lp1198
S'Miguel Cutler'
p1199
aS'1969'
p1200
aS''
aS'date unknown'
p1201
aS'5'
aS'5'
aS'0'
aS'25'
p1202
aa(lp1203
S'Carlos Martinez'
p1204
aS'1969'
p1205
aS'Fly-half'
p1206
aS'date unknown'
p1207
aS'4'
aS'4'
aS'2'
aS'6'
aa(lp1208
S'Julio Otaola'
p1209
aS'1970'
p1210
aS'Wing'
p1211
aS'date unknown'
p1212
aS'7'
aS'5'
aS'3'
aS'9'
aa(lp1213
S'Guillermo Blacksley'
p1214
aS'1971'
p1215
aS''
aS'date unknown'
p1216
aS'1'
aS'0'
aS'0'
aS'0'
aa(lp1217
S'Ricardo Espagnol'
p1218
aS'1971'
p1219
aS''
aS'date unknown'
p1220
aS'1'
aS'0'
aS'0'
aS'6'
aa(lp1221
S'Roberto Matarazzo'
p1222
aS'1971'
p1223
aS'Centre'
p1224
aS'date unknown'
p1225
aS'15'
p1226
aS'9'
aS'5'
aS'20'
p1227
aa(lp1228
S'Jorge Wittman'
p1229
aS'1971'
p1230
aS'Flanker'
p1231
aS'date unknown'
p1232
aS'8'
aS'6'
aS'0'
aS'0'
aa(lp1233
S'Jose Fernandez'
p1234
aS'1971'
p1235
aS'Lock'
p1236
aS'circa 1949'
p1237
aS'24'
p1238
aS'12'
p1239
aS'1'
aS'3'
aa(lp1240
S'Miguel Morgan'
p1241
aS'1971'
p1242
aS''
aS'date unknown'
p1243
aS'3'
aS'3'
aS'1'
aS'3'
aa(lp1244
S'Hugo Nicola'
p1245
aS'1971'
p1246
aS'Prop'
p1247
aS'circa 1947'
p1248
aS'15'
p1249
aS'7'
aS'2'
aS'6'
aa(lp1250
S'Jose Costante'
p1251
aS'1971'
p1252
aS'Hooker'
p1253
aS'circa 1946'
p1254
aS'9'
aS'6'
aS'2'
aS'6'
aa(lp1255
S'Julio Walther'
p1256
aS'1971'
p1257
aS''
aS'date unknown'
p1258
aS'1'
aS'1'
aS'1'
aS'3'
aa(lp1259
S'Guillermo Casas'
p1260
aS'1971'
p1261
aS'Hooker'
p1262
aS'date unknown'
p1263
aS'6'
aS'3'
aS'1'
aS'4'
aa(lp1264
S'Jorge Carracedo'
p1265
aS'1971'
p1266
aS'Flanker'
p1267
aS'circa 1947'
p1268
aS'19'
p1269
aS'10'
p1270
aS'8'
aS'28'
p1271
aa(lp1272
S'Ruben Castro'
p1273
aS'1971'
p1274
aS''
aS'date unknown'
p1275
aS'3'
aS'3'
aS'0'
aS'0'
aa(lp1276
S'Gustavo Foster'
p1277
aS'1971'
p1278
aS''
aS'date unknown'
p1279
aS'4'
aS'4'
aS'1'
aS'3'
aa(lp1280
S'Fernando Insua'
p1281
aS'1971'
p1282
aS'Prop'
p1283
aS'date unknown'
p1284
aS'18'
p1285
aS'8'
aS'1'
aS'4'
aa(lp1286
S'Enrique Martinez'
p1287
aS'1971'
p1288
aS''
aS'date unknown'
p1289
aS'3'
aS'3'
aS'1'
aS'3'
aa(lp1290
S'Marcelo Martinez Mosquera'
p1291
aS'1971'
p1292
aS''
aS'date unknown'
p1293
aS'1'
aS'1'
aS'2'
aS'6'
aa(lp1294
S'Hugo Porta'
p1295
aS'1971'
p1296
aS'Fly-half'
p1297
aS'Buenos Aires'
p1298
aS'66'
p1299
aS'26'
p1300
aS'12'
p1301
aS'651'
p1302
aa(lp1303
S'Marcelo Rodriguez Jurado'
p1304
aS'1971'
p1305
aS''
aS'date unknown'
p1306
aS'4'
aS'4'
aS'10'
p1307
aS'58'
p1308
aa(lp1309
S'Alberto Velasquez'
p1310
aS'1971'
p1311
aS''
aS'date unknown'
p1312
aS'2'
aS'2'
aS'1'
aS'3'
aa(lp1313
S'Jorge Braceras'
p1314
aS'1971'
p1315
aS'Hooker'
p1316
aS'circa 1946'
p1317
aS'5'
aS'2'
aS'2'
aS'6'
aa(lp1318
S'Gustavo Pimentel'
p1319
aS'1971'
p1320
aS''
aS'date unknown'
p1321
aS'1'
aS'1'
aS'0'
aS'0'
aa(lp1322
S'Alejandro Altberg'
p1323
aS'1972'
p1324
aS'Wing'
p1325
aS'date unknown'
p1326
aS'5'
aS'4'
aS'1'
aS'4'
aa(lp1327
S'Eduardo Morgan'
p1328
aS'1972'
p1329
aS'Wing, Fullback'
p1330
aS'date unknown'
p1331
aS'12'
p1332
aS'7'
aS'12'
p1333
aS'127'
p1334
aa(lp1335
S'Martin Alonso'
p1336
aS'1973'
p1337
aS'Fullback'
p1338
aS'circa 1952'
p1339
aS'5'
aS'2'
aS'1'
aS'4'
aa(lp1340
S'Mario Carluccio'
p1341
aS'1973'
p1342
aS'Prop'
p1343
aS'circa 1945'
p1344
aS'10'
p1345
aS'5'
aS'0'
aS'0'
aa(lp1346
S'Juan Dumas'
p1347
aS'1973'
p1348
aS'Hooker'
p1349
aS'date unknown'
p1350
aS'5'
aS'4'
aS'1'
aS'4'
aa(lp1351
S'Jose Virasoro'
p1352
aS'1973'
p1353
aS'Lock'
p1354
aS'date unknown'
p1355
aS'6'
aS'5'
aS'1'
aS'4'
aa(lp1356
S'Miguel Iglesias'
p1357
aS'1973'
p1358
aS'Flanker'
p1359
aS'date unknown'
p1360
aS'3'
aS'1'
aS'0'
aS'0'
aa(lp1361
S'Carlos Bottarini'
p1362
aS'1973'
p1363
aS'Lock'
p1364
aS'date unknown'
p1365
aS'15'
p1366
aS'10'
p1367
aS'1'
aS'4'
aa(lp1368
S'Roberto Fariello'
p1369
aS'1973'
p1370
aS'Prop'
p1371
aS'date unknown'
p1372
aS'3'
aS'2'
aS'2'
aS'8'
aa(lp1373
S'Martin Giargia'
p1374
aS'1973'
p1375
aS''
aS'date unknown'
p1376
aS'5'
aS'5'
aS'1'
aS'4'
aa(lp1377
S'Raul Sanz'
p1378
aS'1973'
p1379
aS'No. 8'
p1380
aS'circa 1949'
p1381
aS'7'
aS'4'
aS'6'
aS'24'
p1382
aa(lp1383
S'Guillermo Perez Leiros'
p1384
aS'1973'
p1385
aS'Wing'
p1386
aS'date unknown'
p1387
aS'2'
aS'1'
aS'4'
aS'16'
p1388
aa(lp1389
S'Rito Iraneta'
p1390
aS'1974'
p1391
aS'Prop'
p1392
aS'circa 1951'
p1393
aS'3'
aS'0'
aS'0'
aS'0'
aa(lp1394
S'Arturo Orzabal'
p1395
aS'1974'
p1396
aS'Prop'
p1397
aS'date unknown'
p1398
aS'2'
aS'0'
aS'0'
aS'0'
aa(lp1399
S'Osvaldo Rocha'
p1400
aS'1974'
p1401
aS'Hooker'
p1402
aS'date unknown'
p1403
aS'2'
aS'0'
aS'0'
aS'0'
aa(lp1404
S'Guillermo Alvarez'
p1405
aS'1975'
p1406
aS'Wing'
p1407
aS'circa 1951'
p1408
aS'9'
aS'8'
aS'14'
p1409
aS'56'
p1410
aa(lp1411
S'Eduardo Brouchou'
p1412
aS'1975'
p1413
aS''
aS'date unknown'
p1414
aS'4'
aS'4'
aS'4'
aS'16'
p1415
aa(lp1416
S'Juan Cato'
p1417
aS'1975'
p1418
aS''
aS'date unknown'
p1419
aS'2'
aS'2'
aS'1'
aS'4'
aa(lp1420
S'Jorge Copello'
p1421
aS'1975'
p1422
aS''
aS'date unknown'
p1423
aS'2'
aS'2'
aS'0'
aS'0'
aa(lp1424
S"Felix d'Agnilo"
p1425
aS'1975'
p1426
aS''
aS'date unknown'
p1427
aS'6'
aS'6'
aS'3'
aS'12'
p1428
aa(lp1429
S'Miguel Devoto'
p1430
aS'1975'
p1431
aS''
aS'date unknown'
p1432
aS'4'
aS'4'
aS'1'
aS'4'
aa(lp1433
S'Javier Escalante'
p1434
aS'1975'
p1435
aS'Centre'
p1436
aS'date unknown'
p1437
aS'7'
aS'6'
aS'2'
aS'16'
p1438
aa(lp1439
S'Alejandro Iachetti'
p1440
aS'1975'
p1441
aS'Lock'
p1442
aS'1956'
p1443
aS'38'
p1444
aS'18'
p1445
aS'3'
aS'12'
p1446
aa(lp1447
S'Tomas Landajo'
p1448
aS'1975'
p1449
aS'Scrum-half'
p1450
aS'circa 1953'
p1451
aS'18'
p1452
aS'9'
aS'1'
aS'13'
p1453
aa(lp1454
S'Roberto Lucke'
p1455
aS'1975'
p1456
aS'No. 8'
p1457
aS'circa 1953'
p1458
aS'5'
aS'5'
aS'2'
aS'8'
aa(lp1459
S'Ernesto Miguens'
p1460
aS'1975'
p1461
aS'No. 8'
p1462
aS'date unknown'
p1463
aS'3'
aS'3'
aS'2'
aS'8'
aa(lp1464
S'Manuel Parra'
p1465
aS'1975'
p1466
aS''
aS'date unknown'
p1467
aS'3'
aS'3'
aS'0'
aS'0'
aa(lp1468
S'Eduardo Sanguinetti'
p1469
aS'1975'
p1470
aS'Fullback'
p1471
aS'date unknown'
p1472
aS'9'
aS'6'
aS'3'
aS'36'
p1473
aa(lp1474
S'Rodolfo Ventura'
p1475
aS'1975'
p1476
aS'Prop'
p1477
aS'date unknown'
p1478
aS'12'
p1479
aS'11'
p1480
aS'6'
aS'24'
p1481
aa(lp1482
S'Eduardo Vila'
p1483
aS'1975'
p1484
aS''
aS'date unknown'
p1485
aS'4'
aS'3'
aS'0'
aS'0'
aa(lp1486
S'Camilo Abud'
p1487
aS'1975'
p1488
aS''
aS'date unknown'
p1489
aS'3'
aS'3'
aS'0'
aS'0'
aa(lp1490
S'Julio Bach'
p1491
aS'1975'
p1492
aS''
aS'date unknown'
p1493
aS'3'
aS'3'
aS'2'
aS'8'
aa(lp1494
S'Eduardo de Forteza'
p1495
aS'1975'
p1496
aS''
aS'date unknown'
p1497
aS'3'
aS'3'
aS'2'
aS'66'
p1498
aa(lp1499
S'Buenaventura Minguez'
p1500
aS'1975'
p1501
aS'No. 8'
p1502
aS'date unknown'
p1503
aS'13'
p1504
aS'10'
p1505
aS'5'
aS'20'
p1506
aa(lp1507
S'Ricardo Muniz'
p1508
aS'1975'
p1509
aS'Fullback'
p1510
aS'circa 1955'
p1511
aS'3'
aS'3'
aS'2'
aS'8'
aa(lp1512
S'Nestor Bozzo'
p1513
aS'1975'
p1514
aS''
aS'date unknown'
p1515
aS'1'
aS'1'
aS'1'
aS'4'
aa(lp1516
S'Javier Capalbo'
p1517
aS'1975'
p1518
aS''
aS'date unknown'
p1519
aS'4'
aS'4'
aS'1'
aS'42'
p1520
aa(lp1521
S'Daniel Beccar Varela'
p1522
aS'1975'
p1523
aS'Wing'
p1524
aS'Buenos Aires'
p1525
aS'6'
aS'0'
aS'0'
aS'0'
aa(lp1526
S'Jorge Gauweloose'
p1527
aS'1975'
p1528
aS'Wing'
p1529
aS'circa 1955'
p1530
aS'8'
aS'1'
aS'2'
aS'8'
aa(lp1531
S'Ricardo Mastai'
p1532
aS'1975'
p1533
aS'No. 8'
p1534
aS'circa 1954'
p1535
aS'11'
p1536
aS'5'
aS'2'
aS'8'
aa(lp1537
S'Carlos Neyra'
p1538
aS'1975'
p1539
aS'Flanker'
p1540
aS'Santa Fe'
p1541
aS'6'
aS'1'
aS'0'
aS'0'
aa(lp1542
S'Martin Sansot'
p1543
aS'1975'
p1544
aS'Fullback'
p1545
aS'circa 1955'
p1546
aS'18'
p1547
aS'6'
aS'7'
aS'63'
p1548
aa(lp1549
S'Carlos Bori'
p1550
aS'1975'
p1551
aS'No. 8'
p1552
aS'date unknown'
p1553
aS'1'
aS'0'
aS'0'
aS'0'
aa(lp1554
S'Alejandro Cerioni'
p1555
aS'1975'
p1556
aS'Prop'
p1557
aS'date unknown'
p1558
aS'5'
aS'2'
aS'2'
aS'8'
aa(lp1559
S'Gonzalo Beccar Varela'
p1560
aS'1976'
p1561
aS'Centre'
p1562
aS'Buenos Aires'
p1563
aS'7'
aS'2'
aS'1'
aS'30'
p1564
aa(lp1565
S'Eliseo Branca'
p1566
aS'1976'
p1567
aS'Lock'
p1568
aS'1957'
p1569
aS'40'
p1570
aS'19'
p1571
aS'5'
aS'20'
p1572
aa(lp1573
S'Adolfo Cappelletti'
p1574
aS'1977'
p1575
aS'Wing'
p1576
aS'circa 1954'
p1577
aS'17'
p1578
aS'4'
aS'5'
aS'20'
p1579
aa(lp1580
S'Ricardo Castagna'
p1581
aS'1977'
p1582
aS'Scrum-half'
p1583
aS'circa 1953'
p1584
aS'1'
aS'0'
aS'0'
aS'0'
aa(lp1585
S'Horacio Mazzini'
p1586
aS'1977'
p1587
aS'No. 8'
p1588
aS'circa 1949'
p1589
aS'2'
aS'0'
aS'0'
aS'0'
aa(lp1590
S'Fernando Bustillo'
p1591
aS'1977'
p1592
aS''
aS'date unknown'
p1593
aS'6'
aS'4'
aS'0'
aS'0'
aa(lp1594
S'Luis Balfour'
p1595
aS'1977'
p1596
aS''
aS'date unknown'
p1597
aS'4'
aS'4'
aS'3'
aS'12'
p1598
aa(lp1599
S'Alejandro Cubelli'
p1600
aS'1977'
p1601
aS'Hooker'
p1602
aS'circa 1959'
p1603
aS'21'
p1604
aS'10'
p1605
aS'4'
aS'16'
p1606
aa(lp1607
S'Eduardo Garcia Teran'
p1608
aS'1977'
p1609
aS''
aS'date unknown'
p1610
aS'6'
aS'6'
aS'10'
p1611
aS'40'
p1612
aa(lp1613
S'Guillermo Morgan'
p1614
aS'1977'
p1615
aS''
aS'date unknown'
p1616
aS'7'
aS'7'
aS'14'
p1617
aS'56'
p1618
aa(lp1619
S'Ricardo Passaglia'
p1620
aS'1977'
p1621
aS'Lock'
p1622
aS'date unknown'
p1623
aS'5'
aS'3'
aS'2'
aS'8'
aa(lp1624
S'Javier Trucco'
p1625
aS'1977'
p1626
aS''
aS'date unknown'
p1627
aS'4'
aS'4'
aS'2'
aS'8'
aa(lp1628
S'Agustin Badano'
p1629
aS'1977'
p1630
aS''
aS'date unknown'
p1631
aS'4'
aS'4'
aS'1'
aS'4'
aa(lp1632
S'Gabriel Allen'
p1633
aS'1977'
p1634
aS''
aS'date unknown'
p1635
aS'1'
aS'1'
aS'1'
aS'4'
aa(lp1636
S'Pablo Guarrochena'
p1637
aS'1977'
p1638
aS''
aS'date unknown'
p1639
aS'1'
aS'1'
aS'0'
aS'29'
p1640
aa(lp1641
S'Jorge Posse'
p1642
aS'1977'
p1643
aS''
aS'date unknown'
p1644
aS'1'
aS'1'
aS'0'
aS'0'
aa(lp1645
S'Santos Rosatti'
p1646
aS'1977'
p1647
aS''
aS'date unknown'
p1648
aS'2'
aS'2'
aS'0'
aS'0'
aa(lp1649
S'Marcelo Campo'
p1650
aS'1978'
p1651
aS'Wing'
p1652
aS'circa 1957'
p1653
aS'26'
p1654
aS'8'
aS'9'
aS'36'
p1655
aa(lp1656
S'Marcelo Loffreda'
p1657
aS'1978'
p1658
aS'Centre'
p1659
aS'Buenos Aires'
p1660
aS'50'
p1661
aS'29'
p1662
aS'11'
p1663
aS'57'
p1664
aa(lp1665
S'Rafael Madero'
p1666
aS'1978'
p1667
aS'Fullback, Centre, Fly-half'
p1668
aS'1958'
p1669
aS'44'
p1670
aS'20'
p1671
aS'9'
aS'42'
p1672
aa(lp1673
S'Tomas Petersen'
p1674
aS'1978'
p1675
aS'Flanker'
p1676
aS'circa 1957'
p1677
aS'30'
p1678
aS'11'
p1679
aS'4'
aS'16'
p1680
aa(lp1681
S'Gabriel Travaglini'
p1682
aS'1978'
p1683
aS'No. 8'
p1684
aS'circa 1958'
p1685
aS'23'
p1686
aS'8'
aS'8'
aS'32'
p1687
aa(lp1688
S'Carlos Serrano'
p1689
aS'1978'
p1690
aS'Flanker'
p1691
aS'date unknown'
p1692
aS'7'
aS'4'
aS'0'
aS'0'
aa(lp1693
S'Alfredo Soares Gache'
p1694
aS'1978'
p1695
aS'Scrum-half'
p1696
aS'circa 1953'
p1697
aS'15'
p1698
aS'7'
aS'0'
aS'0'
aa(lp1699
S'Marcos Iachetti'
p1700
aS'1979'
p1701
aS'Lock'
p1702
aS'circa 1958'
p1703
aS'4'
aS'1'
aS'0'
aS'0'
aa(lp1704
S'Javier Perez Cobo'
p1705
aS'1979'
p1706
aS'Hooker'
p1707
aS'circa 1957'
p1708
aS'6'
aS'2'
aS'1'
aS'4'
aa(lp1709
S'Topo Rodriguez'
p1710
aS'1979'
p1711
aS'Prop'
p1712
aS'Cordoba'
p1713
aS'43'
p1714
aS'25'
p1715
aS'0'
aS'0'
aa(lp1716
S'Ernesto Ure'
p1717
aS'1979'
p1718
aS'Flanker'
p1719
aS'circa 1959'
p1720
aS'27'
p1721
aS'9'
aS'5'
aS'20'
p1722
aa(lp1723
S'Fernando Argerich'
p1724
aS'1979'
p1725
aS''
aS'date unknown'
p1726
aS'1'
aS'1'
aS'1'
aS'4'
aa(lp1727
S'Andres Courreges'
p1728
aS'1979'
p1729
aS'Hooker'
p1730
aS'date unknown'
p1731
aS'15'
p1732
aS'10'
p1733
aS'4'
aS'16'
p1734
aa(lp1735
S'Miguel Glastra'
p1736
aS'1979'
p1737
aS'Lock'
p1738
aS'date unknown'
p1739
aS'4'
aS'3'
aS'0'
aS'0'
aa(lp1740
S'Armando Memoli'
p1741
aS'1979'
p1742
aS''
aS'date unknown'
p1743
aS'3'
aS'3'
aS'0'
aS'0'
aa(lp1744
S'Andres Nicholson'
p1745
aS'1979'
p1746
aS'Scrum-half'
p1747
aS'date unknown'
p1748
aS'3'
aS'3'
aS'0'
aS'0'
aa(lp1749
S'Guillermo Paz'
p1750
aS'1979'
p1751
aS''
aS'date unknown'
p1752
aS'7'
aS'7'
aS'5'
aS'20'
p1753
aa(lp1754
S'Carlos Ramallo'
p1755
aS'1979'
p1756
aS''
aS'date unknown'
p1757
aS'3'
aS'3'
aS'3'
aS'12'
p1758
aa(lp1759
S'Carlos Sainz Trapaga'
p1760
aS'1979'
p1761
aS'Prop'
p1762
aS'date unknown'
p1763
aS'3'
aS'2'
aS'0'
aS'0'
aa(lp1764
S'Guillermo Sanguinetti'
p1765
aS'1979'
p1766
aS'Fly-half'
p1767
aS'date unknown'
p1768
aS'4'
aS'4'
aS'3'
aS'31'
p1769
aa(lp1770
S'Martin Garcia Laborde'
p1771
aS'1979'
p1772
aS''
aS'date unknown'
p1773
aS'2'
aS'2'
aS'0'
aS'0'
aa(lp1774
S'Carlos Jacobi'
p1775
aS'1979'
p1776
aS''
aS'date unknown'
p1777
aS'2'
aS'2'
aS'0'
aS'0'
aa(lp1778
S'Mario Negri'
p1779
aS'1979'
p1780
aS'No. 8'
p1781
aS'date unknown'
p1782
aS'3'
aS'3'
aS'2'
aS'8'
aa(lp1783
S'Alejandro Puccio'
p1784
aS'1979'
p1785
aS'Wing'
p1786
aS'date unknown'
p1787
aS'5'
aS'4'
aS'3'
aS'12'
p1788
aa(lp1789
S'Jaime Sartori'
p1790
aS'1979'
p1791
aS''
aS'date unknown'
p1792
aS'3'
aS'3'
aS'3'
aS'12'
p1793
aa(lp1794
S'Marcelo Dip'
p1795
aS'1979'
p1796
aS''
aS'date unknown'
p1797
aS'2'
aS'2'
aS'1'
aS'40'
p1798
aa(lp1799
S'Fernando Morel'
p1800
aS'1979'
p1801
aS'Prop'
p1802
aS'1957'
p1803
aS'23'
p1804
aS'10'
p1805
aS'0'
aS'0'
aa(lp1806
S'Daniel Baetti'
p1807
aS'1980'
p1808
aS'Scrum-half'
p1809
aS'circa 1956'
p1810
aS'19'
p1811
aS'10'
p1812
aS'4'
aS'112'
p1813
aa(lp1814
S'Juan Pablo Piccardo'
p1815
aS'1980'
p1816
aS'Centre'
p1817
aS'circa 1959'
p1818
aS'6'
aS'3'
aS'1'
aS'28'
p1819
aa(lp1820
S'Jorge Allen'
p1821
aS'1980'
p1822
aS'Flanker'
p1823
aS'Vicente Lopez'
p1824
aS'29'
p1825
aS'15'
p1826
aS'1'
aS'4'
aa(lp1827
S'Jose Palma'
p1828
aS'1981'
p1829
aS'Wing'
p1830
aS'date unknown'
p1831
aS'9'
aS'4'
aS'2'
aS'8'
aa(lp1832
S'Pablo Devoto'
p1833
aS'1982'
p1834
aS'Prop'
p1835
aS'date unknown'
p1836
aS'6'
aS'3'
aS'0'
aS'0'
aa(lp1837
S'Javier Miguens'
p1838
aS'1982'
p1839
aS'Scrum-half'
p1840
aS'date unknown'
p1841
aS'9'
aS'2'
aS'0'
aS'0'
aa(lp1842
S'Gustavo Milano'
p1843
aS'1982'
p1844
aS'Lock'
p1845
aS'Rosario'
p1846
aS'33'
p1847
aS'16'
p1848
aS'6'
aS'24'
p1849
aa(lp1850
S'Guillermo Varone'
p1851
aS'1980'
p1852
aS'Wing'
p1853
aS'date unknown'
p1854
aS'4'
aS'1'
aS'0'
aS'0'
aa(lp1855
S'Serafin Dengra'
p1856
aS'1982'
p1857
aS'Prop'
p1858
aS'Buenos Aires'
p1859
aS'21'
p1860
aS'9'
aS'1'
aS'4'
aa(lp1861
S'Ricardo de Vedia'
p1862
aS'1982'
p1863
aS'Flanker'
p1864
aS'date unknown'
p1865
aS'3'
aS'1'
aS'1'
aS'4'
aa(lp1866
S'Bernardo Miguens'
p1867
aS'1983'
p1868
aS'Fullback'
p1869
aS'date unknown'
p1870
aS'12'
p1871
aS'5'
aS'1'
aS'4'
aa(lp1872
S'Juan Aguilar'
p1873
aS'1983'
p1874
aS''
aS'date unknown'
p1875
aS'2'
aS'2'
aS'0'
aS'0'
aa(lp1876
S'Ricardo Annichini'
p1877
aS'1983'
p1878
aS'Wing'
p1879
aS'date unknown'
p1880
aS'5'
aS'5'
aS'8'
aS'32'
p1881
aa(lp1882
S'Eduardo Basile'
p1883
aS'1983'
p1884
aS''
aS'date unknown'
p1885
aS'2'
aS'2'
aS'0'
aS'0'
aa(lp1886
S'Diego Cuesta Silva'
p1887
aS'1983'
p1888
aS'Wing, Centre'
p1889
aS'Buenos Aires'
p1890
aS'65'
p1891
aS'31'
p1892
aS'28'
p1893
aS'125'
p1894
aa(lp1895
S'Sebastian Dassen'
p1896
aS'1983'
p1897
aS''
aS'date unknown'
p1898
aS'3'
aS'3'
aS'2'
aS'8'
aa(lp1899
S'Lucio de Chazal'
p1900
aS'1983'
p1901
aS''
aS'date unknown'
p1902
aS'3'
aS'3'
aS'1'
aS'4'
aa(lp1903
S'Gonzalo Gasso'
p1904
aS'1983'
p1905
aS''
aS'date unknown'
p1906
aS'2'
aS'2'
aS'0'
aS'0'
aa(lp1907
S'Pedro Lanza'
p1908
aS'1983'
p1909
aS'Wing'
p1910
aS'1963'
p1911
aS'16'
p1912
aS'9'
aS'6'
aS'24'
p1913
aa(lp1914
S'Alejandro Schiavio'
p1915
aS'1983'
p1916
aS'Flanker'
p1917
aS'1961'
p1918
aS'6'
aS'3'
aS'0'
aS'0'
aa(lp1919
S'Alejandro Scolni'
p1920
aS'1983'
p1921
aS'Fullback, Wing'
p1922
aS'1962'
p1923
aS'19'
p1924
aS'9'
aS'8'
aS'32'
p1925
aa(lp1926
S'Marcos Baeck'
p1927
aS'1983'
p1928
aS'Flanker'
p1929
aS'circa 1961'
p1930
aS'7'
aS'6'
aS'3'
aS'12'
p1931
aa(lp1932
S'Marcelo Carrique'
p1933
aS'1983'
p1934
aS''
aS'date unknown'
p1935
aS'2'
aS'2'
aS'0'
aS'0'
aa(lp1936
S'Carlos Cordeiro'
p1937
aS'1983'
p1938
aS''
aS'date unknown'
p1939
aS'1'
aS'1'
aS'1'
aS'4'
aa(lp1940
S'Jose Carlos Galvalisi'
p1941
aS'1983'
p1942
aS'Prop'
p1943
aS'date unknown'
p1944
aS'2'
aS'2'
aS'0'
aS'0'
aa(lp1945
S'Ricardo Sauze'
p1946
aS'1983'
p1947
aS''
aS'date unknown'
p1948
aS'1'
aS'1'
aS'0'
aS'7'
aa(lp1949
S'Eduardo Torello'
p1950
aS'1983'
p1951
aS''
aS'date unknown'
p1952
aS'2'
aS'2'
aS'0'
aS'0'
aa(lp1953
S'Diego Cash'
p1954
aS'1984'
p1955
aS'Prop'
p1956
aS'Buenos Aires'
p1957
aS'41'
p1958
aS'14'
p1959
aS'3'
aS'12'
p1960
aa(lp1961
S'Juan Lanza'
p1962
aS'1985'
p1963
aS'Wing'
p1964
aS'1963'
p1965
aS'13'
p1966
aS'6'
aS'8'
aS'32'
p1967
aa(lp1968
S'Fabian Turnes'
p1969
aS'1984'
p1970
aS'Centre'
p1971
aS'1965'
p1972
aS'29'
p1973
aS'11'
p1974
aS'5'
aS'65'
p1975
aa(lp1976
S'Fabio Gomez'
p1977
aS'1985'
p1978
aS'Scrum-half'
p1979
aS'Buenos Aires'
p1980
aS'9'
aS'4'
aS'1'
aS'4'
aa(lp1981
S'Rodrigo de la Arena'
p1982
aS'1985'
p1983
aS'Fullback'
p1984
aS'date unknown'
p1985
aS'4'
aS'3'
aS'4'
aS'17'
p1986
aa(lp1987
S'Pedro Merlo'
p1988
aS'1985'
p1989
aS''
aS'date unknown'
p1990
aS'2'
aS'2'
aS'4'
aS'16'
p1991
aa(lp1992
S'Luis Molina'
p1993
aS'1985'
p1994
aS'Prop'
p1995
aS'San Miguel de Tucuma'
p1996
aS'12'
p1997
aS'6'
aS'0'
aS'0'
aa(lp1998
S'Daniel Sanes'
p1999
aS'1985'
p2000
aS'Prop'
p2001
aS'1962'
p2002
aS'9'
aS'8'
aS'2'
aS'8'
aa(lp2003
S'Jose Luis Visca'
p2004
aS'1985'
p2005
aS'Flanker'
p2006
aS'date unknown'
p2007
aS'1'
aS'1'
aS'2'
aS'8'
aa(lp2008
S'Guillermo Holmgren'
p2009
aS'1985'
p2010
aS'Scrum-half'
p2011
aS'date unknown'
p2012
aS'2'
aS'0'
aS'0'
aS'0'
aa(lp2013
S'Sergio Carossio'
p2014
aS'1985'
p2015
aS'Lock'
p2016
aS'1962'
p2017
aS'3'
aS'1'
aS'0'
aS'0'
aa(lp2018
S'Eduardo Valesani'
p2019
aS'1986'
p2020
aS''
aS'date unknown'
p2021
aS'2'
aS'0'
aS'0'
aS'0'
aa(lp2022
S'Joaquin Uriarte'
p2023
aS'1986'
p2024
aS'Lock'
p2025
aS'circa 1963'
p2026
aS'2'
aS'1'
aS'0'
aS'0'
aa(lp2027
S'Jose Mostany'
p2028
aS'1987'
p2029
aS'Flanker'
p2030
aS'circa 1963'
p2031
aS'3'
aS'1'
aS'0'
aS'0'
aa(lp2032
S'Sebastian Salvat'
p2033
aS'1987'
p2034
aS'Centre'
p2035
aS'Buenos Aires'
p2036
aS'37'
p2037
aS'21'
p2038
aS'12'
p2039
aS'58'
p2040
aa(lp2041
S'Martin Yanguela'
p2042
aS'1987'
p2043
aS'Scrum-half'
p2044
aS'circa 1962'
p2045
aS'1'
aS'1'
aS'0'
aS'0'
aa(lp2046
S'Guillermo Angaut'
p2047
aS'1987'
p2048
aS'Fullback'
p2049
aS'La Plata'
p2050
aS'7'
aS'2'
aS'0'
aS'0'
aa(lp2051
S'Pablo Garreton'
p2052
aS'1987'
p2053
aS'Flanker'
p2054
aS'San Miguel de Tucuma'
p2055
aS'31'
p2056
aS'14'
p2057
aS'2'
aS'8'
aa(lp2058
S'Marcelo Ricci'
p2059
aS'1987'
p2060
aS'No. 8'
p2061
aS'date unknown'
p2062
aS'1'
aS'1'
aS'0'
aS'0'
aa(lp2063
S'Juan Jose Angelillo'
p2064
aS'1987'
p2065
aS'Hooker'
p2066
aS'1963'
p2067
aS'26'
p2068
aS'19'
p2069
aS'4'
aS'17'
p2070
aa(lp2071
S'Javier Caminotti'
p2072
aS'1987'
p2073
aS''
aS'date unknown'
p2074
aS'3'
aS'3'
aS'1'
aS'4'
aa(lp2075
S'Roberto Cobelo'
p2076
aS'1987'
p2077
aS'Lock'
p2078
aS'circa 1963'
p2079
aS'3'
aS'3'
aS'0'
aS'0'
aa(lp2080
S'Julio Coria'
p2081
aS'1987'
p2082
aS''
aS'date unknown'
p2083
aS'4'
aS'4'
aS'1'
aS'4'
aa(lp2084
S'Pablo Franchi'
p2085
aS'1987'
p2086
aS''
aS'date unknown'
p2087
aS'3'
aS'3'
aS'2'
aS'8'
aa(lp2088
S'Mario Gerosa'
p2089
aS'1987'
p2090
aS'Wing'
p2091
aS'Rosario'
p2092
aS'9'
aS'5'
aS'8'
aS'36'
p2093
aa(lp2094
S'Cristian Mendy'
p2095
aS'1987'
p2096
aS'Wing'
p2097
aS'1966'
p2098
aS'17'
p2099
aS'10'
p2100
aS'7'
aS'28'
p2101
aa(lp2102
S'Mario Carreras'
p2103
aS'1987'
p2104
aS'Flanker'
p2105
aS'Buenos Aires'
p2106
aS'8'
aS'2'
aS'2'
aS'8'
aa(lp2107
S'Julio Clement'
p2108
aS'1987'
p2109
aS'Hooker'
p2110
aS'circa 1962'
p2111
aS'2'
aS'2'
aS'0'
aS'0'
aa(lp2112
S'Dardo Gonzalez'
p2113
aS'1987'
p2114
aS''
aS'date unknown'
p2115
aS'3'
aS'1'
aS'0'
aS'0'
aa(lp2116
S'Santiago Meson'
p2117
aS'1987'
p2118
aS'Fullback'
p2119
aS'San Miguel de Tucuma'
p2120
aS'34'
p2121
aS'23'
p2122
aS'8'
aS'365'
p2123
aa(lp2124
S'Hernan Vidou'
p2125
aS'1987'
p2126
aS'Fly-half'
p2127
aS'1967'
p2128
aS'6'
aS'3'
aS'1'
aS'48'
p2129
aa(lp2130
S'Gabriel Teran Nougues'
p2131
aS'1988'
p2132
aS'Wing'
p2133
aS'date unknown'
p2134
aS'1'
aS'0'
aS'0'
aS'0'
aa(lp2135
S'Fernando Conti'
p2136
aS'1988'
p2137
aS'Flanker'
p2138
aS'date unknown'
p2139
aS'1'
aS'0'
aS'0'
aS'0'
aa(lp2140
S'Federico Silvestre'
p2141
aS'1988'
p2142
aS'Scrum-half'
p2143
aS'circa 1967'
p2144
aS'7'
aS'5'
aS'2'
aS'8'
aa(lp2145
S'Miguel Bertranou'
p2146
aS'1989'
p2147
aS'No. 8'
p2148
aS'1967'
p2149
aS'15'
p2150
aS'6'
aS'2'
aS'8'
aa(lp2151
S'Marcelo Valesani'
p2152
aS'1989'
p2153
aS'Lock'
p2154
aS'circa 1965'
p2155
aS'10'
p2156
aS'6'
aS'0'
aS'0'
aa(lp2157
S'Juan Soler Valls'
p2158
aS'1989'
p2159
aS'Fullback'
p2160
aS'circa 1966'
p2161
aS'4'
aS'4'
aS'5'
aS'20'
p2162
aa(lp2163
S'Pablo Buabse'
p2164
aS'1989'
p2165
aS'Lock, Flanker'
p2166
aS'San Miguel de Tucuma'
p2167
aS'7'
aS'4'
aS'0'
aS'0'
aa(lp2168
S'Pablo di Nisio'
p2169
aS'1989'
p2170
aS'Flanker'
p2171
aS'circa 1965'
p2172
aS'3'
aS'1'
aS'0'
aS'0'
aa(lp2173
S'Marcelo Righentini'
p2174
aS'1989'
p2175
aS'Wing'
p2176
aS'circa 1969'
p2177
aS'1'
aS'0'
aS'0'
aS'0'
aa(lp2178
S'Pablo Camerlinckx'
p2179
aS'1989'
p2180
aS'No. 8'
p2181
aS'Buenos Aires'
p2182
aS'32'
p2183
aS'17'
p2184
aS'8'
aS'36'
p2185
aa(lp2186
S'Diego Halle'
p2187
aS'1989'
p2188
aS'Fly-half'
p2189
aS'date unknown'
p2190
aS'5'
aS'5'
aS'1'
aS'4'
aa(lp2191
S'Gustavo Jorge'
p2192
aS'1989'
p2193
aS'Wing'
p2194
aS'Lomas de Zamora'
p2195
aS'23'
p2196
aS'17'
p2197
aS'24'
p2198
aS'111'
p2199
aa(lp2200
S'Federico Schacht'
p2201
aS'1989'
p2202
aS'Wing'
p2203
aS'date unknown'
p2204
aS'6'
aS'5'
aS'9'
aS'36'
p2205
aa(lp2206
S'Jose Simes'
p2207
aS'1989'
p2208
aS'Lock'
p2209
aS'1967'
p2210
aS'12'
p2211
aS'9'
aS'0'
aS'0'
aa(lp2212
S'Juan Coppola'
p2213
aS'1989'
p2214
aS''
aS'date unknown'
p2215
aS'2'
aS'2'
aS'3'
aS'12'
p2216
aa(lp2217
S'Diego Dominguez'
p2218
aS'1989'
p2219
aS'Fly-half'
p2220
aS'Cordoba'
p2221
aS'76'
p2222
aS'29'
p2223
aS'9'
aS'1010'
p2224
aa(lp2225
S'Hector Lacarra'
p2226
aS'1989'
p2227
aS''
aS'date unknown'
p2228
aS'2'
aS'2'
aS'0'
aS'0'
aa(lp2229
S'Sergio Bunader'
p2230
aS'1989'
p2231
aS'No. 8'
p2232
aS'1962'
p2233
aS'2'
aS'1'
aS'3'
aS'12'
p2234
aa(lp2235
S'Adrian Rocca'
p2236
aS'1989'
p2237
aS'Prop'
p2238
aS'1962'
p2239
aS'7'
aS'4'
aS'1'
aS'4'
aa(lp2240
S'Javier Grondona'
p2241
aS'1990'
p2242
aS'Lock'
p2243
aS'date unknown'
p2244
aS'1'
aS'0'
aS'0'
aS'0'
aa(lp2245
S'Ricardo Zanero'
p2246
aS'1990'
p2247
aS'Wing'
p2248
aS'date unknown'
p2249
aS'1'
aS'0'
aS'0'
aS'0'
aa(lp2250
S'Matias Allen'
p2251
aS'1990'
p2252
aS'Centre'
p2253
aS'Buenos Aires'
p2254
aS'5'
aS'1'
aS'0'
aS'0'
aa(lp2255
S'Pablo Garzon'
p2256
aS'1990'
p2257
aS'Fullback'
p2258
aS'circa 1964'
p2259
aS'3'
aS'2'
aS'3'
aS'12'
p2260
aa(lp2261
S'Manuel Aguirre'
p2262
aS'1990'
p2263
aS'Prop'
p2264
aS'Buenos Aires'
p2265
aS'3'
aS'1'
aS'0'
aS'0'
aa(lp2266
S'Rodrigo Crexell'
p2267
aS'1990'
p2268
aS'Scrum-half'
p2269
aS'1968'
p2270
aS'14'
p2271
aS'8'
aS'5'
aS'32'
p2272
aa(lp2273
S'Santiago Ezcurra'
p2274
aS'1990'
p2275
aS'Wing'
p2276
aS'date unknown'
p2277
aS'2'
aS'0'
aS'0'
aS'0'
aa(lp2278
S'Hernan Garcia Simon'
p2279
aS'1990'
p2280
aS'Centre'
p2281
aS'Buenos Aires'
p2282
aS'7'
aS'0'
aS'1'
aS'4'
aa(lp2283
S'Ricardo le Fort'
p2284
aS'1990'
p2285
aS'Hooker'
p2286
aS'San Miguel de Tucuma'
p2287
aS'16'
p2288
aS'8'
aS'1'
aS'5'
aa(lp2289
S'German Llanes'
p2290
aS'1990'
p2291
aS'Lock'
p2292
aS'Junin'
p2293
aS'42'
p2294
aS'13'
p2295
aS'1'
aS'5'
aa(lp2296
S'Agustin Macome'
p2297
aS'1990'
p2298
aS'Flanker'
p2299
aS'1967'
p2300
aS'4'
aS'2'
aS'1'
aS'4'
aa(lp2301
S'Federico Mendez Azpillaga'
p2302
aS'1990'
p2303
aS'Prop, Hooker'
p2304
aS'Mendoza'
p2305
aS'73'
p2306
aS'33'
p2307
aS'14'
p2308
aS'70'
p2309
aa(lp2310
S'Pedro Sporleder'
p2311
aS'1990'
p2312
aS'Lock'
p2313
aS'Buenos Aires'
p2314
aS'78'
p2315
aS'41'
p2316
aS'14'
p2317
aS'70'
p2318
aa(lp2319
S'Lisandro Arbizu'
p2320
aS'1990'
p2321
aS'Fly-half'
p2322
aS'Buenos Aires'
p2323
aS'86'
p2324
aS'41'
p2325
aS'17'
p2326
aS'188'
p2327
aa(lp2328
S'Gonzalo Camardon'
p2329
aS'1990'
p2330
aS'Centre, Scrum-half'
p2331
aS'Buenos Aires'
p2332
aS'41'
p2333
aS'21'
p2334
aS'10'
p2335
aS'49'
p2336
aa(lp2337
S'Emilio Ezcurra'
p2338
aS'1990'
p2339
aS'Flanker'
p2340
aS'date unknown'
p2341
aS'1'
aS'0'
aS'0'
aS'0'
aa(lp2342
S'Guillermo del Castillo'
p2343
aS'1991'
p2344
aS'Fly-half'
p2345
aS'Rosario'
p2346
aS'15'
p2347
aS'8'
aS'0'
aS'24'
p2348
aa(lp2349
S'Jose Santamarina'
p2350
aS'1991'
p2351
aS'No. 8'
p2352
aS'San Miguel de Tucuma'
p2353
aS'23'
p2354
aS'12'
p2355
aS'2'
aS'9'
aa(lp2356
S'Martin Teran Nougues'
p2357
aS'1991'
p2358
aS'Wing'
p2359
aS'San Miguel de Tucuma'
p2360
aS'30'
p2361
aS'14'
p2362
aS'11'
p2363
aS'50'
p2364
aa(lp2365
S'Fernando Buabse'
p2366
aS'1991'
p2367
aS''
aS'date unknown'
p2368
aS'4'
aS'4'
aS'2'
aS'8'
aa(lp2369
S'Rafael Bullrich'
p2370
aS'1991'
p2371
aS'Scrum-half'
p2372
aS'date unknown'
p2373
aS'8'
aS'5'
aS'0'
aS'0'
aa(lp2374
S'Juan Luis Damioli'
p2375
aS'1991'
p2376
aS''
aS'date unknown'
p2377
aS'3'
aS'3'
aS'2'
aS'8'
aa(lp2378
S'Rodolfo Etchegoyen'
p2379
aS'1991'
p2380
aS'No. 8'
p2381
aS'date unknown'
p2382
aS'3'
aS'3'
aS'2'
aS'8'
aa(lp2383
S'Lucas Herrera'
p2384
aS'1991'
p2385
aS''
aS'date unknown'
p2386
aS'2'
aS'2'
aS'1'
aS'4'
aa(lp2387
S'Martin Lanfranco'
p2388
aS'1991'
p2389
aS''
aS'date unknown'
p2390
aS'3'
aS'3'
aS'0'
aS'0'
aa(lp2391
S'Alejandro Marguery'
p2392
aS'1991'
p2393
aS'Centre'
p2394
aS'date unknown'
p2395
aS'4'
aS'4'
aS'3'
aS'13'
p2396
aa(lp2397
S'Federico Jose Mendez'
p2398
aS'1991'
p2399
aS'Fly-half'
p2400
aS'date unknown'
p2401
aS'6'
aS'6'
aS'1'
aS'63'
p2402
aa(lp2403
S'Julio Jose Paz'
p2404
aS'1991'
p2405
aS''
aS'date unknown'
p2406
aS'3'
aS'3'
aS'0'
aS'0'
aa(lp2407
S'Franco Rossi'
p2408
aS'1991'
p2409
aS'No. 8'
p2410
aS'Rosario'
p2411
aS'4'
aS'3'
aS'3'
aS'12'
p2412
aa(lp2413
S'Guillermo Ugartemendia'
p2414
aS'1991'
p2415
aS'No. 8, Lock'
p2416
aS'Buenos Aires'
p2417
aS'13'
p2418
aS'8'
aS'1'
aS'5'
aa(lp2419
S'Marcelo Urbano'
p2420
aS'1991'
p2421
aS'Prop'
p2422
aS'1965'
p2423
aS'7'
aS'6'
aS'0'
aS'0'
aa(lp2424
S'Ariel Mammana'
p2425
aS'1991'
p2426
aS''
aS'date unknown'
p2427
aS'3'
aS'3'
aS'0'
aS'0'
aa(lp2428
S'Eduardo Pittinari'
p2429
aS'1991'
p2430
aS''
aS'date unknown'
p2431
aS'3'
aS'3'
aS'1'
aS'4'
aa(lp2432
S'Patricio Noriega'
p2433
aS'1991'
p2434
aS'Prop'
p2435
aS'Buenos Aires'
p2436
aS'49'
p2437
aS'32'
p2438
aS'2'
aS'10'
p2439
aa(lp2440
S'Alejandro Tolomei'
p2441
aS'1991'
p2442
aS'Wing'
p2443
aS'date unknown'
p2444
aS'5'
aS'5'
aS'11'
p2445
aS'51'
p2446
aa(lp2447
S'Eduardo Laborde'
p2448
aS'1991'
p2449
aS'Centre'
p2450
aS'Buenos Aires'
p2451
aS'3'
aS'0'
aS'0'
aS'3'
aa(lp2452
S'Mariano Bosch'
p2453
aS'1991'
p2454
aS'Hooker'
p2455
aS'Buenos Aires'
p2456
aS'4'
aS'0'
aS'0'
aS'0'
aa(lp2457
S'Francisco Irarrazaval'
p2458
aS'1991'
p2459
aS'Flanker'
p2460
aS'Mendoza'
p2461
aS'3'
aS'2'
aS'0'
aS'0'
aa(lp2462
S'Luis Criscuolo'
p2463
aS'1992'
p2464
aS'Centre, Fullback'
p2465
aS'Buenos Aires'
p2466
aS'7'
aS'2'
aS'1'
aS'9'
aa(lp2467
S'Raul Perez'
p2468
aS'1992'
p2469
aS'Flanker'
p2470
aS'Buenos Aires'
p2471
aS'21'
p2472
aS'14'
p2473
aS'1'
aS'5'
aa(lp2474
S'Normando Ferrari'
p2475
aS'1992'
p2476
aS'No. 8, Lock'
p2477
aS'date unknown'
p2478
aS'2'
aS'2'
aS'0'
aS'0'
aa(lp2479
S'Eduardo Garbarino'
p2480
aS'1992'
p2481
aS'Hooker'
p2482
aS'date unknown'
p2483
aS'2'
aS'2'
aS'0'
aS'0'
aa(lp2484
S'Matias Roby'
p2485
aS'1992'
p2486
aS'Wing'
p2487
aS'date unknown'
p2488
aS'2'
aS'2'
aS'1'
aS'5'
aa(lp2489
S'Leandro Bouza'
p2490
aS'1992'
p2491
aS'Wing'
p2492
aS'1971'
p2493
aS'1'
aS'1'
aS'0'
aS'0'
aa(lp2494
S'Gonzalo Garcia Orsetti'
p2495
aS'1992'
p2496
aS'Flanker'
p2497
aS'1971'
p2498
aS'2'
aS'2'
aS'0'
aS'0'
aa(lp2499
S'Pablo Cremaschi'
p2500
aS'1993'
p2501
aS'Centre'
p2502
aS'date unknown'
p2503
aS'6'
aS'6'
aS'3'
aS'40'
p2504
aa(lp2505
S'Roberto Grau'
p2506
aS'1993'
p2507
aS'Prop'
p2508
aS'Buenos Aires'
p2509
aS'47'
p2510
aS'19'
p2511
aS'2'
aS'10'
p2512
aa(lp2513
S'Sebastian Irazoqui'
p2514
aS'1993'
p2515
aS'No. 8'
p2516
aS'1969'
p2517
aS'8'
aS'6'
aS'1'
aS'5'
aa(lp2518
S'Diego Silvetti'
p2519
aS'1993'
p2520
aS'Hooker'
p2521
aS'date unknown'
p2522
aS'1'
aS'1'
aS'1'
aS'5'
aa(lp2523
S'Martin Grau'
p2524
aS'1993'
p2525
aS''
aS'date unknown'
p2526
aS'1'
aS'1'
aS'0'
aS'0'
aa(lp2527
S'Matias Corral'
p2528
aS'1993'
p2529
aS'Prop'
p2530
aS'Buenos Aires'
p2531
aS'17'
p2532
aS'8'
aS'1'
aS'5'
aa(lp2533
S'Sebastian Paz Posse'
p2534
aS'1993'
p2535
aS'Hooker'
p2536
aS'date unknown'
p2537
aS'3'
aS'3'
aS'2'
aS'10'
p2538
aa(lp2539
S'Cristian Viel Temperley'
p2540
aS'1993'
p2541
aS'Flanker'
p2542
aS'Buenos Aires'
p2543
aS'26'
p2544
aS'16'
p2545
aS'3'
aS'15'
p2546
aa(lp2547
S'Martin Viola'
p2548
aS'1993'
p2549
aS''
aS'date unknown'
p2550
aS'1'
aS'1'
aS'0'
aS'0'
aa(lp2551
S'Eduardo Garcia Hamilton'
p2552
aS'1993'
p2553
aS''
aS'date unknown'
p2554
aS'1'
aS'1'
aS'0'
aS'0'
aa(lp2555
S'Ivan Merlo'
p2556
aS'1993'
p2557
aS'Centre'
p2558
aS'Cordoba'
p2559
aS'2'
aS'2'
aS'2'
aS'10'
p2560
aa(lp2561
S'Sergio Peretti'
p2562
aS'1993'
p2563
aS'Hooker'
p2564
aS'date unknown'
p2565
aS'3'
aS'2'
aS'0'
aS'0'
aa(lp2566
S'Pablo Fernandez Bravo'
p2567
aS'1993'
p2568
aS'Flanker'
p2569
aS'date unknown'
p2570
aS'2'
aS'0'
aS'0'
aS'0'
aa(lp2571
S'Nicolas Fernandez Miranda'
p2572
aS'1994'
p2573
aS'Scrum-half'
p2574
aS'Buenos Aires'
p2575
aS'46'
p2576
aS'33'
p2577
aS'6'
aS'30'
p2578
aa(lp2579
S'Rolando Martin'
p2580
aS'1994'
p2581
aS'Flanker'
p2582
aS'United States'
p2583
aS'86'
p2584
aS'44'
p2585
aS'18'
p2586
aS'90'
p2587
aa(lp2588
S'Martin Pfister'
p2589
aS'1994'
p2590
aS'Wing'
p2591
aS'date unknown'
p2592
aS'6'
aS'2'
aS'2'
aS'10'
p2593
aa(lp2594
S'Francisco Garcia'
p2595
aS'1994'
p2596
aS'Centre'
p2597
aS'1970'
p2598
aS'13'
p2599
aS'5'
aS'2'
aS'10'
p2600
aa(lp2601
S'Jose Cilley'
p2602
aS'1994'
p2603
aS'Fly-half'
p2604
aS'Buenos Aires'
p2605
aS'15'
p2606
aS'6'
aS'2'
aS'138'
p2607
aa(lp2608
S'Diego Albanese'
p2609
aS'1995'
p2610
aS'Wing'
p2611
aS'Mar del Plata'
p2612
aS'55'
p2613
aS'24'
p2614
aS'10'
p2615
aS'50'
p2616
aa(lp2617
S'Nicolas Bossicovich'
p2618
aS'1995'
p2619
aS''
aS'Rosario'
p2620
aS'2'
aS'2'
aS'0'
aS'0'
aa(lp2621
S'Omar Hasan Jalil'
p2622
aS'1995'
p2623
aS'Prop'
p2624
aS'Tucuman'
p2625
aS'65'
p2626
aS'34'
p2627
aS'4'
aS'20'
p2628
aa(lp2629
S'Martin Lerga'
p2630
aS'1995'
p2631
aS''
aS'date unknown'
p2632
aS'5'
aS'4'
aS'0'
aS'0'
aa(lp2633
S'Fernando del Castillo'
p2634
aS'1995'
p2635
aS'Centre'
p2636
aS'Rosario'
p2637
aS'6'
aS'5'
aS'0'
aS'0'
aa(lp2638
S'Agustin Pichot'
p2639
aS'1995'
p2640
aS'Scrum-half'
p2641
aS'Buenos Aires'
p2642
aS'71'
p2643
aS'34'
p2644
aS'12'
p2645
aS'60'
p2646
aa(lp2647
S'Ezequiel Jurado'
p2648
aS'1995'
p2649
aS'Fullback'
p2650
aS'Rosario'
p2651
aS'28'
p2652
aS'11'
p2653
aS'6'
aS'30'
p2654
aa(lp2655
S'Jose Luna'
p2656
aS'1995'
p2657
aS'Wing'
p2658
aS'1971'
p2659
aS'8'
aS'7'
aS'4'
aS'129'
p2660
aa(lp2661
S'Omar Portillo'
p2662
aS'1995'
p2663
aS'Lock'
p2664
aS'date unknown'
p2665
aS'4'
aS'4'
aS'1'
aS'5'
aa(lp2666
S'Martin Sugasti'
p2667
aS'1995'
p2668
aS''
aS'1967'
p2669
aS'2'
aS'2'
aS'1'
aS'5'
aa(lp2670
S'Roberto Petti'
p2671
aS'1995'
p2672
aS''
aS'date unknown'
p2673
aS'2'
aS'2'
aS'0'
aS'0'
aa(lp2674
S'Pablo Bouza'
p2675
aS'1996'
p2676
aS'Lock'
p2677
aS'Rosario'
p2678
aS'37'
p2679
aS'27'
p2680
aS'10'
p2681
aS'50'
p2682
aa(lp2683
S'Carlos Promanzio'
p2684
aS'1996'
p2685
aS'Hooker'
p2686
aS'1971'
p2687
aS'10'
p2688
aS'4'
aS'1'
aS'5'
aa(lp2689
S'Mauricio Reggiardo'
p2690
aS'1996'
p2691
aS'Prop'
p2692
aS'Bragado'
p2693
aS'50'
p2694
aS'23'
p2695
aS'3'
aS'15'
p2696
aa(lp2697
S'Gustavo Rivero'
p2698
aS'1996'
p2699
aS'Prop'
p2700
aS'date unknown'
p2701
aS'3'
aS'3'
aS'0'
aS'0'
aa(lp2702
S'Facundo Soler'
p2703
aS'1996'
p2704
aS'Fullback'
p2705
aS'Cordoba'
p2706
aS'25'
p2707
aS'12'
p2708
aS'18'
p2709
aS'90'
p2710
aa(lp2711
S'Julian Legora'
p2712
aS'1996'
p2713
aS'Centre'
p2714
aS'1973'
p2715
aS'6'
aS'4'
aS'1'
aS'5'
aa(lp2716
S'Octavio Bartolucci'
p2717
aS'1996'
p2718
aS'Wing'
p2719
aS'Rosario'
p2720
aS'20'
p2721
aS'11'
p2722
aS'9'
aS'45'
p2723
aa(lp2724
S'Ignacio Fernandez Lobbe'
p2725
aS'1996'
p2726
aS'Lock'
p2727
aS'Buenos Aires'
p2728
aS'65'
p2729
aS'33'
p2730
aS'6'
aS'30'
p2731
aa(lp2732
S'Leandro Lobrauco'
p2733
aS'1996'
p2734
aS'Scrum-half'
p2735
aS'Rosario'
p2736
aS'5'
aS'4'
aS'1'
aS'9'
aa(lp2737
S'Martin Palou'
p2738
aS'1996'
p2739
aS'Lock'
p2740
aS'1968'
p2741
aS'2'
aS'2'
aS'0'
aS'0'
aa(lp2742
S'Gonzalo Quesada'
p2743
aS'1996'
p2744
aS'Fly-half'
p2745
aS'Buenos Aires'
p2746
aS'38'
p2747
aS'19'
p2748
aS'4'
aS'486'
p2749
aa(lp2750
S'Martin Scelzo'
p2751
aS'1996'
p2752
aS'Prop'
p2753
aS'Buenos Aires'
p2754
aS'59'
p2755
aS'34'
p2756
aS'10'
p2757
aS'50'
p2758
aa(lp2759
S'Eduardo Simone'
p2760
aS'1996'
p2761
aS'Centre'
p2762
aS'Buenos Aires'
p2763
aS'36'
p2764
aS'17'
p2765
aS'9'
aS'45'
p2766
aa(lp2767
S'Roberto Travaglini'
p2768
aS'1996'
p2769
aS'Flanker'
p2770
aS'Buenos Aires'
p2771
aS'8'
aS'6'
aS'1'
aS'5'
aa(lp2772
S'Federico Werner'
p2773
aS'1996'
p2774
aS'Prop'
p2775
aS'1973'
p2776
aS'2'
aS'2'
aS'0'
aS'0'
aa(lp2777
S'Christian Barrea'
p2778
aS'1996'
p2779
aS'Scrum-half'
p2780
aS'1972'
p2781
aS'3'
aS'2'
aS'1'
aS'5'
aa(lp2782
S'Diego Giannantonio'
p2783
aS'1996'
p2784
aS'Centre'
p2785
aS'Buenos Aires'
p2786
aS'10'
p2787
aS'4'
aS'3'
aS'38'
p2788
aa(lp2789
S'Mario Ledesma Arocena'
p2790
aS'1996'
p2791
aS'Hooker'
p2792
aS'Buenos Aires'
p2793
aS'84'
p2794
aS'42'
p2795
aS'3'
aS'15'
p2796
aa(lp2797
S'Jose Orengo'
p2798
aS'1996'
p2799
aS'Centre'
p2800
aS'Rosario'
p2801
aS'36'
p2802
aS'17'
p2803
aS'9'
aS'45'
p2804
aa(lp2805
S'Tomas Solari'
p2806
aS'1996'
p2807
aS'Wing'
p2808
aS'1976'
p2809
aS'7'
aS'3'
aS'4'
aS'20'
p2810
aa(lp2811
S'German Aristide'
p2812
aS'1997'
p2813
aS'Centre'
p2814
aS'Rosario'
p2815
aS'1'
aS'1'
aS'0'
aS'0'
aa(lp2816
S'Miguel Ruiz'
p2817
aS'1997'
p2818
aS'Back-row'
p2819
aS'Mendoza'
p2820
aS'24'
p2821
aS'12'
p2822
aS'2'
aS'10'
p2823
aa(lp2824
S'Alejandro Aguirre'
p2825
aS'1997'
p2826
aS'Lock'
p2827
aS'date unknown'
p2828
aS'2'
aS'2'
aS'1'
aS'5'
aa(lp2829
S'Pablo Alexenicer'
p2830
aS'1997'
p2831
aS'Lock'
p2832
aS'date unknown'
p2833
aS'2'
aS'2'
aS'0'
aS'0'
aa(lp2834
S'Alejandro Allub'
p2835
aS'1997'
p2836
aS'Lock'
p2837
aS'Cordoba'
p2838
aS'29'
p2839
aS'10'
p2840
aS'1'
aS'5'
aa(lp2841
S'Matias Brandi'
p2842
aS'1997'
p2843
aS'Fullback'
p2844
aS'date unknown'
p2845
aS'5'
aS'5'
aS'1'
aS'5'
aa(lp2846
S'Marcelo Carmona'
p2847
aS'1997'
p2848
aS'Flanker'
p2849
aS'date unknown'
p2850
aS'2'
aS'2'
aS'1'
aS'5'
aa(lp2851
S'Diego Gomez Coll'
p2852
aS'1997'
p2853
aS'Centre'
p2854
aS'date unknown'
p2855
aS'1'
aS'1'
aS'3'
aS'15'
p2856
aa(lp2857
S'Agustin Lopresti'
p2858
aS'1997'
p2859
aS'Hooker, Prop'
p2860
aS'Salta'
p2861
aS'2'
aS'2'
aS'1'
aS'5'
aa(lp2862
S'Juan Meabe'
p2863
aS'1997'
p2864
aS'Flanker'
p2865
aS'date unknown'
p2866
aS'1'
aS'1'
aS'0'
aS'0'
aa(lp2867
S'Facundo Rave'
p2868
aS'1997'
p2869
aS'Wing'
p2870
aS'date unknown'
p2871
aS'1'
aS'1'
aS'1'
aS'5'
aa(lp2872
S'Damian Rotondo'
p2873
aS'1997'
p2874
aS'Flanker'
p2875
aS'date unknown'
p2876
aS'2'
aS'2'
aS'3'
aS'15'
p2877
aa(lp2878
S'Gustavo Veron'
p2879
aS'1997'
p2880
aS'Wing'
p2881
aS'date unknown'
p2882
aS'1'
aS'1'
aS'0'
aS'0'
aa(lp2883
S'Raul Cano'
p2884
aS'1997'
p2885
aS''
aS'date unknown'
p2886
aS'1'
aS'1'
aS'0'
aS'0'
aa(lp2887
S'Manuel Diaz'
p2888
aS'1997'
p2889
aS'Scrum-half'
p2890
aS'La Prida'
p2891
aS'5'
aS'4'
aS'2'
aS'10'
p2892
aa(lp2893
S'Andres Irigoyen'
p2894
aS'1997'
p2895
aS''
aS'date unknown'
p2896
aS'1'
aS'1'
aS'0'
aS'0'
aa(lp2897
S'Fernando Diaz Alberdi'
p2898
aS'1997'
p2899
aS'Prop'
p2900
aS'Buenos Aires'
p2901
aS'5'
aS'2'
aS'1'
aS'5'
aa(lp2902
S'Juan Fernandez Miranda'
p2903
aS'1997'
p2904
aS'Fly-half'
p2905
aS'Buenos Aires'
p2906
aS'29'
p2907
aS'22'
p2908
aS'5'
aS'158'
p2909
aa(lp2910
S'Santiago Phelan'
p2911
aS'1997'
p2912
aS'Flanker'
p2913
aS'San Isidro'
p2914
aS'45'
p2915
aS'26'
p2916
aS'1'
aS'5'
aa(lp2917
S'Camilo Boffelli'
p2918
aS'1997'
p2919
aS'Flanker'
p2920
aS'date unknown'
p2921
aS'5'
aS'5'
aS'2'
aS'10'
p2922
aa(lp2923
S'Hugo Cespedes'
p2924
aS'1997'
p2925
aS'Prop'
p2926
aS'date unknown'
p2927
aS'2'
aS'2'
aS'0'
aS'0'
aa(lp2928
S'Guillermo Bernardi'
p2929
aS'1997'
p2930
aS''
aS'date unknown'
p2931
aS'1'
aS'1'
aS'0'
aS'0'
aa(lp2932
S'Martin Durand'
p2933
aS'1997'
p2934
aS'Flanker'
p2935
aS'Buenos Aires'
p2936
aS'60'
p2937
aS'38'
p2938
aS'9'
aS'45'
p2939
aa(lp2940
S'Leonardo Gravano'
p2941
aS'1997'
p2942
aS'Fullback'
p2943
aS'date unknown'
p2944
aS'3'
aS'3'
aS'1'
aS'5'
aa(lp2945
S'Emiliano Mulieri'
p2946
aS'1997'
p2947
aS'Fullback, Wing'
p2948
aS'Mar del Plata'
p2949
aS'1'
aS'1'
aS'2'
aS'10'
p2950
aa(lp2951
S'Gaston Nazassi'
p2952
aS'1997'
p2953
aS''
aS'date unknown'
p2954
aS'1'
aS'1'
aS'0'
aS'0'
aa(lp2955
S'Nicolas Gomez'
p2956
aS'1997'
p2957
aS''
aS'date unknown'
p2958
aS'1'
aS'1'
aS'0'
aS'0'
aa(lp2959
S'Federico Todeschini'
p2960
aS'1998'
p2961
aS'Fly-half, Fullback'
p2962
aS'Rosario'
p2963
aS'21'
p2964
aS'16'
p2965
aS'4'
aS'256'
p2966
aa(lp2967
S'Manuel Contepomi'
p2968
aS'1998'
p2969
aS'Centre'
p2970
aS'Buenos Aires'
p2971
aS'38'
p2972
aS'23'
p2973
aS'9'
aS'45'
p2974
aa(lp2975
S'Gabriel Bocca'
p2976
aS'1998'
p2977
aS'Prop'
p2978
aS'Buenos Aires'
p2979
aS'2'
aS'1'
aS'0'
aS'0'
aa(lp2980
S'Ignacio Corleto'
p2981
aS'1998'
p2982
aS'Fullback'
p2983
aS'Buenos Aires'
p2984
aS'37'
p2985
aS'19'
p2986
aS'14'
p2987
aS'73'
p2988
aa(lp2989
S'Patricio Fuselli'
p2990
aS'1998'
p2991
aS'Fly-half'
p2992
aS'date unknown'
p2993
aS'2'
aS'1'
aS'0'
aS'10'
p2994
aa(lp2995
S'Pablo Garcia Hamilton'
p2996
aS'1998'
p2997
aS'Wing'
p2998
aS'date unknown'
p2999
aS'2'
aS'1'
aS'0'
aS'0'
aa(lp3000
S'Rodrigo Roncero'
p3001
aS'1998'
p3002
aS'Prop'
p3003
aS'Buenos Aires'
p3004
aS'55'
p3005
aS'26'
p3006
aS'6'
aS'30'
p3007
aa(lp3008
S'Rafael Silva'
p3009
aS'1998'
p3010
aS'Flanker'
p3011
aS'date unknown'
p3012
aS'1'
aS'0'
aS'0'
aS'0'
aa(lp3013
S'Bernardo Stortoni'
p3014
aS'1998'
p3015
aS'Fullback'
p3016
aS'Bahia Blanca'
p3017
aS'26'
p3018
aS'17'
p3019
aS'10'
p3020
aS'50'
p3021
aa(lp3022
S'Daniel Villen'
p3023
aS'1998'
p3024
aS'Fullback'
p3025
aS'date unknown'
p3026
aS'2'
aS'1'
aS'0'
aS'0'
aa(lp3027
S'Arturo Mimesi'
p3028
aS'1998'
p3029
aS'Lock'
p3030
aS'date unknown'
p3031
aS'3'
aS'2'
aS'0'
aS'0'
aa(lp3032
S'Damian Rodriguez'
p3033
aS'1998'
p3034
aS'Prop'
p3035
aS'date unknown'
p3036
aS'4'
aS'3'
aS'0'
aS'0'
aa(lp3037
S'Patricio Grande'
p3038
aS'1998'
p3039
aS'Wing'
p3040
aS'1972'
p3041
aS'3'
aS'3'
aS'6'
aS'30'
p3042
aa(lp3043
S'Matias Lamas'
p3044
aS'1998'
p3045
aS'Hooker'
p3046
aS'date unknown'
p3047
aS'2'
aS'2'
aS'0'
aS'0'
aa(lp3048
S'Martin Molina'
p3049
aS'1998'
p3050
aS'Centre'
p3051
aS'date unknown'
p3052
aS'3'
aS'3'
aS'2'
aS'12'
p3053
aa(lp3054
S'Christian Ohanian'
p3055
aS'1998'
p3056
aS'No. 8'
p3057
aS'date unknown'
p3058
aS'2'
aS'2'
aS'1'
aS'5'
aa(lp3059
S'Jose Altube'
p3060
aS'1998'
p3061
aS'Fly-half'
p3062
aS'date unknown'
p3063
aS'3'
aS'3'
aS'0'
aS'9'
aa(lp3064
S'Rimas Alvarez Kairelis'
p3065
aS'1998'
p3066
aS'Lock'
p3067
aS'Quilmes'
p3068
aS'44'
p3069
aS'30'
p3070
aS'3'
aS'15'
p3071
aa(lp3072
S'Julio Garcia'
p3073
aS'1998'
p3074
aS'Prop'
p3075
aS'Cordoba'
p3076
aS'3'
aS'2'
aS'0'
aS'0'
aa(lp3077
S'Alejandro Moreno'
p3078
aS'1998'
p3079
aS'Prop'
p3080
aS'Buenos Aires'
p3081
aS'8'
aS'4'
aS'0'
aS'0'
aa(lp3082
S'Eduardo Zapiola'
p3083
aS'1998'
p3084
aS''
aS'date unknown'
p3085
aS'1'
aS'1'
aS'0'
aS'0'
aa(lp3086
S'Julio Brolese'
p3087
aS'1998'
p3088
aS'Flanker'
p3089
aS'date unknown'
p3090
aS'2'
aS'2'
aS'2'
aS'10'
p3091
aa(lp3092
S'Felipe Contepomi'
p3093
aS'1998'
p3094
aS'Fly-half'
p3095
aS'Buenos Aires'
p3096
aS'87'
p3097
aS'42'
p3098
aS'16'
p3099
aS'651'
p3100
aa(lp3101
S'Gerardo Lazcano Miranda'
p3102
aS'1998'
p3103
aS'Lock'
p3104
aS'date unknown'
p3105
aS'5'
aS'5'
aS'0'
aS'0'
aa(lp3106
S'Ernesto Naveyra'
p3107
aS'1998'
p3108
aS''
aS'date unknown'
p3109
aS'1'
aS'1'
aS'0'
aS'0'
aa(lp3110
S'Matias Peri Brusa'
p3111
aS'1998'
p3112
aS''
aS'date unknown'
p3113
aS'1'
aS'1'
aS'0'
aS'0'
aa(lp3114
S'Martin Gaitan'
p3115
aS'1998'
p3116
aS'Centre'
p3117
aS'Parana'
p3118
aS'10'
p3119
aS'9'
aS'8'
aS'40'
p3120
aa(lp3121
S'Gonzalo Longo Elia'
p3122
aS'1999'
p3123
aS'No. 8'
p3124
aS'San Isidro'
p3125
aS'51'
p3126
aS'24'
p3127
aS'5'
aS'25'
p3128
aa(lp3129
S'Lucas Ostiglia'
p3130
aS'1999'
p3131
aS'Flanker'
p3132
aS'Buenos Aires'
p3133
aS'32'
p3134
aS'17'
p3135
aS'3'
aS'15'
p3136
aa(lp3137
S'Agustin Canalda'
p3138
aS'1999'
p3139
aS'Hooker'
p3140
aS'Buenos Aires'
p3141
aS'6'
aS'3'
aS'0'
aS'0'
aa(lp3142
S'Hugo Dande'
p3143
aS'2001'
p3144
aS'Flanker'
p3145
aS'Tucuman'
p3146
aS'4'
aS'4'
aS'2'
aS'10'
p3147
aa(lp3148
S'Leopoldo de Chazal'
p3149
aS'2001'
p3150
aS'Prop'
p3151
aS'Tucuman'
p3152
aS'3'
aS'2'
aS'0'
aS'0'
aa(lp3153
S'Santiago Gonzalez Bonorino'
p3154
aS'2001'
p3155
aS'Prop'
p3156
aS'Buenos Aires'
p3157
aS'15'
p3158
aS'12'
p3159
aS'0'
aS'0'
aa(lp3160
S'Gustavo Morlaes Oliver'
p3161
aS'2001'
p3162
aS'Lock'
p3163
aS'date unknown'
p3164
aS'3'
aS'3'
aS'0'
aS'0'
aa(lp3165
S'Jose Nunez Piossek'
p3166
aS'2001'
p3167
aS'Wing, Centre'
p3168
aS'Tucuman'
p3169
aS'28'
p3170
aS'18'
p3171
aS'29'
p3172
aS'145'
p3173
aa(lp3174
S'Leonardo Roldan'
p3175
aS'2001'
p3176
aS'Lock'
p3177
aS'Rosario'
p3178
aS'2'
aS'2'
aS'1'
aS'5'
aa(lp3179
S'Juan Jose Villar'
p3180
aS'2001'
p3181
aS'Hooker'
p3182
aS'date unknown'
p3183
aS'5'
aS'5'
aS'0'
aS'0'
aa(lp3184
S'Matias Albina'
p3185
aS'2001'
p3186
aS'Scrum-half'
p3187
aS'La Plata'
p3188
aS'10'
p3189
aS'9'
aS'4'
aS'20'
p3190
aa(lp3191
S'Francisco Leonelli Morey'
p3192
aS'2001'
p3193
aS'Wing, Fullback'
p3194
aS'Bolivia'
p3195
aS'16'
p3196
aS'13'
p3197
aS'8'
aS'40'
p3198
aa(lp3199
S'Mariano Sambucetti'
p3200
aS'2001'
p3201
aS'Lock'
p3202
aS'Buenos Aires'
p3203
aS'11'
p3204
aS'9'
aS'3'
aS'15'
p3205
aa(lp3206
S'Emiliano Bergamaschi'
p3207
aS'2001'
p3208
aS'Prop'
p3209
aS'Rosario'
p3210
aS'1'
aS'1'
aS'0'
aS'0'
aa(lp3211
S'Pablo Cardinali'
p3212
aS'2001'
p3213
aS'Prop'
p3214
aS'La Plata'
p3215
aS'5'
aS'5'
aS'0'
aS'0'
aa(lp3216
S'Daniel Rodriguez'
p3217
aS'2002'
p3218
aS'Prop'
p3219
aS'Cordoba'
p3220
aS'3'
aS'3'
aS'0'
aS'0'
aa(lp3221
S'Hernan Senillosa'
p3222
aS'2002'
p3223
aS'Wing, Centre'
p3224
aS'Buenos Aires'
p3225
aS'33'
p3226
aS'27'
p3227
aS'17'
p3228
aS'128'
p3229
aa(lp3230
S'Alfonso Amuchastegui'
p3231
aS'2002'
p3232
aS'No. 8'
p3233
aS'Rosario'
p3234
aS'3'
aS'3'
aS'0'
aS'0'
aa(lp3235
S'Maximiliano Nannini'
p3236
aS'2002'
p3237
aS'Centre'
p3238
aS'Rosario'
p3239
aS'5'
aS'5'
aS'4'
aS'20'
p3240
aa(lp3241
S'Juan Cruz Legora'
p3242
aS'2002'
p3243
aS'Scrum-half'
p3244
aS'Cordoba'
p3245
aS'2'
aS'2'
aS'1'
aS'5'
aa(lp3246
S'Patricio Albacete'
p3247
aS'2003'
p3248
aS'Lock'
p3249
aS'Buenos Aires'
p3250
aS'57'
p3251
aS'24'
p3252
aS'1'
aS'5'
aa(lp3253
S'Lucas Borges'
p3254
aS'2003'
p3255
aS'Wing'
p3256
aS'Buenos Aires'
p3257
aS'32'
p3258
aS'19'
p3259
aS'14'
p3260
aS'70'
p3261
aa(lp3262
S'German Bustos'
p3263
aS'2003'
p3264
aS'Fly-half'
p3265
aS'Mendoza'
p3266
aS'4'
aS'4'
aS'0'
aS'51'
p3267
aa(lp3268
S'Eusebio Guinazu'
p3269
aS'2003'
p3270
aS'Hooker'
p3271
aS'Mendoza'
p3272
aS'36'
p3273
aS'16'
p3274
aS'1'
aS'5'
aa(lp3275
S'Juan Martin Hernandez'
p3276
aS'2003'
p3277
aS'Fullback'
p3278
aS'Buenos Aires'
p3279
aS'52'
p3280
aS'25'
p3281
aS'6'
aS'133'
p3282
aa(lp3283
S'Francisco Lecot'
p3284
aS'2003'
p3285
aS'Prop'
p3286
aS'Catamarca'
p3287
aS'4'
aS'4'
aS'0'
aS'0'
aa(lp3288
S'Leonardo Ortiz'
p3289
aS'2003'
p3290
aS'Hooker'
p3291
aS'date unknown'
p3292
aS'3'
aS'3'
aS'0'
aS'0'
aa(lp3293
S'Martin Schusterman'
p3294
aS'2003'
p3295
aS'Flanker'
p3296
aS'San Juan'
p3297
aS'17'
p3298
aS'13'
p3299
aS'1'
aS'5'
aa(lp3300
S'Martin Rospide'
p3301
aS'2003'
p3302
aS'Prop'
p3303
aS'1979'
p3304
aS'3'
aS'3'
aS'0'
aS'0'
aa(lp3305
S'Federico Cortopasso'
p3306
aS'2003'
p3307
aS'Hooker'
p3308
aS'date unknown'
p3309
aS'2'
aS'2'
aS'0'
aS'0'
aa(lp3310
S'Julio Freixas'
p3311
aS'2003'
p3312
aS'Centre'
p3313
aS'date unknown'
p3314
aS'2'
aS'2'
aS'1'
aS'5'
aa(lp3315
S'Federico Serra Miras'
p3316
aS'2003'
p3317
aS'Fullback'
p3318
aS'Buenos Aires'
p3319
aS'10'
p3320
aS'8'
aS'2'
aS'26'
p3321
aa(lp3322
S'Santiago Sanz'
p3323
aS'2003'
p3324
aS'Flanker'
p3325
aS'Buenos Aires'
p3326
aS'6'
aS'5'
aS'1'
aS'5'
aa(lp3327
S'Federico Aramburu'
p3328
aS'2004'
p3329
aS'Wing, Centre'
p3330
aS'La Plata'
p3331
aS'22'
p3332
aS'10'
p3333
aS'8'
aS'40'
p3334
aa(lp3335
S'Francisco Bosch'
p3336
aS'2004'
p3337
aS'Fullback, Wing'
p3338
aS'Buenos Aires'
p3339
aS'4'
aS'2'
aS'2'
aS'10'
p3340
aa(lp3341
S'Pablo Henn'
p3342
aS'2004'
p3343
aS'Prop'
p3344
aS'Don Torcuato'
p3345
aS'9'
aS'7'
aS'1'
aS'5'
aa(lp3346
S'Ariel Castellina'
p3347
aS'2004'
p3348
aS'Prop'
p3349
aS'Tucuman'
p3350
aS'3'
aS'3'
aS'0'
aS'0'
aa(lp3351
S'Federico Andres Genoud'
p3352
aS'2004'
p3353
aS'Flanker'
p3354
aS'Mendoza'
p3355
aS'6'
aS'6'
aS'2'
aS'10'
p3356
aa(lp3357
S'Andres Romagnoli'
p3358
aS'2004'
p3359
aS'Fly-half'
p3360
aS'Buenos Aires'
p3361
aS'3'
aS'3'
aS'0'
aS'0'
aa(lp3362
S'Galo Alvarez Quinones'
p3363
aS'2004'
p3364
aS'Prop, Hooker'
p3365
aS'Cordoba'
p3366
aS'2'
aS'2'
aS'0'
aS'0'
aa(lp3367
S'Juan Martin Fernandez Lobbe'
p3368
aS'2004'
p3369
aS'No. 8'
p3370
aS'Buenos Aires'
p3371
aS'61'
p3372
aS'26'
p3373
aS'6'
aS'30'
p3374
aa(lp3375
S'Alvaro Galindo'
p3376
aS'2004'
p3377
aS'Back-row'
p3378
aS'Tucuman'
p3379
aS'13'
p3380
aS'5'
aS'2'
aS'10'
p3381
aa(lp3382
S'Lucio Lopez Fleming'
p3383
aS'2004'
p3384
aS'Wing, Scrum-half'
p3385
aS'Salta'
p3386
aS'5'
aS'4'
aS'4'
aS'20'
p3387
aa(lp3388
S'Fernando Higgs'
p3389
aS'2004'
p3390
aS'Utility back'
p3391
aS'Mendoza'
p3392
aS'3'
aS'3'
aS'7'
aS'35'
p3393
aa(lp3394
S'Pablo Gomez Cora'
p3395
aS'2004'
p3396
aS'Centre'
p3397
aS'Lomas de Zamora'
p3398
aS'4'
aS'1'
aS'0'
aS'0'
aa(lp3399
S'Santiago Artese'
p3400
aS'2004'
p3401
aS'Lock'
p3402
aS'Buenos Aires'
p3403
aS'1'
aS'0'
aS'1'
aS'5'
aa(lp3404
S'Augusto Petrilli'
p3405
aS'2004'
p3406
aS'Back-row'
p3407
aS'San Fernando'
p3408
aS'2'
aS'1'
aS'0'
aS'0'
aa(lp3409
S'Gonzalo Tiesi'
p3410
aS'2004'
p3411
aS'Centre'
p3412
aS'Buenos Aires'
p3413
aS'37'
p3414
aS'17'
p3415
aS'6'
aS'30'
p3416
aa(lp3417
S'Marcos Ayerza'
p3418
aS'2004'
p3419
aS'Prop'
p3420
aS'Buenos Aires'
p3421
aS'57'
p3422
aS'24'
p3423
aS'1'
aS'5'
aa(lp3424
S'Manuel Carizza'
p3425
aS'2004'
p3426
aS'Lock'
p3427
aS'Rosario'
p3428
aS'43'
p3429
aS'14'
p3430
aS'1'
aS'5'
aa(lp3431
S'Alberto Vernet Basualdo'
p3432
aS'2004'
p3433
aS'Hooker'
p3434
aS'Buenos Aires'
p3435
aS'12'
p3436
aS'9'
aS'0'
aS'0'
aa(lp3437
S'Miguel Avramovic'
p3438
aS'2005'
p3439
aS'Centre'
p3440
aS'Buenos Aires'
p3441
aS'11'
p3442
aS'6'
aS'4'
aS'20'
p3443
aa(lp3444
S'Juan Manuel Leguizamon'
p3445
aS'2005'
p3446
aS'Back-row'
p3447
aS'Santiago del Estero'
p3448
aS'59'
p3449
aS'25'
p3450
aS'10'
p3451
aS'50'
p3452
aa(lp3453
S'Agustin Creevy'
p3454
aS'2005'
p3455
aS'Hooker'
p3456
aS'La Plata'
p3457
aS'36'
p3458
aS'11'
p3459
aS'0'
aS'0'
aa(lp3460
S'Horacio Agulla'
p3461
aS'2005'
p3462
aS'Fullback, Wing'
p3463
aS'Buenos Aires'
p3464
aS'58'
p3465
aS'22'
p3466
aS'5'
aS'25'
p3467
aa(lp3468
S'Jaime Arocena Mesones'
p3469
aS'2005'
p3470
aS'Lock'
p3471
aS'1978'
p3472
aS'1'
aS'0'
aS'0'
aS'0'
aa(lp3473
S'Agustin Costa Repetto'
p3474
aS'2005'
p3475
aS'Prop, Hooker'
p3476
aS'Buenos Aires'
p3477
aS'1'
aS'0'
aS'0'
aS'0'
aa(lp3478
S'Gaston de Robertis'
p3479
aS'2005'
p3480
aS'Prop'
p3481
aS'Buenos Aires'
p3482
aS'4'
aS'3'
aS'0'
aS'0'
aa(lp3483
S'Matias Cortese'
p3484
aS'2005'
p3485
aS'Hooker'
p3486
aS'Mendoza'
p3487
aS'15'
p3488
aS'7'
aS'1'
aS'5'
aa(lp3489
S'Sebastien Rondinelli'
p3490
aS'2005'
p3491
aS'Prop'
p3492
aS'La Plata'
p3493
aS'1'
aS'0'
aS'0'
aS'0'
aa(lp3494
S'Nicolas Vergallo'
p3495
aS'2005'
p3496
aS'Scrum-half'
p3497
aS'Rosario'
p3498
aS'33'
p3499
aS'13'
p3500
aS'0'
aS'0'
aa(lp3501
S'Rafael Carballo'
p3502
aS'2006'
p3503
aS'Wing'
p3504
aS'Buenos Aires'
p3505
aS'8'
aS'5'
aS'3'
aS'15'
p3506
aa(lp3507
S'Pablo Gambarini'
p3508
aS'2006'
p3509
aS'Hooker'
p3510
aS'Tucuman'
p3511
aS'8'
aS'8'
aS'1'
aS'5'
aa(lp3512
S'Esteban Lozada'
p3513
aS'2006'
p3514
aS'Lock'
p3515
aS'Brussels'
p3516
aS'22'
p3517
aS'12'
p3518
aS'0'
aS'0'
aa(lp3519
S'Juan Gomez'
p3520
aS'2006'
p3521
aS'Prop'
p3522
aS'Buenos Aires'
p3523
aS'6'
aS'4'
aS'0'
aS'0'
aa(lp3524
S'Tomas de Vedia'
p3525
aS'2007'
p3526
aS'Wing'
p3527
aS'Buenos Aires'
p3528
aS'3'
aS'3'
aS'0'
aS'0'
aa(lp3529
S'Genaro Fessia'
p3530
aS'2007'
p3531
aS'Back-row'
p3532
aS'Cordoba'
p3533
aS'13'
p3534
aS'9'
aS'2'
aS'10'
p3535
aa(lp3536
S'Marcelo Bosch'
p3537
aS'2007'
p3538
aS'Centre'
p3539
aS'Buenos Aires'
p3540
aS'33'
p3541
aS'6'
aS'4'
aS'45'
p3542
aa(lp3543
S'Alejandro Abadie'
p3544
aS'2007'
p3545
aS'Back-row'
p3546
aS'San Fernando'
p3547
aS'5'
aS'3'
aS'1'
aS'5'
aa(lp3548
S'Federico Amelong'
p3549
aS'2007'
p3550
aS'Centre'
p3551
aS'Rosario'
p3552
aS'2'
aS'2'
aS'1'
aS'5'
aa(lp3553
S'Felipe Aranguren'
p3554
aS'2007'
p3555
aS'Lock'
p3556
aS'Buenos Aires'
p3557
aS'6'
aS'6'
aS'1'
aS'5'
aa(lp3558
S'Gabriel Ascarate'
p3559
aS'2007'
p3560
aS'Fullback, Centre'
p3561
aS'San Miguel de Tucuma'
p3562
aS'16'
p3563
aS'10'
p3564
aS'4'
aS'20'
p3565
aa(lp3566
S'Gonzalo Begino'
p3567
aS'2007'
p3568
aS'Prop'
p3569
aS'1976'
p3570
aS'1'
aS'1'
aS'0'
aS'0'
aa(lp3571
S'Agustin Guzman'
p3572
aS'2007'
p3573
aS'Back-row'
p3574
aS'San Miguel de Tucuma'
p3575
aS'5'
aS'5'
aS'1'
aS'5'
aa(lp3576
S'Francisco Merello'
p3577
aS'2007'
p3578
aS'Wing'
p3579
aS'Buenos Aires'
p3580
aS'5'
aS'5'
aS'6'
aS'30'
p3581
aa(lp3582
S'Ignacio Mieres'
p3583
aS'2007'
p3584
aS'Fly-half'
p3585
aS'Buenos Aires'
p3586
aS'6'
aS'6'
aS'2'
aS'32'
p3587
aa(lp3588
S'Sebastian Ponce'
p3589
aS'2007'
p3590
aS'Fullback'
p3591
aS'date unknown'
p3592
aS'1'
aS'1'
aS'2'
aS'10'
p3593
aa(lp3594
S'James Stuart'
p3595
aS'2007'
p3596
aS'Lock'
p3597
aS'Buenos Aires'
p3598
aS'3'
aS'1'
aS'0'
aS'0'
aa(lp3599
S'Ben Urdapilleta'
p3600
aS'2007'
p3601
aS'Fly-half'
p3602
aS'Buenos Aires'
p3603
aS'10'
p3604
aS'6'
aS'2'
aS'40'
p3605
aa(lp3606
S'Francisco Albarracin'
p3607
aS'2007'
p3608
aS'Scrum-half'
p3609
aS'La Plata'
p3610
aS'3'
aS'3'
aS'1'
aS'5'
aa(lp3611
S'Alejandro Campos'
p3612
aS'2007'
p3613
aS'Back-row'
p3614
aS'Buenos Aires'
p3615
aS'15'
p3616
aS'7'
aS'1'
aS'5'
aa(lp3617
S'Bruno Fabricio Cuezzo'
p3618
aS'2007'
p3619
aS'No. 8'
p3620
aS'1976'
p3621
aS'1'
aS'1'
aS'0'
aS'0'
aa(lp3622
S'Ramiro del Busto'
p3623
aS'2007'
p3624
aS'Fullback'
p3625
aS'Buenos Aires'
p3626
aS'1'
aS'1'
aS'1'
aS'5'
aa(lp3627
S'Lucas Gonzalez Amorosino'
p3628
aS'2007'
p3629
aS'Fullback'
p3630
aS'Buenos Aires'
p3631
aS'40'
p3632
aS'13'
p3633
aS'7'
aS'35'
p3634
aa(lp3635
S'Tomas Roan'
p3636
aS'2007'
p3637
aS'Lock'
p3638
aS'La Plata'
p3639
aS'2'
aS'2'
aS'0'
aS'0'
aa(lp3640
S'Federico Rodriguez'
p3641
aS'2007'
p3642
aS'Hooker'
p3643
aS'date unknown'
p3644
aS'1'
aS'1'
aS'0'
aS'0'
aa(lp3645
S'Lucas Barrera Oro'
p3646
aS'2008'
p3647
aS'Fullback'
p3648
aS'Tucuman'
p3649
aS'3'
aS'3'
aS'0'
aS'0'
aa(lp3650
S'Felipe Bettolli'
p3651
aS'2008'
p3652
aS'Prop'
p3653
aS'Cordoba'
p3654
aS'3'
aS'3'
aS'0'
aS'0'
aa(lp3655
S'Gonzalo Camacho'
p3656
aS'2008'
p3657
aS'Wing'
p3658
aS'Buenos Aires'
p3659
aS'23'
p3660
aS'7'
aS'6'
aS'30'
p3661
aa(lp3662
S'Mauro Comuzzi'
p3663
aS'2008'
p3664
aS'Wing, Fullback'
p3665
aS'Buenos Aires'
p3666
aS'5'
aS'3'
aS'0'
aS'0'
aa(lp3667
S'Juan Ignacio Gauthier'
p3668
aS'2008'
p3669
aS'Utility back'
p3670
aS'Buenos Aires'
p3671
aS'2'
aS'2'
aS'3'
aS'15'
p3672
aa(lp3673
S'Francisco Gomez Kodela'
p3674
aS'2008'
p3675
aS'Prop'
p3676
aS'1985'
p3677
aS'11'
p3678
aS'6'
aS'1'
aS'5'
aa(lp3679
S'Juan Pablo Lagarrigue'
p3680
aS'2008'
p3681
aS'Lock'
p3682
aS'Tucuman'
p3683
aS'2'
aS'2'
aS'0'
aS'0'
aa(lp3684
S'Rodrigo Maria'
p3685
aS'2008'
p3686
aS'Hooker'
p3687
aS'date unknown'
p3688
aS'1'
aS'1'
aS'2'
aS'10'
p3689
aa(lp3690
S'Leonardo Senatore'
p3691
aS'2008'
p3692
aS'Back-row'
p3693
aS'Rosario'
p3694
aS'29'
p3695
aS'11'
p3696
aS'3'
aS'15'
p3697
aa(lp3698
S'Carlos Caceres'
p3699
aS'2008'
p3700
aS'Lock'
p3701
aS'Tucuman'
p3702
aS'4'
aS'4'
aS'0'
aS'0'
aa(lp3703
S'Ariel Hevia'
p3704
aS'2008'
p3705
aS'Prop'
p3706
aS'Buenos Aires'
p3707
aS'1'
aS'1'
aS'0'
aS'0'
aa(lp3708
S'Roman Miralles'
p3709
aS'2008'
p3710
aS'Fullback'
p3711
aS'Rosario'
p3712
aS'5'
aS'5'
aS'3'
aS'15'
p3713
aa(lp3714
S'Alvaro Tejeda'
p3715
aS'2008'
p3716
aS'Hooker'
p3717
aS'San Miguel de Tucuma'
p3718
aS'3'
aS'1'
aS'1'
aS'5'
aa(lp3719
S'Pedro Ledesma Arocena'
p3720
aS'2008'
p3721
aS'Prop'
p3722
aS'Buenos Aires'
p3723
aS'2'
aS'0'
aS'0'
aS'0'
aa(lp3724
S'Alfredo Lalanne'
p3725
aS'2008'
p3726
aS'Scrum-half'
p3727
aS'Buenos Aires'
p3728
aS'10'
p3729
aS'4'
aS'0'
aS'0'
aa(lp3730
S'Martin Bustos Moyano'
p3731
aS'2008'
p3732
aS'Wing'
p3733
aS'Cordoba'
p3734
aS'4'
aS'2'
aS'0'
aS'43'
p3735
aa(lp3736
S'Miguel de Achaval'
p3737
aS'2008'
p3738
aS'Back-row'
p3739
aS'Buenos Aires'
p3740
aS'5'
aS'4'
aS'1'
aS'5'
aa(lp3741
S'Juan-Pablo Estelles'
p3742
aS'2008'
p3743
aS'Centre'
p3744
aS'Rosario'
p3745
aS'1'
aS'1'
aS'0'
aS'0'
aa(lp3746
S'Tomas Leonardi'
p3747
aS'2008'
p3748
aS'Back-row'
p3749
aS'Buenos Aires'
p3750
aS'18'
p3751
aS'6'
aS'4'
aS'20'
p3752
aa(lp3753
S'Agustin Smidt'
p3754
aS'2008'
p3755
aS'Lock'
p3756
aS'Cordoba'
p3757
aS'3'
aS'3'
aS'2'
aS'10'
p3758
aa(lp3759
S'Esteban Bustillo'
p3760
aS'2008'
p3761
aS'Hooker'
p3762
aS'Buenos Aires'
p3763
aS'1'
aS'1'
aS'0'
aS'0'
aa(lp3764
S'Mauricio Guidone'
p3765
aS'2008'
p3766
aS'Hooker, Prop'
p3767
aS'La Plata'
p3768
aS'10'
p3769
aS'8'
aS'1'
aS'5'
aa(lp3770
S'Martin Landajo'
p3771
aS'2008'
p3772
aS'Scrum-half'
p3773
aS'Buenos Aires'
p3774
aS'42'
p3775
aS'16'
p3776
aS'3'
aS'15'
p3777
aa(lp3778
S'Ignacio Pasman'
p3779
aS'2008'
p3780
aS'Back-row'
p3781
aS'Buenos Aires'
p3782
aS'2'
aS'2'
aS'0'
aS'0'
aa(lp3783
S'Juan Pablo Orlandi'
p3784
aS'2008'
p3785
aS'Prop'
p3786
aS'Mendoza'
p3787
aS'15'
p3788
aS'2'
aS'0'
aS'0'
aa(lp3789
S'Santiago Fernandez'
p3790
aS'2008'
p3791
aS'Centre'
p3792
aS'Buenos Aires'
p3793
aS'32'
p3794
aS'8'
aS'1'
aS'8'
aa(lp3795
S'Agustin Figuerola'
p3796
aS'2008'
p3797
aS'Scrum-half'
p3798
aS'Buenos Aires'
p3799
aS'7'
aS'2'
aS'0'
aS'0'
aa(lp3800
S'Belisario Agulla'
p3801
aS'2009'
p3802
aS'Fullback'
p3803
aS'Buenos Aires'
p3804
aS'11'
p3805
aS'9'
aS'7'
aS'35'
p3806
aa(lp3807
S'Lucas Alcacer Mackinlay'
p3808
aS'2009'
p3809
aS'Scrum-half'
p3810
aS'Buenos Aires'
p3811
aS'2'
aS'2'
aS'0'
aS'0'
aa(lp3812
S'Rodrigo Bruno'
p3813
aS'2009'
p3814
aS'Flanker'
p3815
aS'Cordoba'
p3816
aS'7'
aS'7'
aS'3'
aS'15'
p3817
aa(lp3818
S'Pedro Garzon'
p3819
aS'2009'
p3820
aS'Fullback'
p3821
aS'Cordoba'
p3822
aS'2'
aS'2'
aS'1'
aS'5'
aa(lp3823
S'Santiago Gonzalez Iglesias'
p3824
aS'2009'
p3825
aS'Fly-half'
p3826
aS'Buenos Aires'
p3827
aS'14'
p3828
aS'7'
aS'4'
aS'91'
p3829
aa(lp3830
S'Juan Imhoff'
p3831
aS'2009'
p3832
aS'Wing'
p3833
aS'Rosario'
p3834
aS'26'
p3835
aS'9'
aS'13'
p3836
aS'65'
p3837
aa(lp3838
S'Benjamin Macome'
p3839
aS'2009'
p3840
aS'No. 8'
p3841
aS'Tucuman'
p3842
aS'21'
p3843
aS'10'
p3844
aS'2'
aS'10'
p3845
aa(lp3846
S'Matias Narvaez'
p3847
aS'2009'
p3848
aS'Prop'
p3849
aS'Cordoba'
p3850
aS'2'
aS'2'
aS'0'
aS'0'
aa(lp3851
S'Santiago Piccaluga'
p3852
aS'2009'
p3853
aS'Centre'
p3854
aS'Buenos Aires'
p3855
aS'2'
aS'2'
aS'0'
aS'0'
aa(lp3856
S'Guillermo Roan'
p3857
aS'2009'
p3858
aS'Prop'
p3859
aS'La Plata'
p3860
aS'7'
aS'5'
aS'0'
aS'0'
aa(lp3861
S'Facundo Vega'
p3862
aS'2009'
p3863
aS'Centre'
p3864
aS'date unknown'
p3865
aS'2'
aS'2'
aS'1'
aS'9'
aa(lp3866
S'Francisco Cubelli'
p3867
aS'2009'
p3868
aS'Scrum-half'
p3869
aS'date unknown'
p3870
aS'2'
aS'2'
aS'0'
aS'0'
aa(lp3871
S'Ignacio di Santi'
p3872
aS'2009'
p3873
aS'Hooker'
p3874
aS'1988'
p3875
aS'2'
aS'2'
aS'0'
aS'0'
aa(lp3876
S'Paolo Mac'
p3877
aS'2009'
p3878
aS'Centre'
p3879
aS'1988'
p3880
aS'1'
aS'1'
aS'1'
aS'5'
aa(lp3881
S'Federico Merlo'
p3882
aS'2009'
p3883
aS'Prop'
p3884
aS'date unknown'
p3885
aS'1'
aS'1'
aS'1'
aS'5'
aa(lp3886
S'Gabriel Pata Curello'
p3887
aS'2009'
p3888
aS'Back-row'
p3889
aS'date unknown'
p3890
aS'2'
aS'2'
aS'1'
aS'5'
aa(lp3891
S'Martin Rodriguez Gurruchage'
p3892
aS'2009'
p3893
aS'Centre'
p3894
aS'Rosario'
p3895
aS'19'
p3896
aS'6'
aS'2'
aS'72'
p3897
aa(lp3898
S'Horacio San Martin'
p3899
aS'2009'
p3900
aS'Centre'
p3901
aS'Formosa'
p3902
aS'2'
aS'1'
aS'0'
aS'0'
aa(lp3903
S'Leandro Pereyra'
p3904
aS'2010'
p3905
aS'Prop'
p3906
aS'date unknown'
p3907
aS'2'
aS'2'
aS'0'
aS'0'
aa(lp3908
S'Matias Viazzo'
p3909
aS'2010'
p3910
aS'Centre'
p3911
aS'1983'
p3912
aS'2'
aS'2'
aS'1'
aS'5'
aa(lp3913
S'Tomas Cubelli'
p3914
aS'2010'
p3915
aS'Scrum-half'
p3916
aS'Buenos Aires'
p3917
aS'34'
p3918
aS'15'
p3919
aS'8'
aS'40'
p3920
aa(lp3921
S'Marcos Lobato'
p3922
aS'2010'
p3923
aS'Lock'
p3924
aS'Cordoba'
p3925
aS'2'
aS'2'
aS'0'
aS'0'
aa(lp3926
S'Ramiro Pacheco'
p3927
aS'2010'
p3928
aS'Prop'
p3929
aS'Rosario'
p3930
aS'2'
aS'2'
aS'0'
aS'0'
aa(lp3931
S'Luciano Proto'
p3932
aS'2010'
p3933
aS'Hooker'
p3934
aS'Tucuman'
p3935
aS'2'
aS'2'
aS'0'
aS'0'
aa(lp3936
S'Nicolas Sanchez'
p3937
aS'2010'
p3938
aS'Fly-half'
p3939
aS'San Miguel de Tucuma'
p3940
aS'30'
p3941
aS'9'
aS'2'
aS'230'
p3942
aa(lp3943
S'Rodrigo Baez'
p3944
aS'2010'
p3945
aS'Flanker'
p3946
aS'Mendoza'
p3947
aS'16'
p3948
aS'7'
aS'2'
aS'10'
p3949
aa(lp3950
S'Nahuel Tetaz Chaparro'
p3951
aS'2010'
p3952
aS'Prop'
p3953
aS'General Madariaga'
p3954
aS'16'
p3955
aS'8'
aS'1'
aS'5'
aa(lp3956
S'Mariano Galarza'
p3957
aS'2010'
p3958
aS'Lock'
p3959
aS'Veinticinco de Mayo'
p3960
aS'24'
p3961
aS'7'
aS'0'
aS'0'
aa(lp3962
S'Santiago Guzman'
p3963
aS'2010'
p3964
aS'Lock'
p3965
aS'San Miguel de Tucuma'
p3966
aS'6'
aS'4'
aS'0'
aS'0'
aa(lp3967
S'Juan Figallo'
p3968
aS'2010'
p3969
aS'Prop'
p3970
aS'Salta'
p3971
aS'22'
p3972
aS'6'
aS'1'
aS'5'
aa(lp3973
S'Julio Farias Cabello'
p3974
aS'2010'
p3975
aS'Back-row'
p3976
aS'San Miguel de Tucuma'
p3977
aS'30'
p3978
aS'6'
aS'2'
aS'10'
p3979
aa(lp3980
S'Jose Basile'
p3981
aS'2011'
p3982
aS'No. 8'
p3983
aS'1982'
p3984
aS'2'
aS'2'
aS'1'
aS'5'
aa(lp3985
S'Santiago Bottini'
p3986
aS'2011'
p3987
aS'Fly-half'
p3988
aS'Buenos Aires'
p3989
aS'2'
aS'2'
aS'0'
aS'0'
aa(lp3990
S'Tomas de la Vega'
p3991
aS'2011'
p3992
aS'Flanker'
p3993
aS'Buenos Aires'
p3994
aS'12'
p3995
aS'5'
aS'2'
aS'10'
p3996
aa(lp3997
S'Tomas Rosati'
p3998
aS'2011'
p3999
aS'Fly-half'
p4000
aS'Buenos Aires'
p4001
aS'2'
aS'2'
aS'0'
aS'0'
aa(lp4002
S'Hugo Schierano'
p4003
aS'2011'
p4004
aS'Lock'
p4005
aS'1985'
p4006
aS'2'
aS'2'
aS'0'
aS'0'
aa(lp4007
S'Roberto Tejerizo'
p4008
aS'2011'
p4009
aS'Hooker'
p4010
aS'San Miguel de Tucuma'
p4011
aS'4'
aS'4'
aS'0'
aS'0'
aa(lp4012
S'Federico Alloggio'
p4013
aS'2011'
p4014
aS'Lock'
p4015
aS'Rosario'
p4016
aS'2'
aS'2'
aS'0'
aS'0'
aa(lp4017
S'Nicolas Centurion'
p4018
aS'2011'
p4019
aS'Back-row'
p4020
aS'1989'
p4021
aS'2'
aS'2'
aS'1'
aS'5'
aa(lp4022
S'Gaston Cortes'
p4023
aS'2011'
p4024
aS'Prop'
p4025
aS'Cordoba'
p4026
aS'4'
aS'4'
aS'0'
aS'0'
aa(lp4027
S'Benjamin Madero'
p4028
aS'2011'
p4029
aS'Fly-half'
p4030
aS'Buenos Aires'
p4031
aS'4'
aS'3'
aS'1'
aS'29'
p4032
aa(lp4033
S'Martin Maineri'
p4034
aS'2011'
p4035
aS'Scrum-half'
p4036
aS'date unknown'
p4037
aS'2'
aS'2'
aS'0'
aS'0'
aa(lp4038
S'Ramiro Moyano Joya'
p4039
aS'2011'
p4040
aS'Fullback'
p4041
aS'Tucuman'
p4042
aS'6'
aS'6'
aS'7'
aS'35'
p4043
aa(lp4044
S'Fernando Luna'
p4045
aS'2011'
p4046
aS'Fullback'
p4047
aS'1990'
p4048
aS'1'
aS'1'
aS'3'
aS'15'
p4049
aa(lp4050
S'Walter Weiss'
p4051
aS'2011'
p4052
aS'Centre'
p4053
aS'1987'
p4054
aS'1'
aS'1'
aS'2'
aS'10'
p4055
aa(lp4056
S'Tomas Baravalle'
p4057
aS'2011'
p4058
aS'Prop'
p4059
aS'1990'
p4060
aS'1'
aS'1'
aS'0'
aS'0'
aa(lp4061
S'Agustin Gosio'
p4062
aS'2011'
p4063
aS'Wing'
p4064
aS'Buenos Aires'
p4065
aS'3'
aS'2'
aS'1'
aS'5'
aa(lp4066
S'Tomas Vallejos Cinalli'
p4067
aS'2011'
p4068
aS'Lock'
p4069
aS'Rosario'
p4070
aS'6'
aS'3'
aS'0'
aS'0'
aa(lp4071
S'Lisandro Ahualli de Chazal'
p4072
aS'2012'
p4073
aS'Flanker'
p4074
aS'San Miguel de Tucuma'
p4075
aS'6'
aS'6'
aS'1'
aS'5'
aa(lp4076
S'Valentin Cruz Hernestrosa'
p4077
aS'2012'
p4078
aS'Fly-half'
p4079
aS'1990'
p4080
aS'3'
aS'3'
aS'0'
aS'32'
p4081
aa(lp4082
S'Martin Garcia Veiga'
p4083
aS'2012'
p4084
aS'Hooker'
p4085
aS'Buenos Aires'
p4086
aS'6'
aS'4'
aS'1'
aS'5'
aa(lp4087
S'Manuel Montero'
p4088
aS'2012'
p4089
aS'Wing'
p4090
aS'Adrogue'
p4091
aS'21'
p4092
aS'9'
aS'14'
p4093
aS'70'
p4094
aa(lp4095
S'Matias Orlando'
p4096
aS'2012'
p4097
aS'Centre'
p4098
aS'Tucuman'
p4099
aS'10'
p4100
aS'6'
aS'2'
aS'10'
p4101
aa(lp4102
S'Javier Ortega Desio'
p4103
aS'2012'
p4104
aS'Flanker'
p4105
aS'Parana'
p4106
aS'14'
p4107
aS'10'
p4108
aS'5'
aS'25'
p4109
aa(lp4110
S'Diego Palma'
p4111
aS'2012'
p4112
aS'Wing'
p4113
aS'1988'
p4114
aS'2'
aS'2'
aS'0'
aS'0'
aa(lp4115
S'Javier Rojas Alvarez'
p4116
aS'2012'
p4117
aS'Centre'
p4118
aS'Tucuman'
p4119
aS'5'
aS'5'
aS'1'
aS'5'
aa(lp4120
S'Stefano Ambrosio'
p4121
aS'2012'
p4122
aS'Centre, Fly-half'
p4123
aS'Cordoba'
p4124
aS'2'
aS'2'
aS'0'
aS'18'
p4125
aa(lp4126
S'Nicolas Azorin'
p4127
aS'2012'
p4128
aS'Flanker'
p4129
aS'Mar del Plata'
p4130
aS'2'
aS'2'
aS'0'
aS'0'
aa(lp4131
S'Facundo Barrea'
p4132
aS'2012'
p4133
aS'Wing'
p4134
aS'Cordoba'
p4135
aS'4'
aS'3'
aS'8'
aS'40'
p4136
aa(lp4137
S'Cesar Fruttero'
p4138
aS'2012'
p4139
aS'Lock'
p4140
aS'Villa Maria'
p4141
aS'5'
aS'5'
aS'1'
aS'5'
aa(lp4142
S'Bruno Postiglioni'
p4143
aS'2012'
p4144
aS'Prop, Hooker'
p4145
aS'La Plata'
p4146
aS'18'
p4147
aS'12'
p4148
aS'1'
aS'5'
aa(lp4149
S'Ignacio Saenz Lancuba'
p4150
aS'2012'
p4151
aS'Prop'
p4152
aS'Buenos Aires'
p4153
aS'5'
aS'5'
aS'0'
aS'0'
aa(lp4154
S'German Araoz'
p4155
aS'2012'
p4156
aS'Prop'
p4157
aS'San Miguel de Tucuma'
p4158
aS'2'
aS'2'
aS'0'
aS'0'
aa(lp4159
S'Santiago Craig'
p4160
aS'2012'
p4161
aS'Centre'
p4162
aS'Buenos Aires'
p4163
aS'2'
aS'2'
aS'3'
aS'15'
p4164
aa(lp4165
S'Joaquin Tuculet'
p4166
aS'2012'
p4167
aS'Centre'
p4168
aS'La Plata'
p4169
aS'20'
p4170
aS'8'
aS'6'
aS'30'
p4171
aa(lp4172
S'Andres Bordoy'
p4173
aS'2012'
p4174
aS'Hooker'
p4175
aS'1982'
p4176
aS'2'
aS'1'
aS'0'
aS'0'
aa(lp4177
S'Nahuel Lobo'
p4178
aS'2012'
p4179
aS'Prop'
p4180
aS'Chajari'
p4181
aS'10'
p4182
aS'1'
aS'0'
aS'0'
aa(lp4183
S'Maximiliano Bustos'
p4184
aS'2012'
p4185
aS'Prop'
p4186
aS'Santa Fe'
p4187
aS'7'
aS'2'
aS'0'
aS'0'
aa(lp4188
S'Juan Cappiello'
p4189
aS'2013'
p4190
aS'Centre'
p4191
aS'Buenos Aires'
p4192
aS'3'
aS'3'
aS'1'
aS'5'
aa(lp4193
S'Tomas Carrio'
p4194
aS'2013'
p4195
aS'Fullback'
p4196
aS'Chaco'
p4197
aS'6'
aS'6'
aS'3'
aS'15'
p4198
aa(lp4199
S'Matias Diaz'
p4200
aS'2013'
p4201
aS'Prop'
p4202
aS'Mendoza'
p4203
aS'9'
aS'4'
aS'0'
aS'0'
aa(lp4204
S'Dan Isaack'
p4205
aS'2013'
p4206
aS'Centre'
p4207
aS'Rosario'
p4208
aS'2'
aS'2'
aS'4'
aS'20'
p4209
aa(lp4210
S'Fidel Lamy'
p4211
aS'2013'
p4212
aS'Flanker'
p4213
aS'Mendoza'
p4214
aS'3'
aS'3'
aS'0'
aS'0'
aa(lp4215
S'Tomas Lavanini'
p4216
aS'2013'
p4217
aS'Lock'
p4218
aS'Buenos Aires'
p4219
aS'18'
p4220
aS'8'
aS'1'
aS'5'
aa(lp4221
S'Santiago Mendez Angelillo'
p4222
aS'2013'
p4223
aS'Scrum-half'
p4224
aS'Buenos Aires'
p4225
aS'3'
aS'3'
aS'1'
aS'5'
aa(lp4226
S'Francisco Panessi'
p4227
aS'2013'
p4228
aS'No. 8'
p4229
aS'Villa la Angostura'
p4230
aS'2'
aS'2'
aS'0'
aS'0'
aa(lp4231
S'Joaquin Paz'
p4232
aS'2013'
p4233
aS'Fly-half'
p4234
aS'Cordoba'
p4235
aS'3'
aS'3'
aS'2'
aS'10'
p4236
aa(lp4237
S'Sebastian Poet'
p4238
aS'2013'
p4239
aS'Fly-half'
p4240
aS'Rosario'
p4241
aS'3'
aS'3'
aS'4'
aS'34'
p4242
aa(lp4243
S'Santiago Rocchia'
p4244
aS'2013'
p4245
aS'Flanker'
p4246
aS'Tucuman'
p4247
aS'3'
aS'3'
aS'1'
aS'5'
aa(lp4248
S'German Schulz'
p4249
aS'2013'
p4250
aS'Wing'
p4251
aS'Cordoba'
p4252
aS'2'
aS'2'
aS'1'
aS'5'
aa(lp4253
S'Santiago Alvarez'
p4254
aS'2013'
p4255
aS'Centre'
p4256
aS'Bahia Blanca'
p4257
aS'3'
aS'3'
aS'2'
aS'10'
p4258
aa(lp4259
S'Tomas Borghi'
p4260
aS'2013'
p4261
aS'Lock'
p4262
aS'Buenos Aires'
p4263
aS'3'
aS'3'
aS'1'
aS'5'
aa(lp4264
S'Martin Chiappesoni'
p4265
aS'2013'
p4266
aS'Lock'
p4267
aS'Parana'
p4268
aS'3'
aS'3'
aS'3'
aS'15'
p4269
aa(lp4270
S'Tomas Gilardon'
p4271
aS'2013'
p4272
aS'Prop'
p4273
aS'Buenos Aires'
p4274
aS'3'
aS'3'
aS'0'
aS'0'
aa(lp4275
S'Santiago Iglesias Valdez'
p4276
aS'2013'
p4277
aS'Hooker'
p4278
aS'Tucuman'
p4279
aS'10'
p4280
aS'6'
aS'1'
aS'5'
aa(lp4281
S'Pedro Imhoff'
p4282
aS'2013'
p4283
aS'Scrum-half'
p4284
aS'Rosario'
p4285
aS'3'
aS'3'
aS'2'
aS'10'
p4286
aa(lp4287
S'Patricio Fernandez Fiant'
p4288
aS'2013'
p4289
aS'Fullback'
p4290
aS'Rosario'
p4291
aS'2'
aS'2'
aS'2'
aS'38'
p4292
aa(lp4293
S'Santiago Garcia Botta'
p4294
aS'2013'
p4295
aS'Prop'
p4296
aS'Buenos Aires'
p4297
aS'4'
aS'4'
aS'1'
aS'5'
aa(lp4298
S'Pablo Matera'
p4299
aS'2013'
p4300
aS'Flanker'
p4301
aS'Buenos Aires'
p4302
aS'14'
p4303
aS'4'
aS'2'
aS'10'
p4304
aa(lp4305
S'Joaquin Paz'
p4306
aS'2013'
p4307
aS'Fullback'
p4308
aS'Buenos Aires'
p4309
aS'2'
aS'2'
aS'1'
aS'5'
aa(lp4310
S'Macario Villaluenga'
p4311
aS'2013'
p4312
aS'Wing'
p4313
aS'Tucuman'
p4314
aS'2'
aS'2'
aS'2'
aS'10'
p4315
aa(lp4316
S'Gonzalo Manso'
p4317
aS'2013'
p4318
aS'Hooker'
p4319
aS'Tucuman'
p4320
aS'2'
aS'2'
aS'0'
aS'0'
aa(lp4321
S'Santiago Cordero'
p4322
aS'2013'
p4323
aS'Fullback'
p4324
aS'Buenos Aires'
p4325
aS'9'
aS'5'
aS'3'
aS'15'
p4326
aa(lp4327
S'Antonio Ahualli de Chazal'
p4328
aS'2014'
p4329
aS'No. 8'
p4330
aS'Tucuman'
p4331
aS'4'
aS'2'
aS'1'
aS'5'
aa(lp4332
S'Matias Alemanno'
p4333
aS'2014'
p4334
aS'Lock'
p4335
aS'Cordoba'
p4336
aS'11'
p4337
aS'3'
aS'1'
aS'5'
aa(lp4338
S'Jeronimo de la Fuente'
p4339
aS'2014'
p4340
aS'Centre'
p4341
aS'Rosario'
p4342
aS'11'
p4343
aS'6'
aS'4'
aS'20'
p4344
aa(lp4345
S'Lucas Noguera Paz'
p4346
aS'2014'
p4347
aS'Prop'
p4348
aS'Tucuman'
p4349
aS'13'
p4350
aS'6'
aS'1'
aS'5'
aa(lp4351
S'Lucas Ponce'
p4352
aS'2014'
p4353
aS'Lock'
p4354
aS'Buenos Aires'
p4355
aS'5'
aS'4'
aS'1'
aS'5'
aa(lp4356
S'Felipe Ezcurra'
p4357
aS'2014'
p4358
aS'Scrum-half'
p4359
aS'Buenos Aires'
p4360
aS'2'
aS'2'
aS'0'
aS'0'
aa(lp4361
S'Julian Montoya'
p4362
aS'2014'
p4363
aS'Hooker'
p4364
aS'Buenos Aires'
p4365
aS'6'
aS'4'
aS'2'
aS'10'
p4366
aa(lp4367
S'Lucas Maguire'
p4368
aS'2014'
p4369
aS'Back-row'
p4370
aS'Buenos Aires'
p4371
aS'1'
aS'1'
aS'0'
aS'0'
aa(lp4372
S'Ramiro Herrera'
p4373
aS'2014'
p4374
aS'Prop'
p4375
aS'Comodoro Rivadavia'
p4376
aS'11'
p4377
aS'3'
aS'0'
aS'0'
aa(lp4378
S'Matias Moroni'
p4379
aS'2014'
p4380
aS'Centre'
p4381
aS'Buenos Aires'
p4382
aS'2'
aS'1'
aS'0'
aS'0'
aa(lp4383
S'Juan Cruz Guillemain'
p4384
aS'2014'
p4385
aS'Lock'
p4386
aS'San Juan'
p4387
aS'1'
aS'0'
aS'0'
aS'0'
aa(lp4388
S'Facundo Isa'
p4389
aS'2014'
p4390
aS'Flanker'
p4391
aS'Santiago del Estero'
p4392
aS'5'
aS'4'
aS'1'
aS'5'
aa(lp4393
S'Guido Petti Pagadizaval'
p4394
aS'2014'
p4395
aS'Lock'
p4396
aS'Buenos Aires'
p4397
aS'4'
aS'4'
aS'0'
aS'0'
aa(lp4398
S'Tomas Lezana'
p4399
aS'2014'
p4400
aS'Flanker'
p4401
aS'Santiago del Estero'
p4402
aS'3'
aS'3'
aS'1'
aS'5'
aa(lp4403
S'Geronimo Albertario'
p4404
aS'2015'
p4405
aS'Lock'
p4406
aS'Buenos Aires'
p4407
aS'2'
aS'2'
aS'0'
aS'0'
aa(lp4408
S'Gregorio del Prete'
p4409
aS'2015'
p4410
aS'Scrum-half'
p4411
aS'Mar del Plata'
p4412
aS'1'
aS'1'
aS'0'
aS'0'
aa(lp4413
S'Juan Leon Novillo'
p4414
aS'2015'
p4415
aS'Wing'
p4416
aS'1992'
p4417
aS'2'
aS'2'
aS'1'
aS'17'
p4418
aa(lp4419
S'Gonzalo Bertranou'
p4420
aS'2015'
p4421
aS'Scrum-half'
p4422
aS'Mendoza'
p4423
aS'1'
aS'1'
aS'0'
aS'0'
aa(lp4424
S'Manuel Plaza'
p4425
aS'2015'
p4426
aS'Lock'
p4427
aS'Salta'
p4428
aS'1'
aS'1'
aS'0'
aS'0'
aa.