(lp1
S'http://www.espnscrum.com/argentina/rugby/player/2118.html'
p2
aS'http://www.espnscrum.com/argentina/rugby/player/2119.html'
p3
aS'http://www.espnscrum.com/argentina/rugby/player/2123.html'
p4
aS'http://www.espnscrum.com/argentina/rugby/player/2124.html'
p5
aS'http://www.espnscrum.com/argentina/rugby/player/1005.html'
p6
aS'http://www.espnscrum.com/argentina/rugby/player/2126.html'
p7
aS'http://www.espnscrum.com/argentina/rugby/player/2127.html'
p8
aS'http://www.espnscrum.com/argentina/rugby/player/2129.html'
p9
aS'http://www.espnscrum.com/argentina/rugby/player/2130.html'
p10
aS'http://www.espnscrum.com/argentina/rugby/player/2131.html'
p11
aS'http://www.espnscrum.com/argentina/rugby/player/2133.html'
p12
aS'http://www.espnscrum.com/argentina/rugby/player/2134.html'
p13
aS'http://www.espnscrum.com/argentina/rugby/player/2135.html'
p14
aS'http://www.espnscrum.com/argentina/rugby/player/2138.html'
p15
aS'http://www.espnscrum.com/argentina/rugby/player/2142.html'
p16
aS'http://www.espnscrum.com/argentina/rugby/player/3450.html'
p17
aS'http://www.espnscrum.com/argentina/rugby/player/3451.html'
p18
aS'http://www.espnscrum.com/argentina/rugby/player/3452.html'
p19
aS'http://www.espnscrum.com/argentina/rugby/player/3453.html'
p20
aS'http://www.espnscrum.com/argentina/rugby/player/3454.html'
p21
aS'http://www.espnscrum.com/argentina/rugby/player/3455.html'
p22
aS'http://www.espnscrum.com/argentina/rugby/player/3456.html'
p23
aS'http://www.espnscrum.com/argentina/rugby/player/3458.html'
p24
aS'http://www.espnscrum.com/argentina/rugby/player/3459.html'
p25
aS'http://www.espnscrum.com/argentina/rugby/player/3461.html'
p26
aS'http://www.espnscrum.com/argentina/rugby/player/3462.html'
p27
aS'http://www.espnscrum.com/argentina/rugby/player/3463.html'
p28
aS'http://www.espnscrum.com/argentina/rugby/player/3464.html'
p29
aS'http://www.espnscrum.com/argentina/rugby/player/3468.html'
p30
aS'http://www.espnscrum.com/argentina/rugby/player/3470.html'
p31
aS'http://www.espnscrum.com/argentina/rugby/player/3471.html'
p32
aS'http://www.espnscrum.com/argentina/rugby/player/3472.html'
p33
aS'http://www.espnscrum.com/argentina/rugby/player/3475.html'
p34
aS'http://www.espnscrum.com/argentina/rugby/player/3477.html'
p35
aS'http://www.espnscrum.com/argentina/rugby/player/3478.html'
p36
aS'http://www.espnscrum.com/argentina/rugby/player/3479.html'
p37
aS'http://www.espnscrum.com/argentina/rugby/player/3480.html'
p38
aS'http://www.espnscrum.com/argentina/rugby/player/3481.html'
p39
aS'http://www.espnscrum.com/argentina/rugby/player/3482.html'
p40
aS'http://www.espnscrum.com/argentina/rugby/player/3483.html'
p41
aS'http://www.espnscrum.com/argentina/rugby/player/3484.html'
p42
aS'http://www.espnscrum.com/argentina/rugby/player/3487.html'
p43
aS'http://www.espnscrum.com/argentina/rugby/player/3488.html'
p44
aS'http://www.espnscrum.com/argentina/rugby/player/3489.html'
p45
aS'http://www.espnscrum.com/argentina/rugby/player/4002.html'
p46
aS'http://www.espnscrum.com/argentina/rugby/player/4003.html'
p47
aS'http://www.espnscrum.com/argentina/rugby/player/4006.html'
p48
aS'http://www.espnscrum.com/argentina/rugby/player/4010.html'
p49
aS'http://www.espnscrum.com/argentina/rugby/player/4011.html'
p50
aS'http://www.espnscrum.com/argentina/rugby/player/4013.html'
p51
aS'http://www.espnscrum.com/argentina/rugby/player/4016.html'
p52
aS'http://www.espnscrum.com/argentina/rugby/player/4020.html'
p53
aS'http://www.espnscrum.com/argentina/rugby/player/4022.html'
p54
aS'http://www.espnscrum.com/argentina/rugby/player/4027.html'
p55
aS'http://www.espnscrum.com/argentina/rugby/player/4028.html'
p56
aS'http://www.espnscrum.com/argentina/rugby/player/4029.html'
p57
aS'http://www.espnscrum.com/argentina/rugby/player/4030.html'
p58
aS'http://www.espnscrum.com/argentina/rugby/player/4032.html'
p59
aS'http://www.espnscrum.com/argentina/rugby/player/4034.html'
p60
aS'http://www.espnscrum.com/argentina/rugby/player/4035.html'
p61
aS'http://www.espnscrum.com/argentina/rugby/player/4038.html'
p62
aS'http://www.espnscrum.com/argentina/rugby/player/4389.html'
p63
aS'http://www.espnscrum.com/argentina/rugby/player/4392.html'
p64
aS'http://www.espnscrum.com/argentina/rugby/player/4393.html'
p65
aS'http://www.espnscrum.com/argentina/rugby/player/4012.html'
p66
aS'http://www.espnscrum.com/argentina/rugby/player/4394.html'
p67
aS'http://www.espnscrum.com/argentina/rugby/player/4398.html'
p68
aS'http://www.espnscrum.com/argentina/rugby/player/4399.html'
p69
aS'http://www.espnscrum.com/argentina/rugby/player/4400.html'
p70
aS'http://www.espnscrum.com/argentina/rugby/player/4401.html'
p71
aS'http://www.espnscrum.com/argentina/rugby/player/4403.html'
p72
aS'http://www.espnscrum.com/argentina/rugby/player/4404.html'
p73
aS'http://www.espnscrum.com/argentina/rugby/player/4405.html'
p74
aS'http://www.espnscrum.com/argentina/rugby/player/4406.html'
p75
aS'http://www.espnscrum.com/argentina/rugby/player/4427.html'
p76
aS'http://www.espnscrum.com/argentina/rugby/player/4428.html'
p77
aS'http://www.espnscrum.com/argentina/rugby/player/4429.html'
p78
aS'http://www.espnscrum.com/argentina/rugby/player/4431.html'
p79
aS'http://www.espnscrum.com/argentina/rugby/player/4432.html'
p80
aS'http://www.espnscrum.com/argentina/rugby/player/4433.html'
p81
aS'http://www.espnscrum.com/argentina/rugby/player/4450.html'
p82
aS'http://www.espnscrum.com/argentina/rugby/player/4451.html'
p83
aS'http://www.espnscrum.com/argentina/rugby/player/4452.html'
p84
aS'http://www.espnscrum.com/argentina/rugby/player/4655.html'
p85
aS'http://www.espnscrum.com/argentina/rugby/player/4656.html'
p86
aS'http://www.espnscrum.com/argentina/rugby/player/4657.html'
p87
aS'http://www.espnscrum.com/argentina/rugby/player/4658.html'
p88
aS'http://www.espnscrum.com/argentina/rugby/player/4659.html'
p89
aS'http://www.espnscrum.com/argentina/rugby/player/4660.html'
p90
aS'http://www.espnscrum.com/argentina/rugby/player/4661.html'
p91
aS'http://www.espnscrum.com/argentina/rugby/player/4662.html'
p92
aS'http://www.espnscrum.com/argentina/rugby/player/4663.html'
p93
aS'http://www.espnscrum.com/argentina/rugby/player/5096.html'
p94
aS'http://www.espnscrum.com/argentina/rugby/player/5099.html'
p95
aS'http://www.espnscrum.com/argentina/rugby/player/5101.html'
p96
aS'http://www.espnscrum.com/argentina/rugby/player/5102.html'
p97
aS'http://www.espnscrum.com/argentina/rugby/player/5103.html'
p98
aS'http://www.espnscrum.com/argentina/rugby/player/5104.html'
p99
aS'http://www.espnscrum.com/argentina/rugby/player/5106.html'
p100
aS'http://www.espnscrum.com/argentina/rugby/player/5107.html'
p101
aS'http://www.espnscrum.com/argentina/rugby/player/5113.html'
p102
aS'http://www.espnscrum.com/argentina/rugby/player/5114.html'
p103
aS'http://www.espnscrum.com/argentina/rugby/player/5116.html'
p104
aS'http://www.espnscrum.com/argentina/rugby/player/5117.html'
p105
aS'http://www.espnscrum.com/argentina/rugby/player/5119.html'
p106
aS'http://www.espnscrum.com/argentina/rugby/player/5120.html'
p107
aS'http://www.espnscrum.com/argentina/rugby/player/5121.html'
p108
aS'http://www.espnscrum.com/argentina/rugby/player/5125.html'
p109
aS'http://www.espnscrum.com/argentina/rugby/player/5126.html'
p110
aS'http://www.espnscrum.com/argentina/rugby/player/5127.html'
p111
aS'http://www.espnscrum.com/argentina/rugby/player/5128.html'
p112
aS'http://www.espnscrum.com/argentina/rugby/player/5129.html'
p113
aS'http://www.espnscrum.com/argentina/rugby/player/5130.html'
p114
aS'http://www.espnscrum.com/argentina/rugby/player/5131.html'
p115
aS'http://www.espnscrum.com/argentina/rugby/player/5132.html'
p116
aS'http://www.espnscrum.com/argentina/rugby/player/5222.html'
p117
aS'http://www.espnscrum.com/argentina/rugby/player/5224.html'
p118
aS'http://www.espnscrum.com/argentina/rugby/player/5225.html'
p119
aS'http://www.espnscrum.com/argentina/rugby/player/5108.html'
p120
aS'http://www.espnscrum.com/argentina/rugby/player/5226.html'
p121
aS'http://www.espnscrum.com/argentina/rugby/player/5227.html'
p122
aS'http://www.espnscrum.com/argentina/rugby/player/5228.html'
p123
aS'http://www.espnscrum.com/argentina/rugby/player/5229.html'
p124
aS'http://www.espnscrum.com/argentina/rugby/player/5230.html'
p125
aS'http://www.espnscrum.com/argentina/rugby/player/5250.html'
p126
aS'http://www.espnscrum.com/argentina/rugby/player/5251.html'
p127
aS'http://www.espnscrum.com/argentina/rugby/player/5459.html'
p128
aS'http://www.espnscrum.com/argentina/rugby/player/5460.html'
p129
aS'http://www.espnscrum.com/argentina/rugby/player/5461.html'
p130
aS'http://www.espnscrum.com/argentina/rugby/player/5462.html'
p131
aS'http://www.espnscrum.com/argentina/rugby/player/5463.html'
p132
aS'http://www.espnscrum.com/argentina/rugby/player/5464.html'
p133
aS'http://www.espnscrum.com/argentina/rugby/player/5465.html'
p134
aS'http://www.espnscrum.com/argentina/rugby/player/5466.html'
p135
aS'http://www.espnscrum.com/argentina/rugby/player/5467.html'
p136
aS'http://www.espnscrum.com/argentina/rugby/player/5468.html'
p137
aS'http://www.espnscrum.com/argentina/rugby/player/5470.html'
p138
aS'http://www.espnscrum.com/argentina/rugby/player/5471.html'
p139
aS'http://www.espnscrum.com/argentina/rugby/player/5577.html'
p140
aS'http://www.espnscrum.com/argentina/rugby/player/5580.html'
p141
aS'http://www.espnscrum.com/argentina/rugby/player/5585.html'
p142
aS'http://www.espnscrum.com/argentina/rugby/player/5586.html'
p143
aS'http://www.espnscrum.com/argentina/rugby/player/5854.html'
p144
aS'http://www.espnscrum.com/argentina/rugby/player/5856.html'
p145
aS'http://www.espnscrum.com/argentina/rugby/player/5860.html'
p146
aS'http://www.espnscrum.com/argentina/rugby/player/5861.html'
p147
aS'http://www.espnscrum.com/argentina/rugby/player/5862.html'
p148
aS'http://www.espnscrum.com/argentina/rugby/player/5864.html'
p149
aS'http://www.espnscrum.com/argentina/rugby/player/5865.html'
p150
aS'http://www.espnscrum.com/argentina/rugby/player/5866.html'
p151
aS'http://www.espnscrum.com/argentina/rugby/player/5867.html'
p152
aS'http://www.espnscrum.com/argentina/rugby/player/5869.html'
p153
aS'http://www.espnscrum.com/argentina/rugby/player/5870.html'
p154
aS'http://www.espnscrum.com/argentina/rugby/player/6068.html'
p155
aS'http://www.espnscrum.com/argentina/rugby/player/6069.html'
p156
aS'http://www.espnscrum.com/argentina/rugby/player/6071.html'
p157
aS'http://www.espnscrum.com/argentina/rugby/player/6072.html'
p158
aS'http://www.espnscrum.com/argentina/rugby/player/6074.html'
p159
aS'http://www.espnscrum.com/argentina/rugby/player/6075.html'
p160
aS'http://www.espnscrum.com/argentina/rugby/player/6078.html'
p161
aS'http://www.espnscrum.com/argentina/rugby/player/6081.html'
p162
aS'http://www.espnscrum.com/argentina/rugby/player/6082.html'
p163
aS'http://www.espnscrum.com/argentina/rugby/player/6083.html'
p164
aS'http://www.espnscrum.com/argentina/rugby/player/6090.html'
p165
aS'http://www.espnscrum.com/argentina/rugby/player/6091.html'
p166
aS'http://www.espnscrum.com/argentina/rugby/player/6092.html'
p167
aS'http://www.espnscrum.com/argentina/rugby/player/6093.html'
p168
aS'http://www.espnscrum.com/argentina/rugby/player/6095.html'
p169
aS'http://www.espnscrum.com/argentina/rugby/player/6099.html'
p170
aS'http://www.espnscrum.com/argentina/rugby/player/6311.html'
p171
aS'http://www.espnscrum.com/argentina/rugby/player/6312.html'
p172
aS'http://www.espnscrum.com/argentina/rugby/player/6313.html'
p173
aS'http://www.espnscrum.com/argentina/rugby/player/6314.html'
p174
aS'http://www.espnscrum.com/argentina/rugby/player/6315.html'
p175
aS'http://www.espnscrum.com/argentina/rugby/player/6316.html'
p176
aS'http://www.espnscrum.com/argentina/rugby/player/6317.html'
p177
aS'http://www.espnscrum.com/argentina/rugby/player/6318.html'
p178
aS'http://www.espnscrum.com/argentina/rugby/player/6319.html'
p179
aS'http://www.espnscrum.com/argentina/rugby/player/6320.html'
p180
aS'http://www.espnscrum.com/argentina/rugby/player/6322.html'
p181
aS'http://www.espnscrum.com/argentina/rugby/player/6414.html'
p182
aS'http://www.espnscrum.com/argentina/rugby/player/6416.html'
p183
aS'http://www.espnscrum.com/argentina/rugby/player/6419.html'
p184
aS'http://www.espnscrum.com/argentina/rugby/player/6423.html'
p185
aS'http://www.espnscrum.com/argentina/rugby/player/6427.html'
p186
aS'http://www.espnscrum.com/argentina/rugby/player/6522.html'
p187
aS'http://www.espnscrum.com/argentina/rugby/player/6523.html'
p188
aS'http://www.espnscrum.com/argentina/rugby/player/6525.html'
p189
aS'http://www.espnscrum.com/argentina/rugby/player/6527.html'
p190
aS'http://www.espnscrum.com/argentina/rugby/player/6529.html'
p191
aS'http://www.espnscrum.com/argentina/rugby/player/6530.html'
p192
aS'http://www.espnscrum.com/argentina/rugby/player/6531.html'
p193
aS'http://www.espnscrum.com/argentina/rugby/player/6532.html'
p194
aS'http://www.espnscrum.com/argentina/rugby/player/6533.html'
p195
aS'http://www.espnscrum.com/argentina/rugby/player/6534.html'
p196
aS'http://www.espnscrum.com/argentina/rugby/player/6536.html'
p197
aS'http://www.espnscrum.com/argentina/rugby/player/6539.html'
p198
aS'http://www.espnscrum.com/argentina/rugby/player/6540.html'
p199
aS'http://www.espnscrum.com/argentina/rugby/player/6542.html'
p200
aS'http://www.espnscrum.com/argentina/rugby/player/6545.html'
p201
aS'http://www.espnscrum.com/argentina/rugby/player/6641.html'
p202
aS'http://www.espnscrum.com/argentina/rugby/player/6642.html'
p203
aS'http://www.espnscrum.com/argentina/rugby/player/6643.html'
p204
aS'http://www.espnscrum.com/argentina/rugby/player/6644.html'
p205
aS'http://www.espnscrum.com/argentina/rugby/player/6645.html'
p206
aS'http://www.espnscrum.com/argentina/rugby/player/6646.html'
p207
aS'http://www.espnscrum.com/argentina/rugby/player/6647.html'
p208
aS'http://www.espnscrum.com/argentina/rugby/player/6921.html'
p209
aS'http://www.espnscrum.com/argentina/rugby/player/6922.html'
p210
aS'http://www.espnscrum.com/argentina/rugby/player/6925.html'
p211
aS'http://www.espnscrum.com/argentina/rugby/player/6926.html'
p212
aS'http://www.espnscrum.com/argentina/rugby/player/6928.html'
p213
aS'http://www.espnscrum.com/argentina/rugby/player/6930.html'
p214
aS'http://www.espnscrum.com/argentina/rugby/player/6931.html'
p215
aS'http://www.espnscrum.com/argentina/rugby/player/6932.html'
p216
aS'http://www.espnscrum.com/argentina/rugby/player/6934.html'
p217
aS'http://www.espnscrum.com/argentina/rugby/player/6936.html'
p218
aS'http://www.espnscrum.com/argentina/rugby/player/6937.html'
p219
aS'http://www.espnscrum.com/argentina/rugby/player/6938.html'
p220
aS'http://www.espnscrum.com/argentina/rugby/player/6939.html'
p221
aS'http://www.espnscrum.com/argentina/rugby/player/6940.html'
p222
aS'http://www.espnscrum.com/argentina/rugby/player/7010.html'
p223
aS'http://www.espnscrum.com/argentina/rugby/player/7011.html'
p224
aS'http://www.espnscrum.com/argentina/rugby/player/7012.html'
p225
aS'http://www.espnscrum.com/argentina/rugby/player/7013.html'
p226
aS'http://www.espnscrum.com/argentina/rugby/player/7014.html'
p227
aS'http://www.espnscrum.com/argentina/rugby/player/7015.html'
p228
aS'http://www.espnscrum.com/argentina/rugby/player/7016.html'
p229
aS'http://www.espnscrum.com/argentina/rugby/player/7026.html'
p230
aS'http://www.espnscrum.com/argentina/rugby/player/7030.html'
p231
aS'http://www.espnscrum.com/argentina/rugby/player/7033.html'
p232
aS'http://www.espnscrum.com/argentina/rugby/player/7035.html'
p233
aS'http://www.espnscrum.com/argentina/rugby/player/7050.html'
p234
aS'http://www.espnscrum.com/argentina/rugby/player/7058.html'
p235
aS'http://www.espnscrum.com/argentina/rugby/player/7063.html'
p236
aS'http://www.espnscrum.com/argentina/rugby/player/7137.html'
p237
aS'http://www.espnscrum.com/argentina/rugby/player/7138.html'
p238
aS'http://www.espnscrum.com/argentina/rugby/player/7140.html'
p239
aS'http://www.espnscrum.com/argentina/rugby/player/7142.html'
p240
aS'http://www.espnscrum.com/argentina/rugby/player/7295.html'
p241
aS'http://www.espnscrum.com/argentina/rugby/player/7297.html'
p242
aS'http://www.espnscrum.com/argentina/rugby/player/7298.html'
p243
aS'http://www.espnscrum.com/argentina/rugby/player/7299.html'
p244
aS'http://www.espnscrum.com/argentina/rugby/player/7300.html'
p245
aS'http://www.espnscrum.com/argentina/rugby/player/7309.html'
p246
aS'http://www.espnscrum.com/argentina/rugby/player/7439.html'
p247
aS'http://www.espnscrum.com/argentina/rugby/player/7441.html'
p248
aS'http://www.espnscrum.com/argentina/rugby/player/7445.html'
p249
aS'http://www.espnscrum.com/argentina/rugby/player/7547.html'
p250
aS'http://www.espnscrum.com/argentina/rugby/player/7548.html'
p251
aS'http://www.espnscrum.com/argentina/rugby/player/7557.html'
p252
aS'http://www.espnscrum.com/argentina/rugby/player/7558.html'
p253
aS'http://www.espnscrum.com/argentina/rugby/player/7559.html'
p254
aS'http://www.espnscrum.com/argentina/rugby/player/7560.html'
p255
aS'http://www.espnscrum.com/argentina/rugby/player/7677.html'
p256
aS'http://www.espnscrum.com/argentina/rugby/player/7771.html'
p257
aS'http://www.espnscrum.com/argentina/rugby/player/7774.html'
p258
aS'http://www.espnscrum.com/argentina/rugby/player/7780.html'
p259
aS'http://www.espnscrum.com/argentina/rugby/player/7794.html'
p260
aS'http://www.espnscrum.com/argentina/rugby/player/7801.html'
p261
aS'http://www.espnscrum.com/argentina/rugby/player/7803.html'
p262
aS'http://www.espnscrum.com/argentina/rugby/player/7804.html'
p263
aS'http://www.espnscrum.com/argentina/rugby/player/7813.html'
p264
aS'http://www.espnscrum.com/argentina/rugby/player/7823.html'
p265
aS'http://www.espnscrum.com/argentina/rugby/player/7812.html'
p266
aS'http://www.espnscrum.com/argentina/rugby/player/7839.html'
p267
aS'http://www.espnscrum.com/argentina/rugby/player/7840.html'
p268
aS'http://www.espnscrum.com/argentina/rugby/player/7841.html'
p269
aS'http://www.espnscrum.com/argentina/rugby/player/7842.html'
p270
aS'http://www.espnscrum.com/argentina/rugby/player/7843.html'
p271
aS'http://www.espnscrum.com/argentina/rugby/player/7844.html'
p272
aS'http://www.espnscrum.com/argentina/rugby/player/7845.html'
p273
aS'http://www.espnscrum.com/argentina/rugby/player/7846.html'
p274
aS'http://www.espnscrum.com/argentina/rugby/player/7847.html'
p275
aS'http://www.espnscrum.com/argentina/rugby/player/7848.html'
p276
aS'http://www.espnscrum.com/argentina/rugby/player/7849.html'
p277
aS'http://www.espnscrum.com/argentina/rugby/player/7960.html'
p278
aS'http://www.espnscrum.com/argentina/rugby/player/7961.html'
p279
aS'http://www.espnscrum.com/argentina/rugby/player/8110.html'
p280
aS'http://www.espnscrum.com/argentina/rugby/player/8111.html'
p281
aS'http://www.espnscrum.com/argentina/rugby/player/8112.html'
p282
aS'http://www.espnscrum.com/argentina/rugby/player/8113.html'
p283
aS'http://www.espnscrum.com/argentina/rugby/player/8117.html'
p284
aS'http://www.espnscrum.com/argentina/rugby/player/8154.html'
p285
aS'http://www.espnscrum.com/argentina/rugby/player/8155.html'
p286
aS'http://www.espnscrum.com/argentina/rugby/player/8156.html'
p287
aS'http://www.espnscrum.com/argentina/rugby/player/8157.html'
p288
aS'http://www.espnscrum.com/argentina/rugby/player/8159.html'
p289
aS'http://www.espnscrum.com/argentina/rugby/player/8279.html'
p290
aS'http://www.espnscrum.com/argentina/rugby/player/8281.html'
p291
aS'http://www.espnscrum.com/argentina/rugby/player/8283.html'
p292
aS'http://www.espnscrum.com/argentina/rugby/player/8417.html'
p293
aS'http://www.espnscrum.com/argentina/rugby/player/8418.html'
p294
aS'http://www.espnscrum.com/argentina/rugby/player/8419.html'
p295
aS'http://www.espnscrum.com/argentina/rugby/player/8420.html'
p296
aS'http://www.espnscrum.com/argentina/rugby/player/8421.html'
p297
aS'http://www.espnscrum.com/argentina/rugby/player/8422.html'
p298
aS'http://www.espnscrum.com/argentina/rugby/player/8423.html'
p299
aS'http://www.espnscrum.com/argentina/rugby/player/8425.html'
p300
aS'http://www.espnscrum.com/argentina/rugby/player/8426.html'
p301
aS'http://www.espnscrum.com/argentina/rugby/player/8427.html'
p302
aS'http://www.espnscrum.com/argentina/rugby/player/8428.html'
p303
aS'http://www.espnscrum.com/argentina/rugby/player/8429.html'
p304
aS'http://www.espnscrum.com/argentina/rugby/player/8430.html'
p305
aS'http://www.espnscrum.com/argentina/rugby/player/8431.html'
p306
aS'http://www.espnscrum.com/argentina/rugby/player/8432.html'
p307
aS'http://www.espnscrum.com/argentina/rugby/player/8436.html'
p308
aS'http://www.espnscrum.com/argentina/rugby/player/8437.html'
p309
aS'http://www.espnscrum.com/argentina/rugby/player/8438.html'
p310
aS'http://www.espnscrum.com/argentina/rugby/player/8439.html'
p311
aS'http://www.espnscrum.com/argentina/rugby/player/8440.html'
p312
aS'http://www.espnscrum.com/argentina/rugby/player/8441.html'
p313
aS'http://www.espnscrum.com/argentina/rugby/player/8442.html'
p314
aS'http://www.espnscrum.com/argentina/rugby/player/8444.html'
p315
aS'http://www.espnscrum.com/argentina/rugby/player/8445.html'
p316
aS'http://www.espnscrum.com/argentina/rugby/player/8446.html'
p317
aS'http://www.espnscrum.com/argentina/rugby/player/8447.html'
p318
aS'http://www.espnscrum.com/argentina/rugby/player/8448.html'
p319
aS'http://www.espnscrum.com/argentina/rugby/player/8449.html'
p320
aS'http://www.espnscrum.com/argentina/rugby/player/8450.html'
p321
aS'http://www.espnscrum.com/argentina/rugby/player/8615.html'
p322
aS'http://www.espnscrum.com/argentina/rugby/player/8577.html'
p323
aS'http://www.espnscrum.com/argentina/rugby/player/8728.html'
p324
aS'http://www.espnscrum.com/argentina/rugby/player/8622.html'
p325
aS'http://www.espnscrum.com/argentina/rugby/player/8729.html'
p326
aS'http://www.espnscrum.com/argentina/rugby/player/8727.html'
p327
aS'http://www.espnscrum.com/argentina/rugby/player/8776.html'
p328
aS'http://www.espnscrum.com/argentina/rugby/player/8777.html'
p329
aS'http://www.espnscrum.com/argentina/rugby/player/8778.html'
p330
aS'http://www.espnscrum.com/argentina/rugby/player/8780.html'
p331
aS'http://www.espnscrum.com/argentina/rugby/player/8781.html'
p332
aS'http://www.espnscrum.com/argentina/rugby/player/8782.html'
p333
aS'http://www.espnscrum.com/argentina/rugby/player/8775.html'
p334
aS'http://www.espnscrum.com/argentina/rugby/player/8784.html'
p335
aS'http://www.espnscrum.com/argentina/rugby/player/8786.html'
p336
aS'http://www.espnscrum.com/argentina/rugby/player/8788.html'
p337
aS'http://www.espnscrum.com/argentina/rugby/player/8789.html'
p338
aS'http://www.espnscrum.com/argentina/rugby/player/8881.html'
p339
aS'http://www.espnscrum.com/argentina/rugby/player/8882.html'
p340
aS'http://www.espnscrum.com/argentina/rugby/player/8883.html'
p341
aS'http://www.espnscrum.com/argentina/rugby/player/8885.html'
p342
aS'http://www.espnscrum.com/argentina/rugby/player/8889.html'
p343
aS'http://www.espnscrum.com/argentina/rugby/player/8888.html'
p344
aS'http://www.espnscrum.com/argentina/rugby/player/8891.html'
p345
aS'http://www.espnscrum.com/argentina/rugby/player/9015.html'
p346
aS'http://www.espnscrum.com/argentina/rugby/player/9017.html'
p347
aS'http://www.espnscrum.com/argentina/rugby/player/8887.html'
p348
aS'http://www.espnscrum.com/argentina/rugby/player/9022.html'
p349
aS'http://www.espnscrum.com/argentina/rugby/player/9055.html'
p350
aS'http://www.espnscrum.com/argentina/rugby/player/9056.html'
p351
aS'http://www.espnscrum.com/argentina/rugby/player/9057.html'
p352
aS'http://www.espnscrum.com/argentina/rugby/player/9058.html'
p353
aS'http://www.espnscrum.com/argentina/rugby/player/9060.html'
p354
aS'http://www.espnscrum.com/argentina/rugby/player/9061.html'
p355
aS'http://www.espnscrum.com/argentina/rugby/player/9062.html'
p356
aS'http://www.espnscrum.com/argentina/rugby/player/9063.html'
p357
aS'http://www.espnscrum.com/argentina/rugby/player/9064.html'
p358
aS'http://www.espnscrum.com/argentina/rugby/player/9066.html'
p359
aS'http://www.espnscrum.com/argentina/rugby/player/9068.html'
p360
aS'http://www.espnscrum.com/argentina/rugby/player/9069.html'
p361
aS'http://www.espnscrum.com/argentina/rugby/player/8886.html'
p362
aS'http://www.espnscrum.com/argentina/rugby/player/9071.html'
p363
aS'http://www.espnscrum.com/argentina/rugby/player/9073.html'
p364
aS'http://www.espnscrum.com/argentina/rugby/player/9076.html'
p365
aS'http://www.espnscrum.com/argentina/rugby/player/9129.html'
p366
aS'http://www.espnscrum.com/argentina/rugby/player/9150.html'
p367
aS'http://www.espnscrum.com/argentina/rugby/player/9284.html'
p368
aS'http://www.espnscrum.com/argentina/rugby/player/9376.html'
p369
aS'http://www.espnscrum.com/argentina/rugby/player/9427.html'
p370
aS'http://www.espnscrum.com/argentina/rugby/player/9518.html'
p371
aS'http://www.espnscrum.com/argentina/rugby/player/9519.html'
p372
aS'http://www.espnscrum.com/argentina/rugby/player/9285.html'
p373
aS'http://www.espnscrum.com/argentina/rugby/player/9434.html'
p374
aS'http://www.espnscrum.com/argentina/rugby/player/9525.html'
p375
aS'http://www.espnscrum.com/argentina/rugby/player/9604.html'
p376
aS'http://www.espnscrum.com/argentina/rugby/player/9617.html'
p377
aS'http://www.espnscrum.com/argentina/rugby/player/9618.html'
p378
aS'http://www.espnscrum.com/argentina/rugby/player/9619.html'
p379
aS'http://www.espnscrum.com/argentina/rugby/player/9620.html'
p380
aS'http://www.espnscrum.com/argentina/rugby/player/9621.html'
p381
aS'http://www.espnscrum.com/argentina/rugby/player/9622.html'
p382
aS'http://www.espnscrum.com/argentina/rugby/player/9623.html'
p383
aS'http://www.espnscrum.com/argentina/rugby/player/9624.html'
p384
aS'http://www.espnscrum.com/argentina/rugby/player/9625.html'
p385
aS'http://www.espnscrum.com/argentina/rugby/player/9626.html'
p386
aS'http://www.espnscrum.com/argentina/rugby/player/9628.html'
p387
aS'http://www.espnscrum.com/argentina/rugby/player/9629.html'
p388
aS'http://www.espnscrum.com/argentina/rugby/player/9630.html'
p389
aS'http://www.espnscrum.com/argentina/rugby/player/9631.html'
p390
aS'http://www.espnscrum.com/argentina/rugby/player/9633.html'
p391
aS'http://www.espnscrum.com/argentina/rugby/player/9634.html'
p392
aS'http://www.espnscrum.com/argentina/rugby/player/9798.html'
p393
aS'http://www.espnscrum.com/argentina/rugby/player/9932.html'
p394
aS'http://www.espnscrum.com/argentina/rugby/player/9804.html'
p395
aS'http://www.espnscrum.com/argentina/rugby/player/9946.html'
p396
aS'http://www.espnscrum.com/argentina/rugby/player/9950.html'
p397
aS'http://www.espnscrum.com/argentina/rugby/player/9947.html'
p398
aS'http://www.espnscrum.com/argentina/rugby/player/9948.html'
p399
aS'http://www.espnscrum.com/argentina/rugby/player/9949.html'
p400
aS'http://www.espnscrum.com/argentina/rugby/player/9952.html'
p401
aS'http://www.espnscrum.com/argentina/rugby/player/9967.html'
p402
aS'http://www.espnscrum.com/argentina/rugby/player/9965.html'
p403
aS'http://www.espnscrum.com/argentina/rugby/player/10105.html'
p404
aS'http://www.espnscrum.com/argentina/rugby/player/10107.html'
p405
aS'http://www.espnscrum.com/argentina/rugby/player/10180.html'
p406
aS'http://www.espnscrum.com/argentina/rugby/player/10181.html'
p407
aS'http://www.espnscrum.com/argentina/rugby/player/10243.html'
p408
aS'http://www.espnscrum.com/argentina/rugby/player/10248.html'
p409
aS'http://www.espnscrum.com/argentina/rugby/player/10274.html'
p410
aS'http://www.espnscrum.com/argentina/rugby/player/10277.html'
p411
aS'http://www.espnscrum.com/argentina/rugby/player/10030.html'
p412
aS'http://www.espnscrum.com/argentina/rugby/player/10271.html'
p413
aS'http://www.espnscrum.com/argentina/rugby/player/10259.html'
p414
aS'http://www.espnscrum.com/argentina/rugby/player/10281.html'
p415
aS'http://www.espnscrum.com/argentina/rugby/player/10273.html'
p416
aS'http://www.espnscrum.com/argentina/rugby/player/10283.html'
p417
aS'http://www.espnscrum.com/argentina/rugby/player/10284.html'
p418
aS'http://www.espnscrum.com/argentina/rugby/player/10285.html'
p419
aS'http://www.espnscrum.com/argentina/rugby/player/10218.html'
p420
aS'http://www.espnscrum.com/argentina/rugby/player/10287.html'
p421
aS'http://www.espnscrum.com/argentina/rugby/player/10288.html'
p422
aS'http://www.espnscrum.com/argentina/rugby/player/10289.html'
p423
aS'http://www.espnscrum.com/argentina/rugby/player/10295.html'
p424
aS'http://www.espnscrum.com/argentina/rugby/player/10412.html'
p425
aS'http://www.espnscrum.com/argentina/rugby/player/10497.html'
p426
aS'http://www.espnscrum.com/argentina/rugby/player/10574.html'
p427
aS'http://www.espnscrum.com/argentina/rugby/player/10580.html'
p428
aS'http://www.espnscrum.com/argentina/rugby/player/10579.html'
p429
aS'http://www.espnscrum.com/argentina/rugby/player/10575.html'
p430
aS'http://www.espnscrum.com/argentina/rugby/player/10584.html'
p431
aS'http://www.espnscrum.com/argentina/rugby/player/10589.html'
p432
aS'http://www.espnscrum.com/argentina/rugby/player/10650.html'
p433
aS'http://www.espnscrum.com/argentina/rugby/player/10651.html'
p434
aS'http://www.espnscrum.com/argentina/rugby/player/10652.html'
p435
aS'http://www.espnscrum.com/argentina/rugby/player/10653.html'
p436
aS'http://www.espnscrum.com/argentina/rugby/player/10654.html'
p437
aS'http://www.espnscrum.com/argentina/rugby/player/10655.html'
p438
aS'http://www.espnscrum.com/argentina/rugby/player/10657.html'
p439
aS'http://www.espnscrum.com/argentina/rugby/player/10658.html'
p440
aS'http://www.espnscrum.com/argentina/rugby/player/10688.html'
p441
aS'http://www.espnscrum.com/argentina/rugby/player/10578.html'
p442
aS'http://www.espnscrum.com/argentina/rugby/player/10735.html'
p443
aS'http://www.espnscrum.com/argentina/rugby/player/10736.html'
p444
aS'http://www.espnscrum.com/argentina/rugby/player/10573.html'
p445
aS'http://www.espnscrum.com/argentina/rugby/player/10865.html'
p446
aS'http://www.espnscrum.com/argentina/rugby/player/10862.html'
p447
aS'http://www.espnscrum.com/argentina/rugby/player/10863.html'
p448
aS'http://www.espnscrum.com/argentina/rugby/player/10864.html'
p449
aS'http://www.espnscrum.com/argentina/rugby/player/10906.html'
p450
aS'http://www.espnscrum.com/argentina/rugby/player/10587.html'
p451
aS'http://www.espnscrum.com/argentina/rugby/player/10910.html'
p452
aS'http://www.espnscrum.com/argentina/rugby/player/10911.html'
p453
aS'http://www.espnscrum.com/argentina/rugby/player/10912.html'
p454
aS'http://www.espnscrum.com/argentina/rugby/player/10914.html'
p455
aS'http://www.espnscrum.com/argentina/rugby/player/10903.html'
p456
aS'http://www.espnscrum.com/argentina/rugby/player/10924.html'
p457
aS'http://www.espnscrum.com/argentina/rugby/player/10932.html'
p458
aS'http://www.espnscrum.com/argentina/rugby/player/11029.html'
p459
aS'http://www.espnscrum.com/argentina/rugby/player/11032.html'
p460
aS'http://www.espnscrum.com/argentina/rugby/player/11033.html'
p461
aS'http://www.espnscrum.com/argentina/rugby/player/11051.html'
p462
aS'http://www.espnscrum.com/argentina/rugby/player/11052.html'
p463
aS'http://www.espnscrum.com/argentina/rugby/player/11053.html'
p464
aS'http://www.espnscrum.com/argentina/rugby/player/10931.html'
p465
aS'http://www.espnscrum.com/argentina/rugby/player/11054.html'
p466
aS'http://www.espnscrum.com/argentina/rugby/player/11055.html'
p467
aS'http://www.espnscrum.com/argentina/rugby/player/11057.html'
p468
aS'http://www.espnscrum.com/argentina/rugby/player/11058.html'
p469
aS'http://www.espnscrum.com/argentina/rugby/player/11059.html'
p470
aS'http://www.espnscrum.com/argentina/rugby/player/11061.html'
p471
aS'http://www.espnscrum.com/argentina/rugby/player/11062.html'
p472
aS'http://www.espnscrum.com/argentina/rugby/player/10415.html'
p473
aS'http://www.espnscrum.com/argentina/rugby/player/11056.html'
p474
aS'http://www.espnscrum.com/argentina/rugby/player/11060.html'
p475
aS'http://www.espnscrum.com/argentina/rugby/player/11064.html'
p476
aS'http://www.espnscrum.com/argentina/rugby/player/11065.html'
p477
aS'http://www.espnscrum.com/argentina/rugby/player/11070.html'
p478
aS'http://www.espnscrum.com/argentina/rugby/player/11028.html'
p479
aS'http://www.espnscrum.com/argentina/rugby/player/11069.html'
p480
aS'http://www.espnscrum.com/argentina/rugby/player/11242.html'
p481
aS'http://www.espnscrum.com/argentina/rugby/player/11246.html'
p482
aS'http://www.espnscrum.com/argentina/rugby/player/11290.html'
p483
aS'http://www.espnscrum.com/argentina/rugby/player/11292.html'
p484
aS'http://www.espnscrum.com/argentina/rugby/player/11304.html'
p485
aS'http://www.espnscrum.com/argentina/rugby/player/11289.html'
p486
aS'http://www.espnscrum.com/argentina/rugby/player/11350.html'
p487
aS'http://www.espnscrum.com/argentina/rugby/player/11445.html'
p488
aS'http://www.espnscrum.com/argentina/rugby/player/11448.html'
p489
aS'http://www.espnscrum.com/argentina/rugby/player/11451.html'
p490
aS'http://www.espnscrum.com/argentina/rugby/player/11455.html'
p491
aS'http://www.espnscrum.com/argentina/rugby/player/11447.html'
p492
aS'http://www.espnscrum.com/argentina/rugby/player/11444.html'
p493
aS'http://www.espnscrum.com/argentina/rugby/player/11598.html'
p494
aS'http://www.espnscrum.com/argentina/rugby/player/11608.html'
p495
aS'http://www.espnscrum.com/argentina/rugby/player/11610.html'
p496
aS'http://www.espnscrum.com/argentina/rugby/player/11446.html'
p497
aS'http://www.espnscrum.com/argentina/rugby/player/11591.html'
p498
aS'http://www.espnscrum.com/argentina/rugby/player/11599.html'
p499
aS'http://www.espnscrum.com/argentina/rugby/player/11658.html'
p500
aS'http://www.espnscrum.com/argentina/rugby/player/11768.html'
p501
aS'http://www.espnscrum.com/argentina/rugby/player/11769.html'
p502
aS'http://www.espnscrum.com/argentina/rugby/player/11868.html'
p503
aS'http://www.espnscrum.com/argentina/rugby/player/11866.html'
p504
aS'http://www.espnscrum.com/argentina/rugby/player/11872.html'
p505
aS'http://www.espnscrum.com/argentina/rugby/player/11949.html'
p506
aS'http://www.espnscrum.com/argentina/rugby/player/11864.html'
p507
aS'http://www.espnscrum.com/argentina/rugby/player/11366.html'
p508
aS'http://www.espnscrum.com/argentina/rugby/player/11954.html'
p509
aS'http://www.espnscrum.com/argentina/rugby/player/11767.html'
p510
aS'http://www.espnscrum.com/argentina/rugby/player/12004.html'
p511
aS'http://www.espnscrum.com/argentina/rugby/player/12003.html'
p512
aS'http://www.espnscrum.com/argentina/rugby/player/12087.html'
p513
aS'http://www.espnscrum.com/argentina/rugby/player/12089.html'
p514
aS'http://www.espnscrum.com/argentina/rugby/player/12090.html'
p515
aS'http://www.espnscrum.com/argentina/rugby/player/12088.html'
p516
aS'http://www.espnscrum.com/argentina/rugby/player/12254.html'
p517
aS'http://www.espnscrum.com/argentina/rugby/player/11869.html'
p518
aS'http://www.espnscrum.com/argentina/rugby/player/12258.html'
p519
aS'http://www.espnscrum.com/argentina/rugby/player/12259.html'
p520
aS'http://www.espnscrum.com/argentina/rugby/player/12260.html'
p521
aS'http://www.espnscrum.com/argentina/rugby/player/12275.html'
p522
aS'http://www.espnscrum.com/argentina/rugby/player/12319.html'
p523
aS'http://www.espnscrum.com/argentina/rugby/player/12321.html'
p524
aS'http://www.espnscrum.com/argentina/rugby/player/12325.html'
p525
aS'http://www.espnscrum.com/argentina/rugby/player/12276.html'
p526
aS'http://www.espnscrum.com/argentina/rugby/player/12328.html'
p527
aS'http://www.espnscrum.com/argentina/rugby/player/12329.html'
p528
aS'http://www.espnscrum.com/argentina/rugby/player/12331.html'
p529
aS'http://www.espnscrum.com/argentina/rugby/player/12332.html'
p530
aS'http://www.espnscrum.com/argentina/rugby/player/12333.html'
p531
aS'http://www.espnscrum.com/argentina/rugby/player/11765.html'
p532
aS'http://www.espnscrum.com/argentina/rugby/player/12334.html'
p533
aS'http://www.espnscrum.com/argentina/rugby/player/12335.html'
p534
aS'http://www.espnscrum.com/argentina/rugby/player/12338.html'
p535
aS'http://www.espnscrum.com/argentina/rugby/player/12339.html'
p536
aS'http://www.espnscrum.com/argentina/rugby/player/12506.html'
p537
aS'http://www.espnscrum.com/argentina/rugby/player/12587.html'
p538
aS'http://www.espnscrum.com/argentina/rugby/player/12629.html'
p539
aS'http://www.espnscrum.com/argentina/rugby/player/12630.html'
p540
aS'http://www.espnscrum.com/argentina/rugby/player/12631.html'
p541
aS'http://www.espnscrum.com/argentina/rugby/player/12632.html'
p542
aS'http://www.espnscrum.com/argentina/rugby/player/12634.html'
p543
aS'http://www.espnscrum.com/argentina/rugby/player/12636.html'
p544
aS'http://www.espnscrum.com/argentina/rugby/player/12638.html'
p545
aS'http://www.espnscrum.com/argentina/rugby/player/12639.html'
p546
aS'http://www.espnscrum.com/argentina/rugby/player/12642.html'
p547
aS'http://www.espnscrum.com/argentina/rugby/player/12643.html'
p548
aS'http://www.espnscrum.com/argentina/rugby/player/12644.html'
p549
aS'http://www.espnscrum.com/argentina/rugby/player/12633.html'
p550
aS'http://www.espnscrum.com/argentina/rugby/player/12635.html'
p551
aS'http://www.espnscrum.com/argentina/rugby/player/12637.html'
p552
aS'http://www.espnscrum.com/argentina/rugby/player/12648.html'
p553
aS'http://www.espnscrum.com/argentina/rugby/player/12649.html'
p554
aS'http://www.espnscrum.com/argentina/rugby/player/12651.html'
p555
aS'http://www.espnscrum.com/argentina/rugby/player/12645.html'
p556
aS'http://www.espnscrum.com/argentina/rugby/player/12647.html'
p557
aS'http://www.espnscrum.com/argentina/rugby/player/12655.html'
p558
aS'http://www.espnscrum.com/argentina/rugby/player/12659.html'
p559
aS'http://www.espnscrum.com/argentina/rugby/player/12661.html'
p560
aS'http://www.espnscrum.com/argentina/rugby/player/12662.html'
p561
aS'http://www.espnscrum.com/argentina/rugby/player/12641.html'
p562
aS'http://www.espnscrum.com/argentina/rugby/player/12660.html'
p563
aS'http://www.espnscrum.com/argentina/rugby/player/12940.html'
p564
aS'http://www.espnscrum.com/argentina/rugby/player/12941.html'
p565
aS'http://www.espnscrum.com/argentina/rugby/player/12962.html'
p566
aS'http://www.espnscrum.com/argentina/rugby/player/12963.html'
p567
aS'http://www.espnscrum.com/argentina/rugby/player/12964.html'
p568
aS'http://www.espnscrum.com/argentina/rugby/player/12965.html'
p569
aS'http://www.espnscrum.com/argentina/rugby/player/12968.html'
p570
aS'http://www.espnscrum.com/argentina/rugby/player/12970.html'
p571
aS'http://www.espnscrum.com/argentina/rugby/player/12971.html'
p572
aS'http://www.espnscrum.com/argentina/rugby/player/12973.html'
p573
aS'http://www.espnscrum.com/argentina/rugby/player/12966.html'
p574
aS'http://www.espnscrum.com/argentina/rugby/player/12967.html'
p575
aS'http://www.espnscrum.com/argentina/rugby/player/13003.html'
p576
aS'http://www.espnscrum.com/argentina/rugby/player/13004.html'
p577
aS'http://www.espnscrum.com/argentina/rugby/player/13005.html'
p578
aS'http://www.espnscrum.com/argentina/rugby/player/13007.html'
p579
aS'http://www.espnscrum.com/argentina/rugby/player/12999.html'
p580
aS'http://www.espnscrum.com/argentina/rugby/player/13000.html'
p581
aS'http://www.espnscrum.com/argentina/rugby/player/13002.html'
p582
aS'http://www.espnscrum.com/argentina/rugby/player/13006.html'
p583
aS'http://www.espnscrum.com/argentina/rugby/player/13008.html'
p584
aS'http://www.espnscrum.com/argentina/rugby/player/13009.html'
p585
aS'http://www.espnscrum.com/argentina/rugby/player/13010.html'
p586
aS'http://www.espnscrum.com/argentina/rugby/player/13011.html'
p587
aS'http://www.espnscrum.com/argentina/rugby/player/13012.html'
p588
aS'http://www.espnscrum.com/argentina/rugby/player/13013.html'
p589
aS'http://www.espnscrum.com/argentina/rugby/player/13015.html'
p590
aS'http://www.espnscrum.com/argentina/rugby/player/13163.html'
p591
aS'http://www.espnscrum.com/argentina/rugby/player/13164.html'
p592
aS'http://www.espnscrum.com/argentina/rugby/player/12671.html'
p593
aS'http://www.espnscrum.com/argentina/rugby/player/13442.html'
p594
aS'http://www.espnscrum.com/argentina/rugby/player/13616.html'
p595
aS'http://www.espnscrum.com/argentina/rugby/player/13618.html'
p596
aS'http://www.espnscrum.com/argentina/rugby/player/13621.html'
p597
aS'http://www.espnscrum.com/argentina/rugby/player/13454.html'
p598
aS'http://www.espnscrum.com/argentina/rugby/player/13622.html'
p599
aS'http://www.espnscrum.com/argentina/rugby/player/13625.html'
p600
aS'http://www.espnscrum.com/argentina/rugby/player/13613.html'
p601
aS'http://www.espnscrum.com/argentina/rugby/player/13620.html'
p602
aS'http://www.espnscrum.com/argentina/rugby/player/13623.html'
p603
aS'http://www.espnscrum.com/argentina/rugby/player/13628.html'
p604
aS'http://www.espnscrum.com/argentina/rugby/player/13615.html'
p605
aS'http://www.espnscrum.com/argentina/rugby/player/13892.html'
p606
aS'http://www.espnscrum.com/argentina/rugby/player/13893.html'
p607
aS'http://www.espnscrum.com/argentina/rugby/player/13889.html'
p608
aS'http://www.espnscrum.com/argentina/rugby/player/13891.html'
p609
aS'http://www.espnscrum.com/argentina/rugby/player/13896.html'
p610
aS'http://www.espnscrum.com/argentina/rugby/player/14158.html'
p611
aS'http://www.espnscrum.com/argentina/rugby/player/14159.html'
p612
aS'http://www.espnscrum.com/argentina/rugby/player/14160.html'
p613
aS'http://www.espnscrum.com/argentina/rugby/player/14165.html'
p614
aS'http://www.espnscrum.com/argentina/rugby/player/14166.html'
p615
aS'http://www.espnscrum.com/argentina/rugby/player/14167.html'
p616
aS'http://www.espnscrum.com/argentina/rugby/player/14170.html'
p617
aS'http://www.espnscrum.com/argentina/rugby/player/14173.html'
p618
aS'http://www.espnscrum.com/argentina/rugby/player/14172.html'
p619
aS'http://www.espnscrum.com/argentina/rugby/player/14162.html'
p620
aS'http://www.espnscrum.com/argentina/rugby/player/14175.html'
p621
aS'http://www.espnscrum.com/argentina/rugby/player/14176.html'
p622
aS'http://www.espnscrum.com/argentina/rugby/player/14314.html'
p623
aS'http://www.espnscrum.com/argentina/rugby/player/14431.html'
p624
aS'http://www.espnscrum.com/argentina/rugby/player/14421.html'
p625
aS'http://www.espnscrum.com/argentina/rugby/player/14429.html'
p626
aS'http://www.espnscrum.com/argentina/rugby/player/14424.html'
p627
aS'http://www.espnscrum.com/argentina/rugby/player/14427.html'
p628
aS'http://www.espnscrum.com/argentina/rugby/player/14436.html'
p629
aS'http://www.espnscrum.com/argentina/rugby/player/14418.html'
p630
aS'http://www.espnscrum.com/argentina/rugby/player/14439.html'
p631
aS'http://www.espnscrum.com/argentina/rugby/player/14440.html'
p632
aS'http://www.espnscrum.com/argentina/rugby/player/14430.html'
p633
aS'http://www.espnscrum.com/argentina/rugby/player/14441.html'
p634
aS'http://www.espnscrum.com/argentina/rugby/player/14567.html'
p635
aS'http://www.espnscrum.com/argentina/rugby/player/14690.html'
p636
aS'http://www.espnscrum.com/argentina/rugby/player/14687.html'
p637
aS'http://www.espnscrum.com/argentina/rugby/player/14677.html'
p638
aS'http://www.espnscrum.com/argentina/rugby/player/14692.html'
p639
aS'http://www.espnscrum.com/argentina/rugby/player/14693.html'
p640
aS'http://www.espnscrum.com/argentina/rugby/player/14694.html'
p641
aS'http://www.espnscrum.com/argentina/rugby/player/14691.html'
p642
aS'http://www.espnscrum.com/argentina/rugby/player/14801.html'
p643
aS'http://www.espnscrum.com/argentina/rugby/player/14800.html'
p644
aS'http://www.espnscrum.com/argentina/rugby/player/15096.html'
p645
aS'http://www.espnscrum.com/argentina/rugby/player/14946.html'
p646
aS'http://www.espnscrum.com/argentina/rugby/player/14950.html'
p647
aS'http://www.espnscrum.com/argentina/rugby/player/15099.html'
p648
aS'http://www.espnscrum.com/argentina/rugby/player/15098.html'
p649
aS'http://www.espnscrum.com/argentina/rugby/player/14955.html'
p650
aS'http://www.espnscrum.com/argentina/rugby/player/15102.html'
p651
aS'http://www.espnscrum.com/argentina/rugby/player/14949.html'
p652
aS'http://www.espnscrum.com/argentina/rugby/player/15284.html'
p653
aS'http://www.espnscrum.com/argentina/rugby/player/15319.html'
p654
aS'http://www.espnscrum.com/argentina/rugby/player/15316.html'
p655
aS'http://www.espnscrum.com/argentina/rugby/player/15313.html'
p656
aS'http://www.espnscrum.com/argentina/rugby/player/14951.html'
p657
aS'http://www.espnscrum.com/argentina/rugby/player/15097.html'
p658
aS'http://www.espnscrum.com/argentina/rugby/player/15785.html'
p659
aS'http://www.espnscrum.com/argentina/rugby/player/15685.html'
p660
aS'http://www.espnscrum.com/argentina/rugby/player/15686.html'
p661
aS'http://www.espnscrum.com/argentina/rugby/player/15687.html'
p662
aS'http://www.espnscrum.com/argentina/rugby/player/15787.html'
p663
aS'http://www.espnscrum.com/argentina/rugby/player/15317.html'
p664
aS'http://www.espnscrum.com/argentina/rugby/player/15793.html'
p665
aS'http://www.espnscrum.com/argentina/rugby/player/15794.html'
p666
aS'http://www.espnscrum.com/argentina/rugby/player/15795.html'
p667
aS'http://www.espnscrum.com/argentina/rugby/player/15625.html'
p668
aS'http://www.espnscrum.com/argentina/rugby/player/15798.html'
p669
aS'http://www.espnscrum.com/argentina/rugby/player/15786.html'
p670
aS'http://www.espnscrum.com/argentina/rugby/player/15788.html'
p671
aS'http://www.espnscrum.com/argentina/rugby/player/15789.html'
p672
aS'http://www.espnscrum.com/argentina/rugby/player/15790.html'
p673
aS'http://www.espnscrum.com/argentina/rugby/player/97871.html'
p674
aS'http://www.espnscrum.com/argentina/rugby/player/15796.html'
p675
aS'http://www.espnscrum.com/argentina/rugby/player/15797.html'
p676
aS'http://www.espnscrum.com/argentina/rugby/player/15879.html'
p677
aS'http://www.espnscrum.com/argentina/rugby/player/15880.html'
p678
aS'http://www.espnscrum.com/argentina/rugby/player/15693.html'
p679
aS'http://www.espnscrum.com/argentina/rugby/player/15882.html'
p680
aS'http://www.espnscrum.com/argentina/rugby/player/15315.html'
p681
aS'http://www.espnscrum.com/argentina/rugby/player/15702.html'
p682
aS'http://www.espnscrum.com/argentina/rugby/player/15884.html'
p683
aS'http://www.espnscrum.com/argentina/rugby/player/15885.html'
p684
aS'http://www.espnscrum.com/argentina/rugby/player/15886.html'
p685
aS'http://www.espnscrum.com/argentina/rugby/player/15881.html'
p686
aS'http://www.espnscrum.com/argentina/rugby/player/15883.html'
p687
aS'http://www.espnscrum.com/argentina/rugby/player/15707.html'
p688
aS'http://www.espnscrum.com/argentina/rugby/player/15934.html'
p689
aS'http://www.espnscrum.com/argentina/rugby/player/16064.html'
p690
aS'http://www.espnscrum.com/argentina/rugby/player/15907.html'
p691
aS'http://www.espnscrum.com/argentina/rugby/player/98424.html'
p692
aS'http://www.espnscrum.com/argentina/rugby/player/15684.html'
p693
aS'http://www.espnscrum.com/argentina/rugby/player/98425.html'
p694
aS'http://www.espnscrum.com/argentina/rugby/player/98427.html'
p695
aS'http://www.espnscrum.com/argentina/rugby/player/98428.html'
p696
aS'http://www.espnscrum.com/argentina/rugby/player/98423.html'
p697
aS'http://www.espnscrum.com/argentina/rugby/player/97045.html'
p698
aS'http://www.espnscrum.com/argentina/rugby/player/98426.html'
p699
aS'http://www.espnscrum.com/argentina/rugby/player/97061.html'
p700
aS'http://www.espnscrum.com/argentina/rugby/player/85498.html'
p701
aS'http://www.espnscrum.com/argentina/rugby/player/15701.html'
p702
aS'http://www.espnscrum.com/argentina/rugby/player/85486.html'
p703
aS'http://www.espnscrum.com/argentina/rugby/player/97038.html'
p704
aS'http://www.espnscrum.com/argentina/rugby/player/97039.html'
p705
aS'http://www.espnscrum.com/argentina/rugby/player/97040.html'
p706
aS'http://www.espnscrum.com/argentina/rugby/player/97043.html'
p707
aS'http://www.espnscrum.com/argentina/rugby/player/97044.html'
p708
aS'http://www.espnscrum.com/argentina/rugby/player/97046.html'
p709
aS'http://www.espnscrum.com/argentina/rugby/player/97048.html'
p710
aS'http://www.espnscrum.com/argentina/rugby/player/97050.html'
p711
aS'http://www.espnscrum.com/argentina/rugby/player/97052.html'
p712
aS'http://www.espnscrum.com/argentina/rugby/player/97053.html'
p713
aS'http://www.espnscrum.com/argentina/rugby/player/97054.html'
p714
aS'http://www.espnscrum.com/argentina/rugby/player/97041.html'
p715
aS'http://www.espnscrum.com/argentina/rugby/player/97042.html'
p716
aS'http://www.espnscrum.com/argentina/rugby/player/97047.html'
p717
aS'http://www.espnscrum.com/argentina/rugby/player/97049.html'
p718
aS'http://www.espnscrum.com/argentina/rugby/player/97051.html'
p719
aS'http://www.espnscrum.com/argentina/rugby/player/105739.html'
p720
aS'http://www.espnscrum.com/argentina/rugby/player/106160.html'
p721
aS'http://www.espnscrum.com/argentina/rugby/player/141086.html'
p722
aS'http://www.espnscrum.com/argentina/rugby/player/27620.html'
p723
aS'http://www.espnscrum.com/argentina/rugby/player/141016.html'
p724
aS'http://www.espnscrum.com/argentina/rugby/player/141084.html'
p725
aS'http://www.espnscrum.com/argentina/rugby/player/141085.html'
p726
aS'http://www.espnscrum.com/argentina/rugby/player/141087.html'
p727
aS'http://www.espnscrum.com/argentina/rugby/player/141088.html'
p728
aS'http://www.espnscrum.com/argentina/rugby/player/141012.html'
p729
aS'http://www.espnscrum.com/argentina/rugby/player/141089.html'
p730
aS'http://www.espnscrum.com/argentina/rugby/player/88602.html'
p731
aS'http://www.espnscrum.com/argentina/rugby/player/117908.html'
p732
aS'http://www.espnscrum.com/argentina/rugby/player/88601.html'
p733
aS'http://www.espnscrum.com/argentina/rugby/player/129688.html'
p734
aS'http://www.espnscrum.com/argentina/rugby/player/141013.html'
p735
aS'http://www.espnscrum.com/argentina/rugby/player/15692.html'
p736
aS'http://www.espnscrum.com/argentina/rugby/player/116822.html'
p737
aS'http://www.espnscrum.com/argentina/rugby/player/141019.html'
p738
aS'http://www.espnscrum.com/argentina/rugby/player/141020.html'
p739
aS'http://www.espnscrum.com/argentina/rugby/player/141021.html'
p740
aS'http://www.espnscrum.com/argentina/rugby/player/141011.html'
p741
aS'http://www.espnscrum.com/argentina/rugby/player/141014.html'
p742
aS'http://www.espnscrum.com/argentina/rugby/player/141015.html'
p743
aS'http://www.espnscrum.com/argentina/rugby/player/141017.html'
p744
aS'http://www.espnscrum.com/argentina/rugby/player/141018.html'
p745
aS'http://www.espnscrum.com/argentina/rugby/player/116809.html'
p746
aS'http://www.espnscrum.com/argentina/rugby/player/141090.html'
p747
aS'http://www.espnscrum.com/argentina/rugby/player/141091.html'
p748
aS'http://www.espnscrum.com/argentina/rugby/player/116825.html'
p749
aS'http://www.espnscrum.com/argentina/rugby/player/15792.html'
p750
aS'http://www.espnscrum.com/argentina/rugby/player/89965.html'
p751
aS'http://www.espnscrum.com/argentina/rugby/player/164377.html'
p752
aS'http://www.espnscrum.com/argentina/rugby/player/164381.html'
p753
aS'http://www.espnscrum.com/argentina/rugby/player/164384.html'
p754
aS'http://www.espnscrum.com/argentina/rugby/player/116813.html'
p755
aS'http://www.espnscrum.com/argentina/rugby/player/164387.html'
p756
aS'http://www.espnscrum.com/argentina/rugby/player/164388.html'
p757
aS'http://www.espnscrum.com/argentina/rugby/player/164389.html'
p758
aS'http://www.espnscrum.com/argentina/rugby/player/164391.html'
p759
aS'http://www.espnscrum.com/argentina/rugby/player/88166.html'
p760
aS'http://www.espnscrum.com/argentina/rugby/player/164378.html'
p761
aS'http://www.espnscrum.com/argentina/rugby/player/164380.html'
p762
aS'http://www.espnscrum.com/argentina/rugby/player/164383.html'
p763
aS'http://www.espnscrum.com/argentina/rugby/player/164390.html'
p764
aS'http://www.espnscrum.com/argentina/rugby/player/164392.html'
p765
aS'http://www.espnscrum.com/argentina/rugby/player/141705.html'
p766
aS'http://www.espnscrum.com/argentina/rugby/player/164507.html'
p767
aS'http://www.espnscrum.com/argentina/rugby/player/141716.html'
p768
aS'http://www.espnscrum.com/argentina/rugby/player/121340.html'
p769
aS'http://www.espnscrum.com/argentina/rugby/player/171102.html'
p770
aS'http://www.espnscrum.com/argentina/rugby/player/142734.html'
p771
aS'http://www.espnscrum.com/argentina/rugby/player/181483.html'
p772
aS'http://www.espnscrum.com/argentina/rugby/player/181484.html'
p773
aS'http://www.espnscrum.com/argentina/rugby/player/181492.html'
p774
aS'http://www.espnscrum.com/argentina/rugby/player/116810.html'
p775
aS'http://www.espnscrum.com/argentina/rugby/player/181504.html'
p776
aS'http://www.espnscrum.com/argentina/rugby/player/185045.html'
p777
aS'http://www.espnscrum.com/argentina/rugby/player/141712.html'
p778
aS'http://www.espnscrum.com/argentina/rugby/player/181512.html'
p779
aS'http://www.espnscrum.com/argentina/rugby/player/181908.html'
p780
aS'http://www.espnscrum.com/argentina/rugby/player/181518.html'
p781
aS'http://www.espnscrum.com/argentina/rugby/player/181520.html'
p782
aS'http://www.espnscrum.com/argentina/rugby/player/181521.html'
p783
aS'http://www.espnscrum.com/argentina/rugby/player/181480.html'
p784
aS'http://www.espnscrum.com/argentina/rugby/player/181482.html'
p785
aS'http://www.espnscrum.com/argentina/rugby/player/116819.html'
p786
aS'http://www.espnscrum.com/argentina/rugby/player/181498.html'
p787
aS'http://www.espnscrum.com/argentina/rugby/player/181501.html'
p788
aS'http://www.espnscrum.com/argentina/rugby/player/181502.html'
p789
aS'http://www.espnscrum.com/argentina/rugby/player/181495.html'
p790
aS'http://www.espnscrum.com/argentina/rugby/player/181497.html'
p791
aS'http://www.espnscrum.com/argentina/rugby/player/181912.html'
p792
aS'http://www.espnscrum.com/argentina/rugby/player/181515.html'
p793
aS'http://www.espnscrum.com/argentina/rugby/player/181917.html'
p794
aS'http://www.espnscrum.com/argentina/rugby/player/181911.html'
p795
aS'http://www.espnscrum.com/argentina/rugby/player/165094.html'
p796
aS'http://www.espnscrum.com/argentina/rugby/player/141704.html'
p797
aS'http://www.espnscrum.com/argentina/rugby/player/117081.html'
p798
aS'http://www.espnscrum.com/argentina/rugby/player/165499.html'
p799
aS'http://www.espnscrum.com/argentina/rugby/player/226029.html'
p800
aS'http://www.espnscrum.com/argentina/rugby/player/116827.html'
p801
aS'http://www.espnscrum.com/argentina/rugby/player/226025.html'
p802
aS'http://www.espnscrum.com/argentina/rugby/player/226027.html'
p803
aS'http://www.espnscrum.com/argentina/rugby/player/227103.html'
p804
aS'http://www.espnscrum.com/argentina/rugby/player/172466.html'
p805
aS'http://www.espnscrum.com/argentina/rugby/player/230393.html'
p806
aS'http://www.espnscrum.com/argentina/rugby/player/165105.html'
p807
aS'http://www.espnscrum.com/argentina/rugby/player/229757.html'
p808
aS'http://www.espnscrum.com/argentina/rugby/player/185539.html'
p809
aS'http://www.espnscrum.com/argentina/rugby/player/185541.html'
p810
aS'http://www.espnscrum.com/argentina/rugby/player/264379.html'
p811
aS'http://www.espnscrum.com/argentina/rugby/player/264383.html'
p812
aS'http://www.espnscrum.com/argentina/rugby/player/264385.html'
p813
aS'http://www.espnscrum.com/argentina/rugby/player/264777.html'
p814
aS'http://www.espnscrum.com/argentina/rugby/player/264787.html'
p815
a.