(lp1
V
aV
aV
aV
aV
aV
aV
aV
aV
aV
aV
aV
aV
aV
aV
aV
aV
aV
aVWing
p2
aV
aV
aV
aV
aV
aV
aV
aV
aV
aV
aV
aV
aV
aV
aV
aV
aV
aV
aV
aV
aV
aV
aV
aV
aV
aV
aV
aV
aV
aV
aVFlanker
p3
aV
aV
aV
aV
aV
aV
aV
aV
aV
aV
aVProp
p4
aV
aV
aV
aV
aV
aVCentre
p5
aV
aVCentre
p6
aV
aV
aV
aV
aV
aVScrum-half
p7
aVWing
p8
aV
aV
aV
aV
aV
aV
aV
aV
aV
aV
aV
aVLock
p9
aVFullback
p10
aV
aV
aVFly-half
p11
aVLock
p12
aVProp
p13
aV
aV
aV
aVHooker
p14
aV
aVFullback
p15
aVCentre
p16
aVWing
p17
aVFly-half
p18
aV
aV
aV
aV
aV
aVCentre
p19
aV
aV
aVWing
p20
aV
aV
aV
aV
aV
aVFly-half
p21
aV
aV
aV
aVCentre
p22
aVNo. 8
p23
aV
aV
aV
aVFullback
p24
aV
aV
aVCentre
p25
aV
aVProp
p26
aV
aVFlanker
p27
aVProp
p28
aV
aV
aV
aVLock
p29
aVHooker
p30
aVScrum-half
p31
aVCentre
p32
aV
aVWing
p33
aVNo. 8
p34
aVCentre
p35
aVFullback
p36
aVFlanker
p37
aVCentre
p38
aVHooker
p39
aVWing
p40
aVFly-half
p41
aVFly-half
p42
aVProp
p43
aVFlanker
p44
aVCentre
p45
aVCentre
p46
aV
aVWing
p47
aVLock
p48
aVHooker
p49
aVCentre
p50
aVLock
p51
aV
aVCentre
p52
aVCentre
p53
aVCentre
p54
aVWing
p55
aVLock
p56
aVProp
p57
aVFullback
p58
aVProp
p59
aVLock
p60
aVHooker
p61
aVScrum-half
p62
aVFlanker
p63
aV
aV
aVFlanker
p64
aVCentre
p65
aVNo. 8
p66
aVFlanker
p67
aVFly-half
p68
aVProp
p69
aVFullback
p70
aVLock
p71
aVFlanker
p72
aVHooker
p73
aVLock
p74
aVLock
p75
aVScrum-half
p76
aVProp
p77
aVProp
p78
aVLock
p79
aVWing
p80
aVHooker
p81
aVCentre
p82
aVScrum-half
p83
aVFly-half
p84
aVProp
p85
aVFullback
p86
aVBack-row
p87
aVWing, Centre
p88
aVProp
p89
aVCentre
p90
aVFlanker
p91
aVNo. 8
p92
aVWing
p93
aVLock
p94
aV
aVProp
p95
aVWing
p96
aVFlanker
p97
aVLock
p98
aVHooker
p99
aVScrum-half
p100
aVWing
p101
aV
aVLock
p102
aVWing
p103
aVProp
p104
aVLock
p105
aV
aVWing
p106
aV
aVWing
p107
aVScrum-half
p108
aVLock
p109
aVProp
p110
aVWing
p111
aVNo. 8
p112
aVProp
p113
aVProp
p114
aVScrum-half
p115
aVFlanker
p116
aVProp
p117
aVCentre
p118
aVLock
p119
aVCentre
p120
aVBack-row
p121
aVCentre
p122
aVFullback
p123
aVHooker
p124
aVProp
p125
aVCentre
p126
aVNo. 8
p127
aVFly-half
p128
aVLock
p129
aVLock
p130
aVHooker, Prop
p131
aV
aV
aVCentre
p132
aVWing
p133
aVBack-row
p134
aVHooker
p135
aVProp
p136
aVScrum-half, Fly-half
p137
aVFlanker
p138
aVCentre
p139
aVProp
p140
aVWing
p141
aVCentre
p142
aVBack-row
p143
aVWing
p144
aVScrum-half
p145
aVProp
p146
aVFly-half
p147
aVProp
p148
aVWing
p149
aVLock
p150
aVNo. 8
p151
aVProp
p152
aVFlanker
p153
aVCentre, Flanker
p154
aVFullback, Scrum-half
p155
aVFlanker
p156
aVWing, Centre
p157
aVCentre
p158
aVScrum-half
p159
aVFullback, Wing
p160
aVHooker
p161
aVScrum-half
p162
aVLock
p163
aVProp
p164
aVFlanker, Lock
p165
aVFlanker
p166
aVCentre, Scrum-half
p167
aVFly-half
p168
aVHooker
p169
aVLock
p170
aVFlanker, Wing
p171
aVFlanker
p172
aVFullback
p173
aVWing
p174
aVProp
p175
aVHooker
p176
aVCentre
p177
aVHooker
p178
aVFullback, Wing
p179
aVFlanker
p180
aVNo. 8
p181
aVLock
p182
aVBack-row
p183
aVProp
p184
aVBack-row
p185
aVLock
p186
aVProp
p187
aVFullback, Wing
p188
aVFlanker
p189
aVWing
p190
aVLock
p191
aVFlanker
p192
aVScrum-half
p193
aVWing
p194
aVCentre
p195
aVProp
p196
aVScrum-half
p197
aVFlanker
p198
aVWing
p199
aVProp
p200
aVCentre, Fly-half
p201
aVFly-half, Centre
p202
aVHooker, Back-row
p203
aVFlanker
p204
aVLock
p205
aVBack-row
p206
aVLock, Flanker
p207
aVWing
p208
aVWing, Centre
p209
aVFlanker
p210
aVWing
p211
aVCentre
p212
aVHooker
p213
aVProp
p214
aVProp
p215
aVLock, Back-row
p216
aVFly-half
p217
aVCentre
p218
aVHooker, Prop
p219
aVFlanker
p220
aVCentre
p221
aVLock
p222
aVWing
p223
aVWing
p224
aVCentre
p225
aVFlanker
p226
aVBack-row, Lock
p227
aVProp
p228
aVFly-half
p229
aVProp
p230
aVCentre
p231
aVWing
p232
aVLock, Back-row
p233
aVProp
p234
aVFlanker
p235
aVCentre
p236
aVLock
p237
aVLock
p238
aVCentre
p239
aVLock
p240
aVFlanker
p241
aVWing, Centre
p242
aVFly-half
p243
aVFlanker
p244
aVCentre, Fullback
p245
aVWing
p246
aVProp
p247
aVWing
p248
aVProp
p249
aVFlanker
p250
aVScrum-half
p251
aVProp
p252
aVProp
p253
aVBack-row
p254
aVCentre
p255
aVScrum-half
p256
aVProp
p257
aVLock
p258
aVFlanker
p259
aVCentre
p260
aVHooker
p261
aVFlanker
p262
aVWing
p263
aVFly-half, Centre
p264
aVLock
p265
aVScrum-half
p266
aVLock
p267
aVCentre
p268
aVLock
p269
aVFlanker
p270
aVWing
p271
aVHooker
p272
aVFullback
p273
aVFly-half, Fullback
p274
aVCentre
p275
aVFly-half
p276
aVLock
p277
aVCentre
p278
aVLock
p279
aVProp
p280
aVHooker
p281
aVFlanker
p282
aVProp
p283
aVScrum-half
p284
aVFullback, Wing
p285
aVFlanker
p286
a.