(lp1
Vdate unknown
p2
aVdate unknown
p3
aVdate unknown
p4
aVdate unknown
p5
aVcirca 1911, Firenze
p6
aVDecember 14, 1904, Gemonio, VA
p7
aVdate unknown
p8
aVdate unknown
p9
aVdate unknown
p10
aVdate unknown
p11
aVcirca 1907
p12
aVdate unknown
p13
aVFebruary 6, 1908, New York, NY, United States
p14
aVMay 2, 1910, New York, NY, United States
p15
aVNovember 25, 1912, Briey
p16
aVAugust 6, 1898, Roma
p17
aVdate unknown
p18
aVJanuary 15, 1900, Santo Domingo, Dominican
p19
aVcirca 1910
p20
aVcirca 1905
p21
aVFebruary 4, 1902, Milano
p22
aVdate unknown
p23
aVOctober 25, 1895
p24
aVdate unknown
p25
aVcirca 1909
p26
aVDecember 26, 1912, Genova
p27
aVMarch 26, 1908, Gaggiano, MI
p28
aVOctober 8, 1905, Milano
p29
aVcirca 1906
p30
aVcirca 1908
p31
aVJanuary 10, 1908, Milano
p32
aVSeptember 15, 1912, Milano
p33
aVJune 23, 1911, Napoli
p34
aVMarch 24, 1909, Bologna
p35
aVcirca 1908
p36
aVJuly 6, 1910, Budrio, BO
p37
aVSeptember 8, 1910, Milano
p38
aVdate unknown
p39
aVMay 26, 1911, Novi Piemonte
p40
aVFebruary 21, 1909, Stradella, PV
p41
aVcirca 1910
p42
aVDecember 26, 1913, Lecce
p43
aVJune 10, 1912, Turin
p44
aVcirca 1912
p45
aVMarch 19, 1909, Milano
p46
aVdate unknown
p47
aVApril 23, 1912, Padova
p48
aVdate unknown
p49
aVApril 16, 1910, Sreadella, PV
p50
aVdate unknown
p51
aVdate unknown
p52
aVdate unknown
p53
aVApril 24, 1912, Turin
p54
aVdate unknown
p55
aVJanuary 25, 1909, Foligno, PG
p56
aVDecember 11, 1913, Milano
p57
aVdate unknown
p58
aVdate unknown
p59
aVdate unknown
p60
aVdate unknown
p61
aVJuly 30, 1911, Bobbio, PC
p62
aVJuly 26, 1909, Torino
p63
aVMarch 10, 1915, Trieste
p64
aVdate unknown
p65
aVdate unknown
p66
aVdate unknown
p67
aVMarch 5, 1909, Milano
p68
aVJuly 15, 1912, Berceto, PR
p69
aVOctober 17, 1914, Milano
p70
aVdate unknown
p71
aVdate unknown
p72
aVAugust 27, 1914, Vicolungo, NO
p73
aVJanuary 29, 1917, Mantova
p74
aVFebruary 13, 1910, Zara
p75
aVMarch 15, 1915, Roma
p76
aVOctober 20, 1919, Rovigo
p77
aVSeptember 20, 1918, Lonate Pozzolo
p78
aVAugust 21, 1918, Tripoli
p79
aVApril 30, 1917, Milano
p80
aVdate unknown
p81
aVdate unknown
p82
aVdate unknown
p83
aVdate unknown
p84
aVdate unknown
p85
aVOctober 20, 1917, Venezia
p86
aVNovember 16, 1913, Scandiano, RE
p87
aVOctober 20, 1922, Bergamo
p88
aVMarch 14, 1912, Rovigo
p89
aVdate unknown, Canale di Villadose,
p90
aVApril 15, 1927, Milano
p91
aVdate unknown
p92
aVcirca 1917
p93
aVAugust 12, 1925, Sorbolo, PR
p94
aVFebruary 18, 1924, Nereto, TE
p95
aVdate unknown
p96
aVApril 20, 1924, Roma
p97
aVMarch 20, 1925, Roma
p98
aVJanuary 6, 1919, Piove di Sacco
p99
aVdate unknown
p100
aVFebruary 10, 1919, Vicenza
p101
aVAugust 13, 1924, Roma
p102
aVdate unknown
p103
aVdate unknown
p104
aVJune 28, 1924, Roma
p105
aVNovember 1, 1924, Parma
p106
aVdate unknown
p107
aVJanuary 6, 1923, Roma
p108
aVAugust 29, 1923, Parma
p109
aVdate unknown
p110
aVdate unknown
p111
aVSeptember 27, 1925, Parma
p112
aVJuly 29, 1923, Roma
p113
aVSeptember 6, 1915, Roma
p114
aVDecember 1, 1920, Lendinara, RO
p115
aVFebruary 16, 1923, Soresina, CR
p116
aVFebruary 2, 1923, Roma
p117
aVAugust 22, 1922, Parma
p118
aVJuly 29, 1916, Padova
p119
aVNovember 2, 1922, Rovigo
p120
aVApril 7, 1928, Roma
p121
aVNovember 20, 1924, L'Aquila
p122
aVDecember 5, 1929, Roma
p123
aVDecember 19, 1928, Alfonsine, RO
p124
aVOctober 1, 1927, Parma
p125
aVMay 1, 1922, Rovigo
p126
aVJanuary 25, 1925, Roma
p127
aVJune 20, 1928, Parma
p128
aVMarch 13, 1929, Milano
p129
aVFebruary 9, 1929, Milano
p130
aVApril 10, 1924, Macerata
p131
aVDecember 14, 1924, Goito, MN
p132
aVApril 6, 1927, Milano
p133
aVOctober 20, 1927, Roma
p134
aVAugust 13, 1928, Parma
p135
aVJune 26, 1926, Pesaro
p136
aVJanuary 14, 1931, Parma
p137
aVOctober 28, 1928, Rovigo
p138
aVApril 27, 1932, Milano
p139
aVMay 16, 1930, Villadose, RO
p140
aVDecember 1, 1929
p141
aVJuly 19, 1924, Pescara
p142
aVMarch 21, 1931, Treviso
p143
aVJanuary 14, 1930, Roma
p144
aVFebruary 23, 1933, Milano
p145
aVJune 30, 1933, Padova
p146
aVMay 27, 1933
p147
aVJune 8, 1927, Padova
p148
aVJanuary 7, 1925, Tagliacozzo, AQ
p149
aVMarch 19, 1928, Castegnato, BS
p150
aVMay 6, 1933, Fidenza, PR
p151
aVSeptember 23, 1931, Padova
p152
aVMay 11, 1931, Parma
p153
aVJuly 26, 1932, Roma
p154
aVSeptember 15, 1930, Rovigo
p155
aVJuly 29, 1933, Treviso
p156
aVOctober 30, 1936, Milano
p157
aVJuly 3, 1931, Chirignago, VE
p158
aVAugust 27, 1935, Genova
p159
aVFebruary 22, 1934, Ceneselli, RO
p160
aVMay 16, 1933, Casale, TV
p161
aVApril 22, 1933, Roma
p162
aVJuly 27, 1931, Treviso
p163
aVDecember 25, 1935, Padova
p164
aVMay 18, 1931, Padova
p165
aVMarch 22, 1938, Roma
p166
aVdate unknown
p167
aVAugust 13, 1929, Milano
p168
aVDecember 6, 1928, Aquileia, UD
p169
aVNovember 23, 1937, Trieste
p170
aVJune 10, 1935, La Spezia
p171
aVDecember 13, 1935, Venezia
p172
aVJune 26, 1930, Brescia
p173
aVNovember 21, 1932, Rovigo
p174
aVOctober 5, 1936, Lendinara, RO
p175
aVdate unknown
p176
aVJanuary 2, 1936, Brescia
p177
aVMay 20, 1937, Rocca di Mezzo, AQ
p178
aVDecember 12, 1935, Parma
p179
aVOctober 13, 1934, Abbazia Fiume
p180
aVFebruary 2, 1939, Brescia
p181
aVJuly 15, 1938, Padova
p182
aVDecember 7, 1933, Pratovecchio, AR
p183
aVMarch 7, 1932, Casale, TV
p184
aVDecember 8, 1932, Palermo
p185
aVMarch 22, 1937, Brescia
p186
aVJune 17, 1933, Napoli
p187
aVOctober 18, 1934, Cusio, BG
p188
aVOctober 24, 1938, Iseo, BS
p189
aVMay 14, 1936, Rocca di Cambio, AQ
p190
aVJanuary 1, 1942, Napoli
p191
aVAugust 11, 1941, Padova
p192
aVDecember 14, 1940, Benevento
p193
aVApril 5, 1936, Milano
p194
aVJuly 7, 1941, Chioggia, VE
p195
aVdate unknown
p196
aVMay 7, 1938, Milano
p197
aVSeptember 14, 1937, Pratovecchio, AR
p198
aVApril 24, 1943, Roma
p199
aVJanuary 1, 1936, Roma
p200
aVdate unknown
p201
aVDecember 11, 1936, Treviso
p202
aVOctober 9, 1940, Novara
p203
aVDecember 7, 1939, Venezia
p204
aVApril 8, 1937, Collesalvetti, LI
p205
aVJune 27, 1936, Livorno
p206
aVOctober 12, 1942, Milano
p207
aVDecember 30, 1937, Roma
p208
aVdate unknown
p209
aVMay 10, 1944, Parma
p210
aVJuly 21, 1942, Bologna
p211
aVJune 12, 1942, Brescia
p212
aVJuly 12, 1943, Borgorose, RI
p213
aVJune 7, 1941, L'Aquila
p214
aVOctober 4, 1941, Roma
p215
aVdate unknown
p216
aVMarch 6, 1947, Napoli
p217
aVNovember 1, 1943, Roma
p218
aVOctober 11, 1946, Roma
p219
aVMay 1, 1947, L'Aquila
p220
aVMarch 24, 1942, Roma
p221
aVdate unknown
p222
aVApril 21, 1944, Roma
p223
aVSeptember 20, 1942, Firenze
p224
aVOctober 14, 1944, Sora, FR
p225
aVFebruary 2, 1943, Roma
p226
aVdate unknown
p227
aVNovember 7, 1945, Parma
p228
aVJune 27, 1946, Camisano, CR
p229
aVMarch 17, 1945, Ponzano Veneto, TV
p230
aVdate unknown
p231
aVdate unknown
p232
aVMarch 9, 1943, Montefusco, AV
p233
aVAugust 29, 1945, Cervinara, AV
p234
aVFebruary 18, 1942, Lido di Venezia, VE
p235
aVJune 5, 1947, Roma
p236
aVNovember 12, 1944, Vezza d'Alba, CN
p237
aVJune 10, 1944, Casier, TV
p238
aVJanuary 11, 1942, Napoli
p239
aVJune 29, 1947, L'Aquila
p240
aVSeptember 4, 1942, Padova
p241
aVJanuary 2, 1943, L'Aquila
p242
aVFebruary 11, 1944, Bologna
p243
aVAugust 12, 1943, Padova
p244
aVFebruary 16, 1942, Senigallia, AN
p245
aVJanuary 18, 1950, Oppido Mamertino, RC
p246
aVJune 7, 1945, Marostica, VI
p247
aVNovember 2, 1949, Padova
p248
aVdate unknown
p249
aVMay 21, 1943, Treviso
p250
aVJune 28, 1948, La Spezia
p251
aVJanuary 13, 1946, Venezia
p252
aVApril 22, 1946, Genova
p253
aVJune 14, 1948, Fabrica, VT
p254
aVJuly 11, 1942, Rovigo
p255
aVMay 22, 1949, Rovigo
p256
aVApril 19, 1948, Trieste
p257
aVJuly 16, 1947, Catania
p258
aVMay 21, 1943, Treviso
p259
aVMay 29, 1950, Montecchio, RE
p260
aVOctober 7, 1948, Catania
p261
aVJanuary 6, 1947, Sermide, MN
p262
aVDecember 19, 1944, Montefranco, TR
p263
aVSeptember 24, 1948, Venezia
p264
aVJuly 7, 1948, Pozza di Fassa, TN
p265
aVFebruary 18, 1948, Genova
p266
aVOctober 15, 1942, Gonars, UD
p267
aVNovember 4, 1941, Trieste
p268
aVMay 1, 1952, Frascati, RM
p269
aVFebruary 14, 1946, Acciano.AQ
p270
aVSeptember 26, 1951, Monza, MI
p271
aVFebruary 24, 1950, Roma
p272
aVOctober 22, 1949, Lumezzane, BS
p273
aVSeptember 30, 1949, Cordenons, PN
p274
aVJanuary 27, 1950, San Dona, VE
p275
aVJanuary 28, 1952, Sardara, CA
p276
aVJuly 17, 1950, Roma
p277
aVFebruary 4, 1952, Treviso
p278
aVSeptember 27, 1946, Campolongo s Brenta,
p279
aVFebruary 27, 1953, Roma
p280
aVJuly 16, 1946, Novi di Modena
p281
aVJanuary 27, 1950, San Dona, VE
p282
aVJanuary 29, 1953, Padova
p283
aVMay 1, 1948, Torre del Greco, NA
p284
aVJuly 27, 1949, Oriolo, VT
p285
aVFebruary 22, 1953, Roma
p286
aVAugust 2, 1950, Roma
p287
aVOctober 7, 1952, Genova
p288
aVJune 12, 1953, Frascati, RM
p289
aVMay 14, 1950, Padova
p290
aVMarch 15, 1951, Carrara Sto Stefano,
p291
aVJanuary 19, 1951, Chioggia, VE
p292
aVOctober 26, 1952, Padova
p293
aVMarch 17, 1950, Piacenza
p294
aVJanuary 27, 1950, Roma
p295
aVJuly 11, 1949, Piacenza
p296
aVNovember 3, 1953, Roma
p297
aVFebruary 22, 1953, Moglia, MN
p298
aVJune 16, 1946, Crespino, RO
p299
aVMarch 15, 1951, L'Aquila
p300
aVNovember 8, 1952, Arqua Polesine, RO
p301
aVOctober 24, 1950, Vescovana, RO
p302
aVMay 29, 1949, Santo Stefano Magra,
p303
aVApril 13, 1948, Acciano.AQ
p304
aVNovember 29, 1951, Lendinara, RO
p305
aVApril 19, 1950, Giulianova, TE
p306
aVFebruary 18, 1953, L'Aquila
p307
aVJanuary 22, 1950, Trasacco, AQ
p308
aVApril 4, 1952, Padova
p309
aVNovember 3, 1945, L'Aquila
p310
aVDecember 5, 1952, Montebelluna, TV
p311
aVJune 29, 1953, Roio, AQ
p312
aVJune 13, 1953, Lendinara, RO
p313
aVMay 30, 1953, San Benedetto Tronto
p314
aVJuly 23, 1951, L'Aquila
p315
aVMarch 5, 1949, Venezia
p316
aVJanuary 25, 1954, Livorno
p317
aVdate unknown
p318
aVApril 18, 1954, L'Aquila
p319
aVApril 9, 1950, Paterno di Avezzano,
p320
aVOctober 21, 1952, Rovigo
p321
aVFebruary 23, 1955, Roma
p322
aVDecember 1, 1957, Treviso
p323
aVJanuary 14, 1957, Calvisano, BS
p324
aVOctober 16, 1954, L'Aquila
p325
aVMarch 4, 1958, L'Aquila
p326
aVJune 22, 1956, L'Aquila
p327
aVSeptember 13, 1954, Venezia
p328
aVSeptember 11, 1954, Rovigo
p329
aVFebruary 25, 1956, Treviso
p330
aVNovember 14, 1956, Reggio Calabria
p331
aVJuly 6, 1957, Reggio Calabria
p332
aVNovember 18, 1954, Rovigo
p333
aVSeptember 16, 1958, Berne, Switzerlan
p334
aVJune 20, 1958, Roma
p335
aVApril 27, 1954, Roccabianca, PR
p336
aVJanuary 10, 1954, L'Aquila
p337
aVApril 3, 1955, Sardara, CA
p338
aVJune 25, 1957, Wilmington, NC, United States
p339
aVJanuary 19, 1956, Rovigo
p340
aVAugust 25, 1955, Treviso
p341
aVFebruary 22, 1953, Venezia
p342
aVApril 24, 1952, Roma
p343
aVApril 20, 1958, Rovigo
p344
aVApril 23, 1957, Catania
p345
aVFebruary 4, 1957, Borno, BS
p346
aVSeptember 10, 1955, Treviso
p347
aVDecember 14, 1959, Padova
p348
aVJune 18, 1957, Musile di Piave, VE
p349
aVJanuary 26, 1960, Catania
p350
aVOctober 4, 1954, Frascati, RM
p351
aVMarch 3, 1954, Nerac
p352
aVJuly 2, 1960, Roma
p353
aVJanuary 6, 1959, Padova
p354
aVDecember 22, 1958, Roma
p355
aVOctober 5, 1958, Padova
p356
aVOctober 27, 1960, L'Aquila
p357
aVMay 22, 1960, San Dona, VE
p358
aVApril 1, 1961, Treviso
p359
aVFebruary 9, 1961, Nairobi
p360
aVApril 1, 1960, Roma
p361
aVFebruary 5, 1960, Domegge di Cadre, BL
p362
aVJuly 18, 1958, Treviso
p363
aVAugust 23, 1958, Livorno
p364
aVNovember 10, 1956, Rovigo
p365
aVMarch 3, 1960, Treviso
p366
aVMarch 27, 1961, Padova
p367
aVMay 30, 1957, Treviso
p368
aVApril 28, 1959, Treviso
p369
aVMay 4, 1961, Parma
p370
aVSeptember 16, 1958, Parma
p371
aVSeptember 4, 1958, Livorno
p372
aVJanuary 3, 1959, L'Aquila
p373
aVMay 17, 1960, Treviso
p374
aVJune 18, 1957, Aci Sant'Antonio, CT
p375
aVFebruary 16, 1962, Napoli
p376
aVFebruary 5, 1955, Bologna
p377
aVSeptember 4, 1961, Roma
p378
aVJuly 5, 1961, Benevento
p379
aVJuly 27, 1962, Pieve di Centro, BO
p380
aVMay 8, 1961, Orthez
p381
aVMay 18, 1963, San Dona, VE
p382
aVMarch 19, 1962, Catania
p383
aVOctober 27, 1961, Paganica, AQ
p384
aVMarch 8, 1959, Rovigo
p385
aVOctober 28, 1962, Treviso
p386
aVApril 28, 1962, Roma
p387
aVJanuary 9, 1965, Alessandria
p388
aVJanuary 10, 1964, Roma
p389
aVFebruary 15, 1959, Padova
p390
aVMay 25, 1963, Padova
p391
aVJuly 21, 1963, Padova
p392
aVApril 24, 1961, Parma
p393
aVMay 26, 1966, Viadana, MN
p394
aVJuly 25, 1963, Calvisano, BS
p395
aVFebruary 25, 1964, Afragola, NA
p396
aVApril 21, 1964, Treviso
p397
aVAugust 9, 1961, Treviso
p398
aVSeptember 2, 1966, Latina
p399
aVJune 8, 1959, Bassano del Grappa, V
p400
aVNovember 12, 1955, Johannesburg
p401
aVDecember 27, 1961, Cordoba
p402
aVJune 21, 1963, L'Aquila
p403
aVAugust 11, 1963, Rovigo
p404
aVMarch 5, 1964, Roma
p405
aVDecember 15, 1967, Roma
p406
aVJune 22, 1967, Brescia
p407
aVOctober 3, 1964, Belluno
p408
aVFebruary 9, 1965, Venezia
p409
aVApril 29, 1963, Treviso
p410
aVSeptember 20, 1963, Roma
p411
aVNovember 27, 1967, Padova
p412
aVJune 18, 1967, Arqua Polesine, RO
p413
aVMarch 6, 1963, L'Aquila
p414
aVAugust 24, 1965, Treviso
p415
aVNovember 30, 1965, Parma
p416
aVJanuary 21, 1967, Treviso
p417
aVDecember 12, 1963, Treviso
p418
aVMay 12, 1963, Treviso
p419
aVDecember 2, 1967, Roma
p420
aVJanuary 22, 1961, Rovigo
p421
aVApril 29, 1967, Rovigo
p422
aVMay 20, 1964, Cremona
p423
aVMarch 1, 1967, Parma
p424
aVSeptember 2, 1966, Latina
p425
aVNovember 4, 1965, Derha Dun
p426
aVFebruary 11, 1964, Brindisi
p427
aVApril 7, 1969, Treviso
p428
aVAugust 30, 1970, Adria, RO
p429
aVJuly 28, 1965, Ascoli
p430
aVAugust 23, 1963, Livorno
p431
aVFebruary 2, 1968, Rovigo
p432
aVFebruary 10, 1967, Treviso
p433
aVNovember 21, 1964, Loncon, VE
p434
aVFebruary 11, 1961, Rosario
p435
aVApril 25, 1966, Cordoba
p436
aVJanuary 15, 1971, Calvisano, BS
p437
aVNovember 8, 1955, Foligno, PG
p438
aVJune 2, 1964, Treviso
p439
aVJuly 22, 1969, Piacenza
p440
aVJuly 28, 1967, Messina
p441
aVMay 12, 1964, Brisbane, QLD
p442
aVFebruary 1, 1969, Sydney, NSW
p443
aVJune 18, 1967, Villa Elisa
p444
aVNovember 1, 1967, Piacenza
p445
aVDecember 13, 1965, Treviso
p446
aVFebruary 28, 1970, Treviso
p447
aVAugust 28, 1964, Padova
p448
aVOctober 13, 1967, Musile di Piave, VE
p449
aVNovember 1, 1966, Cordoba
p450
aVSeptember 30, 1965, Mendoza
p451
aVJanuary 26, 1969, Rovigo
p452
aVNovember 21, 1971, Treviso
p453
aVJanuary 19, 1967, San Dona, VE
p454
aVJanuary 20, 1968, San Dona, VE
p455
aVApril 17, 1969, Milano
p456
aVSeptember 5, 1972, Calvisano, BS
p457
aVDecember 16, 1967, Benevento
p458
aVNovember 15, 1967, Catania
p459
aVSeptember 6, 1967, Bergamo
p460
aVJanuary 16, 1966, Milano
p461
aVDecember 6, 1971, Bologna
p462
aVJune 16, 1967, Treviso
p463
aVSeptember 6, 1973, Treviso
p464
aVOctober 26, 1968, General San Martin
p465
aVMay 15, 1972, L'Aquila
p466
aVApril 27, 1967, Rosario
p467
aVJuly 29, 1967, Cordoba
p468
aVJuly 24, 1972, L'Aquila
p469
aVMay 6, 1973, Cremona
p470
aVMarch 1, 1975, Treviso
p471
aVApril 13, 1971, Roma
p472
aVFebruary 18, 1973, L'Aquila
p473
aVJuly 1, 1973, Padova
p474
aVOctober 27, 1975, Padova
p475
aVJanuary 27, 1966, San Miguel de Tucuma
p476
aVMarch 30, 1974, Treviso
p477
aVMarch 17, 1970, Roma
p478
aVJanuary 25, 1973, San Dona, VE
p479
aVMay 28, 1974, Treviso
p480
aVFebruary 2, 1968, Livorno
p481
aVAugust 22, 1971, Padova
p482
aVSeptember 21, 1974, Padova
p483
aVSeptember 30, 1968, Livorno
p484
aVDecember 2, 1972, Padova
p485
aVMay 11, 1972, Treviso
p486
aVAugust 1, 1976, Bucuresti
p487
aVNovember 25, 1973, Padova
p488
aVOctober 15, 1976, Montebelluna, TV
p489
aVNovember 13, 1972, Mantova
p490
aVSeptember 24, 1974, Belluno
p491
aVMarch 4, 1975, Pisa
p492
aVJanuary 24, 1970, Viterbo
p493
aVMay 1, 1979, Padova
p494
aVMarch 21, 1969, Canberra, ACT
p495
aVOctober 7, 1972, Mirano, VE
p496
aVMay 7, 1971, Udine
p497
aVOctober 14, 1974, Frascati, RM
p498
aVNovember 4, 1976, Colleferro, RM
p499
aVAugust 15, 1978, Padova
p500
aVMarch 4, 1978, Asolo, TV
p501
aVApril 15, 1977, Noale, VE
p502
aVMarch 27, 1970, Durban
p503
aVDecember 26, 1973, Camposampiero, PD
p504
aVNovember 24, 1972, Gap
p505
aVAugust 8, 1974, Villa Ballester
p506
aVAugust 7, 1972, Genova
p507
aVJuly 23, 1973, Rovigo
p508
aVMay 3, 1977
p509
aVMarch 30, 1981, L'Aquila
p510
aVJune 24, 1975, Rosario
p511
aVAugust 2, 1972, Sydney, NSW
p512
aVApril 21, 1973, Buenos Aires
p513
aVJanuary 28, 1977, Firenze
p514
aVOctober 24, 1976, Livorno
p515
aVMarch 29, 1978, Lower Hutt
p516
aVSeptember 2, 1973, Genova
p517
aVAugust 18, 1975, Rosario
p518
aVMarch 6, 1978, Benevento
p519
aVMay 7, 1976, Catania
p520
aVDecember 6, 1978, Cordoba
p521
aVJuly 31, 1974, Rosario
p522
aVAugust 14, 1980, Legnago, VR
p523
aVMay 6, 1976, Segni, RM
p524
aVMay 21, 1976, Cordoba
p525
aVJanuary 12, 1978, L'Aquila
p526
aVMay 3, 1972, Noceto, PR
p527
aVAugust 10, 1971, Conselve, PD
p528
aVSeptember 23, 1977, Venezia
p529
aVJanuary 1, 1973, Casale, TV
p530
aVJuly 22, 1977, Treviso
p531
aVJune 12, 1979, Treviso
p532
aVOctober 26, 1975, Mombasa
p533
aVJune 12, 1980, Padova
p534
aVSeptember 21, 1976, Modena
p535
aVDecember 3, 1977, Catania
p536
aVNovember 8, 1979, Viadana, MN
p537
aVJanuary 20, 1980, Ponte dell'Oglio, PC
p538
aVNovember 17, 1974, Brescia
p539
aVMay 9, 1978, La Plata
p540
aVApril 10, 1975, Kaitaia
p541
aVFebruary 23, 1983, Padova
p542
aVMarch 22, 1974, Germiston
p543
aVApril 28, 1976, La Plata
p544
aVOctober 23, 1970, Buenos Aires
p545
aVSeptember 12, 1983, La Plata
p546
aVJune 8, 1982, Venezia
p547
aVOctober 21, 1981, Parana
p548
aVOctober 15, 1980, Montebelluna, TV
p549
aVNovember 10, 1977, Palmerston North
p550
aVMay 13, 1975, Reggio Emilia
p551
aVJune 20, 1980, L'Aquila
p552
aVNovember 11, 1982, Cordoba
p553
aVFebruary 23, 1981, Livorno
p554
aVMarch 23, 1976, North Shore
p555
aVMarch 30, 1975, Dunedin
p556
aVNovember 17, 1975, Durban
p557
aVFebruary 9, 1981, Venezia
p558
aVApril 10, 1979, Brescia
p559
aVSeptember 26, 1982, Roma
p560
aVJuly 1, 1981, Umtala
p561
aVApril 9, 1982, Catania
p562
aVOctober 29, 1980, Auckland
p563
aVJuly 22, 1979, L'Aquila
p564
aVFebruary 15, 1981, Milano
p565
aVNovember 13, 1973, Sabbioneta, MN
p566
aVOctober 27, 1983, Roma
p567
aVOctober 12, 1981, Cordoba
p568
aVApril 28, 1981, Treviso
p569
aVJuly 27, 1985, Roma
p570
aVMarch 3, 1984, Roma
p571
aVJune 6, 1981, Varese
p572
aVFebruary 15, 1980, Hamilton
p573
aVOctober 13, 1982, Agordo, PL
p574
aVDecember 26, 1981, Cordoba
p575
aVSeptember 16, 1982, Dolo, VE
p576
aVFebruary 13, 1981, San Nicolas
p577
aVJanuary 31, 1984, Udine
p578
aVJuly 21, 1981, Auch
p579
aVJanuary 12, 1980, Cape Town
p580
aVJune 5, 1984, Toronto, ON
p581
aVDecember 26, 1984, Padova
p582
aVApril 17, 1983, Padova
p583
aVOctober 8, 1986, Roma
p584
aVApril 20, 1983, Eboli
p585
aVOctober 1, 1979, Birmingham
p586
aVNovember 1, 1982, Manchester
p587
aVAugust 4, 1980, Brisbane, QLD
p588
aVJanuary 15, 1985, Camposampiero, PD
p589
aVOctober 24, 1983, Varese
p590
aVAugust 12, 1983, Suva
p591
aVDecember 17, 1982, Bergamo
p592
aVMay 12, 1984, Rovigo
p593
aVNovember 26, 1986, Montebelluna, TV
p594
aVJuly 28, 1986, Treviso
p595
aVJuly 31, 1979, Humansdorf
p596
aVFebruary 18, 1984, Mendoza
p597
aVJune 29, 1987, Townsville
p598
aVOctober 22, 1978, Buenos Aires
p599
aVOctober 13, 1986, Conegliano, TV
p600
aVJanuary 15, 1984, Roma
p601
aVMarch 21, 1983, Muret
p602
aVJuly 4, 1988, Rovigo
p603
aVApril 24, 1987, Frascati, RM
p604
aVDecember 3, 1982, Mar del Plata
p605
aVMarch 29, 1988, L'Aquila
p606
aVJune 19, 1981, Krugersdorp
p607
aVApril 29, 1978, Penrith, NSW
p608
aVNovember 3, 1986, Cecina, LI
p609
aVSeptember 23, 1987, Parma
p610
aVNovember 7, 1988, Treviso
p611
aVMarch 3, 1988, Viterbo
p612
aVDecember 12, 1990, Vittorio Veneto
p613
aVMarch 5, 1990, Prato
p614
aVMay 6, 1986, Treviso
p615
aVJune 30, 1988, Benevento
p616
aVJanuary 27, 1979, Nelspruit
p617
aVOctober 21, 1989, Melbourne, VIC
p618
aVMarch 27, 1990, Avezzano
p619
aVApril 26, 1984, Worcester
p620
aVFebruary 22, 1991, Milano
p621
aVMarch 13, 1986, Jesolo
p622
aVJanuary 16, 1986, Mestre, VE
p623
aVMarch 31, 1989, Bagni-a-Ripoli
p624
aVNovember 25, 1990, Padova
p625
aVNovember 26, 1988, Roma
p626
aVMarch 9, 1991, Villorba
p627
aVSeptember 16, 1990, Treviso
p628
aVMay 20, 1987, Mirano, VE
p629
aVNovember 4, 1980, Rosario
p630
aVApril 28, 1990, Parma
p631
aVFebruary 16, 1988, Resistencia
p632
aVJanuary 15, 1992, Zevio, VR
p633
aVDecember 5, 1990, Venezia
p634
aVApril 26, 1993, Vicenza
p635
aVMarch 13, 1993, Mirano, VE
p636
aVJune 14, 1993, Napoli
p637
aVOctober 4, 1985, Irvine
p638
aVApril 11, 1991, Gardone val Trompia
p639
aVNovember 19, 1988, Montebelluna, TV
p640
aVSeptember 14, 1988, Kempton Park
p641
aVJuly 30, 1986, Rotorua
p642
aVAugust 19, 1988, Suva
p643
aVOctober 16, 1990, Padova
p644
aVApril 4, 1992, Frascati, RM
p645
aVNovember 28, 1992, San Dona, VE
p646
aVDecember 13, 1991, Paese
p647
aVAugust 25, 1992, Benevento
p648
aVOctober 11, 1993, Parma
p649
aVFebruary 8, 1994, Padova
p650
aVMarch 24, 1990, Lezhe, Albania
p651
aVJuly 28, 1989, Piacenza
p652
aVFebruary 24, 1993, Reggio Emilia
p653
aVDecember 21, 1984, Bloemfontein
p654
aVApril 9, 1993, San Dona, VE
p655
aVMay 15, 1993, Venezia
p656
aVMay 2, 1992, Cradock
p657
a.