(lp1
VSpain v Italy at Barcelona, May 20, 1929
p2
aVSpain v Italy at Barcelona, May 20, 1929
p3
aVSpain v Italy at Barcelona, May 20, 1929
p4
aVSpain v Italy at Barcelona, May 20, 1929
p5
aVSpain v Italy at Barcelona, May 20, 1929
p6
aVSpain v Italy at Barcelona, May 20, 1929
p7
aVSpain v Italy at Barcelona, May 20, 1929
p8
aVSpain v Italy at Barcelona, May 20, 1929
p9
aVSpain v Italy at Barcelona, May 20, 1929
p10
aVSpain v Italy at Barcelona, May 20, 1929
p11
aVSpain v Italy at Barcelona, May 20, 1929
p12
aVSpain v Italy at Barcelona, May 20, 1929
p13
aVSpain v Italy at Barcelona, May 20, 1929
p14
aVSpain v Italy at Barcelona, May 20, 1929
p15
aVSpain v Italy at Barcelona, May 20, 1929
p16
aVSpain v Italy at Barcelona, May 20, 1929
p17
aVSpain v Italy at Barcelona, May 20, 1929
p18
aVSpain v Italy at Barcelona, May 20, 1929
p19
aVItaly v Spain at Milan, May 29, 1930
p20
aVItaly v Spain at Milan, May 29, 1930
p21
aVItaly v Spain at Milan, May 29, 1930
p22
aVItaly v Spain at Milan, May 29, 1930
p23
aVItaly v Spain at Milan, May 29, 1930
p24
aVItaly v Spain at Milan, May 29, 1930
p25
aVItaly v Spain at Milan, May 29, 1930
p26
aVItaly v Czech Republic at Milan, Feb 12, 1933
p27
aVItaly v Czech Republic at Milan, Feb 12, 1933
p28
aVItaly v Czech Republic at Milan, Feb 12, 1933
p29
aVItaly v Czech Republic at Milan, Feb 12, 1933
p30
aVItaly v Czech Republic at Milan, Feb 12, 1933
p31
aVItaly v Czech Republic at Milan, Feb 12, 1933
p32
aVItaly v Czech Republic at Milan, Feb 12, 1933
p33
aVItaly v Czech Republic at Milan, Feb 12, 1933
p34
aVItaly v Czech Republic at Milan, Feb 12, 1933
p35
aVCzech Republic v Italy at Prague, Apr 16, 1933
p36
aVCzech Republic v Italy at Prague, Apr 16, 1933
p37
aVCzech Republic v Italy at Prague, Apr 16, 1933
p38
aVCzech Republic v Italy at Prague, Apr 16, 1933
p39
aVCzech Republic v Italy at Prague, Apr 16, 1933
p40
aVCzech Republic v Italy at Prague, Apr 16, 1933
p41
aVCatalunya v Italy at Barcelona, Apr 14, 1934
p42
aVCatalunya v Italy at Barcelona, Apr 14, 1934
p43
aVItaly v Romania at Milan, Dec 26, 1934
p44
aVItaly v Romania at Milan, Dec 26, 1934
p45
aVItaly v Romania at Milan, Dec 26, 1934
p46
aVItaly v Catalunya at Genova, Mar 24, 1935
p47
aVItaly v Catalunya at Genova, Mar 24, 1935
p48
aVItaly v France XV at Roma, Apr 22, 1935
p49
aVItaly v France XV at Roma, Apr 22, 1935
p50
aVItaly v France XV at Roma, Apr 22, 1935
p51
aVItaly v France XV at Roma, Apr 22, 1935
p52
aVItaly v France XV at Roma, Apr 22, 1935
p53
aVGermany v Italy at Berlin, May 14, 1936
p54
aVGermany v Italy at Berlin, May 14, 1936
p55
aVGermany v Italy at Berlin, May 14, 1936
p56
aVGermany v Italy at Berlin, May 14, 1936
p57
aVGermany v Italy at Berlin, May 14, 1936
p58
aVRomania v Italy at Bucharest, Apr 25, 1937
p59
aVRomania v Italy at Bucharest, Apr 25, 1937
p60
aVRomania v Italy at Bucharest, Apr 25, 1937
p61
aVRomania v Italy at Bucharest, Apr 25, 1937
p62
aVRomania v Italy at Bucharest, Apr 25, 1937
p63
aVBelgium v Italy at Paris, Oct 10, 1937
p64
aVBelgium v Italy at Paris, Oct 10, 1937
p65
aVBelgium v Italy at Paris, Oct 10, 1937
p66
aVBelgium v Italy at Paris, Oct 10, 1937
p67
aVGermany v Italy at Stuttgart, Mar 6, 1938
p68
aVItaly v Germany at Milan, Feb 11, 1939
p69
aVItaly v Germany at Milan, Feb 11, 1939
p70
aVItaly v Romania at Rome, Apr 29, 1939
p71
aVItaly v Romania at Rome, Apr 29, 1939
p72
aVItaly v Romania at Rome, Apr 29, 1939
p73
aVItaly v Romania at Rome, Apr 29, 1939
p74
aVItaly v Romania at Rome, Apr 29, 1939
p75
aVItaly v Romania at Rome, Apr 29, 1939
p76
aVRomania v Italy at Bucharest, Apr 14, 1940
p77
aVRomania v Italy at Bucharest, Apr 14, 1940
p78
aVRomania v Italy at Bucharest, Apr 14, 1940
p79
aVRomania v Italy at Bucharest, Apr 14, 1940
p80
aVRomania v Italy at Bucharest, Apr 14, 1940
p81
aVGermany v Italy at Stuttgart, May 5, 1940
p82
aVItaly v Romania at Milan, May 2, 1942
p83
aVItaly v Romania at Milan, May 2, 1942
p84
aVItaly v Romania at Milan, May 2, 1942
p85
aVItaly v Romania at Milan, May 2, 1942
p86
aVItaly v Romania at Milan, May 2, 1942
p87
aVItaly v France XV at Rovigo, Mar 28, 1948
p88
aVItaly v France XV at Rovigo, Mar 28, 1948
p89
aVItaly v France XV at Rovigo, Mar 28, 1948
p90
aVItaly v France XV at Rovigo, Mar 28, 1948
p91
aVItaly v France XV at Rovigo, Mar 28, 1948
p92
aVItaly v France XV at Rovigo, Mar 28, 1948
p93
aVItaly v France XV at Rovigo, Mar 28, 1948
p94
aVItaly v France XV at Rovigo, Mar 28, 1948
p95
aVItaly v France XV at Rovigo, Mar 28, 1948
p96
aVItaly v France XV at Rovigo, Mar 28, 1948
p97
aVItaly v France XV at Rovigo, Mar 28, 1948
p98
aVItaly v France XV at Rovigo, Mar 28, 1948
p99
aVItaly v France XV at Rovigo, Mar 28, 1948
p100
aVItaly v France XV at Rovigo, Mar 28, 1948
p101
aVItaly v Czech Republic at Parma, May 23, 1948
p102
aVItaly v Czech Republic at Parma, May 23, 1948
p103
aVItaly v Czech Republic at Parma, May 23, 1948
p104
aVItaly v Czech Republic at Parma, May 23, 1948
p105
aVItaly v Czech Republic at Parma, May 23, 1948
p106
aVItaly v Czech Republic at Parma, May 23, 1948
p107
aVItaly v Czech Republic at Parma, May 23, 1948
p108
aVItaly v Czech Republic at Parma, May 23, 1948
p109
aVFrance XV v Italy at Marseille, Mar 27, 1949
p110
aVFrance XV v Italy at Marseille, Mar 27, 1949
p111
aVFrance XV v Italy at Marseille, Mar 27, 1949
p112
aVFrance XV v Italy at Marseille, Mar 27, 1949
p113
aVFrance XV v Italy at Marseille, Mar 27, 1949
p114
aVFrance XV v Italy at Marseille, Mar 27, 1949
p115
aVCzech Republic v Italy at Prague, May 22, 1949
p116
aVCzech Republic v Italy at Prague, May 22, 1949
p117
aVItaly v Spain at Roma, May 6, 1951
p118
aVItaly v Spain at Roma, May 6, 1951
p119
aVItaly v Spain at Roma, May 6, 1951
p120
aVItaly v Spain at Roma, May 6, 1951
p121
aVItaly v Spain at Roma, May 6, 1951
p122
aVItaly v Spain at Roma, May 6, 1951
p123
aVItaly v Spain at Roma, May 6, 1951
p124
aVSpain v Italy at Barcelona, Apr 13, 1952
p125
aVSpain v Italy at Barcelona, Apr 13, 1952
p126
aVSpain v Italy at Barcelona, Apr 13, 1952
p127
aVSpain v Italy at Barcelona, Apr 13, 1952
p128
aVSpain v Italy at Barcelona, Apr 13, 1952
p129
aVSpain v Italy at Barcelona, Apr 13, 1952
p130
aVSpain v Italy at Barcelona, Apr 13, 1952
p131
aVSpain v Italy at Barcelona, Apr 13, 1952
p132
aVSpain v Italy at Barcelona, Apr 13, 1952
p133
aVItaly v West Germany at Padova, Apr 27, 1952
p134
aVItaly v West Germany at Padova, Apr 27, 1952
p135
aVItaly v France at Milan, May 17, 1952
p136
aVItaly v France at Milan, May 17, 1952
p137
aVFrance v Italy at Lyon, Apr 26, 1953
p138
aVWest Germany v Italy at Hanover, May 17, 1953
p139
aVWest Germany v Italy at Hanover, May 17, 1953
p140
aVWest Germany v Italy at Hanover, May 17, 1953
p141
aVItaly v Spain at Naples, Apr 19, 1954
p142
aVItaly v Spain at Naples, Apr 19, 1954
p143
aVItaly v France at Rome, Apr 24, 1954
p144
aVItaly v France at Rome, Apr 24, 1954
p145
aVItaly v West Germany at Milan, Mar 13, 1955
p146
aVItaly v West Germany at Milan, Mar 13, 1955
p147
aVItaly v West Germany at Milan, Mar 13, 1955
p148
aVItaly v West Germany at Milan, Mar 13, 1955
p149
aVItaly v West Germany at Milan, Mar 13, 1955
p150
aVItaly v West Germany at Milan, Mar 13, 1955
p151
aVFrance v Italy at Grenoble, Apr 10, 1955
p152
aVSpain v Italy at Barcelona, Jul 18, 1955
p153
aVSpain v Italy at Barcelona, Jul 18, 1955
p154
aVFrance XV v Italy at Barcelona, Jul 21, 1955
p155
aVItaly v Czech Republic at Roma, Dec 11, 1955
p156
aVWest Germany v Italy at Heidelburg, Mar 25, 1956
p157
aVWest Germany v Italy at Heidelburg, Mar 25, 1956
p158
aVWest Germany v Italy at Heidelburg, Mar 25, 1956
p159
aVWest Germany v Italy at Heidelburg, Mar 25, 1956
p160
aVWest Germany v Italy at Heidelburg, Mar 25, 1956
p161
aVWest Germany v Italy at Heidelburg, Mar 25, 1956
p162
aVWest Germany v Italy at Heidelburg, Mar 25, 1956
p163
aVCzech Republic v Italy at Prague, Apr 29, 1956
p164
aVCzech Republic v Italy at Prague, Apr 29, 1956
p165
aVFrance v Italy at Agen, Apr 21, 1957
p166
aVFrance v Italy at Agen, Apr 21, 1957
p167
aVFrance v Italy at Agen, Apr 21, 1957
p168
aVItaly v West Germany at Milan, Dec 7, 1957
p169
aVItaly v West Germany at Milan, Dec 7, 1957
p170
aVItaly v West Germany at Milan, Dec 7, 1957
p171
aVItaly v West Germany at Milan, Dec 7, 1957
p172
aVItaly v West Germany at Milan, Dec 7, 1957
p173
aVItaly v France at Naples, Apr 7, 1958
p174
aVItaly v Romania at Catania, Dec 7, 1958
p175
aVItaly v Romania at Catania, Dec 7, 1958
p176
aVItaly v Romania at Catania, Dec 7, 1958
p177
aVItaly v Romania at Catania, Dec 7, 1958
p178
aVItaly v Romania at Catania, Dec 7, 1958
p179
aVItaly v Romania at Catania, Dec 7, 1958
p180
aVFrance v Italy at Nantes, Mar 29, 1959
p181
aVFrance v Italy at Nantes, Mar 29, 1959
p182
aVFrance v Italy at Nantes, Mar 29, 1959
p183
aVFrance v Italy at Nantes, Mar 29, 1959
p184
aVWest Germany v Italy at Hanover, Apr 10, 1960
p185
aVWest Germany v Italy at Hanover, Apr 10, 1960
p186
aVWest Germany v Italy at Hanover, Apr 10, 1960
p187
aVWest Germany v Italy at Hanover, Apr 10, 1960
p188
aVWest Germany v Italy at Hanover, Apr 10, 1960
p189
aVItaly v West Germany at Piacenza, Jan 15, 1961
p190
aVItaly v France at Brescia, Apr 22, 1962
p191
aVItaly v France at Brescia, Apr 22, 1962
p192
aVWest Germany v Italy at Berlin, May 27, 1962
p193
aVWest Germany v Italy at Berlin, May 27, 1962
p194
aVFrance v Italy at Grenoble, Apr 14, 1963
p195
aVFrance v Italy at Grenoble, Apr 14, 1963
p196
aVFrance v Italy at Grenoble, Apr 14, 1963
p197
aVFrance v Italy at Pau, Apr 18, 1965
p198
aVFrance v Italy at Pau, Apr 18, 1965
p199
aVFrance v Italy at Pau, Apr 18, 1965
p200
aVFrance v Italy at Pau, Apr 18, 1965
p201
aVItaly v Czech Republic at Livorno, Dec 8, 1965
p202
aVItaly v Czech Republic at Livorno, Dec 8, 1965
p203
aVItaly v Czech Republic at Livorno, Dec 8, 1965
p204
aVItaly v Czech Republic at Livorno, Dec 8, 1965
p205
aVItaly v Czech Republic at Livorno, Dec 8, 1965
p206
aVItaly v Czech Republic at Livorno, Dec 8, 1965
p207
aVItaly v Czech Republic at Livorno, Dec 8, 1965
p208
aVItaly v France at Naples, Apr 9, 1966
p209
aVItaly v France at Naples, Apr 9, 1966
p210
aVWest Germany v Italy at Berlin, Oct 30, 1966
p211
aVWest Germany v Italy at Berlin, Oct 30, 1966
p212
aVItaly v Romania at L'Aquila, Nov 6, 1966
p213
aVItaly v Romania at L'Aquila, Nov 6, 1966
p214
aVFrance v Italy at Toulon, Mar 26, 1967
p215
aVItaly v Portugal at Genova, May 7, 1967
p216
aVItaly v Portugal at Genova, May 7, 1967
p217
aVItaly v Portugal at Genova, May 7, 1967
p218
aVItaly v Portugal at Genova, May 7, 1967
p219
aVItaly v Portugal at Genova, May 7, 1967
p220
aVItaly v Portugal at Genova, May 7, 1967
p221
aVRomania v Italy at Bucharest, May 14, 1967
p222
aVRomania v Italy at Bucharest, May 14, 1967
p223
aVRomania v Italy at Bucharest, May 14, 1967
p224
aVPortugal v Italy at Lisbon, May 12, 1968
p225
aVPortugal v Italy at Lisbon, May 12, 1968
p226
aVPortugal v Italy at Lisbon, May 12, 1968
p227
aVPortugal v Italy at Lisbon, May 12, 1968
p228
aVItaly v West Germany at Venice, Nov 3, 1968
p229
aVItaly v West Germany at Venice, Nov 3, 1968
p230
aVItaly v West Germany at Venice, Nov 3, 1968
p231
aVItaly v West Germany at Venice, Nov 3, 1968
p232
aVItaly v Serbia and Montenegro at San Dona, Dec 29, 1968
p233
aVItaly v Serbia and Montenegro at San Dona, Dec 29, 1968
p234
aVItaly v Serbia and Montenegro at San Dona, Dec 29, 1968
p235
aVItaly v Serbia and Montenegro at San Dona, Dec 29, 1968
p236
aVItaly v Serbia and Montenegro at San Dona, Dec 29, 1968
p237
aVBulgaria v Italy at Sofia, Mar 2, 1969
p238
aVBulgaria v Italy at Sofia, Mar 2, 1969
p239
aVBulgaria v Italy at Sofia, Mar 2, 1969
p240
aVItaly v Spain at L'Aquila, May 4, 1969
p241
aVItaly v Spain at L'Aquila, May 4, 1969
p242
aVBelgium v Italy at Brussels, May 10, 1969
p243
aVBelgium v Italy at Brussels, May 10, 1969
p244
aVItaly v France XV at Catania, Nov 9, 1969
p245
aVItaly v France XV at Catania, Nov 9, 1969
p246
aVCzech Republic v Italy at Prague, Apr 26, 1970
p247
aVCzech Republic v Italy at Prague, Apr 26, 1970
p248
aVCzech Republic v Italy at Prague, Apr 26, 1970
p249
aVCzech Republic v Italy at Prague, Apr 26, 1970
p250
aVMadagascar v Italy at Antananarive, May 24, 1970
p251
aVMadagascar v Italy at Antananarive, May 24, 1970
p252
aVItaly v Romania at Rovigo, Oct 25, 1970
p253
aVItaly v Romania at Rovigo, Oct 25, 1970
p254
aVItaly v Romania at Rovigo, Oct 25, 1970
p255
aVItaly v Romania at Rovigo, Oct 25, 1970
p256
aVItaly v Morocco at Naples, Feb 21, 1971
p257
aVItaly v Morocco at Naples, Feb 21, 1971
p258
aVItaly v Morocco at Naples, Feb 21, 1971
p259
aVItaly v Morocco at Naples, Feb 21, 1971
p260
aVFrance XV v Italy at Nice, Feb 28, 1971
p261
aVRomania v Italy at Bucharest, Apr 11, 1971
p262
aVRomania v Italy at Bucharest, Apr 11, 1971
p263
aVRomania v Italy at Bucharest, Apr 11, 1971
p264
aVItaly v Portugal at Padova, Feb 20, 1972
p265
aVItaly v Portugal at Padova, Feb 20, 1972
p266
aVPortugal v Italy at Lisbon, Apr 2, 1972
p267
aVPortugal v Italy at Lisbon, Apr 2, 1972
p268
aVPortugal v Italy at Lisbon, Apr 2, 1972
p269
aVSpain v Italy at Madrid, May 14, 1972
p270
aVItaly v Spain at Ivrea, May 21, 1972
p271
aVItaly v Spain at Ivrea, May 21, 1972
p272
aVItaly v Serbia and Montenegro at Aosta, Nov 26, 1972
p273
aVItaly v Serbia and Montenegro at Aosta, Nov 26, 1972
p274
aVItaly v Serbia and Montenegro at Aosta, Nov 26, 1972
p275
aVItaly v Serbia and Montenegro at Aosta, Nov 26, 1972
p276
aVItaly v Serbia and Montenegro at Aosta, Nov 26, 1972
p277
aVItaly v Serbia and Montenegro at Aosta, Nov 26, 1972
p278
aVItaly v Serbia and Montenegro at Aosta, Nov 26, 1972
p279
aVItaly v Serbia and Montenegro at Aosta, Nov 26, 1972
p280
aVPortugal v Italy at Coimbra, Feb 25, 1973
p281
aVPortugal v Italy at Coimbra, Feb 25, 1973
p282
aVPortugal v Italy at Coimbra, Feb 25, 1973
p283
aVPortugal v Italy at Coimbra, Feb 25, 1973
p284
aVZimbabwe v Italy at Harare, Jun 16, 1973
p285
aVZimbabwe v Italy at Harare, Jun 16, 1973
p286
aVZimbabwe v Italy at Harare, Jun 16, 1973
p287
aVZimbabwe v Italy at Harare, Jun 16, 1973
p288
aVZimbabwe v Italy at Harare, Jun 16, 1973
p289
aVLeopards v Italy at Potchefstroom, Jun 20, 1973
p290
aVBorder Bulldogs v Italy at East London, Jun 23, 1973
p291
aVBorder Bulldogs v Italy at East London, Jun 23, 1973
p292
aVBorder Bulldogs v Italy at East London, Jun 23, 1973
p293
aVNorth-Eastern Cape v Italy at Cradock, Jun 27, 1973
p294
aVNorth-Eastern Cape v Italy at Cradock, Jun 27, 1973
p295
aVNatal Sharks v Italy at Durban, Jun 30, 1973
p296
aVNorthern Free State v Italy at Welkom, Jul 9, 1973
p297
aVItaly v Czech Republic at Rovigo, Nov 4, 1973
p298
aVItaly v Czech Republic at Rovigo, Nov 4, 1973
p299
aVItaly v Czech Republic at Rovigo, Nov 4, 1973
p300
aVSerbia and Montenegro v Italy at Zagreb, Nov 11, 1973
p301
aVSerbia and Montenegro v Italy at Zagreb, Nov 11, 1973
p302
aVSerbia and Montenegro v Italy at Zagreb, Nov 11, 1973
p303
aVItaly v Australia XV at L'Aquila, Nov 21, 1973
p304
aVItaly v Australia XV at L'Aquila, Nov 21, 1973
p305
aVItaly v Australia XV at L'Aquila, Nov 21, 1973
p306
aVItaly v Australia XV at L'Aquila, Nov 21, 1973
p307
aVMiddlesex v Italy at London, Mar 15, 1974
p308
aVMiddlesex v Italy at London, Mar 15, 1974
p309
aVItaly v West Germany at Rho, May 5, 1974
p310
aVItaly v France XV at Rome, Feb 15, 1975
p311
aVSpain v Italy at Madrid, Apr 6, 1975
p312
aVRomania v Italy at Bucharest, Apr 27, 1975
p313
aVEngland Under-23s v Italy at Gosforth, Sep 13, 1975
p314
aVEngland Under-23s v Italy at Gosforth, Sep 13, 1975
p315
aVNetherlands v Italy at Apeldoorn, Nov 23, 1975
p316
aVNetherlands v Italy at Apeldoorn, Nov 23, 1975
p317
aVSpain v Italy at Madrid, Dec 20, 1975
p318
aVItaly v France XV at Milan, Feb 7, 1976
p319
aVItaly v Romania at Parma, Apr 24, 1976
p320
aVItaly v Japan at Padova, Oct 21, 1976
p321
aVItaly v Japan at Padova, Oct 21, 1976
p322
aVItaly v Spain at Rome, Nov 27, 1976
p323
aVItaly v Spain at Rome, Nov 27, 1976
p324
aVFrance XV v Italy at Grenoble, Feb 6, 1977
p325
aVMorocco v Italy at Casablanca, Mar 6, 1977
p326
aVMorocco v Italy at Casablanca, Mar 6, 1977
p327
aVMorocco v Italy at Casablanca, Mar 6, 1977
p328
aVMorocco v Italy at Casablanca, Mar 6, 1977
p329
aVRomania v Italy at Bucharest, May 1, 1977
p330
aVPoland v Italy at Warsaw, Oct 23, 1977
p331
aVPoland v Italy at Warsaw, Oct 23, 1977
p332
aVPoland v Italy at Warsaw, Oct 23, 1977
p333
aVPoland v Italy at Warsaw, Oct 23, 1977
p334
aVPoland v Italy at Warsaw, Oct 23, 1977
p335
aVPoland v Italy at Warsaw, Oct 23, 1977
p336
aVPoland v Italy at Warsaw, Oct 23, 1977
p337
aVCzech Republic v Italy at Prague, Oct 29, 1977
p338
aVCzech Republic v Italy at Prague, Oct 29, 1977
p339
aVCzech Republic v Italy at Prague, Oct 29, 1977
p340
aVItaly v Argentina at Rovigo, Oct 24, 1978
p341
aVItaly v Soviet Union at Rome, Nov 18, 1978
p342
aVItaly v Spain at Treviso, Dec 17, 1978
p343
aVItaly v Poland at L'Aquila, Apr 14, 1979
p344
aVItaly v Poland at L'Aquila, Apr 14, 1979
p345
aVItaly v Poland at L'Aquila, Apr 14, 1979
p346
aVItaly v Poland at L'Aquila, Apr 14, 1979
p347
aVRomania v Italy at Bucharest, Apr 22, 1979
p348
aVRomania v Italy at Bucharest, Apr 22, 1979
p349
aVItaly v England Under-23s at Brescia, May 16, 1979
p350
aVItaly v England Under-23s at Brescia, May 16, 1979
p351
aVItaly v England Under-23s at Brescia, May 16, 1979
p352
aVItaly v England Under-23s at Brescia, May 16, 1979
p353
aVItaly v Spain at Makarska, Sep 18, 1979
p354
aVItaly v Morocco at Makarska, Sep 20, 1979
p355
aVItaly v Morocco at Makarska, Sep 20, 1979
p356
aVPoland v Italy at Sochacewz, Sep 30, 1979
p357
aVFrance XV v Italy at Clermont-Ferrand, Feb 17, 1980
p358
aVFiji v Italy at Suva, Jun 14, 1980
p359
aVFiji v Italy at Suva, Jun 14, 1980
p360
aVJunior All Blacks v Italy at Auckland, Jul 5, 1980
p361
aVItaly v Soviet Union at Rovigo, Nov 2, 1980
p362
aVItaly v Soviet Union at Rovigo, Nov 2, 1980
p363
aVSpain v Italy at Madrid, Dec 21, 1980
p364
aVItaly v France XV at Rovigo, Mar 8, 1981
p365
aVItaly v France XV at Rovigo, Mar 8, 1981
p366
aVSoviet Union v Italy at Moscow, Oct 25, 1981
p367
aVSoviet Union v Italy at Moscow, Oct 25, 1981
p368
aVSoviet Union v Italy at Moscow, Oct 25, 1981
p369
aVSoviet Union v Italy at Moscow, Oct 25, 1981
p370
aVItaly v West Germany at Rovigo, Nov 29, 1981
p371
aVItaly v West Germany at Rovigo, Nov 29, 1981
p372
aVItaly v West Germany at Rovigo, Nov 29, 1981
p373
aVFrance XV v Italy at Carcassonne, Feb 21, 1982
p374
aVItaly v Romania at Rovigo, Apr 11, 1982
p375
aVItaly v England Under-23s at Padova, May 22, 1982
p376
aVMorocco v Italy at Casablanca, Dec 19, 1982
p377
aVRomania v Italy at Buzau, Apr 10, 1983
p378
aVCanada v Italy at Burnaby Lake, Jun 25, 1983
p379
aVCanada v Italy at Toronto, Jul 1, 1983
p380
aVItaly v Spain at Casablanca, Sep 7, 1983
p381
aVFrance XV v Italy at Chalon-sur-Saone, Feb 19, 1984
p382
aVFrance XV v Italy at Chalon-sur-Saone, Feb 19, 1984
p383
aVItaly v Romania at L'Aquila, Apr 22, 1984
p384
aVTunisia v Italy at Monastir, Oct 20, 1984
p385
aVItaly v France XV at Treviso, Mar 3, 1985
p386
aVItaly v France XV at Treviso, Mar 3, 1985
p387
aVRomania v Italy at Brasov, Apr 14, 1985
p388
aVRomania v Italy at Brasov, Apr 14, 1985
p389
aVItaly v Spain at Mantova, May 18, 1985
p390
aVItaly v Spain at Mantova, May 18, 1985
p391
aVZimbabwe v Italy at Bulawayo, Jun 22, 1985
p392
aVZimbabwe v Italy at Bulawayo, Jun 22, 1985
p393
aVZimbabwe v Italy at Bulawayo, Jun 22, 1985
p394
aVItaly v Romania at L'Aquila, Dec 7, 1985
p395
aVItaly v Romania at L'Aquila, Dec 7, 1985
p396
aVItaly v Romania at L'Aquila, Dec 7, 1985
p397
aVItaly v England XV at Rome, May 10, 1986
p398
aVPortugal v Italy at Lisbon, Jan 18, 1987
p399
aVItaly v France XV at Padova, Feb 22, 1987
p400
aVRomania v Italy at Constanta, Apr 12, 1987
p401
aVNew Zealand v Italy at Auckland, May 22, 1987
p402
aVSoviet Union v Italy at Kishinev, Nov 7, 1987
p403
aVSoviet Union v Italy at Kishinev, Nov 7, 1987
p404
aVSoviet Union v Italy at Kishinev, Nov 7, 1987
p405
aVSpain v Italy at Barcelona, Dec 5, 1987
p406
aVFrance XV v Italy at Monte Carlo, Feb 7, 1988
p407
aVFrance XV v Italy at Monte Carlo, Feb 7, 1988
p408
aVFrance XV v Italy at Monte Carlo, Feb 7, 1988
p409
aVFrance XV v Italy at Monte Carlo, Feb 7, 1988
p410
aVItaly v Romania at Milan, Apr 2, 1988
p411
aVItaly v Soviet Union at Treviso, Nov 5, 1988
p412
aVIreland v Italy at Lansdowne Road, Dec 31, 1988
p413
aVIreland v Italy at Lansdowne Road, Dec 31, 1988
p414
aVIreland v Italy at Lansdowne Road, Dec 31, 1988
p415
aVItaly v France XV at Brescia, Feb 19, 1989
p416
aVItaly v France XV at Brescia, Feb 19, 1989
p417
aVItaly v France XV at Brescia, Feb 19, 1989
p418
aVRomania v Italy at Bucharest, Apr 15, 1989
p419
aVRomania v Italy at Bucharest, Apr 15, 1989
p420
aVItaly v Zimbabwe at Treviso, Sep 30, 1989
p421
aVItaly v Zimbabwe at Treviso, Sep 30, 1989
p422
aVItaly v Zimbabwe at Treviso, Sep 30, 1989
p423
aVItaly v Zimbabwe at Treviso, Sep 30, 1989
p424
aVItaly v Poland at Naples, Apr 7, 1990
p425
aVItaly v Poland at Naples, Apr 7, 1990
p426
aVItaly v Poland at Naples, Apr 7, 1990
p427
aVItaly v Spain at Rovigo, Sep 30, 1990
p428
aVItaly v Spain at Rovigo, Sep 30, 1990
p429
aVItaly v Spain at Rovigo, Sep 30, 1990
p430
aVItaly v Netherlands at Treviso, Oct 3, 1990
p431
aVItaly v Romania at Padova, Oct 7, 1990
p432
aVItaly v Romania at Padova, Oct 7, 1990
p433
aVItaly v Soviet Union at Rovigo, Nov 24, 1990
p434
aVFrance v Argentina at Toulouse, Nov 14, 1982
p435
aVArgentina v Chile at Montevideo, Oct 10, 1989
p436
aVNamibia v Italy at Windhoek, Jun 15, 1991
p437
aVItaly v New Zealand at Leicester, Oct 13, 1991
p438
aVItaly v Romania at Rovigo, Apr 18, 1992
p439
aVItaly v Romania at Rovigo, Apr 18, 1992
p440
aVItaly v Romania at Rome, Oct 1, 1992
p441
aVArgentina v Australia at Buenos Aires, Nov 7, 1987
p442
aVItaly v Romania at Rome, Oct 1, 1992
p443
aVItaly v Romania at Rome, Oct 1, 1992
p444
aVScotland A v Italy at Melrose, Dec 19, 1992
p445
aVScotland A v Italy at Melrose, Dec 19, 1992
p446
aVSpain v Italy at Madrid, Feb 14, 1993
p447
aVItaly v France XV at Treviso, Feb 20, 1993
p448
aVPortugal v Italy at Coimbra, Apr 17, 1993
p449
aVPortugal v Italy at Coimbra, Apr 17, 1993
p450
aVPortugal v Italy at Coimbra, Apr 17, 1993
p451
aVPortugal v Italy at Coimbra, Apr 17, 1993
p452
aVPortugal v Italy at Coimbra, Apr 17, 1993
p453
aVPortugal v Italy at Coimbra, Apr 17, 1993
p454
aVPortugal v Italy at Coimbra, Apr 17, 1993
p455
aVCroatia v Italy at Perpignan, Jun 17, 1993
p456
aVCroatia v Italy at Perpignan, Jun 17, 1993
p457
aVRussia v Italy at Moscow, Nov 6, 1993
p458
aVRussia v Italy at Moscow, Nov 6, 1993
p459
aVItaly v Scotland A at Rovigo, Dec 18, 1993
p460
aVItaly v Scotland A at Rovigo, Dec 18, 1993
p461
aVItaly v Spain at Parma, May 7, 1994
p462
aVItaly v Spain at Parma, May 7, 1994
p463
aVItaly v Spain at Parma, May 7, 1994
p464
aVRomania v Italy at Bucharest, May 14, 1994
p465
a.