(lp1
S'Enrico Allevi'
p2
aS'Tommaso Altissimi'
p3
aS'Aldo Balducci'
p4
aS'Vittorio Barzaghi'
p5
aS'Ottavio Bottonelli'
p6
aS'Luigi Bricchi'
p7
aS'Lucio Cesani'
p8
aS'Domenico Dondana'
p9
aS'Giovanni Dora'
p10
aS'Alberto Modonesi'
p11
aS'Piero Paselli'
p12
aS'Carlo Raffo'
p13
aS'Paolo Vinci II'
p14
aS'Francesco Vinci III'
p15
aS'Pietro Vinci IV'
p16
aS'Amando Nisti'
p17
aS'Giovanni Paolin'
p18
aS'Eugenio Vinci I'
p19
aS'Giuseppe Bigi'
p20
aS'Alberto di Bello'
p21
aS'Angelo Morimondi'
p22
aS'Ernesto Nathan'
p23
aS'Giuseppe Sessa'
p24
aS'Amerigo Centinari'
p25
aS'Leandro Tagliabue'
p26
aS'Ivan Aloisio'
p27
aS'Aurelio Cazzini'
p28
aS'Felice Colombo'
p29
aS'Alberto Crespi'
p30
aS'Giuseppe Gattoni'
p31
aS'Renzo Maffioli'
p32
aS'Umberto Moretti'
p33
aS'Ferdinando Tozzi'
p34
aS'Fernando Trebbi'
p35
aS'Riccardo Aymonod'
p36
aS'Giogio Bortolini'
p37
aS'Mario Campagna'
p38
aS'Arrigo Marescalchi'
p39
aS'Eraldo Sgorbati'
p40
aS'Ariosto Agosti'
p41
aS'Luigi Brighetti'
p42
aS'Gastone de Angelis'
p43
aS'Angelo Albonico'
p44
aS'Giuseppe Piana'
p45
aS'Giancarlo Zani'
p46
aS'Orlando Maestri'
p47
aS'Giuseppe Visentin'
p48
aS'Carlo Carloni'
p49
aS'Riccardo Centinari'
p50
aS'Renato de Marchis'
p51
aS'Filippo Caccia Dominioni'
p52
aS'Giulio Rizzoli'
p53
aS'Vincenzo Bertolotto'
p54
aS'Sandro Bonfante'
p55
aS'Tommaso Fattori'
p56
aS'Arturo re Garbagnati'
p57
aS'Guglielmo Zoffoli'
p58
aS'Angelo Becca'
p59
aS"Carlo d'Alessio"
p60
aS'Renato Paciucci'
p61
aS'Torriglio Carraro'
p62
aS'Sandro Vigliano'
p63
aS'Renato Bevilacqua'
p64
aS'Renzo Cova'
p65
aS'Ugo Stenta'
p66
aS'Giuseppe Testoni'
p67
aS'Cesare Ghezzi'
p68
aS'Genesio Bonati'
p69
aS'Lorenzo Clerici'
p70
aS'Orazio Bracaglia'
p71
aS'Mario Dotti IV'
p72
aS'Adolfo Francese'
p73
aS'Mario Gorni'
p74
aS'Ausonio Alacevich'
p75
aS'Valerio Vagnetti'
p76
aS'Mario Battaglini'
p77
aS'Luigi Bossi'
p78
aS'Arturo Costa'
p79
aS'Buby Farinelli'
p80
aS'Gianni Figari'
p81
aS'Eros Cicognani'
p82
aS'Ettore Parmiggiani'
p83
aS'Guido Romano'
p84
aS'Piero Romano'
p85
aS'Enrico Zanetti'
p86
aS'Giuseppe Sessi'
p87
aS'Aldo Battagion'
p88
aS'Francesco Battaglini'
p89
aS'Vittorio Borsetto'
p90
aS'Carlo de Vecchi'
p91
aS'Umberto Faccioli'
p92
aS'Enrico Fava'
p93
aS'Renzo Maini'
p94
aS'Italo Mattacchini'
p95
aS'Giuseppe Molinari'
p96
aS'Paolo Rosi'
p97
aS'Enrico Rossini'
p98
aS'Pietro Stievano'
p99
aS'Temistocle Tedeschi'
p100
aS'Vittorio Vicariotto'
p101
aS'Sergio Barilari'
p102
aS'Luciano Bove'
p103
aS'Giovanni Favretto'
p104
aS'Piero Gabrielli'
p105
aS'Primo Masci'
p106
aS'Fulvio Pitorri'
p107
aS'Silvano Tartaglini'
p108
aS'Mario Pisaneschi'
p109
aS'Giovanni Bonino'
p110
aS'Giogio Dagnini'
p111
aS'Sergio Lanfranchi'
p112
aS'Piero Marini'
p113
aS'Umberto Silvestri'
p114
aS'Mario Turcato'
p115
aS'Angelo Arrigoni'
p116
aS'Giulio Cherubini'
p117
aS'Gianni del Bono'
p118
aS'Paolo Favaretto'
p119
aS'Romildo Gabanella'
p120
aS'Rodolfo Giuliani'
p121
aS'Fausto Perrone'
p122
aS'Leonardo Riccioni'
p123
aS'Paolo Dari'
p124
aS'Gianni Aiolfi'
p125
aS'Aldo Cecchetto-Milani'
p126
aS'Lamberto de Santis'
p127
aS'Giorgio Fornari'
p128
aS'Enzo Gerosa'
p129
aS'Francis Martinenghi'
p130
aS'Riccardo Santopadre'
p131
aS'Luciano Turcato'
p132
aS'Carlo Zucchi'
p133
aS'Giorgio Grasselli'
p134
aS'Mimmo Mancini'
p135
aS'Emilio Andina'
p136
aS'Mario Percudani'
p137
aS'Giancarlo Malosti'
p138
aS'Nando Barbini'
p139
aS'Romano Bettarello'
p140
aS'Gianfranco Zanchi'
p141
aS'Italo Scodavolpe'
p142
aS'Remo Zanatta'
p143
aS'Sergio Silvestri'
p144
aS'Andrea Taveggia'
p145
aS'Alberto Comin'
p146
aS'Antonio Danieli'
p147
aS'Ciano Luise I'
p148
aS'Aldo Mioni'
p149
aS'Gianni Riccardi'
p150
aS'Matteo Silini'
p151
aS'Ivano Ponchia'
p152
aS'Maurizio Carli'
p153
aS'Franco Perrini'
p154
aS'Gastone Cecchetto'
p155
aS'Franco Frelich'
p156
aS'Carlo Cantoni'
p157
aS'Lollo Levorato'
p158
aS'Paolo Pescetto'
p159
aS'Giovanni Raisi'
p160
aS'Ferdinando Sartorato'
p161
aS'Lamberto Simonelli'
p162
aS'Arturo Zucchello'
p163
aS'Giuseppe Bottacin'
p164
aS'Guglielmo Geremia'
p165
aS'Guglielmo Colussi'
p166
aS'Natale Molari'
p167
aS'Enrico Saibene'
p168
aS'Sergio Brusin'
p169
aS'Giancarlo Busson'
p170
aS'Giancarlo Navarrini'
p171
aS'Riccardo Saetti'
p172
aS'Luciano Valtorta'
p173
aS'Ottorino Bettarello'
p174
aS'Enzo Bellinazzo'
p175
aS'Gastone Biadene'
p176
aS'Massimo Braga'
p177
aS'Antonio di Zitti'
p178
aS'Paolo Quintavalla'
p179
aS'Pietro Sguario'
p180
aS'Lucio Avigo'
p181
aS'Roberto Luise III'
p182
aS'Roberto Martini'
p183
aS'Zefferino Rossi'
p184
aS'Alfio Angioli'
p185
aS'Gian Maria del Bono'
p186
aS'Elio Fusco'
p187
aS'Basilio Rovelli'
p188
aS'Franco Zani'
p189
aS'Angelo Autore'
p190
aS'Erasmo Augeri'
p191
aS'Giorgio Troncon'
p192
aS'Vittorio Ambron'
p193
aS'Giorgio Ricciarelli'
p194
aS'Marco Bollesan'
p195
aS'Giancarlo Degli Antoni'
p196
aS'Franco Piccinini'
p197
aS'Giuseppe Martini'
p198
aS'Ivo Mazzucchelli'
p199
aS'Gianni Romagnoli'
p200
aS'Carlo Salmaso'
p201
aS'Domenico Armellin'
p202
aS'Umberto Conforto'
p203
aS'Ettore Giugovaz'
p204
aS'Franco Mazzantini'
p205
aS'Romano Sciacol'
p206
aS'Francesco Soro II'
p207
aS'Eugenio Speziali'
p208
aS"Andrea d'Alberton"
p209
aS"Oreste Vene'"
p210
aS'Gastone Giani'
p211
aS'Luciano Modonesi'
p212
aS'Loreto Cucchiarelli'
p213
aS'Carlo Prosperini'
p214
aS'Franco Gargiulo'
p215
aS'Adriano Agujari'
p216
aS'Luciano Bosciano'
p217
aS'Franco Cioni'
p218
aS'Mauro Gatto'
p219
aS'Giampiero Ricci'
p220
aS'Uriele Silvestri'
p221
aS'Dalmazio Bertoli'
p222
aS'Maurizio Bocconcelli'
p223
aS'Mauro Mattei'
p224
aS'Roberto Cinelli'
p225
aS'Massimo Gini'
p226
aS'Giuseppe Giorgio'
p227
aS'Marco Pulli'
p228
aS'Ettore Abbiati'
p229
aS'Claudio Della Valle'
p230
aS'Fernando Pignotti'
p231
aS'Erminio Sgorbati'
p232
aS'Adolfo Gerardo'
p233
aS'Andrea Miele'
p234
aS'Franco Valier'
p235
aS'Maurizio Finocchi'
p236
aS'Walter Rista'
p237
aS'Lucio Boccaletto'
p238
aS"Raffaele D'Orazio"
p239
aS'Pierluigi Pacifici'
p240
aS'Luigi Bettella'
p241
aS'Italo Vittorini'
p242
aS'Alessandro Brunelli'
p243
aS'Elio Michelon'
p244
aS'Giancarlo Delli Ficorilli'
p245
aS'Rocco Caligiuri'
p246
aS'Gianmatteo Cecchin'
p247
aS'Lelio Lazzarini'
p248
aS'Guido Porzio'
p249
aS'Corrado Possamai'
p250
aS'Luigi Bernabo'
p251
aS'Angelo Sagramora'
p252
aS'Aldo Caluzzi'
p253
aS'Pietro Monfeli'
p254
aS'Isidoro Quaglio'
p255
aS'Angelo Visentin'
p256
aS'Umberto Cossara'
p257
aS'Francesco di Maura'
p258
aS'Francesco Dotto'
p259
aS'Loris Salsi'
p260
aS'Giuseppe Puglisi'
p261
aS'Romano Baraldi'
p262
aS'Savino Colombini'
p263
aS'Ettore Piras'
p264
aS'Faustino Crepaz'
p265
aS'Agostino Puppo'
p266
aS'Giancarlo Cecotti'
p267
aS'Mario Galletto'
p268
aS'Paolo Paoletti'
p269
aS'Giovanni di Cola'
p270
aS'Ambrogio Bona'
p271
aS'Franco Paganelli'
p272
aS'Salvatore Bonetti'
p273
aS'Elio de Anna'
p274
aS'Adriano Fedrigo'
p275
aS'Nello Francescato'
p276
aS'Fabio Gargiullo'
p277
aS'Manrico Marchetto'
p278
aS'Francesco Vialetto'
p279
aS'Giorgio Lari'
p280
aS'Edano Cottafava'
p281
aS'Paolo Fedrigo'
p282
aS'Mario Piovan'
p283
aS'Crescenzo Vitelli'
p284
aS'Anacleto Altigieri'
p285
aS'Gerardo Cinti'
p286
aS'Gilberto Luchini'
p287
aS'Andrea Selvaggio'
p288
aS'Antonio Spagnoli'
p289
aS'Antonio Rocca'
p290
aS'Arturo Bergamasco'
p291
aS'Renzo Ganzerla'
p292
aS'Luigi Mattarolo'
p293
aS'Fabio Molinari'
p294
aS'Marco Pitorri'
p295
aS'Carlo Loranzi'
p296
aS'Paolo Gargiullo'
p297
aS'Franco Baraldi'
p298
aS'Giancarlo Checchinato'
p299
aS'Ennio Ponzi'
p300
aS'Nino Rossi'
p301
aS'Raffaello Salvan'
p302
aS'Pietro Vezzani'
p303
aS'Bernadino di Cola'
p304
aS'Antonio Tassin'
p305
aS'Mauro Zingarelli'
p306
aS'Giancarlo Cucchiella'
p307
aS'Pasquale Presutti'
p308
aS'Edoardo Scalzotto'
p309
aS'Evelino Aio'
p310
aS'Fiorenzo Blessano'
p311
aS'Fulvio di Carlo'
p312
aS'Paolo Ferracin'
p313
aS'Pierluigi Camiscioni'
p314
aS'Antonio Falancia'
p315
aS'Gianni Franceschini'
p316
aS'Fabrizio Gaetaniello'
p317
aS'Eusebio Passarotto'
p318
aS'Giorgio Morelli'
p319
aS'Paolo Mariani'
p320
aS'Narcisio Zanella'
p321
aS'Ercole Manni'
p322
aS'Rino Francescato'
p323
aS'Claudio Appiani'
p324
aS'Serafino Ghizzoni'
p325
aS'Massimo Mascioletti'
p326
aS'Sabatino Pace'
p327
aS'Andrea Rinaldo'
p328
aS'Alessandro Zanella'
p329
aS'Carlo Casagrande'
p330
aS'Giuseppe Artuso'
p331
aS'Crescenzo Bentivoglio'
p332
aS'Luciano Borsetto'
p333
aS'Oscar Collodo'
p334
aS'Andrea Lijoi'
p335
aS'Paolo Pavesi'
p336
aS'Lucio Pelliccione'
p337
aS'Bruno Francescato'
p338
aS'Nick Screnci'
p339
aS'Loredano Zuin'
p340
aS'Claudio Robazza'
p341
aS'Giafranco Barbini'
p342
aS'Bruno Ancillotti'
p343
aS'Stefano Bettarello'
p344
aS'Luciano Catotti'
p345
aS'Donato Daldoss'
p346
aS'Giorgio Fanton'
p347
aS'Luca Bonaiti'
p348
aS'Giancarlo Pivetta'
p349
aS'Concetto Angelozzi'
p350
aS'Franco Bargelli'
p351
aS'Louis Basei'
p352
aS'Gianluca Limone'
p353
aS'Fulvio Lorigiola'
p354
aS'Andrea Angrisani'
p355
aS'Fabio Trentin'
p356
aS'Massimo Trippitelli'
p357
aS'Claudio Torresan'
p358
aS'Stefano Annibal'
p359
aS'Fabrizio Sintich'
p360
aS'Claudio Tinari'
p361
aS'Renato de Bernardo'
p362
aS'Mario Pavin'
p363
aS'Fabio Gaetaniello'
p364
aS'Alberto Osti'
p365
aS'Gianni Zanon'
p366
aS'Mauro Gardin'
p367
aS'Claudio Jannone'
p368
aS'Guido Rossi'
p369
aS'Alessandro Ghini'
p370
aS'Andrea Azzali'
p371
aS'Marzio Innocenti'
p372
aS'Giancarlo Morelli'
p373
aS'Claudio Colusso'
p374
aS'Mario Nicolosi'
p375
aS'Alessandro Fusco'
p376
aS'Stefano Romagnoli'
p377
aS'Antonio Colella'
p378
aS'Luigi de Joanni'
p379
aS'Edgardo Venturi'
p380
aS'Luca Pelliccione'
p381
aS'Mario Fumei'
p382
aS'Giovanni Petralia'
p383
aS'Mariano Crescenzo'
p384
aS'Mauro Quaglio'
p385
aS'Raffaele Dolfato'
p386
aS'Roberto Corvo'
p387
aS'Franco Berni'
p388
aS'Stefano Barba'
p389
aS'Antonio Galeazzo'
p390
aS'Filipo Vittadello'
p391
aS'Francesco Salvadego'
p392
aS'Daniele Tebaldi'
p393
aS'Stefano Boccazzi'
p394
aS'Sergio Appiani'
p395
aS'Luigi Troiani'
p396
aS'Sergio Zorzi'
p397
aS'Alvise Russo'
p398
aS'Marcello Cuttitta'
p399
aS'Piergianni Farina'
p400
aS'Tito Lupini'
p401
aS'Rodolfo Ambrosio'
p402
aS'Francesco Pietrosanti'
p403
aS'Pietro Reale'
p404
aS'Luigi Salvati'
p405
aS'Carlo de Biase'
p406
aS'Massimo Bonomi'
p407
aS'Corrado Covi'
p408
aS'Roberto Favaro'
p409
aS'Moreno Trevisiol'
p410
aS'Carlo Pratichetti'
p411
aS'Roberto Saetti'
p412
aS'Massimo Brunello'
p413
aS'Giulio Morelli'
p414
aS'Vittorio Pesce'
p415
aS'Luigi Capitani'
p416
aS'Giovanni Grespan'
p417
aS'Enrico Ceselin'
p418
aS'Guido Porcellato'
p419
aS'Alessandro Caranci'
p420
aS'Massimo Bimbati'
p421
aS'Mose de Stefani'
p422
aS'Pierpaolo Pedroni'
p423
aS'Massimo Giovanelli'
p424
aS'Massimo Cuttitta'
p425
aS'Franco Properzi-Curti'
p426
aS'Mauro Tommasi'
p427
aS'Umberto Casellato'
p428
aS'Carlo Checchinato'
p429
aS'Giambattista Croci'
p430
aS'Massimo Goti'
p431
aS'Stefano Bordon'
p432
aS'Ivan Francescato'
p433
aS'Antonio Piazza'
p434
aS'Gustavo Milano'
p435
aS'Diego Dominguez'
p436
aS'Paolo Vaccari'
p437
aS'Alessandro Bottacchiari'
p438
aS'Walter Cristofoletto'
p439
aS'Daniele Sesenna'
p440
aS'Tito Ciccio'
p441
aS'Julian Gardner'
p442
aS'Mark Giacheri'
p443
aS'Ramiro Cassina'
p444
aS'Carlo Orlandi'
p445
aS'Stefano Rigo'
p446
aS'Piero Dotto'
p447
aS'Fabio Coppo'
p448
aS'Mauro dal Sie'
p449
aS'Hector de Marco'
p450
aS'Gabriel Filizzola'
p451
aS'Alessandro Moscardi'
p452
aS'Leonardo Perziano'
p453
aS"Giuliano Faltiba'"
p454
aS'Andrea Sgorlon'
p455
aS'Massimiliano Capuzzoni'
p456
aS'Massimo Ravazzolo'
p457
aS"Vittorio d'Anna"
p458
aS'Orazio Arancio'
p459
aS'Danilo Beretta'
p460
aS'Roberto Crotti'
p461
aS'Nicola Aldrovandi'
p462
aS'Claudio de Rossi'
p463
aS'Alessandro Troncon'
p464
aS'Javier Pertile'
p465
a.