(lp1
S'http://www.espnscrum.com/italy/rugby/player/3682.html'
p2
aS'http://www.espnscrum.com/italy/rugby/player/3683.html'
p3
aS'http://www.espnscrum.com/italy/rugby/player/3685.html'
p4
aS'http://www.espnscrum.com/italy/rugby/player/3686.html'
p5
aS'http://www.espnscrum.com/italy/rugby/player/3689.html'
p6
aS'http://www.espnscrum.com/italy/rugby/player/3690.html'
p7
aS'http://www.espnscrum.com/italy/rugby/player/3693.html'
p8
aS'http://www.espnscrum.com/italy/rugby/player/3695.html'
p9
aS'http://www.espnscrum.com/italy/rugby/player/3696.html'
p10
aS'http://www.espnscrum.com/italy/rugby/player/3701.html'
p11
aS'http://www.espnscrum.com/italy/rugby/player/3705.html'
p12
aS'http://www.espnscrum.com/italy/rugby/player/3706.html'
p13
aS'http://www.espnscrum.com/italy/rugby/player/3712.html'
p14
aS'http://www.espnscrum.com/italy/rugby/player/3713.html'
p15
aS'http://www.espnscrum.com/italy/rugby/player/3714.html'
p16
aS'http://www.espnscrum.com/italy/rugby/player/3702.html'
p17
aS'http://www.espnscrum.com/italy/rugby/player/3704.html'
p18
aS'http://www.espnscrum.com/italy/rugby/player/3711.html'
p19
aS'http://www.espnscrum.com/italy/rugby/player/3784.html'
p20
aS'http://www.espnscrum.com/italy/rugby/player/3788.html'
p21
aS'http://www.espnscrum.com/italy/rugby/player/3791.html'
p22
aS'http://www.espnscrum.com/italy/rugby/player/3792.html'
p23
aS'http://www.espnscrum.com/italy/rugby/player/3796.html'
p24
aS'http://www.espnscrum.com/italy/rugby/player/3787.html'
p25
aS'http://www.espnscrum.com/italy/rugby/player/3797.html'
p26
aS'http://www.espnscrum.com/italy/rugby/player/4084.html'
p27
aS'http://www.espnscrum.com/italy/rugby/player/4085.html'
p28
aS'http://www.espnscrum.com/italy/rugby/player/4086.html'
p29
aS'http://www.espnscrum.com/italy/rugby/player/4087.html'
p30
aS'http://www.espnscrum.com/italy/rugby/player/4088.html'
p31
aS'http://www.espnscrum.com/italy/rugby/player/4089.html'
p32
aS'http://www.espnscrum.com/italy/rugby/player/4090.html'
p33
aS'http://www.espnscrum.com/italy/rugby/player/4091.html'
p34
aS'http://www.espnscrum.com/italy/rugby/player/4092.html'
p35
aS'http://www.espnscrum.com/italy/rugby/player/4105.html'
p36
aS'http://www.espnscrum.com/italy/rugby/player/4107.html'
p37
aS'http://www.espnscrum.com/italy/rugby/player/4108.html'
p38
aS'http://www.espnscrum.com/italy/rugby/player/4109.html'
p39
aS'http://www.espnscrum.com/italy/rugby/player/4110.html'
p40
aS'http://www.espnscrum.com/italy/rugby/player/4104.html'
p41
aS'http://www.espnscrum.com/italy/rugby/player/4202.html'
p42
aS'http://www.espnscrum.com/italy/rugby/player/4203.html'
p43
aS'http://www.espnscrum.com/italy/rugby/player/4225.html'
p44
aS'http://www.espnscrum.com/italy/rugby/player/4236.html'
p45
aS'http://www.espnscrum.com/italy/rugby/player/4242.html'
p46
aS'http://www.espnscrum.com/italy/rugby/player/4276.html'
p47
aS'http://www.espnscrum.com/italy/rugby/player/4279.html'
p48
aS'http://www.espnscrum.com/italy/rugby/player/4296.html'
p49
aS'http://www.espnscrum.com/italy/rugby/player/4297.html'
p50
aS'http://www.espnscrum.com/italy/rugby/player/4298.html'
p51
aS'http://www.espnscrum.com/italy/rugby/player/4295.html'
p52
aS'http://www.espnscrum.com/italy/rugby/player/4300.html'
p53
aS'http://www.espnscrum.com/italy/rugby/player/4366.html'
p54
aS'http://www.espnscrum.com/italy/rugby/player/4367.html'
p55
aS'http://www.espnscrum.com/italy/rugby/player/4368.html'
p56
aS'http://www.espnscrum.com/italy/rugby/player/4369.html'
p57
aS'http://www.espnscrum.com/italy/rugby/player/4370.html'
p58
aS'http://www.espnscrum.com/italy/rugby/player/4498.html'
p59
aS'http://www.espnscrum.com/italy/rugby/player/4501.html'
p60
aS'http://www.espnscrum.com/italy/rugby/player/4503.html'
p61
aS'http://www.espnscrum.com/italy/rugby/player/4500.html'
p62
aS'http://www.espnscrum.com/italy/rugby/player/4506.html'
p63
aS'http://www.espnscrum.com/italy/rugby/player/4537.html'
p64
aS'http://www.espnscrum.com/italy/rugby/player/4539.html'
p65
aS'http://www.espnscrum.com/italy/rugby/player/4543.html'
p66
aS'http://www.espnscrum.com/italy/rugby/player/4544.html'
p67
aS'http://www.espnscrum.com/italy/rugby/player/4578.html'
p68
aS'http://www.espnscrum.com/italy/rugby/player/4695.html'
p69
aS'http://www.espnscrum.com/italy/rugby/player/4696.html'
p70
aS'http://www.espnscrum.com/italy/rugby/player/4710.html'
p71
aS'http://www.espnscrum.com/italy/rugby/player/4712.html'
p72
aS'http://www.espnscrum.com/italy/rugby/player/4713.html'
p73
aS'http://www.espnscrum.com/italy/rugby/player/4714.html'
p74
aS'http://www.espnscrum.com/italy/rugby/player/4709.html'
p75
aS'http://www.espnscrum.com/italy/rugby/player/4718.html'
p76
aS'http://www.espnscrum.com/italy/rugby/player/4742.html'
p77
aS'http://www.espnscrum.com/italy/rugby/player/4743.html'
p78
aS'http://www.espnscrum.com/italy/rugby/player/4746.html'
p79
aS'http://www.espnscrum.com/italy/rugby/player/4747.html'
p80
aS'http://www.espnscrum.com/italy/rugby/player/4748.html'
p81
aS'http://www.espnscrum.com/italy/rugby/player/4753.html'
p82
aS'http://www.espnscrum.com/italy/rugby/player/4758.html'
p83
aS'http://www.espnscrum.com/italy/rugby/player/4759.html'
p84
aS'http://www.espnscrum.com/italy/rugby/player/4760.html'
p85
aS'http://www.espnscrum.com/italy/rugby/player/4763.html'
p86
aS'http://www.espnscrum.com/italy/rugby/player/4761.html'
p87
aS'http://www.espnscrum.com/italy/rugby/player/5050.html'
p88
aS'http://www.espnscrum.com/italy/rugby/player/5051.html'
p89
aS'http://www.espnscrum.com/italy/rugby/player/5052.html'
p90
aS'http://www.espnscrum.com/italy/rugby/player/5053.html'
p91
aS'http://www.espnscrum.com/italy/rugby/player/5054.html'
p92
aS'http://www.espnscrum.com/italy/rugby/player/5055.html'
p93
aS'http://www.espnscrum.com/italy/rugby/player/5056.html'
p94
aS'http://www.espnscrum.com/italy/rugby/player/5057.html'
p95
aS'http://www.espnscrum.com/italy/rugby/player/5058.html'
p96
aS'http://www.espnscrum.com/italy/rugby/player/5059.html'
p97
aS'http://www.espnscrum.com/italy/rugby/player/5060.html'
p98
aS'http://www.espnscrum.com/italy/rugby/player/5061.html'
p99
aS'http://www.espnscrum.com/italy/rugby/player/5062.html'
p100
aS'http://www.espnscrum.com/italy/rugby/player/5063.html'
p101
aS'http://www.espnscrum.com/italy/rugby/player/5068.html'
p102
aS'http://www.espnscrum.com/italy/rugby/player/5069.html'
p103
aS'http://www.espnscrum.com/italy/rugby/player/5070.html'
p104
aS'http://www.espnscrum.com/italy/rugby/player/5071.html'
p105
aS'http://www.espnscrum.com/italy/rugby/player/5072.html'
p106
aS'http://www.espnscrum.com/italy/rugby/player/5074.html'
p107
aS'http://www.espnscrum.com/italy/rugby/player/5075.html'
p108
aS'http://www.espnscrum.com/italy/rugby/player/5073.html'
p109
aS'http://www.espnscrum.com/italy/rugby/player/5167.html'
p110
aS'http://www.espnscrum.com/italy/rugby/player/5168.html'
p111
aS'http://www.espnscrum.com/italy/rugby/player/5169.html'
p112
aS'http://www.espnscrum.com/italy/rugby/player/5170.html'
p113
aS'http://www.espnscrum.com/italy/rugby/player/5171.html'
p114
aS'http://www.espnscrum.com/italy/rugby/player/5173.html'
p115
aS'http://www.espnscrum.com/italy/rugby/player/5174.html'
p116
aS'http://www.espnscrum.com/italy/rugby/player/5175.html'
p117
aS'http://www.espnscrum.com/italy/rugby/player/5397.html'
p118
aS'http://www.espnscrum.com/italy/rugby/player/5400.html'
p119
aS'http://www.espnscrum.com/italy/rugby/player/5403.html'
p120
aS'http://www.espnscrum.com/italy/rugby/player/5405.html'
p121
aS'http://www.espnscrum.com/italy/rugby/player/5409.html'
p122
aS'http://www.espnscrum.com/italy/rugby/player/5413.html'
p123
aS'http://www.espnscrum.com/italy/rugby/player/5396.html'
p124
aS'http://www.espnscrum.com/italy/rugby/player/5539.html'
p125
aS'http://www.espnscrum.com/italy/rugby/player/5540.html'
p126
aS'http://www.espnscrum.com/italy/rugby/player/5541.html'
p127
aS'http://www.espnscrum.com/italy/rugby/player/5542.html'
p128
aS'http://www.espnscrum.com/italy/rugby/player/5543.html'
p129
aS'http://www.espnscrum.com/italy/rugby/player/5544.html'
p130
aS'http://www.espnscrum.com/italy/rugby/player/5545.html'
p131
aS'http://www.espnscrum.com/italy/rugby/player/5546.html'
p132
aS'http://www.espnscrum.com/italy/rugby/player/5547.html'
p133
aS'http://www.espnscrum.com/italy/rugby/player/5548.html'
p134
aS'http://www.espnscrum.com/italy/rugby/player/5549.html'
p135
aS'http://www.espnscrum.com/italy/rugby/player/5559.html'
p136
aS'http://www.espnscrum.com/italy/rugby/player/5561.html'
p137
aS'http://www.espnscrum.com/italy/rugby/player/5688.html'
p138
aS'http://www.espnscrum.com/italy/rugby/player/5690.html'
p139
aS'http://www.espnscrum.com/italy/rugby/player/5691.html'
p140
aS'http://www.espnscrum.com/italy/rugby/player/5693.html'
p141
aS'http://www.espnscrum.com/italy/rugby/player/5814.html'
p142
aS'http://www.espnscrum.com/italy/rugby/player/5816.html'
p143
aS'http://www.espnscrum.com/italy/rugby/player/5818.html'
p144
aS'http://www.espnscrum.com/italy/rugby/player/5819.html'
p145
aS'http://www.espnscrum.com/italy/rugby/player/5911.html'
p146
aS'http://www.espnscrum.com/italy/rugby/player/5912.html'
p147
aS'http://www.espnscrum.com/italy/rugby/player/5914.html'
p148
aS'http://www.espnscrum.com/italy/rugby/player/5915.html'
p149
aS'http://www.espnscrum.com/italy/rugby/player/5916.html'
p150
aS'http://www.espnscrum.com/italy/rugby/player/5917.html'
p151
aS'http://www.espnscrum.com/italy/rugby/player/5924.html'
p152
aS'http://www.espnscrum.com/italy/rugby/player/5946.html'
p153
aS'http://www.espnscrum.com/italy/rugby/player/5947.html'
p154
aS'http://www.espnscrum.com/italy/rugby/player/5948.html'
p155
aS'http://www.espnscrum.com/italy/rugby/player/5987.html'
p156
aS'http://www.espnscrum.com/italy/rugby/player/6036.html'
p157
aS'http://www.espnscrum.com/italy/rugby/player/6037.html'
p158
aS'http://www.espnscrum.com/italy/rugby/player/6040.html'
p159
aS'http://www.espnscrum.com/italy/rugby/player/6041.html'
p160
aS'http://www.espnscrum.com/italy/rugby/player/6042.html'
p161
aS'http://www.espnscrum.com/italy/rugby/player/6043.html'
p162
aS'http://www.espnscrum.com/italy/rugby/player/6045.html'
p163
aS'http://www.espnscrum.com/italy/rugby/player/6047.html'
p164
aS'http://www.espnscrum.com/italy/rugby/player/6048.html'
p165
aS'http://www.espnscrum.com/italy/rugby/player/6129.html'
p166
aS'http://www.espnscrum.com/italy/rugby/player/6132.html'
p167
aS'http://www.espnscrum.com/italy/rugby/player/6133.html'
p168
aS'http://www.espnscrum.com/italy/rugby/player/6190.html'
p169
aS'http://www.espnscrum.com/italy/rugby/player/6191.html'
p170
aS'http://www.espnscrum.com/italy/rugby/player/6192.html'
p171
aS'http://www.espnscrum.com/italy/rugby/player/6193.html'
p172
aS'http://www.espnscrum.com/italy/rugby/player/6194.html'
p173
aS'http://www.espnscrum.com/italy/rugby/player/6251.html'
p174
aS'http://www.espnscrum.com/italy/rugby/player/6337.html'
p175
aS'http://www.espnscrum.com/italy/rugby/player/6338.html'
p176
aS'http://www.espnscrum.com/italy/rugby/player/6339.html'
p177
aS'http://www.espnscrum.com/italy/rugby/player/6340.html'
p178
aS'http://www.espnscrum.com/italy/rugby/player/6344.html'
p179
aS'http://www.espnscrum.com/italy/rugby/player/6346.html'
p180
aS'http://www.espnscrum.com/italy/rugby/player/6379.html'
p181
aS'http://www.espnscrum.com/italy/rugby/player/6380.html'
p182
aS'http://www.espnscrum.com/italy/rugby/player/6381.html'
p183
aS'http://www.espnscrum.com/italy/rugby/player/6382.html'
p184
aS'http://www.espnscrum.com/italy/rugby/player/6498.html'
p185
aS'http://www.espnscrum.com/italy/rugby/player/6499.html'
p186
aS'http://www.espnscrum.com/italy/rugby/player/6500.html'
p187
aS'http://www.espnscrum.com/italy/rugby/player/6502.html'
p188
aS'http://www.espnscrum.com/italy/rugby/player/6503.html'
p189
aS'http://www.espnscrum.com/italy/rugby/player/6566.html'
p190
aS'http://www.espnscrum.com/italy/rugby/player/6679.html'
p191
aS'http://www.espnscrum.com/italy/rugby/player/6682.html'
p192
aS'http://www.espnscrum.com/italy/rugby/player/6694.html'
p193
aS'http://www.espnscrum.com/italy/rugby/player/6696.html'
p194
aS'http://www.espnscrum.com/italy/rugby/player/6804.html'
p195
aS'http://www.espnscrum.com/italy/rugby/player/6805.html'
p196
aS'http://www.espnscrum.com/italy/rugby/player/6808.html'
p197
aS'http://www.espnscrum.com/italy/rugby/player/6991.html'
p198
aS'http://www.espnscrum.com/italy/rugby/player/6992.html'
p199
aS'http://www.espnscrum.com/italy/rugby/player/6993.html'
p200
aS'http://www.espnscrum.com/italy/rugby/player/6994.html'
p201
aS'http://www.espnscrum.com/italy/rugby/player/7067.html'
p202
aS'http://www.espnscrum.com/italy/rugby/player/7068.html'
p203
aS'http://www.espnscrum.com/italy/rugby/player/7070.html'
p204
aS'http://www.espnscrum.com/italy/rugby/player/7071.html'
p205
aS'http://www.espnscrum.com/italy/rugby/player/7072.html'
p206
aS'http://www.espnscrum.com/italy/rugby/player/7073.html'
p207
aS'http://www.espnscrum.com/italy/rugby/player/7074.html'
p208
aS'http://www.espnscrum.com/italy/rugby/player/7107.html'
p209
aS'http://www.espnscrum.com/italy/rugby/player/7110.html'
p210
aS'http://www.espnscrum.com/italy/rugby/player/7149.html'
p211
aS'http://www.espnscrum.com/italy/rugby/player/7150.html'
p212
aS'http://www.espnscrum.com/italy/rugby/player/7151.html'
p213
aS'http://www.espnscrum.com/italy/rugby/player/7152.html'
p214
aS'http://www.espnscrum.com/italy/rugby/player/7218.html'
p215
aS'http://www.espnscrum.com/italy/rugby/player/7229.html'
p216
aS'http://www.espnscrum.com/italy/rugby/player/7230.html'
p217
aS'http://www.espnscrum.com/italy/rugby/player/7231.html'
p218
aS'http://www.espnscrum.com/italy/rugby/player/7232.html'
p219
aS'http://www.espnscrum.com/italy/rugby/player/7234.html'
p220
aS'http://www.espnscrum.com/italy/rugby/player/7236.html'
p221
aS'http://www.espnscrum.com/italy/rugby/player/7240.html'
p222
aS'http://www.espnscrum.com/italy/rugby/player/7241.html'
p223
aS'http://www.espnscrum.com/italy/rugby/player/7247.html'
p224
aS'http://www.espnscrum.com/italy/rugby/player/7372.html'
p225
aS'http://www.espnscrum.com/italy/rugby/player/7373.html'
p226
aS'http://www.espnscrum.com/italy/rugby/player/7374.html'
p227
aS'http://www.espnscrum.com/italy/rugby/player/7375.html'
p228
aS'http://www.espnscrum.com/italy/rugby/player/7455.html'
p229
aS'http://www.espnscrum.com/italy/rugby/player/7456.html'
p230
aS'http://www.espnscrum.com/italy/rugby/player/7457.html'
p231
aS'http://www.espnscrum.com/italy/rugby/player/7458.html'
p232
aS'http://www.espnscrum.com/italy/rugby/player/7469.html'
p233
aS'http://www.espnscrum.com/italy/rugby/player/7470.html'
p234
aS'http://www.espnscrum.com/italy/rugby/player/7472.html'
p235
aS'http://www.espnscrum.com/italy/rugby/player/7467.html'
p236
aS'http://www.espnscrum.com/italy/rugby/player/7471.html'
p237
aS'http://www.espnscrum.com/italy/rugby/player/7492.html'
p238
aS'http://www.espnscrum.com/italy/rugby/player/7493.html'
p239
aS'http://www.espnscrum.com/italy/rugby/player/7494.html'
p240
aS'http://www.espnscrum.com/italy/rugby/player/7519.html'
p241
aS'http://www.espnscrum.com/italy/rugby/player/7520.html'
p242
aS'http://www.espnscrum.com/italy/rugby/player/7522.html'
p243
aS'http://www.espnscrum.com/italy/rugby/player/7523.html'
p244
aS'http://www.espnscrum.com/italy/rugby/player/7564.html'
p245
aS'http://www.espnscrum.com/italy/rugby/player/7563.html'
p246
aS'http://www.espnscrum.com/italy/rugby/player/7639.html'
p247
aS'http://www.espnscrum.com/italy/rugby/player/7640.html'
p248
aS'http://www.espnscrum.com/italy/rugby/player/7642.html'
p249
aS'http://www.espnscrum.com/italy/rugby/player/7643.html'
p250
aS'http://www.espnscrum.com/italy/rugby/player/7644.html'
p251
aS'http://www.espnscrum.com/italy/rugby/player/7646.html'
p252
aS'http://www.espnscrum.com/italy/rugby/player/7680.html'
p253
aS'http://www.espnscrum.com/italy/rugby/player/7681.html'
p254
aS'http://www.espnscrum.com/italy/rugby/player/7683.html'
p255
aS'http://www.espnscrum.com/italy/rugby/player/7684.html'
p256
aS'http://www.espnscrum.com/italy/rugby/player/7727.html'
p257
aS'http://www.espnscrum.com/italy/rugby/player/7728.html'
p258
aS'http://www.espnscrum.com/italy/rugby/player/7729.html'
p259
aS'http://www.espnscrum.com/italy/rugby/player/7730.html'
p260
aS'http://www.espnscrum.com/italy/rugby/player/7740.html'
p261
aS'http://www.espnscrum.com/italy/rugby/player/7745.html'
p262
aS'http://www.espnscrum.com/italy/rugby/player/7747.html'
p263
aS'http://www.espnscrum.com/italy/rugby/player/7750.html'
p264
aS'http://www.espnscrum.com/italy/rugby/player/7892.html'
p265
aS'http://www.espnscrum.com/italy/rugby/player/7896.html'
p266
aS'http://www.espnscrum.com/italy/rugby/player/7903.html'
p267
aS'http://www.espnscrum.com/italy/rugby/player/7906.html'
p268
aS'http://www.espnscrum.com/italy/rugby/player/7907.html'
p269
aS'http://www.espnscrum.com/italy/rugby/player/7915.html'
p270
aS'http://www.espnscrum.com/italy/rugby/player/7917.html'
p271
aS'http://www.espnscrum.com/italy/rugby/player/7919.html'
p272
aS'http://www.espnscrum.com/italy/rugby/player/7969.html'
p273
aS'http://www.espnscrum.com/italy/rugby/player/7970.html'
p274
aS'http://www.espnscrum.com/italy/rugby/player/7972.html'
p275
aS'http://www.espnscrum.com/italy/rugby/player/7973.html'
p276
aS'http://www.espnscrum.com/italy/rugby/player/7974.html'
p277
aS'http://www.espnscrum.com/italy/rugby/player/7976.html'
p278
aS'http://www.espnscrum.com/italy/rugby/player/7978.html'
p279
aS'http://www.espnscrum.com/italy/rugby/player/7975.html'
p280
aS'http://www.espnscrum.com/italy/rugby/player/8028.html'
p281
aS'http://www.espnscrum.com/italy/rugby/player/8029.html'
p282
aS'http://www.espnscrum.com/italy/rugby/player/8032.html'
p283
aS'http://www.espnscrum.com/italy/rugby/player/8036.html'
p284
aS'http://www.espnscrum.com/italy/rugby/player/8080.html'
p285
aS'http://www.espnscrum.com/italy/rugby/player/8082.html'
p286
aS'http://www.espnscrum.com/italy/rugby/player/8083.html'
p287
aS'http://www.espnscrum.com/italy/rugby/player/8084.html'
p288
aS'http://www.espnscrum.com/italy/rugby/player/8085.html'
p289
aS'http://www.espnscrum.com/italy/rugby/player/8086.html'
p290
aS'http://www.espnscrum.com/italy/rugby/player/8088.html'
p291
aS'http://www.espnscrum.com/italy/rugby/player/8089.html'
p292
aS'http://www.espnscrum.com/italy/rugby/player/8092.html'
p293
aS'http://www.espnscrum.com/italy/rugby/player/8095.html'
p294
aS'http://www.espnscrum.com/italy/rugby/player/8096.html'
p295
aS'http://www.espnscrum.com/italy/rugby/player/8100.html'
p296
aS'http://www.espnscrum.com/italy/rugby/player/8104.html'
p297
aS'http://www.espnscrum.com/italy/rugby/player/8165.html'
p298
aS'http://www.espnscrum.com/italy/rugby/player/8166.html'
p299
aS'http://www.espnscrum.com/italy/rugby/player/8167.html'
p300
aS'http://www.espnscrum.com/italy/rugby/player/8176.html'
p301
aS'http://www.espnscrum.com/italy/rugby/player/8177.html'
p302
aS'http://www.espnscrum.com/italy/rugby/player/8178.html'
p303
aS'http://www.espnscrum.com/italy/rugby/player/8184.html'
p304
aS'http://www.espnscrum.com/italy/rugby/player/8186.html'
p305
aS'http://www.espnscrum.com/italy/rugby/player/8187.html'
p306
aS'http://www.espnscrum.com/italy/rugby/player/8183.html'
p307
aS'http://www.espnscrum.com/italy/rugby/player/8221.html'
p308
aS'http://www.espnscrum.com/italy/rugby/player/8222.html'
p309
aS'http://www.espnscrum.com/italy/rugby/player/8233.html'
p310
aS'http://www.espnscrum.com/italy/rugby/player/8354.html'
p311
aS'http://www.espnscrum.com/italy/rugby/player/8382.html'
p312
aS'http://www.espnscrum.com/italy/rugby/player/8383.html'
p313
aS'http://www.espnscrum.com/italy/rugby/player/8414.html'
p314
aS'http://www.espnscrum.com/italy/rugby/player/8415.html'
p315
aS'http://www.espnscrum.com/italy/rugby/player/8453.html'
p316
aS'http://www.espnscrum.com/italy/rugby/player/8454.html'
p317
aS'http://www.espnscrum.com/italy/rugby/player/8462.html'
p318
aS'http://www.espnscrum.com/italy/rugby/player/8491.html'
p319
aS'http://www.espnscrum.com/italy/rugby/player/8518.html'
p320
aS'http://www.espnscrum.com/italy/rugby/player/8638.html'
p321
aS'http://www.espnscrum.com/italy/rugby/player/8637.html'
p322
aS'http://www.espnscrum.com/italy/rugby/player/8651.html'
p323
aS'http://www.espnscrum.com/italy/rugby/player/8650.html'
p324
aS'http://www.espnscrum.com/italy/rugby/player/8664.html'
p325
aS'http://www.espnscrum.com/italy/rugby/player/8671.html'
p326
aS'http://www.espnscrum.com/italy/rugby/player/8672.html'
p327
aS'http://www.espnscrum.com/italy/rugby/player/8673.html'
p328
aS'http://www.espnscrum.com/italy/rugby/player/8674.html'
p329
aS'http://www.espnscrum.com/italy/rugby/player/8700.html'
p330
aS'http://www.espnscrum.com/italy/rugby/player/8767.html'
p331
aS'http://www.espnscrum.com/italy/rugby/player/8768.html'
p332
aS'http://www.espnscrum.com/italy/rugby/player/8769.html'
p333
aS'http://www.espnscrum.com/italy/rugby/player/8770.html'
p334
aS'http://www.espnscrum.com/italy/rugby/player/8771.html'
p335
aS'http://www.espnscrum.com/italy/rugby/player/8772.html'
p336
aS'http://www.espnscrum.com/italy/rugby/player/8773.html'
p337
aS'http://www.espnscrum.com/italy/rugby/player/8785.html'
p338
aS'http://www.espnscrum.com/italy/rugby/player/8790.html'
p339
aS'http://www.espnscrum.com/italy/rugby/player/8791.html'
p340
aS'http://www.espnscrum.com/italy/rugby/player/8890.html'
p341
aS'http://www.espnscrum.com/italy/rugby/player/8901.html'
p342
aS'http://www.espnscrum.com/italy/rugby/player/8911.html'
p343
aS'http://www.espnscrum.com/italy/rugby/player/8949.html'
p344
aS'http://www.espnscrum.com/italy/rugby/player/8950.html'
p345
aS'http://www.espnscrum.com/italy/rugby/player/8951.html'
p346
aS'http://www.espnscrum.com/italy/rugby/player/8952.html'
p347
aS'http://www.espnscrum.com/italy/rugby/player/8955.html'
p348
aS'http://www.espnscrum.com/italy/rugby/player/8956.html'
p349
aS'http://www.espnscrum.com/italy/rugby/player/8966.html'
p350
aS'http://www.espnscrum.com/italy/rugby/player/8967.html'
p351
aS'http://www.espnscrum.com/italy/rugby/player/8968.html'
p352
aS'http://www.espnscrum.com/italy/rugby/player/8969.html'
p353
aS'http://www.espnscrum.com/italy/rugby/player/9025.html'
p354
aS'http://www.espnscrum.com/italy/rugby/player/9026.html'
p355
aS'http://www.espnscrum.com/italy/rugby/player/9029.html'
p356
aS'http://www.espnscrum.com/italy/rugby/player/9054.html'
p357
aS'http://www.espnscrum.com/italy/rugby/player/9116.html'
p358
aS'http://www.espnscrum.com/italy/rugby/player/9204.html'
p359
aS'http://www.espnscrum.com/italy/rugby/player/9207.html'
p360
aS'http://www.espnscrum.com/italy/rugby/player/9217.html'
p361
aS'http://www.espnscrum.com/italy/rugby/player/9287.html'
p362
aS'http://www.espnscrum.com/italy/rugby/player/9288.html'
p363
aS'http://www.espnscrum.com/italy/rugby/player/9294.html'
p364
aS'http://www.espnscrum.com/italy/rugby/player/9315.html'
p365
aS'http://www.espnscrum.com/italy/rugby/player/9316.html'
p366
aS'http://www.espnscrum.com/italy/rugby/player/9379.html'
p367
aS'http://www.espnscrum.com/italy/rugby/player/9381.html'
p368
aS'http://www.espnscrum.com/italy/rugby/player/9382.html'
p369
aS'http://www.espnscrum.com/italy/rugby/player/9380.html'
p370
aS'http://www.espnscrum.com/italy/rugby/player/9392.html'
p371
aS'http://www.espnscrum.com/italy/rugby/player/9394.html'
p372
aS'http://www.espnscrum.com/italy/rugby/player/9395.html'
p373
aS'http://www.espnscrum.com/italy/rugby/player/9422.html'
p374
aS'http://www.espnscrum.com/italy/rugby/player/9446.html'
p375
aS'http://www.espnscrum.com/italy/rugby/player/9456.html'
p376
aS'http://www.espnscrum.com/italy/rugby/player/9552.html'
p377
aS'http://www.espnscrum.com/italy/rugby/player/9573.html'
p378
aS'http://www.espnscrum.com/italy/rugby/player/9602.html'
p379
aS'http://www.espnscrum.com/italy/rugby/player/9610.html'
p380
aS'http://www.espnscrum.com/italy/rugby/player/9648.html'
p381
aS'http://www.espnscrum.com/italy/rugby/player/9732.html'
p382
aS'http://www.espnscrum.com/italy/rugby/player/9733.html'
p383
aS'http://www.espnscrum.com/italy/rugby/player/9744.html'
p384
aS'http://www.espnscrum.com/italy/rugby/player/9802.html'
p385
aS'http://www.espnscrum.com/italy/rugby/player/9852.html'
p386
aS'http://www.espnscrum.com/italy/rugby/player/9851.html'
p387
aS'http://www.espnscrum.com/italy/rugby/player/9861.html'
p388
aS'http://www.espnscrum.com/italy/rugby/player/9860.html'
p389
aS'http://www.espnscrum.com/italy/rugby/player/9891.html'
p390
aS'http://www.espnscrum.com/italy/rugby/player/9895.html'
p391
aS'http://www.espnscrum.com/italy/rugby/player/9933.html'
p392
aS'http://www.espnscrum.com/italy/rugby/player/9934.html'
p393
aS'http://www.espnscrum.com/italy/rugby/player/9930.html'
p394
aS'http://www.espnscrum.com/italy/rugby/player/9980.html'
p395
aS'http://www.espnscrum.com/italy/rugby/player/9983.html'
p396
aS'http://www.espnscrum.com/italy/rugby/player/9985.html'
p397
aS'http://www.espnscrum.com/italy/rugby/player/10023.html'
p398
aS'http://www.espnscrum.com/italy/rugby/player/10144.html'
p399
aS'http://www.espnscrum.com/italy/rugby/player/10159.html'
p400
aS'http://www.espnscrum.com/italy/rugby/player/10169.html'
p401
aS'http://www.espnscrum.com/italy/rugby/player/10188.html'
p402
aS'http://www.espnscrum.com/italy/rugby/player/10310.html'
p403
aS'http://www.espnscrum.com/italy/rugby/player/10313.html'
p404
aS'http://www.espnscrum.com/italy/rugby/player/10315.html'
p405
aS'http://www.espnscrum.com/italy/rugby/player/10328.html'
p406
aS'http://www.espnscrum.com/italy/rugby/player/10346.html'
p407
aS'http://www.espnscrum.com/italy/rugby/player/10347.html'
p408
aS'http://www.espnscrum.com/italy/rugby/player/10348.html'
p409
aS'http://www.espnscrum.com/italy/rugby/player/10349.html'
p410
aS'http://www.espnscrum.com/italy/rugby/player/10363.html'
p411
aS'http://www.espnscrum.com/italy/rugby/player/10496.html'
p412
aS'http://www.espnscrum.com/italy/rugby/player/10523.html'
p413
aS'http://www.espnscrum.com/italy/rugby/player/10526.html'
p414
aS'http://www.espnscrum.com/italy/rugby/player/10528.html'
p415
aS'http://www.espnscrum.com/italy/rugby/player/10524.html'
p416
aS'http://www.espnscrum.com/italy/rugby/player/10535.html'
p417
aS'http://www.espnscrum.com/italy/rugby/player/10534.html'
p418
aS'http://www.espnscrum.com/italy/rugby/player/10547.html'
p419
aS'http://www.espnscrum.com/italy/rugby/player/10545.html'
p420
aS'http://www.espnscrum.com/italy/rugby/player/10639.html'
p421
aS'http://www.espnscrum.com/italy/rugby/player/10640.html'
p422
aS'http://www.espnscrum.com/italy/rugby/player/10576.html'
p423
aS'http://www.espnscrum.com/italy/rugby/player/10641.html'
p424
aS'http://www.espnscrum.com/italy/rugby/player/10737.html'
p425
aS'http://www.espnscrum.com/italy/rugby/player/10577.html'
p426
aS'http://www.espnscrum.com/italy/rugby/player/10740.html'
p427
aS'http://www.espnscrum.com/italy/rugby/player/10525.html'
p428
aS'http://www.espnscrum.com/italy/rugby/player/10893.html'
p429
aS'http://www.espnscrum.com/italy/rugby/player/10894.html'
p430
aS'http://www.espnscrum.com/italy/rugby/player/10898.html'
p431
aS'http://www.espnscrum.com/italy/rugby/player/10900.html'
p432
aS'http://www.espnscrum.com/italy/rugby/player/10902.html'
p433
aS'http://www.espnscrum.com/italy/rugby/player/10937.html'
p434
aS'http://www.espnscrum.com/italy/rugby/player/9519.html'
p435
aS'http://www.espnscrum.com/italy/rugby/player/10657.html'
p436
aS'http://www.espnscrum.com/italy/rugby/player/11021.html'
p437
aS'http://www.espnscrum.com/italy/rugby/player/11102.html'
p438
aS'http://www.espnscrum.com/italy/rugby/player/11161.html'
p439
aS'http://www.espnscrum.com/italy/rugby/player/11170.html'
p440
aS'http://www.espnscrum.com/italy/rugby/player/11306.html'
p441
aS'http://www.espnscrum.com/italy/rugby/player/10304.html'
p442
aS'http://www.espnscrum.com/italy/rugby/player/11308.html'
p443
aS'http://www.espnscrum.com/italy/rugby/player/11305.html'
p444
aS'http://www.espnscrum.com/italy/rugby/player/11073.html'
p445
aS'http://www.espnscrum.com/italy/rugby/player/11377.html'
p446
aS'http://www.espnscrum.com/italy/rugby/player/11405.html'
p447
aS'http://www.espnscrum.com/italy/rugby/player/11411.html'
p448
aS'http://www.espnscrum.com/italy/rugby/player/11424.html'
p449
aS'http://www.espnscrum.com/italy/rugby/player/11425.html'
p450
aS'http://www.espnscrum.com/italy/rugby/player/10413.html'
p451
aS'http://www.espnscrum.com/italy/rugby/player/11427.html'
p452
aS'http://www.espnscrum.com/italy/rugby/player/11428.html'
p453
aS'http://www.espnscrum.com/italy/rugby/player/11426.html'
p454
aS'http://www.espnscrum.com/italy/rugby/player/11429.html'
p455
aS'http://www.espnscrum.com/italy/rugby/player/11520.html'
p456
aS'http://www.espnscrum.com/italy/rugby/player/11522.html'
p457
aS'http://www.espnscrum.com/italy/rugby/player/11656.html'
p458
aS'http://www.espnscrum.com/italy/rugby/player/11653.html'
p459
aS'http://www.espnscrum.com/italy/rugby/player/11685.html'
p460
aS'http://www.espnscrum.com/italy/rugby/player/11686.html'
p461
aS'http://www.espnscrum.com/italy/rugby/player/11731.html'
p462
aS'http://www.espnscrum.com/italy/rugby/player/11734.html'
p463
aS'http://www.espnscrum.com/italy/rugby/player/11737.html'
p464
aS'http://www.espnscrum.com/italy/rugby/player/11753.html'
p465
a.