(lp1
VLock
p2
aVProp
p3
aVNo. 8
p4
aVLock
p5
aVHooker
p6
aVProp
p7
aVWing
p8
aVFullback
p9
aVCentre
p10
aVScrum-half
p11
aVFlanker
p12
aVProp
p13
aVCentre
p14
aVCentre
p15
aVCentre
p16
aVProp
p17
aV
aV
aVScrum-half
p18
aVHooker
p19
aVFullback
p20
aVCentre
p21
aVLock
p22
aV
aVProp
p23
aVNo. 8
p24
aVWing
p25
aVLock
p26
aVLock
p27
aVCentre
p28
aVCentre
p29
aVScrum-half
p30
aV
aVFullback
p31
aVFly-half
p32
aVProp
p33
aVScrum-half
p34
aVNo. 8
p35
aVFlanker
p36
aV
aVFlanker
p37
aVLock
p38
aVLock
p39
aVFly-half
p40
aVHooker
p41
aVProp
p42
aVFlanker
p43
aVFlanker
p44
aVFullback
p45
aVScrum-half
p46
aVFly-half
p47
aVCentre
p48
aVLock
p49
aVHooker
p50
aVProp
p51
aVNo. 8
p52
aVFullback
p53
aVCentre
p54
aVWing
p55
aVHooker
p56
aV
aVFlanker
p57
aVLock
p58
aVWing
p59
aVLock
p60
aVHooker
p61
aVScrum-half
p62
aVHooker
p63
aVFly-half
p64
aVProp
p65
aVWing
p66
aVFlanker
p67
aVHooker
p68
aV
aVFly-half
p69
aVFlanker
p70
aVFullback
p71
aVWing
p72
aVCentre
p73
aVProp
p74
aVNo. 8
p75
aVFly-half
p76
aVProp
p77
aVProp
p78
aVFlanker
p79
aV
aVScrum-half
p80
aVFlanker
p81
aVProp
p82
aVNo. 8
p83
aVFly-half
p84
aVCentre
p85
aVFlanker
p86
aVHooker
p87
aVProp
p88
aVCentre
p89
aVWing
p90
aVWing
p91
aVFullback
p92
aVLock
p93
aVLock
p94
aVLock
p95
aVProp
p96
aVFlanker
p97
aVFlanker
p98
aVWing
p99
aVFullback
p100
aVScrum-half
p101
aVFlanker
p102
aVScrum-half
p103
aVBack-row
p104
aVFly-half
p105
aVLock
p106
aVProp
p107
aVWing
p108
aVFlanker
p109
aVWing
p110
aVHooker
p111
aVProp
p112
aVNo. 8
p113
aVScrum-half
p114
aVLock
p115
aVLock
p116
aVNo. 8
p117
aVScrum-half
p118
aVHooker
p119
aVProp
p120
aVWing
p121
aVCentre
p122
aVFly-half
p123
aVProp
p124
aVCentre
p125
aVProp
p126
aVHooker
p127
aVCentre
p128
aVNo. 8
p129
aVFlanker
p130
aVFullback
p131
aVCentre
p132
aVNo. 8
p133
aVLock
p134
aVCentre
p135
aVWing
p136
aVProp
p137
aVCentre
p138
aVProp
p139
aVWing
p140
aVFly-half
p141
aVLock
p142
aVLock
p143
aVWing
p144
aVFly-half
p145
aVFullback
p146
aVCentre
p147
aVProp
p148
aVWing
p149
aVProp
p150
aVWing
p151
aVLock
p152
aVScrum-half
p153
aVCentre
p154
aVFly-half
p155
aVScrum-half
p156
aVProp
p157
aVFullback
p158
aVWing
p159
aVFly-half
p160
aVScrum-half
p161
aVFullback
p162
aVHooker
p163
aVLock
p164
aVFlanker
p165
aVScrum-half
p166
aVWing
p167
aVCentre
p168
aVScrum-half
p169
aVFlanker
p170
aVLock
p171
aVWing
p172
aVHooker
p173
aVCentre
p174
aVFly-half
p175
aVNo. 8
p176
aVProp
p177
aVWing
p178
aVScrum-half
p179
aVHooker
p180
aVLock
p181
aVFullback
p182
aVFly-half
p183
aVCentre
p184
aVWing
p185
aVLock
p186
aVNo. 8
p187
aVFlanker
p188
aVLock
p189
aVCentre
p190
aVLock
p191
aVProp
p192
aVWing
p193
aVProp
p194
aVScrum-half
p195
aVFullback
p196
aVProp
p197
aVCentre
p198
aVFly-half
p199
aVLock
p200
aVCentre
p201
aVHooker
p202
aVCentre
p203
aVFullback
p204
aVFlanker
p205
aVProp
p206
aVLock
p207
aVWing
p208
aVScrum-half
p209
aVFlanker
p210
aVCentre
p211
aVFly-half
p212
aVHooker
p213
aVLock
p214
aVProp
p215
aVWing
p216
aVFlanker
p217
aVProp
p218
aVNo. 8
p219
aVCentre
p220
aVProp
p221
aVCentre
p222
aVCentre
p223
aVFlanker
p224
aVHooker
p225
aVProp
p226
aVFlanker
p227
aVCentre
p228
aVWing
p229
aVFlanker
p230
aVHooker
p231
aVWing
p232
aVLock
p233
aV
aVHooker
p234
aVWing
p235
aVHooker
p236
aVFullback
p237
aVFly-half
p238
aVFullback
p239
aVLock
p240
aVProp
p241
aVLock
p242
aVScrum-half
p243
aVWing
p244
aVHooker
p245
aVLock
p246
aVScrum-half
p247
aVFlanker
p248
aVLock
p249
aVWing
p250
aVFlanker
p251
aVNo. 8
p252
aVWing
p253
aVProp
p254
aV
aVWing
p255
aVCentre
p256
aVNo. 8
p257
aVFly-half
p258
aVHooker
p259
aVCentre
p260
aVProp
p261
aV
aVNo. 8
p262
aVWing
p263
aVLock
p264
aVCentre
p265
aVCentre
p266
aVWing
p267
aVFullback
p268
aVFly-half
p269
aVWing
p270
aVProp
p271
aVLock
p272
aVHooker
p273
aVProp
p274
aVWing
p275
aVCentre
p276
aVWing
p277
aV
aVNo. 8
p278
aVFlanker
p279
aVWing
p280
aVFullback
p281
aVCentre
p282
aV
aVFlanker
p283
aVScrum-half
p284
aVFlanker
p285
aVLock
p286
aVFly-half
p287
aVWing
p288
aVCentre
p289
aVCentre
p290
aVCentre
p291
aVFlanker
p292
aVHooker
p293
aVProp
p294
aVProp
p295
aVCentre
p296
aVScrum-half
p297
aVCentre
p298
aVProp
p299
aVHooker
p300
aVLock
p301
aVScrum-half
p302
aVScrum-half
p303
aVFullback
p304
aV
aVHooker
p305
aVFlanker
p306
aVFlanker
p307
aVScrum-half
p308
aVCentre
p309
aVLock
p310
aVWing
p311
aVWing
p312
aVFlanker
p313
aVLock
p314
aVFullback
p315
aV
aVFlanker
p316
aVFullback
p317
aVProp
p318
aVFly-half
p319
aVLock
p320
aVHooker
p321
aVCentre
p322
aVCentre
p323
aVProp
p324
aVFly-half
p325
aVHooker
p326
aV
aVScrum-half
p327
aVFly-half
p328
aVNo. 8
p329
aVLock
p330
aV
aVWing
p331
aVHooker, Prop
p332
aVScrum-half
p333
aVFlanker
p334
aVLock
p335
aVCentre
p336
aVScrum-half
p337
aVNo. 8
p338
aVFly-half
p339
aVLock
p340
aVFullback
p341
aVLock
p342
aVFlanker
p343
aVNo. 8
p344
aVProp
p345
aVFlanker
p346
aVCentre
p347
aVWing
p348
aVFlanker
p349
aVLock
p350
aVFlanker
p351
aVProp
p352
aVScrum-half
p353
aVWing
p354
aVFlanker
p355
aVCentre
p356
aVCentre
p357
aVLock
p358
aVScrum-half
p359
aVProp
p360
aVLock
p361
aVCentre
p362
aVWing
p363
aVFlanker
p364
aVNo. 8
p365
aVLock
p366
aVScrum-half
p367
aVProp
p368
aVFlanker
p369
aVNo. 8
p370
aVLock
p371
aVCentre
p372
aVHooker
p373
aVFullback
p374
aVFlanker
p375
aVFullback
p376
aVScrum-half
p377
aVFlanker
p378
aVFullback
p379
aVCentre
p380
aVNo. 8
p381
aVWing
p382
aVFlanker
p383
aVProp
p384
aVCentre
p385
aVScrum-half
p386
aVFlanker
p387
aVWing
p388
aVWing
p389
aVCentre
p390
aVNo. 8
p391
aVLock
p392
aVHooker
p393
aVHooker
p394
aVFlanker
p395
aVWing
p396
aVCentre
p397
aVNo. 8
p398
aVFly-half
p399
aVProp
p400
aVWing
p401
aVFlanker
p402
aV
aVWing
p403
aVHooker
p404
aVLock, No. 8
p405
aVFlanker
p406
aVProp
p407
aVProp
p408
aVCentre
p409
aVScrum-half
p410
aVLock
p411
aVLock
p412
aVHooker
p413
aVCentre
p414
aVCentre
p415
aVProp
p416
aVLock
p417
aVFly-half
p418
aVCentre
p419
aVFlanker
p420
aVLock
p421
aVLock
p422
aVNo. 8
p423
aVFlanker
p424
aVFlanker
p425
aVLock
p426
aVHooker
p427
aVFlanker
p428
aVFullback
p429
aVNo. 8
p430
aVProp
p431
aVScrum-half, Fly-half
p432
aVCentre
p433
aVHooker
p434
aVWing
p435
aVScrum-half
p436
aVFlanker
p437
aVFlanker
p438
aVFullback, Wing
p439
aVWing
p440
aVFlanker
p441
aVFlanker
p442
aVWing
p443
aVCentre
p444
aVFlanker
p445
aVScrum-half
p446
aVFullback
p447
a.