(lp1
(dp2
S'Pens'
p3
S'0'
sS'Sub'
p4
S'1'
sS'Lost'
p5
S'1'
sS'Drop'
p6
S'0'
sS'Start'
p7
S'1'
sS'Won'
p8
S'1'
sS'GfM'
p9
S'0'
sS'Draw'
p10
S'0'
sS'Mat'
p11
S'2'
sS'Conv'
p12
S'0'
sS'Tries'
p13
S'0'
sS'Pts'
p14
S'0'
sa(dp15
S'Pens'
p16
S'0'
sS'Sub'
p17
S'0'
sS'Lost'
p18
S'1'
sS'Drop'
p19
S'0'
sS'Start'
p20
S'1'
sS'Won'
p21
S'0'
sS'GfM'
p22
S'0'
sS'Draw'
p23
S'0'
sS'Mat'
p24
S'1'
sS'Conv'
p25
S'0'
sS'Tries'
p26
S'0'
sS'Pts'
p27
S'0'
sa(dp28
S'Pens'
p29
S'0'
sS'Sub'
p30
S'0'
sS'Lost'
p31
S'1'
sS'Drop'
p32
S'0'
sS'Start'
p33
S'1'
sS'Won'
p34
S'0'
sS'GfM'
p35
S'0'
sS'Draw'
p36
S'0'
sS'Mat'
p37
S'1'
sS'Conv'
p38
S'0'
sS'Tries'
p39
S'0'
sS'Pts'
p40
S'0'
sa(dp41
S'Pens'
p42
S'0'
sS'Sub'
p43
S'0'
sS'Lost'
p44
S'1'
sS'Drop'
p45
S'0'
sS'Start'
p46
S'3'
sS'Won'
p47
S'2'
sS'GfM'
p48
S'0'
sS'Draw'
p49
S'0'
sS'Mat'
p50
S'3'
sS'Conv'
p51
S'0'
sS'Tries'
p52
S'0'
sS'Pts'
p53
S'0'
sa(dp54
S'Pens'
p55
S'1'
sS'Sub'
p56
S'0'
sS'Lost'
p57
S'4'
sS'Drop'
p58
S'0'
sS'Start'
p59
S'6'
sS'Won'
p60
S'2'
sS'GfM'
p61
S'0'
sS'Draw'
p62
S'0'
sS'Mat'
p63
S'6'
sS'Conv'
p64
S'0'
sS'Tries'
p65
S'0'
sS'Pts'
p66
S'3'
sa(dp67
S'Pens'
p68
S'0'
sS'Sub'
p69
S'1'
sS'Lost'
p70
S'1'
sS'Drop'
p71
S'0'
sS'Start'
p72
S'2'
sS'Won'
p73
S'2'
sS'GfM'
p74
S'0'
sS'Draw'
p75
S'0'
sS'Mat'
p76
S'3'
sS'Conv'
p77
S'0'
sS'Tries'
p78
S'0'
sS'Pts'
p79
S'0'
sa(dp80
S'Pens'
p81
S'0'
sS'Sub'
p82
S'0'
sS'Lost'
p83
S'2'
sS'Drop'
p84
S'0'
sS'Start'
p85
S'4'
sS'Won'
p86
S'2'
sS'GfM'
p87
S'0'
sS'Draw'
p88
S'0'
sS'Mat'
p89
S'4'
sS'Conv'
p90
S'0'
sS'Tries'
p91
S'0'
sS'Pts'
p92
S'0'
sa(dp93
S'Pens'
p94
S'0'
sS'Sub'
p95
S'0'
sS'Lost'
p96
S'1'
sS'Drop'
p97
S'0'
sS'Start'
p98
S'2'
sS'Won'
p99
S'1'
sS'GfM'
p100
S'0'
sS'Draw'
p101
S'0'
sS'Mat'
p102
S'2'
sS'Conv'
p103
S'0'
sS'Tries'
p104
S'0'
sS'Pts'
p105
S'0'
sa(dp106
S'Pens'
p107
S'0'
sS'Sub'
p108
S'0'
sS'Lost'
p109
S'1'
sS'Drop'
p110
S'0'
sS'Start'
p111
S'1'
sS'Won'
p112
S'0'
sS'GfM'
p113
S'0'
sS'Draw'
p114
S'0'
sS'Mat'
p115
S'1'
sS'Conv'
p116
S'0'
sS'Tries'
p117
S'0'
sS'Pts'
p118
S'0'
sa(dp119
S'Pens'
p120
S'0'
sS'Sub'
p121
S'0'
sS'Lost'
p122
S'1'
sS'Drop'
p123
S'0'
sS'Start'
p124
S'1'
sS'Won'
p125
S'0'
sS'GfM'
p126
S'0'
sS'Draw'
p127
S'0'
sS'Mat'
p128
S'1'
sS'Conv'
p129
S'0'
sS'Tries'
p130
S'0'
sS'Pts'
p131
S'0'
sa(dp132
S'Pens'
p133
S'0'
sS'Sub'
p134
S'0'
sS'Lost'
p135
S'1'
sS'Drop'
p136
S'0'
sS'Start'
p137
S'3'
sS'Won'
p138
S'2'
sS'GfM'
p139
S'0'
sS'Draw'
p140
S'0'
sS'Mat'
p141
S'3'
sS'Conv'
p142
S'0'
sS'Tries'
p143
S'0'
sS'Pts'
p144
S'0'
sa(dp145
S'Pens'
p146
S'0'
sS'Sub'
p147
S'0'
sS'Lost'
p148
S'1'
sS'Drop'
p149
S'0'
sS'Start'
p150
S'6'
sS'Won'
p151
S'4'
sS'GfM'
p152
S'0'
sS'Draw'
p153
S'1'
sS'Mat'
p154
S'6'
sS'Conv'
p155
S'0'
sS'Tries'
p156
S'0'
sS'Pts'
p157
S'0'
sa(dp158
S'Pens'
p159
S'0'
sS'Sub'
p160
S'0'
sS'Lost'
p161
S'1'
sS'Drop'
p162
S'0'
sS'Start'
p163
S'3'
sS'Won'
p164
S'2'
sS'GfM'
p165
S'0'
sS'Draw'
p166
S'0'
sS'Mat'
p167
S'3'
sS'Conv'
p168
S'0'
sS'Tries'
p169
S'1'
sS'Pts'
p170
S'3'
sa(dp171
S'Pens'
p172
S'0'
sS'Sub'
p173
S'0'
sS'Lost'
p174
S'6'
sS'Drop'
p175
S'2'
sS'Start'
p176
S'15'
p177
sS'Won'
p178
S'7'
sS'GfM'
p179
S'0'
sS'Draw'
p180
S'2'
sS'Mat'
p181
S'15'
p182
sS'Conv'
p183
S'0'
sS'Tries'
p184
S'4'
sS'Pts'
p185
S'20'
p186
sa(dp187
S'Pens'
p188
S'0'
sS'Sub'
p189
S'0'
sS'Lost'
p190
S'5'
sS'Drop'
p191
S'0'
sS'Start'
p192
S'13'
p193
sS'Won'
p194
S'7'
sS'GfM'
p195
S'0'
sS'Draw'
p196
S'1'
sS'Mat'
p197
S'13'
p198
sS'Conv'
p199
S'0'
sS'Tries'
p200
S'0'
sS'Pts'
p201
S'0'
sa(dp202
S'Pens'
p203
S'0'
sS'Sub'
p204
S'1'
sS'Lost'
p205
S'1'
sS'Drop'
p206
S'0'
sS'Start'
p207
S'1'
sS'Won'
p208
S'1'
sS'GfM'
p209
S'0'
sS'Draw'
p210
S'0'
sS'Mat'
p211
S'2'
sS'Conv'
p212
S'0'
sS'Tries'
p213
S'0'
sS'Pts'
p214
S'0'
sa(dp215
S'Pens'
p216
S'0'
sS'Sub'
p217
S'1'
sS'Lost'
p218
S'1'
sS'Drop'
p219
S'0'
sS'Start'
p220
S'0'
sS'Won'
p221
S'0'
sS'GfM'
p222
S'0'
sS'Draw'
p223
S'0'
sS'Mat'
p224
S'1'
sS'Conv'
p225
S'0'
sS'Tries'
p226
S'0'
sS'Pts'
p227
S'0'
sa(dp228
S'Pens'
p229
S'0'
sS'Sub'
p230
S'1'
sS'Lost'
p231
S'1'
sS'Drop'
p232
S'0'
sS'Start'
p233
S'0'
sS'Won'
p234
S'0'
sS'GfM'
p235
S'0'
sS'Draw'
p236
S'0'
sS'Mat'
p237
S'1'
sS'Conv'
p238
S'0'
sS'Tries'
p239
S'0'
sS'Pts'
p240
S'0'
sa(dp241
S'Pens'
p242
S'0'
sS'Sub'
p243
S'0'
sS'Lost'
p244
S'0'
sS'Drop'
p245
S'0'
sS'Start'
p246
S'2'
sS'Won'
p247
S'2'
sS'GfM'
p248
S'0'
sS'Draw'
p249
S'0'
sS'Mat'
p250
S'2'
sS'Conv'
p251
S'0'
sS'Tries'
p252
S'0'
sS'Pts'
p253
S'0'
sa(dp254
S'Pens'
p255
S'0'
sS'Sub'
p256
S'0'
sS'Lost'
p257
S'0'
sS'Drop'
p258
S'0'
sS'Start'
p259
S'4'
sS'Won'
p260
S'3'
sS'GfM'
p261
S'0'
sS'Draw'
p262
S'1'
sS'Mat'
p263
S'4'
sS'Conv'
p264
S'0'
sS'Tries'
p265
S'0'
sS'Pts'
p266
S'0'
sa(dp267
S'Pens'
p268
S'0'
sS'Sub'
p269
S'0'
sS'Lost'
p270
S'0'
sS'Drop'
p271
S'0'
sS'Start'
p272
S'4'
sS'Won'
p273
S'3'
sS'GfM'
p274
S'0'
sS'Draw'
p275
S'1'
sS'Mat'
p276
S'4'
sS'Conv'
p277
S'0'
sS'Tries'
p278
S'0'
sS'Pts'
p279
S'0'
sa(dp280
S'Pens'
p281
S'0'
sS'Sub'
p282
S'0'
sS'Lost'
p283
S'0'
sS'Drop'
p284
S'0'
sS'Start'
p285
S'1'
sS'Won'
p286
S'1'
sS'GfM'
p287
S'0'
sS'Draw'
p288
S'0'
sS'Mat'
p289
S'1'
sS'Conv'
p290
S'0'
sS'Tries'
p291
S'0'
sS'Pts'
p292
S'0'
sa(dp293
S'Pens'
p294
S'0'
sS'Sub'
p295
S'0'
sS'Lost'
p296
S'0'
sS'Drop'
p297
S'0'
sS'Start'
p298
S'1'
sS'Won'
p299
S'1'
sS'GfM'
p300
S'0'
sS'Draw'
p301
S'0'
sS'Mat'
p302
S'1'
sS'Conv'
p303
S'0'
sS'Tries'
p304
S'0'
sS'Pts'
p305
S'0'
sa(dp306
S'Pens'
p307
S'0'
sS'Sub'
p308
S'1'
sS'Lost'
p309
S'0'
sS'Drop'
p310
S'0'
sS'Start'
p311
S'0'
sS'Won'
p312
S'1'
sS'GfM'
p313
S'0'
sS'Draw'
p314
S'0'
sS'Mat'
p315
S'1'
sS'Conv'
p316
S'0'
sS'Tries'
p317
S'0'
sS'Pts'
p318
S'0'
sa(dp319
S'Pens'
p320
S'0'
sS'Sub'
p321
S'1'
sS'Lost'
p322
S'2'
sS'Drop'
p323
S'0'
sS'Start'
p324
S'6'
sS'Won'
p325
S'4'
sS'GfM'
p326
S'0'
sS'Draw'
p327
S'1'
sS'Mat'
p328
S'7'
sS'Conv'
p329
S'0'
sS'Tries'
p330
S'0'
sS'Pts'
p331
S'0'
sa(dp332
S'Pens'
p333
S'0'
sS'Sub'
p334
S'0'
sS'Lost'
p335
S'1'
sS'Drop'
p336
S'0'
sS'Start'
p337
S'7'
sS'Won'
p338
S'5'
sS'GfM'
p339
S'0'
sS'Draw'
p340
S'1'
sS'Mat'
p341
S'7'
sS'Conv'
p342
S'2'
sS'Tries'
p343
S'1'
sS'Pts'
p344
S'7'
sa(dp345
S'Pens'
p346
S'0'
sS'Sub'
p347
S'0'
sS'Lost'
p348
S'4'
sS'Drop'
p349
S'0'
sS'Start'
p350
S'15'
p351
sS'Won'
p352
S'9'
sS'GfM'
p353
S'0'
sS'Draw'
p354
S'2'
sS'Mat'
p355
S'15'
p356
sS'Conv'
p357
S'0'
sS'Tries'
p358
S'4'
sS'Pts'
p359
S'12'
p360
sa(dp361
S'Pens'
p362
S'0'
sS'Sub'
p363
S'0'
sS'Lost'
p364
S'0'
sS'Drop'
p365
S'0'
sS'Start'
p366
S'1'
sS'Won'
p367
S'1'
sS'GfM'
p368
S'0'
sS'Draw'
p369
S'0'
sS'Mat'
p370
S'1'
sS'Conv'
p371
S'0'
sS'Tries'
p372
S'0'
sS'Pts'
p373
S'0'
sa(dp374
S'Pens'
p375
S'0'
sS'Sub'
p376
S'0'
sS'Lost'
p377
S'1'
sS'Drop'
p378
S'0'
sS'Start'
p379
S'6'
sS'Won'
p380
S'4'
sS'GfM'
p381
S'0'
sS'Draw'
p382
S'1'
sS'Mat'
p383
S'6'
sS'Conv'
p384
S'0'
sS'Tries'
p385
S'0'
sS'Pts'
p386
S'0'
sa(dp387
S'Pens'
p388
S'0'
sS'Sub'
p389
S'0'
sS'Lost'
p390
S'0'
sS'Drop'
p391
S'0'
sS'Start'
p392
S'2'
sS'Won'
p393
S'2'
sS'GfM'
p394
S'0'
sS'Draw'
p395
S'0'
sS'Mat'
p396
S'2'
sS'Conv'
p397
S'0'
sS'Tries'
p398
S'0'
sS'Pts'
p399
S'0'
sa(dp400
S'Pens'
p401
S'0'
sS'Sub'
p402
S'0'
sS'Lost'
p403
S'2'
sS'Drop'
p404
S'1'
sS'Start'
p405
S'11'
p406
sS'Won'
p407
S'7'
sS'GfM'
p408
S'0'
sS'Draw'
p409
S'2'
sS'Mat'
p410
S'11'
p411
sS'Conv'
p412
S'0'
sS'Tries'
p413
S'2'
sS'Pts'
p414
S'10'
p415
sa(dp416
S'Pens'
p417
S'0'
sS'Sub'
p418
S'1'
sS'Lost'
p419
S'1'
sS'Drop'
p420
S'0'
sS'Start'
p421
S'6'
sS'Won'
p422
S'5'
sS'GfM'
p423
S'0'
sS'Draw'
p424
S'1'
sS'Mat'
p425
S'7'
sS'Conv'
p426
S'0'
sS'Tries'
p427
S'0'
sS'Pts'
p428
S'0'
sa(dp429
S'Pens'
p430
S'0'
sS'Sub'
p431
S'1'
sS'Lost'
p432
S'0'
sS'Drop'
p433
S'0'
sS'Start'
p434
S'0'
sS'Won'
p435
S'1'
sS'GfM'
p436
S'0'
sS'Draw'
p437
S'0'
sS'Mat'
p438
S'1'
sS'Conv'
p439
S'0'
sS'Tries'
p440
S'0'
sS'Pts'
p441
S'0'
sa(dp442
S'Pens'
p443
S'0'
sS'Sub'
p444
S'1'
sS'Lost'
p445
S'0'
sS'Drop'
p446
S'0'
sS'Start'
p447
S'1'
sS'Won'
p448
S'2'
sS'GfM'
p449
S'0'
sS'Draw'
p450
S'0'
sS'Mat'
p451
S'2'
sS'Conv'
p452
S'0'
sS'Tries'
p453
S'0'
sS'Pts'
p454
S'0'
sa(dp455
S'Pens'
p456
S'0'
sS'Sub'
p457
S'1'
sS'Lost'
p458
S'1'
sS'Drop'
p459
S'0'
sS'Start'
p460
S'3'
sS'Won'
p461
S'2'
sS'GfM'
p462
S'0'
sS'Draw'
p463
S'1'
sS'Mat'
p464
S'4'
sS'Conv'
p465
S'0'
sS'Tries'
p466
S'2'
sS'Pts'
p467
S'6'
sa(dp468
S'Pens'
p469
S'0'
sS'Sub'
p470
S'0'
sS'Lost'
p471
S'0'
sS'Drop'
p472
S'0'
sS'Start'
p473
S'2'
sS'Won'
p474
S'1'
sS'GfM'
p475
S'0'
sS'Draw'
p476
S'1'
sS'Mat'
p477
S'2'
sS'Conv'
p478
S'0'
sS'Tries'
p479
S'0'
sS'Pts'
p480
S'0'
sa(dp481
S'Pens'
p482
S'0'
sS'Sub'
p483
S'0'
sS'Lost'
p484
S'3'
sS'Drop'
p485
S'0'
sS'Start'
p486
S'8'
sS'Won'
p487
S'3'
sS'GfM'
p488
S'0'
sS'Draw'
p489
S'2'
sS'Mat'
p490
S'8'
sS'Conv'
p491
S'0'
sS'Tries'
p492
S'1'
sS'Pts'
p493
S'3'
sa(dp494
S'Pens'
p495
S'0'
sS'Sub'
p496
S'1'
sS'Lost'
p497
S'1'
sS'Drop'
p498
S'0'
sS'Start'
p499
S'2'
sS'Won'
p500
S'1'
sS'GfM'
p501
S'0'
sS'Draw'
p502
S'1'
sS'Mat'
p503
S'3'
sS'Conv'
p504
S'0'
sS'Tries'
p505
S'1'
sS'Pts'
p506
S'3'
sa(dp507
S'Pens'
p508
S'0'
sS'Sub'
p509
S'0'
sS'Lost'
p510
S'6'
sS'Drop'
p511
S'0'
sS'Start'
p512
S'12'
p513
sS'Won'
p514
S'5'
sS'GfM'
p515
S'0'
sS'Draw'
p516
S'1'
sS'Mat'
p517
S'12'
p518
sS'Conv'
p519
S'0'
sS'Tries'
p520
S'0'
sS'Pts'
p521
S'0'
sa(dp522
S'Pens'
p523
S'0'
sS'Sub'
p524
S'1'
sS'Lost'
p525
S'0'
sS'Drop'
p526
S'0'
sS'Start'
p527
S'0'
sS'Won'
p528
S'1'
sS'GfM'
p529
S'0'
sS'Draw'
p530
S'0'
sS'Mat'
p531
S'1'
sS'Conv'
p532
S'0'
sS'Tries'
p533
S'0'
sS'Pts'
p534
S'0'
sa(dp535
S'Pens'
p536
S'0'
sS'Sub'
p537
S'0'
sS'Lost'
p538
S'0'
sS'Drop'
p539
S'0'
sS'Start'
p540
S'1'
sS'Won'
p541
S'0'
sS'GfM'
p542
S'0'
sS'Draw'
p543
S'1'
sS'Mat'
p544
S'1'
sS'Conv'
p545
S'0'
sS'Tries'
p546
S'0'
sS'Pts'
p547
S'0'
sa(dp548
S'Pens'
p549
S'0'
sS'Sub'
p550
S'0'
sS'Lost'
p551
S'1'
sS'Drop'
p552
S'0'
sS'Start'
p553
S'5'
sS'Won'
p554
S'2'
sS'GfM'
p555
S'0'
sS'Draw'
p556
S'2'
sS'Mat'
p557
S'5'
sS'Conv'
p558
S'0'
sS'Tries'
p559
S'0'
sS'Pts'
p560
S'0'
sa(dp561
S'Pens'
p562
S'0'
sS'Sub'
p563
S'0'
sS'Lost'
p564
S'5'
sS'Drop'
p565
S'0'
sS'Start'
p566
S'10'
p567
sS'Won'
p568
S'4'
sS'GfM'
p569
S'0'
sS'Draw'
p570
S'1'
sS'Mat'
p571
S'10'
p572
sS'Conv'
p573
S'0'
sS'Tries'
p574
S'0'
sS'Pts'
p575
S'0'
sa(dp576
S'Pens'
p577
S'0'
sS'Sub'
p578
S'0'
sS'Lost'
p579
S'3'
sS'Drop'
p580
S'0'
sS'Start'
p581
S'6'
sS'Won'
p582
S'3'
sS'GfM'
p583
S'0'
sS'Draw'
p584
S'0'
sS'Mat'
p585
S'6'
sS'Conv'
p586
S'0'
sS'Tries'
p587
S'0'
sS'Pts'
p588
S'0'
sa(dp589
S'Pens'
p590
S'0'
sS'Sub'
p591
S'0'
sS'Lost'
p592
S'0'
sS'Drop'
p593
S'0'
sS'Start'
p594
S'1'
sS'Won'
p595
S'1'
sS'GfM'
p596
S'0'
sS'Draw'
p597
S'0'
sS'Mat'
p598
S'1'
sS'Conv'
p599
S'0'
sS'Tries'
p600
S'0'
sS'Pts'
p601
S'0'
sa(dp602
S'Pens'
p603
S'0'
sS'Sub'
p604
S'1'
sS'Lost'
p605
S'2'
sS'Drop'
p606
S'0'
sS'Start'
p607
S'2'
sS'Won'
p608
S'1'
sS'GfM'
p609
S'0'
sS'Draw'
p610
S'0'
sS'Mat'
p611
S'3'
sS'Conv'
p612
S'0'
sS'Tries'
p613
S'0'
sS'Pts'
p614
S'0'
sa(dp615
S'Pens'
p616
S'0'
sS'Sub'
p617
S'0'
sS'Lost'
p618
S'5'
sS'Drop'
p619
S'0'
sS'Start'
p620
S'9'
sS'Won'
p621
S'4'
sS'GfM'
p622
S'0'
sS'Draw'
p623
S'0'
sS'Mat'
p624
S'9'
sS'Conv'
p625
S'3'
sS'Tries'
p626
S'4'
sS'Pts'
p627
S'18'
p628
sa(dp629
S'Pens'
p630
S'0'
sS'Sub'
p631
S'0'
sS'Lost'
p632
S'1'
sS'Drop'
p633
S'0'
sS'Start'
p634
S'1'
sS'Won'
p635
S'0'
sS'GfM'
p636
S'0'
sS'Draw'
p637
S'0'
sS'Mat'
p638
S'1'
sS'Conv'
p639
S'0'
sS'Tries'
p640
S'0'
sS'Pts'
p641
S'0'
sa(dp642
S'Pens'
p643
S'0'
sS'Sub'
p644
S'0'
sS'Lost'
p645
S'4'
sS'Drop'
p646
S'0'
sS'Start'
p647
S'6'
sS'Won'
p648
S'2'
sS'GfM'
p649
S'0'
sS'Draw'
p650
S'0'
sS'Mat'
p651
S'6'
sS'Conv'
p652
S'0'
sS'Tries'
p653
S'0'
sS'Pts'
p654
S'0'
sa(dp655
S'Pens'
p656
S'0'
sS'Sub'
p657
S'0'
sS'Lost'
p658
S'1'
sS'Drop'
p659
S'0'
sS'Start'
p660
S'1'
sS'Won'
p661
S'0'
sS'GfM'
p662
S'0'
sS'Draw'
p663
S'0'
sS'Mat'
p664
S'1'
sS'Conv'
p665
S'0'
sS'Tries'
p666
S'0'
sS'Pts'
p667
S'0'
sa(dp668
S'Pens'
p669
S'0'
sS'Sub'
p670
S'1'
sS'Lost'
p671
S'2'
sS'Drop'
p672
S'0'
sS'Start'
p673
S'1'
sS'Won'
p674
S'0'
sS'GfM'
p675
S'0'
sS'Draw'
p676
S'0'
sS'Mat'
p677
S'2'
sS'Conv'
p678
S'0'
sS'Tries'
p679
S'0'
sS'Pts'
p680
S'0'
sa(dp681
S'Pens'
p682
S'0'
sS'Sub'
p683
S'1'
sS'Lost'
p684
S'2'
sS'Drop'
p685
S'0'
sS'Start'
p686
S'2'
sS'Won'
p687
S'1'
sS'GfM'
p688
S'0'
sS'Draw'
p689
S'0'
sS'Mat'
p690
S'3'
sS'Conv'
p691
S'2'
sS'Tries'
p692
S'0'
sS'Pts'
p693
S'4'
sa(dp694
S'Pens'
p695
S'0'
sS'Sub'
p696
S'0'
sS'Lost'
p697
S'3'
sS'Drop'
p698
S'0'
sS'Start'
p699
S'6'
sS'Won'
p700
S'2'
sS'GfM'
p701
S'0'
sS'Draw'
p702
S'1'
sS'Mat'
p703
S'6'
sS'Conv'
p704
S'0'
sS'Tries'
p705
S'0'
sS'Pts'
p706
S'0'
sa(dp707
S'Pens'
p708
S'0'
sS'Sub'
p709
S'0'
sS'Lost'
p710
S'1'
sS'Drop'
p711
S'0'
sS'Start'
p712
S'2'
sS'Won'
p713
S'1'
sS'GfM'
p714
S'0'
sS'Draw'
p715
S'0'
sS'Mat'
p716
S'2'
sS'Conv'
p717
S'0'
sS'Tries'
p718
S'0'
sS'Pts'
p719
S'0'
sa(dp720
S'Pens'
p721
S'0'
sS'Sub'
p722
S'0'
sS'Lost'
p723
S'5'
sS'Drop'
p724
S'0'
sS'Start'
p725
S'10'
p726
sS'Won'
p727
S'4'
sS'GfM'
p728
S'0'
sS'Draw'
p729
S'1'
sS'Mat'
p730
S'10'
p731
sS'Conv'
p732
S'0'
sS'Tries'
p733
S'0'
sS'Pts'
p734
S'0'
sa(dp735
S'Pens'
p736
S'0'
sS'Sub'
p737
S'0'
sS'Lost'
p738
S'6'
sS'Drop'
p739
S'0'
sS'Start'
p740
S'12'
p741
sS'Won'
p742
S'6'
sS'GfM'
p743
S'0'
sS'Draw'
p744
S'0'
sS'Mat'
p745
S'12'
p746
sS'Conv'
p747
S'0'
sS'Tries'
p748
S'1'
sS'Pts'
p749
S'3'
sa(dp750
S'Pens'
p751
S'0'
sS'Sub'
p752
S'0'
sS'Lost'
p753
S'3'
sS'Drop'
p754
S'0'
sS'Start'
p755
S'7'
sS'Won'
p756
S'3'
sS'GfM'
p757
S'0'
sS'Draw'
p758
S'1'
sS'Mat'
p759
S'7'
sS'Conv'
p760
S'0'
sS'Tries'
p761
S'0'
sS'Pts'
p762
S'0'
sa(dp763
S'Pens'
p764
S'0'
sS'Sub'
p765
S'0'
sS'Lost'
p766
S'1'
sS'Drop'
p767
S'0'
sS'Start'
p768
S'4'
sS'Won'
p769
S'2'
sS'GfM'
p770
S'0'
sS'Draw'
p771
S'1'
sS'Mat'
p772
S'4'
sS'Conv'
p773
S'0'
sS'Tries'
p774
S'0'
sS'Pts'
p775
S'0'
sa(dp776
S'Pens'
p777
S'0'
sS'Sub'
p778
S'0'
sS'Lost'
p779
S'3'
sS'Drop'
p780
S'0'
sS'Start'
p781
S'5'
sS'Won'
p782
S'1'
sS'GfM'
p783
S'0'
sS'Draw'
p784
S'1'
sS'Mat'
p785
S'5'
sS'Conv'
p786
S'0'
sS'Tries'
p787
S'2'
sS'Pts'
p788
S'6'
sa(dp789
S'Pens'
p790
S'0'
sS'Sub'
p791
S'0'
sS'Lost'
p792
S'1'
sS'Drop'
p793
S'0'
sS'Start'
p794
S'3'
sS'Won'
p795
S'1'
sS'GfM'
p796
S'0'
sS'Draw'
p797
S'1'
sS'Mat'
p798
S'3'
sS'Conv'
p799
S'0'
sS'Tries'
p800
S'0'
sS'Pts'
p801
S'0'
sa(dp802
S'Pens'
p803
S'0'
sS'Sub'
p804
S'1'
sS'Lost'
p805
S'0'
sS'Drop'
p806
S'0'
sS'Start'
p807
S'0'
sS'Won'
p808
S'0'
sS'GfM'
p809
S'0'
sS'Draw'
p810
S'1'
sS'Mat'
p811
S'1'
sS'Conv'
p812
S'0'
sS'Tries'
p813
S'0'
sS'Pts'
p814
S'0'
sa(dp815
S'Pens'
p816
S'4'
sS'Sub'
p817
S'1'
sS'Lost'
p818
S'1'
sS'Drop'
p819
S'0'
sS'Start'
p820
S'5'
sS'Won'
p821
S'4'
sS'GfM'
p822
S'0'
sS'Draw'
p823
S'1'
sS'Mat'
p824
S'6'
sS'Conv'
p825
S'6'
sS'Tries'
p826
S'2'
sS'Pts'
p827
S'30'
p828
sa(dp829
S'Pens'
p830
S'0'
sS'Sub'
p831
S'0'
sS'Lost'
p832
S'4'
sS'Drop'
p833
S'0'
sS'Start'
p834
S'9'
sS'Won'
p835
S'5'
sS'GfM'
p836
S'0'
sS'Draw'
p837
S'0'
sS'Mat'
p838
S'9'
sS'Conv'
p839
S'0'
sS'Tries'
p840
S'0'
sS'Pts'
p841
S'0'
sa(dp842
S'Pens'
p843
S'0'
sS'Sub'
p844
S'0'
sS'Lost'
p845
S'3'
sS'Drop'
p846
S'0'
sS'Start'
p847
S'7'
sS'Won'
p848
S'4'
sS'GfM'
p849
S'0'
sS'Draw'
p850
S'0'
sS'Mat'
p851
S'7'
sS'Conv'
p852
S'0'
sS'Tries'
p853
S'5'
sS'Pts'
p854
S'15'
p855
sa(dp856
S'Pens'
p857
S'0'
sS'Sub'
p858
S'0'
sS'Lost'
p859
S'4'
sS'Drop'
p860
S'0'
sS'Start'
p861
S'9'
sS'Won'
p862
S'5'
sS'GfM'
p863
S'0'
sS'Draw'
p864
S'0'
sS'Mat'
p865
S'9'
sS'Conv'
p866
S'0'
sS'Tries'
p867
S'1'
sS'Pts'
p868
S'3'
sa(dp869
S'Pens'
p870
S'0'
sS'Sub'
p871
S'0'
sS'Lost'
p872
S'1'
sS'Drop'
p873
S'0'
sS'Start'
p874
S'3'
sS'Won'
p875
S'2'
sS'GfM'
p876
S'0'
sS'Draw'
p877
S'0'
sS'Mat'
p878
S'3'
sS'Conv'
p879
S'0'
sS'Tries'
p880
S'0'
sS'Pts'
p881
S'0'
sa(dp882
S'Pens'
p883
S'0'
sS'Sub'
p884
S'0'
sS'Lost'
p885
S'3'
sS'Drop'
p886
S'0'
sS'Start'
p887
S'5'
sS'Won'
p888
S'2'
sS'GfM'
p889
S'0'
sS'Draw'
p890
S'0'
sS'Mat'
p891
S'5'
sS'Conv'
p892
S'0'
sS'Tries'
p893
S'0'
sS'Pts'
p894
S'0'
sa(dp895
S'Pens'
p896
S'0'
sS'Sub'
p897
S'1'
sS'Lost'
p898
S'1'
sS'Drop'
p899
S'0'
sS'Start'
p900
S'1'
sS'Won'
p901
S'1'
sS'GfM'
p902
S'0'
sS'Draw'
p903
S'0'
sS'Mat'
p904
S'2'
sS'Conv'
p905
S'0'
sS'Tries'
p906
S'0'
sS'Pts'
p907
S'0'
sa(dp908
S'Pens'
p909
S'0'
sS'Sub'
p910
S'0'
sS'Lost'
p911
S'1'
sS'Drop'
p912
S'0'
sS'Start'
p913
S'1'
sS'Won'
p914
S'0'
sS'GfM'
p915
S'0'
sS'Draw'
p916
S'0'
sS'Mat'
p917
S'1'
sS'Conv'
p918
S'0'
sS'Tries'
p919
S'0'
sS'Pts'
p920
S'0'
sa(dp921
S'Pens'
p922
S'0'
sS'Sub'
p923
S'0'
sS'Lost'
p924
S'0'
sS'Drop'
p925
S'0'
sS'Start'
p926
S'1'
sS'Won'
p927
S'1'
sS'GfM'
p928
S'0'
sS'Draw'
p929
S'0'
sS'Mat'
p930
S'1'
sS'Conv'
p931
S'0'
sS'Tries'
p932
S'0'
sS'Pts'
p933
S'0'
sa(dp934
S'Pens'
p935
S'0'
sS'Sub'
p936
S'0'
sS'Lost'
p937
S'1'
sS'Drop'
p938
S'0'
sS'Start'
p939
S'3'
sS'Won'
p940
S'2'
sS'GfM'
p941
S'0'
sS'Draw'
p942
S'0'
sS'Mat'
p943
S'3'
sS'Conv'
p944
S'0'
sS'Tries'
p945
S'0'
sS'Pts'
p946
S'0'
sa(dp947
S'Pens'
p948
S'0'
sS'Sub'
p949
S'0'
sS'Lost'
p950
S'1'
sS'Drop'
p951
S'0'
sS'Start'
p952
S'2'
sS'Won'
p953
S'1'
sS'GfM'
p954
S'0'
sS'Draw'
p955
S'0'
sS'Mat'
p956
S'2'
sS'Conv'
p957
S'0'
sS'Tries'
p958
S'0'
sS'Pts'
p959
S'0'
sa(dp960
S'Pens'
p961
S'0'
sS'Sub'
p962
S'0'
sS'Lost'
p963
S'1'
sS'Drop'
p964
S'0'
sS'Start'
p965
S'3'
sS'Won'
p966
S'2'
sS'GfM'
p967
S'0'
sS'Draw'
p968
S'0'
sS'Mat'
p969
S'3'
sS'Conv'
p970
S'0'
sS'Tries'
p971
S'0'
sS'Pts'
p972
S'0'
sa(dp973
S'Pens'
p974
S'0'
sS'Sub'
p975
S'1'
sS'Lost'
p976
S'0'
sS'Drop'
p977
S'0'
sS'Start'
p978
S'0'
sS'Won'
p979
S'1'
sS'GfM'
p980
S'0'
sS'Draw'
p981
S'0'
sS'Mat'
p982
S'1'
sS'Conv'
p983
S'0'
sS'Tries'
p984
S'0'
sS'Pts'
p985
S'0'
sa(dp986
S'Pens'
p987
S'0'
sS'Sub'
p988
S'1'
sS'Lost'
p989
S'1'
sS'Drop'
p990
S'0'
sS'Start'
p991
S'1'
sS'Won'
p992
S'1'
sS'GfM'
p993
S'0'
sS'Draw'
p994
S'0'
sS'Mat'
p995
S'2'
sS'Conv'
p996
S'0'
sS'Tries'
p997
S'0'
sS'Pts'
p998
S'0'
sa(dp999
S'Pens'
p1000
S'3'
sS'Sub'
p1001
S'0'
sS'Lost'
p1002
S'2'
sS'Drop'
p1003
S'0'
sS'Start'
p1004
S'5'
sS'Won'
p1005
S'3'
sS'GfM'
p1006
S'0'
sS'Draw'
p1007
S'0'
sS'Mat'
p1008
S'5'
sS'Conv'
p1009
S'3'
sS'Tries'
p1010
S'1'
sS'Pts'
p1011
S'18'
p1012
sa(dp1013
S'Pens'
p1014
S'0'
sS'Sub'
p1015
S'0'
sS'Lost'
p1016
S'1'
sS'Drop'
p1017
S'0'
sS'Start'
p1018
S'2'
sS'Won'
p1019
S'1'
sS'GfM'
p1020
S'0'
sS'Draw'
p1021
S'0'
sS'Mat'
p1022
S'2'
sS'Conv'
p1023
S'0'
sS'Tries'
p1024
S'0'
sS'Pts'
p1025
S'0'
sa(dp1026
S'Pens'
p1027
S'0'
sS'Sub'
p1028
S'0'
sS'Lost'
p1029
S'1'
sS'Drop'
p1030
S'0'
sS'Start'
p1031
S'3'
sS'Won'
p1032
S'2'
sS'GfM'
p1033
S'0'
sS'Draw'
p1034
S'0'
sS'Mat'
p1035
S'3'
sS'Conv'
p1036
S'0'
sS'Tries'
p1037
S'1'
sS'Pts'
p1038
S'3'
sa(dp1039
S'Pens'
p1040
S'0'
sS'Sub'
p1041
S'0'
sS'Lost'
p1042
S'3'
sS'Drop'
p1043
S'0'
sS'Start'
p1044
S'5'
sS'Won'
p1045
S'2'
sS'GfM'
p1046
S'0'
sS'Draw'
p1047
S'0'
sS'Mat'
p1048
S'5'
sS'Conv'
p1049
S'0'
sS'Tries'
p1050
S'0'
sS'Pts'
p1051
S'0'
sa(dp1052
S'Pens'
p1053
S'0'
sS'Sub'
p1054
S'1'
sS'Lost'
p1055
S'1'
sS'Drop'
p1056
S'0'
sS'Start'
p1057
S'2'
sS'Won'
p1058
S'2'
sS'GfM'
p1059
S'0'
sS'Draw'
p1060
S'0'
sS'Mat'
p1061
S'3'
sS'Conv'
p1062
S'0'
sS'Tries'
p1063
S'1'
sS'Pts'
p1064
S'3'
sa(dp1065
S'Pens'
p1066
S'0'
sS'Sub'
p1067
S'0'
sS'Lost'
p1068
S'0'
sS'Drop'
p1069
S'0'
sS'Start'
p1070
S'1'
sS'Won'
p1071
S'1'
sS'GfM'
p1072
S'0'
sS'Draw'
p1073
S'0'
sS'Mat'
p1074
S'1'
sS'Conv'
p1075
S'0'
sS'Tries'
p1076
S'0'
sS'Pts'
p1077
S'0'
sa(dp1078
S'Pens'
p1079
S'0'
sS'Sub'
p1080
S'0'
sS'Lost'
p1081
S'0'
sS'Drop'
p1082
S'1'
sS'Start'
p1083
S'2'
sS'Won'
p1084
S'2'
sS'GfM'
p1085
S'0'
sS'Draw'
p1086
S'0'
sS'Mat'
p1087
S'2'
sS'Conv'
p1088
S'0'
sS'Tries'
p1089
S'0'
sS'Pts'
p1090
S'4'
sa(dp1091
S'Pens'
p1092
S'0'
sS'Sub'
p1093
S'0'
sS'Lost'
p1094
S'0'
sS'Drop'
p1095
S'0'
sS'Start'
p1096
S'1'
sS'Won'
p1097
S'1'
sS'GfM'
p1098
S'0'
sS'Draw'
p1099
S'0'
sS'Mat'
p1100
S'1'
sS'Conv'
p1101
S'0'
sS'Tries'
p1102
S'1'
sS'Pts'
p1103
S'3'
sa(dp1104
S'Pens'
p1105
S'0'
sS'Sub'
p1106
S'0'
sS'Lost'
p1107
S'0'
sS'Drop'
p1108
S'0'
sS'Start'
p1109
S'1'
sS'Won'
p1110
S'1'
sS'GfM'
p1111
S'0'
sS'Draw'
p1112
S'0'
sS'Mat'
p1113
S'1'
sS'Conv'
p1114
S'0'
sS'Tries'
p1115
S'0'
sS'Pts'
p1116
S'0'
sa(dp1117
S'Pens'
p1118
S'0'
sS'Sub'
p1119
S'0'
sS'Lost'
p1120
S'0'
sS'Drop'
p1121
S'0'
sS'Start'
p1122
S'1'
sS'Won'
p1123
S'1'
sS'GfM'
p1124
S'0'
sS'Draw'
p1125
S'0'
sS'Mat'
p1126
S'1'
sS'Conv'
p1127
S'0'
sS'Tries'
p1128
S'0'
sS'Pts'
p1129
S'0'
sa(dp1130
S'Pens'
p1131
S'0'
sS'Sub'
p1132
S'1'
sS'Lost'
p1133
S'0'
sS'Drop'
p1134
S'0'
sS'Start'
p1135
S'0'
sS'Won'
p1136
S'1'
sS'GfM'
p1137
S'0'
sS'Draw'
p1138
S'0'
sS'Mat'
p1139
S'1'
sS'Conv'
p1140
S'0'
sS'Tries'
p1141
S'0'
sS'Pts'
p1142
S'0'
sa(dp1143
S'Pens'
p1144
S'0'
sS'Sub'
p1145
S'0'
sS'Lost'
p1146
S'1'
sS'Drop'
p1147
S'0'
sS'Start'
p1148
S'2'
sS'Won'
p1149
S'1'
sS'GfM'
p1150
S'0'
sS'Draw'
p1151
S'0'
sS'Mat'
p1152
S'2'
sS'Conv'
p1153
S'1'
sS'Tries'
p1154
S'0'
sS'Pts'
p1155
S'2'
sa(dp1156
S'Pens'
p1157
S'0'
sS'Sub'
p1158
S'0'
sS'Lost'
p1159
S'1'
sS'Drop'
p1160
S'0'
sS'Start'
p1161
S'1'
sS'Won'
p1162
S'0'
sS'GfM'
p1163
S'0'
sS'Draw'
p1164
S'0'
sS'Mat'
p1165
S'1'
sS'Conv'
p1166
S'0'
sS'Tries'
p1167
S'0'
sS'Pts'
p1168
S'0'
sa(dp1169
S'Pens'
p1170
S'0'
sS'Sub'
p1171
S'0'
sS'Lost'
p1172
S'1'
sS'Drop'
p1173
S'0'
sS'Start'
p1174
S'2'
sS'Won'
p1175
S'1'
sS'GfM'
p1176
S'0'
sS'Draw'
p1177
S'0'
sS'Mat'
p1178
S'2'
sS'Conv'
p1179
S'0'
sS'Tries'
p1180
S'0'
sS'Pts'
p1181
S'0'
sa(dp1182
S'Pens'
p1183
S'0'
sS'Sub'
p1184
S'0'
sS'Lost'
p1185
S'1'
sS'Drop'
p1186
S'0'
sS'Start'
p1187
S'1'
sS'Won'
p1188
S'0'
sS'GfM'
p1189
S'0'
sS'Draw'
p1190
S'0'
sS'Mat'
p1191
S'1'
sS'Conv'
p1192
S'0'
sS'Tries'
p1193
S'0'
sS'Pts'
p1194
S'0'
sa(dp1195
S'Pens'
p1196
S'0'
sS'Sub'
p1197
S'0'
sS'Lost'
p1198
S'1'
sS'Drop'
p1199
S'0'
sS'Start'
p1200
S'1'
sS'Won'
p1201
S'0'
sS'GfM'
p1202
S'0'
sS'Draw'
p1203
S'0'
sS'Mat'
p1204
S'1'
sS'Conv'
p1205
S'0'
sS'Tries'
p1206
S'0'
sS'Pts'
p1207
S'0'
sa(dp1208
S'Pens'
p1209
S'1'
sS'Sub'
p1210
S'0'
sS'Lost'
p1211
S'1'
sS'Drop'
p1212
S'0'
sS'Start'
p1213
S'2'
sS'Won'
p1214
S'1'
sS'GfM'
p1215
S'0'
sS'Draw'
p1216
S'0'
sS'Mat'
p1217
S'2'
sS'Conv'
p1218
S'1'
sS'Tries'
p1219
S'0'
sS'Pts'
p1220
S'5'
sa(dp1221
S'Pens'
p1222
S'0'
sS'Sub'
p1223
S'0'
sS'Lost'
p1224
S'1'
sS'Drop'
p1225
S'0'
sS'Start'
p1226
S'2'
sS'Won'
p1227
S'1'
sS'GfM'
p1228
S'0'
sS'Draw'
p1229
S'0'
sS'Mat'
p1230
S'2'
sS'Conv'
p1231
S'0'
sS'Tries'
p1232
S'0'
sS'Pts'
p1233
S'0'
sa(dp1234
S'Pens'
p1235
S'0'
sS'Sub'
p1236
S'0'
sS'Lost'
p1237
S'5'
sS'Drop'
p1238
S'0'
sS'Start'
p1239
S'9'
sS'Won'
p1240
S'4'
sS'GfM'
p1241
S'0'
sS'Draw'
p1242
S'0'
sS'Mat'
p1243
S'9'
sS'Conv'
p1244
S'0'
sS'Tries'
p1245
S'0'
sS'Pts'
p1246
S'0'
sa(dp1247
S'Pens'
p1248
S'0'
sS'Sub'
p1249
S'0'
sS'Lost'
p1250
S'1'
sS'Drop'
p1251
S'0'
sS'Start'
p1252
S'1'
sS'Won'
p1253
S'0'
sS'GfM'
p1254
S'0'
sS'Draw'
p1255
S'0'
sS'Mat'
p1256
S'1'
sS'Conv'
p1257
S'0'
sS'Tries'
p1258
S'0'
sS'Pts'
p1259
S'0'
sa(dp1260
S'Pens'
p1261
S'0'
sS'Sub'
p1262
S'0'
sS'Lost'
p1263
S'6'
sS'Drop'
p1264
S'0'
sS'Start'
p1265
S'12'
p1266
sS'Won'
p1267
S'6'
sS'GfM'
p1268
S'0'
sS'Draw'
p1269
S'0'
sS'Mat'
p1270
S'12'
p1271
sS'Conv'
p1272
S'0'
sS'Tries'
p1273
S'7'
sS'Pts'
p1274
S'21'
p1275
sa(dp1276
S'Pens'
p1277
S'0'
sS'Sub'
p1278
S'0'
sS'Lost'
p1279
S'3'
sS'Drop'
p1280
S'0'
sS'Start'
p1281
S'6'
sS'Won'
p1282
S'3'
sS'GfM'
p1283
S'0'
sS'Draw'
p1284
S'0'
sS'Mat'
p1285
S'6'
sS'Conv'
p1286
S'0'
sS'Tries'
p1287
S'2'
sS'Pts'
p1288
S'6'
sa(dp1289
S'Pens'
p1290
S'0'
sS'Sub'
p1291
S'0'
sS'Lost'
p1292
S'4'
sS'Drop'
p1293
S'0'
sS'Start'
p1294
S'8'
sS'Won'
p1295
S'4'
sS'GfM'
p1296
S'0'
sS'Draw'
p1297
S'0'
sS'Mat'
p1298
S'8'
sS'Conv'
p1299
S'0'
sS'Tries'
p1300
S'2'
sS'Pts'
p1301
S'6'
sa(dp1302
S'Pens'
p1303
S'0'
sS'Sub'
p1304
S'0'
sS'Lost'
p1305
S'1'
sS'Drop'
p1306
S'0'
sS'Start'
p1307
S'1'
sS'Won'
p1308
S'0'
sS'GfM'
p1309
S'0'
sS'Draw'
p1310
S'0'
sS'Mat'
p1311
S'1'
sS'Conv'
p1312
S'0'
sS'Tries'
p1313
S'0'
sS'Pts'
p1314
S'0'
sa(dp1315
S'Pens'
p1316
S'0'
sS'Sub'
p1317
S'0'
sS'Lost'
p1318
S'1'
sS'Drop'
p1319
S'0'
sS'Start'
p1320
S'1'
sS'Won'
p1321
S'0'
sS'GfM'
p1322
S'0'
sS'Draw'
p1323
S'0'
sS'Mat'
p1324
S'1'
sS'Conv'
p1325
S'0'
sS'Tries'
p1326
S'0'
sS'Pts'
p1327
S'0'
sa(dp1328
S'Pens'
p1329
S'0'
sS'Sub'
p1330
S'0'
sS'Lost'
p1331
S'0'
sS'Drop'
p1332
S'0'
sS'Start'
p1333
S'3'
sS'Won'
p1334
S'3'
sS'GfM'
p1335
S'0'
sS'Draw'
p1336
S'0'
sS'Mat'
p1337
S'3'
sS'Conv'
p1338
S'0'
sS'Tries'
p1339
S'0'
sS'Pts'
p1340
S'0'
sa(dp1341
S'Pens'
p1342
S'0'
sS'Sub'
p1343
S'0'
sS'Lost'
p1344
S'2'
sS'Drop'
p1345
S'0'
sS'Start'
p1346
S'3'
sS'Won'
p1347
S'1'
sS'GfM'
p1348
S'0'
sS'Draw'
p1349
S'0'
sS'Mat'
p1350
S'3'
sS'Conv'
p1351
S'0'
sS'Tries'
p1352
S'0'
sS'Pts'
p1353
S'0'
sa(dp1354
S'Pens'
p1355
S'0'
sS'Sub'
p1356
S'0'
sS'Lost'
p1357
S'1'
sS'Drop'
p1358
S'0'
sS'Start'
p1359
S'2'
sS'Won'
p1360
S'1'
sS'GfM'
p1361
S'0'
sS'Draw'
p1362
S'0'
sS'Mat'
p1363
S'2'
sS'Conv'
p1364
S'0'
sS'Tries'
p1365
S'0'
sS'Pts'
p1366
S'0'
sa(dp1367
S'Pens'
p1368
S'0'
sS'Sub'
p1369
S'0'
sS'Lost'
p1370
S'3'
sS'Drop'
p1371
S'0'
sS'Start'
p1372
S'5'
sS'Won'
p1373
S'2'
sS'GfM'
p1374
S'0'
sS'Draw'
p1375
S'0'
sS'Mat'
p1376
S'5'
sS'Conv'
p1377
S'0'
sS'Tries'
p1378
S'1'
sS'Pts'
p1379
S'3'
sa(dp1380
S'Pens'
p1381
S'0'
sS'Sub'
p1382
S'0'
sS'Lost'
p1383
S'5'
sS'Drop'
p1384
S'0'
sS'Start'
p1385
S'9'
sS'Won'
p1386
S'4'
sS'GfM'
p1387
S'0'
sS'Draw'
p1388
S'0'
sS'Mat'
p1389
S'9'
sS'Conv'
p1390
S'0'
sS'Tries'
p1391
S'2'
sS'Pts'
p1392
S'6'
sa(dp1393
S'Pens'
p1394
S'0'
sS'Sub'
p1395
S'0'
sS'Lost'
p1396
S'1'
sS'Drop'
p1397
S'0'
sS'Start'
p1398
S'2'
sS'Won'
p1399
S'1'
sS'GfM'
p1400
S'0'
sS'Draw'
p1401
S'0'
sS'Mat'
p1402
S'2'
sS'Conv'
p1403
S'0'
sS'Tries'
p1404
S'1'
sS'Pts'
p1405
S'3'
sa(dp1406
S'Pens'
p1407
S'0'
sS'Sub'
p1408
S'0'
sS'Lost'
p1409
S'4'
sS'Drop'
p1410
S'0'
sS'Start'
p1411
S'8'
sS'Won'
p1412
S'4'
sS'GfM'
p1413
S'0'
sS'Draw'
p1414
S'0'
sS'Mat'
p1415
S'8'
sS'Conv'
p1416
S'0'
sS'Tries'
p1417
S'0'
sS'Pts'
p1418
S'0'
sa(dp1419
S'Pens'
p1420
S'0'
sS'Sub'
p1421
S'1'
sS'Lost'
p1422
S'5'
sS'Drop'
p1423
S'1'
sS'Start'
p1424
S'11'
p1425
sS'Won'
p1426
S'7'
sS'GfM'
p1427
S'0'
sS'Draw'
p1428
S'0'
sS'Mat'
p1429
S'12'
p1430
sS'Conv'
p1431
S'0'
sS'Tries'
p1432
S'1'
sS'Pts'
p1433
S'6'
sa(dp1434
S'Pens'
p1435
S'0'
sS'Sub'
p1436
S'0'
sS'Lost'
p1437
S'1'
sS'Drop'
p1438
S'0'
sS'Start'
p1439
S'1'
sS'Won'
p1440
S'0'
sS'GfM'
p1441
S'0'
sS'Draw'
p1442
S'0'
sS'Mat'
p1443
S'1'
sS'Conv'
p1444
S'0'
sS'Tries'
p1445
S'0'
sS'Pts'
p1446
S'0'
sa(dp1447
S'Pens'
p1448
S'0'
sS'Sub'
p1449
S'0'
sS'Lost'
p1450
S'1'
sS'Drop'
p1451
S'0'
sS'Start'
p1452
S'1'
sS'Won'
p1453
S'0'
sS'GfM'
p1454
S'0'
sS'Draw'
p1455
S'0'
sS'Mat'
p1456
S'1'
sS'Conv'
p1457
S'0'
sS'Tries'
p1458
S'0'
sS'Pts'
p1459
S'0'
sa(dp1460
S'Pens'
p1461
S'6'
sS'Sub'
p1462
S'0'
sS'Lost'
p1463
S'14'
p1464
sS'Drop'
p1465
S'0'
sS'Start'
p1466
S'21'
p1467
sS'Won'
p1468
S'7'
sS'GfM'
p1469
S'0'
sS'Draw'
p1470
S'0'
sS'Mat'
p1471
S'21'
p1472
sS'Conv'
p1473
S'3'
sS'Tries'
p1474
S'4'
sS'Pts'
p1475
S'36'
p1476
sa(dp1477
S'Pens'
p1478
S'0'
sS'Sub'
p1479
S'0'
sS'Lost'
p1480
S'3'
sS'Drop'
p1481
S'0'
sS'Start'
p1482
S'7'
sS'Won'
p1483
S'4'
sS'GfM'
p1484
S'0'
sS'Draw'
p1485
S'0'
sS'Mat'
p1486
S'7'
sS'Conv'
p1487
S'3'
sS'Tries'
p1488
S'1'
sS'Pts'
p1489
S'9'
sa(dp1490
S'Pens'
p1491
S'0'
sS'Sub'
p1492
S'0'
sS'Lost'
p1493
S'2'
sS'Drop'
p1494
S'0'
sS'Start'
p1495
S'2'
sS'Won'
p1496
S'0'
sS'GfM'
p1497
S'0'
sS'Draw'
p1498
S'0'
sS'Mat'
p1499
S'2'
sS'Conv'
p1500
S'0'
sS'Tries'
p1501
S'0'
sS'Pts'
p1502
S'0'
sa(dp1503
S'Pens'
p1504
S'0'
sS'Sub'
p1505
S'0'
sS'Lost'
p1506
S'1'
sS'Drop'
p1507
S'0'
sS'Start'
p1508
S'2'
sS'Won'
p1509
S'1'
sS'GfM'
p1510
S'0'
sS'Draw'
p1511
S'0'
sS'Mat'
p1512
S'2'
sS'Conv'
p1513
S'0'
sS'Tries'
p1514
S'0'
sS'Pts'
p1515
S'0'
sa(dp1516
S'Pens'
p1517
S'0'
sS'Sub'
p1518
S'0'
sS'Lost'
p1519
S'1'
sS'Drop'
p1520
S'0'
sS'Start'
p1521
S'1'
sS'Won'
p1522
S'0'
sS'GfM'
p1523
S'0'
sS'Draw'
p1524
S'0'
sS'Mat'
p1525
S'1'
sS'Conv'
p1526
S'0'
sS'Tries'
p1527
S'0'
sS'Pts'
p1528
S'0'
sa(dp1529
S'Pens'
p1530
S'0'
sS'Sub'
p1531
S'0'
sS'Lost'
p1532
S'1'
sS'Drop'
p1533
S'0'
sS'Start'
p1534
S'2'
sS'Won'
p1535
S'1'
sS'GfM'
p1536
S'0'
sS'Draw'
p1537
S'0'
sS'Mat'
p1538
S'2'
sS'Conv'
p1539
S'0'
sS'Tries'
p1540
S'1'
sS'Pts'
p1541
S'3'
sa(dp1542
S'Pens'
p1543
S'0'
sS'Sub'
p1544
S'0'
sS'Lost'
p1545
S'0'
sS'Drop'
p1546
S'0'
sS'Start'
p1547
S'1'
sS'Won'
p1548
S'1'
sS'GfM'
p1549
S'0'
sS'Draw'
p1550
S'0'
sS'Mat'
p1551
S'1'
sS'Conv'
p1552
S'0'
sS'Tries'
p1553
S'0'
sS'Pts'
p1554
S'0'
sa(dp1555
S'Pens'
p1556
S'0'
sS'Sub'
p1557
S'0'
sS'Lost'
p1558
S'0'
sS'Drop'
p1559
S'0'
sS'Start'
p1560
S'1'
sS'Won'
p1561
S'1'
sS'GfM'
p1562
S'0'
sS'Draw'
p1563
S'0'
sS'Mat'
p1564
S'1'
sS'Conv'
p1565
S'0'
sS'Tries'
p1566
S'0'
sS'Pts'
p1567
S'0'
sa(dp1568
S'Pens'
p1569
S'0'
sS'Sub'
p1570
S'0'
sS'Lost'
p1571
S'0'
sS'Drop'
p1572
S'0'
sS'Start'
p1573
S'2'
sS'Won'
p1574
S'2'
sS'GfM'
p1575
S'0'
sS'Draw'
p1576
S'0'
sS'Mat'
p1577
S'2'
sS'Conv'
p1578
S'0'
sS'Tries'
p1579
S'0'
sS'Pts'
p1580
S'0'
sa(dp1581
S'Pens'
p1582
S'0'
sS'Sub'
p1583
S'0'
sS'Lost'
p1584
S'0'
sS'Drop'
p1585
S'0'
sS'Start'
p1586
S'1'
sS'Won'
p1587
S'1'
sS'GfM'
p1588
S'0'
sS'Draw'
p1589
S'0'
sS'Mat'
p1590
S'1'
sS'Conv'
p1591
S'0'
sS'Tries'
p1592
S'0'
sS'Pts'
p1593
S'0'
sa(dp1594
S'Pens'
p1595
S'0'
sS'Sub'
p1596
S'0'
sS'Lost'
p1597
S'0'
sS'Drop'
p1598
S'0'
sS'Start'
p1599
S'1'
sS'Won'
p1600
S'1'
sS'GfM'
p1601
S'0'
sS'Draw'
p1602
S'0'
sS'Mat'
p1603
S'1'
sS'Conv'
p1604
S'0'
sS'Tries'
p1605
S'0'
sS'Pts'
p1606
S'0'
sa(dp1607
S'Pens'
p1608
S'0'
sS'Sub'
p1609
S'0'
sS'Lost'
p1610
S'3'
sS'Drop'
p1611
S'0'
sS'Start'
p1612
S'7'
sS'Won'
p1613
S'4'
sS'GfM'
p1614
S'0'
sS'Draw'
p1615
S'0'
sS'Mat'
p1616
S'7'
sS'Conv'
p1617
S'0'
sS'Tries'
p1618
S'0'
sS'Pts'
p1619
S'0'
sa(dp1620
S'Pens'
p1621
S'2'
sS'Sub'
p1622
S'1'
sS'Lost'
p1623
S'2'
sS'Drop'
p1624
S'0'
sS'Start'
p1625
S'7'
sS'Won'
p1626
S'6'
sS'GfM'
p1627
S'0'
sS'Draw'
p1628
S'0'
sS'Mat'
p1629
S'8'
sS'Conv'
p1630
S'2'
sS'Tries'
p1631
S'3'
sS'Pts'
p1632
S'19'
p1633
sa(dp1634
S'Pens'
p1635
S'0'
sS'Sub'
p1636
S'0'
sS'Lost'
p1637
S'3'
sS'Drop'
p1638
S'0'
sS'Start'
p1639
S'6'
sS'Won'
p1640
S'3'
sS'GfM'
p1641
S'0'
sS'Draw'
p1642
S'0'
sS'Mat'
p1643
S'6'
sS'Conv'
p1644
S'0'
sS'Tries'
p1645
S'1'
sS'Pts'
p1646
S'3'
sa(dp1647
S'Pens'
p1648
S'2'
sS'Sub'
p1649
S'0'
sS'Lost'
p1650
S'1'
sS'Drop'
p1651
S'0'
sS'Start'
p1652
S'3'
sS'Won'
p1653
S'2'
sS'GfM'
p1654
S'0'
sS'Draw'
p1655
S'0'
sS'Mat'
p1656
S'3'
sS'Conv'
p1657
S'1'
sS'Tries'
p1658
S'0'
sS'Pts'
p1659
S'8'
sa(dp1660
S'Pens'
p1661
S'0'
sS'Sub'
p1662
S'0'
sS'Lost'
p1663
S'0'
sS'Drop'
p1664
S'0'
sS'Start'
p1665
S'1'
sS'Won'
p1666
S'1'
sS'GfM'
p1667
S'0'
sS'Draw'
p1668
S'0'
sS'Mat'
p1669
S'1'
sS'Conv'
p1670
S'0'
sS'Tries'
p1671
S'0'
sS'Pts'
p1672
S'0'
sa(dp1673
S'Pens'
p1674
S'0'
sS'Sub'
p1675
S'0'
sS'Lost'
p1676
S'6'
sS'Drop'
p1677
S'0'
sS'Start'
p1678
S'16'
p1679
sS'Won'
p1680
S'10'
p1681
sS'GfM'
p1682
S'0'
sS'Draw'
p1683
S'0'
sS'Mat'
p1684
S'16'
p1685
sS'Conv'
p1686
S'0'
sS'Tries'
p1687
S'1'
sS'Pts'
p1688
S'3'
sa(dp1689
S'Pens'
p1690
S'0'
sS'Sub'
p1691
S'0'
sS'Lost'
p1692
S'2'
sS'Drop'
p1693
S'0'
sS'Start'
p1694
S'7'
sS'Won'
p1695
S'5'
sS'GfM'
p1696
S'0'
sS'Draw'
p1697
S'0'
sS'Mat'
p1698
S'7'
sS'Conv'
p1699
S'0'
sS'Tries'
p1700
S'5'
sS'Pts'
p1701
S'15'
p1702
sa(dp1703
S'Pens'
p1704
S'0'
sS'Sub'
p1705
S'0'
sS'Lost'
p1706
S'0'
sS'Drop'
p1707
S'0'
sS'Start'
p1708
S'2'
sS'Won'
p1709
S'2'
sS'GfM'
p1710
S'0'
sS'Draw'
p1711
S'0'
sS'Mat'
p1712
S'2'
sS'Conv'
p1713
S'0'
sS'Tries'
p1714
S'0'
sS'Pts'
p1715
S'0'
sa(dp1716
S'Pens'
p1717
S'0'
sS'Sub'
p1718
S'0'
sS'Lost'
p1719
S'2'
sS'Drop'
p1720
S'0'
sS'Start'
p1721
S'5'
sS'Won'
p1722
S'3'
sS'GfM'
p1723
S'0'
sS'Draw'
p1724
S'0'
sS'Mat'
p1725
S'5'
sS'Conv'
p1726
S'0'
sS'Tries'
p1727
S'0'
sS'Pts'
p1728
S'0'
sa(dp1729
S'Pens'
p1730
S'0'
sS'Sub'
p1731
S'0'
sS'Lost'
p1732
S'1'
sS'Drop'
p1733
S'0'
sS'Start'
p1734
S'5'
sS'Won'
p1735
S'4'
sS'GfM'
p1736
S'0'
sS'Draw'
p1737
S'0'
sS'Mat'
p1738
S'5'
sS'Conv'
p1739
S'1'
sS'Tries'
p1740
S'0'
sS'Pts'
p1741
S'2'
sa(dp1742
S'Pens'
p1743
S'0'
sS'Sub'
p1744
S'0'
sS'Lost'
p1745
S'1'
sS'Drop'
p1746
S'0'
sS'Start'
p1747
S'2'
sS'Won'
p1748
S'1'
sS'GfM'
p1749
S'0'
sS'Draw'
p1750
S'0'
sS'Mat'
p1751
S'2'
sS'Conv'
p1752
S'0'
sS'Tries'
p1753
S'0'
sS'Pts'
p1754
S'0'
sa(dp1755
S'Pens'
p1756
S'0'
sS'Sub'
p1757
S'0'
sS'Lost'
p1758
S'0'
sS'Drop'
p1759
S'0'
sS'Start'
p1760
S'1'
sS'Won'
p1761
S'1'
sS'GfM'
p1762
S'0'
sS'Draw'
p1763
S'0'
sS'Mat'
p1764
S'1'
sS'Conv'
p1765
S'0'
sS'Tries'
p1766
S'0'
sS'Pts'
p1767
S'0'
sa(dp1768
S'Pens'
p1769
S'0'
sS'Sub'
p1770
S'0'
sS'Lost'
p1771
S'5'
sS'Drop'
p1772
S'0'
sS'Start'
p1773
S'12'
p1774
sS'Won'
p1775
S'7'
sS'GfM'
p1776
S'0'
sS'Draw'
p1777
S'0'
sS'Mat'
p1778
S'12'
p1779
sS'Conv'
p1780
S'0'
sS'Tries'
p1781
S'1'
sS'Pts'
p1782
S'3'
sa(dp1783
S'Pens'
p1784
S'0'
sS'Sub'
p1785
S'0'
sS'Lost'
p1786
S'2'
sS'Drop'
p1787
S'0'
sS'Start'
p1788
S'2'
sS'Won'
p1789
S'0'
sS'GfM'
p1790
S'0'
sS'Draw'
p1791
S'0'
sS'Mat'
p1792
S'2'
sS'Conv'
p1793
S'0'
sS'Tries'
p1794
S'0'
sS'Pts'
p1795
S'0'
sa(dp1796
S'Pens'
p1797
S'0'
sS'Sub'
p1798
S'0'
sS'Lost'
p1799
S'4'
sS'Drop'
p1800
S'0'
sS'Start'
p1801
S'9'
sS'Won'
p1802
S'5'
sS'GfM'
p1803
S'0'
sS'Draw'
p1804
S'0'
sS'Mat'
p1805
S'9'
sS'Conv'
p1806
S'0'
sS'Tries'
p1807
S'3'
sS'Pts'
p1808
S'9'
sa(dp1809
S'Pens'
p1810
S'0'
sS'Sub'
p1811
S'0'
sS'Lost'
p1812
S'5'
sS'Drop'
p1813
S'0'
sS'Start'
p1814
S'7'
sS'Won'
p1815
S'2'
sS'GfM'
p1816
S'0'
sS'Draw'
p1817
S'0'
sS'Mat'
p1818
S'7'
sS'Conv'
p1819
S'0'
sS'Tries'
p1820
S'1'
sS'Pts'
p1821
S'3'
sa(dp1822
S'Pens'
p1823
S'3'
sS'Sub'
p1824
S'0'
sS'Lost'
p1825
S'3'
sS'Drop'
p1826
S'0'
sS'Start'
p1827
S'13'
p1828
sS'Won'
p1829
S'10'
p1830
sS'GfM'
p1831
S'0'
sS'Draw'
p1832
S'0'
sS'Mat'
p1833
S'13'
p1834
sS'Conv'
p1835
S'2'
sS'Tries'
p1836
S'2'
sS'Pts'
p1837
S'19'
p1838
sa(dp1839
S'Pens'
p1840
S'0'
sS'Sub'
p1841
S'0'
sS'Lost'
p1842
S'0'
sS'Drop'
p1843
S'0'
sS'Start'
p1844
S'2'
sS'Won'
p1845
S'2'
sS'GfM'
p1846
S'0'
sS'Draw'
p1847
S'0'
sS'Mat'
p1848
S'2'
sS'Conv'
p1849
S'0'
sS'Tries'
p1850
S'0'
sS'Pts'
p1851
S'0'
sa(dp1852
S'Pens'
p1853
S'0'
sS'Sub'
p1854
S'0'
sS'Lost'
p1855
S'0'
sS'Drop'
p1856
S'0'
sS'Start'
p1857
S'5'
sS'Won'
p1858
S'5'
sS'GfM'
p1859
S'0'
sS'Draw'
p1860
S'0'
sS'Mat'
p1861
S'5'
sS'Conv'
p1862
S'0'
sS'Tries'
p1863
S'0'
sS'Pts'
p1864
S'0'
sa(dp1865
S'Pens'
p1866
S'0'
sS'Sub'
p1867
S'0'
sS'Lost'
p1868
S'0'
sS'Drop'
p1869
S'0'
sS'Start'
p1870
S'1'
sS'Won'
p1871
S'1'
sS'GfM'
p1872
S'0'
sS'Draw'
p1873
S'0'
sS'Mat'
p1874
S'1'
sS'Conv'
p1875
S'0'
sS'Tries'
p1876
S'0'
sS'Pts'
p1877
S'0'
sa(dp1878
S'Pens'
p1879
S'0'
sS'Sub'
p1880
S'0'
sS'Lost'
p1881
S'1'
sS'Drop'
p1882
S'0'
sS'Start'
p1883
S'2'
sS'Won'
p1884
S'1'
sS'GfM'
p1885
S'0'
sS'Draw'
p1886
S'0'
sS'Mat'
p1887
S'2'
sS'Conv'
p1888
S'0'
sS'Tries'
p1889
S'0'
sS'Pts'
p1890
S'0'
sa(dp1891
S'Pens'
p1892
S'0'
sS'Sub'
p1893
S'0'
sS'Lost'
p1894
S'1'
sS'Drop'
p1895
S'0'
sS'Start'
p1896
S'1'
sS'Won'
p1897
S'0'
sS'GfM'
p1898
S'0'
sS'Draw'
p1899
S'0'
sS'Mat'
p1900
S'1'
sS'Conv'
p1901
S'0'
sS'Tries'
p1902
S'0'
sS'Pts'
p1903
S'0'
sa(dp1904
S'Pens'
p1905
S'2'
sS'Sub'
p1906
S'0'
sS'Lost'
p1907
S'8'
sS'Drop'
p1908
S'0'
sS'Start'
p1909
S'16'
p1910
sS'Won'
p1911
S'8'
sS'GfM'
p1912
S'0'
sS'Draw'
p1913
S'0'
sS'Mat'
p1914
S'16'
p1915
sS'Conv'
p1916
S'1'
sS'Tries'
p1917
S'1'
sS'Pts'
p1918
S'11'
p1919
sa(dp1920
S'Pens'
p1921
S'1'
sS'Sub'
p1922
S'0'
sS'Lost'
p1923
S'4'
sS'Drop'
p1924
S'0'
sS'Start'
p1925
S'8'
sS'Won'
p1926
S'4'
sS'GfM'
p1927
S'0'
sS'Draw'
p1928
S'0'
sS'Mat'
p1929
S'8'
sS'Conv'
p1930
S'3'
sS'Tries'
p1931
S'0'
sS'Pts'
p1932
S'9'
sa(dp1933
S'Pens'
p1934
S'0'
sS'Sub'
p1935
S'0'
sS'Lost'
p1936
S'2'
sS'Drop'
p1937
S'0'
sS'Start'
p1938
S'5'
sS'Won'
p1939
S'3'
sS'GfM'
p1940
S'0'
sS'Draw'
p1941
S'0'
sS'Mat'
p1942
S'5'
sS'Conv'
p1943
S'0'
sS'Tries'
p1944
S'0'
sS'Pts'
p1945
S'0'
sa(dp1946
S'Pens'
p1947
S'0'
sS'Sub'
p1948
S'0'
sS'Lost'
p1949
S'4'
sS'Drop'
p1950
S'0'
sS'Start'
p1951
S'10'
p1952
sS'Won'
p1953
S'6'
sS'GfM'
p1954
S'0'
sS'Draw'
p1955
S'0'
sS'Mat'
p1956
S'10'
p1957
sS'Conv'
p1958
S'0'
sS'Tries'
p1959
S'1'
sS'Pts'
p1960
S'3'
sa(dp1961
S'Pens'
p1962
S'0'
sS'Sub'
p1963
S'0'
sS'Lost'
p1964
S'3'
sS'Drop'
p1965
S'0'
sS'Start'
p1966
S'4'
sS'Won'
p1967
S'1'
sS'GfM'
p1968
S'0'
sS'Draw'
p1969
S'0'
sS'Mat'
p1970
S'4'
sS'Conv'
p1971
S'0'
sS'Tries'
p1972
S'0'
sS'Pts'
p1973
S'0'
sa(dp1974
S'Pens'
p1975
S'0'
sS'Sub'
p1976
S'0'
sS'Lost'
p1977
S'3'
sS'Drop'
p1978
S'0'
sS'Start'
p1979
S'7'
sS'Won'
p1980
S'4'
sS'GfM'
p1981
S'0'
sS'Draw'
p1982
S'0'
sS'Mat'
p1983
S'7'
sS'Conv'
p1984
S'0'
sS'Tries'
p1985
S'0'
sS'Pts'
p1986
S'0'
sa(dp1987
S'Pens'
p1988
S'0'
sS'Sub'
p1989
S'0'
sS'Lost'
p1990
S'3'
sS'Drop'
p1991
S'0'
sS'Start'
p1992
S'8'
sS'Won'
p1993
S'5'
sS'GfM'
p1994
S'0'
sS'Draw'
p1995
S'0'
sS'Mat'
p1996
S'8'
sS'Conv'
p1997
S'0'
sS'Tries'
p1998
S'0'
sS'Pts'
p1999
S'0'
sa(dp2000
S'Pens'
p2001
S'0'
sS'Sub'
p2002
S'0'
sS'Lost'
p2003
S'4'
sS'Drop'
p2004
S'0'
sS'Start'
p2005
S'7'
sS'Won'
p2006
S'3'
sS'GfM'
p2007
S'0'
sS'Draw'
p2008
S'0'
sS'Mat'
p2009
S'7'
sS'Conv'
p2010
S'0'
sS'Tries'
p2011
S'0'
sS'Pts'
p2012
S'0'
sa(dp2013
S'Pens'
p2014
S'0'
sS'Sub'
p2015
S'0'
sS'Lost'
p2016
S'0'
sS'Drop'
p2017
S'0'
sS'Start'
p2018
S'2'
sS'Won'
p2019
S'2'
sS'GfM'
p2020
S'0'
sS'Draw'
p2021
S'0'
sS'Mat'
p2022
S'2'
sS'Conv'
p2023
S'0'
sS'Tries'
p2024
S'0'
sS'Pts'
p2025
S'0'
sa(dp2026
S'Pens'
p2027
S'5'
sS'Sub'
p2028
S'0'
sS'Lost'
p2029
S'7'
sS'Drop'
p2030
S'1'
sS'Start'
p2031
S'11'
p2032
sS'Won'
p2033
S'4'
sS'GfM'
p2034
S'0'
sS'Draw'
p2035
S'0'
sS'Mat'
p2036
S'11'
p2037
sS'Conv'
p2038
S'2'
sS'Tries'
p2039
S'0'
sS'Pts'
p2040
S'22'
p2041
sa(dp2042
S'Pens'
p2043
S'0'
sS'Sub'
p2044
S'0'
sS'Lost'
p2045
S'1'
sS'Drop'
p2046
S'0'
sS'Start'
p2047
S'1'
sS'Won'
p2048
S'0'
sS'GfM'
p2049
S'0'
sS'Draw'
p2050
S'0'
sS'Mat'
p2051
S'1'
sS'Conv'
p2052
S'0'
sS'Tries'
p2053
S'0'
sS'Pts'
p2054
S'0'
sa(dp2055
S'Pens'
p2056
S'0'
sS'Sub'
p2057
S'0'
sS'Lost'
p2058
S'2'
sS'Drop'
p2059
S'0'
sS'Start'
p2060
S'5'
sS'Won'
p2061
S'3'
sS'GfM'
p2062
S'0'
sS'Draw'
p2063
S'0'
sS'Mat'
p2064
S'5'
sS'Conv'
p2065
S'0'
sS'Tries'
p2066
S'0'
sS'Pts'
p2067
S'0'
sa(dp2068
S'Pens'
p2069
S'0'
sS'Sub'
p2070
S'0'
sS'Lost'
p2071
S'1'
sS'Drop'
p2072
S'0'
sS'Start'
p2073
S'4'
sS'Won'
p2074
S'3'
sS'GfM'
p2075
S'0'
sS'Draw'
p2076
S'0'
sS'Mat'
p2077
S'4'
sS'Conv'
p2078
S'0'
sS'Tries'
p2079
S'2'
sS'Pts'
p2080
S'6'
sa(dp2081
S'Pens'
p2082
S'0'
sS'Sub'
p2083
S'0'
sS'Lost'
p2084
S'10'
p2085
sS'Drop'
p2086
S'0'
sS'Start'
p2087
S'15'
p2088
sS'Won'
p2089
S'5'
sS'GfM'
p2090
S'0'
sS'Draw'
p2091
S'0'
sS'Mat'
p2092
S'15'
p2093
sS'Conv'
p2094
S'0'
sS'Tries'
p2095
S'1'
sS'Pts'
p2096
S'3'
sa(dp2097
S'Pens'
p2098
S'0'
sS'Sub'
p2099
S'0'
sS'Lost'
p2100
S'1'
sS'Drop'
p2101
S'0'
sS'Start'
p2102
S'3'
sS'Won'
p2103
S'2'
sS'GfM'
p2104
S'0'
sS'Draw'
p2105
S'0'
sS'Mat'
p2106
S'3'
sS'Conv'
p2107
S'0'
sS'Tries'
p2108
S'3'
sS'Pts'
p2109
S'9'
sa(dp2110
S'Pens'
p2111
S'0'
sS'Sub'
p2112
S'0'
sS'Lost'
p2113
S'3'
sS'Drop'
p2114
S'0'
sS'Start'
p2115
S'7'
sS'Won'
p2116
S'4'
sS'GfM'
p2117
S'0'
sS'Draw'
p2118
S'0'
sS'Mat'
p2119
S'7'
sS'Conv'
p2120
S'0'
sS'Tries'
p2121
S'0'
sS'Pts'
p2122
S'0'
sa(dp2123
S'Pens'
p2124
S'0'
sS'Sub'
p2125
S'0'
sS'Lost'
p2126
S'2'
sS'Drop'
p2127
S'0'
sS'Start'
p2128
S'3'
sS'Won'
p2129
S'1'
sS'GfM'
p2130
S'0'
sS'Draw'
p2131
S'0'
sS'Mat'
p2132
S'3'
sS'Conv'
p2133
S'0'
sS'Tries'
p2134
S'0'
sS'Pts'
p2135
S'0'
sa(dp2136
S'Pens'
p2137
S'0'
sS'Sub'
p2138
S'0'
sS'Lost'
p2139
S'3'
sS'Drop'
p2140
S'0'
sS'Start'
p2141
S'6'
sS'Won'
p2142
S'3'
sS'GfM'
p2143
S'0'
sS'Draw'
p2144
S'0'
sS'Mat'
p2145
S'6'
sS'Conv'
p2146
S'0'
sS'Tries'
p2147
S'1'
sS'Pts'
p2148
S'3'
sa(dp2149
S'Pens'
p2150
S'0'
sS'Sub'
p2151
S'0'
sS'Lost'
p2152
S'1'
sS'Drop'
p2153
S'0'
sS'Start'
p2154
S'2'
sS'Won'
p2155
S'1'
sS'GfM'
p2156
S'0'
sS'Draw'
p2157
S'0'
sS'Mat'
p2158
S'2'
sS'Conv'
p2159
S'0'
sS'Tries'
p2160
S'0'
sS'Pts'
p2161
S'0'
sa(dp2162
S'Pens'
p2163
S'0'
sS'Sub'
p2164
S'0'
sS'Lost'
p2165
S'0'
sS'Drop'
p2166
S'0'
sS'Start'
p2167
S'1'
sS'Won'
p2168
S'1'
sS'GfM'
p2169
S'0'
sS'Draw'
p2170
S'0'
sS'Mat'
p2171
S'1'
sS'Conv'
p2172
S'0'
sS'Tries'
p2173
S'0'
sS'Pts'
p2174
S'0'
sa(dp2175
S'Pens'
p2176
S'0'
sS'Sub'
p2177
S'0'
sS'Lost'
p2178
S'0'
sS'Drop'
p2179
S'0'
sS'Start'
p2180
S'1'
sS'Won'
p2181
S'1'
sS'GfM'
p2182
S'0'
sS'Draw'
p2183
S'0'
sS'Mat'
p2184
S'1'
sS'Conv'
p2185
S'0'
sS'Tries'
p2186
S'0'
sS'Pts'
p2187
S'0'
sa(dp2188
S'Pens'
p2189
S'0'
sS'Sub'
p2190
S'0'
sS'Lost'
p2191
S'4'
sS'Drop'
p2192
S'0'
sS'Start'
p2193
S'7'
sS'Won'
p2194
S'3'
sS'GfM'
p2195
S'0'
sS'Draw'
p2196
S'0'
sS'Mat'
p2197
S'7'
sS'Conv'
p2198
S'0'
sS'Tries'
p2199
S'0'
sS'Pts'
p2200
S'0'
sa(dp2201
S'Pens'
p2202
S'0'
sS'Sub'
p2203
S'0'
sS'Lost'
p2204
S'1'
sS'Drop'
p2205
S'0'
sS'Start'
p2206
S'2'
sS'Won'
p2207
S'1'
sS'GfM'
p2208
S'0'
sS'Draw'
p2209
S'0'
sS'Mat'
p2210
S'2'
sS'Conv'
p2211
S'0'
sS'Tries'
p2212
S'0'
sS'Pts'
p2213
S'0'
sa(dp2214
S'Pens'
p2215
S'0'
sS'Sub'
p2216
S'0'
sS'Lost'
p2217
S'1'
sS'Drop'
p2218
S'0'
sS'Start'
p2219
S'2'
sS'Won'
p2220
S'1'
sS'GfM'
p2221
S'0'
sS'Draw'
p2222
S'0'
sS'Mat'
p2223
S'2'
sS'Conv'
p2224
S'0'
sS'Tries'
p2225
S'0'
sS'Pts'
p2226
S'0'
sa(dp2227
S'Pens'
p2228
S'0'
sS'Sub'
p2229
S'0'
sS'Lost'
p2230
S'0'
sS'Drop'
p2231
S'0'
sS'Start'
p2232
S'1'
sS'Won'
p2233
S'1'
sS'GfM'
p2234
S'0'
sS'Draw'
p2235
S'0'
sS'Mat'
p2236
S'1'
sS'Conv'
p2237
S'0'
sS'Tries'
p2238
S'0'
sS'Pts'
p2239
S'0'
sa(dp2240
S'Pens'
p2241
S'1'
sS'Sub'
p2242
S'0'
sS'Lost'
p2243
S'5'
sS'Drop'
p2244
S'0'
sS'Start'
p2245
S'10'
p2246
sS'Won'
p2247
S'5'
sS'GfM'
p2248
S'0'
sS'Draw'
p2249
S'0'
sS'Mat'
p2250
S'10'
p2251
sS'Conv'
p2252
S'2'
sS'Tries'
p2253
S'0'
sS'Pts'
p2254
S'7'
sa(dp2255
S'Pens'
p2256
S'0'
sS'Sub'
p2257
S'0'
sS'Lost'
p2258
S'0'
sS'Drop'
p2259
S'0'
sS'Start'
p2260
S'2'
sS'Won'
p2261
S'2'
sS'GfM'
p2262
S'0'
sS'Draw'
p2263
S'0'
sS'Mat'
p2264
S'2'
sS'Conv'
p2265
S'0'
sS'Tries'
p2266
S'1'
sS'Pts'
p2267
S'3'
sa(dp2268
S'Pens'
p2269
S'0'
sS'Sub'
p2270
S'0'
sS'Lost'
p2271
S'5'
sS'Drop'
p2272
S'0'
sS'Start'
p2273
S'9'
sS'Won'
p2274
S'4'
sS'GfM'
p2275
S'0'
sS'Draw'
p2276
S'0'
sS'Mat'
p2277
S'9'
sS'Conv'
p2278
S'0'
sS'Tries'
p2279
S'0'
sS'Pts'
p2280
S'0'
sa(dp2281
S'Pens'
p2282
S'0'
sS'Sub'
p2283
S'0'
sS'Lost'
p2284
S'1'
sS'Drop'
p2285
S'0'
sS'Start'
p2286
S'2'
sS'Won'
p2287
S'1'
sS'GfM'
p2288
S'0'
sS'Draw'
p2289
S'0'
sS'Mat'
p2290
S'2'
sS'Conv'
p2291
S'0'
sS'Tries'
p2292
S'0'
sS'Pts'
p2293
S'0'
sa(dp2294
S'Pens'
p2295
S'0'
sS'Sub'
p2296
S'0'
sS'Lost'
p2297
S'2'
sS'Drop'
p2298
S'0'
sS'Start'
p2299
S'3'
sS'Won'
p2300
S'1'
sS'GfM'
p2301
S'0'
sS'Draw'
p2302
S'0'
sS'Mat'
p2303
S'3'
sS'Conv'
p2304
S'0'
sS'Tries'
p2305
S'0'
sS'Pts'
p2306
S'0'
sa(dp2307
S'Pens'
p2308
S'0'
sS'Sub'
p2309
S'0'
sS'Lost'
p2310
S'7'
sS'Drop'
p2311
S'0'
sS'Start'
p2312
S'14'
p2313
sS'Won'
p2314
S'6'
sS'GfM'
p2315
S'0'
sS'Draw'
p2316
S'1'
sS'Mat'
p2317
S'14'
p2318
sS'Conv'
p2319
S'0'
sS'Tries'
p2320
S'1'
sS'Pts'
p2321
S'3'
sa(dp2322
S'Pens'
p2323
S'0'
sS'Sub'
p2324
S'0'
sS'Lost'
p2325
S'1'
sS'Drop'
p2326
S'0'
sS'Start'
p2327
S'2'
sS'Won'
p2328
S'1'
sS'GfM'
p2329
S'0'
sS'Draw'
p2330
S'0'
sS'Mat'
p2331
S'2'
sS'Conv'
p2332
S'0'
sS'Tries'
p2333
S'0'
sS'Pts'
p2334
S'0'
sa(dp2335
S'Pens'
p2336
S'0'
sS'Sub'
p2337
S'0'
sS'Lost'
p2338
S'0'
sS'Drop'
p2339
S'0'
sS'Start'
p2340
S'1'
sS'Won'
p2341
S'1'
sS'GfM'
p2342
S'0'
sS'Draw'
p2343
S'0'
sS'Mat'
p2344
S'1'
sS'Conv'
p2345
S'0'
sS'Tries'
p2346
S'0'
sS'Pts'
p2347
S'0'
sa(dp2348
S'Pens'
p2349
S'7'
sS'Sub'
p2350
S'0'
sS'Lost'
p2351
S'9'
sS'Drop'
p2352
S'0'
sS'Start'
p2353
S'22'
p2354
sS'Won'
p2355
S'12'
p2356
sS'GfM'
p2357
S'0'
sS'Draw'
p2358
S'1'
sS'Mat'
p2359
S'22'
p2360
sS'Conv'
p2361
S'2'
sS'Tries'
p2362
S'0'
sS'Pts'
p2363
S'25'
p2364
sa(dp2365
S'Pens'
p2366
S'0'
sS'Sub'
p2367
S'0'
sS'Lost'
p2368
S'0'
sS'Drop'
p2369
S'0'
sS'Start'
p2370
S'1'
sS'Won'
p2371
S'1'
sS'GfM'
p2372
S'0'
sS'Draw'
p2373
S'0'
sS'Mat'
p2374
S'1'
sS'Conv'
p2375
S'0'
sS'Tries'
p2376
S'0'
sS'Pts'
p2377
S'0'
sa(dp2378
S'Pens'
p2379
S'0'
sS'Sub'
p2380
S'0'
sS'Lost'
p2381
S'3'
sS'Drop'
p2382
S'0'
sS'Start'
p2383
S'6'
sS'Won'
p2384
S'3'
sS'GfM'
p2385
S'0'
sS'Draw'
p2386
S'0'
sS'Mat'
p2387
S'6'
sS'Conv'
p2388
S'0'
sS'Tries'
p2389
S'1'
sS'Pts'
p2390
S'3'
sa(dp2391
S'Pens'
p2392
S'0'
sS'Sub'
p2393
S'0'
sS'Lost'
p2394
S'6'
sS'Drop'
p2395
S'0'
sS'Start'
p2396
S'11'
p2397
sS'Won'
p2398
S'4'
sS'GfM'
p2399
S'0'
sS'Draw'
p2400
S'1'
sS'Mat'
p2401
S'11'
p2402
sS'Conv'
p2403
S'0'
sS'Tries'
p2404
S'0'
sS'Pts'
p2405
S'0'
sa(dp2406
S'Pens'
p2407
S'0'
sS'Sub'
p2408
S'1'
sS'Lost'
p2409
S'9'
sS'Drop'
p2410
S'0'
sS'Start'
p2411
S'14'
p2412
sS'Won'
p2413
S'5'
sS'GfM'
p2414
S'0'
sS'Draw'
p2415
S'1'
sS'Mat'
p2416
S'15'
p2417
sS'Conv'
p2418
S'0'
sS'Tries'
p2419
S'1'
sS'Pts'
p2420
S'3'
sa(dp2421
S'Pens'
p2422
S'5'
sS'Sub'
p2423
S'0'
sS'Lost'
p2424
S'5'
sS'Drop'
p2425
S'2'
sS'Start'
p2426
S'10'
p2427
sS'Won'
p2428
S'5'
sS'GfM'
p2429
S'0'
sS'Draw'
p2430
S'0'
sS'Mat'
p2431
S'10'
p2432
sS'Conv'
p2433
S'5'
sS'Tries'
p2434
S'0'
sS'Pts'
p2435
S'31'
p2436
sa(dp2437
S'Pens'
p2438
S'0'
sS'Sub'
p2439
S'0'
sS'Lost'
p2440
S'4'
sS'Drop'
p2441
S'0'
sS'Start'
p2442
S'6'
sS'Won'
p2443
S'2'
sS'GfM'
p2444
S'0'
sS'Draw'
p2445
S'0'
sS'Mat'
p2446
S'6'
sS'Conv'
p2447
S'0'
sS'Tries'
p2448
S'0'
sS'Pts'
p2449
S'0'
sa(dp2450
S'Pens'
p2451
S'0'
sS'Sub'
p2452
S'0'
sS'Lost'
p2453
S'5'
sS'Drop'
p2454
S'0'
sS'Start'
p2455
S'8'
sS'Won'
p2456
S'3'
sS'GfM'
p2457
S'0'
sS'Draw'
p2458
S'0'
sS'Mat'
p2459
S'8'
sS'Conv'
p2460
S'0'
sS'Tries'
p2461
S'1'
sS'Pts'
p2462
S'3'
sa(dp2463
S'Pens'
p2464
S'0'
sS'Sub'
p2465
S'0'
sS'Lost'
p2466
S'6'
sS'Drop'
p2467
S'0'
sS'Start'
p2468
S'10'
p2469
sS'Won'
p2470
S'4'
sS'GfM'
p2471
S'0'
sS'Draw'
p2472
S'0'
sS'Mat'
p2473
S'10'
p2474
sS'Conv'
p2475
S'0'
sS'Tries'
p2476
S'1'
sS'Pts'
p2477
S'3'
sa(dp2478
S'Pens'
p2479
S'0'
sS'Sub'
p2480
S'0'
sS'Lost'
p2481
S'8'
sS'Drop'
p2482
S'0'
sS'Start'
p2483
S'11'
p2484
sS'Won'
p2485
S'3'
sS'GfM'
p2486
S'0'
sS'Draw'
p2487
S'0'
sS'Mat'
p2488
S'11'
p2489
sS'Conv'
p2490
S'0'
sS'Tries'
p2491
S'2'
sS'Pts'
p2492
S'6'
sa(dp2493
S'Pens'
p2494
S'0'
sS'Sub'
p2495
S'0'
sS'Lost'
p2496
S'2'
sS'Drop'
p2497
S'0'
sS'Start'
p2498
S'4'
sS'Won'
p2499
S'2'
sS'GfM'
p2500
S'0'
sS'Draw'
p2501
S'0'
sS'Mat'
p2502
S'4'
sS'Conv'
p2503
S'0'
sS'Tries'
p2504
S'0'
sS'Pts'
p2505
S'0'
sa(dp2506
S'Pens'
p2507
S'0'
sS'Sub'
p2508
S'0'
sS'Lost'
p2509
S'7'
sS'Drop'
p2510
S'0'
sS'Start'
p2511
S'11'
p2512
sS'Won'
p2513
S'3'
sS'GfM'
p2514
S'0'
sS'Draw'
p2515
S'1'
sS'Mat'
p2516
S'11'
p2517
sS'Conv'
p2518
S'0'
sS'Tries'
p2519
S'0'
sS'Pts'
p2520
S'0'
sa(dp2521
S'Pens'
p2522
S'2'
sS'Sub'
p2523
S'0'
sS'Lost'
p2524
S'3'
sS'Drop'
p2525
S'0'
sS'Start'
p2526
S'12'
p2527
sS'Won'
p2528
S'8'
sS'GfM'
p2529
S'0'
sS'Draw'
p2530
S'1'
sS'Mat'
p2531
S'12'
p2532
sS'Conv'
p2533
S'2'
sS'Tries'
p2534
S'1'
sS'Pts'
p2535
S'13'
p2536
sa(dp2537
S'Pens'
p2538
S'0'
sS'Sub'
p2539
S'0'
sS'Lost'
p2540
S'3'
sS'Drop'
p2541
S'0'
sS'Start'
p2542
S'4'
sS'Won'
p2543
S'1'
sS'GfM'
p2544
S'0'
sS'Draw'
p2545
S'0'
sS'Mat'
p2546
S'4'
sS'Conv'
p2547
S'0'
sS'Tries'
p2548
S'1'
sS'Pts'
p2549
S'3'
sa(dp2550
S'Pens'
p2551
S'0'
sS'Sub'
p2552
S'1'
sS'Lost'
p2553
S'6'
sS'Drop'
p2554
S'0'
sS'Start'
p2555
S'11'
p2556
sS'Won'
p2557
S'5'
sS'GfM'
p2558
S'0'
sS'Draw'
p2559
S'1'
sS'Mat'
p2560
S'12'
p2561
sS'Conv'
p2562
S'0'
sS'Tries'
p2563
S'1'
sS'Pts'
p2564
S'3'
sa(dp2565
S'Pens'
p2566
S'4'
sS'Sub'
p2567
S'0'
sS'Lost'
p2568
S'9'
sS'Drop'
p2569
S'0'
sS'Start'
p2570
S'24'
p2571
sS'Won'
p2572
S'13'
p2573
sS'GfM'
p2574
S'0'
sS'Draw'
p2575
S'2'
sS'Mat'
p2576
S'24'
p2577
sS'Conv'
p2578
S'0'
sS'Tries'
p2579
S'10'
p2580
sS'Pts'
p2581
S'42'
p2582
sa(dp2583
S'Pens'
p2584
S'0'
sS'Sub'
p2585
S'0'
sS'Lost'
p2586
S'0'
sS'Drop'
p2587
S'0'
sS'Start'
p2588
S'1'
sS'Won'
p2589
S'1'
sS'GfM'
p2590
S'0'
sS'Draw'
p2591
S'0'
sS'Mat'
p2592
S'1'
sS'Conv'
p2593
S'0'
sS'Tries'
p2594
S'0'
sS'Pts'
p2595
S'0'
sa(dp2596
S'Pens'
p2597
S'0'
sS'Sub'
p2598
S'0'
sS'Lost'
p2599
S'25'
p2600
sS'Drop'
p2601
S'0'
sS'Start'
p2602
S'47'
p2603
sS'Won'
p2604
S'19'
p2605
sS'GfM'
p2606
S'0'
sS'Draw'
p2607
S'3'
sS'Mat'
p2608
S'47'
p2609
sS'Conv'
p2610
S'0'
sS'Tries'
p2611
S'7'
sS'Pts'
p2612
S'24'
p2613
sa(dp2614
S'Pens'
p2615
S'0'
sS'Sub'
p2616
S'0'
sS'Lost'
p2617
S'4'
sS'Drop'
p2618
S'0'
sS'Start'
p2619
S'6'
sS'Won'
p2620
S'1'
sS'GfM'
p2621
S'0'
sS'Draw'
p2622
S'1'
sS'Mat'
p2623
S'6'
sS'Conv'
p2624
S'0'
sS'Tries'
p2625
S'1'
sS'Pts'
p2626
S'3'
sa(dp2627
S'Pens'
p2628
S'0'
sS'Sub'
p2629
S'0'
sS'Lost'
p2630
S'2'
sS'Drop'
p2631
S'0'
sS'Start'
p2632
S'3'
sS'Won'
p2633
S'1'
sS'GfM'
p2634
S'0'
sS'Draw'
p2635
S'0'
sS'Mat'
p2636
S'3'
sS'Conv'
p2637
S'0'
sS'Tries'
p2638
S'0'
sS'Pts'
p2639
S'0'
sa(dp2640
S'Pens'
p2641
S'0'
sS'Sub'
p2642
S'0'
sS'Lost'
p2643
S'2'
sS'Drop'
p2644
S'0'
sS'Start'
p2645
S'3'
sS'Won'
p2646
S'1'
sS'GfM'
p2647
S'0'
sS'Draw'
p2648
S'0'
sS'Mat'
p2649
S'3'
sS'Conv'
p2650
S'0'
sS'Tries'
p2651
S'0'
sS'Pts'
p2652
S'0'
sa(dp2653
S'Pens'
p2654
S'0'
sS'Sub'
p2655
S'0'
sS'Lost'
p2656
S'7'
sS'Drop'
p2657
S'0'
sS'Start'
p2658
S'20'
p2659
sS'Won'
p2660
S'10'
p2661
sS'GfM'
p2662
S'0'
sS'Draw'
p2663
S'3'
sS'Mat'
p2664
S'20'
p2665
sS'Conv'
p2666
S'0'
sS'Tries'
p2667
S'2'
sS'Pts'
p2668
S'8'
sa(dp2669
S'Pens'
p2670
S'0'
sS'Sub'
p2671
S'0'
sS'Lost'
p2672
S'2'
sS'Drop'
p2673
S'0'
sS'Start'
p2674
S'4'
sS'Won'
p2675
S'2'
sS'GfM'
p2676
S'0'
sS'Draw'
p2677
S'0'
sS'Mat'
p2678
S'4'
sS'Conv'
p2679
S'0'
sS'Tries'
p2680
S'0'
sS'Pts'
p2681
S'0'
sa(dp2682
S'Pens'
p2683
S'0'
sS'Sub'
p2684
S'0'
sS'Lost'
p2685
S'2'
sS'Drop'
p2686
S'0'
sS'Start'
p2687
S'2'
sS'Won'
p2688
S'0'
sS'GfM'
p2689
S'0'
sS'Draw'
p2690
S'0'
sS'Mat'
p2691
S'2'
sS'Conv'
p2692
S'0'
sS'Tries'
p2693
S'1'
sS'Pts'
p2694
S'3'
sa(dp2695
S'Pens'
p2696
S'0'
sS'Sub'
p2697
S'0'
sS'Lost'
p2698
S'1'
sS'Drop'
p2699
S'0'
sS'Start'
p2700
S'9'
sS'Won'
p2701
S'7'
sS'GfM'
p2702
S'0'
sS'Draw'
p2703
S'1'
sS'Mat'
p2704
S'9'
sS'Conv'
p2705
S'0'
sS'Tries'
p2706
S'1'
sS'Pts'
p2707
S'3'
sa(dp2708
S'Pens'
p2709
S'0'
sS'Sub'
p2710
S'0'
sS'Lost'
p2711
S'6'
sS'Drop'
p2712
S'0'
sS'Start'
p2713
S'17'
p2714
sS'Won'
p2715
S'10'
p2716
sS'GfM'
p2717
S'0'
sS'Draw'
p2718
S'1'
sS'Mat'
p2719
S'17'
p2720
sS'Conv'
p2721
S'0'
sS'Tries'
p2722
S'2'
sS'Pts'
p2723
S'6'
sa(dp2724
S'Pens'
p2725
S'0'
sS'Sub'
p2726
S'0'
sS'Lost'
p2727
S'1'
sS'Drop'
p2728
S'0'
sS'Start'
p2729
S'2'
sS'Won'
p2730
S'1'
sS'GfM'
p2731
S'0'
sS'Draw'
p2732
S'0'
sS'Mat'
p2733
S'2'
sS'Conv'
p2734
S'0'
sS'Tries'
p2735
S'0'
sS'Pts'
p2736
S'0'
sa(dp2737
S'Pens'
p2738
S'0'
sS'Sub'
p2739
S'0'
sS'Lost'
p2740
S'2'
sS'Drop'
p2741
S'0'
sS'Start'
p2742
S'3'
sS'Won'
p2743
S'1'
sS'GfM'
p2744
S'0'
sS'Draw'
p2745
S'0'
sS'Mat'
p2746
S'3'
sS'Conv'
p2747
S'0'
sS'Tries'
p2748
S'0'
sS'Pts'
p2749
S'0'
sa(dp2750
S'Pens'
p2751
S'0'
sS'Sub'
p2752
S'0'
sS'Lost'
p2753
S'0'
sS'Drop'
p2754
S'0'
sS'Start'
p2755
S'1'
sS'Won'
p2756
S'1'
sS'GfM'
p2757
S'0'
sS'Draw'
p2758
S'0'
sS'Mat'
p2759
S'1'
sS'Conv'
p2760
S'0'
sS'Tries'
p2761
S'0'
sS'Pts'
p2762
S'0'
sa(dp2763
S'Pens'
p2764
S'0'
sS'Sub'
p2765
S'0'
sS'Lost'
p2766
S'1'
sS'Drop'
p2767
S'0'
sS'Start'
p2768
S'4'
sS'Won'
p2769
S'2'
sS'GfM'
p2770
S'0'
sS'Draw'
p2771
S'1'
sS'Mat'
p2772
S'4'
sS'Conv'
p2773
S'0'
sS'Tries'
p2774
S'0'
sS'Pts'
p2775
S'0'
sa(dp2776
S'Pens'
p2777
S'0'
sS'Sub'
p2778
S'0'
sS'Lost'
p2779
S'0'
sS'Drop'
p2780
S'0'
sS'Start'
p2781
S'1'
sS'Won'
p2782
S'1'
sS'GfM'
p2783
S'0'
sS'Draw'
p2784
S'0'
sS'Mat'
p2785
S'1'
sS'Conv'
p2786
S'1'
sS'Tries'
p2787
S'0'
sS'Pts'
p2788
S'2'
sa(dp2789
S'Pens'
p2790
S'0'
sS'Sub'
p2791
S'0'
sS'Lost'
p2792
S'3'
sS'Drop'
p2793
S'0'
sS'Start'
p2794
S'5'
sS'Won'
p2795
S'1'
sS'GfM'
p2796
S'0'
sS'Draw'
p2797
S'1'
sS'Mat'
p2798
S'5'
sS'Conv'
p2799
S'0'
sS'Tries'
p2800
S'0'
sS'Pts'
p2801
S'0'
sa(dp2802
S'Pens'
p2803
S'0'
sS'Sub'
p2804
S'0'
sS'Lost'
p2805
S'1'
sS'Drop'
p2806
S'0'
sS'Start'
p2807
S'1'
sS'Won'
p2808
S'0'
sS'GfM'
p2809
S'0'
sS'Draw'
p2810
S'0'
sS'Mat'
p2811
S'1'
sS'Conv'
p2812
S'0'
sS'Tries'
p2813
S'0'
sS'Pts'
p2814
S'0'
sa(dp2815
S'Pens'
p2816
S'0'
sS'Sub'
p2817
S'0'
sS'Lost'
p2818
S'2'
sS'Drop'
p2819
S'0'
sS'Start'
p2820
S'5'
sS'Won'
p2821
S'2'
sS'GfM'
p2822
S'0'
sS'Draw'
p2823
S'1'
sS'Mat'
p2824
S'5'
sS'Conv'
p2825
S'0'
sS'Tries'
p2826
S'0'
sS'Pts'
p2827
S'0'
sa(dp2828
S'Pens'
p2829
S'0'
sS'Sub'
p2830
S'0'
sS'Lost'
p2831
S'5'
sS'Drop'
p2832
S'0'
sS'Start'
p2833
S'17'
p2834
sS'Won'
p2835
S'10'
p2836
sS'GfM'
p2837
S'0'
sS'Draw'
p2838
S'2'
sS'Mat'
p2839
S'17'
p2840
sS'Conv'
p2841
S'0'
sS'Tries'
p2842
S'2'
sS'Pts'
p2843
S'6'
sa(dp2844
S'Pens'
p2845
S'0'
sS'Sub'
p2846
S'0'
sS'Lost'
p2847
S'1'
sS'Drop'
p2848
S'0'
sS'Start'
p2849
S'2'
sS'Won'
p2850
S'1'
sS'GfM'
p2851
S'0'
sS'Draw'
p2852
S'0'
sS'Mat'
p2853
S'2'
sS'Conv'
p2854
S'0'
sS'Tries'
p2855
S'0'
sS'Pts'
p2856
S'0'
sa(dp2857
S'Pens'
p2858
S'0'
sS'Sub'
p2859
S'0'
sS'Lost'
p2860
S'2'
sS'Drop'
p2861
S'0'
sS'Start'
p2862
S'4'
sS'Won'
p2863
S'2'
sS'GfM'
p2864
S'0'
sS'Draw'
p2865
S'0'
sS'Mat'
p2866
S'4'
sS'Conv'
p2867
S'0'
sS'Tries'
p2868
S'1'
sS'Pts'
p2869
S'3'
sa(dp2870
S'Pens'
p2871
S'0'
sS'Sub'
p2872
S'0'
sS'Lost'
p2873
S'2'
sS'Drop'
p2874
S'0'
sS'Start'
p2875
S'4'
sS'Won'
p2876
S'2'
sS'GfM'
p2877
S'0'
sS'Draw'
p2878
S'0'
sS'Mat'
p2879
S'4'
sS'Conv'
p2880
S'0'
sS'Tries'
p2881
S'0'
sS'Pts'
p2882
S'0'
sa(dp2883
S'Pens'
p2884
S'0'
sS'Sub'
p2885
S'0'
sS'Lost'
p2886
S'0'
sS'Drop'
p2887
S'0'
sS'Start'
p2888
S'1'
sS'Won'
p2889
S'1'
sS'GfM'
p2890
S'0'
sS'Draw'
p2891
S'0'
sS'Mat'
p2892
S'1'
sS'Conv'
p2893
S'0'
sS'Tries'
p2894
S'0'
sS'Pts'
p2895
S'0'
sa(dp2896
S'Pens'
p2897
S'0'
sS'Sub'
p2898
S'0'
sS'Lost'
p2899
S'0'
sS'Drop'
p2900
S'0'
sS'Start'
p2901
S'1'
sS'Won'
p2902
S'1'
sS'GfM'
p2903
S'0'
sS'Draw'
p2904
S'0'
sS'Mat'
p2905
S'1'
sS'Conv'
p2906
S'0'
sS'Tries'
p2907
S'0'
sS'Pts'
p2908
S'0'
sa(dp2909
S'Pens'
p2910
S'0'
sS'Sub'
p2911
S'0'
sS'Lost'
p2912
S'2'
sS'Drop'
p2913
S'0'
sS'Start'
p2914
S'10'
p2915
sS'Won'
p2916
S'8'
sS'GfM'
p2917
S'0'
sS'Draw'
p2918
S'0'
sS'Mat'
p2919
S'10'
p2920
sS'Conv'
p2921
S'0'
sS'Tries'
p2922
S'3'
sS'Pts'
p2923
S'9'
sa(dp2924
S'Pens'
p2925
S'0'
sS'Sub'
p2926
S'0'
sS'Lost'
p2927
S'1'
sS'Drop'
p2928
S'0'
sS'Start'
p2929
S'2'
sS'Won'
p2930
S'1'
sS'GfM'
p2931
S'0'
sS'Draw'
p2932
S'0'
sS'Mat'
p2933
S'2'
sS'Conv'
p2934
S'0'
sS'Tries'
p2935
S'0'
sS'Pts'
p2936
S'0'
sa(dp2937
S'Pens'
p2938
S'0'
sS'Sub'
p2939
S'0'
sS'Lost'
p2940
S'1'
sS'Drop'
p2941
S'1'
sS'Start'
p2942
S'5'
sS'Won'
p2943
S'4'
sS'GfM'
p2944
S'0'
sS'Draw'
p2945
S'0'
sS'Mat'
p2946
S'5'
sS'Conv'
p2947
S'0'
sS'Tries'
p2948
S'0'
sS'Pts'
p2949
S'3'
sa(dp2950
S'Pens'
p2951
S'0'
sS'Sub'
p2952
S'0'
sS'Lost'
p2953
S'1'
sS'Drop'
p2954
S'0'
sS'Start'
p2955
S'4'
sS'Won'
p2956
S'3'
sS'GfM'
p2957
S'0'
sS'Draw'
p2958
S'0'
sS'Mat'
p2959
S'4'
sS'Conv'
p2960
S'0'
sS'Tries'
p2961
S'0'
sS'Pts'
p2962
S'0'
sa(dp2963
S'Pens'
p2964
S'0'
sS'Sub'
p2965
S'0'
sS'Lost'
p2966
S'1'
sS'Drop'
p2967
S'0'
sS'Start'
p2968
S'1'
sS'Won'
p2969
S'0'
sS'GfM'
p2970
S'0'
sS'Draw'
p2971
S'0'
sS'Mat'
p2972
S'1'
sS'Conv'
p2973
S'0'
sS'Tries'
p2974
S'0'
sS'Pts'
p2975
S'0'
sa(dp2976
S'Pens'
p2977
S'0'
sS'Sub'
p2978
S'0'
sS'Lost'
p2979
S'1'
sS'Drop'
p2980
S'0'
sS'Start'
p2981
S'1'
sS'Won'
p2982
S'0'
sS'GfM'
p2983
S'0'
sS'Draw'
p2984
S'0'
sS'Mat'
p2985
S'1'
sS'Conv'
p2986
S'0'
sS'Tries'
p2987
S'0'
sS'Pts'
p2988
S'0'
sa(dp2989
S'Pens'
p2990
S'0'
sS'Sub'
p2991
S'0'
sS'Lost'
p2992
S'1'
sS'Drop'
p2993
S'0'
sS'Start'
p2994
S'1'
sS'Won'
p2995
S'0'
sS'GfM'
p2996
S'0'
sS'Draw'
p2997
S'0'
sS'Mat'
p2998
S'1'
sS'Conv'
p2999
S'0'
sS'Tries'
p3000
S'0'
sS'Pts'
p3001
S'0'
sa(dp3002
S'Pens'
p3003
S'0'
sS'Sub'
p3004
S'0'
sS'Lost'
p3005
S'0'
sS'Drop'
p3006
S'0'
sS'Start'
p3007
S'2'
sS'Won'
p3008
S'2'
sS'GfM'
p3009
S'0'
sS'Draw'
p3010
S'0'
sS'Mat'
p3011
S'2'
sS'Conv'
p3012
S'0'
sS'Tries'
p3013
S'0'
sS'Pts'
p3014
S'0'
sa(dp3015
S'Pens'
p3016
S'0'
sS'Sub'
p3017
S'0'
sS'Lost'
p3018
S'6'
sS'Drop'
p3019
S'0'
sS'Start'
p3020
S'17'
p3021
sS'Won'
p3022
S'10'
p3023
sS'GfM'
p3024
S'0'
sS'Draw'
p3025
S'1'
sS'Mat'
p3026
S'17'
p3027
sS'Conv'
p3028
S'0'
sS'Tries'
p3029
S'1'
sS'Pts'
p3030
S'3'
sa(dp3031
S'Pens'
p3032
S'0'
sS'Sub'
p3033
S'0'
sS'Lost'
p3034
S'0'
sS'Drop'
p3035
S'0'
sS'Start'
p3036
S'2'
sS'Won'
p3037
S'2'
sS'GfM'
p3038
S'0'
sS'Draw'
p3039
S'0'
sS'Mat'
p3040
S'2'
sS'Conv'
p3041
S'0'
sS'Tries'
p3042
S'0'
sS'Pts'
p3043
S'0'
sa(dp3044
S'Pens'
p3045
S'0'
sS'Sub'
p3046
S'0'
sS'Lost'
p3047
S'0'
sS'Drop'
p3048
S'0'
sS'Start'
p3049
S'3'
sS'Won'
p3050
S'2'
sS'GfM'
p3051
S'0'
sS'Draw'
p3052
S'1'
sS'Mat'
p3053
S'3'
sS'Conv'
p3054
S'0'
sS'Tries'
p3055
S'0'
sS'Pts'
p3056
S'0'
sa(dp3057
S'Pens'
p3058
S'0'
sS'Sub'
p3059
S'0'
sS'Lost'
p3060
S'6'
sS'Drop'
p3061
S'0'
sS'Start'
p3062
S'11'
p3063
sS'Won'
p3064
S'4'
sS'GfM'
p3065
S'0'
sS'Draw'
p3066
S'1'
sS'Mat'
p3067
S'11'
p3068
sS'Conv'
p3069
S'0'
sS'Tries'
p3070
S'2'
sS'Pts'
p3071
S'7'
sa(dp3072
S'Pens'
p3073
S'0'
sS'Sub'
p3074
S'0'
sS'Lost'
p3075
S'2'
sS'Drop'
p3076
S'1'
sS'Start'
p3077
S'6'
sS'Won'
p3078
S'4'
sS'GfM'
p3079
S'0'
sS'Draw'
p3080
S'0'
sS'Mat'
p3081
S'6'
sS'Conv'
p3082
S'0'
sS'Tries'
p3083
S'0'
sS'Pts'
p3084
S'3'
sa(dp3085
S'Pens'
p3086
S'0'
sS'Sub'
p3087
S'0'
sS'Lost'
p3088
S'0'
sS'Drop'
p3089
S'0'
sS'Start'
p3090
S'5'
sS'Won'
p3091
S'5'
sS'GfM'
p3092
S'0'
sS'Draw'
p3093
S'0'
sS'Mat'
p3094
S'5'
sS'Conv'
p3095
S'0'
sS'Tries'
p3096
S'3'
sS'Pts'
p3097
S'9'
sa(dp3098
S'Pens'
p3099
S'0'
sS'Sub'
p3100
S'0'
sS'Lost'
p3101
S'0'
sS'Drop'
p3102
S'0'
sS'Start'
p3103
S'2'
sS'Won'
p3104
S'2'
sS'GfM'
p3105
S'0'
sS'Draw'
p3106
S'0'
sS'Mat'
p3107
S'2'
sS'Conv'
p3108
S'0'
sS'Tries'
p3109
S'0'
sS'Pts'
p3110
S'0'
sa(dp3111
S'Pens'
p3112
S'0'
sS'Sub'
p3113
S'0'
sS'Lost'
p3114
S'2'
sS'Drop'
p3115
S'0'
sS'Start'
p3116
S'6'
sS'Won'
p3117
S'4'
sS'GfM'
p3118
S'0'
sS'Draw'
p3119
S'0'
sS'Mat'
p3120
S'6'
sS'Conv'
p3121
S'0'
sS'Tries'
p3122
S'0'
sS'Pts'
p3123
S'0'
sa(dp3124
S'Pens'
p3125
S'0'
sS'Sub'
p3126
S'1'
sS'Lost'
p3127
S'2'
sS'Drop'
p3128
S'0'
sS'Start'
p3129
S'4'
sS'Won'
p3130
S'2'
sS'GfM'
p3131
S'0'
sS'Draw'
p3132
S'1'
sS'Mat'
p3133
S'5'
sS'Conv'
p3134
S'0'
sS'Tries'
p3135
S'0'
sS'Pts'
p3136
S'0'
sa(dp3137
S'Pens'
p3138
S'0'
sS'Sub'
p3139
S'0'
sS'Lost'
p3140
S'4'
sS'Drop'
p3141
S'0'
sS'Start'
p3142
S'7'
sS'Won'
p3143
S'2'
sS'GfM'
p3144
S'0'
sS'Draw'
p3145
S'1'
sS'Mat'
p3146
S'7'
sS'Conv'
p3147
S'0'
sS'Tries'
p3148
S'0'
sS'Pts'
p3149
S'0'
sa(dp3150
S'Pens'
p3151
S'0'
sS'Sub'
p3152
S'2'
sS'Lost'
p3153
S'4'
sS'Drop'
p3154
S'0'
sS'Start'
p3155
S'6'
sS'Won'
p3156
S'4'
sS'GfM'
p3157
S'0'
sS'Draw'
p3158
S'0'
sS'Mat'
p3159
S'8'
sS'Conv'
p3160
S'0'
sS'Tries'
p3161
S'1'
sS'Pts'
p3162
S'3'
sa(dp3163
S'Pens'
p3164
S'0'
sS'Sub'
p3165
S'1'
sS'Lost'
p3166
S'1'
sS'Drop'
p3167
S'0'
sS'Start'
p3168
S'4'
sS'Won'
p3169
S'4'
sS'GfM'
p3170
S'0'
sS'Draw'
p3171
S'0'
sS'Mat'
p3172
S'5'
sS'Conv'
p3173
S'0'
sS'Tries'
p3174
S'3'
sS'Pts'
p3175
S'9'
sa(dp3176
S'Pens'
p3177
S'0'
sS'Sub'
p3178
S'2'
sS'Lost'
p3179
S'6'
sS'Drop'
p3180
S'0'
sS'Start'
p3181
S'11'
p3182
sS'Won'
p3183
S'5'
sS'GfM'
p3184
S'0'
sS'Draw'
p3185
S'2'
sS'Mat'
p3186
S'13'
p3187
sS'Conv'
p3188
S'0'
sS'Tries'
p3189
S'1'
sS'Pts'
p3190
S'3'
sa(dp3191
S'Pens'
p3192
S'0'
sS'Sub'
p3193
S'0'
sS'Lost'
p3194
S'0'
sS'Drop'
p3195
S'0'
sS'Start'
p3196
S'1'
sS'Won'
p3197
S'1'
sS'GfM'
p3198
S'0'
sS'Draw'
p3199
S'0'
sS'Mat'
p3200
S'1'
sS'Conv'
p3201
S'0'
sS'Tries'
p3202
S'0'
sS'Pts'
p3203
S'0'
sa(dp3204
S'Pens'
p3205
S'0'
sS'Sub'
p3206
S'0'
sS'Lost'
p3207
S'4'
sS'Drop'
p3208
S'3'
sS'Start'
p3209
S'9'
sS'Won'
p3210
S'5'
sS'GfM'
p3211
S'0'
sS'Draw'
p3212
S'0'
sS'Mat'
p3213
S'9'
sS'Conv'
p3214
S'2'
sS'Tries'
p3215
S'2'
sS'Pts'
p3216
S'19'
p3217
sa(dp3218
S'Pens'
p3219
S'0'
sS'Sub'
p3220
S'0'
sS'Lost'
p3221
S'1'
sS'Drop'
p3222
S'0'
sS'Start'
p3223
S'3'
sS'Won'
p3224
S'2'
sS'GfM'
p3225
S'0'
sS'Draw'
p3226
S'0'
sS'Mat'
p3227
S'3'
sS'Conv'
p3228
S'0'
sS'Tries'
p3229
S'0'
sS'Pts'
p3230
S'0'
sa(dp3231
S'Pens'
p3232
S'0'
sS'Sub'
p3233
S'1'
sS'Lost'
p3234
S'0'
sS'Drop'
p3235
S'0'
sS'Start'
p3236
S'0'
sS'Won'
p3237
S'1'
sS'GfM'
p3238
S'0'
sS'Draw'
p3239
S'0'
sS'Mat'
p3240
S'1'
sS'Conv'
p3241
S'0'
sS'Tries'
p3242
S'0'
sS'Pts'
p3243
S'0'
sa(dp3244
S'Pens'
p3245
S'0'
sS'Sub'
p3246
S'1'
sS'Lost'
p3247
S'1'
sS'Drop'
p3248
S'0'
sS'Start'
p3249
S'2'
sS'Won'
p3250
S'2'
sS'GfM'
p3251
S'0'
sS'Draw'
p3252
S'0'
sS'Mat'
p3253
S'3'
sS'Conv'
p3254
S'0'
sS'Tries'
p3255
S'0'
sS'Pts'
p3256
S'0'
sa(dp3257
S'Pens'
p3258
S'5'
sS'Sub'
p3259
S'1'
sS'Lost'
p3260
S'3'
sS'Drop'
p3261
S'0'
sS'Start'
p3262
S'6'
sS'Won'
p3263
S'4'
sS'GfM'
p3264
S'0'
sS'Draw'
p3265
S'0'
sS'Mat'
p3266
S'7'
sS'Conv'
p3267
S'2'
sS'Tries'
p3268
S'5'
sS'Pts'
p3269
S'34'
p3270
sa(dp3271
S'Pens'
p3272
S'0'
sS'Sub'
p3273
S'0'
sS'Lost'
p3274
S'1'
sS'Drop'
p3275
S'0'
sS'Start'
p3276
S'1'
sS'Won'
p3277
S'0'
sS'GfM'
p3278
S'0'
sS'Draw'
p3279
S'0'
sS'Mat'
p3280
S'1'
sS'Conv'
p3281
S'0'
sS'Tries'
p3282
S'0'
sS'Pts'
p3283
S'0'
sa(dp3284
S'Pens'
p3285
S'2'
sS'Sub'
p3286
S'2'
sS'Lost'
p3287
S'16'
p3288
sS'Drop'
p3289
S'3'
sS'Start'
p3290
S'24'
p3291
sS'Won'
p3292
S'10'
p3293
sS'GfM'
p3294
S'0'
sS'Draw'
p3295
S'0'
sS'Mat'
p3296
S'26'
p3297
sS'Conv'
p3298
S'4'
sS'Tries'
p3299
S'2'
sS'Pts'
p3300
S'31'
p3301
sa(dp3302
S'Pens'
p3303
S'0'
sS'Sub'
p3304
S'0'
sS'Lost'
p3305
S'3'
sS'Drop'
p3306
S'1'
sS'Start'
p3307
S'5'
sS'Won'
p3308
S'1'
sS'GfM'
p3309
S'0'
sS'Draw'
p3310
S'1'
sS'Mat'
p3311
S'5'
sS'Conv'
p3312
S'0'
sS'Tries'
p3313
S'0'
sS'Pts'
p3314
S'3'
sa(dp3315
S'Pens'
p3316
S'14'
p3317
sS'Sub'
p3318
S'0'
sS'Lost'
p3319
S'15'
p3320
sS'Drop'
p3321
S'2'
sS'Start'
p3322
S'24'
p3323
sS'Won'
p3324
S'6'
sS'GfM'
p3325
S'0'
sS'Draw'
p3326
S'3'
sS'Mat'
p3327
S'24'
p3328
sS'Conv'
p3329
S'11'
p3330
sS'Tries'
p3331
S'0'
sS'Pts'
p3332
S'70'
p3333
sa(dp3334
S'Pens'
p3335
S'0'
sS'Sub'
p3336
S'0'
sS'Lost'
p3337
S'0'
sS'Drop'
p3338
S'0'
sS'Start'
p3339
S'3'
sS'Won'
p3340
S'3'
sS'GfM'
p3341
S'0'
sS'Draw'
p3342
S'0'
sS'Mat'
p3343
S'3'
sS'Conv'
p3344
S'0'
sS'Tries'
p3345
S'0'
sS'Pts'
p3346
S'0'
sa(dp3347
S'Pens'
p3348
S'0'
sS'Sub'
p3349
S'0'
sS'Lost'
p3350
S'0'
sS'Drop'
p3351
S'0'
sS'Start'
p3352
S'3'
sS'Won'
p3353
S'3'
sS'GfM'
p3354
S'0'
sS'Draw'
p3355
S'0'
sS'Mat'
p3356
S'3'
sS'Conv'
p3357
S'0'
sS'Tries'
p3358
S'0'
sS'Pts'
p3359
S'0'
sa(dp3360
S'Pens'
p3361
S'0'
sS'Sub'
p3362
S'0'
sS'Lost'
p3363
S'2'
sS'Drop'
p3364
S'0'
sS'Start'
p3365
S'5'
sS'Won'
p3366
S'2'
sS'GfM'
p3367
S'0'
sS'Draw'
p3368
S'1'
sS'Mat'
p3369
S'5'
sS'Conv'
p3370
S'0'
sS'Tries'
p3371
S'0'
sS'Pts'
p3372
S'0'
sa(dp3373
S'Pens'
p3374
S'0'
sS'Sub'
p3375
S'0'
sS'Lost'
p3376
S'1'
sS'Drop'
p3377
S'0'
sS'Start'
p3378
S'3'
sS'Won'
p3379
S'2'
sS'GfM'
p3380
S'0'
sS'Draw'
p3381
S'0'
sS'Mat'
p3382
S'3'
sS'Conv'
p3383
S'0'
sS'Tries'
p3384
S'0'
sS'Pts'
p3385
S'0'
sa(dp3386
S'Pens'
p3387
S'1'
sS'Sub'
p3388
S'0'
sS'Lost'
p3389
S'6'
sS'Drop'
p3390
S'1'
sS'Start'
p3391
S'11'
p3392
sS'Won'
p3393
S'3'
sS'GfM'
p3394
S'0'
sS'Draw'
p3395
S'2'
sS'Mat'
p3396
S'11'
p3397
sS'Conv'
p3398
S'0'
sS'Tries'
p3399
S'0'
sS'Pts'
p3400
S'6'
sa(dp3401
S'Pens'
p3402
S'0'
sS'Sub'
p3403
S'0'
sS'Lost'
p3404
S'8'
sS'Drop'
p3405
S'0'
sS'Start'
p3406
S'13'
p3407
sS'Won'
p3408
S'3'
sS'GfM'
p3409
S'0'
sS'Draw'
p3410
S'2'
sS'Mat'
p3411
S'13'
p3412
sS'Conv'
p3413
S'0'
sS'Tries'
p3414
S'0'
sS'Pts'
p3415
S'0'
sa(dp3416
S'Pens'
p3417
S'0'
sS'Sub'
p3418
S'0'
sS'Lost'
p3419
S'10'
p3420
sS'Drop'
p3421
S'0'
sS'Start'
p3422
S'15'
p3423
sS'Won'
p3424
S'4'
sS'GfM'
p3425
S'0'
sS'Draw'
p3426
S'1'
sS'Mat'
p3427
S'15'
p3428
sS'Conv'
p3429
S'0'
sS'Tries'
p3430
S'0'
sS'Pts'
p3431
S'0'
sa(dp3432
S'Pens'
p3433
S'0'
sS'Sub'
p3434
S'3'
sS'Lost'
p3435
S'12'
p3436
sS'Drop'
p3437
S'2'
sS'Start'
p3438
S'20'
p3439
sS'Won'
p3440
S'8'
sS'GfM'
p3441
S'0'
sS'Draw'
p3442
S'3'
sS'Mat'
p3443
S'23'
p3444
sS'Conv'
p3445
S'0'
sS'Tries'
p3446
S'3'
sS'Pts'
p3447
S'18'
p3448
sa(dp3449
S'Pens'
p3450
S'0'
sS'Sub'
p3451
S'1'
sS'Lost'
p3452
S'13'
p3453
sS'Drop'
p3454
S'0'
sS'Start'
p3455
S'23'
p3456
sS'Won'
p3457
S'7'
sS'GfM'
p3458
S'0'
sS'Draw'
p3459
S'4'
sS'Mat'
p3460
S'24'
p3461
sS'Conv'
p3462
S'0'
sS'Tries'
p3463
S'1'
sS'Pts'
p3464
S'4'
sa(dp3465
S'Pens'
p3466
S'0'
sS'Sub'
p3467
S'0'
sS'Lost'
p3468
S'1'
sS'Drop'
p3469
S'0'
sS'Start'
p3470
S'1'
sS'Won'
p3471
S'0'
sS'GfM'
p3472
S'0'
sS'Draw'
p3473
S'0'
sS'Mat'
p3474
S'1'
sS'Conv'
p3475
S'0'
sS'Tries'
p3476
S'0'
sS'Pts'
p3477
S'0'
sa(dp3478
S'Pens'
p3479
S'0'
sS'Sub'
p3480
S'1'
sS'Lost'
p3481
S'2'
sS'Drop'
p3482
S'0'
sS'Start'
p3483
S'4'
sS'Won'
p3484
S'1'
sS'GfM'
p3485
S'0'
sS'Draw'
p3486
S'2'
sS'Mat'
p3487
S'5'
sS'Conv'
p3488
S'0'
sS'Tries'
p3489
S'3'
sS'Pts'
p3490
S'11'
p3491
sa(dp3492
S'Pens'
p3493
S'0'
sS'Sub'
p3494
S'0'
sS'Lost'
p3495
S'14'
p3496
sS'Drop'
p3497
S'0'
sS'Start'
p3498
S'28'
p3499
sS'Won'
p3500
S'10'
p3501
sS'GfM'
p3502
S'0'
sS'Draw'
p3503
S'4'
sS'Mat'
p3504
S'28'
p3505
sS'Conv'
p3506
S'0'
sS'Tries'
p3507
S'1'
sS'Pts'
p3508
S'4'
sa(dp3509
S'Pens'
p3510
S'0'
sS'Sub'
p3511
S'0'
sS'Lost'
p3512
S'1'
sS'Drop'
p3513
S'0'
sS'Start'
p3514
S'3'
sS'Won'
p3515
S'1'
sS'GfM'
p3516
S'0'
sS'Draw'
p3517
S'1'
sS'Mat'
p3518
S'3'
sS'Conv'
p3519
S'0'
sS'Tries'
p3520
S'1'
sS'Pts'
p3521
S'3'
sa(dp3522
S'Pens'
p3523
S'0'
sS'Sub'
p3524
S'0'
sS'Lost'
p3525
S'1'
sS'Drop'
p3526
S'0'
sS'Start'
p3527
S'1'
sS'Won'
p3528
S'0'
sS'GfM'
p3529
S'0'
sS'Draw'
p3530
S'0'
sS'Mat'
p3531
S'1'
sS'Conv'
p3532
S'0'
sS'Tries'
p3533
S'0'
sS'Pts'
p3534
S'0'
sa(dp3535
S'Pens'
p3536
S'0'
sS'Sub'
p3537
S'0'
sS'Lost'
p3538
S'1'
sS'Drop'
p3539
S'0'
sS'Start'
p3540
S'1'
sS'Won'
p3541
S'0'
sS'GfM'
p3542
S'0'
sS'Draw'
p3543
S'0'
sS'Mat'
p3544
S'1'
sS'Conv'
p3545
S'0'
sS'Tries'
p3546
S'0'
sS'Pts'
p3547
S'0'
sa(dp3548
S'Pens'
p3549
S'0'
sS'Sub'
p3550
S'1'
sS'Lost'
p3551
S'1'
sS'Drop'
p3552
S'0'
sS'Start'
p3553
S'0'
sS'Won'
p3554
S'0'
sS'GfM'
p3555
S'0'
sS'Draw'
p3556
S'0'
sS'Mat'
p3557
S'1'
sS'Conv'
p3558
S'0'
sS'Tries'
p3559
S'0'
sS'Pts'
p3560
S'0'
sa(dp3561
S'Pens'
p3562
S'0'
sS'Sub'
p3563
S'0'
sS'Lost'
p3564
S'0'
sS'Drop'
p3565
S'0'
sS'Start'
p3566
S'1'
sS'Won'
p3567
S'0'
sS'GfM'
p3568
S'0'
sS'Draw'
p3569
S'1'
sS'Mat'
p3570
S'1'
sS'Conv'
p3571
S'0'
sS'Tries'
p3572
S'0'
sS'Pts'
p3573
S'0'
sa(dp3574
S'Pens'
p3575
S'0'
sS'Sub'
p3576
S'0'
sS'Lost'
p3577
S'14'
p3578
sS'Drop'
p3579
S'0'
sS'Start'
p3580
S'20'
p3581
sS'Won'
p3582
S'4'
sS'GfM'
p3583
S'0'
sS'Draw'
p3584
S'2'
sS'Mat'
p3585
S'20'
p3586
sS'Conv'
p3587
S'0'
sS'Tries'
p3588
S'1'
sS'Pts'
p3589
S'4'
sa(dp3590
S'Pens'
p3591
S'0'
sS'Sub'
p3592
S'0'
sS'Lost'
p3593
S'1'
sS'Drop'
p3594
S'0'
sS'Start'
p3595
S'2'
sS'Won'
p3596
S'1'
sS'GfM'
p3597
S'0'
sS'Draw'
p3598
S'0'
sS'Mat'
p3599
S'2'
sS'Conv'
p3600
S'0'
sS'Tries'
p3601
S'0'
sS'Pts'
p3602
S'0'
sa(dp3603
S'Pens'
p3604
S'0'
sS'Sub'
p3605
S'0'
sS'Lost'
p3606
S'1'
sS'Drop'
p3607
S'0'
sS'Start'
p3608
S'3'
sS'Won'
p3609
S'2'
sS'GfM'
p3610
S'0'
sS'Draw'
p3611
S'0'
sS'Mat'
p3612
S'3'
sS'Conv'
p3613
S'0'
sS'Tries'
p3614
S'0'
sS'Pts'
p3615
S'0'
sa(dp3616
S'Pens'
p3617
S'0'
sS'Sub'
p3618
S'0'
sS'Lost'
p3619
S'12'
p3620
sS'Drop'
p3621
S'0'
sS'Start'
p3622
S'20'
p3623
sS'Won'
p3624
S'7'
sS'GfM'
p3625
S'0'
sS'Draw'
p3626
S'1'
sS'Mat'
p3627
S'20'
p3628
sS'Conv'
p3629
S'0'
sS'Tries'
p3630
S'0'
sS'Pts'
p3631
S'0'
sa(dp3632
S'Pens'
p3633
S'0'
sS'Sub'
p3634
S'1'
sS'Lost'
p3635
S'2'
sS'Drop'
p3636
S'0'
sS'Start'
p3637
S'2'
sS'Won'
p3638
S'0'
sS'GfM'
p3639
S'0'
sS'Draw'
p3640
S'1'
sS'Mat'
p3641
S'3'
sS'Conv'
p3642
S'0'
sS'Tries'
p3643
S'0'
sS'Pts'
p3644
S'0'
sa(dp3645
S'Pens'
p3646
S'0'
sS'Sub'
p3647
S'0'
sS'Lost'
p3648
S'24'
p3649
sS'Drop'
p3650
S'0'
sS'Start'
p3651
S'50'
p3652
sS'Won'
p3653
S'23'
p3654
sS'GfM'
p3655
S'0'
sS'Draw'
p3656
S'3'
sS'Mat'
p3657
S'50'
p3658
sS'Conv'
p3659
S'0'
sS'Tries'
p3660
S'1'
sS'Pts'
p3661
S'4'
sa(dp3662
S'Pens'
p3663
S'0'
sS'Sub'
p3664
S'1'
sS'Lost'
p3665
S'0'
sS'Drop'
p3666
S'0'
sS'Start'
p3667
S'0'
sS'Won'
p3668
S'0'
sS'GfM'
p3669
S'0'
sS'Draw'
p3670
S'1'
sS'Mat'
p3671
S'1'
sS'Conv'
p3672
S'0'
sS'Tries'
p3673
S'0'
sS'Pts'
p3674
S'0'
sa(dp3675
S'Pens'
p3676
S'0'
sS'Sub'
p3677
S'0'
sS'Lost'
p3678
S'20'
p3679
sS'Drop'
p3680
S'0'
sS'Start'
p3681
S'34'
p3682
sS'Won'
p3683
S'12'
p3684
sS'GfM'
p3685
S'0'
sS'Draw'
p3686
S'2'
sS'Mat'
p3687
S'34'
p3688
sS'Conv'
p3689
S'0'
sS'Tries'
p3690
S'3'
sS'Pts'
p3691
S'12'
p3692
sa(dp3693
S'Pens'
p3694
S'0'
sS'Sub'
p3695
S'0'
sS'Lost'
p3696
S'13'
p3697
sS'Drop'
p3698
S'0'
sS'Start'
p3699
S'27'
p3700
sS'Won'
p3701
S'12'
p3702
sS'GfM'
p3703
S'0'
sS'Draw'
p3704
S'2'
sS'Mat'
p3705
S'27'
p3706
sS'Conv'
p3707
S'0'
sS'Tries'
p3708
S'8'
sS'Pts'
p3709
S'32'
p3710
sa(dp3711
S'Pens'
p3712
S'0'
sS'Sub'
p3713
S'0'
sS'Lost'
p3714
S'21'
p3715
sS'Drop'
p3716
S'0'
sS'Start'
p3717
S'41'
p3718
sS'Won'
p3719
S'17'
p3720
sS'GfM'
p3721
S'0'
sS'Draw'
p3722
S'3'
sS'Mat'
p3723
S'41'
p3724
sS'Conv'
p3725
S'0'
sS'Tries'
p3726
S'2'
sS'Pts'
p3727
S'8'
sa(dp3728
S'Pens'
p3729
S'0'
sS'Sub'
p3730
S'0'
sS'Lost'
p3731
S'25'
p3732
sS'Drop'
p3733
S'0'
sS'Start'
p3734
S'42'
p3735
sS'Won'
p3736
S'15'
p3737
sS'GfM'
p3738
S'0'
sS'Draw'
p3739
S'2'
sS'Mat'
p3740
S'42'
p3741
sS'Conv'
p3742
S'0'
sS'Tries'
p3743
S'6'
sS'Pts'
p3744
S'24'
p3745
sa(dp3746
S'Pens'
p3747
S'0'
sS'Sub'
p3748
S'0'
sS'Lost'
p3749
S'0'
sS'Drop'
p3750
S'0'
sS'Start'
p3751
S'1'
sS'Won'
p3752
S'1'
sS'GfM'
p3753
S'0'
sS'Draw'
p3754
S'0'
sS'Mat'
p3755
S'1'
sS'Conv'
p3756
S'0'
sS'Tries'
p3757
S'0'
sS'Pts'
p3758
S'0'
sa(dp3759
S'Pens'
p3760
S'0'
sS'Sub'
p3761
S'4'
sS'Lost'
p3762
S'19'
p3763
sS'Drop'
p3764
S'0'
sS'Start'
p3765
S'39'
p3766
sS'Won'
p3767
S'19'
p3768
sS'GfM'
p3769
S'0'
sS'Draw'
p3770
S'5'
sS'Mat'
p3771
S'43'
p3772
sS'Conv'
p3773
S'0'
sS'Tries'
p3774
S'21'
p3775
sS'Pts'
p3776
S'84'
p3777
sa(dp3778
S'Pens'
p3779
S'3'
sS'Sub'
p3780
S'0'
sS'Lost'
p3781
S'0'
sS'Drop'
p3782
S'0'
sS'Start'
p3783
S'1'
sS'Won'
p3784
S'1'
sS'GfM'
p3785
S'0'
sS'Draw'
p3786
S'0'
sS'Mat'
p3787
S'1'
sS'Conv'
p3788
S'0'
sS'Tries'
p3789
S'0'
sS'Pts'
p3790
S'9'
sa(dp3791
S'Pens'
p3792
S'6'
sS'Sub'
p3793
S'1'
sS'Lost'
p3794
S'4'
sS'Drop'
p3795
S'0'
sS'Start'
p3796
S'7'
sS'Won'
p3797
S'4'
sS'GfM'
p3798
S'0'
sS'Draw'
p3799
S'0'
sS'Mat'
p3800
S'8'
sS'Conv'
p3801
S'3'
sS'Tries'
p3802
S'0'
sS'Pts'
p3803
S'24'
p3804
sa(dp3805
S'Pens'
p3806
S'0'
sS'Sub'
p3807
S'0'
sS'Lost'
p3808
S'1'
sS'Drop'
p3809
S'0'
sS'Start'
p3810
S'1'
sS'Won'
p3811
S'0'
sS'GfM'
p3812
S'0'
sS'Draw'
p3813
S'0'
sS'Mat'
p3814
S'1'
sS'Conv'
p3815
S'0'
sS'Tries'
p3816
S'0'
sS'Pts'
p3817
S'0'
sa(dp3818
S'Pens'
p3819
S'0'
sS'Sub'
p3820
S'0'
sS'Lost'
p3821
S'1'
sS'Drop'
p3822
S'0'
sS'Start'
p3823
S'1'
sS'Won'
p3824
S'0'
sS'GfM'
p3825
S'0'
sS'Draw'
p3826
S'0'
sS'Mat'
p3827
S'1'
sS'Conv'
p3828
S'0'
sS'Tries'
p3829
S'0'
sS'Pts'
p3830
S'0'
sa(dp3831
S'Pens'
p3832
S'0'
sS'Sub'
p3833
S'2'
sS'Lost'
p3834
S'9'
sS'Drop'
p3835
S'0'
sS'Start'
p3836
S'8'
sS'Won'
p3837
S'1'
sS'GfM'
p3838
S'0'
sS'Draw'
p3839
S'0'
sS'Mat'
p3840
S'10'
p3841
sS'Conv'
p3842
S'0'
sS'Tries'
p3843
S'0'
sS'Pts'
p3844
S'0'
sa(dp3845
S'Pens'
p3846
S'0'
sS'Sub'
p3847
S'1'
sS'Lost'
p3848
S'2'
sS'Drop'
p3849
S'0'
sS'Start'
p3850
S'4'
sS'Won'
p3851
S'2'
sS'GfM'
p3852
S'0'
sS'Draw'
p3853
S'1'
sS'Mat'
p3854
S'5'
sS'Conv'
p3855
S'0'
sS'Tries'
p3856
S'0'
sS'Pts'
p3857
S'0'
sa(dp3858
S'Pens'
p3859
S'0'
sS'Sub'
p3860
S'0'
sS'Lost'
p3861
S'14'
p3862
sS'Drop'
p3863
S'0'
sS'Start'
p3864
S'27'
p3865
sS'Won'
p3866
S'12'
p3867
sS'GfM'
p3868
S'0'
sS'Draw'
p3869
S'1'
sS'Mat'
p3870
S'27'
p3871
sS'Conv'
p3872
S'0'
sS'Tries'
p3873
S'0'
sS'Pts'
p3874
S'0'
sa(dp3875
S'Pens'
p3876
S'0'
sS'Sub'
p3877
S'0'
sS'Lost'
p3878
S'3'
sS'Drop'
p3879
S'0'
sS'Start'
p3880
S'3'
sS'Won'
p3881
S'0'
sS'GfM'
p3882
S'0'
sS'Draw'
p3883
S'0'
sS'Mat'
p3884
S'3'
sS'Conv'
p3885
S'0'
sS'Tries'
p3886
S'0'
sS'Pts'
p3887
S'0'
sa(dp3888
S'Pens'
p3889
S'0'
sS'Sub'
p3890
S'0'
sS'Lost'
p3891
S'2'
sS'Drop'
p3892
S'0'
sS'Start'
p3893
S'2'
sS'Won'
p3894
S'0'
sS'GfM'
p3895
S'0'
sS'Draw'
p3896
S'0'
sS'Mat'
p3897
S'2'
sS'Conv'
p3898
S'0'
sS'Tries'
p3899
S'0'
sS'Pts'
p3900
S'0'
sa(dp3901
S'Pens'
p3902
S'0'
sS'Sub'
p3903
S'0'
sS'Lost'
p3904
S'5'
sS'Drop'
p3905
S'0'
sS'Start'
p3906
S'6'
sS'Won'
p3907
S'1'
sS'GfM'
p3908
S'0'
sS'Draw'
p3909
S'0'
sS'Mat'
p3910
S'6'
sS'Conv'
p3911
S'0'
sS'Tries'
p3912
S'0'
sS'Pts'
p3913
S'0'
sa(dp3914
S'Pens'
p3915
S'0'
sS'Sub'
p3916
S'1'
sS'Lost'
p3917
S'1'
sS'Drop'
p3918
S'0'
sS'Start'
p3919
S'0'
sS'Won'
p3920
S'0'
sS'GfM'
p3921
S'0'
sS'Draw'
p3922
S'0'
sS'Mat'
p3923
S'1'
sS'Conv'
p3924
S'0'
sS'Tries'
p3925
S'0'
sS'Pts'
p3926
S'0'
sa(dp3927
S'Pens'
p3928
S'0'
sS'Sub'
p3929
S'2'
sS'Lost'
p3930
S'4'
sS'Drop'
p3931
S'0'
sS'Start'
p3932
S'2'
sS'Won'
p3933
S'0'
sS'GfM'
p3934
S'0'
sS'Draw'
p3935
S'0'
sS'Mat'
p3936
S'4'
sS'Conv'
p3937
S'0'
sS'Tries'
p3938
S'0'
sS'Pts'
p3939
S'0'
sa(dp3940
S'Pens'
p3941
S'0'
sS'Sub'
p3942
S'0'
sS'Lost'
p3943
S'3'
sS'Drop'
p3944
S'0'
sS'Start'
p3945
S'4'
sS'Won'
p3946
S'1'
sS'GfM'
p3947
S'0'
sS'Draw'
p3948
S'0'
sS'Mat'
p3949
S'4'
sS'Conv'
p3950
S'0'
sS'Tries'
p3951
S'0'
sS'Pts'
p3952
S'0'
sa(dp3953
S'Pens'
p3954
S'0'
sS'Sub'
p3955
S'0'
sS'Lost'
p3956
S'2'
sS'Drop'
p3957
S'0'
sS'Start'
p3958
S'2'
sS'Won'
p3959
S'0'
sS'GfM'
p3960
S'0'
sS'Draw'
p3961
S'0'
sS'Mat'
p3962
S'2'
sS'Conv'
p3963
S'0'
sS'Tries'
p3964
S'0'
sS'Pts'
p3965
S'0'
sa(dp3966
S'Pens'
p3967
S'9'
sS'Sub'
p3968
S'0'
sS'Lost'
p3969
S'5'
sS'Drop'
p3970
S'0'
sS'Start'
p3971
S'7'
sS'Won'
p3972
S'1'
sS'GfM'
p3973
S'0'
sS'Draw'
p3974
S'1'
sS'Mat'
p3975
S'7'
sS'Conv'
p3976
S'0'
sS'Tries'
p3977
S'1'
sS'Pts'
p3978
S'31'
p3979
sa(dp3980
S'Pens'
p3981
S'0'
sS'Sub'
p3982
S'0'
sS'Lost'
p3983
S'1'
sS'Drop'
p3984
S'0'
sS'Start'
p3985
S'1'
sS'Won'
p3986
S'0'
sS'GfM'
p3987
S'0'
sS'Draw'
p3988
S'0'
sS'Mat'
p3989
S'1'
sS'Conv'
p3990
S'0'
sS'Tries'
p3991
S'0'
sS'Pts'
p3992
S'0'
sa(dp3993
S'Pens'
p3994
S'0'
sS'Sub'
p3995
S'1'
sS'Lost'
p3996
S'1'
sS'Drop'
p3997
S'0'
sS'Start'
p3998
S'0'
sS'Won'
p3999
S'0'
sS'GfM'
p4000
S'0'
sS'Draw'
p4001
S'0'
sS'Mat'
p4002
S'1'
sS'Conv'
p4003
S'0'
sS'Tries'
p4004
S'0'
sS'Pts'
p4005
S'0'
sa(dp4006
S'Pens'
p4007
S'0'
sS'Sub'
p4008
S'4'
sS'Lost'
p4009
S'4'
sS'Drop'
p4010
S'0'
sS'Start'
p4011
S'1'
sS'Won'
p4012
S'1'
sS'GfM'
p4013
S'0'
sS'Draw'
p4014
S'0'
sS'Mat'
p4015
S'5'
sS'Conv'
p4016
S'0'
sS'Tries'
p4017
S'0'
sS'Pts'
p4018
S'0'
sa(dp4019
S'Pens'
p4020
S'0'
sS'Sub'
p4021
S'1'
sS'Lost'
p4022
S'4'
sS'Drop'
p4023
S'0'
sS'Start'
p4024
S'3'
sS'Won'
p4025
S'0'
sS'GfM'
p4026
S'0'
sS'Draw'
p4027
S'0'
sS'Mat'
p4028
S'4'
sS'Conv'
p4029
S'0'
sS'Tries'
p4030
S'0'
sS'Pts'
p4031
S'0'
sa(dp4032
S'Pens'
p4033
S'0'
sS'Sub'
p4034
S'1'
sS'Lost'
p4035
S'8'
sS'Drop'
p4036
S'0'
sS'Start'
p4037
S'14'
p4038
sS'Won'
p4039
S'6'
sS'GfM'
p4040
S'0'
sS'Draw'
p4041
S'1'
sS'Mat'
p4042
S'15'
p4043
sS'Conv'
p4044
S'0'
sS'Tries'
p4045
S'0'
sS'Pts'
p4046
S'0'
sa(dp4047
S'Pens'
p4048
S'0'
sS'Sub'
p4049
S'0'
sS'Lost'
p4050
S'1'
sS'Drop'
p4051
S'0'
sS'Start'
p4052
S'5'
sS'Won'
p4053
S'3'
sS'GfM'
p4054
S'0'
sS'Draw'
p4055
S'1'
sS'Mat'
p4056
S'5'
sS'Conv'
p4057
S'0'
sS'Tries'
p4058
S'0'
sS'Pts'
p4059
S'0'
sa(dp4060
S'Pens'
p4061
S'31'
p4062
sS'Sub'
p4063
S'0'
sS'Lost'
p4064
S'8'
sS'Drop'
p4065
S'2'
sS'Start'
p4066
S'20'
p4067
sS'Won'
p4068
S'10'
p4069
sS'GfM'
p4070
S'0'
sS'Draw'
p4071
S'2'
sS'Mat'
p4072
S'20'
p4073
sS'Conv'
p4074
S'17'
p4075
sS'Tries'
p4076
S'0'
sS'Pts'
p4077
S'133'
p4078
sa(dp4079
S'Pens'
p4080
S'0'
sS'Sub'
p4081
S'1'
sS'Lost'
p4082
S'6'
sS'Drop'
p4083
S'0'
sS'Start'
p4084
S'15'
p4085
sS'Won'
p4086
S'10'
p4087
sS'GfM'
p4088
S'0'
sS'Draw'
p4089
S'0'
sS'Mat'
p4090
S'16'
p4091
sS'Conv'
p4092
S'0'
sS'Tries'
p4093
S'3'
sS'Pts'
p4094
S'12'
p4095
sa(dp4096
S'Pens'
p4097
S'0'
sS'Sub'
p4098
S'0'
sS'Lost'
p4099
S'0'
sS'Drop'
p4100
S'1'
sS'Start'
p4101
S'2'
sS'Won'
p4102
S'2'
sS'GfM'
p4103
S'0'
sS'Draw'
p4104
S'0'
sS'Mat'
p4105
S'2'
sS'Conv'
p4106
S'0'
sS'Tries'
p4107
S'1'
sS'Pts'
p4108
S'7'
sa(dp4109
S'Pens'
p4110
S'0'
sS'Sub'
p4111
S'0'
sS'Lost'
p4112
S'3'
sS'Drop'
p4113
S'0'
sS'Start'
p4114
S'10'
p4115
sS'Won'
p4116
S'6'
sS'GfM'
p4117
S'0'
sS'Draw'
p4118
S'1'
sS'Mat'
p4119
S'10'
p4120
sS'Conv'
p4121
S'0'
sS'Tries'
p4122
S'3'
sS'Pts'
p4123
S'12'
p4124
sa(dp4125
S'Pens'
p4126
S'0'
sS'Sub'
p4127
S'0'
sS'Lost'
p4128
S'1'
sS'Drop'
p4129
S'0'
sS'Start'
p4130
S'1'
sS'Won'
p4131
S'0'
sS'GfM'
p4132
S'0'
sS'Draw'
p4133
S'0'
sS'Mat'
p4134
S'1'
sS'Conv'
p4135
S'0'
sS'Tries'
p4136
S'0'
sS'Pts'
p4137
S'0'
sa(dp4138
S'Pens'
p4139
S'0'
sS'Sub'
p4140
S'0'
sS'Lost'
p4141
S'1'
sS'Drop'
p4142
S'0'
sS'Start'
p4143
S'1'
sS'Won'
p4144
S'0'
sS'GfM'
p4145
S'0'
sS'Draw'
p4146
S'0'
sS'Mat'
p4147
S'1'
sS'Conv'
p4148
S'0'
sS'Tries'
p4149
S'0'
sS'Pts'
p4150
S'0'
sa(dp4151
S'Pens'
p4152
S'0'
sS'Sub'
p4153
S'0'
sS'Lost'
p4154
S'1'
sS'Drop'
p4155
S'0'
sS'Start'
p4156
S'1'
sS'Won'
p4157
S'0'
sS'GfM'
p4158
S'0'
sS'Draw'
p4159
S'0'
sS'Mat'
p4160
S'1'
sS'Conv'
p4161
S'0'
sS'Tries'
p4162
S'0'
sS'Pts'
p4163
S'0'
sa(dp4164
S'Pens'
p4165
S'0'
sS'Sub'
p4166
S'1'
sS'Lost'
p4167
S'12'
p4168
sS'Drop'
p4169
S'0'
sS'Start'
p4170
S'21'
p4171
sS'Won'
p4172
S'9'
sS'GfM'
p4173
S'0'
sS'Draw'
p4174
S'1'
sS'Mat'
p4175
S'22'
p4176
sS'Conv'
p4177
S'0'
sS'Tries'
p4178
S'1'
sS'Pts'
p4179
S'4'
sa(dp4180
S'Pens'
p4181
S'0'
sS'Sub'
p4182
S'0'
sS'Lost'
p4183
S'5'
sS'Drop'
p4184
S'0'
sS'Start'
p4185
S'8'
sS'Won'
p4186
S'2'
sS'GfM'
p4187
S'0'
sS'Draw'
p4188
S'1'
sS'Mat'
p4189
S'8'
sS'Conv'
p4190
S'0'
sS'Tries'
p4191
S'0'
sS'Pts'
p4192
S'0'
sa(dp4193
S'Pens'
p4194
S'0'
sS'Sub'
p4195
S'0'
sS'Lost'
p4196
S'3'
sS'Drop'
p4197
S'0'
sS'Start'
p4198
S'3'
sS'Won'
p4199
S'0'
sS'GfM'
p4200
S'0'
sS'Draw'
p4201
S'0'
sS'Mat'
p4202
S'3'
sS'Conv'
p4203
S'0'
sS'Tries'
p4204
S'1'
sS'Pts'
p4205
S'4'
sa(dp4206
S'Pens'
p4207
S'0'
sS'Sub'
p4208
S'0'
sS'Lost'
p4209
S'0'
sS'Drop'
p4210
S'0'
sS'Start'
p4211
S'1'
sS'Won'
p4212
S'1'
sS'GfM'
p4213
S'0'
sS'Draw'
p4214
S'0'
sS'Mat'
p4215
S'1'
sS'Conv'
p4216
S'0'
sS'Tries'
p4217
S'1'
sS'Pts'
p4218
S'4'
sa(dp4219
S'Pens'
p4220
S'0'
sS'Sub'
p4221
S'0'
sS'Lost'
p4222
S'9'
sS'Drop'
p4223
S'0'
sS'Start'
p4224
S'21'
p4225
sS'Won'
p4226
S'10'
p4227
sS'GfM'
p4228
S'0'
sS'Draw'
p4229
S'2'
sS'Mat'
p4230
S'21'
p4231
sS'Conv'
p4232
S'0'
sS'Tries'
p4233
S'4'
sS'Pts'
p4234
S'16'
p4235
sa(dp4236
S'Pens'
p4237
S'0'
sS'Sub'
p4238
S'2'
sS'Lost'
p4239
S'5'
sS'Drop'
p4240
S'0'
sS'Start'
p4241
S'11'
p4242
sS'Won'
p4243
S'7'
sS'GfM'
p4244
S'0'
sS'Draw'
p4245
S'1'
sS'Mat'
p4246
S'13'
p4247
sS'Conv'
p4248
S'0'
sS'Tries'
p4249
S'1'
sS'Pts'
p4250
S'4'
sa(dp4251
S'Pens'
p4252
S'0'
sS'Sub'
p4253
S'0'
sS'Lost'
p4254
S'4'
sS'Drop'
p4255
S'0'
sS'Start'
p4256
S'10'
p4257
sS'Won'
p4258
S'5'
sS'GfM'
p4259
S'0'
sS'Draw'
p4260
S'1'
sS'Mat'
p4261
S'10'
p4262
sS'Conv'
p4263
S'0'
sS'Tries'
p4264
S'0'
sS'Pts'
p4265
S'0'
sa(dp4266
S'Pens'
p4267
S'0'
sS'Sub'
p4268
S'1'
sS'Lost'
p4269
S'4'
sS'Drop'
p4270
S'0'
sS'Start'
p4271
S'6'
sS'Won'
p4272
S'3'
sS'GfM'
p4273
S'0'
sS'Draw'
p4274
S'0'
sS'Mat'
p4275
S'7'
sS'Conv'
p4276
S'0'
sS'Tries'
p4277
S'0'
sS'Pts'
p4278
S'0'
sa(dp4279
S'Pens'
p4280
S'0'
sS'Sub'
p4281
S'0'
sS'Lost'
p4282
S'1'
sS'Drop'
p4283
S'0'
sS'Start'
p4284
S'2'
sS'Won'
p4285
S'1'
sS'GfM'
p4286
S'0'
sS'Draw'
p4287
S'0'
sS'Mat'
p4288
S'2'
sS'Conv'
p4289
S'0'
sS'Tries'
p4290
S'0'
sS'Pts'
p4291
S'0'
sa(dp4292
S'Pens'
p4293
S'0'
sS'Sub'
p4294
S'0'
sS'Lost'
p4295
S'6'
sS'Drop'
p4296
S'0'
sS'Start'
p4297
S'11'
p4298
sS'Won'
p4299
S'4'
sS'GfM'
p4300
S'0'
sS'Draw'
p4301
S'1'
sS'Mat'
p4302
S'11'
p4303
sS'Conv'
p4304
S'0'
sS'Tries'
p4305
S'1'
sS'Pts'
p4306
S'4'
sa(dp4307
S'Pens'
p4308
S'1'
sS'Sub'
p4309
S'2'
sS'Lost'
p4310
S'16'
p4311
sS'Drop'
p4312
S'0'
sS'Start'
p4313
S'37'
p4314
sS'Won'
p4315
S'19'
p4316
sS'GfM'
p4317
S'0'
sS'Draw'
p4318
S'4'
sS'Mat'
p4319
S'39'
p4320
sS'Conv'
p4321
S'0'
sS'Tries'
p4322
S'5'
sS'Pts'
p4323
S'23'
p4324
sa(dp4325
S'Pens'
p4326
S'0'
sS'Sub'
p4327
S'1'
sS'Lost'
p4328
S'0'
sS'Drop'
p4329
S'0'
sS'Start'
p4330
S'0'
sS'Won'
p4331
S'1'
sS'GfM'
p4332
S'0'
sS'Draw'
p4333
S'0'
sS'Mat'
p4334
S'1'
sS'Conv'
p4335
S'0'
sS'Tries'
p4336
S'0'
sS'Pts'
p4337
S'0'
sa(dp4338
S'Pens'
p4339
S'0'
sS'Sub'
p4340
S'1'
sS'Lost'
p4341
S'13'
p4342
sS'Drop'
p4343
S'0'
sS'Start'
p4344
S'25'
p4345
sS'Won'
p4346
S'12'
p4347
sS'GfM'
p4348
S'0'
sS'Draw'
p4349
S'1'
sS'Mat'
p4350
S'26'
p4351
sS'Conv'
p4352
S'0'
sS'Tries'
p4353
S'3'
sS'Pts'
p4354
S'12'
p4355
sa(dp4356
S'Pens'
p4357
S'0'
sS'Sub'
p4358
S'1'
sS'Lost'
p4359
S'12'
p4360
sS'Drop'
p4361
S'0'
sS'Start'
p4362
S'21'
p4363
sS'Won'
p4364
S'10'
p4365
sS'GfM'
p4366
S'0'
sS'Draw'
p4367
S'0'
sS'Mat'
p4368
S'22'
p4369
sS'Conv'
p4370
S'0'
sS'Tries'
p4371
S'4'
sS'Pts'
p4372
S'16'
p4373
sa(dp4374
S'Pens'
p4375
S'0'
sS'Sub'
p4376
S'1'
sS'Lost'
p4377
S'3'
sS'Drop'
p4378
S'0'
sS'Start'
p4379
S'7'
sS'Won'
p4380
S'5'
sS'GfM'
p4381
S'0'
sS'Draw'
p4382
S'0'
sS'Mat'
p4383
S'8'
sS'Conv'
p4384
S'0'
sS'Tries'
p4385
S'0'
sS'Pts'
p4386
S'0'
sa(dp4387
S'Pens'
p4388
S'0'
sS'Sub'
p4389
S'1'
sS'Lost'
p4390
S'2'
sS'Drop'
p4391
S'0'
sS'Start'
p4392
S'4'
sS'Won'
p4393
S'3'
sS'GfM'
p4394
S'0'
sS'Draw'
p4395
S'0'
sS'Mat'
p4396
S'5'
sS'Conv'
p4397
S'0'
sS'Tries'
p4398
S'2'
sS'Pts'
p4399
S'8'
sa(dp4400
S'Pens'
p4401
S'0'
sS'Sub'
p4402
S'0'
sS'Lost'
p4403
S'18'
p4404
sS'Drop'
p4405
S'0'
sS'Start'
p4406
S'38'
p4407
sS'Won'
p4408
S'19'
p4409
sS'GfM'
p4410
S'0'
sS'Draw'
p4411
S'1'
sS'Mat'
p4412
S'38'
p4413
sS'Conv'
p4414
S'0'
sS'Tries'
p4415
S'3'
sS'Pts'
p4416
S'12'
p4417
sa(dp4418
S'Pens'
p4419
S'0'
sS'Sub'
p4420
S'1'
sS'Lost'
p4421
S'4'
sS'Drop'
p4422
S'0'
sS'Start'
p4423
S'4'
sS'Won'
p4424
S'1'
sS'GfM'
p4425
S'0'
sS'Draw'
p4426
S'0'
sS'Mat'
p4427
S'5'
sS'Conv'
p4428
S'0'
sS'Tries'
p4429
S'0'
sS'Pts'
p4430
S'0'
sa(dp4431
S'Pens'
p4432
S'0'
sS'Sub'
p4433
S'1'
sS'Lost'
p4434
S'30'
p4435
sS'Drop'
p4436
S'3'
sS'Start'
p4437
S'59'
p4438
sS'Won'
p4439
S'27'
p4440
sS'GfM'
p4441
S'0'
sS'Draw'
p4442
S'3'
sS'Mat'
p4443
S'60'
p4444
sS'Conv'
p4445
S'0'
sS'Tries'
p4446
S'17'
p4447
sS'Pts'
p4448
S'77'
p4449
sa(dp4450
S'Pens'
p4451
S'0'
sS'Sub'
p4452
S'0'
sS'Lost'
p4453
S'24'
p4454
sS'Drop'
p4455
S'0'
sS'Start'
p4456
S'54'
p4457
sS'Won'
p4458
S'27'
p4459
sS'GfM'
p4460
S'0'
sS'Draw'
p4461
S'3'
sS'Mat'
p4462
S'54'
p4463
sS'Conv'
p4464
S'0'
sS'Tries'
p4465
S'17'
p4466
sS'Pts'
p4467
S'68'
p4468
sa(dp4469
S'Pens'
p4470
S'0'
sS'Sub'
p4471
S'0'
sS'Lost'
p4472
S'1'
sS'Drop'
p4473
S'0'
sS'Start'
p4474
S'3'
sS'Won'
p4475
S'2'
sS'GfM'
p4476
S'0'
sS'Draw'
p4477
S'0'
sS'Mat'
p4478
S'3'
sS'Conv'
p4479
S'0'
sS'Tries'
p4480
S'0'
sS'Pts'
p4481
S'0'
sa(dp4482
S'Pens'
p4483
S'0'
sS'Sub'
p4484
S'0'
sS'Lost'
p4485
S'2'
sS'Drop'
p4486
S'0'
sS'Start'
p4487
S'4'
sS'Won'
p4488
S'2'
sS'GfM'
p4489
S'0'
sS'Draw'
p4490
S'0'
sS'Mat'
p4491
S'4'
sS'Conv'
p4492
S'0'
sS'Tries'
p4493
S'0'
sS'Pts'
p4494
S'0'
sa(dp4495
S'Pens'
p4496
S'0'
sS'Sub'
p4497
S'0'
sS'Lost'
p4498
S'1'
sS'Drop'
p4499
S'0'
sS'Start'
p4500
S'1'
sS'Won'
p4501
S'0'
sS'GfM'
p4502
S'0'
sS'Draw'
p4503
S'0'
sS'Mat'
p4504
S'1'
sS'Conv'
p4505
S'0'
sS'Tries'
p4506
S'0'
sS'Pts'
p4507
S'0'
sa(dp4508
S'Pens'
p4509
S'0'
sS'Sub'
p4510
S'1'
sS'Lost'
p4511
S'1'
sS'Drop'
p4512
S'0'
sS'Start'
p4513
S'0'
sS'Won'
p4514
S'0'
sS'GfM'
p4515
S'0'
sS'Draw'
p4516
S'0'
sS'Mat'
p4517
S'1'
sS'Conv'
p4518
S'0'
sS'Tries'
p4519
S'0'
sS'Pts'
p4520
S'0'
sa(dp4521
S'Pens'
p4522
S'0'
sS'Sub'
p4523
S'1'
sS'Lost'
p4524
S'16'
p4525
sS'Drop'
p4526
S'0'
sS'Start'
p4527
S'30'
p4528
sS'Won'
p4529
S'12'
p4530
sS'Draw'
p4531
S'3'
sS'%'
S'43.54'
p4532
sS'Mat'
p4533
S'31'
p4534
sS'Conv'
p4535
S'0'
sS'Tries'
p4536
S'1'
sS'Pts'
p4537
S'4'
sa(dp4538
S'Pens'
p4539
S'0'
sS'Sub'
p4540
S'0'
sS'Lost'
p4541
S'1'
sS'Drop'
p4542
S'0'
sS'Start'
p4543
S'1'
sS'Won'
p4544
S'0'
sS'Draw'
p4545
S'0'
sS'%'
S'0.00'
p4546
sS'Mat'
p4547
S'1'
sS'Conv'
p4548
S'0'
sS'Tries'
p4549
S'0'
sS'Pts'
p4550
S'0'
sa(dp4551
S'Pens'
p4552
S'0'
sS'Sub'
p4553
S'0'
sS'Lost'
p4554
S'1'
sS'Drop'
p4555
S'0'
sS'Start'
p4556
S'1'
sS'Won'
p4557
S'0'
sS'Draw'
p4558
S'0'
sS'%'
S'0.00'
p4559
sS'Mat'
p4560
S'1'
sS'Conv'
p4561
S'0'
sS'Tries'
p4562
S'0'
sS'Pts'
p4563
S'0'
sa(dp4564
S'Pens'
p4565
S'6'
sS'Sub'
p4566
S'0'
sS'Lost'
p4567
S'9'
sS'Drop'
p4568
S'5'
sS'Start'
p4569
S'15'
p4570
sS'Won'
p4571
S'4'
sS'Draw'
p4572
S'2'
sS'%'
S'33.33'
p4573
sS'Mat'
p4574
S'15'
p4575
sS'Conv'
p4576
S'3'
sS'Tries'
p4577
S'2'
sS'Pts'
p4578
S'47'
p4579
sa(dp4580
S'Pens'
p4581
S'0'
sS'Sub'
p4582
S'2'
sS'Lost'
p4583
S'2'
sS'Drop'
p4584
S'0'
sS'Start'
p4585
S'3'
sS'Won'
p4586
S'2'
sS'Draw'
p4587
S'1'
sS'%'
S'50.00'
p4588
sS'Mat'
p4589
S'5'
sS'Conv'
p4590
S'0'
sS'Tries'
p4591
S'0'
sS'Pts'
p4592
S'0'
sa(dp4593
S'Pens'
p4594
S'0'
sS'Sub'
p4595
S'0'
sS'Lost'
p4596
S'2'
sS'Drop'
p4597
S'0'
sS'Start'
p4598
S'3'
sS'Won'
p4599
S'1'
sS'Draw'
p4600
S'0'
sS'%'
S'33.33'
p4601
sS'Mat'
p4602
S'3'
sS'Conv'
p4603
S'0'
sS'Tries'
p4604
S'0'
sS'Pts'
p4605
S'0'
sa(dp4606
S'Pens'
p4607
S'0'
sS'Sub'
p4608
S'0'
sS'Lost'
p4609
S'1'
sS'Drop'
p4610
S'0'
sS'Start'
p4611
S'1'
sS'Won'
p4612
S'0'
sS'Draw'
p4613
S'0'
sS'%'
S'0.00'
p4614
sS'Mat'
p4615
S'1'
sS'Conv'
p4616
S'0'
sS'Tries'
p4617
S'0'
sS'Pts'
p4618
S'0'
sa(dp4619
S'Pens'
p4620
S'0'
sS'Sub'
p4621
S'1'
sS'Lost'
p4622
S'4'
sS'Drop'
p4623
S'0'
sS'Start'
p4624
S'6'
sS'Won'
p4625
S'2'
sS'Draw'
p4626
S'1'
sS'%'
S'35.71'
p4627
sS'Mat'
p4628
S'7'
sS'Conv'
p4629
S'0'
sS'Tries'
p4630
S'0'
sS'Pts'
p4631
S'0'
sa(dp4632
S'Pens'
p4633
S'0'
sS'Sub'
p4634
S'0'
sS'Lost'
p4635
S'4'
sS'Drop'
p4636
S'0'
sS'Start'
p4637
S'9'
sS'Won'
p4638
S'3'
sS'Draw'
p4639
S'2'
sS'%'
S'44.44'
p4640
sS'Mat'
p4641
S'9'
sS'Conv'
p4642
S'0'
sS'Tries'
p4643
S'1'
sS'Pts'
p4644
S'4'
sa(dp4645
S'Pens'
p4646
S'7'
sS'Sub'
p4647
S'0'
sS'Lost'
p4648
S'3'
sS'Drop'
p4649
S'1'
sS'Start'
p4650
S'7'
sS'Won'
p4651
S'4'
sS'Draw'
p4652
S'0'
sS'%'
S'57.14'
p4653
sS'Mat'
p4654
S'7'
sS'Conv'
p4655
S'7'
sS'Tries'
p4656
S'0'
sS'Pts'
p4657
S'38'
p4658
sa(dp4659
S'Pens'
p4660
S'0'
sS'Sub'
p4661
S'0'
sS'Lost'
p4662
S'15'
p4663
sS'Drop'
p4664
S'0'
sS'Start'
p4665
S'33'
p4666
sS'Won'
p4667
S'15'
p4668
sS'Draw'
p4669
S'3'
sS'%'
S'50.00'
p4670
sS'Mat'
p4671
S'33'
p4672
sS'Conv'
p4673
S'0'
sS'Tries'
p4674
S'1'
sS'Pts'
p4675
S'4'
sa(dp4676
S'Pens'
p4677
S'0'
sS'Sub'
p4678
S'1'
sS'Lost'
p4679
S'1'
sS'Drop'
p4680
S'0'
sS'Start'
p4681
S'0'
sS'Won'
p4682
S'0'
sS'Draw'
p4683
S'0'
sS'%'
S'0.00'
p4684
sS'Mat'
p4685
S'1'
sS'Conv'
p4686
S'0'
sS'Tries'
p4687
S'0'
sS'Pts'
p4688
S'0'
sa(dp4689
S'Pens'
p4690
S'0'
sS'Sub'
p4691
S'0'
sS'Lost'
p4692
S'2'
sS'Drop'
p4693
S'0'
sS'Start'
p4694
S'4'
sS'Won'
p4695
S'2'
sS'Draw'
p4696
S'0'
sS'%'
S'50.00'
p4697
sS'Mat'
p4698
S'4'
sS'Conv'
p4699
S'0'
sS'Tries'
p4700
S'0'
sS'Pts'
p4701
S'0'
sa(dp4702
S'Pens'
p4703
S'104'
p4704
sS'Sub'
p4705
S'1'
sS'Lost'
p4706
S'25'
p4707
sS'Drop'
p4708
S'17'
p4709
sS'Start'
p4710
S'54'
p4711
sS'Won'
p4712
S'26'
p4713
sS'Draw'
p4714
S'4'
sS'%'
S'50.90'
p4715
sS'Mat'
p4716
S'55'
p4717
sS'Conv'
p4718
S'46'
p4719
sS'Tries'
p4720
S'7'
sS'Pts'
p4721
S'483'
p4722
sa(dp4723
S'Pens'
p4724
S'0'
sS'Sub'
p4725
S'0'
sS'Lost'
p4726
S'0'
sS'Drop'
p4727
S'0'
sS'Start'
p4728
S'2'
sS'Won'
p4729
S'1'
sS'Draw'
p4730
S'1'
sS'%'
S'75.00'
p4731
sS'Mat'
p4732
S'2'
sS'Conv'
p4733
S'0'
sS'Tries'
p4734
S'0'
sS'Pts'
p4735
S'0'
sa(dp4736
S'Pens'
p4737
S'0'
sS'Sub'
p4738
S'0'
sS'Lost'
p4739
S'1'
sS'Drop'
p4740
S'0'
sS'Start'
p4741
S'5'
sS'Won'
p4742
S'3'
sS'Draw'
p4743
S'1'
sS'%'
S'70.00'
p4744
sS'Mat'
p4745
S'5'
sS'Conv'
p4746
S'0'
sS'Tries'
p4747
S'0'
sS'Pts'
p4748
S'0'
sa(dp4749
S'Pens'
p4750
S'0'
sS'Sub'
p4751
S'1'
sS'Lost'
p4752
S'0'
sS'Drop'
p4753
S'0'
sS'Start'
p4754
S'0'
sS'Won'
p4755
S'1'
sS'Draw'
p4756
S'0'
sS'%'
S'100.00'
p4757
sS'Mat'
p4758
S'1'
sS'Conv'
p4759
S'0'
sS'Tries'
p4760
S'0'
sS'Pts'
p4761
S'0'
sa(dp4762
S'Pens'
p4763
S'0'
sS'Sub'
p4764
S'0'
sS'Lost'
p4765
S'1'
sS'Drop'
p4766
S'0'
sS'Start'
p4767
S'2'
sS'Won'
p4768
S'1'
sS'Draw'
p4769
S'0'
sS'%'
S'50.00'
p4770
sS'Mat'
p4771
S'2'
sS'Conv'
p4772
S'0'
sS'Tries'
p4773
S'0'
sS'Pts'
p4774
S'0'
sa(dp4775
S'Pens'
p4776
S'0'
sS'Sub'
p4777
S'7'
sS'Lost'
p4778
S'20'
p4779
sS'Drop'
p4780
S'0'
sS'Start'
p4781
S'46'
p4782
sS'Won'
p4783
S'30'
p4784
sS'Draw'
p4785
S'3'
sS'%'
S'59.43'
p4786
sS'Mat'
p4787
S'53'
p4788
sS'Conv'
p4789
S'0'
sS'Tries'
p4790
S'5'
sS'Pts'
p4791
S'20'
p4792
sa(dp4793
S'Pens'
p4794
S'0'
sS'Sub'
p4795
S'0'
sS'Lost'
p4796
S'1'
sS'Drop'
p4797
S'0'
sS'Start'
p4798
S'3'
sS'Won'
p4799
S'1'
sS'Draw'
p4800
S'1'
sS'%'
S'50.00'
p4801
sS'Mat'
p4802
S'3'
sS'Conv'
p4803
S'0'
sS'Tries'
p4804
S'0'
sS'Pts'
p4805
S'0'
sa(dp4806
S'Pens'
p4807
S'0'
sS'Sub'
p4808
S'0'
sS'Lost'
p4809
S'7'
sS'Drop'
p4810
S'0'
sS'Start'
p4811
S'14'
p4812
sS'Won'
p4813
S'6'
sS'Draw'
p4814
S'1'
sS'%'
S'46.42'
p4815
sS'Mat'
p4816
S'14'
p4817
sS'Conv'
p4818
S'0'
sS'Tries'
p4819
S'2'
sS'Pts'
p4820
S'8'
sa(dp4821
S'Pens'
p4822
S'0'
sS'Sub'
p4823
S'1'
sS'Lost'
p4824
S'9'
sS'Drop'
p4825
S'0'
sS'Start'
p4826
S'14'
p4827
sS'Won'
p4828
S'5'
sS'Draw'
p4829
S'1'
sS'%'
S'36.66'
p4830
sS'Mat'
p4831
S'15'
p4832
sS'Conv'
p4833
S'0'
sS'Tries'
p4834
S'1'
sS'Pts'
p4835
S'4'
sa(dp4836
S'Pens'
p4837
S'0'
sS'Sub'
p4838
S'2'
sS'Lost'
p4839
S'3'
sS'Drop'
p4840
S'0'
sS'Start'
p4841
S'8'
sS'Won'
p4842
S'5'
sS'Draw'
p4843
S'2'
sS'%'
S'60.00'
p4844
sS'Mat'
p4845
S'10'
p4846
sS'Conv'
p4847
S'0'
sS'Tries'
p4848
S'2'
sS'Pts'
p4849
S'8'
sa(dp4850
S'Pens'
p4851
S'0'
sS'Sub'
p4852
S'1'
sS'Lost'
p4853
S'18'
p4854
sS'Drop'
p4855
S'0'
sS'Start'
p4856
S'33'
p4857
sS'Won'
p4858
S'14'
p4859
sS'Draw'
p4860
S'2'
sS'%'
S'44.11'
p4861
sS'Mat'
p4862
S'34'
p4863
sS'Conv'
p4864
S'0'
sS'Tries'
p4865
S'2'
sS'Pts'
p4866
S'8'
sa(dp4867
S'Pens'
p4868
S'0'
sS'Sub'
p4869
S'0'
sS'Lost'
p4870
S'3'
sS'Drop'
p4871
S'0'
sS'Start'
p4872
S'7'
sS'Won'
p4873
S'4'
sS'Draw'
p4874
S'0'
sS'%'
S'57.14'
p4875
sS'Mat'
p4876
S'7'
sS'Conv'
p4877
S'0'
sS'Tries'
p4878
S'1'
sS'Pts'
p4879
S'4'
sa(dp4880
S'Pens'
p4881
S'5'
sS'Sub'
p4882
S'2'
sS'Lost'
p4883
S'3'
sS'Drop'
p4884
S'0'
sS'Start'
p4885
S'3'
sS'Won'
p4886
S'2'
sS'Draw'
p4887
S'0'
sS'%'
S'40.00'
p4888
sS'Mat'
p4889
S'5'
sS'Conv'
p4890
S'1'
sS'Tries'
p4891
S'0'
sS'Pts'
p4892
S'17'
p4893
sa(dp4894
S'Pens'
p4895
S'0'
sS'Sub'
p4896
S'0'
sS'Lost'
p4897
S'3'
sS'Drop'
p4898
S'0'
sS'Start'
p4899
S'9'
sS'Won'
p4900
S'6'
sS'Draw'
p4901
S'0'
sS'%'
S'66.66'
p4902
sS'Mat'
p4903
S'9'
sS'Conv'
p4904
S'0'
sS'Tries'
p4905
S'0'
sS'Pts'
p4906
S'0'
sa(dp4907
S'Pens'
p4908
S'3'
sS'Sub'
p4909
S'4'
sS'Lost'
p4910
S'11'
p4911
sS'Drop'
p4912
S'2'
sS'Start'
p4913
S'17'
p4914
sS'Won'
p4915
S'9'
sS'Draw'
p4916
S'1'
sS'%'
S'45.23'
p4917
sS'Mat'
p4918
S'21'
p4919
sS'Conv'
p4920
S'3'
sS'Tries'
p4921
S'0'
sS'Pts'
p4922
S'21'
p4923
sa(dp4924
S'Pens'
p4925
S'0'
sS'Sub'
p4926
S'0'
sS'Lost'
p4927
S'9'
sS'Drop'
p4928
S'0'
sS'Start'
p4929
S'23'
p4930
sS'Won'
p4931
S'13'
p4932
sS'Draw'
p4933
S'1'
sS'%'
S'58.69'
p4934
sS'Mat'
p4935
S'23'
p4936
sS'Conv'
p4937
S'0'
sS'Tries'
p4938
S'0'
sS'Pts'
p4939
S'0'
sa(dp4940
S'Pens'
p4941
S'0'
sS'Sub'
p4942
S'2'
sS'Lost'
p4943
S'4'
sS'Drop'
p4944
S'0'
sS'Start'
p4945
S'4'
sS'Won'
p4946
S'2'
sS'Draw'
p4947
S'0'
sS'%'
S'33.33'
p4948
sS'Mat'
p4949
S'6'
sS'Conv'
p4950
S'0'
sS'Tries'
p4951
S'0'
sS'Pts'
p4952
S'0'
sa(dp4953
S'Pens'
p4954
S'0'
sS'Sub'
p4955
S'1'
sS'Lost'
p4956
S'8'
sS'Drop'
p4957
S'0'
sS'Start'
p4958
S'18'
p4959
sS'Won'
p4960
S'10'
p4961
sS'Draw'
p4962
S'1'
sS'%'
S'55.26'
p4963
sS'Mat'
p4964
S'19'
p4965
sS'Conv'
p4966
S'0'
sS'Tries'
p4967
S'1'
sS'Pts'
p4968
S'4'
sa(dp4969
S'Pens'
p4970
S'0'
sS'Sub'
p4971
S'0'
sS'Lost'
p4972
S'13'
p4973
sS'Drop'
p4974
S'0'
sS'Start'
p4975
S'24'
p4976
sS'Won'
p4977
S'10'
p4978
sS'Draw'
p4979
S'1'
sS'%'
S'43.75'
p4980
sS'Mat'
p4981
S'24'
p4982
sS'Conv'
p4983
S'0'
sS'Tries'
p4984
S'2'
sS'Pts'
p4985
S'8'
sa(dp4986
S'Pens'
p4987
S'0'
sS'Sub'
p4988
S'1'
sS'Lost'
p4989
S'5'
sS'Drop'
p4990
S'0'
sS'Start'
p4991
S'7'
sS'Won'
p4992
S'2'
sS'Draw'
p4993
S'1'
sS'%'
S'31.25'
p4994
sS'Mat'
p4995
S'8'
sS'Conv'
p4996
S'0'
sS'Tries'
p4997
S'0'
sS'Pts'
p4998
S'0'
sa(dp4999
S'Pens'
p5000
S'0'
sS'Sub'
p5001
S'2'
sS'Lost'
p5002
S'14'
p5003
sS'Drop'
p5004
S'0'
sS'Start'
p5005
S'28'
p5006
sS'Won'
p5007
S'15'
p5008
sS'Draw'
p5009
S'1'
sS'%'
S'51.66'
p5010
sS'Mat'
p5011
S'30'
p5012
sS'Conv'
p5013
S'0'
sS'Tries'
p5014
S'5'
sS'Pts'
p5015
S'20'
p5016
sa(dp5017
S'Pens'
p5018
S'0'
sS'Sub'
p5019
S'0'
sS'Lost'
p5020
S'8'
sS'Drop'
p5021
S'0'
sS'Start'
p5022
S'14'
p5023
sS'Won'
p5024
S'5'
sS'Draw'
p5025
S'1'
sS'%'
S'39.28'
p5026
sS'Mat'
p5027
S'14'
p5028
sS'Conv'
p5029
S'0'
sS'Tries'
p5030
S'1'
sS'Pts'
p5031
S'4'
sa(dp5032
S'Pens'
p5033
S'0'
sS'Sub'
p5034
S'2'
sS'Lost'
p5035
S'21'
p5036
sS'Drop'
p5037
S'0'
sS'Start'
p5038
S'43'
p5039
sS'Won'
p5040
S'22'
p5041
sS'Draw'
p5042
S'2'
sS'%'
S'51.11'
p5043
sS'Mat'
p5044
S'45'
p5045
sS'Conv'
p5046
S'0'
sS'Tries'
p5047
S'9'
sS'Pts'
p5048
S'36'
p5049
sa(dp5050
S'Pens'
p5051
S'0'
sS'Sub'
p5052
S'0'
sS'Lost'
p5053
S'11'
p5054
sS'Drop'
p5055
S'0'
sS'Start'
p5056
S'25'
p5057
sS'Won'
p5058
S'12'
p5059
sS'Draw'
p5060
S'2'
sS'%'
S'52.00'
p5061
sS'Mat'
p5062
S'25'
p5063
sS'Conv'
p5064
S'0'
sS'Tries'
p5065
S'1'
sS'Pts'
p5066
S'4'
sa(dp5067
S'Pens'
p5068
S'0'
sS'Sub'
p5069
S'0'
sS'Lost'
p5070
S'1'
sS'Drop'
p5071
S'0'
sS'Start'
p5072
S'3'
sS'Won'
p5073
S'1'
sS'Draw'
p5074
S'1'
sS'%'
S'50.00'
p5075
sS'Mat'
p5076
S'3'
sS'Conv'
p5077
S'0'
sS'Tries'
p5078
S'0'
sS'Pts'
p5079
S'0'
sa(dp5080
S'Pens'
p5081
S'0'
sS'Sub'
p5082
S'2'
sS'Lost'
p5083
S'25'
p5084
sS'Drop'
p5085
S'0'
sS'Start'
p5086
S'43'
p5087
sS'Won'
p5088
S'17'
p5089
sS'Draw'
p5090
S'3'
sS'%'
S'41.11'
p5091
sS'Mat'
p5092
S'45'
p5093
sS'Conv'
p5094
S'0'
sS'Tries'
p5095
S'0'
sS'Pts'
p5096
S'0'
sa(dp5097
S'Pens'
p5098
S'0'
sS'Sub'
p5099
S'2'
sS'Lost'
p5100
S'12'
p5101
sS'Drop'
p5102
S'0'
sS'Start'
p5103
S'24'
p5104
sS'Won'
p5105
S'12'
p5106
sS'Draw'
p5107
S'2'
sS'%'
S'50.00'
p5108
sS'Mat'
p5109
S'26'
p5110
sS'Conv'
p5111
S'0'
sS'Tries'
p5112
S'0'
sS'Pts'
p5113
S'0'
sa(dp5114
S'Pens'
p5115
S'0'
sS'Sub'
p5116
S'1'
sS'Lost'
p5117
S'6'
sS'Drop'
p5118
S'0'
sS'Start'
p5119
S'15'
p5120
sS'Won'
p5121
S'9'
sS'Draw'
p5122
S'1'
sS'%'
S'59.37'
p5123
sS'Mat'
p5124
S'16'
p5125
sS'Conv'
p5126
S'0'
sS'Tries'
p5127
S'5'
sS'Pts'
p5128
S'20'
p5129
sa(dp5130
S'Pens'
p5131
S'0'
sS'Sub'
p5132
S'1'
sS'Lost'
p5133
S'21'
p5134
sS'Drop'
p5135
S'0'
sS'Start'
p5136
S'41'
p5137
sS'Won'
p5138
S'19'
p5139
sS'Draw'
p5140
S'2'
sS'%'
S'47.61'
p5141
sS'Mat'
p5142
S'42'
p5143
sS'Conv'
p5144
S'0'
sS'Tries'
p5145
S'2'
sS'Pts'
p5146
S'8'
sa(dp5147
S'Pens'
p5148
S'0'
sS'Sub'
p5149
S'1'
sS'Lost'
p5150
S'2'
sS'Drop'
p5151
S'0'
sS'Start'
p5152
S'5'
sS'Won'
p5153
S'4'
sS'Draw'
p5154
S'0'
sS'%'
S'66.66'
p5155
sS'Mat'
p5156
S'6'
sS'Conv'
p5157
S'0'
sS'Tries'
p5158
S'0'
sS'Pts'
p5159
S'0'
sa(dp5160
S'Pens'
p5161
S'0'
sS'Sub'
p5162
S'0'
sS'Lost'
p5163
S'1'
sS'Drop'
p5164
S'0'
sS'Start'
p5165
S'1'
sS'Won'
p5166
S'0'
sS'Draw'
p5167
S'0'
sS'%'
S'0.00'
p5168
sS'Mat'
p5169
S'1'
sS'Conv'
p5170
S'0'
sS'Tries'
p5171
S'0'
sS'Pts'
p5172
S'0'
sa(dp5173
S'Pens'
p5174
S'0'
sS'Sub'
p5175
S'0'
sS'Lost'
p5176
S'0'
sS'Drop'
p5177
S'0'
sS'Start'
p5178
S'1'
sS'Won'
p5179
S'1'
sS'Draw'
p5180
S'0'
sS'%'
S'100.00'
p5181
sS'Mat'
p5182
S'1'
sS'Conv'
p5183
S'0'
sS'Tries'
p5184
S'0'
sS'Pts'
p5185
S'0'
sa(dp5186
S'Pens'
p5187
S'0'
sS'Sub'
p5188
S'2'
sS'Lost'
p5189
S'1'
sS'Drop'
p5190
S'0'
sS'Start'
p5191
S'3'
sS'Won'
p5192
S'4'
sS'Draw'
p5193
S'0'
sS'%'
S'80.00'
p5194
sS'Mat'
p5195
S'5'
sS'Conv'
p5196
S'0'
sS'Tries'
p5197
S'0'
sS'Pts'
p5198
S'0'
sa(dp5199
S'Pens'
p5200
S'0'
sS'Sub'
p5201
S'2'
sS'Lost'
p5202
S'4'
sS'Drop'
p5203
S'0'
sS'Start'
p5204
S'13'
p5205
sS'Won'
p5206
S'11'
p5207
sS'Draw'
p5208
S'0'
sS'%'
S'73.33'
p5209
sS'Mat'
p5210
S'15'
p5211
sS'Conv'
p5212
S'0'
sS'Tries'
p5213
S'0'
sS'Pts'
p5214
S'0'
sa(dp5215
S'Pens'
p5216
S'0'
sS'Sub'
p5217
S'0'
sS'Lost'
p5218
S'21'
p5219
sS'Drop'
p5220
S'0'
sS'Start'
p5221
S'41'
p5222
sS'Won'
p5223
S'19'
p5224
sS'Draw'
p5225
S'1'
sS'%'
S'47.56'
p5226
sS'Mat'
p5227
S'41'
p5228
sS'Conv'
p5229
S'0'
sS'Tries'
p5230
S'2'
sS'Pts'
p5231
S'8'
sa(dp5232
S'Pens'
p5233
S'0'
sS'Sub'
p5234
S'3'
sS'Lost'
p5235
S'12'
p5236
sS'Drop'
p5237
S'0'
sS'Start'
p5238
S'18'
p5239
sS'Won'
p5240
S'9'
sS'Draw'
p5241
S'0'
sS'%'
S'42.85'
p5242
sS'Mat'
p5243
S'21'
p5244
sS'Conv'
p5245
S'0'
sS'Tries'
p5246
S'0'
sS'Pts'
p5247
S'0'
sa(dp5248
S'Pens'
p5249
S'0'
sS'Sub'
p5250
S'2'
sS'Lost'
p5251
S'13'
p5252
sS'Drop'
p5253
S'0'
sS'Start'
p5254
S'26'
p5255
sS'Won'
p5256
S'15'
p5257
sS'Draw'
p5258
S'0'
sS'%'
S'53.57'
p5259
sS'Mat'
p5260
S'28'
p5261
sS'Conv'
p5262
S'0'
sS'Tries'
p5263
S'11'
p5264
sS'Pts'
p5265
S'46'
p5266
sa(dp5267
S'Pens'
p5268
S'0'
sS'Sub'
p5269
S'1'
sS'Lost'
p5270
S'1'
sS'Drop'
p5271
S'0'
sS'Start'
p5272
S'2'
sS'Won'
p5273
S'2'
sS'Draw'
p5274
S'0'
sS'%'
S'66.66'
p5275
sS'Mat'
p5276
S'3'
sS'Conv'
p5277
S'0'
sS'Tries'
p5278
S'0'
sS'Pts'
p5279
S'0'
sa(dp5280
S'Pens'
p5281
S'0'
sS'Sub'
p5282
S'0'
sS'Lost'
p5283
S'1'
sS'Drop'
p5284
S'0'
sS'Start'
p5285
S'1'
sS'Won'
p5286
S'0'
sS'Draw'
p5287
S'0'
sS'%'
S'0.00'
p5288
sS'Mat'
p5289
S'1'
sS'Conv'
p5290
S'0'
sS'Tries'
p5291
S'0'
sS'Pts'
p5292
S'0'
sa(dp5293
S'Pens'
p5294
S'0'
sS'Sub'
p5295
S'0'
sS'Lost'
p5296
S'1'
sS'Drop'
p5297
S'0'
sS'Start'
p5298
S'1'
sS'Won'
p5299
S'0'
sS'Draw'
p5300
S'0'
sS'%'
S'0.00'
p5301
sS'Mat'
p5302
S'1'
sS'Conv'
p5303
S'0'
sS'Tries'
p5304
S'0'
sS'Pts'
p5305
S'0'
sa(dp5306
S'Pens'
p5307
S'0'
sS'Sub'
p5308
S'1'
sS'Lost'
p5309
S'0'
sS'Drop'
p5310
S'0'
sS'Start'
p5311
S'0'
sS'Won'
p5312
S'1'
sS'Draw'
p5313
S'0'
sS'%'
S'100.00'
p5314
sS'Mat'
p5315
S'1'
sS'Conv'
p5316
S'0'
sS'Tries'
p5317
S'0'
sS'Pts'
p5318
S'0'
sa(dp5319
S'Pens'
p5320
S'0'
sS'Sub'
p5321
S'1'
sS'Lost'
p5322
S'2'
sS'Drop'
p5323
S'0'
sS'Start'
p5324
S'2'
sS'Won'
p5325
S'1'
sS'Draw'
p5326
S'0'
sS'%'
S'33.33'
p5327
sS'Mat'
p5328
S'3'
sS'Conv'
p5329
S'0'
sS'Tries'
p5330
S'0'
sS'Pts'
p5331
S'0'
sa(dp5332
S'Pens'
p5333
S'0'
sS'Sub'
p5334
S'0'
sS'Lost'
p5335
S'6'
sS'Drop'
p5336
S'0'
sS'Start'
p5337
S'9'
sS'Won'
p5338
S'3'
sS'Draw'
p5339
S'0'
sS'%'
S'33.33'
p5340
sS'Mat'
p5341
S'9'
sS'Conv'
p5342
S'0'
sS'Tries'
p5343
S'0'
sS'Pts'
p5344
S'0'
sa(dp5345
S'Pens'
p5346
S'0'
sS'Sub'
p5347
S'1'
sS'Lost'
p5348
S'1'
sS'Drop'
p5349
S'0'
sS'Start'
p5350
S'2'
sS'Won'
p5351
S'2'
sS'Draw'
p5352
S'0'
sS'%'
S'66.66'
p5353
sS'Mat'
p5354
S'3'
sS'Conv'
p5355
S'0'
sS'Tries'
p5356
S'0'
sS'Pts'
p5357
S'0'
sa(dp5358
S'Pens'
p5359
S'0'
sS'Sub'
p5360
S'0'
sS'Lost'
p5361
S'6'
sS'Drop'
p5362
S'0'
sS'Start'
p5363
S'10'
p5364
sS'Won'
p5365
S'3'
sS'Draw'
p5366
S'1'
sS'%'
S'35.00'
p5367
sS'Mat'
p5368
S'10'
p5369
sS'Conv'
p5370
S'0'
sS'Tries'
p5371
S'0'
sS'Pts'
p5372
S'0'
sa(dp5373
S'Pens'
p5374
S'0'
sS'Sub'
p5375
S'1'
sS'Lost'
p5376
S'17'
p5377
sS'Drop'
p5378
S'0'
sS'Start'
p5379
S'34'
p5380
sS'Won'
p5381
S'17'
p5382
sS'Draw'
p5383
S'1'
sS'%'
S'50.00'
p5384
sS'Mat'
p5385
S'35'
p5386
sS'Conv'
p5387
S'0'
sS'Tries'
p5388
S'7'
sS'Pts'
p5389
S'30'
p5390
sa(dp5391
S'Pens'
p5392
S'0'
sS'Sub'
p5393
S'0'
sS'Lost'
p5394
S'3'
sS'Drop'
p5395
S'0'
sS'Start'
p5396
S'5'
sS'Won'
p5397
S'2'
sS'Draw'
p5398
S'0'
sS'%'
S'40.00'
p5399
sS'Mat'
p5400
S'5'
sS'Conv'
p5401
S'0'
sS'Tries'
p5402
S'0'
sS'Pts'
p5403
S'0'
sa(dp5404
S'Pens'
p5405
S'0'
sS'Sub'
p5406
S'1'
sS'Lost'
p5407
S'0'
sS'Drop'
p5408
S'0'
sS'Start'
p5409
S'1'
sS'Won'
p5410
S'2'
sS'Draw'
p5411
S'0'
sS'%'
S'100.00'
p5412
sS'Mat'
p5413
S'2'
sS'Conv'
p5414
S'0'
sS'Tries'
p5415
S'1'
sS'Pts'
p5416
S'4'
sa(dp5417
S'Pens'
p5418
S'0'
sS'Sub'
p5419
S'0'
sS'Lost'
p5420
S'0'
sS'Drop'
p5421
S'0'
sS'Start'
p5422
S'1'
sS'Won'
p5423
S'1'
sS'Draw'
p5424
S'0'
sS'%'
S'100.00'
p5425
sS'Mat'
p5426
S'1'
sS'Conv'
p5427
S'0'
sS'Tries'
p5428
S'0'
sS'Pts'
p5429
S'0'
sa(dp5430
S'Pens'
p5431
S'0'
sS'Sub'
p5432
S'2'
sS'Lost'
p5433
S'10'
p5434
sS'Drop'
p5435
S'1'
sS'Start'
p5436
S'13'
p5437
sS'Won'
p5438
S'5'
sS'Draw'
p5439
S'0'
sS'%'
S'33.33'
p5440
sS'Mat'
p5441
S'15'
p5442
sS'Conv'
p5443
S'0'
sS'Tries'
p5444
S'1'
sS'Pts'
p5445
S'7'
sa(dp5446
S'Pens'
p5447
S'0'
sS'Sub'
p5448
S'1'
sS'Lost'
p5449
S'1'
sS'Drop'
p5450
S'0'
sS'Start'
p5451
S'1'
sS'Won'
p5452
S'1'
sS'Draw'
p5453
S'0'
sS'%'
S'50.00'
p5454
sS'Mat'
p5455
S'2'
sS'Conv'
p5456
S'0'
sS'Tries'
p5457
S'0'
sS'Pts'
p5458
S'0'
sa(dp5459
S'Pens'
p5460
S'0'
sS'Sub'
p5461
S'2'
sS'Lost'
p5462
S'2'
sS'Drop'
p5463
S'0'
sS'Start'
p5464
S'2'
sS'Won'
p5465
S'2'
sS'Draw'
p5466
S'0'
sS'%'
S'50.00'
p5467
sS'Mat'
p5468
S'4'
sS'Conv'
p5469
S'0'
sS'Tries'
p5470
S'1'
sS'Pts'
p5471
S'4'
sa(dp5472
S'Pens'
p5473
S'57'
p5474
sS'Sub'
p5475
S'0'
sS'Lost'
p5476
S'24'
p5477
sS'Drop'
p5478
S'0'
sS'Start'
p5479
S'47'
p5480
sS'Won'
p5481
S'23'
p5482
sS'Draw'
p5483
S'0'
sS'%'
S'48.93'
p5484
sS'Mat'
p5485
S'47'
p5486
sS'Conv'
p5487
S'57'
p5488
sS'Tries'
p5489
S'2'
sS'Pts'
p5490
S'294'
p5491
sa(dp5492
S'Pens'
p5493
S'0'
sS'Sub'
p5494
S'2'
sS'Lost'
p5495
S'4'
sS'Drop'
p5496
S'0'
sS'Start'
p5497
S'5'
sS'Won'
p5498
S'3'
sS'Draw'
p5499
S'0'
sS'%'
S'42.85'
p5500
sS'Mat'
p5501
S'7'
sS'Conv'
p5502
S'0'
sS'Tries'
p5503
S'0'
sS'Pts'
p5504
S'0'
sa(dp5505
S'Pens'
p5506
S'0'
sS'Sub'
p5507
S'0'
sS'Lost'
p5508
S'0'
sS'Drop'
p5509
S'0'
sS'Start'
p5510
S'1'
sS'Won'
p5511
S'0'
sS'Draw'
p5512
S'1'
sS'%'
S'50.00'
p5513
sS'Mat'
p5514
S'1'
sS'Conv'
p5515
S'0'
sS'Tries'
p5516
S'0'
sS'Pts'
p5517
S'0'
sa(dp5518
S'Pens'
p5519
S'0'
sS'Sub'
p5520
S'0'
sS'Lost'
p5521
S'28'
p5522
sS'Drop'
p5523
S'0'
sS'Start'
p5524
S'54'
p5525
sS'Won'
p5526
S'25'
p5527
sS'Draw'
p5528
S'1'
sS'%'
S'47.22'
p5529
sS'Mat'
p5530
S'54'
p5531
sS'Conv'
p5532
S'0'
sS'Tries'
p5533
S'25'
p5534
sS'Pts'
p5535
S'110'
p5536
sa(dp5537
S'Pens'
p5538
S'0'
sS'Sub'
p5539
S'0'
sS'Lost'
p5540
S'2'
sS'Drop'
p5541
S'0'
sS'Start'
p5542
S'3'
sS'Won'
p5543
S'1'
sS'Draw'
p5544
S'0'
sS'%'
S'33.33'
p5545
sS'Mat'
p5546
S'3'
sS'Conv'
p5547
S'0'
sS'Tries'
p5548
S'0'
sS'Pts'
p5549
S'0'
sa(dp5550
S'Pens'
p5551
S'0'
sS'Sub'
p5552
S'0'
sS'Lost'
p5553
S'9'
sS'Drop'
p5554
S'0'
sS'Start'
p5555
S'11'
p5556
sS'Won'
p5557
S'2'
sS'Draw'
p5558
S'0'
sS'%'
S'18.18'
p5559
sS'Mat'
p5560
S'11'
p5561
sS'Conv'
p5562
S'0'
sS'Tries'
p5563
S'0'
sS'Pts'
p5564
S'0'
sa(dp5565
S'Pens'
p5566
S'3'
sS'Sub'
p5567
S'1'
sS'Lost'
p5568
S'9'
sS'Drop'
p5569
S'0'
sS'Start'
p5570
S'11'
p5571
sS'Won'
p5572
S'3'
sS'Draw'
p5573
S'0'
sS'%'
S'25.00'
p5574
sS'Mat'
p5575
S'12'
p5576
sS'Conv'
p5577
S'0'
sS'Tries'
p5578
S'1'
sS'Pts'
p5579
S'13'
p5580
sa(dp5581
S'Pens'
p5582
S'0'
sS'Sub'
p5583
S'2'
sS'Lost'
p5584
S'13'
p5585
sS'Drop'
p5586
S'0'
sS'Start'
p5587
S'23'
p5588
sS'Won'
p5589
S'12'
p5590
sS'Draw'
p5591
S'0'
sS'%'
S'48.00'
p5592
sS'Mat'
p5593
S'25'
p5594
sS'Conv'
p5595
S'0'
sS'Tries'
p5596
S'5'
sS'Pts'
p5597
S'20'
p5598
sa(dp5599
S'Pens'
p5600
S'0'
sS'Sub'
p5601
S'0'
sS'Lost'
p5602
S'5'
sS'Drop'
p5603
S'0'
sS'Start'
p5604
S'7'
sS'Won'
p5605
S'2'
sS'Draw'
p5606
S'0'
sS'%'
S'28.57'
p5607
sS'Mat'
p5608
S'7'
sS'Conv'
p5609
S'0'
sS'Tries'
p5610
S'1'
sS'Pts'
p5611
S'4'
sa(dp5612
S'Pens'
p5613
S'0'
sS'Sub'
p5614
S'0'
sS'Lost'
p5615
S'3'
sS'Drop'
p5616
S'0'
sS'Start'
p5617
S'3'
sS'Won'
p5618
S'0'
sS'Draw'
p5619
S'0'
sS'%'
S'0.00'
p5620
sS'Mat'
p5621
S'3'
sS'Conv'
p5622
S'0'
sS'Tries'
p5623
S'0'
sS'Pts'
p5624
S'0'
sa(dp5625
S'Pens'
p5626
S'0'
sS'Sub'
p5627
S'0'
sS'Lost'
p5628
S'2'
sS'Drop'
p5629
S'0'
sS'Start'
p5630
S'3'
sS'Won'
p5631
S'1'
sS'Draw'
p5632
S'0'
sS'%'
S'33.33'
p5633
sS'Mat'
p5634
S'3'
sS'Conv'
p5635
S'0'
sS'Tries'
p5636
S'1'
sS'Pts'
p5637
S'4'
sa(dp5638
S'Pens'
p5639
S'13'
p5640
sS'Sub'
p5641
S'4'
sS'Lost'
p5642
S'18'
p5643
sS'Drop'
p5644
S'5'
sS'Start'
p5645
S'30'
p5646
sS'Won'
p5647
S'16'
p5648
sS'Draw'
p5649
S'0'
sS'%'
S'47.05'
p5650
sS'Mat'
p5651
S'34'
p5652
sS'Conv'
p5653
S'5'
sS'Tries'
p5654
S'6'
sS'Pts'
p5655
S'93'
p5656
sa(dp5657
S'Pens'
p5658
S'0'
sS'Sub'
p5659
S'1'
sS'Lost'
p5660
S'15'
p5661
sS'Drop'
p5662
S'0'
sS'Start'
p5663
S'18'
p5664
sS'Won'
p5665
S'4'
sS'Draw'
p5666
S'0'
sS'%'
S'21.05'
p5667
sS'Mat'
p5668
S'19'
p5669
sS'Conv'
p5670
S'0'
sS'Tries'
p5671
S'1'
sS'Pts'
p5672
S'4'
sa(dp5673
S'Pens'
p5674
S'0'
sS'Sub'
p5675
S'1'
sS'Lost'
p5676
S'24'
p5677
sS'Drop'
p5678
S'0'
sS'Start'
p5679
S'41'
p5680
sS'Won'
p5681
S'18'
p5682
sS'Draw'
p5683
S'0'
sS'%'
S'42.85'
p5684
sS'Mat'
p5685
S'42'
p5686
sS'Conv'
p5687
S'0'
sS'Tries'
p5688
S'1'
sS'Pts'
p5689
S'5'
sa(dp5690
S'Pens'
p5691
S'0'
sS'Sub'
p5692
S'0'
sS'Lost'
p5693
S'8'
sS'Drop'
p5694
S'0'
sS'Start'
p5695
S'8'
sS'Won'
p5696
S'0'
sS'Draw'
p5697
S'0'
sS'%'
S'0.00'
p5698
sS'Mat'
p5699
S'8'
sS'Conv'
p5700
S'0'
sS'Tries'
p5701
S'0'
sS'Pts'
p5702
S'0'
sa(dp5703
S'Pens'
p5704
S'0'
sS'Sub'
p5705
S'0'
sS'Lost'
p5706
S'1'
sS'Drop'
p5707
S'0'
sS'Start'
p5708
S'2'
sS'Won'
p5709
S'1'
sS'Draw'
p5710
S'0'
sS'%'
S'50.00'
p5711
sS'Mat'
p5712
S'2'
sS'Conv'
p5713
S'0'
sS'Tries'
p5714
S'0'
sS'Pts'
p5715
S'0'
sa(dp5716
S'Pens'
p5717
S'0'
sS'Sub'
p5718
S'3'
sS'Lost'
p5719
S'10'
p5720
sS'Drop'
p5721
S'0'
sS'Start'
p5722
S'16'
p5723
sS'Won'
p5724
S'9'
sS'Draw'
p5725
S'0'
sS'%'
S'47.36'
p5726
sS'Mat'
p5727
S'19'
p5728
sS'Conv'
p5729
S'0'
sS'Tries'
p5730
S'1'
sS'Pts'
p5731
S'4'
sa(dp5732
S'Pens'
p5733
S'0'
sS'Sub'
p5734
S'0'
sS'Lost'
p5735
S'3'
sS'Drop'
p5736
S'1'
sS'Start'
p5737
S'8'
sS'Won'
p5738
S'5'
sS'Draw'
p5739
S'0'
sS'%'
S'62.50'
p5740
sS'Mat'
p5741
S'8'
sS'Conv'
p5742
S'0'
sS'Tries'
p5743
S'3'
sS'Pts'
p5744
S'15'
p5745
sa(dp5746
S'Pens'
p5747
S'0'
sS'Sub'
p5748
S'0'
sS'Lost'
p5749
S'3'
sS'Drop'
p5750
S'0'
sS'Start'
p5751
S'3'
sS'Won'
p5752
S'0'
sS'Draw'
p5753
S'0'
sS'%'
S'0.00'
p5754
sS'Mat'
p5755
S'3'
sS'Conv'
p5756
S'0'
sS'Tries'
p5757
S'0'
sS'Pts'
p5758
S'0'
sa(dp5759
S'Pens'
p5760
S'0'
sS'Sub'
p5761
S'1'
sS'Lost'
p5762
S'2'
sS'Drop'
p5763
S'0'
sS'Start'
p5764
S'1'
sS'Won'
p5765
S'0'
sS'Draw'
p5766
S'0'
sS'%'
S'0.00'
p5767
sS'Mat'
p5768
S'2'
sS'Conv'
p5769
S'0'
sS'Tries'
p5770
S'0'
sS'Pts'
p5771
S'0'
sa(dp5772
S'Pens'
p5773
S'3'
sS'Sub'
p5774
S'0'
sS'Lost'
p5775
S'4'
sS'Drop'
p5776
S'0'
sS'Start'
p5777
S'6'
sS'Won'
p5778
S'2'
sS'Draw'
p5779
S'0'
sS'%'
S'33.33'
p5780
sS'Mat'
p5781
S'6'
sS'Conv'
p5782
S'0'
sS'Tries'
p5783
S'1'
sS'Pts'
p5784
S'13'
p5785
sa(dp5786
S'Pens'
p5787
S'0'
sS'Sub'
p5788
S'4'
sS'Lost'
p5789
S'8'
sS'Drop'
p5790
S'0'
sS'Start'
p5791
S'16'
p5792
sS'Won'
p5793
S'12'
p5794
sS'Draw'
p5795
S'0'
sS'%'
S'60.00'
p5796
sS'Mat'
p5797
S'20'
p5798
sS'Conv'
p5799
S'0'
sS'Tries'
p5800
S'1'
sS'Pts'
p5801
S'5'
sa(dp5802
S'Pens'
p5803
S'0'
sS'Sub'
p5804
S'1'
sS'Lost'
p5805
S'2'
sS'Drop'
p5806
S'0'
sS'Start'
p5807
S'1'
sS'Won'
p5808
S'0'
sS'Draw'
p5809
S'0'
sS'%'
S'0.00'
p5810
sS'Mat'
p5811
S'2'
sS'Conv'
p5812
S'0'
sS'Tries'
p5813
S'1'
sS'Pts'
p5814
S'4'
sa(dp5815
S'Pens'
p5816
S'0'
sS'Sub'
p5817
S'0'
sS'Lost'
p5818
S'1'
sS'Drop'
p5819
S'0'
sS'Start'
p5820
S'1'
sS'Won'
p5821
S'0'
sS'Draw'
p5822
S'0'
sS'%'
S'0.00'
p5823
sS'Mat'
p5824
S'1'
sS'Conv'
p5825
S'0'
sS'Tries'
p5826
S'0'
sS'Pts'
p5827
S'0'
sa(dp5828
S'Pens'
p5829
S'0'
sS'Sub'
p5830
S'1'
sS'Lost'
p5831
S'1'
sS'Drop'
p5832
S'0'
sS'Start'
p5833
S'0'
sS'Won'
p5834
S'0'
sS'Draw'
p5835
S'0'
sS'%'
S'0.00'
p5836
sS'Mat'
p5837
S'1'
sS'Conv'
p5838
S'0'
sS'Tries'
p5839
S'0'
sS'Pts'
p5840
S'0'
sa(dp5841
S'Pens'
p5842
S'0'
sS'Sub'
p5843
S'0'
sS'Lost'
p5844
S'0'
sS'Drop'
p5845
S'0'
sS'Start'
p5846
S'1'
sS'Won'
p5847
S'1'
sS'Draw'
p5848
S'0'
sS'%'
S'100.00'
p5849
sS'Mat'
p5850
S'1'
sS'Conv'
p5851
S'0'
sS'Tries'
p5852
S'0'
sS'Pts'
p5853
S'0'
sa(dp5854
S'Pens'
p5855
S'0'
sS'Sub'
p5856
S'0'
sS'Lost'
p5857
S'0'
sS'Drop'
p5858
S'0'
sS'Start'
p5859
S'1'
sS'Won'
p5860
S'1'
sS'Draw'
p5861
S'0'
sS'%'
S'100.00'
p5862
sS'Mat'
p5863
S'1'
sS'Conv'
p5864
S'0'
sS'Tries'
p5865
S'0'
sS'Pts'
p5866
S'0'
sa(dp5867
S'Pens'
p5868
S'0'
sS'Sub'
p5869
S'1'
sS'Lost'
p5870
S'14'
p5871
sS'Drop'
p5872
S'0'
sS'Start'
p5873
S'24'
p5874
sS'Won'
p5875
S'11'
p5876
sS'Draw'
p5877
S'0'
sS'%'
S'44.00'
p5878
sS'Mat'
p5879
S'25'
p5880
sS'Conv'
p5881
S'0'
sS'Tries'
p5882
S'2'
sS'Pts'
p5883
S'10'
p5884
sa(dp5885
S'Pens'
p5886
S'0'
sS'Sub'
p5887
S'4'
sS'Lost'
p5888
S'32'
p5889
sS'Drop'
p5890
S'0'
sS'Start'
p5891
S'56'
p5892
sS'Won'
p5893
S'27'
p5894
sS'Draw'
p5895
S'1'
sS'%'
S'45.83'
p5896
sS'Mat'
p5897
S'60'
p5898
sS'Conv'
p5899
S'0'
sS'Tries'
p5900
S'4'
sS'Pts'
p5901
S'19'
p5902
sa(dp5903
S'Pens'
p5904
S'0'
sS'Sub'
p5905
S'3'
sS'Lost'
p5906
S'36'
p5907
sS'Drop'
p5908
S'0'
sS'Start'
p5909
S'66'
p5910
sS'Won'
p5911
S'32'
p5912
sS'Draw'
p5913
S'1'
sS'%'
S'47.10'
p5914
sS'Mat'
p5915
S'69'
p5916
sS'Conv'
p5917
S'0'
sS'Tries'
p5918
S'6'
sS'Pts'
p5919
S'29'
p5920
sa(dp5921
S'Pens'
p5922
S'0'
sS'Sub'
p5923
S'5'
sS'Lost'
p5924
S'32'
p5925
sS'Drop'
p5926
S'0'
sS'Start'
p5927
S'49'
p5928
sS'Won'
p5929
S'21'
p5930
sS'Draw'
p5931
S'1'
sS'%'
S'39.81'
p5932
sS'Mat'
p5933
S'54'
p5934
sS'Conv'
p5935
S'0'
sS'Tries'
p5936
S'3'
sS'Pts'
p5937
S'15'
p5938
sa(dp5939
S'Pens'
p5940
S'0'
sS'Sub'
p5941
S'4'
sS'Lost'
p5942
S'2'
sS'Drop'
p5943
S'0'
sS'Start'
p5944
S'3'
sS'Won'
p5945
S'5'
sS'Draw'
p5946
S'0'
sS'%'
S'71.42'
p5947
sS'Mat'
p5948
S'7'
sS'Conv'
p5949
S'0'
sS'Tries'
p5950
S'2'
sS'Pts'
p5951
S'10'
p5952
sa(dp5953
S'Pens'
p5954
S'0'
sS'Sub'
p5955
S'2'
sS'Lost'
p5956
S'2'
sS'Drop'
p5957
S'0'
sS'Start'
p5958
S'8'
sS'Won'
p5959
S'8'
sS'Draw'
p5960
S'0'
sS'%'
S'80.00'
p5961
sS'Mat'
p5962
S'10'
p5963
sS'Conv'
p5964
S'0'
sS'Tries'
p5965
S'1'
sS'Pts'
p5966
S'5'
sa(dp5967
S'Pens'
p5968
S'0'
sS'Sub'
p5969
S'10'
p5970
sS'Lost'
p5971
S'51'
p5972
sS'Drop'
p5973
S'0'
sS'Start'
p5974
S'73'
p5975
sS'Won'
p5976
S'31'
p5977
sS'Draw'
p5978
S'1'
sS'%'
S'37.95'
p5979
sS'Mat'
p5980
S'83'
p5981
sS'Conv'
p5982
S'0'
sS'Tries'
p5983
S'21'
p5984
sS'Pts'
p5985
S'105'
p5986
sa(dp5987
S'Pens'
p5988
S'0'
sS'Sub'
p5989
S'0'
sS'Lost'
p5990
S'9'
sS'Drop'
p5991
S'0'
sS'Start'
p5992
S'24'
p5993
sS'Won'
p5994
S'14'
p5995
sS'Draw'
p5996
S'1'
sS'%'
S'60.41'
p5997
sS'Mat'
p5998
S'24'
p5999
sS'Conv'
p6000
S'0'
sS'Tries'
p6001
S'3'
sS'Pts'
p6002
S'13'
p6003
sa(dp6004
S'Pens'
p6005
S'0'
sS'Sub'
p6006
S'0'
sS'Lost'
p6007
S'0'
sS'Drop'
p6008
S'0'
sS'Start'
p6009
S'1'
sS'Won'
p6010
S'1'
sS'Draw'
p6011
S'0'
sS'%'
S'100.00'
p6012
sS'Mat'
p6013
S'1'
sS'Conv'
p6014
S'0'
sS'Tries'
p6015
S'0'
sS'Pts'
p6016
S'0'
sa(dp6017
S'Pens'
p6018
S'0'
sS'Sub'
p6019
S'3'
sS'Lost'
p6020
S'16'
p6021
sS'Drop'
p6022
S'0'
sS'Start'
p6023
S'26'
p6024
sS'Won'
p6025
S'13'
p6026
sS'Draw'
p6027
S'0'
sS'%'
S'44.82'
p6028
sS'Mat'
p6029
S'29'
p6030
sS'Conv'
p6031
S'0'
sS'Tries'
p6032
S'1'
sS'Pts'
p6033
S'5'
sa(dp6034
S'Pens'
p6035
S'0'
sS'Sub'
p6036
S'0'
sS'Lost'
p6037
S'21'
p6038
sS'Drop'
p6039
S'0'
sS'Start'
p6040
S'38'
p6041
sS'Won'
p6042
S'16'
p6043
sS'Draw'
p6044
S'1'
sS'%'
S'43.42'
p6045
sS'Mat'
p6046
S'38'
p6047
sS'Conv'
p6048
S'0'
sS'Tries'
p6049
S'16'
p6050
sS'Pts'
p6051
S'77'
p6052
sa(dp6053
S'Pens'
p6054
S'0'
sS'Sub'
p6055
S'0'
sS'Lost'
p6056
S'0'
sS'Drop'
p6057
S'0'
sS'Start'
p6058
S'1'
sS'Won'
p6059
S'1'
sS'Draw'
p6060
S'0'
sS'%'
S'100.00'
p6061
sS'Mat'
p6062
S'1'
sS'Conv'
p6063
S'0'
sS'Tries'
p6064
S'0'
sS'Pts'
p6065
S'0'
sa(dp6066
S'Pens'
p6067
S'0'
sS'Sub'
p6068
S'1'
sS'Lost'
p6069
S'15'
p6070
sS'Drop'
p6071
S'0'
sS'Start'
p6072
S'32'
p6073
sS'Won'
p6074
S'16'
p6075
sS'Draw'
p6076
S'2'
sS'%'
S'51.51'
p6077
sS'Mat'
p6078
S'33'
p6079
sS'Conv'
p6080
S'0'
sS'Tries'
p6081
S'6'
sS'Pts'
p6082
S'24'
p6083
sa(dp6084
S'Pens'
p6085
S'213'
p6086
sS'Sub'
p6087
S'1'
sS'Lost'
p6088
S'46'
p6089
sS'Drop'
p6090
S'20'
p6091
sS'Start'
p6092
S'75'
p6093
sS'Won'
p6094
S'29'
p6095
sS'Draw'
p6096
S'1'
sS'%'
S'38.81'
p6097
sS'Mat'
p6098
S'76'
p6099
sS'Conv'
p6100
S'133'
p6101
sS'Tries'
p6102
S'9'
sS'Pts'
p6103
S'1010'
p6104
sa(dp6105
S'Pens'
p6106
S'0'
sS'Sub'
p6107
S'1'
sS'Lost'
p6108
S'36'
p6109
sS'Drop'
p6110
S'0'
sS'Start'
p6111
S'63'
p6112
sS'Won'
p6113
S'27'
p6114
sS'Draw'
p6115
S'1'
sS'%'
S'42.96'
p6116
sS'Mat'
p6117
S'64'
p6118
sS'Conv'
p6119
S'0'
sS'Tries'
p6120
S'22'
p6121
sS'Pts'
p6122
S'107'
p6123
sa(dp6124
S'Pens'
p6125
S'0'
sS'Sub'
p6126
S'0'
sS'Lost'
p6127
S'2'
sS'Drop'
p6128
S'0'
sS'Start'
p6129
S'6'
sS'Won'
p6130
S'4'
sS'Draw'
p6131
S'0'
sS'%'
S'66.66'
p6132
sS'Mat'
p6133
S'6'
sS'Conv'
p6134
S'0'
sS'Tries'
p6135
S'2'
sS'Pts'
p6136
S'9'
sa(dp6137
S'Pens'
p6138
S'0'
sS'Sub'
p6139
S'6'
sS'Lost'
p6140
S'19'
p6141
sS'Drop'
p6142
S'0'
sS'Start'
p6143
S'25'
p6144
sS'Won'
p6145
S'11'
p6146
sS'Draw'
p6147
S'1'
sS'%'
S'37.09'
p6148
sS'Mat'
p6149
S'31'
p6150
sS'Conv'
p6151
S'0'
sS'Tries'
p6152
S'1'
sS'Pts'
p6153
S'5'
sa(dp6154
S'Pens'
p6155
S'0'
sS'Sub'
p6156
S'2'
sS'Lost'
p6157
S'1'
sS'Drop'
p6158
S'0'
sS'Start'
p6159
S'3'
sS'Won'
p6160
S'4'
sS'Draw'
p6161
S'0'
sS'%'
S'80.00'
p6162
sS'Mat'
p6163
S'5'
sS'Conv'
p6164
S'0'
sS'Tries'
p6165
S'0'
sS'Pts'
p6166
S'0'
sa(dp6167
S'Pens'
p6168
S'0'
sS'Sub'
p6169
S'0'
sS'Lost'
p6170
S'2'
sS'Drop'
p6171
S'0'
sS'Start'
p6172
S'5'
sS'Won'
p6173
S'3'
sS'Draw'
p6174
S'0'
sS'%'
S'60.00'
p6175
sS'Mat'
p6176
S'5'
sS'Conv'
p6177
S'0'
sS'Tries'
p6178
S'0'
sS'Pts'
p6179
S'0'
sa(dp6180
S'Pens'
p6181
S'0'
sS'Sub'
p6182
S'1'
sS'Lost'
p6183
S'12'
p6184
sS'Drop'
p6185
S'0'
sS'Start'
p6186
S'23'
p6187
sS'Won'
p6188
S'12'
p6189
sS'Draw'
p6190
S'0'
sS'%'
S'50.00'
p6191
sS'Mat'
p6192
S'24'
p6193
sS'Conv'
p6194
S'0'
sS'Tries'
p6195
S'4'
sS'Pts'
p6196
S'20'
p6197
sa(dp6198
S'Pens'
p6199
S'0'
sS'Sub'
p6200
S'4'
sS'Lost'
p6201
S'33'
p6202
sS'Drop'
p6203
S'0'
sS'Start'
p6204
S'44'
p6205
sS'Won'
p6206
S'15'
p6207
sS'Draw'
p6208
S'0'
sS'%'
S'31.25'
p6209
sS'Mat'
p6210
S'48'
p6211
sS'Conv'
p6212
S'0'
sS'Tries'
p6213
S'0'
sS'Pts'
p6214
S'0'
sa(dp6215
S'Pens'
p6216
S'0'
sS'Sub'
p6217
S'2'
sS'Lost'
p6218
S'1'
sS'Drop'
p6219
S'0'
sS'Start'
p6220
S'0'
sS'Won'
p6221
S'1'
sS'Draw'
p6222
S'0'
sS'%'
S'50.00'
p6223
sS'Mat'
p6224
S'2'
sS'Conv'
p6225
S'0'
sS'Tries'
p6226
S'0'
sS'Pts'
p6227
S'0'
sa(dp6228
S'Pens'
p6229
S'0'
sS'Sub'
p6230
S'2'
sS'Lost'
p6231
S'23'
p6232
sS'Drop'
p6233
S'0'
sS'Start'
p6234
S'40'
p6235
sS'Won'
p6236
S'18'
p6237
sS'Draw'
p6238
S'1'
sS'%'
S'44.04'
p6239
sS'Mat'
p6240
S'42'
p6241
sS'Conv'
p6242
S'0'
sS'Tries'
p6243
S'4'
sS'Pts'
p6244
S'20'
p6245
sa(dp6246
S'Pens'
p6247
S'0'
sS'Sub'
p6248
S'0'
sS'Lost'
p6249
S'2'
sS'Drop'
p6250
S'0'
sS'Start'
p6251
S'4'
sS'Won'
p6252
S'2'
sS'Draw'
p6253
S'0'
sS'%'
S'50.00'
p6254
sS'Mat'
p6255
S'4'
sS'Conv'
p6256
S'0'
sS'Tries'
p6257
S'3'
sS'Pts'
p6258
S'15'
p6259
sa(dp6260
S'Pens'
p6261
S'0'
sS'Sub'
p6262
S'1'
sS'Lost'
p6263
S'0'
sS'Drop'
p6264
S'0'
sS'Start'
p6265
S'3'
sS'Won'
p6266
S'4'
sS'Draw'
p6267
S'0'
sS'%'
S'100.00'
p6268
sS'Mat'
p6269
S'4'
sS'Conv'
p6270
S'0'
sS'Tries'
p6271
S'3'
sS'Pts'
p6272
S'15'
p6273
sa(dp6274
S'Pens'
p6275
S'0'
sS'Sub'
p6276
S'1'
sS'Lost'
p6277
S'1'
sS'Drop'
p6278
S'0'
sS'Start'
p6279
S'4'
sS'Won'
p6280
S'4'
sS'Draw'
p6281
S'0'
sS'%'
S'80.00'
p6282
sS'Mat'
p6283
S'5'
sS'Conv'
p6284
S'0'
sS'Tries'
p6285
S'1'
sS'Pts'
p6286
S'5'
sa(dp6287
S'Pens'
p6288
S'0'
sS'Sub'
p6289
S'1'
sS'Lost'
p6290
S'5'
sS'Drop'
p6291
S'0'
sS'Start'
p6292
S'6'
sS'Won'
p6293
S'2'
sS'Draw'
p6294
S'0'
sS'%'
S'28.57'
p6295
sS'Mat'
p6296
S'7'
sS'Conv'
p6297
S'0'
sS'Tries'
p6298
S'0'
sS'Pts'
p6299
S'0'
sa(dp6300
S'Pens'
p6301
S'0'
sS'Sub'
p6302
S'0'
sS'Lost'
p6303
S'0'
sS'Drop'
p6304
S'0'
sS'Start'
p6305
S'1'
sS'Won'
p6306
S'1'
sS'Draw'
p6307
S'0'
sS'%'
S'100.00'
p6308
sS'Mat'
p6309
S'1'
sS'Conv'
p6310
S'0'
sS'Tries'
p6311
S'0'
sS'Pts'
p6312
S'0'
sa(dp6313
S'Pens'
p6314
S'5'
sS'Sub'
p6315
S'2'
sS'Lost'
p6316
S'3'
sS'Drop'
p6317
S'0'
sS'Start'
p6318
S'10'
p6319
sS'Won'
p6320
S'9'
sS'Draw'
p6321
S'0'
sS'%'
S'75.00'
p6322
sS'Mat'
p6323
S'12'
p6324
sS'Conv'
p6325
S'16'
p6326
sS'Tries'
p6327
S'5'
sS'Pts'
p6328
S'72'
p6329
sa(dp6330
S'Pens'
p6331
S'0'
sS'Sub'
p6332
S'3'
sS'Lost'
p6333
S'34'
p6334
sS'Drop'
p6335
S'0'
sS'Start'
p6336
S'41'
p6337
sS'Won'
p6338
S'10'
p6339
sS'Draw'
p6340
S'0'
sS'%'
S'22.72'
p6341
sS'Mat'
p6342
S'44'
p6343
sS'Conv'
p6344
S'0'
sS'Tries'
p6345
S'6'
sS'Pts'
p6346
S'30'
p6347
sa(dp6348
S'Pens'
p6349
S'0'
sS'Sub'
p6350
S'0'
sS'Lost'
p6351
S'0'
sS'Drop'
p6352
S'0'
sS'Start'
p6353
S'1'
sS'Won'
p6354
S'1'
sS'Draw'
p6355
S'0'
sS'%'
S'100.00'
p6356
sS'Mat'
p6357
S'1'
sS'Conv'
p6358
S'0'
sS'Tries'
p6359
S'1'
sS'Pts'
p6360
S'5'
sa(dp6361
S'Pens'
p6362
S'0'
sS'Sub'
p6363
S'1'
sS'Lost'
p6364
S'0'
sS'Drop'
p6365
S'0'
sS'Start'
p6366
S'0'
sS'Won'
p6367
S'1'
sS'Draw'
p6368
S'0'
sS'%'
S'100.00'
p6369
sS'Mat'
p6370
S'1'
sS'Conv'
p6371
S'0'
sS'Tries'
p6372
S'0'
sS'Pts'
p6373
S'0'
sa(dp6374
S'Pens'
p6375
S'0'
sS'Sub'
p6376
S'5'
sS'Lost'
p6377
S'19'
p6378
sS'Drop'
p6379
S'0'
sS'Start'
p6380
S'32'
p6381
sS'Won'
p6382
S'17'
p6383
sS'Draw'
p6384
S'1'
sS'%'
S'47.29'
p6385
sS'Mat'
p6386
S'37'
p6387
sS'Conv'
p6388
S'0'
sS'Tries'
p6389
S'2'
sS'Pts'
p6390
S'10'
p6391
sa(dp6392
S'Pens'
p6393
S'0'
sS'Sub'
p6394
S'1'
sS'Lost'
p6395
S'0'
sS'Drop'
p6396
S'0'
sS'Start'
p6397
S'1'
sS'Won'
p6398
S'2'
sS'Draw'
p6399
S'0'
sS'%'
S'100.00'
p6400
sS'Mat'
p6401
S'2'
sS'Conv'
p6402
S'0'
sS'Tries'
p6403
S'0'
sS'Pts'
p6404
S'0'
sa(dp6405
S'Pens'
p6406
S'0'
sS'Sub'
p6407
S'5'
sS'Lost'
p6408
S'12'
p6409
sS'Drop'
p6410
S'0'
sS'Start'
p6411
S'18'
p6412
sS'Won'
p6413
S'10'
p6414
sS'Draw'
p6415
S'1'
sS'%'
S'45.65'
p6416
sS'Mat'
p6417
S'23'
p6418
sS'Conv'
p6419
S'0'
sS'Tries'
p6420
S'3'
sS'Pts'
p6421
S'15'
p6422
sa(dp6423
S'Pens'
p6424
S'0'
sS'Sub'
p6425
S'0'
sS'Lost'
p6426
S'0'
sS'Drop'
p6427
S'0'
sS'Start'
p6428
S'1'
sS'Won'
p6429
S'1'
sS'Draw'
p6430
S'0'
sS'%'
S'100.00'
p6431
sS'Mat'
p6432
S'1'
sS'Conv'
p6433
S'0'
sS'Tries'
p6434
S'0'
sS'Pts'
p6435
S'0'
sa(dp6436
S'Pens'
p6437
S'0'
sS'Sub'
p6438
S'9'
sS'Lost'
p6439
S'22'
p6440
sS'Drop'
p6441
S'0'
sS'Start'
p6442
S'25'
p6443
sS'Won'
p6444
S'12'
p6445
sS'Draw'
p6446
S'0'
sS'%'
S'35.29'
p6447
sS'Mat'
p6448
S'34'
p6449
sS'Conv'
p6450
S'0'
sS'Tries'
p6451
S'2'
sS'Pts'
p6452
S'10'
p6453
sa(dp6454
S'Pens'
p6455
S'0'
sS'Sub'
p6456
S'0'
sS'Lost'
p6457
S'0'
sS'Drop'
p6458
S'0'
sS'Start'
p6459
S'1'
sS'Won'
p6460
S'1'
sS'Draw'
p6461
S'0'
sS'%'
S'100.00'
p6462
sS'Mat'
p6463
S'1'
sS'Conv'
p6464
S'0'
sS'Tries'
p6465
S'0'
sS'Pts'
p6466
S'0'
sa(dp6467
S'Pens'
p6468
S'0'
sS'Sub'
p6469
S'1'
sS'Lost'
p6470
S'1'
sS'Drop'
p6471
S'0'
sS'Start'
p6472
S'1'
sS'Won'
p6473
S'1'
sS'Draw'
p6474
S'0'
sS'%'
S'50.00'
p6475
sS'Mat'
p6476
S'2'
sS'Conv'
p6477
S'0'
sS'Tries'
p6478
S'0'
sS'Pts'
p6479
S'0'
sa(dp6480
S'Pens'
p6481
S'0'
sS'Sub'
p6482
S'0'
sS'Lost'
p6483
S'0'
sS'Drop'
p6484
S'0'
sS'Start'
p6485
S'3'
sS'Won'
p6486
S'3'
sS'Draw'
p6487
S'0'
sS'%'
S'100.00'
p6488
sS'Mat'
p6489
S'3'
sS'Conv'
p6490
S'0'
sS'Tries'
p6491
S'5'
sS'Pts'
p6492
S'25'
p6493
sa(dp6494
S'Pens'
p6495
S'0'
sS'Sub'
p6496
S'2'
sS'Lost'
p6497
S'0'
sS'Drop'
p6498
S'0'
sS'Start'
p6499
S'1'
sS'Won'
p6500
S'3'
sS'Draw'
p6501
S'0'
sS'%'
S'100.00'
p6502
sS'Mat'
p6503
S'3'
sS'Conv'
p6504
S'0'
sS'Tries'
p6505
S'0'
sS'Pts'
p6506
S'0'
sa(dp6507
S'Pens'
p6508
S'0'
sS'Sub'
p6509
S'7'
sS'Lost'
p6510
S'67'
p6511
sS'Drop'
p6512
S'0'
sS'Start'
p6513
S'94'
p6514
sS'Won'
p6515
S'33'
p6516
sS'Draw'
p6517
S'1'
sS'%'
S'33.16'
p6518
sS'Mat'
p6519
S'101'
p6520
sS'Conv'
p6521
S'0'
sS'Tries'
p6522
S'19'
p6523
sS'Pts'
p6524
S'95'
p6525
sa(dp6526
S'Pens'
p6527
S'0'
sS'Sub'
p6528
S'1'
sS'Lost'
p6529
S'12'
p6530
sS'Drop'
p6531
S'0'
sS'Start'
p6532
S'14'
p6533
sS'Won'
p6534
S'3'
sS'Draw'
p6535
S'0'
sS'%'
S'20.00'
p6536
sS'Mat'
p6537
S'15'
p6538
sS'Conv'
p6539
S'0'
sS'Tries'
p6540
S'1'
sS'Pts'
p6541
S'5'
sa(dp6542
S'Pens'
p6543
S'0'
sS'Sub'
p6544
S'7'
sS'Lost'
p6545
S'10'
p6546
sS'Drop'
p6547
S'0'
sS'Start'
p6548
S'13'
p6549
sS'Won'
p6550
S'9'
sS'Draw'
p6551
S'1'
sS'%'
S'47.50'
p6552
sS'Mat'
p6553
S'20'
p6554
sS'Conv'
p6555
S'0'
sS'Tries'
p6556
S'1'
sS'Pts'
p6557
S'5'
sa(dp6558
S'Pens'
p6559
S'0'
sS'Sub'
p6560
S'0'
sS'Lost'
p6561
S'4'
sS'Drop'
p6562
S'0'
sS'Start'
p6563
S'9'
sS'Won'
p6564
S'5'
sS'Draw'
p6565
S'0'
sS'%'
S'55.55'
p6566
sS'Mat'
p6567
S'9'
sS'Conv'
p6568
S'0'
sS'Tries'
p6569
S'8'
sS'Pts'
p6570
S'36'
p6571
sa(dp6572
S'Pens'
p6573
S'0'
sS'Sub'
p6574
S'0'
sS'Lost'
p6575
S'5'
sS'Drop'
p6576
S'0'
sS'Start'
p6577
S'6'
sS'Won'
p6578
S'1'
sS'Draw'
p6579
S'0'
sS'%'
S'16.66'
p6580
sS'Mat'
p6581
S'6'
sS'Conv'
p6582
S'0'
sS'Tries'
p6583
S'1'
sS'Pts'
p6584
S'5'
sa(dp6585
S'Pens'
p6586
S'0'
sS'Sub'
p6587
S'0'
sS'Lost'
p6588
S'1'
sS'Drop'
p6589
S'0'
sS'Start'
p6590
S'1'
sS'Won'
p6591
S'0'
sS'Draw'
p6592
S'0'
sS'%'
S'0.00'
p6593
sS'Mat'
p6594
S'1'
sS'Conv'
p6595
S'0'
sS'Tries'
p6596
S'0'
sS'Pts'
p6597
S'0'
sa(dp6598
S'Pens'
p6599
S'0'
sS'Sub'
p6600
S'1'
sS'Lost'
p6601
S'2'
sS'Drop'
p6602
S'0'
sS'Start'
p6603
S'3'
sS'Won'
p6604
S'2'
sS'Draw'
p6605
S'0'
sS'%'
S'50.00'
p6606
sS'Mat'
p6607
S'4'
sS'Conv'
p6608
S'0'
sS'Tries'
p6609
S'2'
sS'Pts'
p6610
S'10'
p6611
sa(dp6612
S'Pens'
p6613
S'14'
p6614
sS'Sub'
p6615
S'17'
p6616
sS'Lost'
p6617
S'21'
p6618
sS'Drop'
p6619
S'0'
sS'Start'
p6620
S'16'
p6621
sS'Won'
p6622
S'12'
p6623
sS'Draw'
p6624
S'0'
sS'%'
S'36.36'
p6625
sS'Mat'
p6626
S'33'
p6627
sS'Conv'
p6628
S'13'
p6629
sS'Tries'
p6630
S'2'
sS'Pts'
p6631
S'78'
p6632
sa(dp6633
S'Pens'
p6634
S'0'
sS'Sub'
p6635
S'1'
sS'Lost'
p6636
S'11'
p6637
sS'Drop'
p6638
S'0'
sS'Start'
p6639
S'15'
p6640
sS'Won'
p6641
S'5'
sS'Draw'
p6642
S'0'
sS'%'
S'31.25'
p6643
sS'Mat'
p6644
S'16'
p6645
sS'Conv'
p6646
S'0'
sS'Tries'
p6647
S'5'
sS'Pts'
p6648
S'25'
p6649
sa(dp6650
S'Pens'
p6651
S'0'
sS'Sub'
p6652
S'6'
sS'Lost'
p6653
S'15'
p6654
sS'Drop'
p6655
S'0'
sS'Start'
p6656
S'19'
p6657
sS'Won'
p6658
S'10'
p6659
sS'Draw'
p6660
S'0'
sS'%'
S'40.00'
p6661
sS'Mat'
p6662
S'25'
p6663
sS'Conv'
p6664
S'0'
sS'Tries'
p6665
S'3'
sS'Pts'
p6666
S'15'
p6667
sa(dp6668
S'Pens'
p6669
S'0'
sS'Sub'
p6670
S'1'
sS'Lost'
p6671
S'1'
sS'Drop'
p6672
S'0'
sS'Start'
p6673
S'0'
sS'Won'
p6674
S'0'
sS'Draw'
p6675
S'0'
sS'%'
S'0.00'
p6676
sS'Mat'
p6677
S'1'
sS'Conv'
p6678
S'0'
sS'Tries'
p6679
S'0'
sS'Pts'
p6680
S'0'
sa(dp6681
S'Pens'
p6682
S'0'
sS'Sub'
p6683
S'6'
sS'Lost'
p6684
S'27'
p6685
sS'Drop'
p6686
S'0'
sS'Start'
p6687
S'33'
p6688
sS'Won'
p6689
S'12'
p6690
sS'Draw'
p6691
S'0'
sS'%'
S'30.76'
p6692
sS'Mat'
p6693
S'39'
p6694
sS'Conv'
p6695
S'0'
sS'Tries'
p6696
S'5'
sS'Pts'
p6697
S'25'
p6698
sa(dp6699
S'Pens'
p6700
S'0'
sS'Sub'
p6701
S'0'
sS'Lost'
p6702
S'1'
sS'Drop'
p6703
S'0'
sS'Start'
p6704
S'1'
sS'Won'
p6705
S'0'
sS'Draw'
p6706
S'0'
sS'%'
S'0.00'
p6707
sS'Mat'
p6708
S'1'
sS'Conv'
p6709
S'0'
sS'Tries'
p6710
S'0'
sS'Pts'
p6711
S'0'
sa(dp6712
S'Pens'
p6713
S'0'
sS'Sub'
p6714
S'0'
sS'Lost'
p6715
S'1'
sS'Drop'
p6716
S'0'
sS'Start'
p6717
S'1'
sS'Won'
p6718
S'0'
sS'Draw'
p6719
S'0'
sS'%'
S'0.00'
p6720
sS'Mat'
p6721
S'1'
sS'Conv'
p6722
S'0'
sS'Tries'
p6723
S'0'
sS'Pts'
p6724
S'0'
sa(dp6725
S'Pens'
p6726
S'0'
sS'Sub'
p6727
S'13'
p6728
sS'Lost'
p6729
S'22'
p6730
sS'Drop'
p6731
S'0'
sS'Start'
p6732
S'19'
p6733
sS'Won'
p6734
S'10'
p6735
sS'Draw'
p6736
S'0'
sS'%'
S'31.25'
p6737
sS'Mat'
p6738
S'32'
p6739
sS'Conv'
p6740
S'0'
sS'Tries'
p6741
S'5'
sS'Pts'
p6742
S'25'
p6743
sa(dp6744
S'Pens'
p6745
S'0'
sS'Sub'
p6746
S'0'
sS'Lost'
p6747
S'0'
sS'Drop'
p6748
S'0'
sS'Start'
p6749
S'1'
sS'Won'
p6750
S'1'
sS'Draw'
p6751
S'0'
sS'%'
S'100.00'
p6752
sS'Mat'
p6753
S'1'
sS'Conv'
p6754
S'0'
sS'Tries'
p6755
S'2'
sS'Pts'
p6756
S'10'
p6757
sa(dp6758
S'Pens'
p6759
S'0'
sS'Sub'
p6760
S'0'
sS'Lost'
p6761
S'12'
p6762
sS'Drop'
p6763
S'0'
sS'Start'
p6764
S'15'
p6765
sS'Won'
p6766
S'3'
sS'Draw'
p6767
S'0'
sS'%'
S'20.00'
p6768
sS'Mat'
p6769
S'15'
p6770
sS'Conv'
p6771
S'0'
sS'Tries'
p6772
S'0'
sS'Pts'
p6773
S'0'
sa(dp6774
S'Pens'
p6775
S'0'
sS'Sub'
p6776
S'3'
sS'Lost'
p6777
S'1'
sS'Drop'
p6778
S'0'
sS'Start'
p6779
S'2'
sS'Won'
p6780
S'3'
sS'Draw'
p6781
S'1'
sS'%'
S'70.00'
p6782
sS'Mat'
p6783
S'5'
sS'Conv'
p6784
S'0'
sS'Tries'
p6785
S'0'
sS'Pts'
p6786
S'0'
sa(dp6787
S'Pens'
p6788
S'0'
sS'Sub'
p6789
S'1'
sS'Lost'
p6790
S'0'
sS'Drop'
p6791
S'0'
sS'Start'
p6792
S'0'
sS'Won'
p6793
S'1'
sS'Draw'
p6794
S'0'
sS'%'
S'100.00'
p6795
sS'Mat'
p6796
S'1'
sS'Conv'
p6797
S'0'
sS'Tries'
p6798
S'0'
sS'Pts'
p6799
S'0'
sa(dp6800
S'Pens'
p6801
S'0'
sS'Sub'
p6802
S'1'
sS'Lost'
p6803
S'1'
sS'Drop'
p6804
S'0'
sS'Start'
p6805
S'3'
sS'Won'
p6806
S'3'
sS'Draw'
p6807
S'0'
sS'%'
S'75.00'
p6808
sS'Mat'
p6809
S'4'
sS'Conv'
p6810
S'0'
sS'Tries'
p6811
S'0'
sS'Pts'
p6812
S'0'
sa(dp6813
S'Pens'
p6814
S'0'
sS'Sub'
p6815
S'1'
sS'Lost'
p6816
S'4'
sS'Drop'
p6817
S'0'
sS'Start'
p6818
S'3'
sS'Won'
p6819
S'0'
sS'Draw'
p6820
S'0'
sS'%'
S'0.00'
p6821
sS'Mat'
p6822
S'4'
sS'Conv'
p6823
S'0'
sS'Tries'
p6824
S'0'
sS'Pts'
p6825
S'0'
sa(dp6826
S'Pens'
p6827
S'0'
sS'Sub'
p6828
S'2'
sS'Lost'
p6829
S'2'
sS'Drop'
p6830
S'0'
sS'Start'
p6831
S'0'
sS'Won'
p6832
S'0'
sS'Draw'
p6833
S'0'
sS'%'
S'0.00'
p6834
sS'Mat'
p6835
S'2'
sS'Conv'
p6836
S'0'
sS'Tries'
p6837
S'0'
sS'Pts'
p6838
S'0'
sa(dp6839
S'Pens'
p6840
S'0'
sS'Sub'
p6841
S'2'
sS'Lost'
p6842
S'2'
sS'Drop'
p6843
S'0'
sS'Start'
p6844
S'0'
sS'Won'
p6845
S'0'
sS'Draw'
p6846
S'0'
sS'%'
S'0.00'
p6847
sS'Mat'
p6848
S'2'
sS'Conv'
p6849
S'0'
sS'Tries'
p6850
S'0'
sS'Pts'
p6851
S'0'
sa(dp6852
S'Pens'
p6853
S'0'
sS'Sub'
p6854
S'1'
sS'Lost'
p6855
S'49'
p6856
sS'Drop'
p6857
S'0'
sS'Start'
p6858
S'70'
p6859
sS'Won'
p6860
S'21'
p6861
sS'Draw'
p6862
S'1'
sS'%'
S'30.28'
p6863
sS'Mat'
p6864
S'71'
p6865
sS'Conv'
p6866
S'0'
sS'Tries'
p6867
S'11'
p6868
sS'Pts'
p6869
S'55'
p6870
sa(dp6871
S'Pens'
p6872
S'0'
sS'Sub'
p6873
S'6'
sS'Lost'
p6874
S'29'
p6875
sS'Drop'
p6876
S'0'
sS'Start'
p6877
S'32'
p6878
sS'Won'
p6879
S'9'
sS'Draw'
p6880
S'0'
sS'%'
S'23.68'
p6881
sS'Mat'
p6882
S'38'
p6883
sS'Conv'
p6884
S'0'
sS'Tries'
p6885
S'9'
sS'Pts'
p6886
S'45'
p6887
sa(dp6888
S'Pens'
p6889
S'0'
sS'Sub'
p6890
S'3'
sS'Lost'
p6891
S'9'
sS'Drop'
p6892
S'0'
sS'Start'
p6893
S'15'
p6894
sS'Won'
p6895
S'8'
sS'Draw'
p6896
S'1'
sS'%'
S'47.22'
p6897
sS'Mat'
p6898
S'18'
p6899
sS'Conv'
p6900
S'0'
sS'Tries'
p6901
S'4'
sS'Pts'
p6902
S'20'
p6903
sa(dp6904
S'Pens'
p6905
S'0'
sS'Sub'
p6906
S'6'
sS'Lost'
p6907
S'7'
sS'Drop'
p6908
S'0'
sS'Start'
p6909
S'7'
sS'Won'
p6910
S'6'
sS'Draw'
p6911
S'0'
sS'%'
S'46.15'
p6912
sS'Mat'
p6913
S'13'
p6914
sS'Conv'
p6915
S'0'
sS'Tries'
p6916
S'0'
sS'Pts'
p6917
S'0'
sa(dp6918
S'Pens'
p6919
S'1'
sS'Sub'
p6920
S'1'
sS'Lost'
p6921
S'5'
sS'Drop'
p6922
S'0'
sS'Start'
p6923
S'6'
sS'Won'
p6924
S'2'
sS'Draw'
p6925
S'0'
sS'%'
S'28.57'
p6926
sS'Mat'
p6927
S'7'
sS'Conv'
p6928
S'0'
sS'Tries'
p6929
S'2'
sS'Pts'
p6930
S'13'
p6931
sa(dp6932
S'Pens'
p6933
S'0'
sS'Sub'
p6934
S'7'
sS'Lost'
p6935
S'10'
p6936
sS'Drop'
p6937
S'0'
sS'Start'
p6938
S'7'
sS'Won'
p6939
S'4'
sS'Draw'
p6940
S'0'
sS'%'
S'28.57'
p6941
sS'Mat'
p6942
S'14'
p6943
sS'Conv'
p6944
S'0'
sS'Tries'
p6945
S'2'
sS'Pts'
p6946
S'10'
p6947
sa(dp6948
S'Pens'
p6949
S'0'
sS'Sub'
p6950
S'6'
sS'Lost'
p6951
S'4'
sS'Drop'
p6952
S'0'
sS'Start'
p6953
S'2'
sS'Won'
p6954
S'4'
sS'Draw'
p6955
S'0'
sS'%'
S'50.00'
p6956
sS'Mat'
p6957
S'8'
sS'Conv'
p6958
S'0'
sS'Tries'
p6959
S'0'
sS'Pts'
p6960
S'0'
sa(dp6961
S'Pens'
p6962
S'0'
sS'Sub'
p6963
S'16'
p6964
sS'Lost'
p6965
S'75'
p6966
sS'Drop'
p6967
S'0'
sS'Start'
p6968
S'90'
p6969
sS'Won'
p6970
S'31'
p6971
sS'Draw'
p6972
S'0'
sS'%'
S'29.24'
p6973
sS'Mat'
p6974
S'106'
p6975
sS'Conv'
p6976
S'0'
sS'Tries'
p6977
S'15'
p6978
sS'Pts'
p6979
S'75'
p6980
sa(dp6981
S'Pens'
p6982
S'0'
sS'Sub'
p6983
S'1'
sS'Lost'
p6984
S'10'
p6985
sS'Drop'
p6986
S'0'
sS'Start'
p6987
S'19'
p6988
sS'Won'
p6989
S'10'
p6990
sS'Draw'
p6991
S'0'
sS'%'
S'50.00'
p6992
sS'Mat'
p6993
S'20'
p6994
sS'Conv'
p6995
S'0'
sS'Tries'
p6996
S'4'
sS'Pts'
p6997
S'20'
p6998
sa(dp6999
S'Pens'
p7000
S'0'
sS'Sub'
p7001
S'3'
sS'Lost'
p7002
S'3'
sS'Drop'
p7003
S'0'
sS'Start'
p7004
S'1'
sS'Won'
p7005
S'1'
sS'Draw'
p7006
S'0'
sS'%'
S'25.00'
p7007
sS'Mat'
p7008
S'4'
sS'Conv'
p7009
S'0'
sS'Tries'
p7010
S'1'
sS'Pts'
p7011
S'5'
sa(dp7012
S'Pens'
p7013
S'0'
sS'Sub'
p7014
S'1'
sS'Lost'
p7015
S'1'
sS'Drop'
p7016
S'0'
sS'Start'
p7017
S'1'
sS'Won'
p7018
S'1'
sS'Draw'
p7019
S'0'
sS'%'
S'50.00'
p7020
sS'Mat'
p7021
S'2'
sS'Conv'
p7022
S'0'
sS'Tries'
p7023
S'0'
sS'Pts'
p7024
S'0'
sa(dp7025
S'Pens'
p7026
S'0'
sS'Sub'
p7027
S'3'
sS'Lost'
p7028
S'2'
sS'Drop'
p7029
S'0'
sS'Start'
p7030
S'2'
sS'Won'
p7031
S'3'
sS'Draw'
p7032
S'0'
sS'%'
S'60.00'
p7033
sS'Mat'
p7034
S'5'
sS'Conv'
p7035
S'0'
sS'Tries'
p7036
S'1'
sS'Pts'
p7037
S'5'
sa(dp7038
S'Pens'
p7039
S'1'
sS'Sub'
p7040
S'4'
sS'Lost'
p7041
S'16'
p7042
sS'Drop'
p7043
S'0'
sS'Start'
p7044
S'18'
p7045
sS'Won'
p7046
S'6'
sS'Draw'
p7047
S'0'
sS'%'
S'27.27'
p7048
sS'Mat'
p7049
S'22'
p7050
sS'Conv'
p7051
S'0'
sS'Tries'
p7052
S'2'
sS'Pts'
p7053
S'13'
p7054
sa(dp7055
S'Pens'
p7056
S'0'
sS'Sub'
p7057
S'3'
sS'Lost'
p7058
S'6'
sS'Drop'
p7059
S'0'
sS'Start'
p7060
S'3'
sS'Won'
p7061
S'0'
sS'Draw'
p7062
S'0'
sS'%'
S'0.00'
p7063
sS'Mat'
p7064
S'6'
sS'Conv'
p7065
S'0'
sS'Tries'
p7066
S'1'
sS'Pts'
p7067
S'5'
sa(dp7068
S'Pens'
p7069
S'0'
sS'Sub'
p7070
S'1'
sS'Lost'
p7071
S'31'
p7072
sS'Drop'
p7073
S'0'
sS'Start'
p7074
S'41'
p7075
sS'Won'
p7076
S'11'
p7077
sS'Draw'
p7078
S'0'
sS'%'
S'26.19'
p7079
sS'Mat'
p7080
S'42'
p7081
sS'Conv'
p7082
S'0'
sS'Tries'
p7083
S'7'
sS'Pts'
p7084
S'35'
p7085
sa(dp7086
S'Pens'
p7087
S'0'
sS'Sub'
p7088
S'5'
sS'Lost'
p7089
S'6'
sS'Drop'
p7090
S'0'
sS'Start'
p7091
S'2'
sS'Won'
p7092
S'1'
sS'Draw'
p7093
S'0'
sS'%'
S'14.28'
p7094
sS'Mat'
p7095
S'7'
sS'Conv'
p7096
S'1'
sS'Tries'
p7097
S'0'
sS'Pts'
p7098
S'2'
sa(dp7099
S'Pens'
p7100
S'0'
sS'Sub'
p7101
S'3'
sS'Lost'
p7102
S'17'
p7103
sS'Drop'
p7104
S'0'
sS'Start'
p7105
S'19'
p7106
sS'Won'
p7107
S'5'
sS'Draw'
p7108
S'0'
sS'%'
S'22.72'
p7109
sS'Mat'
p7110
S'22'
p7111
sS'Conv'
p7112
S'0'
sS'Tries'
p7113
S'1'
sS'Pts'
p7114
S'5'
sa(dp7115
S'Pens'
p7116
S'0'
sS'Sub'
p7117
S'2'
sS'Lost'
p7118
S'4'
sS'Drop'
p7119
S'0'
sS'Start'
p7120
S'2'
sS'Won'
p7121
S'0'
sS'Draw'
p7122
S'0'
sS'%'
S'0.00'
p7123
sS'Mat'
p7124
S'4'
sS'Conv'
p7125
S'0'
sS'Tries'
p7126
S'0'
sS'Pts'
p7127
S'0'
sa(dp7128
S'Pens'
p7129
S'0'
sS'Sub'
p7130
S'3'
sS'Lost'
p7131
S'3'
sS'Drop'
p7132
S'0'
sS'Start'
p7133
S'2'
sS'Won'
p7134
S'2'
sS'Draw'
p7135
S'0'
sS'%'
S'40.00'
p7136
sS'Mat'
p7137
S'5'
sS'Conv'
p7138
S'0'
sS'Tries'
p7139
S'0'
sS'Pts'
p7140
S'0'
sa(dp7141
S'Pens'
p7142
S'0'
sS'Sub'
p7143
S'1'
sS'Lost'
p7144
S'3'
sS'Drop'
p7145
S'0'
sS'Start'
p7146
S'4'
sS'Won'
p7147
S'2'
sS'Draw'
p7148
S'0'
sS'%'
S'40.00'
p7149
sS'Mat'
p7150
S'5'
sS'Conv'
p7151
S'0'
sS'Tries'
p7152
S'1'
sS'Pts'
p7153
S'5'
sa(dp7154
S'Pens'
p7155
S'0'
sS'Sub'
p7156
S'11'
p7157
sS'Lost'
p7158
S'23'
p7159
sS'Drop'
p7160
S'0'
sS'Start'
p7161
S'23'
p7162
sS'Won'
p7163
S'11'
p7164
sS'Draw'
p7165
S'0'
sS'%'
S'32.35'
p7166
sS'Mat'
p7167
S'34'
p7168
sS'Conv'
p7169
S'0'
sS'Tries'
p7170
S'2'
sS'Pts'
p7171
S'10'
p7172
sa(dp7173
S'Pens'
p7174
S'7'
sS'Sub'
p7175
S'5'
sS'Lost'
p7176
S'5'
sS'Drop'
p7177
S'0'
sS'Start'
p7178
S'6'
sS'Won'
p7179
S'6'
sS'Draw'
p7180
S'0'
sS'%'
S'54.54'
p7181
sS'Mat'
p7182
S'11'
p7183
sS'Conv'
p7184
S'9'
sS'Tries'
p7185
S'2'
sS'Pts'
p7186
S'49'
p7187
sa(dp7188
S'Pens'
p7189
S'0'
sS'Sub'
p7190
S'0'
sS'Lost'
p7191
S'0'
sS'Drop'
p7192
S'0'
sS'Start'
p7193
S'1'
sS'Won'
p7194
S'1'
sS'Draw'
p7195
S'0'
sS'%'
S'100.00'
p7196
sS'Mat'
p7197
S'1'
sS'Conv'
p7198
S'0'
sS'Tries'
p7199
S'0'
sS'Pts'
p7200
S'0'
sa(dp7201
S'Pens'
p7202
S'0'
sS'Sub'
p7203
S'13'
p7204
sS'Lost'
p7205
S'72'
p7206
sS'Drop'
p7207
S'0'
sS'Start'
p7208
S'82'
p7209
sS'Won'
p7210
S'23'
p7211
sS'Draw'
p7212
S'0'
sS'%'
S'24.21'
p7213
sS'Mat'
p7214
S'95'
p7215
sS'Conv'
p7216
S'0'
sS'Tries'
p7217
S'13'
p7218
sS'Pts'
p7219
S'65'
p7220
sa(dp7221
S'Pens'
p7222
S'0'
sS'Sub'
p7223
S'2'
sS'Lost'
p7224
S'7'
sS'Drop'
p7225
S'0'
sS'Start'
p7226
S'6'
sS'Won'
p7227
S'1'
sS'Draw'
p7228
S'0'
sS'%'
S'12.50'
p7229
sS'Mat'
p7230
S'8'
sS'Conv'
p7231
S'0'
sS'Tries'
p7232
S'1'
sS'Pts'
p7233
S'5'
sa(dp7234
S'Pens'
p7235
S'0'
sS'Sub'
p7236
S'0'
sS'Lost'
p7237
S'4'
sS'Drop'
p7238
S'0'
sS'Start'
p7239
S'4'
sS'Won'
p7240
S'0'
sS'Draw'
p7241
S'0'
sS'%'
S'0.00'
p7242
sS'Mat'
p7243
S'4'
sS'Conv'
p7244
S'0'
sS'Tries'
p7245
S'0'
sS'Pts'
p7246
S'0'
sa(dp7247
S'Pens'
p7248
S'0'
sS'Sub'
p7249
S'5'
sS'Lost'
p7250
S'4'
sS'Drop'
p7251
S'0'
sS'Start'
p7252
S'3'
sS'Won'
p7253
S'4'
sS'Draw'
p7254
S'0'
sS'%'
S'50.00'
p7255
sS'Mat'
p7256
S'8'
sS'Conv'
p7257
S'0'
sS'Tries'
p7258
S'0'
sS'Pts'
p7259
S'0'
sa(dp7260
S'Pens'
p7261
S'0'
sS'Sub'
p7262
S'8'
sS'Lost'
p7263
S'10'
p7264
sS'Drop'
p7265
S'0'
sS'Start'
p7266
S'7'
sS'Won'
p7267
S'5'
sS'Draw'
p7268
S'0'
sS'%'
S'33.33'
p7269
sS'Mat'
p7270
S'15'
p7271
sS'Conv'
p7272
S'0'
sS'Tries'
p7273
S'0'
sS'Pts'
p7274
S'0'
sa(dp7275
S'Pens'
p7276
S'0'
sS'Sub'
p7277
S'6'
sS'Lost'
p7278
S'7'
sS'Drop'
p7279
S'0'
sS'Start'
p7280
S'3'
sS'Won'
p7281
S'2'
sS'Draw'
p7282
S'0'
sS'%'
S'22.22'
p7283
sS'Mat'
p7284
S'9'
sS'Conv'
p7285
S'0'
sS'Tries'
p7286
S'0'
sS'Pts'
p7287
S'0'
sa(dp7288
S'Pens'
p7289
S'0'
sS'Sub'
p7290
S'11'
p7291
sS'Lost'
p7292
S'41'
p7293
sS'Drop'
p7294
S'0'
sS'Start'
p7295
S'45'
p7296
sS'Won'
p7297
S'15'
p7298
sS'Draw'
p7299
S'0'
sS'%'
S'26.78'
p7300
sS'Mat'
p7301
S'56'
p7302
sS'Conv'
p7303
S'0'
sS'Tries'
p7304
S'2'
sS'Pts'
p7305
S'10'
p7306
sa(dp7307
S'Pens'
p7308
S'0'
sS'Sub'
p7309
S'3'
sS'Lost'
p7310
S'3'
sS'Drop'
p7311
S'0'
sS'Start'
p7312
S'1'
sS'Won'
p7313
S'1'
sS'Draw'
p7314
S'0'
sS'%'
S'25.00'
p7315
sS'Mat'
p7316
S'4'
sS'Conv'
p7317
S'0'
sS'Tries'
p7318
S'0'
sS'Pts'
p7319
S'0'
sa(dp7320
S'Pens'
p7321
S'0'
sS'Sub'
p7322
S'2'
sS'Lost'
p7323
S'3'
sS'Drop'
p7324
S'0'
sS'Start'
p7325
S'2'
sS'Won'
p7326
S'1'
sS'Draw'
p7327
S'0'
sS'%'
S'25.00'
p7328
sS'Mat'
p7329
S'4'
sS'Conv'
p7330
S'0'
sS'Tries'
p7331
S'0'
sS'Pts'
p7332
S'0'
sa(dp7333
S'Pens'
p7334
S'0'
sS'Sub'
p7335
S'30'
p7336
sS'Lost'
p7337
S'62'
p7338
sS'Drop'
p7339
S'0'
sS'Start'
p7340
S'53'
p7341
sS'Won'
p7342
S'20'
p7343
sS'Draw'
p7344
S'1'
sS'%'
S'24.69'
p7345
sS'Mat'
p7346
S'83'
p7347
sS'Conv'
p7348
S'0'
sS'Tries'
p7349
S'0'
sS'Pts'
p7350
S'0'
sa(dp7351
S'Pens'
p7352
S'0'
sS'Sub'
p7353
S'24'
p7354
sS'Lost'
p7355
S'70'
p7356
sS'Drop'
p7357
S'0'
sS'Start'
p7358
S'79'
p7359
sS'Won'
p7360
S'32'
p7361
sS'Draw'
p7362
S'1'
sS'%'
S'31.55'
p7363
sS'Mat'
p7364
S'103'
p7365
sS'Conv'
p7366
S'0'
sS'Tries'
p7367
S'8'
sS'Pts'
p7368
S'40'
p7369
sa(dp7370
S'Pens'
p7371
S'52'
p7372
sS'Sub'
p7373
S'7'
sS'Lost'
p7374
S'27'
p7375
sS'Drop'
p7376
S'6'
sS'Start'
p7377
S'33'
p7378
sS'Won'
p7379
S'12'
p7380
sS'Draw'
p7381
S'1'
sS'%'
S'31.25'
p7382
sS'Mat'
p7383
S'40'
p7384
sS'Conv'
p7385
S'33'
p7386
sS'Tries'
p7387
S'4'
sS'Pts'
p7388
S'260'
p7389
sa(dp7390
S'Pens'
p7391
S'0'
sS'Sub'
p7392
S'5'
sS'Lost'
p7393
S'6'
sS'Drop'
p7394
S'0'
sS'Start'
p7395
S'4'
sS'Won'
p7396
S'3'
sS'Draw'
p7397
S'0'
sS'%'
S'33.33'
p7398
sS'Mat'
p7399
S'9'
sS'Conv'
p7400
S'0'
sS'Tries'
p7401
S'0'
sS'Pts'
p7402
S'0'
sa(dp7403
S'Pens'
p7404
S'0'
sS'Sub'
p7405
S'4'
sS'Lost'
p7406
S'11'
p7407
sS'Drop'
p7408
S'0'
sS'Start'
p7409
S'10'
p7410
sS'Won'
p7411
S'3'
sS'Draw'
p7412
S'0'
sS'%'
S'21.42'
p7413
sS'Mat'
p7414
S'14'
p7415
sS'Conv'
p7416
S'0'
sS'Tries'
p7417
S'0'
sS'Pts'
p7418
S'0'
sa(dp7419
S'Pens'
p7420
S'0'
sS'Sub'
p7421
S'4'
sS'Lost'
p7422
S'4'
sS'Drop'
p7423
S'0'
sS'Start'
p7424
S'1'
sS'Won'
p7425
S'1'
sS'Draw'
p7426
S'0'
sS'%'
S'20.00'
p7427
sS'Mat'
p7428
S'5'
sS'Conv'
p7429
S'0'
sS'Tries'
p7430
S'0'
sS'Pts'
p7431
S'0'
sa(dp7432
S'Pens'
p7433
S'0'
sS'Sub'
p7434
S'2'
sS'Lost'
p7435
S'2'
sS'Drop'
p7436
S'0'
sS'Start'
p7437
S'0'
sS'Won'
p7438
S'0'
sS'Draw'
p7439
S'0'
sS'%'
S'0.00'
p7440
sS'Mat'
p7441
S'2'
sS'Conv'
p7442
S'0'
sS'Tries'
p7443
S'0'
sS'Pts'
p7444
S'0'
sa(dp7445
S'Pens'
p7446
S'0'
sS'Sub'
p7447
S'7'
sS'Lost'
p7448
S'7'
sS'Drop'
p7449
S'0'
sS'Start'
p7450
S'7'
sS'Won'
p7451
S'6'
sS'Draw'
p7452
S'1'
sS'%'
S'46.42'
p7453
sS'Mat'
p7454
S'14'
p7455
sS'Conv'
p7456
S'0'
sS'Tries'
p7457
S'0'
sS'Pts'
p7458
S'0'
sa(dp7459
S'Pens'
p7460
S'0'
sS'Sub'
p7461
S'2'
sS'Lost'
p7462
S'4'
sS'Drop'
p7463
S'0'
sS'Start'
p7464
S'2'
sS'Won'
p7465
S'0'
sS'Draw'
p7466
S'0'
sS'%'
S'0.00'
p7467
sS'Mat'
p7468
S'4'
sS'Conv'
p7469
S'0'
sS'Tries'
p7470
S'0'
sS'Pts'
p7471
S'0'
sa(dp7472
S'Pens'
p7473
S'0'
sS'Sub'
p7474
S'1'
sS'Lost'
p7475
S'9'
sS'Drop'
p7476
S'0'
sS'Start'
p7477
S'12'
p7478
sS'Won'
p7479
S'4'
sS'Draw'
p7480
S'0'
sS'%'
S'30.76'
p7481
sS'Mat'
p7482
S'13'
p7483
sS'Conv'
p7484
S'0'
sS'Tries'
p7485
S'0'
sS'Pts'
p7486
S'0'
sa(dp7487
S'Pens'
p7488
S'0'
sS'Sub'
p7489
S'33'
p7490
sS'Lost'
p7491
S'55'
p7492
sS'Drop'
p7493
S'0'
sS'Start'
p7494
S'48'
p7495
sS'Won'
p7496
S'25'
p7497
sS'Draw'
p7498
S'1'
sS'%'
S'31.48'
p7499
sS'Mat'
p7500
S'81'
p7501
sS'Conv'
p7502
S'0'
sS'Tries'
p7503
S'5'
sS'Pts'
p7504
S'25'
p7505
sa(dp7506
S'Pens'
p7507
S'0'
sS'Sub'
p7508
S'0'
sS'Lost'
p7509
S'7'
sS'Drop'
p7510
S'0'
sS'Start'
p7511
S'10'
p7512
sS'Won'
p7513
S'3'
sS'Draw'
p7514
S'0'
sS'%'
S'30.00'
p7515
sS'Mat'
p7516
S'10'
p7517
sS'Conv'
p7518
S'0'
sS'Tries'
p7519
S'3'
sS'Pts'
p7520
S'15'
p7521
sa(dp7522
S'Pens'
p7523
S'0'
sS'Sub'
p7524
S'10'
p7525
sS'Lost'
p7526
S'12'
p7527
sS'Drop'
p7528
S'0'
sS'Start'
p7529
S'9'
sS'Won'
p7530
S'6'
sS'Draw'
p7531
S'1'
sS'%'
S'34.21'
p7532
sS'Mat'
p7533
S'19'
p7534
sS'Conv'
p7535
S'0'
sS'Tries'
p7536
S'1'
sS'Pts'
p7537
S'5'
sa(dp7538
S'Pens'
p7539
S'0'
sS'Sub'
p7540
S'5'
sS'Lost'
p7541
S'14'
p7542
sS'Drop'
p7543
S'0'
sS'Start'
p7544
S'17'
p7545
sS'Won'
p7546
S'8'
sS'Draw'
p7547
S'0'
sS'%'
S'36.36'
p7548
sS'Mat'
p7549
S'22'
p7550
sS'Conv'
p7551
S'0'
sS'Tries'
p7552
S'4'
sS'Pts'
p7553
S'20'
p7554
sa(dp7555
S'Pens'
p7556
S'0'
sS'Sub'
p7557
S'0'
sS'Lost'
p7558
S'1'
sS'Drop'
p7559
S'0'
sS'Start'
p7560
S'2'
sS'Won'
p7561
S'1'
sS'Draw'
p7562
S'0'
sS'%'
S'50.00'
p7563
sS'Mat'
p7564
S'2'
sS'Conv'
p7565
S'0'
sS'Tries'
p7566
S'0'
sS'Pts'
p7567
S'0'
sa(dp7568
S'Pens'
p7569
S'0'
sS'Sub'
p7570
S'20'
p7571
sS'Lost'
p7572
S'82'
p7573
sS'Drop'
p7574
S'0'
sS'Start'
p7575
S'92'
p7576
sS'Won'
p7577
S'29'
p7578
sS'Draw'
p7579
S'1'
sS'%'
S'26.33'
p7580
sS'Mat'
p7581
S'112'
p7582
sS'Conv'
p7583
S'0'
sS'Tries'
p7584
S'7'
sS'Pts'
p7585
S'35'
p7586
sa(dp7587
S'Pens'
p7588
S'0'
sS'Sub'
p7589
S'4'
sS'Lost'
p7590
S'7'
sS'Drop'
p7591
S'0'
sS'Start'
p7592
S'4'
sS'Won'
p7593
S'1'
sS'Draw'
p7594
S'0'
sS'%'
S'12.50'
p7595
sS'Mat'
p7596
S'8'
sS'Conv'
p7597
S'0'
sS'Tries'
p7598
S'0'
sS'Pts'
p7599
S'0'
sa(dp7600
S'Pens'
p7601
S'0'
sS'Sub'
p7602
S'0'
sS'Lost'
p7603
S'2'
sS'Drop'
p7604
S'0'
sS'Start'
p7605
S'3'
sS'Won'
p7606
S'1'
sS'Draw'
p7607
S'0'
sS'%'
S'33.33'
p7608
sS'Mat'
p7609
S'3'
sS'Conv'
p7610
S'0'
sS'Tries'
p7611
S'0'
sS'Pts'
p7612
S'0'
sa(dp7613
S'Pens'
p7614
S'0'
sS'Sub'
p7615
S'4'
sS'Lost'
p7616
S'4'
sS'Drop'
p7617
S'0'
sS'Start'
p7618
S'1'
sS'Won'
p7619
S'1'
sS'Draw'
p7620
S'0'
sS'%'
S'20.00'
p7621
sS'Mat'
p7622
S'5'
sS'Conv'
p7623
S'0'
sS'Tries'
p7624
S'1'
sS'Pts'
p7625
S'5'
sa(dp7626
S'Pens'
p7627
S'0'
sS'Sub'
p7628
S'1'
sS'Lost'
p7629
S'2'
sS'Drop'
p7630
S'0'
sS'Start'
p7631
S'2'
sS'Won'
p7632
S'1'
sS'Draw'
p7633
S'0'
sS'%'
S'33.33'
p7634
sS'Mat'
p7635
S'3'
sS'Conv'
p7636
S'0'
sS'Tries'
p7637
S'0'
sS'Pts'
p7638
S'0'
sa(dp7639
S'Pens'
p7640
S'0'
sS'Sub'
p7641
S'5'
sS'Lost'
p7642
S'6'
sS'Drop'
p7643
S'0'
sS'Start'
p7644
S'2'
sS'Won'
p7645
S'1'
sS'Draw'
p7646
S'0'
sS'%'
S'14.28'
p7647
sS'Mat'
p7648
S'7'
sS'Conv'
p7649
S'0'
sS'Tries'
p7650
S'0'
sS'Pts'
p7651
S'0'
sa(dp7652
S'Pens'
p7653
S'0'
sS'Sub'
p7654
S'11'
p7655
sS'Lost'
p7656
S'45'
p7657
sS'Drop'
p7658
S'0'
sS'Start'
p7659
S'53'
p7660
sS'Won'
p7661
S'18'
p7662
sS'Draw'
p7663
S'1'
sS'%'
S'28.90'
p7664
sS'Mat'
p7665
S'64'
p7666
sS'Conv'
p7667
S'0'
sS'Tries'
p7668
S'3'
sS'Pts'
p7669
S'15'
p7670
sa(dp7671
S'Pens'
p7672
S'0'
sS'Sub'
p7673
S'3'
sS'Lost'
p7674
S'13'
p7675
sS'Drop'
p7676
S'0'
sS'Start'
p7677
S'11'
p7678
sS'Won'
p7679
S'1'
sS'Draw'
p7680
S'0'
sS'%'
S'7.14'
p7681
sS'Mat'
p7682
S'14'
p7683
sS'Conv'
p7684
S'0'
sS'Tries'
p7685
S'3'
sS'Pts'
p7686
S'15'
p7687
sa(dp7688
S'Pens'
p7689
S'49'
p7690
sS'Sub'
p7691
S'7'
sS'Lost'
p7692
S'66'
p7693
sS'Drop'
p7694
S'0'
sS'Start'
p7695
S'82'
p7696
sS'Won'
p7697
S'22'
p7698
sS'Draw'
p7699
S'1'
sS'%'
S'25.28'
p7700
sS'Mat'
p7701
S'89'
p7702
sS'Conv'
p7703
S'12'
p7704
sS'Tries'
p7705
S'17'
p7706
sS'Pts'
p7707
S'256'
p7708
sa(dp7709
S'Pens'
p7710
S'22'
p7711
sS'Sub'
p7712
S'8'
sS'Lost'
p7713
S'18'
p7714
sS'Drop'
p7715
S'1'
sS'Start'
p7716
S'15'
p7717
sS'Won'
p7718
S'5'
sS'Draw'
p7719
S'0'
sS'%'
S'21.73'
p7720
sS'Mat'
p7721
S'23'
p7722
sS'Conv'
p7723
S'18'
p7724
sS'Tries'
p7725
S'0'
sS'Pts'
p7726
S'105'
p7727
sa(dp7728
S'Pens'
p7729
S'0'
sS'Sub'
p7730
S'12'
p7731
sS'Lost'
p7732
S'24'
p7733
sS'Drop'
p7734
S'0'
sS'Start'
p7735
S'22'
p7736
sS'Won'
p7737
S'9'
sS'Draw'
p7738
S'1'
sS'%'
S'27.94'
p7739
sS'Mat'
p7740
S'34'
p7741
sS'Conv'
p7742
S'0'
sS'Tries'
p7743
S'0'
sS'Pts'
p7744
S'0'
sa(dp7745
S'Pens'
p7746
S'0'
sS'Sub'
p7747
S'3'
sS'Lost'
p7748
S'7'
sS'Drop'
p7749
S'0'
sS'Start'
p7750
S'7'
sS'Won'
p7751
S'3'
sS'Draw'
p7752
S'0'
sS'%'
S'30.00'
p7753
sS'Mat'
p7754
S'10'
p7755
sS'Conv'
p7756
S'0'
sS'Tries'
p7757
S'0'
sS'Pts'
p7758
S'0'
sa(dp7759
S'Pens'
p7760
S'0'
sS'Sub'
p7761
S'3'
sS'Lost'
p7762
S'85'
p7763
sS'Drop'
p7764
S'1'
sS'Start'
p7765
S'114'
p7766
sS'Won'
p7767
S'31'
p7768
sS'Draw'
p7769
S'1'
sS'%'
S'26.92'
p7770
sS'Mat'
p7771
S'117'
p7772
sS'Conv'
p7773
S'0'
sS'Tries'
p7774
S'14'
p7775
sS'Pts'
p7776
S'73'
p7777
sa(dp7778
S'Pens'
p7779
S'0'
sS'Sub'
p7780
S'5'
sS'Lost'
p7781
S'12'
p7782
sS'Drop'
p7783
S'0'
sS'Start'
p7784
S'10'
p7785
sS'Won'
p7786
S'3'
sS'Draw'
p7787
S'0'
sS'%'
S'20.00'
p7788
sS'Mat'
p7789
S'15'
p7790
sS'Conv'
p7791
S'0'
sS'Tries'
p7792
S'1'
sS'Pts'
p7793
S'5'
sa(dp7794
S'Pens'
p7795
S'0'
sS'Sub'
p7796
S'28'
p7797
sS'Lost'
p7798
S'87'
p7799
sS'Drop'
p7800
S'0'
sS'Start'
p7801
S'90'
p7802
sS'Won'
p7803
S'30'
p7804
sS'Draw'
p7805
S'1'
sS'%'
S'25.84'
p7806
sS'Mat'
p7807
S'118'
p7808
sS'Conv'
p7809
S'0'
sS'Tries'
p7810
S'12'
p7811
sS'Pts'
p7812
S'60'
p7813
sa(dp7814
S'Pens'
p7815
S'0'
sS'Sub'
p7816
S'3'
sS'Lost'
p7817
S'4'
sS'Drop'
p7818
S'0'
sS'Start'
p7819
S'5'
sS'Won'
p7820
S'4'
sS'Draw'
p7821
S'0'
sS'%'
S'50.00'
p7822
sS'Mat'
p7823
S'8'
sS'Conv'
p7824
S'0'
sS'Tries'
p7825
S'0'
sS'Pts'
p7826
S'0'
sa(dp7827
S'Pens'
p7828
S'0'
sS'Sub'
p7829
S'8'
sS'Lost'
p7830
S'11'
p7831
sS'Drop'
p7832
S'0'
sS'Start'
p7833
S'4'
sS'Won'
p7834
S'1'
sS'Draw'
p7835
S'0'
sS'%'
S'8.33'
p7836
sS'Mat'
p7837
S'12'
p7838
sS'Conv'
p7839
S'0'
sS'Tries'
p7840
S'2'
sS'Pts'
p7841
S'10'
p7842
sa(dp7843
S'Pens'
p7844
S'0'
sS'Sub'
p7845
S'1'
sS'Lost'
p7846
S'9'
sS'Drop'
p7847
S'0'
sS'Start'
p7848
S'10'
p7849
sS'Won'
p7850
S'2'
sS'Draw'
p7851
S'0'
sS'%'
S'18.18'
p7852
sS'Mat'
p7853
S'11'
p7854
sS'Conv'
p7855
S'0'
sS'Tries'
p7856
S'0'
sS'Pts'
p7857
S'0'
sa(dp7858
S'Pens'
p7859
S'0'
sS'Sub'
p7860
S'29'
p7861
sS'Lost'
p7862
S'34'
p7863
sS'Drop'
p7864
S'0'
sS'Start'
p7865
S'25'
p7866
sS'Won'
p7867
S'19'
p7868
sS'Draw'
p7869
S'1'
sS'%'
S'36.11'
p7870
sS'Mat'
p7871
S'54'
p7872
sS'Conv'
p7873
S'0'
sS'Tries'
p7874
S'3'
sS'Pts'
p7875
S'15'
p7876
sa(dp7877
S'Pens'
p7878
S'0'
sS'Sub'
p7879
S'10'
p7880
sS'Lost'
p7881
S'58'
p7882
sS'Drop'
p7883
S'0'
sS'Start'
p7884
S'76'
p7885
sS'Won'
p7886
S'27'
p7887
sS'Draw'
p7888
S'1'
sS'%'
S'31.97'
p7889
sS'Mat'
p7890
S'86'
p7891
sS'Conv'
p7892
S'0'
sS'Tries'
p7893
S'7'
sS'Pts'
p7894
S'35'
p7895
sa(dp7896
S'Pens'
p7897
S'0'
sS'Sub'
p7898
S'0'
sS'Lost'
p7899
S'1'
sS'Drop'
p7900
S'0'
sS'Start'
p7901
S'1'
sS'Won'
p7902
S'0'
sS'Draw'
p7903
S'0'
sS'%'
S'0.00'
p7904
sS'Mat'
p7905
S'1'
sS'Conv'
p7906
S'0'
sS'Tries'
p7907
S'0'
sS'Pts'
p7908
S'0'
sa(dp7909
S'Pens'
p7910
S'22'
p7911
sS'Sub'
p7912
S'3'
sS'Lost'
p7913
S'5'
sS'Drop'
p7914
S'1'
sS'Start'
p7915
S'8'
sS'Won'
p7916
S'6'
sS'Draw'
p7917
S'0'
sS'%'
S'54.54'
p7918
sS'Mat'
p7919
S'11'
p7920
sS'Conv'
p7921
S'15'
p7922
sS'Tries'
p7923
S'0'
sS'Pts'
p7924
S'99'
p7925
sa(dp7926
S'Pens'
p7927
S'1'
sS'Sub'
p7928
S'9'
sS'Lost'
p7929
S'28'
p7930
sS'Drop'
p7931
S'1'
sS'Start'
p7932
S'33'
p7933
sS'Won'
p7934
S'13'
p7935
sS'Draw'
p7936
S'1'
sS'%'
S'32.14'
p7937
sS'Mat'
p7938
S'42'
p7939
sS'Conv'
p7940
S'1'
sS'Tries'
p7941
S'1'
sS'Pts'
p7942
S'13'
p7943
sa(dp7944
S'Pens'
p7945
S'12'
p7946
sS'Sub'
p7947
S'2'
sS'Lost'
p7948
S'12'
p7949
sS'Drop'
p7950
S'0'
sS'Start'
p7951
S'17'
p7952
sS'Won'
p7953
S'7'
sS'Draw'
p7954
S'0'
sS'%'
S'36.84'
p7955
sS'Mat'
p7956
S'19'
p7957
sS'Conv'
p7958
S'3'
sS'Tries'
p7959
S'1'
sS'Pts'
p7960
S'47'
p7961
sa(dp7962
S'Pens'
p7963
S'0'
sS'Sub'
p7964
S'12'
p7965
sS'Lost'
p7966
S'8'
sS'Drop'
p7967
S'0'
sS'Start'
p7968
S'2'
sS'Won'
p7969
S'6'
sS'Draw'
p7970
S'0'
sS'%'
S'42.85'
p7971
sS'Mat'
p7972
S'14'
p7973
sS'Conv'
p7974
S'0'
sS'Tries'
p7975
S'0'
sS'Pts'
p7976
S'0'
sa(dp7977
S'Pens'
p7978
S'0'
sS'Sub'
p7979
S'8'
sS'Lost'
p7980
S'6'
sS'Drop'
p7981
S'0'
sS'Start'
p7982
S'1'
sS'Won'
p7983
S'3'
sS'Draw'
p7984
S'0'
sS'%'
S'33.33'
p7985
sS'Mat'
p7986
S'9'
sS'Conv'
p7987
S'0'
sS'Tries'
p7988
S'0'
sS'Pts'
p7989
S'0'
sa(dp7990
S'Pens'
p7991
S'0'
sS'Sub'
p7992
S'14'
p7993
sS'Lost'
p7994
S'16'
p7995
sS'Drop'
p7996
S'0'
sS'Start'
p7997
S'9'
sS'Won'
p7998
S'7'
sS'Draw'
p7999
S'0'
sS'%'
S'30.43'
p8000
sS'Mat'
p8001
S'23'
p8002
sS'Conv'
p8003
S'0'
sS'Tries'
p8004
S'1'
sS'Pts'
p8005
S'5'
sa(dp8006
S'Pens'
p8007
S'0'
sS'Sub'
p8008
S'18'
p8009
sS'Lost'
p8010
S'40'
p8011
sS'Drop'
p8012
S'0'
sS'Start'
p8013
S'36'
p8014
sS'Won'
p8015
S'13'
p8016
sS'Draw'
p8017
S'1'
sS'%'
S'25.00'
p8018
sS'Mat'
p8019
S'54'
p8020
sS'Conv'
p8021
S'0'
sS'Tries'
p8022
S'1'
sS'Pts'
p8023
S'5'
sa(dp8024
S'Pens'
p8025
S'0'
sS'Sub'
p8026
S'3'
sS'Lost'
p8027
S'2'
sS'Drop'
p8028
S'0'
sS'Start'
p8029
S'1'
sS'Won'
p8030
S'2'
sS'Draw'
p8031
S'0'
sS'%'
S'50.00'
p8032
sS'Mat'
p8033
S'4'
sS'Conv'
p8034
S'0'
sS'Tries'
p8035
S'0'
sS'Pts'
p8036
S'0'
sa(dp8037
S'Pens'
p8038
S'0'
sS'Sub'
p8039
S'7'
sS'Lost'
p8040
S'32'
p8041
sS'Drop'
p8042
S'0'
sS'Start'
p8043
S'40'
p8044
sS'Won'
p8045
S'15'
p8046
sS'Draw'
p8047
S'0'
sS'%'
S'31.91'
p8048
sS'Mat'
p8049
S'47'
p8050
sS'Conv'
p8051
S'0'
sS'Tries'
p8052
S'14'
p8053
sS'Pts'
p8054
S'70'
p8055
sa(dp8056
S'Pens'
p8057
S'0'
sS'Sub'
p8058
S'2'
sS'Lost'
p8059
S'1'
sS'Drop'
p8060
S'0'
sS'Start'
p8061
S'0'
sS'Won'
p8062
S'1'
sS'Draw'
p8063
S'0'
sS'%'
S'50.00'
p8064
sS'Mat'
p8065
S'2'
sS'Conv'
p8066
S'0'
sS'Tries'
p8067
S'0'
sS'Pts'
p8068
S'0'
sa(dp8069
S'Pens'
p8070
S'0'
sS'Sub'
p8071
S'7'
sS'Lost'
p8072
S'5'
sS'Drop'
p8073
S'0'
sS'Start'
p8074
S'0'
sS'Won'
p8075
S'2'
sS'Draw'
p8076
S'0'
sS'%'
S'28.57'
p8077
sS'Mat'
p8078
S'7'
sS'Conv'
p8079
S'0'
sS'Tries'
p8080
S'0'
sS'Pts'
p8081
S'0'
sa(dp8082
S'Pens'
p8083
S'0'
sS'Sub'
p8084
S'3'
sS'Lost'
p8085
S'2'
sS'Drop'
p8086
S'0'
sS'Start'
p8087
S'0'
sS'Won'
p8088
S'1'
sS'Draw'
p8089
S'0'
sS'%'
S'33.33'
p8090
sS'Mat'
p8091
S'3'
sS'Conv'
p8092
S'0'
sS'Tries'
p8093
S'0'
sS'Pts'
p8094
S'0'
sa(dp8095
S'Pens'
p8096
S'0'
sS'Sub'
p8097
S'0'
sS'Lost'
p8098
S'12'
p8099
sS'Drop'
p8100
S'0'
sS'Start'
p8101
S'17'
p8102
sS'Won'
p8103
S'4'
sS'Draw'
p8104
S'1'
sS'%'
S'26.47'
p8105
sS'Mat'
p8106
S'17'
p8107
sS'Conv'
p8108
S'0'
sS'Tries'
p8109
S'0'
sS'Pts'
p8110
S'0'
sa(dp8111
S'Pens'
p8112
S'31'
p8113
sS'Sub'
p8114
S'21'
p8115
sS'Lost'
p8116
S'38'
p8117
sS'Drop'
p8118
S'2'
sS'Start'
p8119
S'27'
p8120
sS'Won'
p8121
S'10'
p8122
sS'Draw'
p8123
S'0'
sS'%'
S'20.83'
p8124
sS'Mat'
p8125
S'48'
p8126
sS'Conv'
p8127
S'20'
p8128
sS'Tries'
p8129
S'3'
sS'Pts'
p8130
S'154'
p8131
sa(dp8132
S'Pens'
p8133
S'0'
sS'Sub'
p8134
S'6'
sS'Lost'
p8135
S'7'
sS'Drop'
p8136
S'0'
sS'Start'
p8137
S'3'
sS'Won'
p8138
S'2'
sS'Draw'
p8139
S'0'
sS'%'
S'22.22'
p8140
sS'Mat'
p8141
S'9'
sS'Conv'
p8142
S'0'
sS'Tries'
p8143
S'1'
sS'Pts'
p8144
S'5'
sa(dp8145
S'Pens'
p8146
S'0'
sS'Sub'
p8147
S'4'
sS'Lost'
p8148
S'18'
p8149
sS'Drop'
p8150
S'0'
sS'Start'
p8151
S'20'
p8152
sS'Won'
p8153
S'6'
sS'Draw'
p8154
S'0'
sS'%'
S'25.00'
p8155
sS'Mat'
p8156
S'24'
p8157
sS'Conv'
p8158
S'0'
sS'Tries'
p8159
S'5'
sS'Pts'
p8160
S'25'
p8161
sa(dp8162
S'Pens'
p8163
S'0'
sS'Sub'
p8164
S'20'
p8165
sS'Lost'
p8166
S'20'
p8167
sS'Drop'
p8168
S'0'
sS'Start'
p8169
S'10'
p8170
sS'Won'
p8171
S'10'
p8172
sS'Draw'
p8173
S'0'
sS'%'
S'33.33'
p8174
sS'Mat'
p8175
S'30'
p8176
sS'Conv'
p8177
S'0'
sS'Tries'
p8178
S'0'
sS'Pts'
p8179
S'0'
sa(dp8180
S'Pens'
p8181
S'0'
sS'Sub'
p8182
S'1'
sS'Lost'
p8183
S'1'
sS'Drop'
p8184
S'0'
sS'Start'
p8185
S'2'
sS'Won'
p8186
S'2'
sS'Draw'
p8187
S'0'
sS'%'
S'66.66'
p8188
sS'Mat'
p8189
S'3'
sS'Conv'
p8190
S'0'
sS'Tries'
p8191
S'1'
sS'Pts'
p8192
S'5'
sa(dp8193
S'Pens'
p8194
S'0'
sS'Sub'
p8195
S'10'
p8196
sS'Lost'
p8197
S'35'
p8198
sS'Drop'
p8199
S'0'
sS'Start'
p8200
S'37'
p8201
sS'Won'
p8202
S'11'
p8203
sS'Draw'
p8204
S'1'
sS'%'
S'24.46'
p8205
sS'Mat'
p8206
S'47'
p8207
sS'Conv'
p8208
S'0'
sS'Tries'
p8209
S'3'
sS'Pts'
p8210
S'15'
p8211
sa(dp8212
S'Pens'
p8213
S'0'
sS'Sub'
p8214
S'16'
p8215
sS'Lost'
p8216
S'17'
p8217
sS'Drop'
p8218
S'0'
sS'Start'
p8219
S'7'
sS'Won'
p8220
S'6'
sS'Draw'
p8221
S'0'
sS'%'
S'26.08'
p8222
sS'Mat'
p8223
S'23'
p8224
sS'Conv'
p8225
S'0'
sS'Tries'
p8226
S'0'
sS'Pts'
p8227
S'0'
sa(dp8228
S'Pens'
p8229
S'0'
sS'Sub'
p8230
S'23'
p8231
sS'Lost'
p8232
S'27'
p8233
sS'Drop'
p8234
S'0'
sS'Start'
p8235
S'15'
p8236
sS'Won'
p8237
S'10'
p8238
sS'Draw'
p8239
S'1'
sS'%'
S'27.63'
p8240
sS'Mat'
p8241
S'38'
p8242
sS'Conv'
p8243
S'0'
sS'Tries'
p8244
S'6'
sS'Pts'
p8245
S'30'
p8246
sa(dp8247
S'Pens'
p8248
S'0'
sS'Sub'
p8249
S'12'
p8250
sS'Lost'
p8251
S'17'
p8252
sS'Drop'
p8253
S'0'
sS'Start'
p8254
S'10'
p8255
sS'Won'
p8256
S'5'
sS'Draw'
p8257
S'0'
sS'%'
S'22.72'
p8258
sS'Mat'
p8259
S'22'
p8260
sS'Conv'
p8261
S'0'
sS'Tries'
p8262
S'1'
sS'Pts'
p8263
S'5'
sa(dp8264
S'Pens'
p8265
S'0'
sS'Sub'
p8266
S'22'
p8267
sS'Lost'
p8268
S'30'
p8269
sS'Drop'
p8270
S'0'
sS'Start'
p8271
S'18'
p8272
sS'Won'
p8273
S'10'
p8274
sS'Draw'
p8275
S'0'
sS'%'
S'25.00'
p8276
sS'Mat'
p8277
S'40'
p8278
sS'Conv'
p8279
S'0'
sS'Tries'
p8280
S'1'
sS'Pts'
p8281
S'5'
sa(dp8282
S'Pens'
p8283
S'0'
sS'Sub'
p8284
S'21'
p8285
sS'Lost'
p8286
S'69'
p8287
sS'Drop'
p8288
S'0'
sS'Start'
p8289
S'76'
p8290
sS'Won'
p8291
S'27'
p8292
sS'Draw'
p8293
S'1'
sS'%'
S'28.35'
p8294
sS'Mat'
p8295
S'97'
p8296
sS'Conv'
p8297
S'0'
sS'Tries'
p8298
S'4'
sS'Pts'
p8299
S'20'
p8300
sa(dp8301
S'Pens'
p8302
S'25'
p8303
sS'Sub'
p8304
S'1'
sS'Lost'
p8305
S'8'
sS'Drop'
p8306
S'1'
sS'Start'
p8307
S'15'
p8308
sS'Won'
p8309
S'8'
sS'Draw'
p8310
S'0'
sS'%'
S'50.00'
p8311
sS'Mat'
p8312
S'16'
p8313
sS'Conv'
p8314
S'32'
p8315
sS'Tries'
p8316
S'1'
sS'Pts'
p8317
S'147'
p8318
sa(dp8319
S'Pens'
p8320
S'0'
sS'Sub'
p8321
S'0'
sS'Lost'
p8322
S'0'
sS'Drop'
p8323
S'0'
sS'Start'
p8324
S'1'
sS'Won'
p8325
S'1'
sS'Draw'
p8326
S'0'
sS'%'
S'100.00'
p8327
sS'Mat'
p8328
S'1'
sS'Conv'
p8329
S'0'
sS'Tries'
p8330
S'1'
sS'Pts'
p8331
S'5'
sa(dp8332
S'Pens'
p8333
S'0'
sS'Sub'
p8334
S'9'
sS'Lost'
p8335
S'29'
p8336
sS'Drop'
p8337
S'0'
sS'Start'
p8338
S'30'
p8339
sS'Won'
p8340
S'10'
p8341
sS'Draw'
p8342
S'0'
sS'%'
S'25.64'
p8343
sS'Mat'
p8344
S'39'
p8345
sS'Conv'
p8346
S'0'
sS'Tries'
p8347
S'3'
sS'Pts'
p8348
S'15'
p8349
sa(dp8350
S'Pens'
p8351
S'0'
sS'Sub'
p8352
S'13'
p8353
sS'Lost'
p8354
S'64'
p8355
sS'Drop'
p8356
S'0'
sS'Start'
p8357
S'68'
p8358
sS'Won'
p8359
S'17'
p8360
sS'Draw'
p8361
S'0'
sS'%'
S'20.98'
p8362
sS'Mat'
p8363
S'81'
p8364
sS'Conv'
p8365
S'0'
sS'Tries'
p8366
S'5'
sS'Pts'
p8367
S'25'
p8368
sa(dp8369
S'Pens'
p8370
S'18'
p8371
sS'Sub'
p8372
S'4'
sS'Lost'
p8373
S'12'
p8374
sS'Drop'
p8375
S'3'
sS'Start'
p8376
S'12'
p8377
sS'Won'
p8378
S'4'
sS'Draw'
p8379
S'0'
sS'%'
S'25.00'
p8380
sS'Mat'
p8381
S'16'
p8382
sS'Conv'
p8383
S'9'
sS'Tries'
p8384
S'0'
sS'Pts'
p8385
S'81'
p8386
sa(dp8387
S'Pens'
p8388
S'0'
sS'Sub'
p8389
S'1'
sS'Lost'
p8390
S'2'
sS'Drop'
p8391
S'0'
sS'Start'
p8392
S'2'
sS'Won'
p8393
S'1'
sS'Draw'
p8394
S'0'
sS'%'
S'33.33'
p8395
sS'Mat'
p8396
S'3'
sS'Conv'
p8397
S'0'
sS'Tries'
p8398
S'1'
sS'Pts'
p8399
S'5'
sa(dp8400
S'Pens'
p8401
S'0'
sS'Sub'
p8402
S'8'
sS'Lost'
p8403
S'8'
sS'Drop'
p8404
S'0'
sS'Start'
p8405
S'3'
sS'Won'
p8406
S'3'
sS'Draw'
p8407
S'0'
sS'%'
S'27.27'
p8408
sS'Mat'
p8409
S'11'
p8410
sS'Conv'
p8411
S'0'
sS'Tries'
p8412
S'0'
sS'Pts'
p8413
S'0'
sa(dp8414
S'Pens'
p8415
S'0'
sS'Sub'
p8416
S'0'
sS'Lost'
p8417
S'3'
sS'Drop'
p8418
S'0'
sS'Start'
p8419
S'7'
sS'Won'
p8420
S'4'
sS'Draw'
p8421
S'0'
sS'%'
S'57.14'
p8422
sS'Mat'
p8423
S'7'
sS'Conv'
p8424
S'0'
sS'Tries'
p8425
S'9'
sS'Pts'
p8426
S'45'
p8427
sa(dp8428
S'Pens'
p8429
S'0'
sS'Sub'
p8430
S'0'
sS'Lost'
p8431
S'0'
sS'Drop'
p8432
S'0'
sS'Start'
p8433
S'1'
sS'Won'
p8434
S'1'
sS'Draw'
p8435
S'0'
sS'%'
S'100.00'
p8436
sS'Mat'
p8437
S'1'
sS'Conv'
p8438
S'0'
sS'Tries'
p8439
S'0'
sS'Pts'
p8440
S'0'
sa(dp8441
S'Pens'
p8442
S'17'
p8443
sS'Sub'
p8444
S'8'
sS'Lost'
p8445
S'14'
p8446
sS'Drop'
p8447
S'3'
sS'Start'
p8448
S'13'
p8449
sS'Won'
p8450
S'7'
sS'Draw'
p8451
S'0'
sS'%'
S'33.33'
p8452
sS'Mat'
p8453
S'21'
p8454
sS'Conv'
p8455
S'11'
p8456
sS'Tries'
p8457
S'1'
sS'Pts'
p8458
S'87'
p8459
sa(dp8460
S'Pens'
p8461
S'0'
sS'Sub'
p8462
S'3'
sS'Lost'
p8463
S'2'
sS'Drop'
p8464
S'0'
sS'Start'
p8465
S'1'
sS'Won'
p8466
S'2'
sS'Draw'
p8467
S'0'
sS'%'
S'50.00'
p8468
sS'Mat'
p8469
S'4'
sS'Conv'
p8470
S'0'
sS'Tries'
p8471
S'0'
sS'Pts'
p8472
S'0'
sa(dp8473
S'Pens'
p8474
S'0'
sS'Sub'
p8475
S'1'
sS'Lost'
p8476
S'1'
sS'Drop'
p8477
S'0'
sS'Start'
p8478
S'1'
sS'Won'
p8479
S'1'
sS'Draw'
p8480
S'0'
sS'%'
S'50.00'
p8481
sS'Mat'
p8482
S'2'
sS'Conv'
p8483
S'0'
sS'Tries'
p8484
S'0'
sS'Pts'
p8485
S'0'
sa(dp8486
S'Pens'
p8487
S'0'
sS'Sub'
p8488
S'13'
p8489
sS'Lost'
p8490
S'12'
p8491
sS'Drop'
p8492
S'0'
sS'Start'
p8493
S'4'
sS'Won'
p8494
S'5'
sS'Draw'
p8495
S'0'
sS'%'
S'29.41'
p8496
sS'Mat'
p8497
S'17'
p8498
sS'Conv'
p8499
S'0'
sS'Tries'
p8500
S'1'
sS'Pts'
p8501
S'5'
sa(dp8502
S'Pens'
p8503
S'0'
sS'Sub'
p8504
S'28'
p8505
sS'Lost'
p8506
S'36'
p8507
sS'Drop'
p8508
S'0'
sS'Start'
p8509
S'19'
p8510
sS'Won'
p8511
S'11'
p8512
sS'Draw'
p8513
S'0'
sS'%'
S'23.40'
p8514
sS'Mat'
p8515
S'47'
p8516
sS'Conv'
p8517
S'0'
sS'Tries'
p8518
S'2'
sS'Pts'
p8519
S'10'
p8520
sa(dp8521
S'Pens'
p8522
S'0'
sS'Sub'
p8523
S'6'
sS'Lost'
p8524
S'8'
sS'Drop'
p8525
S'0'
sS'Start'
p8526
S'3'
sS'Won'
p8527
S'1'
sS'Draw'
p8528
S'0'
sS'%'
S'11.11'
p8529
sS'Mat'
p8530
S'9'
sS'Conv'
p8531
S'0'
sS'Tries'
p8532
S'0'
sS'Pts'
p8533
S'0'
sa(dp8534
S'Pens'
p8535
S'0'
sS'Sub'
p8536
S'4'
sS'Lost'
p8537
S'22'
p8538
sS'Drop'
p8539
S'0'
sS'Start'
p8540
S'25'
p8541
sS'Won'
p8542
S'7'
sS'Draw'
p8543
S'0'
sS'%'
S'24.13'
p8544
sS'Mat'
p8545
S'29'
p8546
sS'Conv'
p8547
S'0'
sS'Tries'
p8548
S'2'
sS'Pts'
p8549
S'10'
p8550
sa(dp8551
S'Pens'
p8552
S'0'
sS'Sub'
p8553
S'1'
sS'Lost'
p8554
S'1'
sS'Drop'
p8555
S'0'
sS'Start'
p8556
S'0'
sS'Won'
p8557
S'0'
sS'Draw'
p8558
S'0'
sS'%'
S'0.00'
p8559
sS'Mat'
p8560
S'1'
sS'Conv'
p8561
S'0'
sS'Tries'
p8562
S'0'
sS'Pts'
p8563
S'0'
sa(dp8564
S'Pens'
p8565
S'0'
sS'Sub'
p8566
S'3'
sS'Lost'
p8567
S'2'
sS'Drop'
p8568
S'0'
sS'Start'
p8569
S'0'
sS'Won'
p8570
S'1'
sS'Draw'
p8571
S'0'
sS'%'
S'33.33'
p8572
sS'Mat'
p8573
S'3'
sS'Conv'
p8574
S'0'
sS'Tries'
p8575
S'0'
sS'Pts'
p8576
S'0'
sa(dp8577
S'Pens'
p8578
S'2'
sS'Sub'
p8579
S'4'
sS'Lost'
p8580
S'35'
p8581
sS'Drop'
p8582
S'0'
sS'Start'
p8583
S'38'
p8584
sS'Won'
p8585
S'7'
sS'Draw'
p8586
S'0'
sS'%'
S'16.66'
p8587
sS'Mat'
p8588
S'42'
p8589
sS'Conv'
p8590
S'0'
sS'Tries'
p8591
S'2'
sS'Pts'
p8592
S'16'
p8593
sa(dp8594
S'Pens'
p8595
S'13'
p8596
sS'Sub'
p8597
S'12'
p8598
sS'Lost'
p8599
S'61'
p8600
sS'Drop'
p8601
S'0'
sS'Start'
p8602
S'65'
p8603
sS'Won'
p8604
S'16'
p8605
sS'Draw'
p8606
S'0'
sS'%'
S'20.77'
p8607
sS'Mat'
p8608
S'77'
p8609
sS'Conv'
p8610
S'0'
sS'Tries'
p8611
S'7'
sS'Pts'
p8612
S'74'
p8613
sa(dp8614
S'Pens'
p8615
S'0'
sS'Sub'
p8616
S'5'
sS'Lost'
p8617
S'5'
sS'Drop'
p8618
S'0'
sS'Start'
p8619
S'2'
sS'Won'
p8620
S'2'
sS'Draw'
p8621
S'0'
sS'%'
S'28.57'
p8622
sS'Mat'
p8623
S'7'
sS'Conv'
p8624
S'0'
sS'Tries'
p8625
S'0'
sS'Pts'
p8626
S'0'
sa(dp8627
S'Pens'
p8628
S'0'
sS'Sub'
p8629
S'1'
sS'Lost'
p8630
S'1'
sS'Drop'
p8631
S'0'
sS'Start'
p8632
S'0'
sS'Won'
p8633
S'0'
sS'Draw'
p8634
S'0'
sS'%'
S'0.00'
p8635
sS'Mat'
p8636
S'1'
sS'Conv'
p8637
S'0'
sS'Tries'
p8638
S'0'
sS'Pts'
p8639
S'0'
sa(dp8640
S'Pens'
p8641
S'0'
sS'Sub'
p8642
S'12'
p8643
sS'Lost'
p8644
S'9'
sS'Drop'
p8645
S'0'
sS'Start'
p8646
S'3'
sS'Won'
p8647
S'6'
sS'Draw'
p8648
S'0'
sS'%'
S'40.00'
p8649
sS'Mat'
p8650
S'15'
p8651
sS'Conv'
p8652
S'0'
sS'Tries'
p8653
S'2'
sS'Pts'
p8654
S'10'
p8655
sa(dp8656
S'Pens'
p8657
S'0'
sS'Sub'
p8658
S'1'
sS'Lost'
p8659
S'2'
sS'Drop'
p8660
S'0'
sS'Start'
p8661
S'1'
sS'Won'
p8662
S'0'
sS'Draw'
p8663
S'0'
sS'%'
S'0.00'
p8664
sS'Mat'
p8665
S'2'
sS'Conv'
p8666
S'0'
sS'Tries'
p8667
S'0'
sS'Pts'
p8668
S'0'
sa(dp8669
S'Pens'
p8670
S'0'
sS'Sub'
p8671
S'2'
sS'Lost'
p8672
S'2'
sS'Drop'
p8673
S'0'
sS'Start'
p8674
S'0'
sS'Won'
p8675
S'0'
sS'Draw'
p8676
S'0'
sS'%'
S'0.00'
p8677
sS'Mat'
p8678
S'2'
sS'Conv'
p8679
S'0'
sS'Tries'
p8680
S'0'
sS'Pts'
p8681
S'0'
sa(dp8682
S'Pens'
p8683
S'0'
sS'Sub'
p8684
S'1'
sS'Lost'
p8685
S'4'
sS'Drop'
p8686
S'0'
sS'Start'
p8687
S'3'
sS'Won'
p8688
S'0'
sS'Draw'
p8689
S'0'
sS'%'
S'0.00'
p8690
sS'Mat'
p8691
S'4'
sS'Conv'
p8692
S'0'
sS'Tries'
p8693
S'0'
sS'Pts'
p8694
S'0'
sa(dp8695
S'Pens'
p8696
S'0'
sS'Sub'
p8697
S'4'
sS'Lost'
p8698
S'5'
sS'Drop'
p8699
S'0'
sS'Start'
p8700
S'1'
sS'Won'
p8701
S'0'
sS'Draw'
p8702
S'0'
sS'%'
S'0.00'
p8703
sS'Mat'
p8704
S'5'
sS'Conv'
p8705
S'0'
sS'Tries'
p8706
S'0'
sS'Pts'
p8707
S'0'
sa(dp8708
S'Pens'
p8709
S'0'
sS'Sub'
p8710
S'3'
sS'Lost'
p8711
S'4'
sS'Drop'
p8712
S'0'
sS'Start'
p8713
S'2'
sS'Won'
p8714
S'1'
sS'Draw'
p8715
S'0'
sS'%'
S'20.00'
p8716
sS'Mat'
p8717
S'5'
sS'Conv'
p8718
S'0'
sS'Tries'
p8719
S'0'
sS'Pts'
p8720
S'0'
sa(dp8721
S'Pens'
p8722
S'0'
sS'Sub'
p8723
S'9'
sS'Lost'
p8724
S'46'
p8725
sS'Drop'
p8726
S'0'
sS'Start'
p8727
S'52'
p8728
sS'Won'
p8729
S'15'
p8730
sS'Draw'
p8731
S'0'
sS'%'
S'24.59'
p8732
sS'Mat'
p8733
S'61'
p8734
sS'Conv'
p8735
S'0'
sS'Tries'
p8736
S'0'
sS'Pts'
p8737
S'0'
sa(dp8738
S'Pens'
p8739
S'5'
sS'Sub'
p8740
S'0'
sS'Lost'
p8741
S'12'
p8742
sS'Drop'
p8743
S'0'
sS'Start'
p8744
S'14'
p8745
sS'Won'
p8746
S'2'
sS'Draw'
p8747
S'0'
sS'%'
S'14.28'
p8748
sS'Mat'
p8749
S'14'
p8750
sS'Conv'
p8751
S'1'
sS'Tries'
p8752
S'0'
sS'Pts'
p8753
S'17'
p8754
sa(dp8755
S'Pens'
p8756
S'0'
sS'Sub'
p8757
S'18'
p8758
sS'Lost'
p8759
S'17'
p8760
sS'Drop'
p8761
S'0'
sS'Start'
p8762
S'6'
sS'Won'
p8763
S'7'
sS'Draw'
p8764
S'0'
sS'%'
S'29.16'
p8765
sS'Mat'
p8766
S'24'
p8767
sS'Conv'
p8768
S'0'
sS'Tries'
p8769
S'0'
sS'Pts'
p8770
S'0'
sa(dp8771
S'Pens'
p8772
S'0'
sS'Sub'
p8773
S'5'
sS'Lost'
p8774
S'16'
p8775
sS'Drop'
p8776
S'1'
sS'Start'
p8777
S'15'
p8778
sS'Won'
p8779
S'4'
sS'Draw'
p8780
S'0'
sS'%'
S'20.00'
p8781
sS'Mat'
p8782
S'20'
p8783
sS'Conv'
p8784
S'0'
sS'Tries'
p8785
S'0'
sS'Pts'
p8786
S'3'
sa(dp8787
S'Pens'
p8788
S'0'
sS'Sub'
p8789
S'12'
p8790
sS'Lost'
p8791
S'17'
p8792
sS'Drop'
p8793
S'0'
sS'Start'
p8794
S'15'
p8795
sS'Won'
p8796
S'10'
p8797
sS'Draw'
p8798
S'0'
sS'%'
S'37.03'
p8799
sS'Mat'
p8800
S'27'
p8801
sS'Conv'
p8802
S'0'
sS'Tries'
p8803
S'1'
sS'Pts'
p8804
S'5'
sa(dp8805
S'Pens'
p8806
S'3'
sS'Sub'
p8807
S'11'
p8808
sS'Lost'
p8809
S'9'
sS'Drop'
p8810
S'0'
sS'Start'
p8811
S'3'
sS'Won'
p8812
S'5'
sS'Draw'
p8813
S'0'
sS'%'
S'35.71'
p8814
sS'Mat'
p8815
S'14'
p8816
sS'Conv'
p8817
S'10'
p8818
sS'Tries'
p8819
S'0'
sS'Pts'
p8820
S'29'
p8821
sa(dp8822
S'Pens'
p8823
S'0'
sS'Sub'
p8824
S'7'
sS'Lost'
p8825
S'21'
p8826
sS'Drop'
p8827
S'0'
sS'Start'
p8828
S'27'
p8829
sS'Won'
p8830
S'13'
p8831
sS'Draw'
p8832
S'0'
sS'%'
S'38.23'
p8833
sS'Mat'
p8834
S'34'
p8835
sS'Conv'
p8836
S'0'
sS'Tries'
p8837
S'4'
sS'Pts'
p8838
S'20'
p8839
sa(dp8840
S'Pens'
p8841
S'0'
sS'Sub'
p8842
S'10'
p8843
sS'Lost'
p8844
S'35'
p8845
sS'Drop'
p8846
S'0'
sS'Start'
p8847
S'40'
p8848
sS'Won'
p8849
S'15'
p8850
sS'Draw'
p8851
S'0'
sS'%'
S'30.00'
p8852
sS'Mat'
p8853
S'50'
p8854
sS'Conv'
p8855
S'0'
sS'Tries'
p8856
S'5'
sS'Pts'
p8857
S'25'
p8858
sa(dp8859
S'Pens'
p8860
S'0'
sS'Sub'
p8861
S'3'
sS'Lost'
p8862
S'10'
p8863
sS'Drop'
p8864
S'0'
sS'Start'
p8865
S'9'
sS'Won'
p8866
S'2'
sS'Draw'
p8867
S'0'
sS'%'
S'16.66'
p8868
sS'Mat'
p8869
S'12'
p8870
sS'Conv'
p8871
S'0'
sS'Tries'
p8872
S'1'
sS'Pts'
p8873
S'5'
sa(dp8874
S'Pens'
p8875
S'0'
sS'Sub'
p8876
S'9'
sS'Lost'
p8877
S'5'
sS'Drop'
p8878
S'0'
sS'Start'
p8879
S'1'
sS'Won'
p8880
S'5'
sS'Draw'
p8881
S'0'
sS'%'
S'50.00'
p8882
sS'Mat'
p8883
S'10'
p8884
sS'Conv'
p8885
S'0'
sS'Tries'
p8886
S'1'
sS'Pts'
p8887
S'5'
sa(dp8888
S'Pens'
p8889
S'0'
sS'Sub'
p8890
S'2'
sS'Lost'
p8891
S'5'
sS'Drop'
p8892
S'0'
sS'Start'
p8893
S'6'
sS'Won'
p8894
S'3'
sS'Draw'
p8895
S'0'
sS'%'
S'37.50'
p8896
sS'Mat'
p8897
S'8'
sS'Conv'
p8898
S'0'
sS'Tries'
p8899
S'0'
sS'Pts'
p8900
S'0'
sa(dp8901
S'Pens'
p8902
S'0'
sS'Sub'
p8903
S'9'
sS'Lost'
p8904
S'26'
p8905
sS'Drop'
p8906
S'0'
sS'Start'
p8907
S'27'
p8908
sS'Won'
p8909
S'10'
p8910
sS'Draw'
p8911
S'0'
sS'%'
S'27.77'
p8912
sS'Mat'
p8913
S'36'
p8914
sS'Conv'
p8915
S'0'
sS'Tries'
p8916
S'2'
sS'Pts'
p8917
S'10'
p8918
sa(dp8919
S'Pens'
p8920
S'0'
sS'Sub'
p8921
S'1'
sS'Lost'
p8922
S'24'
p8923
sS'Drop'
p8924
S'0'
sS'Start'
p8925
S'32'
p8926
sS'Won'
p8927
S'9'
sS'Draw'
p8928
S'0'
sS'%'
S'27.27'
p8929
sS'Mat'
p8930
S'33'
p8931
sS'Conv'
p8932
S'0'
sS'Tries'
p8933
S'6'
sS'Pts'
p8934
S'30'
p8935
sa(dp8936
S'Pens'
p8937
S'2'
sS'Sub'
p8938
S'17'
p8939
sS'Lost'
p8940
S'17'
p8941
sS'Drop'
p8942
S'0'
sS'Start'
p8943
S'5'
sS'Won'
p8944
S'5'
sS'Draw'
p8945
S'0'
sS'%'
S'22.72'
p8946
sS'Mat'
p8947
S'22'
p8948
sS'Conv'
p8949
S'1'
sS'Tries'
p8950
S'0'
sS'Pts'
p8951
S'8'
sa(dp8952
S'Pens'
p8953
S'0'
sS'Sub'
p8954
S'1'
sS'Lost'
p8955
S'12'
p8956
sS'Drop'
p8957
S'0'
sS'Start'
p8958
S'15'
p8959
sS'Won'
p8960
S'4'
sS'Draw'
p8961
S'0'
sS'%'
S'25.00'
p8962
sS'Mat'
p8963
S'16'
p8964
sS'Conv'
p8965
S'0'
sS'Tries'
p8966
S'2'
sS'Pts'
p8967
S'10'
p8968
sa(dp8969
S'Pens'
p8970
S'0'
sS'Sub'
p8971
S'18'
p8972
sS'Lost'
p8973
S'22'
p8974
sS'Drop'
p8975
S'0'
sS'Start'
p8976
S'11'
p8977
sS'Won'
p8978
S'7'
sS'Draw'
p8979
S'0'
sS'%'
S'24.13'
p8980
sS'Mat'
p8981
S'29'
p8982
sS'Conv'
p8983
S'0'
sS'Tries'
p8984
S'0'
sS'Pts'
p8985
S'0'
sa(dp8986
S'Pens'
p8987
S'0'
sS'Sub'
p8988
S'24'
p8989
sS'Lost'
p8990
S'20'
p8991
sS'Drop'
p8992
S'0'
sS'Start'
p8993
S'3'
sS'Won'
p8994
S'7'
sS'Draw'
p8995
S'0'
sS'%'
S'25.92'
p8996
sS'Mat'
p8997
S'27'
p8998
sS'Conv'
p8999
S'0'
sS'Tries'
p9000
S'0'
sS'Pts'
p9001
S'0'
sa(dp9002
S'Pens'
p9003
S'0'
sS'Sub'
p9004
S'2'
sS'Lost'
p9005
S'1'
sS'Drop'
p9006
S'0'
sS'Start'
p9007
S'0'
sS'Won'
p9008
S'1'
sS'Draw'
p9009
S'0'
sS'%'
S'50.00'
p9010
sS'Mat'
p9011
S'2'
sS'Conv'
p9012
S'0'
sS'Tries'
p9013
S'0'
sS'Pts'
p9014
S'0'
sa(dp9015
S'Pens'
p9016
S'0'
sS'Sub'
p9017
S'0'
sS'Lost'
p9018
S'0'
sS'Drop'
p9019
S'0'
sS'Start'
p9020
S'1'
sS'Won'
p9021
S'1'
sS'Draw'
p9022
S'0'
sS'%'
S'100.00'
p9023
sS'Mat'
p9024
S'1'
sS'Conv'
p9025
S'0'
sS'Tries'
p9026
S'0'
sS'Pts'
p9027
S'0'
sa(dp9028
S'Pens'
p9029
S'0'
sS'Sub'
p9030
S'2'
sS'Lost'
p9031
S'2'
sS'Drop'
p9032
S'0'
sS'Start'
p9033
S'1'
sS'Won'
p9034
S'1'
sS'Draw'
p9035
S'0'
sS'%'
S'33.33'
p9036
sS'Mat'
p9037
S'3'
sS'Conv'
p9038
S'0'
sS'Tries'
p9039
S'0'
sS'Pts'
p9040
S'0'
sa(dp9041
S'Pens'
p9042
S'0'
sS'Sub'
p9043
S'5'
sS'Lost'
p9044
S'6'
sS'Drop'
p9045
S'0'
sS'Start'
p9046
S'4'
sS'Won'
p9047
S'3'
sS'Draw'
p9048
S'0'
sS'%'
S'33.33'
p9049
sS'Mat'
p9050
S'9'
sS'Conv'
p9051
S'0'
sS'Tries'
p9052
S'1'
sS'Pts'
p9053
S'5'
sa(dp9054
S'Pens'
p9055
S'0'
sS'Sub'
p9056
S'5'
sS'Lost'
p9057
S'8'
sS'Drop'
p9058
S'0'
sS'Start'
p9059
S'5'
sS'Won'
p9060
S'2'
sS'Draw'
p9061
S'0'
sS'%'
S'20.00'
p9062
sS'Mat'
p9063
S'10'
p9064
sS'Conv'
p9065
S'0'
sS'Tries'
p9066
S'1'
sS'Pts'
p9067
S'5'
sa(dp9068
S'Pens'
p9069
S'0'
sS'Sub'
p9070
S'5'
sS'Lost'
p9071
S'21'
p9072
sS'Drop'
p9073
S'0'
sS'Start'
p9074
S'21'
p9075
sS'Won'
p9076
S'5'
sS'Draw'
p9077
S'0'
sS'%'
S'19.23'
p9078
sS'Mat'
p9079
S'26'
p9080
sS'Conv'
p9081
S'0'
sS'Tries'
p9082
S'0'
sS'Pts'
p9083
S'0'
sa(dp9084
S'Pens'
p9085
S'7'
sS'Sub'
p9086
S'1'
sS'Lost'
p9087
S'4'
sS'Drop'
p9088
S'0'
sS'Start'
p9089
S'3'
sS'Won'
p9090
S'0'
sS'Draw'
p9091
S'0'
sS'%'
S'0.00'
p9092
sS'Mat'
p9093
S'4'
sS'Conv'
p9094
S'5'
sS'Tries'
p9095
S'0'
sS'Pts'
p9096
S'31'
p9097
sa(dp9098
S'Pens'
p9099
S'0'
sS'Sub'
p9100
S'14'
p9101
sS'Lost'
p9102
S'13'
p9103
sS'Drop'
p9104
S'0'
sS'Start'
p9105
S'2'
sS'Won'
p9106
S'3'
sS'Draw'
p9107
S'0'
sS'%'
S'18.75'
p9108
sS'Mat'
p9109
S'16'
p9110
sS'Conv'
p9111
S'0'
sS'Tries'
p9112
S'0'
sS'Pts'
p9113
S'0'
sa(dp9114
S'Pens'
p9115
S'0'
sS'Sub'
p9116
S'0'
sS'Lost'
p9117
S'1'
sS'Drop'
p9118
S'0'
sS'Start'
p9119
S'1'
sS'Won'
p9120
S'0'
sS'Draw'
p9121
S'0'
sS'%'
S'0.00'
p9122
sS'Mat'
p9123
S'1'
sS'Conv'
p9124
S'0'
sS'Tries'
p9125
S'0'
sS'Pts'
p9126
S'0'
sa(dp9127
S'Pens'
p9128
S'0'
sS'Sub'
p9129
S'0'
sS'Lost'
p9130
S'23'
p9131
sS'Drop'
p9132
S'0'
sS'Start'
p9133
S'26'
p9134
sS'Won'
p9135
S'3'
sS'Draw'
p9136
S'0'
sS'%'
S'11.53'
p9137
sS'Mat'
p9138
S'26'
p9139
sS'Conv'
p9140
S'0'
sS'Tries'
p9141
S'6'
sS'Pts'
p9142
S'30'
p9143
sa(dp9144
S'Pens'
p9145
S'0'
sS'Sub'
p9146
S'1'
sS'Lost'
p9147
S'1'
sS'Drop'
p9148
S'0'
sS'Start'
p9149
S'0'
sS'Won'
p9150
S'0'
sS'Draw'
p9151
S'0'
sS'%'
S'0.00'
p9152
sS'Mat'
p9153
S'1'
sS'Conv'
p9154
S'0'
sS'Tries'
p9155
S'0'
sS'Pts'
p9156
S'0'
sa(dp9157
S'Pens'
p9158
S'21'
p9159
sS'Sub'
p9160
S'8'
sS'Lost'
p9161
S'17'
p9162
sS'Drop'
p9163
S'0'
sS'Start'
p9164
S'13'
p9165
sS'Won'
p9166
S'4'
sS'Draw'
p9167
S'0'
sS'%'
S'19.04'
p9168
sS'Mat'
p9169
S'21'
p9170
sS'Conv'
p9171
S'13'
p9172
sS'Tries'
p9173
S'3'
sS'Pts'
p9174
S'104'
p9175
sa(dp9176
S'Pens'
p9177
S'0'
sS'Sub'
p9178
S'2'
sS'Lost'
p9179
S'17'
p9180
sS'Drop'
p9181
S'0'
sS'Start'
p9182
S'19'
p9183
sS'Won'
p9184
S'4'
sS'Draw'
p9185
S'0'
sS'%'
S'19.04'
p9186
sS'Mat'
p9187
S'21'
p9188
sS'Conv'
p9189
S'0'
sS'Tries'
p9190
S'4'
sS'Pts'
p9191
S'20'
p9192
sa(dp9193
S'Pens'
p9194
S'0'
sS'Sub'
p9195
S'0'
sS'Lost'
p9196
S'6'
sS'Drop'
p9197
S'0'
sS'Start'
p9198
S'6'
sS'Won'
p9199
S'0'
sS'Draw'
p9200
S'0'
sS'%'
S'0.00'
p9201
sS'Mat'
p9202
S'6'
sS'Conv'
p9203
S'0'
sS'Tries'
p9204
S'0'
sS'Pts'
p9205
S'0'
sa(dp9206
S'Pens'
p9207
S'0'
sS'Sub'
p9208
S'2'
sS'Lost'
p9209
S'9'
sS'Drop'
p9210
S'0'
sS'Start'
p9211
S'8'
sS'Won'
p9212
S'1'
sS'Draw'
p9213
S'0'
sS'%'
S'10.00'
p9214
sS'Mat'
p9215
S'10'
p9216
sS'Conv'
p9217
S'0'
sS'Tries'
p9218
S'0'
sS'Pts'
p9219
S'0'
sa(dp9220
S'Pens'
p9221
S'0'
sS'Sub'
p9222
S'15'
p9223
sS'Lost'
p9224
S'16'
p9225
sS'Drop'
p9226
S'0'
sS'Start'
p9227
S'3'
sS'Won'
p9228
S'2'
sS'Draw'
p9229
S'0'
sS'%'
S'11.11'
p9230
sS'Mat'
p9231
S'18'
p9232
sS'Conv'
p9233
S'0'
sS'Tries'
p9234
S'1'
sS'Pts'
p9235
S'5'
sa(dp9236
S'Pens'
p9237
S'0'
sS'Sub'
p9238
S'2'
sS'Lost'
p9239
S'2'
sS'Drop'
p9240
S'0'
sS'Start'
p9241
S'0'
sS'Won'
p9242
S'0'
sS'Draw'
p9243
S'0'
sS'%'
S'0.00'
p9244
sS'Mat'
p9245
S'2'
sS'Conv'
p9246
S'0'
sS'Tries'
p9247
S'0'
sS'Pts'
p9248
S'0'
sa(dp9249
S'Pens'
p9250
S'0'
sS'Sub'
p9251
S'10'
p9252
sS'Lost'
p9253
S'10'
p9254
sS'Drop'
p9255
S'0'
sS'Start'
p9256
S'3'
sS'Won'
p9257
S'3'
sS'Draw'
p9258
S'0'
sS'%'
S'23.07'
p9259
sS'Mat'
p9260
S'13'
p9261
sS'Conv'
p9262
S'0'
sS'Tries'
p9263
S'0'
sS'Pts'
p9264
S'0'
sa(dp9265
S'Pens'
p9266
S'17'
p9267
sS'Sub'
p9268
S'1'
sS'Lost'
p9269
S'7'
sS'Drop'
p9270
S'0'
sS'Start'
p9271
S'8'
sS'Won'
p9272
S'2'
sS'Draw'
p9273
S'0'
sS'%'
S'22.22'
p9274
sS'Mat'
p9275
S'9'
sS'Conv'
p9276
S'4'
sS'Tries'
p9277
S'0'
sS'Pts'
p9278
S'59'
p9279
sa(dp9280
S'Pens'
p9281
S'0'
sS'Sub'
p9282
S'4'
sS'Lost'
p9283
S'8'
sS'Drop'
p9284
S'0'
sS'Start'
p9285
S'7'
sS'Won'
p9286
S'3'
sS'Draw'
p9287
S'0'
sS'%'
S'27.27'
p9288
sS'Mat'
p9289
S'11'
p9290
sS'Conv'
p9291
S'0'
sS'Tries'
p9292
S'0'
sS'Pts'
p9293
S'0'
sa(dp9294
S'Pens'
p9295
S'0'
sS'Sub'
p9296
S'2'
sS'Lost'
p9297
S'2'
sS'Drop'
p9298
S'0'
sS'Start'
p9299
S'0'
sS'Won'
p9300
S'0'
sS'Draw'
p9301
S'0'
sS'%'
S'0.00'
p9302
sS'Mat'
p9303
S'2'
sS'Conv'
p9304
S'0'
sS'Tries'
p9305
S'0'
sS'Pts'
p9306
S'0'
sa(dp9307
S'Pens'
p9308
S'0'
sS'Sub'
p9309
S'2'
sS'Lost'
p9310
S'1'
sS'Drop'
p9311
S'0'
sS'Start'
p9312
S'0'
sS'Won'
p9313
S'1'
sS'Draw'
p9314
S'0'
sS'%'
S'50.00'
p9315
sS'Mat'
p9316
S'2'
sS'Conv'
p9317
S'0'
sS'Tries'
p9318
S'0'
sS'Pts'
p9319
S'0'
sa(dp9320
S'Pens'
p9321
S'0'
sS'Sub'
p9322
S'4'
sS'Lost'
p9323
S'3'
sS'Drop'
p9324
S'0'
sS'Start'
p9325
S'1'
sS'Won'
p9326
S'2'
sS'Draw'
p9327
S'0'
sS'%'
S'40.00'
p9328
sS'Mat'
p9329
S'5'
sS'Conv'
p9330
S'0'
sS'Tries'
p9331
S'0'
sS'Pts'
p9332
S'0'
sa(dp9333
S'Pens'
p9334
S'0'
sS'Sub'
p9335
S'0'
sS'Lost'
p9336
S'0'
sS'Drop'
p9337
S'0'
sS'Start'
p9338
S'1'
sS'Won'
p9339
S'1'
sS'Draw'
p9340
S'0'
sS'%'
S'100.00'
p9341
sS'Mat'
p9342
S'1'
sS'Conv'
p9343
S'0'
sS'Tries'
p9344
S'0'
sS'Pts'
p9345
S'0'
sa(dp9346
S'Pens'
p9347
S'4'
sS'Sub'
p9348
S'7'
sS'Lost'
p9349
S'7'
sS'Drop'
p9350
S'2'
sS'Start'
p9351
S'2'
sS'Won'
p9352
S'2'
sS'Draw'
p9353
S'0'
sS'%'
S'22.22'
p9354
sS'Mat'
p9355
S'9'
sS'Conv'
p9356
S'1'
sS'Tries'
p9357
S'1'
sS'Pts'
p9358
S'25'
p9359
sa(dp9360
S'Pens'
p9361
S'0'
sS'Sub'
p9362
S'2'
sS'Lost'
p9363
S'2'
sS'Drop'
p9364
S'0'
sS'Start'
p9365
S'0'
sS'Won'
p9366
S'0'
sS'Draw'
p9367
S'0'
sS'%'
S'0.00'
p9368
sS'Mat'
p9369
S'2'
sS'Conv'
p9370
S'0'
sS'Tries'
p9371
S'0'
sS'Pts'
p9372
S'0'
sa(dp9373
S'Pens'
p9374
S'0'
sS'Sub'
p9375
S'0'
sS'Lost'
p9376
S'3'
sS'Drop'
p9377
S'0'
sS'Start'
p9378
S'3'
sS'Won'
p9379
S'0'
sS'Draw'
p9380
S'0'
sS'%'
S'0.00'
p9381
sS'Mat'
p9382
S'3'
sS'Conv'
p9383
S'0'
sS'Tries'
p9384
S'0'
sS'Pts'
p9385
S'0'
sa(dp9386
S'Pens'
p9387
S'0'
sS'Sub'
p9388
S'0'
sS'Lost'
p9389
S'2'
sS'Drop'
p9390
S'0'
sS'Start'
p9391
S'2'
sS'Won'
p9392
S'0'
sS'Draw'
p9393
S'0'
sS'%'
S'0.00'
p9394
sS'Mat'
p9395
S'2'
sS'Conv'
p9396
S'0'
sS'Tries'
p9397
S'0'
sS'Pts'
p9398
S'0'
sa(dp9399
S'Pens'
p9400
S'0'
sS'Sub'
p9401
S'0'
sS'Lost'
p9402
S'3'
sS'Drop'
p9403
S'0'
sS'Start'
p9404
S'3'
sS'Won'
p9405
S'0'
sS'Draw'
p9406
S'0'
sS'%'
S'0.00'
p9407
sS'Mat'
p9408
S'3'
sS'Conv'
p9409
S'0'
sS'Tries'
p9410
S'0'
sS'Pts'
p9411
S'0'
sa(dp9412
S'Pens'
p9413
S'0'
sS'Sub'
p9414
S'0'
sS'Lost'
p9415
S'2'
sS'Drop'
p9416
S'0'
sS'Start'
p9417
S'2'
sS'Won'
p9418
S'0'
sS'Draw'
p9419
S'0'
sS'%'
S'0.00'
p9420
sS'Mat'
p9421
S'2'
sS'Conv'
p9422
S'0'
sS'Tries'
p9423
S'0'
sS'Pts'
p9424
S'0'
sa(dp9425
S'Pens'
p9426
S'0'
sS'Sub'
p9427
S'2'
sS'Lost'
p9428
S'2'
sS'Drop'
p9429
S'0'
sS'Start'
p9430
S'0'
sS'Won'
p9431
S'0'
sS'Draw'
p9432
S'0'
sS'%'
S'0.00'
p9433
sS'Mat'
p9434
S'2'
sS'Conv'
p9435
S'0'
sS'Tries'
p9436
S'0'
sS'Pts'
p9437
S'0'
sa(dp9438
S'Pens'
p9439
S'0'
sS'Sub'
p9440
S'3'
sS'Lost'
p9441
S'3'
sS'Drop'
p9442
S'0'
sS'Start'
p9443
S'0'
sS'Won'
p9444
S'0'
sS'Draw'
p9445
S'0'
sS'%'
S'0.00'
p9446
sS'Mat'
p9447
S'3'
sS'Conv'
p9448
S'0'
sS'Tries'
p9449
S'0'
sS'Pts'
p9450
S'0'
sa(dp9451
S'Pens'
p9452
S'0'
sS'Sub'
p9453
S'2'
sS'Lost'
p9454
S'2'
sS'Drop'
p9455
S'0'
sS'Start'
p9456
S'0'
sS'Won'
p9457
S'0'
sS'Draw'
p9458
S'0'
sS'%'
S'0.00'
p9459
sS'Mat'
p9460
S'2'
sS'Conv'
p9461
S'0'
sS'Tries'
p9462
S'0'
sS'Pts'
p9463
S'0'
sa(dp9464
S'Pens'
p9465
S'0'
sS'Sub'
p9466
S'1'
sS'Lost'
p9467
S'1'
sS'Drop'
p9468
S'0'
sS'Start'
p9469
S'0'
sS'Won'
p9470
S'0'
sS'Draw'
p9471
S'0'
sS'%'
S'0.00'
p9472
sS'Mat'
p9473
S'1'
sS'Conv'
p9474
S'0'
sS'Tries'
p9475
S'0'
sS'Pts'
p9476
S'0'
sa.