(lp1
(lp2
S'Fred Alexander'
p3
aS'1891'
p4
aS'Forward'
p5
aS'Malmesbury'
p6
aS'2'
aS'0'
aS'0'
aS'0'
aa(lp7
S'Bill Bisset'
p8
aS'1891'
p9
aS'Forward'
p10
aS'Cape Town'
p11
aS'2'
aS'0'
aS'0'
aS'0'
aa(lp12
S'Harry Boyes'
p13
aS'1891'
p14
aS'Wing'
p15
aS'Cape Town'
p16
aS'2'
aS'0'
aS'0'
aS'0'
aa(lp17
S'Herbert Castens'
p18
aS'1891'
p19
aS'Forward'
p20
aS'E Cape'
p21
aS'1'
aS'0'
aS'0'
aS'0'
aa(lp22
S'Tiger Devenish'
p23
aS'1891'
p24
aS'Forward'
p25
aS'Victoria West'
p26
aS'1'
aS'0'
aS'0'
aS'0'
aa(lp27
S'Ben Duff'
p28
aS'1891'
p29
aS'Fullback'
p30
aS'Swellendam'
p31
aS'3'
aS'0'
aS'0'
aS'0'
aa(lp32
S'Frank Guthrie'
p33
aS'1891'
p34
aS'Halfback'
p35
aS'Notting Hill'
p36
aS'3'
aS'0'
aS'0'
aS'0'
aa(lp37
S'Frank Hamilton'
p38
aS'1891'
p39
aS'Forward'
p40
aS'Cape Town'
p41
aS'1'
aS'0'
aS'0'
aS'0'
aa(lp42
S'Edward Little'
p43
aS'1891'
p44
aS'Forward'
p45
aS'Midlothian'
p46
aS'2'
aS'0'
aS'0'
aS'0'
aa(lp47
S'Japie Louw'
p48
aS'1891'
p49
aS'Forward'
p50
aS'Fisantekraal'
p51
aS'3'
aS'0'
aS'0'
aS'0'
aa(lp52
S'George Merry'
p53
aS'1891'
p54
aS'Forward'
p55
aS'1869'
p56
aS'1'
aS'0'
aS'0'
aS'0'
aa(lp57
S'Alf Richards'
p58
aS'1891'
p59
aS'Halfback'
p60
aS'Grahamstown'
p61
aS'3'
aS'0'
aS'0'
aS'0'
aa(lp62
S'Mosey van Buuren'
p63
aS'1891'
p64
aS'Wing'
p65
aS'Burgersdorp'
p66
aS'1'
aS'0'
aS'0'
aS'0'
aa(lp67
S'Oupa Versfeld'
p68
aS'1891'
p69
aS'Forward'
p70
aS'Cape Town'
p71
aS'3'
aS'0'
aS'0'
aS'0'
aa(lp72
S'Chubb Vigne'
p73
aS'1891'
p74
aS'Centre'
p75
aS'Fort Beaufort'
p76
aS'3'
aS'0'
aS'0'
aS'0'
aa(lp77
S'Sas de Kock'
p78
aS'1891'
p79
aS'Wing'
p80
aS'Hopetown'
p81
aS'1'
aS'0'
aS'0'
aS'0'
aa(lp82
S'Fairy Heatlie'
p83
aS'1891'
p84
aS'Forward'
p85
aS'Cape Prov'
p86
aS'7'
aS'2'
aS'0'
aS'6'
aa(lp87
S'Jackie Powell'
p88
aS'1891'
p89
aS'Halfback'
p90
aS'Cape Town'
p91
aS'4'
aS'0'
aS'0'
aS'0'
aa(lp92
S'Bob Shand'
p93
aS'1891'
p94
aS'Forward'
p95
aS'Tulbagh'
p96
aS'2'
aS'0'
aS'0'
aS'0'
aa(lp97
S'Toski Smith'
p98
aS'1891'
p99
aS'Forward'
p100
aS'Wynberg'
p101
aS'3'
aS'0'
aS'0'
aS'0'
aa(lp102
S'Dan Smith'
p103
aS'1891'
p104
aS'Forward'
p105
aS'Durban'
p106
aS'1'
aS'0'
aS'0'
aS'0'
aa(lp107
S'Bob Snedden'
p108
aS'1891'
p109
aS'Forward'
p110
aS'Kirkgate'
p111
aS'1'
aS'0'
aS'0'
aS'0'
aa(lp112
S'Wilfred Trenery'
p113
aS'1891'
p114
aS'Forward'
p115
aS'Cornwall'
p116
aS'1'
aS'0'
aS'0'
aS'0'
aa(lp117
S'Charlie Chignell'
p118
aS'1891'
p119
aS'Forward'
p120
aS'Devon'
p121
aS'1'
aS'0'
aS'0'
aS'0'
aa(lp122
S'Jack Hartley'
p123
aS'1891'
p124
aS'Wing'
p125
aS'Krugersdorp'
p126
aS'1'
aS'0'
aS'0'
aS'0'
aa(lp127
S'Jim McKendrick'
p128
aS'1891'
p129
aS'Flanker'
p130
aS'Stellenbosch'
p131
aS'1'
aS'0'
aS'0'
aS'0'
aa(lp132
S'Charlie van Renen'
p133
aS'1891'
p134
aS'Forward'
p135
aS'Constantia'
p136
aS'3'
aS'1'
aS'0'
aS'0'
aa(lp137
S'Hasie Versfeld'
p138
aS'1891'
p139
aS'Wing'
p140
aS'Wynberg'
p141
aS'1'
aS'0'
aS'0'
aS'0'
aa(lp142
S'Biddy Anderson'
p143
aS'1896'
p144
aS'Centre'
p145
aS'Kimberley'
p146
aS'3'
aS'1'
aS'0'
aS'0'
aa(lp147
S'Ferdy Aston'
p148
aS'1896'
p149
aS'Wing'
p150
aS'Cheltenham'
p151
aS'4'
aS'1'
aS'0'
aS'0'
aa(lp152
S'Mike Bredenkamp'
p153
aS'1896'
p154
aS'Forward'
p155
aS'Kimberley'
p156
aS'2'
aS'0'
aS'0'
aS'0'
aa(lp157
S'Frank Douglass'
p158
aS'1896'
p159
aS'Forward'
p160
aS'Grahamstown'
p161
aS'1'
aS'0'
aS'0'
aS'0'
aa(lp162
S'Corbett Gorton'
p163
aS'1896'
p164
aS'Forward'
p165
aS'Burton Extra'
p166
aS'1'
aS'0'
aS'0'
aS'0'
aa(lp167
S'Dykie Lyons'
p168
aS'1896'
p169
aS'Fullback'
p170
aS'Port Elizabeth'
p171
aS'1'
aS'0'
aS'0'
aS'0'
aa(lp172
S'PJ Meyer'
p173
aS'1896'
p174
aS'Forward'
p175
aS'?'
aS'1'
aS'0'
aS'0'
aS'0'
aa(lp176
S'Francis Myburgh'
p177
aS'1896'
p178
aS'Halfback'
p179
aS'Cape Town'
p180
aS'1'
aS'0'
aS'0'
aS'0'
aa(lp181
S'Ernest Olver'
p182
aS'1896'
p183
aS'Wing'
p184
aS'Cornwall'
p185
aS'1'
aS'0'
aS'0'
aS'0'
aa(lp186
S'Paul Scott'
p187
aS'1896'
p188
aS'Forward'
p189
aS'New Brunswick'
p190
aS'4'
aS'1'
aS'0'
aS'0'
aa(lp191
S'Percy Twentyman-Jones'
p192
aS'1896'
p193
aS'Wing'
p194
aS'Cape Col.'
p195
aS'3'
aS'1'
aS'1'
aS'3'
aa(lp196
S'Scraps Wessels'
p197
aS'1896'
p198
aS'Forward'
p199
aS'Boshof'
p200
aS'3'
aS'0'
aS'0'
aS'0'
aa(lp201
S'Ben Andrew'
p202
aS'1896'
p203
aS'Forward'
p204
aS'Lancs'
p205
aS'1'
aS'0'
aS'0'
aS'0'
aa(lp206
S'Allan Beswick'
p207
aS'1896'
p208
aS'Forward'
p209
aS'Queenstown'
p210
aS'3'
aS'1'
aS'0'
aS'0'
aa(lp211
S'Davie Cope'
p212
aS'1896'
p213
aS'Fullback'
p214
aS'Kimberley'
p215
aS'1'
aS'0'
aS'0'
aS'2'
aa(lp216
S'Jim Crosby'
p217
aS'1896'
p218
aS'Forward'
p219
aS'Cape Town'
p220
aS'1'
aS'0'
aS'0'
aS'0'
aa(lp221
S'Charles Devenish'
p222
aS'1896'
p223
aS'Forward'
p224
aS'Victoria West'
p225
aS'1'
aS'0'
aS'0'
aS'0'
aa(lp226
S'George Devenish'
p227
aS'1896'
p228
aS'Halfback'
p229
aS'Riversdale District'
p230
aS'1'
aS'0'
aS'0'
aS'0'
aa(lp231
S'Spanner Forbes'
p232
aS'1896'
p233
aS'Centre'
p234
aS'Victoria'
p235
aNaNaNaNaa(lp236
S'Alf Larard'
p237
aS'1896'
p238
aS'Halfback'
p239
aS'Kingston-upon-Hull'
p240
aS'2'
aS'1'
aS'1'
aS'3'
aa(lp241
S'Tom Mellet'
p242
aS'1896'
p243
aS'Forward'
p244
aS'Potchefstroom'
p245
aS'1'
aS'0'
aS'0'
aS'0'
aa(lp246
S'Theo Samuels'
p247
aS'1896'
p248
aS'Fullback'
p249
aS'George'
p250
aS'3'
aS'1'
aS'2'
aS'6'
aa(lp251
S'Bill Taberer'
p252
aS'1896'
p253
aS'Centre'
p254
aS"King William's Town"
p255
aS'1'
aS'0'
aS'0'
aS'0'
aa(lp256
S'Bill Cotty'
p257
aS'1896'
p258
aS'Halfback'
p259
aS'Kimberley'
p260
aS'1'
aS'0'
aS'0'
aS'0'
aa(lp261
S'Pieter Dormehl'
p262
aS'1896'
p263
aS'Forward'
p264
aS'Cape Town'
p265
aS'2'
aS'1'
aS'0'
aS'0'
aa(lp266
S'Ted Kelly'
p267
aS'1896'
p268
aS'Forward'
p269
aS"King William's Town"
p270
aS'1'
aS'0'
aS'0'
aS'0'
aa(lp271
S'Bertie Powell'
p272
aS'1896'
p273
aS'Centre'
p274
aS'Kimberley'
p275
aS'1'
aS'0'
aS'0'
aS'0'
aa(lp276
S'Danie Theunissen'
p277
aS'1896'
p278
aS'Forward'
p279
aS'Somerset West'
p280
aS'1'
aS'0'
aS'0'
aS'0'
aa(lp281
S'Patats Cloete'
p282
aS'1896'
p283
aS'Forward'
p284
aS'Cape Town'
p285
aS'1'
aS'1'
aS'0'
aS'0'
aa(lp286
S'Paul de Waal'
p287
aS'1896'
p288
aS'Forward'
p289
aS'nr.Kanonkop'
p290
aS'1'
aS'1'
aS'0'
aS'0'
aa(lp291
S'Tommy Etlinger'
p292
aS'1896'
p293
aS'Halfback'
p294
aS'London'
p295
aS'1'
aS'1'
aS'0'
aS'0'
aa(lp296
S'Tommy Hepburn'
p297
aS'1896'
p298
aS'Centre'
p299
aS'Bechuanala'
p300
aS'1'
aS'1'
aS'0'
aS'2'
aa(lp301
S'Herman van Broekhuizen'
p302
aS'1896'
p303
aS'Forward'
p304
aS'Netherland'
p305
aS'1'
aS'1'
aS'0'
aS'0'
aa(lp306
S'Joe Barry'
p307
aS'1903'
p308
aS'Wing'
p309
aS'Robertson District'
p310
aS'3'
aS'1'
aS'1'
aS'3'
aa(lp311
S'Charlie Brown'
p312
aS'1903'
p313
aS'Forward'
p314
aS'South-West Africa'
p315
aS'3'
aS'1'
aS'0'
aS'0'
aa(lp316
S'Uncle Dobbin'
p317
aS'1903'
p318
aS'Halfback'
p319
aS'Bethulie'
p320
aS'9'
aS'5'
aS'1'
aS'3'
aa(lp321
S'Alex Frew'
p322
aS'1901'
p323
aS'Forward'
p324
aS'Ayrshire'
p325
aS'4'
aS'3'
aS'1'
aS'3'
aa(lp326
S'Charlie Jones'
p327
aS'1903'
p328
aS'Fullback'
p329
aS'Kimberley'
p330
aS'2'
aS'0'
aS'0'
aS'0'
aa(lp331
S'Japie Krige'
p332
aS'1903'
p333
aS'Centre'
p334
aS'Klein Drakenstein'
p335
aS'5'
aS'3'
aS'1'
aS'3'
aa(lp336
S'Willie McEwan'
p337
aS'1894'
p338
aS'Forward'
p339
aS'Edinburgh'
p340
aS'18'
p341
aS'9'
aS'1'
aS'3'
aa(lp342
S'Andrew Morkel'
p343
aS'1903'
p344
aS'Wing'
p345
aS'Somerset West'
p346
aS'1'
aS'0'
aS'0'
aS'0'
aa(lp347
S'PO Nel'
p348
aS'1903'
p349
aS'Forward'
p350
aS'Natal'
p351
aS'3'
aS'1'
aS'0'
aS'0'
aa(lp352
S'Birdie Partridge'
p353
aS'1903'
p354
aS'Forward'
p355
aS'Llanthewy Skirrid'
p356
aS'1'
aS'0'
aS'0'
aS'0'
aa(lp357
S'Klondyke Raaff'
p358
aS'1903'
p359
aS'Forward'
p360
aS'Cape Town'
p361
aS'6'
aS'2'
aS'1'
aS'3'
aa(lp362
S'Jimmy Sinclair'
p363
aS'1903'
p364
aS'Forward'
p365
aS'Cape Col.'
p366
aS'1'
aS'0'
aS'0'
aS'0'
aa(lp367
S'Bertie van Renen'
p368
aS'1903'
p369
aS'Fullback'
p370
aS'Constantia'
p371
aS'2'
aS'1'
aS'0'
aS'0'
aa(lp372
S'Syd Ashley'
p373
aS'1903'
p374
aS'Centre'
p375
aS'Cape Town'
p376
aS'1'
aS'0'
aS'0'
aS'0'
aa(lp377
S'George Crampton'
p378
aS'1903'
p379
aS'Forward'
p380
aS'Aughrim'
p381
aS'1'
aS'0'
aS'0'
aS'0'
aa(lp382
S'Clem Currie'
p383
aS'1903'
p384
aS'Forward'
p385
aS'Grahamstown'
p386
aS'1'
aS'0'
aS'0'
aS'0'
aa(lp387
S'Syd de Melker'
p388
aS'1903'
p389
aS'Centre'
p390
aS'Kimberley'
p391
aS'2'
aS'0'
aS'0'
aS'0'
aa(lp392
S'Bertie Gibbs'
p393
aS'1903'
p394
aS'Wing'
p395
aS'Kimberley'
p396
aS'1'
aS'0'
aS'0'
aS'0'
aa(lp397
S'Jack Jackson'
p398
aS'1903'
p399
aS'Forward'
p400
aS'Victoria West'
p401
aS'1'
aS'0'
aS'0'
aS'0'
aa(lp402
S'Rajah Martheze'
p403
aS'1903'
p404
aS'Forward'
p405
aS'Cape Province'
p406
aS'3'
aS'2'
aS'0'
aS'0'
aa(lp407
S'Henry Metcalf'
p408
aS'1903'
p409
aS'Forward'
p410
aS'Caledon'
p411
aS'1'
aS'0'
aS'0'
aS'0'
aa(lp412
S'Jock Anderson'
p413
aS'1903'
p414
aS'Forward'
p415
aS'Cape Town'
p416
aS'1'
aS'1'
aS'0'
aS'0'
aa(lp417
S'John Botha'
p418
aS'1903'
p419
aS'Forward'
p420
aS'Cape Town'
p421
aS'1'
aS'1'
aS'0'
aS'0'
aa(lp422
S'Paddy Carolin'
p423
aS'1903'
p424
aS'Halfback'
p425
aS'E Province'
p426
aS'3'
aS'2'
aS'0'
aS'0'
aa(lp427
S'Hugh Ferris'
p428
aS'1901'
p429
aS'Scrum-half'
p430
aS'Co Down'
p431
aS'2'
aS'1'
aS'0'
aS'0'
aa(lp432
S'Tommy Hobson'
p433
aS'1903'
p434
aS'Halfback'
p435
aS'Somerset East'
p436
aS'1'
aS'1'
aS'0'
aS'0'
aa(lp437
S'Bob Loubser'
p438
aS'1903'
p439
aS'Wing'
p440
aS'Klipheuvel'
p441
aS'7'
aS'5'
aS'3'
aS'9'
aa(lp442
S'Alec Reid'
p443
aS'1903'
p444
aS'Forward'
p445
aS'Swellendam District'
p446
aS'1'
aS'1'
aS'1'
aS'3'
aa(lp447
S'Polla Roos'
p448
aS'1903'
p449
aS'Forward'
p450
aS'Rus-en-Vrede'
p451
aS'4'
aS'3'
aS'0'
aS'0'
aa(lp452
S'Koei Brink'
p453
aS'1906'
p454
aS'Forward'
p455
aS'Kuils River'
p456
aS'3'
aS'1'
aS'0'
aS'0'
aa(lp457
S'Cocky Brooks'
p458
aS'1906'
p459
aS'Forward'
p460
aS"King William's Town"
p461
aS'1'
aS'0'
aS'0'
aS'0'
aa(lp462
S'Adam Burdett'
p463
aS'1906'
p464
aS'Forward'
p465
aS'Oudtshoorn'
p466
aS'2'
aS'1'
aS'0'
aS'0'
aa(lp467
S'Bingo Burger'
p468
aS'1906'
p469
aS'Forward'
p470
aS'Cape Prov.'
p471
aS'4'
aS'2'
aS'0'
aS'0'
aa(lp472
S'Pinkie Daneel'
p473
aS'1906'
p474
aS'Forward'
p475
aS'Bredasdorp'
p476
aS'4'
aS'2'
aS'0'
aS'0'
aa(lp477
S'Boy de Villiers'
p478
aS'1906'
p479
aS'Centre'
p480
aS'Paarl'
p481
aS'3'
aS'1'
aS'0'
aS'0'
aa(lp482
S'Dietlof Mare'
p483
aS'1906'
p484
aS'Forward'
p485
aS'Boland'
p486
aS'1'
aS'0'
aS'0'
aS'0'
aa(lp487
S'Alf Marsberg'
p488
aS'1906'
p489
aS'Wing'
p490
aS'Queenstown'
p491
aS'3'
aS'1'
aS'0'
aS'0'
aa(lp492
S'Sommie Morkel'
p493
aS'1906'
p494
aS'Forward'
p495
aS'Kimberley'
p496
aS'4'
aS'2'
aS'0'
aS'0'
aa(lp497
S'Anton Stegmann'
p498
aS'1906'
p499
aS'Wing'
p500
aS'Cradock'
p501
aS'2'
aS'1'
aS'1'
aS'3'
aa(lp502
S'Jack Hirsch'
p503
aS'1906'
p504
aS'Centre'
p505
aS'Port Elizabeth'
p506
aS'2'
aS'2'
aS'0'
aS'0'
aa(lp507
S'Mary Jackson'
p508
aS'1906'
p509
aS'Halfback'
p510
aS'Constantia'
p511
aS'3'
aS'2'
aS'0'
aS'0'
aa(lp512
S'Steve Joubert'
p513
aS'1906'
p514
aS'Fullback'
p515
aS'Uniondale'
p516
aS'3'
aS'2'
aS'1'
aS'8'
aa(lp517
S'Pietie le Roux'
p518
aS'1906'
p519
aS'Forward'
p520
aS'Paarl'
p521
aS'3'
aS'2'
aS'0'
aS'0'
aa(lp522
S'Dougie Morkel'
p523
aS'1906'
p524
aS'Forward'
p525
aS'Kimberley'
p526
aS'9'
aS'8'
aS'3'
aS'38'
p527
aa(lp528
S'Billy Millar'
p529
aS'1906'
p530
aS'Forward'
p531
aS'Cape Prov'
p532
aS'6'
aS'4'
aS'2'
aS'6'
aa(lp533
S'Nic Crosby'
p534
aS'1910'
p535
aS'Forward'
p536
aS'Tarkastad'
p537
aS'2'
aS'2'
aS'0'
aS'0'
aa(lp538
S'Max Davison'
p539
aS'1910'
p540
aS'Forward'
p541
aS'Cape Prov'
p542
aS'1'
aS'1'
aS'0'
aS'0'
aa(lp543
S'Dirkie de Villiers'
p544
aS'1910'
p545
aS'Centre'
p546
aS'Boland'
p547
aS'3'
aS'2'
aS'1'
aS'3'
aa(lp548
S'Cocky Hahn'
p549
aS'1910'
p550
aS'Wing'
p551
aS'Paarl'
p552
aS'3'
aS'2'
aS'1'
aS'3'
aa(lp553
S'Noel Howe-Browne'
p554
aS'1910'
p555
aS'Forward'
p556
aS'?'
aS'3'
aS'2'
aS'0'
aS'0'
aa(lp557
S'Lammetjie Luyt'
p558
aS'1910'
p559
aS'Halfback'
p560
aS'Ceres'
p561
aS'7'
aS'6'
aS'2'
aS'8'
aa(lp562
S'Archie Marsberg'
p563
aS'1910'
p564
aS'Fullback'
p565
aS'Fort Beaufort'
p566
aS'1'
aS'1'
aS'0'
aS'0'
aa(lp567
S'Cliff Riordan'
p568
aS'1910'
p569
aS'Forward'
p570
aS'Colesberg'
p571
aS'2'
aS'1'
aS'0'
aS'0'
aa(lp572
S'Henry Walker'
p573
aS'1910'
p574
aS'Forward'
p575
aS'Uitenhage'
p576
aS'3'
aS'2'
aS'0'
aS'0'
aa(lp577
S'Arthur Williams'
p578
aS'1910'
p579
aS'Forward'
p580
aS'Kimberley'
p581
aS'1'
aS'1'
aS'0'
aS'0'
aa(lp582
S'Percy Allport'
p583
aS'1910'
p584
aS'Fullback'
p585
aS'Calvinia'
p586
aS'2'
aS'1'
aS'1'
aS'3'
aa(lp587
S'Antonie Lombard'
p588
aS'1910'
p589
aS'Forward'
p590
aS'Cape Prov'
p591
aS'1'
aS'0'
aS'0'
aS'0'
aa(lp592
S'Dick Luyt'
p593
aS'1910'
p594
aS'Centre'
p595
aS'Ceres'
p596
aS'7'
aS'6'
aS'1'
aS'3'
aa(lp597
S'Wally Mills'
p598
aS'1910'
p599
aS'Wing'
p600
aS'Durbanville'
p601
aS'1'
aS'0'
aS'1'
aS'3'
aa(lp602
S'Toby Moll'
p603
aS'1910'
p604
aS'Forward'
p605
aS'Cape Town'
p606
aS'1'
aS'0'
aS'0'
aS'0'
aa(lp607
S'Gideon Roos'
p608
aS'1910'
p609
aS'Forward'
p610
aS'Stellenbosch'
p611
aS'2'
aS'1'
aS'1'
aS'3'
aa(lp612
S'Clive van Ryneveld'
p613
aS'1910'
p614
aS'Halfback'
p615
aS'Graaf-Reinet'
p616
aS'2'
aS'1'
aS'0'
aS'0'
aa(lp617
S'Boy Morkel'
p618
aS'1910'
p619
aS'Forward'
p620
aS'Somerset West'
p621
aS'9'
aS'7'
aS'2'
aS'6'
aa(lp622
S'Koot Reynecke'
p623
aS'1910'
p624
aS'Forward'
p625
aS'Senekal'
p626
aS'1'
aS'1'
aS'1'
aS'3'
aa(lp627
S'Joe Francis'
p628
aS'1912'
p629
aS'Forward'
p630
aS'Upington'
p631
aS'5'
aS'5'
aS'2'
aS'6'
aa(lp632
S'Saturday Knight'
p633
aS'1912'
p634
aS'Forward'
p635
aS'Burgersdorp'
p636
aS'5'
aS'5'
aS'0'
aS'0'
aa(lp637
S'Sep Ledger'
p638
aS'1912'
p639
aS'Forward'
p640
aS'Kimberley'
p641
aS'4'
aS'4'
aS'1'
aS'3'
aa(lp642
S'John Luyt'
p643
aS'1912'
p644
aS'Forward'
p645
aS'Ceres'
p646
aS'4'
aS'4'
aS'0'
aS'0'
aa(lp647
S'Boetie McHardy'
p648
aS'1912'
p649
aS'Wing'
p650
aS'Bloemfontein'
p651
aS'5'
aS'5'
aS'6'
aS'18'
p652
aa(lp653
S'Jacky Morkel'
p654
aS'1912'
p655
aS'Centre'
p656
aS'Somerset West'
p657
aS'5'
aS'5'
aS'4'
aS'16'
p658
aa(lp659
S'Gerhard Morkel'
p660
aS'1912'
p661
aS'Fullback'
p662
aS'Somerset West'
p663
aS'8'
aS'6'
aS'0'
aS'16'
p664
aa(lp665
S'Jan Stegmann'
p666
aS'1912'
p667
aS'Wing'
p668
aS'Cape Prov'
p669
aS'5'
aS'5'
aS'5'
aS'15'
p670
aa(lp671
S'Tommy Thompson'
p672
aS'1912'
p673
aS'Forward'
p674
aS'Cape Prov'
p675
aS'3'
aS'3'
aS'0'
aS'0'
aa(lp676
S'Tom van Vuuren'
p677
aS'1912'
p678
aS'Forward'
p679
aS'Adelaide'
p680
aS'5'
aS'5'
aS'0'
aS'0'
aa(lp681
S'John McCulloch'
p682
aS'1913'
p683
aS'Halfback'
p684
aS'Kimberley'
p685
aS'2'
aS'2'
aS'0'
aS'0'
aa(lp686
S'Eddie Shum'
p687
aS'1913'
p688
aS'Forward'
p689
aS'Estcourt'
p690
aS'1'
aS'1'
aS'0'
aS'0'
aa(lp691
S'Jack Immelman'
p692
aS'1913'
p693
aS'Halfback'
p694
aS'Victoria West'
p695
aS'1'
aS'1'
aS'0'
aS'0'
aa(lp696
S'Wally Clarkson'
p697
aS'1921'
p698
aS'Centre'
p699
aS'Durban'
p700
aS'3'
aS'2'
aS'0'
aS'0'
aa(lp701
S'Theuns Kruger'
p702
aS'1921'
p703
aS'Hooker'
p704
aS'Steynsburg'
p705
aS'8'
aS'5'
aS'0'
aS'0'
aa(lp706
S'Frank Mellish'
p707
aS'1920'
p708
aS'Flanker'
p709
aS'Rondebosch'
p710
aS'12'
p711
aS'8'
aS'1'
aS'3'
aa(lp712
S'Charlie Meyer'
p713
aS'1921'
p714
aS'Centre'
p715
aS'Bethel'
p716
aS'3'
aS'1'
aS'0'
aS'0'
aa(lp717
S'Baby Michau'
p718
aS'1921'
p719
aS'Lock'
p720
aS'Guadock'
p721
aS'1'
aS'0'
aS'0'
aS'0'
aa(lp722
S'Mannetjies Michau'
p723
aS'1921'
p724
aS'Scrum-half'
p725
aS'Guadock'
p726
aS'3'
aS'1'
aS'0'
aS'0'
aa(lp727
S'Harry Morkel'
p728
aS'1921'
p729
aS'Lock'
p730
aS'Kimberley'
p731
aS'1'
aS'0'
aS'0'
aS'0'
aa(lp732
S'Henry Morkel'
p733
aS'1921'
p734
aS'Wing'
p735
aS'Somerset West'
p736
aS'2'
aS'1'
aS'0'
aS'0'
aa(lp737
S'Phil Mostert'
p738
aS'1921'
p739
aS'Prop'
p740
aS'Krugersdorp'
p741
aS'14'
p742
aS'10'
p743
aS'1'
aS'6'
aa(lp744
S'Tokkie Scholtz'
p745
aS'1921'
p746
aS'Flanker'
p747
aS'Somerset West'
p748
aS'2'
aS'1'
aS'0'
aS'0'
aa(lp749
S'Taffy Townsend'
p750
aS'1921'
p751
aS'Scrum-half'
p752
aS'Newport'
p753
aS'1'
aS'0'
aS'0'
aS'0'
aa(lp754
S'Attie van Heerden'
p755
aS'1921'
p756
aS'Wing'
p757
aS'Boshof'
p758
aS'2'
aS'0'
aS'1'
aS'3'
aa(lp759
S'Alf Walker'
p760
aS'1921'
p761
aS'Lock'
p762
aS'Randfontein'
p763
aS'6'
aS'3'
aS'0'
aS'0'
aa(lp764
S'Nic du Plessis'
p765
aS'1921'
p766
aS'Lock'
p767
aS'Steynsburg'
p768
aS'5'
aS'3'
aS'0'
aS'0'
aa(lp769
S'Mervyn Ellis'
p770
aS'1921'
p771
aS'Flanker'
p772
aS'Kokstad'
p773
aS'6'
aS'4'
aS'0'
aS'0'
aa(lp774
S'Royal Morkel'
p775
aS'1921'
p776
aS'Lock'
p777
aS'Kimberley'
p778
aS'2'
aS'1'
aS'0'
aS'0'
aa(lp779
S'Billy Sendin'
p780
aS'1921'
p781
aS'Centre'
p782
aS'Kimberley'
p783
aS'1'
aS'1'
aS'1'
aS'3'
aa(lp784
S'Tank van Rooyen'
p785
aS'1921'
p786
aS'Lock'
p787
aS'Steynsburg'
p788
aS'2'
aS'1'
aS'0'
aS'0'
aa(lp789
S'Bill Zeller'
p790
aS'1921'
p791
aS'Wing'
p792
aS'Umtala'
p793
aS'2'
aS'1'
aS'0'
aS'0'
aa(lp794
S'Sas de Kock'
p795
aS'1921'
p796
aS'Centre'
p797
aS'Caledon'
p798
aS'2'
aS'0'
aS'0'
aS'0'
aa(lp799
S'Sarel Strauss'
p800
aS'1921'
p801
aS'Centre'
p802
aS'?'
aS'1'
aS'0'
aS'0'
aS'0'
aa(lp803
S'Pierre Albertyn'
p804
aS'1924'
p805
aS'Centre'
p806
aS'Kleinmond'
p807
aS'4'
aS'3'
aS'1'
aS'3'
aa(lp808
S'Hans Aucamp'
p809
aS'1924'
p810
aS'Wing'
p811
aS'Steynsburg'
p812
aS'2'
aS'2'
aS'1'
aS'3'
aa(lp813
S'Champion Myburgh'
p814
aS'1924'
p815
aS'Scrum-half'
p816
aS'Paarl'
p817
aS'1'
aS'1'
aS'0'
aS'0'
aa(lp818
S'Bennie Osler'
p819
aS'1924'
p820
aS'Fly-half'
p821
aS'Aliwal North'
p822
aS'17'
p823
aS'12'
p824
aS'2'
aS'46'
p825
aa(lp826
S'Bill Payn'
p827
aS'1924'
p828
aS'Flanker'
p829
aS'Harding'
p830
aS'2'
aS'2'
aS'0'
aS'0'
aa(lp831
S'Kenny Starke'
p832
aS'1924'
p833
aS'Wing'
p834
aS'Muldersvlei'
p835
aS'4'
aS'3'
aS'3'
aS'13'
p836
aa(lp837
S'Jackie Tindall'
p838
aS'1924'
p839
aS'Fullback'
p840
aS'Stellenbosch'
p841
aS'5'
aS'3'
aS'0'
aS'0'
aa(lp842
S'Nic van Druten'
p843
aS'1924'
p844
aS'No. 8'
p845
aS'Griquatown'
p846
aS'8'
aS'5'
aS'2'
aS'6'
aa(lp847
S'Jack Bester'
p848
aS'1924'
p849
aS'Centre'
p850
aS'Moorreesburg'
p851
aS'2'
aS'2'
aS'1'
aS'3'
aa(lp852
S'Nic Bosman'
p853
aS'1924'
p854
aS'Fullback'
p855
aS'Pretoria'
p856
aS'3'
aS'2'
aS'0'
aS'0'
aa(lp857
S'Pally Truter'
p858
aS'1924'
p859
aS'Scrum-half'
p860
aS'Riebeeck-Kasteel'
p861
aS'2'
aS'2'
aS'0'
aS'0'
aa(lp862
S'Daunce Devine'
p863
aS'1924'
p864
aS'Scrum-half'
p865
aS'Paarl'
p866
aS'2'
aS'0'
aS'0'
aS'0'
aa(lp867
S'Paul la Grange'
p868
aS'1924'
p869
aS'Flanker'
p870
aS'Riversdale'
p871
aS'2'
aS'1'
aS'0'
aS'0'
aa(lp872
S'Jack Slater'
p873
aS'1924'
p874
aS'Wing'
p875
aS'Grahamstown'
p876
aS'3'
aS'2'
aS'2'
aS'6'
aa(lp877
S'BV Vanderplank'
p878
aS'1924'
p879
aS'Prop'
p880
aS'Pietermaritzburg'
p881
aS'2'
aS'1'
aS'0'
aS'0'
aa(lp882
S'George Daneel'
p883
aS'1928'
p884
aS'No. 8'
p885
aS'Calvinia'
p886
aS'8'
aS'6'
aS'2'
aS'6'
aa(lp887
S'Pierie de Villiers'
p888
aS'1928'
p889
aS'Scrum-half'
p890
aS'Worcester'
p891
aS'8'
aS'6'
aS'0'
aS'0'
aa(lp892
S'Brooke Duffy'
p893
aS'1928'
p894
aS'Centre'
p895
aS'East London'
p896
aS'1'
aS'1'
aS'0'
aS'0'
aa(lp897
S'Flip Nel'
p898
aS'1928'
p899
aS'Lock'
p900
aS'Natal'
p901
aS'16'
p902
aS'13'
p903
aS'1'
aS'3'
aa(lp904
S'Sharkey Osler'
p905
aS'1928'
p906
aS'Centre'
p907
aS'Aliwal North'
p908
aS'1'
aS'1'
aS'0'
aS'0'
aa(lp909
S'Hennie Potgieter'
p910
aS'1928'
p911
aS'Lock'
p912
aS'?'
aS'2'
aS'1'
aS'0'
aS'0'
aa(lp913
S'Nic Pretorius'
p914
aS'1928'
p915
aS'Flanker'
p916
aS'Vryburg'
p917
aS'4'
aS'2'
aS'0'
aS'0'
aa(lp918
S'Boet Prinsloo'
p919
aS'1928'
p920
aS'Wing'
p921
aS'Standerton'
p922
aS'1'
aS'1'
aS'0'
aS'0'
aa(lp923
S'SP van Wyk'
p924
aS'1928'
p925
aS'Prop'
p926
aS'Middelburg'
p927
aS'2'
aS'1'
aS'0'
aS'0'
aa(lp928
S'Gerry Brand'
p929
aS'1928'
p930
aS'Fullback'
p931
aS'Cape Town'
p932
aS'16'
p933
aS'13'
p934
aS'0'
aS'55'
p935
aa(lp936
S'John Dobie'
p937
aS'1928'
p938
aS'Centre'
p939
aS'Rustenburg'
p940
aS'1'
aS'0'
aS'0'
aS'0'
aa(lp941
S'Neville Tod'
p942
aS'1928'
p943
aS'Wing'
p944
aS'Durban'
p945
aS'1'
aS'0'
aS'0'
aS'0'
aa(lp946
S'JC van der Westhuizen'
p947
aS'1928'
p948
aS'Centre'
p949
aS'Darling'
p950
aS'4'
aS'2'
aS'1'
aS'3'
aa(lp951
S'Manus de Jongh'
p952
aS'1928'
p953
aS'Wing'
p954
aS'Moorreesburg'
p955
aS'1'
aS'1'
aS'1'
aS'3'
aa(lp956
S'AF du Toit'
p957
aS'1928'
p958
aS'Lock'
p959
aS'Stellenbosch'
p960
aS'2'
aS'1'
aS'0'
aS'0'
aa(lp961
S'Boy Louw'
p962
aS'1928'
p963
aS'Prop'
p964
aS'Boland'
p965
aS'18'
p966
aS'14'
p967
aS'1'
aS'3'
aa(lp968
S'Poim Oliver'
p969
aS'1928'
p970
aS'Prop'
p971
aS'Graaf-Reinet'
p972
aS'2'
aS'1'
aS'0'
aS'0'
aa(lp973
S'Willie Rousseau'
p974
aS'1928'
p975
aS'Centre'
p976
aS'Steynsburg'
p977
aS'2'
aS'1'
aS'0'
aS'0'
aa(lp978
S'PK Morkel'
p979
aS'1928'
p980
aS'Wing'
p981
aS'Koelenhof'
p982
aS'1'
aS'0'
aS'0'
aS'0'
aa(lp983
S'Jock van Niekerk'
p984
aS'1928'
p985
aS'Wing'
p986
aS'Constantia'
p987
aS'1'
aS'0'
aS'0'
aS'0'
aa(lp988
S'Ferdie Bergh'
p989
aS'1931'
p990
aS'Lock'
p991
aS'Stellenbosch'
p992
aS'17'
p993
aS'13'
p994
aS'7'
aS'21'
p995
aa(lp996
S'Danie Craven'
p997
aS'1931'
p998
aS'Scrum-half'
p999
aS'OFS'
p1000
aS'16'
p1001
aS'12'
p1002
aS'2'
aS'6'
aa(lp1003
S'Geoff Gray'
p1004
aS'1931'
p1005
aS'Centre'
p1006
aS'Hastings'
p1007
aS'4'
aS'3'
aS'0'
aS'0'
aa(lp1008
S'Bert Kipling'
p1009
aS'1931'
p1010
aS'Hooker'
p1011
aS'Kimberley'
p1012
aS'9'
aS'7'
aS'0'
aS'0'
aa(lp1013
S'Andre McDonald'
p1014
aS'1931'
p1015
aS'Flanker'
p1016
aS'Murraysburg'
p1017
aS'4'
aS'4'
aS'0'
aS'0'
aa(lp1018
S'Alvi van der Merwe'
p1019
aS'1931'
p1020
aS'Flanker'
p1021
aS'Rawsonville'
p1022
aS'1'
aS'1'
aS'0'
aS'0'
aa(lp1023
S'Floors Venter'
p1024
aS'1931'
p1025
aS'Wing'
p1026
aS'Pietersburg'
p1027
aS'3'
aS'3'
aS'0'
aS'0'
aa(lp1028
S'Jimmy White'
p1029
aS'1931'
p1030
aS'Centre'
p1031
aS'CapeProv'
p1032
aS'10'
p1033
aS'7'
aS'2'
aS'10'
p1034
aa(lp1035
S'Morris Zimerman'
p1036
aS'1931'
p1037
aS'Wing'
p1038
aS'Jansenville'
p1039
aS'4'
aS'4'
aS'1'
aS'3'
aa(lp1040
S'Nic Bierman'
p1041
aS'1931'
p1042
aS'Flanker'
p1043
aS'Potchefstroom'
p1044
aS'1'
aS'1'
aS'0'
aS'0'
aa(lp1045
S'Ponie van der Westhuizen'
p1046
aS'1931'
p1047
aS'Wing'
p1048
aS'Darling'
p1049
aS'3'
aS'3'
aS'0'
aS'0'
aa(lp1050
S'Franky Waring'
p1051
aS'1931'
p1052
aS'Centre'
p1053
aS'Cape Town'
p1054
aS'7'
aS'5'
aS'2'
aS'6'
aa(lp1055
S'Lucas Strachan'
p1056
aS'1932'
p1057
aS'Flanker'
p1058
aS'Parys'
p1059
aS'10'
p1060
aS'8'
aS'0'
aS'0'
aa(lp1061
S"George d'Alton"
p1062
aS'1933'
p1063
aS'Flanker'
p1064
aS'Cape Town'
p1065
aS'1'
aS'1'
aS'0'
aS'0'
aa(lp1066
S'Fronie Froneman'
p1067
aS'1933'
p1068
aS'Flanker'
p1069
aS'Cathcart'
p1070
aS'1'
aS'1'
aS'0'
aS'0'
aa(lp1071
S'Jack Gage'
p1072
aS'1926'
p1073
aS'Wing'
p1074
aS'Worcester'
p1075
aS'5'
aS'4'
aS'1'
aS'3'
aa(lp1076
S'Manie Geere'
p1077
aS'1933'
p1078
aS'Lock'
p1079
aS'Pretoria'
p1080
aS'5'
aS'3'
aS'0'
aS'0'
aa(lp1081
S'Fanie Louw'
p1082
aS'1933'
p1083
aS'Prop'
p1084
aS'Paarl District'
p1085
aS'12'
p1086
aS'8'
aS'2'
aS'6'
aa(lp1087
S'Freddy Turner'
p1088
aS'1933'
p1089
aS'Wing'
p1090
aS'Port Elizabeth'
p1091
aS'11'
p1092
aS'8'
aS'4'
aS'29'
p1093
aa(lp1094
S'Lappies Hattingh'
p1095
aS'1933'
p1096
aS'Flanker'
p1097
aS'Lindley'
p1098
aS'1'
aS'0'
aS'0'
aS'0'
aa(lp1099
S'Pat Lyster'
p1100
aS'1933'
p1101
aS'Wing'
p1102
aS'Durban'
p1103
aS'3'
aS'0'
aS'0'
aS'0'
aa(lp1104
S'Joe Nykamp'
p1105
aS'1933'
p1106
aS'Prop'
p1107
aS'Pretoria'
p1108
aS'1'
aS'0'
aS'0'
aS'0'
aa(lp1109
S'Paul Visser'
p1110
aS'1933'
p1111
aS'Prop'
p1112
aS'Lichtenburg'
p1113
aS'1'
aS'0'
aS'0'
aS'0'
aa(lp1114
S'Ginger Clark'
p1115
aS'1933'
p1116
aS'Flanker'
p1117
aS'Kimberley'
p1118
aS'1'
aS'1'
aS'0'
aS'0'
aa(lp1119
S'Fred Smollan'
p1120
aS'1933'
p1121
aS'Flanker'
p1122
aS'Uitenhage'
p1123
aS'3'
aS'2'
aS'0'
aS'0'
aa(lp1124
S'John Apsey'
p1125
aS'1933'
p1126
aS'No. 8'
p1127
aS'Cape Town'
p1128
aS'3'
aS'2'
aS'0'
aS'0'
aa(lp1129
S'Bunny Reid'
p1130
aS'1933'
p1131
aS'Fullback'
p1132
aS'East London'
p1133
aS'1'
aS'1'
aS'0'
aS'0'
aa(lp1134
S'Louis Babrow'
p1135
aS'1937'
p1136
aS'Centre'
p1137
aS'Smithfield'
p1138
aS'5'
aS'4'
aS'3'
aS'9'
aa(lp1139
S'Ebbo Bastard'
p1140
aS'1937'
p1141
aS'Flanker'
p1142
aS'Kokstad'
p1143
aS'6'
aS'4'
aS'2'
aS'6'
aa(lp1144
S'Jan Lotz'
p1145
aS'1937'
p1146
aS'Hooker'
p1147
aS'Krugersdorp'
p1148
aS'8'
aS'6'
aS'1'
aS'3'
aa(lp1149
S'Mauritz van den Berg'
p1150
aS'1937'
p1151
aS'Lock'
p1152
aS'Pretoria'
p1153
aS'4'
aS'3'
aS'0'
aS'0'
aa(lp1154
S'Dai Williams'
p1155
aS'1937'
p1156
aS'Wing'
p1157
aS'Mowbray'
p1158
aS'8'
aS'6'
aS'5'
aS'15'
p1159
aa(lp1160
S'Harry Martin'
p1161
aS'1937'
p1162
aS'Prop'
p1163
aS'Bloemfontein'
p1164
aS'1'
aS'1'
aS'0'
aS'0'
aa(lp1165
S'Vandie van de Vyver'
p1166
aS'1937'
p1167
aS'Fly-half'
p1168
aS'Seymour'
p1169
aS'1'
aS'1'
aS'0'
aS'0'
aa(lp1170
S'George van Reenen'
p1171
aS'1937'
p1172
aS'No. 8'
p1173
aS'Darling'
p1174
aS'2'
aS'1'
aS'2'
aS'6'
aa(lp1175
S'CB Jennings'
p1176
aS'1937'
p1177
aS'Prop'
p1178
aS"King William's Town"
p1179
aS'1'
aS'0'
aS'0'
aS'0'
aa(lp1180
S'Tony Harris'
p1181
aS'1937'
p1182
aS'Fly-half'
p1183
aS'Kimberley'
p1184
aS'5'
aS'4'
aS'1'
aS'3'
aa(lp1185
S'Flappie Lochner'
p1186
aS'1937'
p1187
aS'Centre'
p1188
aS'Van Rhynsdorp'
p1189
aS'3'
aS'3'
aS'1'
aS'3'
aa(lp1190
S'Piet de Wet'
p1191
aS'1938'
p1192
aS'Centre'
p1193
aS'Somerset East'
p1194
aS'3'
aS'2'
aS'0'
aS'0'
aa(lp1195
S'Ben du Toit'
p1196
aS'1938'
p1197
aS'Flanker'
p1198
aS'Malmesbury'
p1199
aS'3'
aS'2'
aS'1'
aS'3'
aa(lp1200
S'Roger Sherriff'
p1201
aS'1938'
p1202
aS'Lock'
p1203
aS'Kimberley'
p1204
aS'3'
aS'2'
aS'0'
aS'0'
aa(lp1205
S'Johnny Bester'
p1206
aS'1938'
p1207
aS'Wing'
p1208
aS'Moorreesburg'
p1209
aS'2'
aS'1'
aS'2'
aS'6'
aa(lp1210
S'George Smith'
p1211
aS'1938'
p1212
aS'Fullback'
p1213
aS'Humansdorp'
p1214
aS'1'
aS'0'
aS'0'
aS'0'
aa(lp1215
S'Hannes Brewis'
p1216
aS'1949'
p1217
aS'Fly-half'
p1218
aS'Oudtshoorn'
p1219
aS'10'
p1220
aS'10'
p1221
aS'1'
aS'18'
p1222
aa(lp1223
S'Felix du Plessis'
p1224
aS'1949'
p1225
aS'Lock'
p1226
aS'OFS'
p1227
aS'3'
aS'3'
aS'0'
aS'0'
aa(lp1228
S'Floors Duvenage'
p1229
aS'1949'
p1230
aS'Centre'
p1231
aS'Vryburg'
p1232
aS'2'
aS'2'
aS'0'
aS'0'
aa(lp1233
S'Okey Geffin'
p1234
aS'1949'
p1235
aS'Prop'
p1236
aS'Johannesburg'
p1237
aS'7'
aS'7'
aS'0'
aS'48'
p1238
aa(lp1239
S'Jorrie Jordaan'
p1240
aS'1949'
p1241
aS'Hooker'
p1242
aS'Cradock'
p1243
aS'4'
aS'4'
aS'0'
aS'0'
aa(lp1244
S'Bubbles Koch'
p1245
aS'1949'
p1246
aS'Lock'
p1247
aS'Hopefield'
p1248
aS'4'
aS'4'
aS'0'
aS'0'
aa(lp1249
S'Tjol Lategan'
p1250
aS'1949'
p1251
aS'Centre'
p1252
aS'Stellenbosch'
p1253
aS'11'
p1254
aS'10'
p1255
aS'3'
aS'9'
aa(lp1256
S'Buks Marais'
p1257
aS'1949'
p1258
aS'Wing'
p1259
aS'Cape Prov'
p1260
aS'5'
aS'4'
aS'1'
aS'10'
p1261
aa(lp1262
S'Cecil Moss'
p1263
aS'1949'
p1264
aS'Wing'
p1265
aS'Riversdale'
p1266
aS'4'
aS'4'
aS'0'
aS'0'
aa(lp1267
S'Hennie Muller'
p1268
aS'1949'
p1269
aS'No. 8'
p1270
aS'Tvl'
p1271
aS'13'
p1272
aS'12'
p1273
aS'3'
aS'16'
p1274
aa(lp1275
S'Louis Strydom'
p1276
aS'1949'
p1277
aS'Flanker'
p1278
aS'Robertson'
p1279
aS'2'
aS'2'
aS'0'
aS'0'
aa(lp1280
S'Fiks van der Merwe'
p1281
aS'1949'
p1282
aS'Flanker'
p1283
aS'Cradock'
p1284
aS'1'
aS'1'
aS'0'
aS'0'
aa(lp1285
S'Jack van der Schyff'
p1286
aS'1949'
p1287
aS'Fullback'
p1288
aS'Kimberley'
p1289
aS'5'
aS'4'
aS'0'
aS'10'
p1290
aa(lp1291
S'Hoppy van Jaarsveld'
p1292
aS'1949'
p1293
aS'Prop'
p1294
aS'Bloemhof'
p1295
aS'1'
aS'1'
aS'0'
aS'0'
aa(lp1296
S'Ballie Wahl'
p1297
aS'1949'
p1298
aS'Scrum-half'
p1299
aS'Paarl'
p1300
aS'1'
aS'1'
aS'0'
aS'0'
aa(lp1301
S'Salty du Rand'
p1302
aS'1949'
p1303
aS'Lock'
p1304
aS'Hofmeyr'
p1305
aS'21'
p1306
aS'15'
p1307
aS'4'
aS'12'
p1308
aa(lp1309
S'Fonnie du Toit'
p1310
aS'1949'
p1311
aS'Scrum-half'
p1312
aS'Vryburg'
p1313
aS'8'
aS'8'
aS'2'
aS'6'
aa(lp1314
S'Chris Koch'
p1315
aS'1949'
p1316
aS'Prop'
p1317
aS'Moorreesburg'
p1318
aS'22'
p1319
aS'15'
p1320
aS'5'
aS'15'
p1321
aa(lp1322
S'Ryk van Schoor'
p1323
aS'1949'
p1324
aS'Centre'
p1325
aS'CapePrv'
p1326
aS'12'
p1327
aS'11'
p1328
aS'2'
aS'6'
aa(lp1329
S'Flip Geel'
p1330
aS'1949'
p1331
aS'Lock'
p1332
aS'Boshof'
p1333
aS'1'
aS'1'
aS'0'
aS'0'
aa(lp1334
S'Willem Barnard'
p1335
aS'1949'
p1336
aS'Lock'
p1337
aS'Upington'
p1338
aS'2'
aS'2'
aS'0'
aS'0'
aa(lp1339
S'Carrots Geraghty'
p1340
aS'1949'
p1341
aS'Wing'
p1342
aS'Port Beaufort'
p1343
aS'1'
aS'1'
aS'0'
aS'0'
aa(lp1344
S'Basil Kenyon'
p1345
aS'1949'
p1346
aS'Flanker'
p1347
aS'Umtala'
p1348
aS'1'
aS'1'
aS'0'
aS'0'
aa(lp1349
S'Piet Malan'
p1350
aS'1949'
p1351
aS'Flanker'
p1352
aS'Parys'
p1353
aS'1'
aS'1'
aS'0'
aS'0'
aa(lp1354
S'Johnny Buchler'
p1355
aS'1951'
p1356
aS'Fullback'
p1357
aS'Johannesburg'
p1358
aS'10'
p1359
aS'9'
aS'0'
aS'8'
aa(lp1360
S'Willa Delport'
p1361
aS'1951'
p1362
aS'Hooker'
p1363
aS'Kirkwood'
p1364
aS'9'
aS'8'
aS'2'
aS'6'
aa(lp1365
S'Ernst Dinkelmann'
p1366
aS'1951'
p1367
aS'Lock'
p1368
aS'Ermelo'
p1369
aS'6'
aS'5'
aS'2'
aS'6'
aa(lp1370
S'Stephen Fry'
p1371
aS'1951'
p1372
aS'Flanker'
p1373
aS'Somerset West'
p1374
aS'13'
p1375
aS'10'
p1376
aS'0'
aS'0'
aa(lp1377
S'Paul Johnstone'
p1378
aS'1951'
p1379
aS'Wing'
p1380
aS'Johannesburg'
p1381
aS'9'
aS'7'
aS'2'
aS'11'
p1382
aa(lp1383
S'Basie van Wyk'
p1384
aS'1951'
p1385
aS'Flanker'
p1386
aS'Vryburg'
p1387
aS'10'
p1388
aS'8'
aS'6'
aS'18'
p1389
aa(lp1390
S'Chum Ochse'
p1391
aS'1951'
p1392
aS'Wing'
p1393
aS'Graaf-Reinet'
p1394
aS'7'
aS'6'
aS'3'
aS'9'
aa(lp1395
S'Jaap Bekker'
p1396
aS'1952'
p1397
aS'Prop'
p1398
aS'Dordrecht'
p1399
aS'15'
p1400
aS'10'
p1401
aS'1'
aS'3'
aa(lp1402
S'Hansie Oelofse'
p1403
aS'1953'
p1404
aS'Scrum-half'
p1405
aS'Johannesburg'
p1406
aS'4'
aS'3'
aS'2'
aS'6'
aa(lp1407
S'Ian Kirkpatrick'
p1408
aS'1953'
p1409
aS'Centre'
p1410
aS'Bloemfontein'
p1411
aS'13'
p1412
aS'8'
aS'0'
aS'0'
aa(lp1413
S'Dolf Bekker'
p1414
aS'1953'
p1415
aS'Wing'
p1416
aS'Dordrecht'
p1417
aS'2'
aS'2'
aS'1'
aS'3'
aa(lp1418
S'Steve Hoffman'
p1419
aS'1953'
p1420
aS'Wing'
p1421
aS'Parow'
p1422
aS'1'
aS'1'
aS'0'
aS'0'
aa(lp1423
S'Jan Pickard'
p1424
aS'1953'
p1425
aS'Lock'
p1426
aS'Paarl'
p1427
aS'4'
aS'3'
aS'0'
aS'0'
aa(lp1428
S'Natie Rens'
p1429
aS'1953'
p1430
aS'Fly-half'
p1431
aS'Potchefstroom'
p1432
aS'2'
aS'2'
aS'0'
aS'19'
p1433
aa(lp1434
S'Daantjie Rossouw'
p1435
aS'1953'
p1436
aS'Centre'
p1437
aS'Upington'
p1438
aS'2'
aS'2'
aS'1'
aS'3'
aa(lp1439
S'Harry Walker'
p1440
aS'1953'
p1441
aS'Prop'
p1442
aS'Durban'
p1443
aS'4'
aS'2'
aS'0'
aS'0'
aa(lp1444
S'Theuns Briers'
p1445
aS'1955'
p1446
aS'Wing'
p1447
aS'Otterkuil'
p1448
aS'7'
aS'3'
aS'5'
aS'15'
p1449
aa(lp1450
S'Johan Claassen'
p1451
aS'1955'
p1452
aS'Lock'
p1453
aS'Prince Albert'
p1454
aS'28'
p1455
aS'17'
p1456
aS'2'
aS'10'
p1457
aa(lp1458
S'Amos du Plooy'
p1459
aS'1955'
p1460
aS'Prop'
p1461
aS'nr Douglas'
p1462
aS'1'
aS'0'
aS'0'
aS'0'
aa(lp1463
S'Tommy Gentles'
p1464
aS'1955'
p1465
aS'Scrum-half'
p1466
aS'Johannesburg'
p1467
aS'6'
aS'3'
aS'0'
aS'0'
aa(lp1468
S'Colin Kroon'
p1469
aS'1955'
p1470
aS'Hooker'
p1471
aS'Graaf-Reinet'
p1472
aS'1'
aS'0'
aS'0'
aS'0'
aa(lp1473
S'Daan Retief'
p1474
aS'1955'
p1475
aS'Flanker'
p1476
aS'Lichtenburg'
p1477
aS'9'
aS'5'
aS'4'
aS'12'
p1478
aa(lp1479
S'Des Sinclair'
p1480
aS'1955'
p1481
aS'Centre'
p1482
aS'Johannesburg'
p1483
aS'4'
aS'2'
aS'0'
aS'0'
aa(lp1484
S'Sias Swart'
p1485
aS'1955'
p1486
aS'Wing'
p1487
aS'Ofjiwarongo'
p1488
aS'1'
aS'0'
aS'1'
aS'3'
aa(lp1489
S'Clive Ulyate'
p1490
aS'1955'
p1491
aS'Fly-half'
p1492
aS'Johannesburg'
p1493
aS'7'
aS'3'
aS'1'
aS'6'
aa(lp1494
S'Tom van Vollenhoven'
p1495
aS'1955'
p1496
aS'Wing'
p1497
aS'OFS'
p1498
aS'7'
aS'4'
aS'4'
aS'15'
p1499
aa(lp1500
S'Dawie Ackermann'
p1501
aS'1955'
p1502
aS'Flanker'
p1503
aS'Aliwal North'
p1504
aS'8'
aS'4'
aS'1'
aS'3'
aa(lp1505
S'Roy Dryburgh'
p1506
aS'1955'
p1507
aS'Fullback'
p1508
aS'Cape Town'
p1509
aS'8'
aS'4'
aS'3'
aS'28'
p1510
aa(lp1511
S'Wilf Rosenberg'
p1512
aS'1955'
p1513
aS'Centre'
p1514
aS'Cape Town'
p1515
aS'5'
aS'2'
aS'2'
aS'6'
aa(lp1516
S'Bertus van der Merwe'
p1517
aS'1955'
p1518
aS'Hooker'
p1519
aS'CapeProv'
p1520
aS'12'
p1521
aS'6'
aS'0'
aS'0'
aa(lp1522
S'Butch Lochner'
p1523
aS'1955'
p1524
aS'No. 8'
p1525
aS'Vredenburg'
p1526
aS'9'
aS'3'
aS'2'
aS'6'
aa(lp1527
S'Popeye Strydom'
p1528
aS'1955'
p1529
aS'Scrum-half'
p1530
aS'Kareedouw'
p1531
aS'6'
aS'2'
aS'0'
aS'0'
aa(lp1532
S'Pat Montini'
p1533
aS'1956'
p1534
aS'Centre'
p1535
aS'Cape Town'
p1536
aS'2'
aS'2'
aS'0'
aS'0'
aa(lp1537
S'Jeremy Nel'
p1538
aS'1956'
p1539
aS'Centre'
p1540
aS'Louis Trichardt'
p1541
aS'8'
aS'3'
aS'1'
aS'3'
aa(lp1542
S'Brian Pfaff'
p1543
aS'1956'
p1544
aS'Fly-half'
p1545
aS'Durban'
p1546
aS'1'
aS'1'
aS'0'
aS'0'
aa(lp1547
S'Basie Vivier'
p1548
aS'1956'
p1549
aS'Fullback'
p1550
aS'Pietersburg'
p1551
aS'5'
aS'3'
aS'0'
aS'11'
p1552
aa(lp1553
S'Jan du Preez'
p1554
aS'1956'
p1555
aS'Wing'
p1556
aS'Piketberg'
p1557
aS'1'
aS'0'
aS'0'
aS'0'
aa(lp1558
S'Pee-wee Howe'
p1559
aS'1956'
p1560
aS'Centre'
p1561
aS'Port Nolloth'
p1562
aS'2'
aS'0'
aS'1'
aS'3'
aa(lp1563
S'James Starke'
p1564
aS'1956'
p1565
aS'Flanker'
p1566
aS'Durbanville'
p1567
aS'1'
aS'0'
aS'0'
aS'0'
aa(lp1568
S'Piet du Toit'
p1569
aS'1958'
p1570
aS'Prop'
p1571
aS'Petrusville'
p1572
aS'14'
p1573
aS'9'
aS'0'
aS'0'
aa(lp1574
S'Loftie Fourie'
p1575
aS'1958'
p1576
aS'Wing'
p1577
aS'Outdshoorn'
p1578
aS'2'
aS'0'
aS'1'
aS'3'
aa(lp1579
S'Mickey Gerber'
p1580
aS'1958'
p1581
aS'Fullback'
p1582
aS'Port Elizabeth'
p1583
aS'3'
aS'1'
aS'0'
aS'8'
aa(lp1584
S'Martin Pelser'
p1585
aS'1958'
p1586
aS'Flanker'
p1587
aS'Johannesburg'
p1588
aS'11'
p1589
aS'7'
aS'2'
aS'6'
aa(lp1590
S'Jan Prinsloo'
p1591
aS'1958'
p1592
aS'Wing'
p1593
aS'Pretoria'
p1594
aS'2'
aS'0'
aS'0'
aS'0'
aa(lp1595
S'Johan Steenekamp'
p1596
aS'1958'
p1597
aS'Lock'
p1598
aS'Alberton'
p1599
aS'1'
aS'0'
aS'0'
aS'0'
aa(lp1600
S'Hugo van Zyl'
p1601
aS'1958'
p1602
aS'Flanker'
p1603
aS'Porterville'
p1604
aS'17'
p1605
aS'12'
p1606
aS'4'
aS'12'
p1607
aa(lp1608
S'Joe Kaminer'
p1609
aS'1958'
p1610
aS'Centre'
p1611
aS'Warmbad'
p1612
aS'1'
aS'0'
aS'0'
aS'0'
aa(lp1613
S'Abie Malan'
p1614
aS'1958'
p1615
aS'Hooker'
p1616
aS'Kenhardt'
p1617
aS'18'
p1618
aS'9'
aS'1'
aS'3'
aa(lp1619
S'Louis Schmidt'
p1620
aS'1958'
p1621
aS'Flanker'
p1622
aS'Middelburg-Cape'
p1623
aS'2'
aS'1'
aS'0'
aS'0'
aa(lp1624
S'Alan Skene'
p1625
aS'1958'
p1626
aS'Centre'
p1627
aS'Cape Town'
p1628
aS'1'
aS'0'
aS'0'
aS'0'
aa(lp1629
S'Peter Allen'
p1630
aS'1960'
p1631
aS'Lock'
p1632
aS'Port Elizabeth'
p1633
aS'1'
aS'1'
aS'0'
aS'0'
aa(lp1634
S'Martiens Bekker'
p1635
aS'1960'
p1636
aS'Prop'
p1637
aS'Dordrecht'
p1638
aS'1'
aS'1'
aS'0'
aS'0'
aa(lp1639
S'Jannie Engelbrecht'
p1640
aS'1960'
p1641
aS'Wing'
p1642
aS'Cape Town'
p1643
aS'33'
p1644
aS'19'
p1645
aS'8'
aS'24'
p1646
aa(lp1647
S'John Gainsford'
p1648
aS'1960'
p1649
aS'Centre'
p1650
aS'Germiston'
p1651
aS'33'
p1652
aS'18'
p1653
aS'8'
aS'24'
p1654
aa(lp1655
S'Mannetjies Gericke'
p1656
aS'1960'
p1657
aS'Scrum-half'
p1658
aS'Kimberley'
p1659
aS'1'
aS'1'
aS'1'
aS'3'
aa(lp1660
S'Dougie Holton'
p1661
aS'1960'
p1662
aS'Prop'
p1663
aS'Cape Town'
p1664
aS'1'
aS'1'
aS'0'
aS'0'
aa(lp1665
S'Doug Hopwood'
p1666
aS'1960'
p1667
aS'No. 8'
p1668
aS'Cape Town'
p1669
aS'22'
p1670
aS'15'
p1671
aS'5'
aS'15'
p1672
aa(lp1673
S'Dave Stewart'
p1674
aS'1960'
p1675
aS'Centre'
p1676
aS'?'
aS'11'
p1677
aS'7'
aS'1'
aS'9'
aa(lp1678
S'Robert Twigge'
p1679
aS'1960'
p1680
aS'Wing'
p1681
aS'?'
aS'1'
aS'1'
aS'0'
aS'0'
aa(lp1682
S'Des van Jaarsveldt'
p1683
aS'1960'
p1684
aS'Flanker'
p1685
aS'South Rhodesia'
p1686
aS'1'
aS'1'
aS'1'
aS'3'
aa(lp1687
S'Mike Antelme'
p1688
aS'1960'
p1689
aS'Wing'
p1690
aS'Durban'
p1691
aS'5'
aS'2'
aS'0'
aS'0'
aa(lp1692
S'Dick Lockyear'
p1693
aS'1960'
p1694
aS'Scrum-half'
p1695
aS'?'
aS'6'
aS'3'
aS'0'
aS'20'
p1696
aa(lp1697
S'Avril Malan'
p1698
aS'1960'
p1699
aS'Lock'
p1700
aS'Pretoria'
p1701
aS'16'
p1702
aS'8'
aS'0'
aS'0'
aa(lp1703
S'Lofty Nel'
p1704
aS'1960'
p1705
aS'Prop, No. 8'
p1706
aS'Pretoria'
p1707
aS'11'
p1708
aS'5'
aS'0'
aS'0'
aa(lp1709
S'Keith Oxlee'
p1710
aS'1960'
p1711
aS'Fly-half'
p1712
aS'Johannesburg'
p1713
aS'19'
p1714
aS'13'
p1715
aS'5'
aS'88'
p1716
aa(lp1717
S'Hennie van Zyl'
p1718
aS'1960'
p1719
aS'Wing'
p1720
aS'?'
aS'10'
p1721
aS'8'
aS'6'
aS'18'
p1722
aa(lp1723
S'Fanie Kuhn'
p1724
aS'1960'
p1725
aS'Prop'
p1726
aS'Krugersdorp'
p1727
aS'19'
p1728
aS'12'
p1729
aS'0'
aS'0'
aa(lp1730
S'Lionel Wilson'
p1731
aS'1960'
p1732
aS'Fullback'
p1733
aS'Cape Town'
p1734
aS'27'
p1735
aS'14'
p1736
aS'0'
aS'6'
aa(lp1737
S'Stompie van der Merwe'
p1738
aS'1960'
p1739
aS'Lock'
p1740
aS'?'
aS'5'
aS'2'
aS'0'
aS'0'
aa(lp1741
S'Ronnie Hill'
p1742
aS'1960'
p1743
aS'Hooker'
p1744
aS'Johannesburg'
p1745
aS'7'
aS'6'
aS'0'
aS'0'
aa(lp1746
S'Mannetjie Roux'
p1747
aS'1960'
p1748
aS'Centre'
p1749
aS'Victoria West'
p1750
aS'27'
p1751
aS'18'
p1752
aS'6'
aS'18'
p1753
aa(lp1754
S'Piet Uys'
p1755
aS'1960'
p1756
aS'Scrum-half'
p1757
aS'Paarl'
p1758
aS'12'
p1759
aS'10'
p1760
aS'0'
aS'0'
aa(lp1761
S'Attie Baard'
p1762
aS'1960'
p1763
aS'No. 8'
p1764
aS'Kakamas'
p1765
aS'1'
aS'1'
aS'0'
aS'0'
aa(lp1766
S'Frik du Preez'
p1767
aS'1961'
p1768
aS'Lock'
p1769
aS'Rustenberg'
p1770
aS'38'
p1771
aS'24'
p1772
aS'1'
aS'11'
p1773
aa(lp1774
S'Colin Greenwood'
p1775
aS'1961'
p1776
aS'Centre'
p1777
aS'Cape Town'
p1778
aS'1'
aS'1'
aS'2'
aS'6'
aa(lp1779
S'Charlie Nimb'
p1780
aS'1961'
p1781
aS'Fly-half'
p1782
aS'Paarl'
p1783
aS'1'
aS'1'
aS'0'
aS'9'
aa(lp1784
S'Ben-Piet van Zyl'
p1785
aS'1961'
p1786
aS'Wing'
p1787
aS'South Rhodesia'
p1788
aS'1'
aS'1'
aS'2'
aS'6'
aa(lp1789
S'Piet van Zyl'
p1790
aS'1961'
p1791
aS'Lock'
p1792
aS'?'
aS'1'
aS'1'
aS'0'
aS'0'
aa(lp1793
S'Mof Myburgh'
p1794
aS'1962'
p1795
aS'Prop'
p1796
aS'Senekal'
p1797
aS'18'
p1798
aS'12'
p1799
aS'0'
aS'0'
aa(lp1800
S'Ormy Taylor'
p1801
aS'1962'
p1802
aS'Wing'
p1803
aS'?'
aS'1'
aS'0'
aS'0'
aS'0'
aa(lp1804
S'Wang Wyness'
p1805
aS'1962'
p1806
aS'Centre'
p1807
aS'Colesberg'
p1808
aS'5'
aS'3'
aS'1'
aS'3'
aa(lp1809
S'Chris Bezuidenhout'
p1810
aS'1962'
p1811
aS'Prop'
p1812
aS'?'
aS'3'
aS'3'
aS'0'
aS'0'
aa(lp1813
S'Hannes Botha'
p1814
aS'1962'
p1815
aS'Flanker'
p1816
aS'Potgietersrus'
p1817
aS'3'
aS'3'
aS'0'
aS'0'
aa(lp1818
S'Dawie de Villiers'
p1819
aS'1962'
p1820
aS'Scrum-half'
p1821
aS'Burgersdorp'
p1822
aS'25'
p1823
aS'15'
p1824
aS'3'
aS'9'
aa(lp1825
S'Tommy Bedford'
p1826
aS'1963'
p1827
aS'No. 8'
p1828
aS'Bloemfontein'
p1829
aS'25'
p1830
aS'13'
p1831
aS'1'
aS'3'
aa(lp1832
S'Gert Cilliers'
p1833
aS'1963'
p1834
aS'Wing'
p1835
aS'Williston'
p1836
aS'3'
aS'2'
aS'1'
aS'3'
aa(lp1837
S'Dick Putter'
p1838
aS'1963'
p1839
aS'Prop'
p1840
aS'?'
aS'3'
aS'2'
aS'0'
aS'0'
aa(lp1841
S'Trix Truter'
p1842
aS'1963'
p1843
aS'Wing'
p1844
aS'?'
aS'3'
aS'1'
aS'1'
aS'3'
aa(lp1845
S'Hannes Marais'
p1846
aS'1963'
p1847
aS'Prop'
p1848
aS'Somerset East'
p1849
aS'35'
p1850
aS'19'
p1851
aS'1'
aS'3'
aa(lp1852
S'Poens Prinsloo'
p1853
aS'1963'
p1854
aS'No. 8'
p1855
aS'?'
aS'1'
aS'0'
aS'0'
aS'0'
aa(lp1856
S'Norman Riley'
p1857
aS'1963'
p1858
aS'Fly-half'
p1859
aS'?'
aS'1'
aS'0'
aS'0'
aS'0'
aa(lp1860
S'Haas Schoeman'
p1861
aS'1963'
p1862
aS'Flanker'
p1863
aS'Prince Albert'
p1864
aS'7'
aS'1'
aS'0'
aS'0'
aa(lp1865
S'Nelie Smith'
p1866
aS'1963'
p1867
aS'Scrum-half'
p1868
aS'?'
aS'7'
aS'2'
aS'1'
aS'12'
p1869
aa(lp1870
S'Corra Dirksen'
p1871
aS'1963'
p1872
aS'Wing'
p1873
aS'?'
aS'10'
p1874
aS'5'
aS'3'
aS'9'
aa(lp1875
S'Tiny Naude'
p1876
aS'1963'
p1877
aS'Lock'
p1878
aS'Warrenton'
p1879
aS'14'
p1880
aS'7'
aS'2'
aS'47'
p1881
aa(lp1882
S'Gawie Carelse'
p1883
aS'1964'
p1884
aS'Lock'
p1885
aS'Port Elizabeth'
p1886
aS'14'
p1887
aS'9'
aS'0'
aS'0'
aa(lp1888
S'Mike Lawless'
p1889
aS'1964'
p1890
aS'Fly-half'
p1891
aS'Cape Town'
p1892
aS'4'
aS'0'
aS'0'
aS'0'
aa(lp1893
S'Don Walton'
p1894
aS'1964'
p1895
aS'Hooker'
p1896
aS'Durban'
p1897
aS'8'
aS'3'
aS'0'
aS'0'
aa(lp1898
S'Wynand Mans'
p1899
aS'1965'
p1900
aS'Centre'
p1901
aS'?'
aS'2'
aS'0'
aS'1'
aS'5'
aa(lp1902
S'Snowy Suter'
p1903
aS'1965'
p1904
aS'Flanker'
p1905
aS'?'
aS'2'
aS'0'
aS'0'
aS'0'
aa(lp1906
S'Jannie Barnard'
p1907
aS'1965'
p1908
aS'Fly-half'
p1909
aS'Johannesburg'
p1910
aS'5'
aS'1'
aS'0'
aS'0'
aa(lp1911
S'Dirkie de Vos'
p1912
aS'1965'
p1913
aS'Scrum-half'
p1914
aS'Kroonstad'
p1915
aS'3'
aS'1'
aS'0'
aS'0'
aa(lp1916
S'Piet Botha'
p1917
aS'1965'
p1918
aS'Lock'
p1919
aS'Florida'
p1920
aS'2'
aS'0'
aS'0'
aS'0'
aa(lp1921
S'Gertjie Brynard'
p1922
aS'1965'
p1923
aS'Wing'
p1924
aS'Calvinia'
p1925
aS'7'
aS'3'
aS'2'
aS'6'
aa(lp1926
S'Andy MacDonald'
p1927
aS'1965'
p1928
aS'Prop'
p1929
aS'Springs'
p1930
aS'5'
aS'1'
aS'0'
aS'0'
aa(lp1931
S'Hambly Parker'
p1932
aS'1965'
p1933
aS'Prop'
p1934
aS'Somerset East'
p1935
aS'2'
aS'0'
aS'0'
aS'0'
aa(lp1936
S'Jan Ellis'
p1937
aS'1965'
p1938
aS'Flanker'
p1939
aS'Brakpan'
p1940
aS'38'
p1941
aS'22'
p1942
aS'7'
aS'21'
p1943
aa(lp1944
S'Sakkie van Zyl'
p1945
aS'1965'
p1946
aS'Prop'
p1947
aS'?'
aS'4'
aS'1'
aS'0'
aS'0'
aa(lp1948
S'Piet Goosen'
p1949
aS'1965'
p1950
aS'Lock'
p1951
aS'?'
aS'1'
aS'0'
aS'0'
aS'0'
aa(lp1952
S'HO de Villiers'
p1953
aS'1967'
p1954
aS'Fullback'
p1955
aS'Johannesburg'
p1956
aS'14'
p1957
aS'8'
aS'0'
aS'26'
p1958
aa(lp1959
S'Albie de Waal'
p1960
aS'1967'
p1961
aS'No. 8'
p1962
aS'Moorreesburg'
p1963
aS'4'
aS'2'
aS'0'
aS'0'
aa(lp1964
S'Piet Greyling'
p1965
aS'1967'
p1966
aS'Flanker'
p1967
aS'Zastron'
p1968
aS'25'
p1969
aS'16'
p1970
aS'5'
aS'15'
p1971
aa(lp1972
S'Gert Kotze'
p1973
aS'1967'
p1974
aS'Prop'
p1975
aS'Vredendal'
p1976
aS'4'
aS'2'
aS'0'
aS'0'
aa(lp1977
S'Tiny Neethling'
p1978
aS'1967'
p1979
aS'Prop'
p1980
aS'CapeProv'
p1981
aS'8'
aS'4'
aS'0'
aS'0'
aa(lp1982
S'Eben Olivier'
p1983
aS'1967'
p1984
aS'Centre, Scrum-half'
p1985
aS'Kirkswood'
p1986
aS'16'
p1987
aS'11'
p1988
aS'5'
aS'15'
p1989
aa(lp1990
S'Gys Pitzer'
p1991
aS'1967'
p1992
aS'Hooker'
p1993
aS'Louis Trichardt'
p1994
aS'12'
p1995
aS'9'
aS'0'
aS'0'
aa(lp1996
S'Piet Visagie'
p1997
aS'1967'
p1998
aS'Fly-half'
p1999
aS'Kimberley'
p2000
aS'25'
p2001
aS'18'
p2002
aS'6'
aS'130'
p2003
aa(lp2004
S'Syd Nomis'
p2005
aS'1967'
p2006
aS'Wing'
p2007
aS'Johannesburg'
p2008
aS'25'
p2009
aS'16'
p2010
aS'6'
aS'18'
p2011
aa(lp2012
S'Rodney Gould'
p2013
aS'1968'
p2014
aS'Fullback'
p2015
aS"King William's Town"
p2016
aS'4'
aS'3'
aS'0'
aS'3'
aa(lp2017
S'Thys Lourens'
p2018
aS'1968'
p2019
aS'Flanker'
p2020
aS'Vryheid'
p2021
aS'3'
aS'2'
aS'1'
aS'3'
aa(lp2022
S'Andre de Wet'
p2023
aS'1969'
p2024
aS'Lock'
p2025
aS'Kokstad'
p2026
aS'3'
aS'2'
aS'0'
aS'0'
aa(lp2027
S'Gert Muller'
p2028
aS'1969'
p2029
aS'Wing'
p2030
aS'Natal'
p2031
aS'14'
p2032
aS'6'
aS'4'
aS'12'
p2033
aa(lp2034
S'Charlie Cockrell'
p2035
aS'1969'
p2036
aS'Hooker'
p2037
aS'Cape Town'
p2038
aS'3'
aS'0'
aS'0'
aS'0'
aa(lp2039
S'Tonie Roux'
p2040
aS'1969'
p2041
aS'Centre'
p2042
aS'Pretoria'
p2043
aS'7'
aS'0'
aS'0'
aS'0'
aa(lp2044
S'Andy van der Watt'
p2045
aS'1969'
p2046
aS'Wing'
p2047
aS'Krugersdorp'
p2048
aS'3'
aS'0'
aS'0'
aS'0'
aa(lp2049
S'Albie Bates'
p2050
aS'1969'
p2051
aS'Back-row'
p2052
aS'Germiston'
p2053
aS'4'
aS'1'
aS'0'
aS'0'
aa(lp2054
S'Sakkie de Klerk'
p2055
aS'1969'
p2056
aS'Lock'
p2057
aS'Calvinia'
p2058
aS'3'
aS'0'
aS'0'
aS'0'
aa(lp2059
S'JP van der Merwe'
p2060
aS'1970'
p2061
aS'Centre'
p2062
aS'Uitenhage'
p2063
aS'1'
aS'0'
aS'0'
aS'0'
aa(lp2064
S'Joggie Jansen'
p2065
aS'1970'
p2066
aS'Centre'
p2067
aS'Griekwastad'
p2068
aS'10'
p2069
aS'7'
aS'1'
aS'3'
aa(lp2070
S'Ian McCallum'
p2071
aS'1970'
p2072
aS'Fullback'
p2073
aS"N'Kana"
p2074
aS'11'
p2075
aS'7'
aS'0'
aS'62'
p2076
aa(lp2077
S'Johan Spies'
p2078
aS'1970'
p2079
aS'Lock'
p2080
aS'Harrismith'
p2081
aS'4'
aS'3'
aS'0'
aS'0'
aa(lp2082
S'Piston van Wyk'
p2083
aS'1970'
p2084
aS'Hooker'
p2085
aS'Vereeniging'
p2086
aS'15'
p2087
aS'9'
aS'0'
aS'0'
aa(lp2088
S'Robbie Barnard'
p2089
aS'1970'
p2090
aS'Hooker'
p2091
aS'Pretoria'
p2092
aS'1'
aS'0'
aS'0'
aS'0'
aa(lp2093
S'Peter Cronje'
p2094
aS'1971'
p2095
aS'Centre'
p2096
aS'Johannesburg'
p2097
aS'7'
aS'4'
aS'3'
aS'10'
p2098
aa(lp2099
S'Sakkie Sauermann'
p2100
aS'1971'
p2101
aS'Prop'
p2102
aS'Alberton'
p2103
aS'5'
aS'2'
aS'0'
aS'0'
aa(lp2104
S'Joggie Viljoen'
p2105
aS'1971'
p2106
aS'Scrum-half'
p2107
aS'Cape Town'
p2108
aS'6'
aS'4'
aS'2'
aS'6'
aa(lp2109
S'John Williams'
p2110
aS'1971'
p2111
aS'Lock'
p2112
aS'Johannesburg'
p2113
aS'13'
p2114
aS'7'
aS'0'
aS'0'
aa(lp2115
S'Morne du Plessis'
p2116
aS'1971'
p2117
aS'No. 8'
p2118
aS'Krugersdorp'
p2119
aS'22'
p2120
aS'18'
p2121
aS'3'
aS'12'
p2122
aa(lp2123
S'Hannes Viljoen'
p2124
aS'1971'
p2125
aS'Wing'
p2126
aS'Elliott'
p2127
aS'3'
aS'3'
aS'2'
aS'6'
aa(lp2128
S'Martiens Louw'
p2129
aS'1971'
p2130
aS'Prop'
p2131
aS'Germiston'
p2132
aS'2'
aS'2'
aS'0'
aS'0'
aa(lp2133
S'Niek Bezuidenhout'
p2134
aS'1972'
p2135
aS'Prop'
p2136
aS'Delmas'
p2137
aS'9'
aS'5'
aS'0'
aS'0'
aa(lp2138
S'Ray Carlson'
p2139
aS'1972'
p2140
aS'Fullback'
p2141
aS'East London'
p2142
aS'1'
aS'0'
aS'0'
aS'0'
aa(lp2143
S'Piet du Plessis'
p2144
aS'1972'
p2145
aS'Lock'
p2146
aS'Nylstroom'
p2147
aS'1'
aS'0'
aS'0'
aS'0'
aa(lp2148
S'Dawie Snyman'
p2149
aS'1972'
p2150
aS'Fullback'
p2151
aS'Johannesburg'
p2152
aS'10'
p2153
aS'6'
aS'1'
aS'24'
p2154
aa(lp2155
S'Boland Coetzee'
p2156
aS'1974'
p2157
aS'Flanker'
p2158
aS'Porterville'
p2159
aS'6'
aS'4'
aS'0'
aS'0'
aa(lp2160
S'Kevin de Klerk'
p2161
aS'1974'
p2162
aS'Lock'
p2163
aS'Johannesburg'
p2164
aS'13'
p2165
aS'9'
aS'0'
aS'0'
aa(lp2166
S'Roy McCallum'
p2167
aS'1974'
p2168
aS'Scrum-half'
p2169
aS'Kitwe'
p2170
aS'1'
aS'0'
aS'0'
aS'0'
aa(lp2171
S'Kol Oosthuizen'
p2172
aS'1974'
p2173
aS'Centre'
p2174
aS'Cape Prov'
p2175
aS'9'
aS'7'
aS'2'
aS'8'
aa(lp2176
S'Chris Pope'
p2177
aS'1974'
p2178
aS'Wing'
p2179
aS'Stellenbosch'
p2180
aS'9'
aS'4'
aS'1'
aS'4'
aa(lp2181
S'Peter Whipp'
p2182
aS'1974'
p2183
aS'Centre'
p2184
aS'East London'
p2185
aS'8'
aS'6'
aS'1'
aS'4'
aa(lp2186
S'Paul Bayvel'
p2187
aS'1974'
p2188
aS'Scrum-half'
p2189
aS'Johannesburg'
p2190
aS'10'
p2191
aS'7'
aS'0'
aS'0'
aa(lp2192
S'Gerald Bosch'
p2193
aS'1974'
p2194
aS'Fly-half'
p2195
aS'Vereeniging'
p2196
aS'9'
aS'7'
aS'0'
aS'89'
p2197
aa(lp2198
S'Dave Frederickson'
p2199
aS'1974'
p2200
aS'Hooker'
p2201
aS'Lichtenburg'
p2202
aS'3'
aS'2'
aS'0'
aS'0'
aa(lp2203
S'Gerrie Germishuys'
p2204
aS'1974'
p2205
aS'Wing'
p2206
aS'Port Shepstone'
p2207
aS'20'
p2208
aS'16'
p2209
aS'12'
p2210
aS'48'
p2211
aa(lp2212
S'Dugald Macdonald'
p2213
aS'1974'
p2214
aS'No. 8'
p2215
aS'Durban'
p2216
aS'1'
aS'0'
aS'0'
aS'0'
aa(lp2217
S'Jackie Snyman'
p2218
aS'1974'
p2219
aS'Fly-half'
p2220
aS'Johannesburg'
p2221
aS'3'
aS'0'
aS'0'
aS'18'
p2222
aa(lp2223
S'Leon Vogel'
p2224
aS'1974'
p2225
aS'Wing'
p2226
aS'Aliwal North'
p2227
aS'1'
aS'0'
aS'0'
aS'0'
aa(lp2228
S'Johan de Bruyn'
p2229
aS'1974'
p2230
aS'Lock'
p2231
aS'Reivilo'
p2232
aS'1'
aS'0'
aS'0'
aS'0'
aa(lp2233
S'Polla Fourie'
p2234
aS'1974'
p2235
aS'Flanker'
p2236
aS'Uitenhage'
p2237
aS'1'
aS'0'
aS'0'
aS'0'
aa(lp2238
S'Klippies Kritzinger'
p2239
aS'1974'
p2240
aS'Flanker'
p2241
aS'Harrismith'
p2242
aS'7'
aS'5'
aS'1'
aS'4'
aa(lp2243
S'Jan Schlebusch'
p2244
aS'1974'
p2245
aS'Centre'
p2246
aS'Kroonstad'
p2247
aS'3'
aS'1'
aS'0'
aS'0'
aa(lp2248
S'Gerrie Sonnekus'
p2249
aS'1974'
p2250
aS'No. 8'
p2251
aS'Senekal'
p2252
aS'3'
aS'2'
aS'1'
aS'4'
aa(lp2253
S'Moaner van Heerden'
p2254
aS'1974'
p2255
aS'Lock'
p2256
aS'Pretoria'
p2257
aS'17'
p2258
aS'13'
p2259
aS'1'
aS'4'
aa(lp2260
S'Kleintjie Grobler'
p2261
aS'1974'
p2262
aS'Back-row'
p2263
aS'Pretoria'
p2264
aS'3'
aS'2'
aS'1'
aS'4'
aa(lp2265
S'Rampie Stander'
p2266
aS'1974'
p2267
aS'Prop'
p2268
aS'Cape Town'
p2269
aS'5'
aS'3'
aS'0'
aS'0'
aa(lp2270
S'Robert Cockrell'
p2271
aS'1974'
p2272
aS'Hooker'
p2273
aS'Cape Town'
p2274
aS'11'
p2275
aS'8'
aS'1'
aS'4'
aa(lp2276
S'Tossie Fourie'
p2277
aS'1974'
p2278
aS'Wing'
p2279
aS'Uitenhage'
p2280
aS'4'
aS'4'
aS'1'
aS'10'
p2281
aa(lp2282
S'Ian Robertson'
p2283
aS'1974'
p2284
aS'Centre'
p2285
aS'South Rhodesia'
p2286
aS'5'
aS'4'
aS'0'
aS'3'
aa(lp2287
S'Willem Stapelberg'
p2288
aS'1974'
p2289
aS'Wing'
p2290
aS'Pretoria'
p2291
aS'2'
aS'2'
aS'2'
aS'8'
aa(lp2292
S'Andre Bestbier'
p2293
aS'1974'
p2294
aS'Hooker'
p2295
aS'Potchefstroom'
p2296
aS'1'
aS'1'
aS'0'
aS'0'
aa(lp2297
S'Derek van den Berg'
p2298
aS'1975'
p2299
aS'Prop'
p2300
aS'Cape Town'
p2301
aS'4'
aS'3'
aS'0'
aS'0'
aa(lp2302
S'Edrich Krantz'
p2303
aS'1976'
p2304
aS'Wing'
p2305
aS'Senekal'
p2306
aS'2'
aS'2'
aS'1'
aS'4'
aa(lp2307
S'De Wet Ras'
p2308
aS'1976'
p2309
aS'Utility back'
p2310
aS'Harrismith'
p2311
aS'2'
aS'2'
aS'0'
aS'0'
aa(lp2312
S'Theuns Stofberg'
p2313
aS'1976'
p2314
aS'Flanker'
p2315
aS'Villiers'
p2316
aS'21'
p2317
aS'17'
p2318
aS'6'
aS'24'
p2319
aa(lp2320
S'Johan Strauss'
p2321
aS'1976'
p2322
aS'Prop'
p2323
aS'Alberton'
p2324
aS'3'
aS'3'
aS'0'
aS'0'
aa(lp2325
S'Robbie Blair'
p2326
aS'1977'
p2327
aS'Fly-half'
p2328
aS'Johannesburg'
p2329
aS'1'
aS'1'
aS'0'
aS'21'
p2330
aa(lp2331
S'Daan du Plessis'
p2332
aS'1977'
p2333
aS'Prop'
p2334
aS'Potchefstroom'
p2335
aS'2'
aS'2'
aS'0'
aS'0'
aa(lp2336
S'Dirk Froneman'
p2337
aS'1977'
p2338
aS'Centre'
p2339
aS'Wynburg'
p2340
aS'1'
aS'1'
aS'0'
aS'0'
aa(lp2341
S'Louis Moolman'
p2342
aS'1977'
p2343
aS'Lock'
p2344
aS'Pretoria'
p2345
aS'24'
p2346
aS'19'
p2347
aS'0'
aS'0'
aa(lp2348
S'Hermanus Potgieter'
p2349
aS'1977'
p2350
aS'Wing'
p2351
aS'Kirkwood'
p2352
aS'1'
aS'1'
aS'1'
aS'4'
aa(lp2353
S'Piet Veldsman'
p2354
aS'1977'
p2355
aS'Flanker'
p2356
aS'George'
p2357
aS'1'
aS'1'
aS'0'
aS'0'
aa(lp2358
S'Christo Wagenaar'
p2359
aS'1977'
p2360
aS'Centre'
p2361
aS'Krugersdorp'
p2362
aS'1'
aS'1'
aS'0'
aS'0'
aa(lp2363
S'Barry Wolmarans'
p2364
aS'1977'
p2365
aS'Scrum-half'
p2366
aS'Oudtshoorn'
p2367
aS'1'
aS'1'
aS'1'
aS'4'
aa(lp2368
S'Naas Botha'
p2369
aS'1980'
p2370
aS'Fly-half'
p2371
aS'Breyten'
p2372
aS'28'
p2373
aS'19'
p2374
aS'2'
aS'312'
p2375
aa(lp2376
S'Tommy du Plessis'
p2377
aS'1980'
p2378
aS'Scrum-half'
p2379
aS'Elsburg'
p2380
aS'2'
aS'2'
aS'1'
aS'4'
aa(lp2381
S'Willie du Plessis'
p2382
aS'1980'
p2383
aS'Centre'
p2384
aS'Somerset East'
p2385
aS'14'
p2386
aS'10'
p2387
aS'3'
aS'12'
p2388
aa(lp2389
S'Pierre Edwards'
p2390
aS'1980'
p2391
aS'Fullback'
p2392
aS'George'
p2393
aS'2'
aS'2'
aS'0'
aS'0'
aa(lp2394
S'Rob Louw'
p2395
aS'1980'
p2396
aS'Flanker'
p2397
aS'Cape Town'
p2398
aS'19'
p2399
aS'15'
p2400
aS'5'
aS'20'
p2401
aa(lp2402
S'Ray Mordt'
p2403
aS'1980'
p2404
aS'Wing'
p2405
aS'Cape Town'
p2406
aS'18'
p2407
aS'14'
p2408
aS'12'
p2409
aS'48'
p2410
aa(lp2411
S'Richard Prentis'
p2412
aS'1980'
p2413
aS'Prop'
p2414
aS'Krugersdorp'
p2415
aS'11'
p2416
aS'10'
p2417
aS'0'
aS'0'
aa(lp2418
S'Gysie Pienaar'
p2419
aS'1980'
p2420
aS'Fullback'
p2421
aS'Bloemfontein'
p2422
aS'13'
p2423
aS'10'
p2424
aS'2'
aS'14'
p2425
aa(lp2426
S'Willie Kahts'
p2427
aS'1980'
p2428
aS'Hooker'
p2429
aS'Volksrust'
p2430
aS'11'
p2431
aS'10'
p2432
aS'1'
aS'4'
aa(lp2433
S'Martiens le Roux'
p2434
aS'1980'
p2435
aS'Prop'
p2436
aS'Wesselsbron'
p2437
aS'8'
aS'7'
aS'0'
aS'0'
aa(lp2438
S'Divan Serfontein'
p2439
aS'1980'
p2440
aS'Scrum-half'
p2441
aS'Krugersdorp'
p2442
aS'19'
p2443
aS'15'
p2444
aS'3'
aS'12'
p2445
aa(lp2446
S'David Smith'
p2447
aS'1980'
p2448
aS'Centre'
p2449
aS'South Rhodesia'
p2450
aS'4'
aS'3'
aS'0'
aS'0'
aa(lp2451
S'Thys Burger'
p2452
aS'1980'
p2453
aS'No. 8'
p2454
aS'Pietersburg'
p2455
aS'3'
aS'3'
aS'2'
aS'8'
aa(lp2456
S'Ewoud Malan'
p2457
aS'1980'
p2458
aS'Hooker'
p2459
aS'Groblersdal'
p2460
aS'2'
aS'1'
aS'0'
aS'0'
aa(lp2461
S'Danie Gerber'
p2462
aS'1980'
p2463
aS'Centre'
p2464
aS'Port Elizabeth'
p2465
aS'24'
p2466
aS'16'
p2467
aS'19'
p2468
aS'82'
p2469
aa(lp2470
S'Wynand Claassen'
p2471
aS'1981'
p2472
aS'No. 8'
p2473
aS'Schweize-Reneke'
p2474
aS'7'
aS'5'
aS'0'
aS'0'
aa(lp2475
S'Errol Tobias'
p2476
aS'1981'
p2477
aS'Fly-half'
p2478
aS'Caledon'
p2479
aS'6'
aS'6'
aS'1'
aS'22'
p2480
aa(lp2481
S'Ockie Oosthuizen'
p2482
aS'1981'
p2483
aS'Prop'
p2484
aS'Johannesburg'
p2485
aS'9'
aS'7'
aS'1'
aS'4'
aa(lp2486
S'Hennie Bekker'
p2487
aS'1981'
p2488
aS'Lock'
p2489
aS'Nuwerus'
p2490
aS'2'
aS'0'
aS'1'
aS'4'
aa(lp2491
S'Darius Botha'
p2492
aS'1981'
p2493
aS'Wing'
p2494
aS'Breyten'
p2495
aS'1'
aS'0'
aS'0'
aS'0'
aa(lp2496
S'Hempies du Toit'
p2497
aS'1981'
p2498
aS'Prop'
p2499
aS'Villiersdorp'
p2500
aS'5'
aS'3'
aS'0'
aS'0'
aa(lp2501
S'Eben Jansen'
p2502
aS'1981'
p2503
aS'Flanker'
p2504
aS'Griekwastad'
p2505
aS'1'
aS'0'
aS'0'
aS'0'
aa(lp2506
S'Henning van Aswegen'
p2507
aS'1981'
p2508
aS'Prop'
p2509
aS'Okahandja'
p2510
aS'2'
aS'0'
aS'0'
aS'0'
aa(lp2511
S'Burger Geldenhuys'
p2512
aS'1981'
p2513
aS'Flanker'
p2514
aS'Kroonstad'
p2515
aS'7'
aS'5'
aS'1'
aS'4'
aa(lp2516
S'Flippie van der Merwe'
p2517
aS'1981'
p2518
aS'Prop'
p2519
aS'Dibeng'
p2520
aS'6'
aS'4'
aS'0'
aS'0'
aa(lp2521
S'Div Visser'
p2522
aS'1981'
p2523
aS'Lock'
p2524
aS'Cape Town'
p2525
aS'2'
aS'2'
aS'0'
aS'0'
aa(lp2526
S'Colin Beck'
p2527
aS'1981'
p2528
aS'Centre'
p2529
aS'Strand'
p2530
aS'3'
aS'2'
aS'1'
aS'4'
aa(lp2531
S'Johan Heunis'
p2532
aS'1981'
p2533
aS'Fullback'
p2534
aS'George'
p2535
aS'14'
p2536
aS'11'
p2537
aS'2'
aS'41'
p2538
aa(lp2539
S'Carel du Plessis'
p2540
aS'1982'
p2541
aS'Wing'
p2542
aS'Somerset East'
p2543
aS'12'
p2544
aS'10'
p2545
aS'4'
aS'16'
p2546
aa(lp2547
S'Schalk Burger'
p2548
aS'1984'
p2549
aS'Flanker'
p2550
aS'Cape Town'
p2551
aS'6'
aS'5'
aS'0'
aS'0'
aa(lp2552
S'Chris Rogers'
p2553
aS'1984'
p2554
aS'Hooker'
p2555
aS'South Rhodesia'
p2556
aS'4'
aS'4'
aS'0'
aS'0'
aa(lp2557
S'John Villet'
p2558
aS'1984'
p2559
aS'Centre'
p2560
aS'Ceres'
p2561
aS'2'
aS'2'
aS'0'
aS'0'
aa(lp2562
S'Rudi Visagie'
p2563
aS'1984'
p2564
aS'Lock'
p2565
aS'Nelspruit'
p2566
aS'5'
aS'4'
aS'0'
aS'0'
aa(lp2567
S'Avril Williams'
p2568
aS'1984'
p2569
aS'Wing'
p2570
aS'Paarl'
p2571
aS'2'
aS'2'
aS'0'
aS'0'
aa(lp2572
S'Anton Barnard'
p2573
aS'1984'
p2574
aS'Prop'
p2575
aS'George'
p2576
aS'4'
aS'3'
aS'0'
aS'0'
aa(lp2577
S'Michael du Plessis'
p2578
aS'1984'
p2579
aS'Centre'
p2580
aS'Somerset East'
p2581
aS'8'
aS'7'
aS'1'
aS'7'
aa(lp2582
S'Kulu Ferreira'
p2583
aS'1984'
p2584
aS'Flanker'
p2585
aS'Kroonstad'
p2586
aS'2'
aS'2'
aS'1'
aS'4'
aa(lp2587
S'Nick Mallett'
p2588
aS'1984'
p2589
aS'No. 8'
p2590
aS'Herts'
p2591
aS'2'
aS'2'
aS'1'
aS'4'
aa(lp2592
S'Attie Strauss'
p2593
aS'1984'
p2594
aS'Prop'
p2595
aS'Calvinia'
p2596
aS'2'
aS'2'
aS'0'
aS'0'
aa(lp2597
S'Wahl Bartmann'
p2598
aS'1986'
p2599
aS'Flanker'
p2600
aS'Florida'
p2601
aS'8'
aS'4'
aS'0'
aS'0'
aa(lp2602
S'Jannie Breedt'
p2603
aS'1986'
p2604
aS'No. 8'
p2605
aS'Kempton Park'
p2606
aS'8'
aS'5'
aS'0'
aS'0'
aa(lp2607
S'Christo Ferreira'
p2608
aS'1986'
p2609
aS'Scrum-half'
p2610
aS'Welkom'
p2611
aS'2'
aS'1'
aS'0'
aS'0'
aa(lp2612
S'Jaco Reinach'
p2613
aS'1986'
p2614
aS'Wing'
p2615
aS'Ceres'
p2616
aS'4'
aS'3'
aS'2'
aS'8'
aa(lp2617
S'Uli Schmidt'
p2618
aS'1986'
p2619
aS'Hooker'
p2620
aS'Pretoria'
p2621
aS'17'
p2622
aS'10'
p2623
aS'2'
aS'9'
aa(lp2624
S'Gert Smal'
p2625
aS'1986'
p2626
aS'Flanker'
p2627
aS'Kimberley'
p2628
aS'6'
aS'5'
aS'1'
aS'4'
aa(lp2629
S'Frans Erasmus'
p2630
aS'1986'
p2631
aS'Prop'
p2632
aS'Ceres'
p2633
aS'3'
aS'3'
aS'0'
aS'0'
aa(lp2634
S'Piet Kruger'
p2635
aS'1986'
p2636
aS'Prop'
p2637
aS'Brits'
p2638
aS'2'
aS'2'
aS'0'
aS'0'
aa(lp2639
S'Garth Wright'
p2640
aS'1986'
p2641
aS'Scrum-half'
p2642
aS'East London'
p2643
aS'7'
aS'5'
aS'1'
aS'4'
aa(lp2644
S'Helgard Muller'
p2645
aS'1986'
p2646
aS'Utility back'
p2647
aS'Bloemfontein'
p2648
aS'2'
aS'2'
aS'0'
aS'0'
aa(lp2649
S'Kobus Burger'
p2650
aS'1989'
p2651
aS'Wing'
p2652
aS'Paarl'
p2653
aS'2'
aS'2'
aS'0'
aS'0'
aa(lp2654
S'Niel Hugo'
p2655
aS'1989'
p2656
aS'Lock'
p2657
aS'Victoria West'
p2658
aS'2'
aS'2'
aS'0'
aS'0'
aa(lp2659
S'Faffa Knoetze'
p2660
aS'1989'
p2661
aS'Centre'
p2662
aS'Parow'
p2663
aS'2'
aS'2'
aS'1'
aS'4'
aa(lp2664
S'Adolf Malan'
p2665
aS'1989'
p2666
aS'Lock'
p2667
aS'Germiston'
p2668
aS'7'
aS'3'
aS'0'
aS'0'
aa(lp2669
S'Hein Rodgers'
p2670
aS'1989'
p2671
aS'Prop'
p2672
aS'Harrismith'
p2673
aS'5'
aS'3'
aS'0'
aS'0'
aa(lp2674
S'Andre Joubert'
p2675
aS'1989'
p2676
aS'Fullback'
p2677
aS'Ladysmith'
p2678
aS'34'
p2679
aS'23'
p2680
aS'10'
p2681
aS'115'
p2682
aa(lp2683
S'Robert du Preez'
p2684
aS'1992'
p2685
aS'Scrum-half'
p2686
aS'Potchefstroom'
p2687
aS'7'
aS'1'
aS'0'
aS'0'
aa(lp2688
S'Adri Geldenhuys'
p2689
aS'1992'
p2690
aS'Lock'
p2691
aS'Clanwilliam'
p2692
aS'4'
aS'1'
aS'0'
aS'0'
aa(lp2693
S'Pieter Hendriks'
p2694
aS'1992'
p2695
aS'Wing'
p2696
aS'Douglas'
p2697
aS'14'
p2698
aS'7'
aS'2'
aS'10'
p2699
aa(lp2700
S'Ian Macdonald'
p2701
aS'1992'
p2702
aS'Flanker'
p2703
aS'Pretoria'
p2704
aS'6'
aS'2'
aS'0'
aS'0'
aa(lp2705
S'Lood Muller'
p2706
aS'1992'
p2707
aS'Prop'
p2708
aS'Pietermaritzburg'
p2709
aS'2'
aS'0'
aS'0'
aS'0'
aa(lp2710
S'Pieter Muller'
p2711
aS'1992'
p2712
aS'Centre'
p2713
aS'Bloemfontein'
p2714
aS'33'
p2715
aS'19'
p2716
aS'3'
aS'15'
p2717
aa(lp2718
S'James Small'
p2719
aS'1992'
p2720
aS'Wing'
p2721
aS'Cape Town'
p2722
aS'47'
p2723
aS'28'
p2724
aS'20'
p2725
aS'100'
p2726
aa(lp2727
S'Theo van Rensburg'
p2728
aS'1992'
p2729
aS'Fullback'
p2730
aS'Carletonville'
p2731
aS'7'
aS'1'
aS'0'
aS'40'
p2732
aa(lp2733
S'Heinrich Fuls'
p2734
aS'1992'
p2735
aS'Centre'
p2736
aS'OFS'
p2737
aS'8'
aS'3'
aS'0'
aS'0'
aa(lp2738
S'Johann Styger'
p2739
aS'1992'
p2740
aS'Prop'
p2741
aS'Bloemfontein'
p2742
aS'7'
aS'1'
aS'0'
aS'0'
aa(lp2743
S'Drikus Hattingh'
p2744
aS'1992'
p2745
aS'Lock'
p2746
aS'Rustenburg'
p2747
aS'5'
aS'2'
aS'0'
aS'0'
aa(lp2748
S'Willie Hills'
p2749
aS'1992'
p2750
aS'Hooker'
p2751
aS'Pretoria'
p2752
aS'6'
aS'2'
aS'0'
aS'0'
aa(lp2753
S'Jacques Olivier'
p2754
aS'1992'
p2755
aS'Wing'
p2756
aS'Pretoria'
p2757
aS'17'
p2758
aS'11'
p2759
aS'3'
aS'15'
p2760
aa(lp2761
S'Hugh Reece-Edwards'
p2762
aS'1992'
p2763
aS'Fullback'
p2764
aS'Johannesburg'
p2765
aS'3'
aS'1'
aS'0'
aS'0'
aa(lp2766
S'Adriaan Richter'
p2767
aS'1992'
p2768
aS'No. 8'
p2769
aS'Roodepoort'
p2770
aS'10'
p2771
aS'5'
aS'4'
aS'20'
p2772
aa(lp2773
S'Tiaan Strauss'
p2774
aS'1992'
p2775
aS'No. 8'
p2776
aS'Upington'
p2777
aS'26'
p2778
aS'15'
p2779
aS'8'
aS'40'
p2780
aa(lp2781
S'Keith Andrews'
p2782
aS'1992'
p2783
aS'Prop'
p2784
aS'Molteno'
p2785
aS'9'
aS'3'
aS'0'
aS'0'
aa(lp2786
S'FC Smit'
p2787
aS'1992'
p2788
aS'Flanker'
p2789
aS'Cape Town'
p2790
aS'1'
aS'0'
aS'0'
aS'0'
aa(lp2791
S'Hennie le Roux'
p2792
aS'1993'
p2793
aS'Centre'
p2794
aS'Grahamstown'
p2795
aS'27'
p2796
aS'20'
p2797
aS'4'
aS'34'
p2798
aa(lp2799
S'Francois Pienaar'
p2800
aS'1993'
p2801
aS'Flanker'
p2802
aS'Vereeniging'
p2803
aS'29'
p2804
aS'19'
p2805
aS'3'
aS'15'
p2806
aa(lp2807
S'Kobus Wiese'
p2808
aS'1993'
p2809
aS'Lock'
p2810
aS'Paarl'
p2811
aS'18'
p2812
aS'15'
p2813
aS'1'
aS'5'
aa(lp2814
S'Deon Lotter'
p2815
aS'1993'
p2816
aS'Flanker'
p2817
aS'Stellenbosch'
p2818
aS'3'
aS'1'
aS'0'
aS'0'
aa(lp2819
S'Hannes Strydom'
p2820
aS'1993'
p2821
aS'Lock'
p2822
aS'Welkom'
p2823
aS'21'
p2824
aS'12'
p2825
aS'1'
aS'5'
aa(lp2826
S'Nico Wegner'
p2827
aS'1993'
p2828
aS'Lock'
p2829
aS'Nelspruit'
p2830
aS'4'
aS'1'
aS'0'
aS'0'
aa(lp2831
S'Joel Stransky'
p2832
aS'1993'
p2833
aS'Fly-half'
p2834
aS'Pietermaritzburg'
p2835
aS'22'
p2836
aS'16'
p2837
aS'6'
aS'240'
p2838
aa(lp2839
S'Balie Swart'
p2840
aS'1993'
p2841
aS'Prop'
p2842
aS'Malmesbury'
p2843
aS'16'
p2844
aS'11'
p2845
aS'0'
aS'0'
aa(lp2846
S'John Allan'
p2847
aS'1990'
p2848
aS'Hooker'
p2849
aS'Glasgow'
p2850
aS'22'
p2851
aS'11'
p2852
aS'0'
aS'0'
aa(lp2853
S'Henry Honiball'
p2854
aS'1993'
p2855
aS'Fly-half'
p2856
aS'Estcourt'
p2857
aS'35'
p2858
aS'26'
p2859
aS'1'
aS'156'
p2860
aa(lp2861
S'Steve Atherton'
p2862
aS'1993'
p2863
aS'Lock'
p2864
aS'Gosport'
p2865
aS'8'
aS'3'
aS'0'
aS'0'
aa(lp2866
S'Guy Kebble'
p2867
aS'1993'
p2868
aS'Prop'
p2869
aS'Cape Town'
p2870
aS'4'
aS'2'
aS'0'
aS'0'
aa(lp2871
S'Ruben Kruger'
p2872
aS'1993'
p2873
aS'Flanker'
p2874
aS'Vrede'
p2875
aS'36'
p2876
aS'25'
p2877
aS'7'
aS'35'
p2878
aa(lp2879
S'Joost van der Westhuizen'
p2880
aS'1993'
p2881
aS'Scrum-half'
p2882
aS'Pretoria'
p2883
aS'89'
p2884
aS'60'
p2885
aS'38'
p2886
aS'190'
p2887
aa(lp2888
S'Naka Drotske'
p2889
aS'1993'
p2890
aS'Hooker'
p2891
aS'Senekal'
p2892
aS'26'
p2893
aS'15'
p2894
aS'3'
aS'15'
p2895
aa(lp2896
S'Gavin Johnson'
p2897
aS'1993'
p2898
aS'Fullback, Wing'
p2899
aS'Louis Trichardt'
p2900
aS'7'
aS'6'
aS'5'
aS'86'
p2901
aa(lp2902
S'Chester Williams'
p2903
aS'1993'
p2904
aS'Wing'
p2905
aS'Paarl'
p2906
aS'27'
p2907
aS'20'
p2908
aS'14'
p2909
aS'70'
p2910
aa(lp2911
S'Ollie le Roux'
p2912
aS'1994'
p2913
aS'Prop'
p2914
aS'Fort Beaufort'
p2915
aS'54'
p2916
aS'33'
p2917
aS'1'
aS'5'
aa(lp2918
S'Fritz van Heerden'
p2919
aS'1994'
p2920
aS'Lock'
p2921
aS'Roodepoort'
p2922
aS'14'
p2923
aS'9'
aS'1'
aS'5'
aa(lp2924
S'Brendan Venter'
p2925
aS'1994'
p2926
aS'Centre'
p2927
aS'Johannesburg'
p2928
aS'17'
p2929
aS'11'
p2930
aS'2'
aS'10'
p2931
aa(lp2932
S'Mark Andrews'
p2933
aS'1994'
p2934
aS'Lock, No. 8'
p2935
aS'Elliot'
p2936
aS'77'
p2937
aS'51'
p2938
aS'12'
p2939
aS'60'
p2940
aa(lp2941
S'Johan le Roux'
p2942
aS'1994'
p2943
aS'Prop'
p2944
aS'Vereeniging'
p2945
aS'3'
aS'1'
aS'0'
aS'0'
aa(lp2946
S'Johan Roux'
p2947
aS'1994'
p2948
aS'Scrum-half'
p2949
aS'Pretoria'
p2950
aS'12'
p2951
aS'6'
aS'2'
aS'10'
p2952
aa(lp2953
S'Rudolf Straeuli'
p2954
aS'1994'
p2955
aS'Back-row'
p2956
aS'Pretoria'
p2957
aS'10'
p2958
aS'9'
aS'4'
aS'20'
p2959
aa(lp2960
S'Japie Mulder'
p2961
aS'1994'
p2962
aS'Centre'
p2963
aS'Springs'
p2964
aS'34'
p2965
aS'23'
p2966
aS'6'
aS'30'
p2967
aa(lp2968
S'Os du Randt'
p2969
aS'1994'
p2970
aS'Prop'
p2971
aS'Elliot'
p2972
aS'80'
p2973
aS'52'
p2974
aS'5'
aS'25'
p2975
aa(lp2976
S'Tommy Laubscher'
p2977
aS'1994'
p2978
aS'Prop'
p2979
aS'Vredenburg'
p2980
aS'6'
aS'6'
aS'0'
aS'0'
aa(lp2981
S'Christiaan Scholtz'
p2982
aS'1994'
p2983
aS'Centre'
p2984
aS'Stutterheim'
p2985
aS'4'
aS'4'
aS'0'
aS'0'
aa(lp2986
S'James Dalton'
p2987
aS'1994'
p2988
aS'Hooker'
p2989
aS'Johannesburg'
p2990
aS'43'
p2991
aS'35'
p2992
aS'5'
aS'25'
p2993
aa(lp2994
S'Chris Badenhorst'
p2995
aS'1994'
p2996
aS'Wing'
p2997
aS'South-West Africa'
p2998
aS'2'
aS'2'
aS'2'
aS'10'
p2999
aa(lp3000
S'Elandre van den Bergh'
p3001
aS'1994'
p3002
aS'Flanker'
p3003
aS'Pretoria'
p3004
aS'1'
aS'1'
aS'0'
aS'0'
aa(lp3005
S'Phillip Schutte'
p3006
aS'1994'
p3007
aS'Lock'
p3008
aS'Pretoria'
p3009
aS'2'
aS'2'
aS'0'
aS'0'
aa(lp3010
S'Chris Rossouw'
p3011
aS'1995'
p3012
aS'Hooker'
p3013
aS'Delmas'
p3014
aS'9'
aS'8'
aS'2'
aS'10'
p3015
aa(lp3016
S'Mornay Visser'
p3017
aS'1995'
p3018
aS'Hooker'
p3019
aS'Cape Town'
p3020
aS'1'
aS'1'
aS'0'
aS'0'
aa(lp3021
S'Garry Pagel'
p3022
aS'1995'
p3023
aS'Prop'
p3024
aS"King William's Town"
p3025
aS'5'
aS'5'
aS'0'
aS'0'
aa(lp3026
S'Robbie Brink'
p3027
aS'1995'
p3028
aS'Flanker'
p3029
aS'Pretoria'
p3030
aS'2'
aS'2'
aS'0'
aS'0'
aa(lp3031
S'Marius Hurter'
p3032
aS'1995'
p3033
aS'Prop'
p3034
aS'Potchefstroom'
p3035
aS'13'
p3036
aS'6'
aS'0'
aS'0'
aa(lp3037
S'Krynauw Otto'
p3038
aS'1995'
p3039
aS'Lock'
p3040
aS'Belfast'
p3041
aS'38'
p3042
aS'28'
p3043
aS'1'
aS'5'
aa(lp3044
S'Gary Teichmann'
p3045
aS'1995'
p3046
aS'No. 8'
p3047
aS'Rhodesia'
p3048
aS'42'
p3049
aS'29'
p3050
aS'6'
aS'30'
p3051
aa(lp3052
S'Toks van der Linde'
p3053
aS'1995'
p3054
aS'Prop'
p3055
aS'Senekal'
p3056
aS'7'
aS'6'
aS'0'
aS'0'
aa(lp3057
S'Johan Ackermann'
p3058
aS'1996'
p3059
aS'Lock'
p3060
aS'Benoni'
p3061
aS'13'
p3062
aS'7'
aS'0'
aS'0'
aa(lp3063
S'Justin Swart'
p3064
aS'1996'
p3065
aS'Wing'
p3066
aS'Stellenbosch'
p3067
aS'10'
p3068
aS'6'
aS'1'
aS'5'
aa(lp3069
S'Danie van Schalkwyk'
p3070
aS'1996'
p3071
aS'Centre'
p3072
aS'Boksburg'
p3073
aS'8'
aS'3'
aS'2'
aS'10'
p3074
aa(lp3075
S'Dawie Theron'
p3076
aS'1996'
p3077
aS'Prop'
p3078
aS'Bloemfontein'
p3079
aS'13'
p3080
aS'8'
aS'0'
aS'0'
aa(lp3081
S'Andre Snyman'
p3082
aS'1996'
p3083
aS'Centre'
p3084
aS'Natal'
p3085
aS'38'
p3086
aS'26'
p3087
aS'10'
p3088
aS'50'
p3089
aa(lp3090
S'Henry Tromp'
p3091
aS'1996'
p3092
aS'Hooker'
p3093
aS'South-West Africa'
p3094
aS'4'
aS'2'
aS'0'
aS'0'
aa(lp3095
S'Andre Venter'
p3096
aS'1996'
p3097
aS'Flanker'
p3098
aS'Vereeniging'
p3099
aS'66'
p3100
aS'41'
p3101
aS'9'
aS'45'
p3102
aa(lp3103
S'Vlok Cilliers'
p3104
aS'1996'
p3105
aS'Fly-half'
p3106
aS'Williston'
p3107
aS'1'
aS'0'
aS'0'
aS'0'
aa(lp3108
S'Wayne Fyvie'
p3109
aS'1996'
p3110
aS'Flanker'
p3111
aS'Harrismith'
p3112
aS'3'
aS'2'
aS'0'
aS'0'
aa(lp3113
S'Adrian Garvey'
p3114
aS'1990'
p3115
aS'Prop'
p3116
aS'Rhodesia'
p3117
aS'38'
p3118
aS'28'
p3119
aS'6'
aS'28'
p3120
aa(lp3121
S'Edrich Lubbe'
p3122
aS'1997'
p3123
aS'Centre'
p3124
aS'Caledon'
p3125
aS'2'
aS'1'
aS'0'
aS'17'
p3126
aa(lp3127
S'Russell Bennett'
p3128
aS'1997'
p3129
aS'Fullback'
p3130
aS'Adelaide'
p3131
aS'6'
aS'2'
aS'2'
aS'10'
p3132
aa(lp3133
S'Percy Montgomery'
p3134
aS'1997'
p3135
aS'Fullback'
p3136
aS'South-West Africa'
p3137
aS'102'
p3138
aS'67'
p3139
aS'25'
p3140
aS'893'
p3141
aa(lp3142
S'Pieter Rossouw'
p3143
aS'1997'
p3144
aS'Wing'
p3145
aS'Swellendam'
p3146
aS'43'
p3147
aS'30'
p3148
aS'21'
p3149
aS'105'
p3150
aa(lp3151
S'Jannie de Beer'
p3152
aS'1997'
p3153
aS'Fly-half'
p3154
aS'Welkom'
p3155
aS'13'
p3156
aS'9'
aS'2'
aS'181'
p3157
aa(lp3158
S'Johan Erasmus'
p3159
aS'1997'
p3160
aS'Flanker'
p3161
aS'Despatch'
p3162
aS'36'
p3163
aS'27'
p3164
aS'7'
aS'35'
p3165
aa(lp3166
S'Werner Swanepoel'
p3167
aS'1997'
p3168
aS'Scrum-half'
p3169
aS'Bloemfontein'
p3170
aS'20'
p3171
aS'13'
p3172
aS'6'
aS'30'
p3173
aa(lp3174
S'Warren Brosnihan'
p3175
aS'1997'
p3176
aS'Flanker'
p3177
aS'Paarl'
p3178
aS'6'
aS'2'
aS'1'
aS'5'
aa(lp3179
S'Schutte Bekker'
p3180
aS'1997'
p3181
aS'Flanker'
p3182
aS'Nelspruit'
p3183
aS'1'
aS'1'
aS'0'
aS'0'
aa(lp3184
S'Braam Els'
p3185
aS'1997'
p3186
aS'Flanker'
p3187
aS'Kroonstad'
p3188
aS'1'
aS'1'
aS'0'
aS'0'
aa(lp3189
S'Dick Muir'
p3190
aS'1997'
p3191
aS'Centre'
p3192
aS'Kokstad'
p3193
aS'5'
aS'5'
aS'2'
aS'10'
p3194
aa(lp3195
S'Andrew Aitken'
p3196
aS'1997'
p3197
aS'Flanker'
p3198
aS'Durban'
p3199
aS'7'
aS'7'
aS'0'
aS'0'
aa(lp3200
S'Bobby Skinstad'
p3201
aS'1997'
p3202
aS'Flanker'
p3203
aS'Rhodesia'
p3204
aS'42'
p3205
aS'29'
p3206
aS'11'
p3207
aS'55'
p3208
aa(lp3209
S'Willie Meyer'
p3210
aS'1997'
p3211
aS'Prop'
p3212
aS'Port Elizabeth'
p3213
aS'26'
p3214
aS'16'
p3215
aS'1'
aS'5'
aa(lp3216
S'Franco Smith'
p3217
aS'1997'
p3218
aS'Fly-half'
p3219
aS'Lichtenburg'
p3220
aS'9'
aS'8'
aS'2'
aS'23'
p3221
aa(lp3222
S'Gaffie du Toit'
p3223
aS'1998'
p3224
aS'Fly-half, Fullback'
p3225
aS'Cape Town'
p3226
aS'14'
p3227
aS'9'
aS'5'
aS'108'
p3228
aa(lp3229
S'Stefan Terblanche'
p3230
aS'1998'
p3231
aS'Centre'
p3232
aS'Mossel Bay'
p3233
aS'37'
p3234
aS'26'
p3235
aS'19'
p3236
aS'95'
p3237
aa(lp3238
S'McNeil Hendricks'
p3239
aS'1998'
p3240
aS'Wing'
p3241
aS'Malmesbury'
p3242
aS'2'
aS'2'
aS'1'
aS'5'
aa(lp3243
S'Robbie Kempson'
p3244
aS'1998'
p3245
aS'Prop'
p3246
aS'Queenstown'
p3247
aS'37'
p3248
aS'23'
p3249
aS'1'
aS'5'
aa(lp3250
S'Christian Stewart'
p3251
aS'1991'
p3252
aS'Centre'
p3253
aS'Toronto'
p3254
aS'17'
p3255
aS'8'
aS'2'
aS'10'
p3256
aa(lp3257
S'Selborne Boome'
p3258
aS'1999'
p3259
aS'Lock'
p3260
aS'Somerset West'
p3261
aS'20'
p3262
aS'11'
p3263
aS'1'
aS'5'
aa(lp3264
S'Robbie Fleck'
p3265
aS'1999'
p3266
aS'Centre'
p3267
aS'Cape Town'
p3268
aS'31'
p3269
aS'16'
p3270
aS'10'
p3271
aS'50'
p3272
aa(lp3273
S'Breyton Paulse'
p3274
aS'1999'
p3275
aS'Wing'
p3276
aS'Koue Bokkeveld'
p3277
aS'64'
p3278
aS'36'
p3279
aS'26'
p3280
aS'130'
p3281
aa(lp3282
S'Cobus Visagie'
p3283
aS'1999'
p3284
aS'Prop'
p3285
aS'Stellenbosch'
p3286
aS'29'
p3287
aS'14'
p3288
aS'0'
aS'0'
aa(lp3289
S'Charl Marais'
p3290
aS'1999'
p3291
aS'Hooker'
p3292
aS'Bothaville'
p3293
aS'11'
p3294
aS'6'
aS'1'
aS'5'
aa(lp3295
S'Albert van den Berg'
p3296
aS'1999'
p3297
aS'Lock'
p3298
aS'Hoopstad'
p3299
aS'51'
p3300
aS'29'
p3301
aS'4'
aS'20'
p3302
aa(lp3303
S'Dave von Hoesslin'
p3304
aS'1999'
p3305
aS'Scrum-half'
p3306
aS'Stellenbosch'
p3307
aS'5'
aS'2'
aS'2'
aS'10'
p3308
aa(lp3309
S'Andre Vos'
p3310
aS'1999'
p3311
aS'Back-row'
p3312
aS'East London'
p3313
aS'33'
p3314
aS'18'
p3315
aS'5'
aS'25'
p3316
aa(lp3317
S'Corne Krige'
p3318
aS'1999'
p3319
aS'Flanker'
p3320
aS'Lusaka'
p3321
aS'39'
p3322
aS'18'
p3323
aS'2'
aS'10'
p3324
aa(lp3325
S'Deon Kayser'
p3326
aS'1999'
p3327
aS'Wing'
p3328
aS'Uitenhage'
p3329
aS'13'
p3330
aS'7'
aS'5'
aS'25'
p3331
aa(lp3332
S'Braam van Straaten'
p3333
aS'1999'
p3334
aS'Centre'
p3335
aS'Pretoria'
p3336
aS'21'
p3337
aS'9'
aS'2'
aS'221'
p3338
aa(lp3339
S'Anton Leonard'
p3340
aS'1999'
p3341
aS'No. 8'
p3342
aS'Durban'
p3343
aS'2'
aS'1'
aS'1'
aS'5'
aa(lp3344
S'Wayne Julies'
p3345
aS'1999'
p3346
aS'Centre'
p3347
aS'Paarl'
p3348
aS'11'
p3349
aS'10'
p3350
aS'2'
aS'10'
p3351
aa(lp3352
S'Kaya Malotana'
p3353
aS'1999'
p3354
aS'Centre'
p3355
aS'Lady Frere'
p3356
aS'1'
aS'1'
aS'0'
aS'0'
aa(lp3357
S'De Wet Barry'
p3358
aS'2000'
p3359
aS'Centre'
p3360
aS'Ceres'
p3361
aS'39'
p3362
aS'18'
p3363
aS'3'
aS'15'
p3364
aa(lp3365
S'Thinus Delport'
p3366
aS'2000'
p3367
aS'Fullback'
p3368
aS'Port Elizabeth'
p3369
aS'18'
p3370
aS'11'
p3371
aS'3'
aS'15'
p3372
aa(lp3373
S'John Smit'
p3374
aS'2000'
p3375
aS'Hooker, Prop'
p3376
aS'Pietersburg'
p3377
aS'111'
p3378
aS'69'
p3379
aS'8'
aS'40'
p3380
aa(lp3381
S'Louis Koen'
p3382
aS'2000'
p3383
aS'Fly-half'
p3384
aS'Cape Town'
p3385
aS'15'
p3386
aS'8'
aS'0'
aS'145'
p3387
aa(lp3388
S'Grant Esterhuizen'
p3389
aS'2000'
p3390
aS'Wing, Centre'
p3391
aS'Alexander Bay'
p3392
aS'7'
aS'4'
aS'0'
aS'0'
aa(lp3393
S'Jannes Labuschagne'
p3394
aS'2000'
p3395
aS'Lock'
p3396
aS'Bloemhof'
p3397
aS'11'
p3398
aS'4'
aS'0'
aS'0'
aa(lp3399
S'Jaco van der Westhuyzen'
p3400
aS'2000'
p3401
aS'Utility back'
p3402
aS'Nelspruit'
p3403
aS'32'
p3404
aS'21'
p3405
aS'5'
aS'51'
p3406
aa(lp3407
S'AJ Venter'
p3408
aS'2000'
p3409
aS'No. 8, Lock'
p3410
aS'Zastron'
p3411
aS'25'
p3412
aS'13'
p3413
aS'0'
aS'0'
aa(lp3414
S'Dan van Zyl'
p3415
aS'2000'
p3416
aS'Fly-half, Scrum-half'
p3417
aS'Pretoria'
p3418
aS'1'
aS'0'
aS'0'
aS'0'
aa(lp3419
S'Etienne Fynn'
p3420
aS'2001'
p3421
aS'Prop'
p3422
aS'Durban'
p3423
aS'2'
aS'1'
aS'0'
aS'0'
aa(lp3424
S'Dean Hall'
p3425
aS'2001'
p3426
aS'Wing'
p3427
aS'Springs'
p3428
aS'13'
p3429
aS'6'
aS'4'
aS'20'
p3430
aa(lp3431
S'Butch James'
p3432
aS'2001'
p3433
aS'Fly-half'
p3434
aS'Johannesburg'
p3435
aS'42'
p3436
aS'23'
p3437
aS'3'
aS'154'
p3438
aa(lp3439
S'Neil de Kock'
p3440
aS'2001'
p3441
aS'Scrum-half'
p3442
aS'Cape Town'
p3443
aS'10'
p3444
aS'6'
aS'2'
aS'10'
p3445
aa(lp3446
S'Conrad Jantjes'
p3447
aS'2001'
p3448
aS'Fullback'
p3449
aS'Boksburg'
p3450
aS'24'
p3451
aS'16'
p3452
aS'4'
aS'22'
p3453
aa(lp3454
S'Victor Matfield'
p3455
aS'2001'
p3456
aS'Lock'
p3457
aS'Pietersburg'
p3458
aS'121'
p3459
aS'76'
p3460
aS'7'
aS'35'
p3461
aa(lp3462
S'Lukas van Biljon'
p3463
aS'2001'
p3464
aS'Hooker'
p3465
aS'Bloemfontein'
p3466
aS'13'
p3467
aS'4'
aS'1'
aS'5'
aa(lp3468
S'Marius Joubert'
p3469
aS'2001'
p3470
aS'Centre'
p3471
aS'Paarl'
p3472
aS'30'
p3473
aS'19'
p3474
aS'9'
aS'45'
p3475
aa(lp3476
S'Joe van Niekerk'
p3477
aS'2001'
p3478
aS'Back-row'
p3479
aS'Port Elizabeth'
p3480
aS'52'
p3481
aS'28'
p3482
aS'10'
p3483
aS'50'
p3484
aa(lp3485
S'Trevor Halstead'
p3486
aS'2001'
p3487
aS'Centre'
p3488
aS'Margate'
p3489
aS'6'
aS'4'
aS'3'
aS'15'
p3490
aa(lp3491
S'Deon de Kock'
p3492
aS'2001'
p3493
aS'Scrum-half'
p3494
aS'Empangeni'
p3495
aS'2'
aS'2'
aS'0'
aS'0'
aa(lp3496
S'Adrian Jacobs'
p3497
aS'2001'
p3498
aS'Centre'
p3499
aS'Kraaifontein'
p3500
aS'34'
p3501
aS'22'
p3502
aS'7'
aS'35'
p3503
aa(lp3504
S'Lawrence Sephaka'
p3505
aS'2001'
p3506
aS'Prop'
p3507
aS'Johannesburg'
p3508
aS'24'
p3509
aS'14'
p3510
aS'0'
aS'0'
aa(lp3511
S'Warren Britz'
p3512
aS'2002'
p3513
aS'Flanker'
p3514
aS'Durban'
p3515
aS'1'
aS'1'
aS'0'
aS'0'
aa(lp3516
S'Bolla Conradie'
p3517
aS'2002'
p3518
aS'Scrum-half'
p3519
aS'Cape Town'
p3520
aS'18'
p3521
aS'12'
p3522
aS'2'
aS'13'
p3523
aa(lp3524
S'Daan Human'
p3525
aS'2002'
p3526
aS'Prop'
p3527
aS'Bloemfontein'
p3528
aS'4'
aS'4'
aS'0'
aS'0'
aa(lp3529
S'Ricardo Loubscher'
p3530
aS'2002'
p3531
aS'Fullback'
p3532
aS'Colesberg'
p3533
aS'4'
aS'4'
aS'0'
aS'0'
aa(lp3534
S'Andre Pretorius'
p3535
aS'2002'
p3536
aS'Fly-half'
p3537
aS'Johannesburg'
p3538
aS'31'
p3539
aS'19'
p3540
aS'2'
aS'171'
p3541
aa(lp3542
S'Faan Rautenbach'
p3543
aS'2002'
p3544
aS'Prop'
p3545
aS'Bethlehem'
p3546
aS'14'
p3547
aS'9'
aS'1'
aS'5'
aa(lp3548
S'Brent Russell'
p3549
aS'2002'
p3550
aS'Wing'
p3551
aS'Port Elizabeth'
p3552
aS'23'
p3553
aS'14'
p3554
aS'8'
aS'40'
p3555
aa(lp3556
S'Quinton Davids'
p3557
aS'2002'
p3558
aS'Lock'
p3559
aS'Bellville'
p3560
aS'9'
aS'8'
aS'0'
aS'0'
aa(lp3561
S'Craig Davidson'
p3562
aS'2002'
p3563
aS'Scrum-half'
p3564
aS"King William's Town"
p3565
aS'5'
aS'3'
aS'2'
aS'10'
p3566
aa(lp3567
S'Hottie Louw'
p3568
aS'2002'
p3569
aS'Lock'
p3570
aS'Paarl'
p3571
aS'3'
aS'3'
aS'0'
aS'0'
aa(lp3572
S'Werner Greeff'
p3573
aS'2002'
p3574
aS'Wing'
p3575
aS'Bellville'
p3576
aS'11'
p3577
aS'5'
aS'4'
aS'31'
p3578
aa(lp3579
S'Danie Coetzee'
p3580
aS'2002'
p3581
aS'Hooker'
p3582
aS'Harrismith'
p3583
aS'15'
p3584
aS'9'
aS'1'
aS'5'
aa(lp3585
S'Delarey du Preez'
p3586
aS'2002'
p3587
aS'Hooker'
p3588
aS'Queenstown'
p3589
aS'2'
aS'1'
aS'1'
aS'5'
aa(lp3590
S'Shaun Sowerby'
p3591
aS'2002'
p3592
aS'No. 8'
p3593
aS'Vereeniging'
p3594
aS'1'
aS'1'
aS'0'
aS'0'
aa(lp3595
S'Hendro Scholtz'
p3596
aS'2002'
p3597
aS'Back-row'
p3598
aS'Bethlehem'
p3599
aS'5'
aS'3'
aS'1'
aS'5'
aa(lp3600
S'Bakkies Botha'
p3601
aS'2002'
p3602
aS'Lock'
p3603
aS'Natal'
p3604
aS'85'
p3605
aS'64'
p3606
aS'7'
aS'35'
p3607
aa(lp3608
S'Jean de Villiers'
p3609
aS'2002'
p3610
aS'Centre'
p3611
aS'Paarl'
p3612
aS'106'
p3613
aS'70'
p3614
aS'27'
p3615
aS'135'
p3616
aa(lp3617
S'Wessel Roux'
p3618
aS'2002'
p3619
aS'Prop'
p3620
aS'Bothaville'
p3621
aS'3'
aS'0'
aS'0'
aS'0'
aa(lp3622
S'Pedrie Wannenburg'
p3623
aS'2002'
p3624
aS'No. 8'
p3625
aS'Nelspruit'
p3626
aS'20'
p3627
aS'12'
p3628
aS'3'
aS'15'
p3629
aa(lp3630
S'Marco Wentzel'
p3631
aS'2002'
p3632
aS'Lock'
p3633
aS'George'
p3634
aS'2'
aS'0'
aS'0'
aS'0'
aa(lp3635
S'Deon Carstens'
p3636
aS'2002'
p3637
aS'Prop'
p3638
aS'Goodwood'
p3639
aS'9'
aS'5'
aS'0'
aS'0'
aa(lp3640
S'Friedrich Lombard'
p3641
aS'2002'
p3642
aS'Wing'
p3643
aS'Frankfort'
p3644
aS'2'
aS'0'
aS'0'
aS'0'
aa(lp3645
S'Pierre Uys'
p3646
aS'2002'
p3647
aS'Flanker'
p3648
aS'Mossel Bay'
p3649
aS'1'
aS'0'
aS'0'
aS'0'
aa(lp3650
S'CJ van der Linde'
p3651
aS'2002'
p3652
aS'Prop'
p3653
aS'Welkom'
p3654
aS'75'
p3655
aS'43'
p3656
aS'4'
aS'20'
p3657
aa(lp3658
S'Norman Jordaan'
p3659
aS'2002'
p3660
aS'Scrum-half'
p3661
aS'Cape Town'
p3662
aS'1'
aS'0'
aS'0'
aS'0'
aa(lp3663
S'Richard Bands'
p3664
aS'2003'
p3665
aS'Hooker, Prop'
p3666
aS'Mafeking'
p3667
aS'11'
p3668
aS'6'
aS'2'
aS'10'
p3669
aa(lp3670
S'Hendrik Gerber'
p3671
aS'2003'
p3672
aS'Flanker'
p3673
aS'George'
p3674
aS'2'
aS'2'
aS'0'
aS'0'
aa(lp3675
S'Wikus van Heerden'
p3676
aS'2003'
p3677
aS'Flanker, Lock'
p3678
aS'Johannesburg'
p3679
aS'14'
p3680
aS'10'
p3681
aS'1'
aS'5'
aa(lp3682
S'Ashwin Willemse'
p3683
aS'2003'
p3684
aS'Wing'
p3685
aS'Caledon'
p3686
aS'19'
p3687
aS'12'
p3688
aS'4'
aS'20'
p3689
aa(lp3690
S'Juan Smith'
p3691
aS'2003'
p3692
aS'Flanker'
p3693
aS'Bloemfontein'
p3694
aS'70'
p3695
aS'49'
p3696
aS'12'
p3697
aS'60'
p3698
aa(lp3699
S'Gcobani Bobo'
p3700
aS'2003'
p3701
aS'Centre'
p3702
aS"King William's Town"
p3703
aS'6'
aS'5'
aS'0'
aS'0'
aa(lp3704
S'Dale Santon'
p3705
aS'2003'
p3706
aS'Hooker'
p3707
aS'Cape Town'
p3708
aS'4'
aS'2'
aS'0'
aS'0'
aa(lp3709
S'Jorrie Muller'
p3710
aS'2003'
p3711
aS'Wing'
p3712
aS'Fochville'
p3713
aS'6'
aS'2'
aS'1'
aS'5'
aa(lp3714
S'Geo Cronje'
p3715
aS'2003'
p3716
aS'Lock'
p3717
aS'Klerksdorp'
p3718
aS'3'
aS'2'
aS'0'
aS'0'
aa(lp3719
S'Christo Bezuidenhout'
p3720
aS'2003'
p3721
aS'Prop'
p3722
aS'Canary Is'
p3723
aS'4'
aS'1'
aS'0'
aS'0'
aa(lp3724
S'Jaque Fourie'
p3725
aS'2003'
p3726
aS'Centre'
p3727
aS'Carletonville'
p3728
aS'72'
p3729
aS'52'
p3730
aS'32'
p3731
aS'160'
p3732
aa(lp3733
S'Danie Rossouw'
p3734
aS'2003'
p3735
aS'Lock'
p3736
aS'Sabie'
p3737
aS'63'
p3738
aS'40'
p3739
aS'10'
p3740
aS'50'
p3741
aa(lp3742
S'Derick Hougaard'
p3743
aS'2003'
p3744
aS'Fly-half'
p3745
aS'Citrusdal'
p3746
aS'8'
aS'4'
aS'2'
aS'69'
p3747
aa(lp3748
S'Schalk Burger'
p3749
aS'2003'
p3750
aS'Back-row'
p3751
aS'Port Elizabeth'
p3752
aS'75'
p3753
aS'51'
p3754
aS'14'
p3755
aS'70'
p3756
aa(lp3757
S'Eddie Andrews'
p3758
aS'2004'
p3759
aS'Prop'
p3760
aS'Cape Town'
p3761
aS'23'
p3762
aS'11'
p3763
aS'0'
aS'0'
aa(lp3764
S'Jacques Cronje'
p3765
aS'2004'
p3766
aS'No. 8'
p3767
aS'Klerksdorp'
p3768
aS'32'
p3769
aS'17'
p3770
aS'4'
aS'20'
p3771
aa(lp3772
S'Fourie du Preez'
p3773
aS'2004'
p3774
aS'Scrum-half'
p3775
aS'Pretoria'
p3776
aS'70'
p3777
aS'50'
p3778
aS'15'
p3779
aS'75'
p3780
aa(lp3781
S'Henno Mentz'
p3782
aS'2004'
p3783
aS'Wing'
p3784
aS'Ermelo'
p3785
aS'2'
aS'2'
aS'0'
aS'0'
aa(lp3786
S'Gerrie Britz'
p3787
aS'2004'
p3788
aS'Back-row'
p3789
aS'Bloemfontein'
p3790
aS'13'
p3791
aS'10'
p3792
aS'0'
aS'0'
aa(lp3793
S'Hanyani Shimange'
p3794
aS'2004'
p3795
aS'Hooker'
p3796
aS'Elim'
p3797
aS'9'
aS'8'
aS'0'
aS'0'
aa(lp3798
S'Michael Claassens'
p3799
aS'2004'
p3800
aS'Scrum-half'
p3801
aS'Kroonstad'
p3802
aS'8'
aS'5'
aS'0'
aS'0'
aa(lp3803
S'Tim Dlulane'
p3804
aS'2004'
p3805
aS'Flanker'
p3806
aS'Umtala'
p3807
aS'1'
aS'1'
aS'0'
aS'0'
aa(lp3808
S'Bryan Habana'
p3809
aS'2004'
p3810
aS'Wing'
p3811
aS'Johannesburg'
p3812
aS'106'
p3813
aS'71'
p3814
aS'57'
p3815
aS'285'
p3816
aa(lp3817
S'Gurthro Steenkamp'
p3818
aS'2004'
p3819
aS'Prop'
p3820
aS'Paarl'
p3821
aS'53'
p3822
aS'41'
p3823
aS'6'
aS'30'
p3824
aa(lp3825
S'Solly Tyibilika'
p3826
aS'2004'
p3827
aS'Back-row'
p3828
aS'Port Elizabeth'
p3829
aS'8'
aS'5'
aS'3'
aS'15'
p3830
aa(lp3831
S'Tonderai Chavhanga'
p3832
aS'2005'
p3833
aS'Wing'
p3834
aS'Masvingo'
p3835
aS'4'
aS'3'
aS'6'
aS'30'
p3836
aa(lp3837
S'Ricky Januarie'
p3838
aS'2005'
p3839
aS'Scrum-half'
p3840
aS'Hopefield'
p3841
aS'47'
p3842
aS'34'
p3843
aS'5'
aS'25'
p3844
aa(lp3845
S'Gary Botha'
p3846
aS'2005'
p3847
aS'Hooker'
p3848
aS'Pretoria'
p3849
aS'12'
p3850
aS'8'
aS'0'
aS'0'
aa(lp3851
S'Meyer Bosman'
p3852
aS'2005'
p3853
aS'Centre'
p3854
aS'Bethlehem'
p3855
aS'3'
aS'1'
aS'0'
aS'7'
aa(lp3856
S'Johann Muller'
p3857
aS'2006'
p3858
aS'Lock'
p3859
aS'Mossel Bay'
p3860
aS'24'
p3861
aS'15'
p3862
aS'0'
aS'0'
aa(lp3863
S'Wynand Olivier'
p3864
aS'2006'
p3865
aS'Centre'
p3866
aS'Welkom'
p3867
aS'38'
p3868
aS'19'
p3869
aS'1'
aS'5'
aa(lp3870
S'Akona Ndungane'
p3871
aS'2006'
p3872
aS'Wing'
p3873
aS'Transkei'
p3874
aS'11'
p3875
aS'7'
aS'1'
aS'5'
aa(lp3876
S'Pierre Spies'
p3877
aS'2006'
p3878
aS'No. 8'
p3879
aS'Pretoria'
p3880
aS'53'
p3881
aS'36'
p3882
aS'7'
aS'35'
p3883
aa(lp3884
S'BJ Botha'
p3885
aS'2006'
p3886
aS'Prop'
p3887
aS'Durban'
p3888
aS'25'
p3889
aS'17'
p3890
aS'1'
aS'5'
aa(lp3891
S'Ruan Pienaar'
p3892
aS'2006'
p3893
aS'Scrum-half'
p3894
aS'Bloemfontein'
p3895
aS'80'
p3896
aS'55'
p3897
aS'8'
aS'135'
p3898
aa(lp3899
S'Chiliboy Ralepelle'
p3900
aS'2006'
p3901
aS'Hooker'
p3902
aS'Tzaneen'
p3903
aS'22'
p3904
aS'14'
p3905
aS'1'
aS'5'
aa(lp3906
S'JP Pietersen'
p3907
aS'2006'
p3908
aS'Wing'
p3909
aS'Stellenbosch'
p3910
aS'59'
p3911
aS'45'
p3912
aS'18'
p3913
aS'90'
p3914
aa(lp3915
S'Bevin Fortuin'
p3916
aS'2006'
p3917
aS'Fullback, Centre'
p3918
aS'George'
p3919
aS'2'
aS'0'
aS'0'
aS'0'
aa(lp3920
S'Jaco Pretorius'
p3921
aS'2006'
p3922
aS'Centre'
p3923
aS'Johannesburg'
p3924
aS'2'
aS'0'
aS'0'
aS'0'
aa(lp3925
S'Frans Steyn'
p3926
aS'2006'
p3927
aS'Centre'
p3928
aS'Aliwal North'
p3929
aS'53'
p3930
aS'38'
p3931
aS'10'
p3932
aS'132'
p3933
aa(lp3934
S'Hilton Lobberts'
p3935
aS'2006'
p3936
aS'Lock'
p3937
aS'Paarl'
p3938
aS'2'
aS'0'
aS'0'
aS'0'
aa(lp3939
S'Kabamba Floors'
p3940
aS'2006'
p3941
aS'Flanker'
p3942
aS'Oudtshoorn'
p3943
aS'1'
aS'1'
aS'0'
aS'0'
aa(lp3944
S'Waylon Murray'
p3945
aS'2007'
p3946
aS'Centre'
p3947
aS'Durban'
p3948
aS'3'
aS'1'
aS'0'
aS'0'
aa(lp3949
S'Luke Watson'
p3950
aS'2007'
p3951
aS'Back-row'
p3952
aS'Port Elizabeth'
p3953
aS'10'
p3954
aS'7'
aS'0'
aS'0'
aa(lp3955
S'Jannie du Plessis'
p3956
aS'2007'
p3957
aS'Prop'
p3958
aS'Bethlehem'
p3959
aS'62'
p3960
aS'44'
p3961
aS'1'
aS'5'
aa(lp3962
S'Bismarck du Plessis'
p3963
aS'2007'
p3964
aS'Hooker'
p3965
aS'Bethlehem'
p3966
aS'70'
p3967
aS'51'
p3968
aS'9'
aS'45'
p3969
aa(lp3970
S'Peter Grant'
p3971
aS'2007'
p3972
aS'Fly-half'
p3973
aS'Durban'
p3974
aS'5'
aS'2'
aS'0'
aS'0'
aa(lp3975
S'Ryan Kankowski'
p3976
aS'2007'
p3977
aS'No. 8'
p3978
aS'Port Elizabeth'
p3979
aS'20'
p3980
aS'10'
p3981
aS'1'
aS'5'
aa(lp3982
S'Heinke van der Merwe'
p3983
aS'2007'
p3984
aS'Prop'
p3985
aS'Johannesburg'
p3986
aS'4'
aS'4'
aS'0'
aS'0'
aa(lp3987
S'Andries Bekker'
p3988
aS'2008'
p3989
aS'Lock'
p3990
aS'Goodwood'
p3991
aS'29'
p3992
aS'18'
p3993
aS'1'
aS'5'
aa(lp3994
S'Brian Mujati'
p3995
aS'2008'
p3996
aS'Prop'
p3997
aS'Bulawayo'
p3998
aS'12'
p3999
aS'8'
aS'0'
aS'0'
aa(lp4000
S'Tendai Mtawarira'
p4001
aS'2008'
p4002
aS'Prop'
p4003
aS'Harare'
p4004
aS'64'
p4005
aS'44'
p4006
aS'2'
aS'10'
p4007
aa(lp4008
S'Odwa Ndungane'
p4009
aS'2008'
p4010
aS'Wing'
p4011
aS'Transkei'
p4012
aS'9'
aS'5'
aS'2'
aS'10'
p4013
aa(lp4014
S'Schalk Brits'
p4015
aS'2008'
p4016
aS'Hooker'
p4017
aS'Empangeni'
p4018
aS'7'
aS'6'
aS'0'
aS'0'
aa(lp4019
S'Adriaan Strauss'
p4020
aS'2008'
p4021
aS'Hooker'
p4022
aS'Bloemfontein'
p4023
aS'44'
p4024
aS'28'
p4025
aS'5'
aS'25'
p4026
aa(lp4027
S'Jongi Nokwe'
p4028
aS'2008'
p4029
aS'Wing'
p4030
aS'Eastern Cape'
p4031
aS'4'
aS'2'
aS'5'
aS'25'
p4032
aa(lp4033
S'Heinrich Brussow'
p4034
aS'2008'
p4035
aS'Flanker'
p4036
aS'Bloemfontein'
p4037
aS'20'
p4038
aS'14'
p4039
aS'1'
aS'5'
aa(lp4040
S'Morne Steyn'
p4041
aS'2009'
p4042
aS'Fly-half'
p4043
aS'Bellville'
p4044
aS'59'
p4045
aS'38'
p4046
aS'8'
aS'688'
p4047
aa(lp4048
S'Zane Kirchner'
p4049
aS'2009'
p4050
aS'Wing, Fullback'
p4051
aS'George'
p4052
aS'29'
p4053
aS'16'
p4054
aS'5'
aS'25'
p4055
aa(lp4056
S'Wian du Preez'
p4057
aS'2009'
p4058
aS'Prop'
p4059
aS'Bloemfontein'
p4060
aS'1'
aS'1'
aS'0'
aS'0'
aa(lp4061
S'Jean Deysel'
p4062
aS'2009'
p4063
aS'Back-row'
p4064
aS'Virginia'
p4065
aS'4'
aS'1'
aS'0'
aS'0'
aa(lp4066
S'Francois Hougaard'
p4067
aS'2009'
p4068
aS'Scrum-half'
p4069
aS'Paarl'
p4070
aS'35'
p4071
aS'21'
p4072
aS'5'
aS'25'
p4073
aa(lp4074
S'Dewald Potgieter'
p4075
aS'2009'
p4076
aS'Back-row'
p4077
aS'Port Elizabeth'
p4078
aS'6'
aS'4'
aS'1'
aS'5'
aa(lp4079
S'Gio Aplon'
p4080
aS'2010'
p4081
aS'Fullback'
p4082
aS'Hermanus'
p4083
aS'17'
p4084
aS'8'
aS'5'
aS'25'
p4085
aa(lp4086
S'Juan de Jongh'
p4087
aS'2010'
p4088
aS'Centre'
p4089
aS'Paarl'
p4090
aS'14'
p4091
aS'9'
aS'3'
aS'15'
p4092
aa(lp4093
S'Francois Louw'
p4094
aS'2010'
p4095
aS'Flanker'
p4096
aS'Cape Town'
p4097
aS'34'
p4098
aS'23'
p4099
aS'5'
aS'25'
p4100
aa(lp4101
S'Bjorn Basson'
p4102
aS'2010'
p4103
aS'Wing'
p4104
aS"King William's Town"
p4105
aS'11'
p4106
aS'9'
aS'3'
aS'15'
p4107
aa(lp4108
S'Alistair Hargreaves'
p4109
aS'2010'
p4110
aS'Lock'
p4111
aS'Durban'
p4112
aS'4'
aS'2'
aS'0'
aS'0'
aa(lp4113
S'Flip van der Merwe'
p4114
aS'2010'
p4115
aS'Lock'
p4116
aS'Potchefstroom'
p4117
aS'35'
p4118
aS'24'
p4119
aS'1'
aS'5'
aa(lp4120
S'Bandise Maku'
p4121
aS'2010'
p4122
aS'Hooker'
p4123
aS"King William's Town"
p4124
aS'1'
aS'1'
aS'0'
aS'0'
aa(lp4125
S'Deon Stegmann'
p4126
aS'2010'
p4127
aS'Flanker'
p4128
aS'Cradock'
p4129
aS'6'
aS'3'
aS'0'
aS'0'
aa(lp4130
S'Keegan Daniel'
p4131
aS'2010'
p4132
aS'Back-row'
p4133
aS'Humansdorp'
p4134
aS'5'
aS'4'
aS'0'
aS'0'
aa(lp4135
S'Patrick Lambie'
p4136
aS'2010'
p4137
aS'Fly-half'
p4138
aS'Durban'
p4139
aS'40'
p4140
aS'27'
p4141
aS'2'
aS'106'
p4142
aa(lp4143
S'Willem Alberts'
p4144
aS'2010'
p4145
aS'Back-row'
p4146
aS'Pretoria'
p4147
aS'32'
p4148
aS'24'
p4149
aS'7'
aS'35'
p4150
aa(lp4151
S'Lwazi Mvovo'
p4152
aS'2010'
p4153
aS'Wing'
p4154
aS'Umtala'
p4155
aS'10'
p4156
aS'4'
aS'3'
aS'15'
p4157
aa(lp4158
S'Dean Greyling'
p4159
aS'2011'
p4160
aS'Prop'
p4161
aS'Potgietersrus'
p4162
aS'3'
aS'0'
aS'0'
aS'0'
aa(lp4163
S'Ashley Johnson'
p4164
aS'2011'
p4165
aS'Back-row'
p4166
aS'Wynberg'
p4167
aS'3'
aS'1'
aS'0'
aS'0'
aa(lp4168
S'Werner Kruger'
p4169
aS'2011'
p4170
aS'Prop'
p4171
aS'Kempton Park'
p4172
aS'4'
aS'1'
aS'0'
aS'0'
aa(lp4173
S'Gerhard Mostert'
p4174
aS'2011'
p4175
aS'Lock'
p4176
aS'Rustenburg'
p4177
aS'2'
aS'0'
aS'0'
aS'0'
aa(lp4178
S'Charl McLeod'
p4179
aS'2011'
p4180
aS'Scrum-half'
p4181
aS'Johannesburg'
p4182
aS'1'
aS'0'
aS'0'
aS'0'
aa(lp4183
S'Marcell Coetzee'
p4184
aS'2012'
p4185
aS'Flanker'
p4186
aS'Potchefstroom'
p4187
aS'26'
p4188
aS'17'
p4189
aS'6'
aS'30'
p4190
aa(lp4191
S'Eben Etzebeth'
p4192
aS'2012'
p4193
aS'Lock'
p4194
aS'Cape Town'
p4195
aS'33'
p4196
aS'23'
p4197
aS'0'
aS'0'
aa(lp4198
S'Juandre Kruger'
p4199
aS'2012'
p4200
aS'Lock'
p4201
aS'Cape Town'
p4202
aS'17'
p4203
aS'12'
p4204
aS'0'
aS'0'
aa(lp4205
S'Coenie Oosthuizen'
p4206
aS'2012'
p4207
aS'Prop'
p4208
aS'Potchefstroom'
p4209
aS'21'
p4210
aS'16'
p4211
aS'3'
aS'15'
p4212
aa(lp4213
S'Jacques Potgieter'
p4214
aS'2012'
p4215
aS'Lock'
p4216
aS'Port Elizabeth'
p4217
aS'3'
aS'1'
aS'0'
aS'0'
aa(lp4218
S'Pat Cilliers'
p4219
aS'2012'
p4220
aS'Prop'
p4221
aS'Pietermaritzburg'
p4222
aS'6'
aS'4'
aS'0'
aS'0'
aa(lp4223
S'JJ Engelbrecht'
p4224
aS'2012'
p4225
aS'Centre'
p4226
aS'Port Elizabeth'
p4227
aS'12'
p4228
aS'10'
p4229
aS'4'
aS'20'
p4230
aa(lp4231
S'Tiaan Liebenberg'
p4232
aS'2012'
p4233
aS'Hooker'
p4234
aS'Kimberley'
p4235
aS'5'
aS'1'
aS'0'
aS'0'
aa(lp4236
S'Duane Vermeulen'
p4237
aS'2012'
p4238
aS'No. 8'
p4239
aS'Nelspruit'
p4240
aS'29'
p4241
aS'20'
p4242
aS'2'
aS'10'
p4243
aa(lp4244
S'Johan Goosen'
p4245
aS'2012'
p4246
aS'Fly-half'
p4247
aS'Burgersdorp'
p4248
aS'6'
aS'3'
aS'0'
aS'8'
aa(lp4249
S'Jaco Taute'
p4250
aS'2012'
p4251
aS'Fullback'
p4252
aS'Springs'
p4253
aS'3'
aS'2'
aS'0'
aS'0'
aa(lp4254
S'Elton Jantjies'
p4255
aS'2012'
p4256
aS'Fly-half'
p4257
aS'Graaff Reinet'
p4258
aS'2'
aS'1'
aS'0'
aS'6'
aa(lp4259
S'Arno Botha'
p4260
aS'2013'
p4261
aS'Flanker'
p4262
aS'Modimolle'
p4263
aS'2'
aS'2'
aS'0'
aS'0'
aa(lp4264
S'Willie le Roux'
p4265
aS'2013'
p4266
aS'Fullback'
p4267
aS'Cape Town'
p4268
aS'25'
p4269
aS'19'
p4270
aS'7'
aS'35'
p4271
aa(lp4272
S'Jano Vermaak'
p4273
aS'2013'
p4274
aS'Scrum-half'
p4275
aS'Graaff-Reinet'
p4276
aS'3'
aS'2'
aS'0'
aS'0'
aa(lp4277
S'Trevor Nyakane'
p4278
aS'2013'
p4279
aS'Prop'
p4280
aS'Bushbuck Ridge'
p4281
aS'13'
p4282
aS'9'
aS'1'
aS'5'
aa(lp4283
S'Jan Serfontein'
p4284
aS'2013'
p4285
aS'Centre'
p4286
aS'Port Elizabeth'
p4287
aS'20'
p4288
aS'14'
p4289
aS'2'
aS'10'
p4290
aa(lp4291
S'Siya Kolisi'
p4292
aS'2013'
p4293
aS'Flanker'
p4294
aS'Port Elizabeth'
p4295
aS'10'
p4296
aS'8'
aS'0'
aS'0'
aa(lp4297
S'Piet van Zyl'
p4298
aS'2013'
p4299
aS'Scrum-half'
p4300
aS'Pretoria'
p4301
aS'2'
aS'2'
aS'0'
aS'0'
aa(lp4302
S'Franco van der Merwe'
p4303
aS'2013'
p4304
aS'Lock'
p4305
aS'Paarl'
p4306
aS'1'
aS'0'
aS'0'
aS'0'
aa(lp4307
S'Frans Malherbe'
p4308
aS'2013'
p4309
aS'Prop'
p4310
aS'Paarl'
p4311
aS'4'
aS'4'
aS'0'
aS'0'
aa(lp4312
S'Pieter-Steph du Toit'
p4313
aS'2013'
p4314
aS'Lock'
p4315
aS'Cape Town'
p4316
aS'2'
aS'2'
aS'0'
aS'0'
aa(lp4317
S'Lourens Adriaanse'
p4318
aS'2013'
p4319
aS'Prop'
p4320
aS'Cape Town'
p4321
aS'1'
aS'1'
aS'0'
aS'0'
aa(lp4322
S'Cornal Hendricks'
p4323
aS'2014'
p4324
aS'Wing'
p4325
aS'Paarl'
p4326
aS'11'
p4327
aS'7'
aS'5'
aS'25'
p4328
aa(lp4329
S'Lood de Jager'
p4330
aS'2014'
p4331
aS'Lock'
p4332
aS'Alberton'
p4333
aS'9'
aS'6'
aS'2'
aS'10'
p4334
aa(lp4335
S'Handre Pollard'
p4336
aS'2014'
p4337
aS'Fly-half'
p4338
aS'Somerset West'
p4339
aS'9'
aS'6'
aS'2'
aS'65'
p4340
aa(lp4341
S'Marnitz Boshoff'
p4342
aS'2014'
p4343
aS'Utility back'
p4344
aS'Nelspruit'
p4345
aS'1'
aS'1'
aS'0'
aS'2'
aa(lp4346
S'Stephan Lewies'
p4347
aS'2014'
p4348
aS'Lock'
p4349
aS'Pretoria'
p4350
aS'1'
aS'1'
aS'0'
aS'0'
aa(lp4351
S'Oupa Mohoje'
p4352
aS'2014'
p4353
aS'Flanker'
p4354
aS'Qwa Qwa'
p4355
aS'7'
aS'5'
aS'0'
aS'0'
aa(lp4356
S'Marcel van der Merwe'
p4357
aS'2014'
p4358
aS'Prop'
p4359
aS'Welkom'
p4360
aS'5'
aS'3'
aS'0'
aS'0'
aa(lp4361
S'Damian de Allende'
p4362
aS'2014'
p4363
aS'Centre'
p4364
aS'Cape Town'
p4365
aS'3'
aS'2'
aS'0'
aS'0'
aa(lp4366
S'Warren Whiteley'
p4367
aS'2014'
p4368
aS'No. 8'
p4369
aS'Durban'
p4370
aS'2'
aS'0'
aS'0'
aS'0'
aa(lp4371
S'Cobus Reinach'
p4372
aS'2014'
p4373
aS'Scrum-half'
p4374
aS'Bloemfontein'
p4375
aS'6'
aS'4'
aS'2'
aS'10'
p4376
aa(lp4377
S'Nizaam Carr'
p4378
aS'2014'
p4379
aS'Back-row'
p4380
aS'Cape Town'
p4381
aS'2'
aS'1'
aS'0'
aS'0'
aa(lp4382
S'Julian Redelinghuys'
p4383
aS'2014'
p4384
aS'Prop'
p4385
aS'Pretoria'
p4386
aS'2'
aS'1'
aS'0'
aS'0'
aa.