(lp1
S'http://www.espnscrum.com/southafrica/rugby/player/982.html'
p2
aS'http://www.espnscrum.com/southafrica/rugby/player/983.html'
p3
aS'http://www.espnscrum.com/southafrica/rugby/player/984.html'
p4
aS'http://www.espnscrum.com/southafrica/rugby/player/985.html'
p5
aS'http://www.espnscrum.com/southafrica/rugby/player/986.html'
p6
aS'http://www.espnscrum.com/southafrica/rugby/player/987.html'
p7
aS'http://www.espnscrum.com/southafrica/rugby/player/989.html'
p8
aS'http://www.espnscrum.com/southafrica/rugby/player/990.html'
p9
aS'http://www.espnscrum.com/southafrica/rugby/player/992.html'
p10
aS'http://www.espnscrum.com/southafrica/rugby/player/993.html'
p11
aS'http://www.espnscrum.com/southafrica/rugby/player/994.html'
p12
aS'http://www.espnscrum.com/southafrica/rugby/player/995.html'
p13
aS'http://www.espnscrum.com/southafrica/rugby/player/999.html'
p14
aS'http://www.espnscrum.com/southafrica/rugby/player/1000.html'
p15
aS'http://www.espnscrum.com/southafrica/rugby/player/1001.html'
p16
aS'http://www.espnscrum.com/southafrica/rugby/player/1004.html'
p17
aS'http://www.espnscrum.com/southafrica/rugby/player/1005.html'
p18
aS'http://www.espnscrum.com/southafrica/rugby/player/1008.html'
p19
aS'http://www.espnscrum.com/southafrica/rugby/player/1010.html'
p20
aS'http://www.espnscrum.com/southafrica/rugby/player/1011.html'
p21
aS'http://www.espnscrum.com/southafrica/rugby/player/1012.html'
p22
aS'http://www.espnscrum.com/southafrica/rugby/player/1013.html'
p23
aS'http://www.espnscrum.com/southafrica/rugby/player/1014.html'
p24
aS'http://www.espnscrum.com/southafrica/rugby/player/1015.html'
p25
aS'http://www.espnscrum.com/southafrica/rugby/player/1016.html'
p26
aS'http://www.espnscrum.com/southafrica/rugby/player/1017.html'
p27
aS'http://www.espnscrum.com/southafrica/rugby/player/1018.html'
p28
aS'http://www.espnscrum.com/southafrica/rugby/player/1019.html'
p29
aS'http://www.espnscrum.com/southafrica/rugby/player/1199.html'
p30
aS'http://www.espnscrum.com/southafrica/rugby/player/1200.html'
p31
aS'http://www.espnscrum.com/southafrica/rugby/player/1202.html'
p32
aS'http://www.espnscrum.com/southafrica/rugby/player/1204.html'
p33
aS'http://www.espnscrum.com/southafrica/rugby/player/1205.html'
p34
aS'http://www.espnscrum.com/southafrica/rugby/player/1208.html'
p35
aS'http://www.espnscrum.com/southafrica/rugby/player/1210.html'
p36
aS'http://www.espnscrum.com/southafrica/rugby/player/1214.html'
p37
aS'http://www.espnscrum.com/southafrica/rugby/player/1215.html'
p38
aS'http://www.espnscrum.com/southafrica/rugby/player/1216.html'
p39
aS'http://www.espnscrum.com/southafrica/rugby/player/1206.html'
p40
aS'http://www.espnscrum.com/southafrica/rugby/player/1218.html'
p41
aS'http://www.espnscrum.com/southafrica/rugby/player/1219.html'
p42
aS'http://www.espnscrum.com/southafrica/rugby/player/1221.html'
p43
aS'http://www.espnscrum.com/southafrica/rugby/player/1223.html'
p44
aS'http://www.espnscrum.com/southafrica/rugby/player/1224.html'
p45
aS'http://www.espnscrum.com/southafrica/rugby/player/1225.html'
p46
aS'http://www.espnscrum.com/southafrica/rugby/player/1226.html'
p47
aS'http://www.espnscrum.com/southafrica/rugby/player/1227.html'
p48
aS'http://www.espnscrum.com/southafrica/rugby/player/1228.html'
p49
aS'http://www.espnscrum.com/southafrica/rugby/player/1229.html'
p50
aS'http://www.espnscrum.com/southafrica/rugby/player/1230.html'
p51
aS'http://www.espnscrum.com/southafrica/rugby/player/1231.html'
p52
aS'http://www.espnscrum.com/southafrica/rugby/player/1232.html'
p53
aS'http://www.espnscrum.com/southafrica/rugby/player/1233.html'
p54
aS'http://www.espnscrum.com/southafrica/rugby/player/1234.html'
p55
aS'http://www.espnscrum.com/southafrica/rugby/player/1236.html'
p56
aS'http://www.espnscrum.com/southafrica/rugby/player/1237.html'
p57
aS'http://www.espnscrum.com/southafrica/rugby/player/1238.html'
p58
aS'http://www.espnscrum.com/southafrica/rugby/player/1239.html'
p59
aS'http://www.espnscrum.com/southafrica/rugby/player/1240.html'
p60
aS'http://www.espnscrum.com/southafrica/rugby/player/1241.html'
p61
aS'http://www.espnscrum.com/southafrica/rugby/player/1242.html'
p62
aS'http://www.espnscrum.com/southafrica/rugby/player/1580.html'
p63
aS'http://www.espnscrum.com/southafrica/rugby/player/1581.html'
p64
aS'http://www.espnscrum.com/southafrica/rugby/player/1584.html'
p65
aS'http://www.espnscrum.com/southafrica/rugby/player/1466.html'
p66
aS'http://www.espnscrum.com/southafrica/rugby/player/1589.html'
p67
aS'http://www.espnscrum.com/southafrica/rugby/player/1590.html'
p68
aS'http://www.espnscrum.com/southafrica/rugby/player/1107.html'
p69
aS'http://www.espnscrum.com/southafrica/rugby/player/1591.html'
p70
aS'http://www.espnscrum.com/southafrica/rugby/player/1592.html'
p71
aS'http://www.espnscrum.com/southafrica/rugby/player/1593.html'
p72
aS'http://www.espnscrum.com/southafrica/rugby/player/1594.html'
p73
aS'http://www.espnscrum.com/southafrica/rugby/player/1595.html'
p74
aS'http://www.espnscrum.com/southafrica/rugby/player/1596.html'
p75
aS'http://www.espnscrum.com/southafrica/rugby/player/1598.html'
p76
aS'http://www.espnscrum.com/southafrica/rugby/player/1599.html'
p77
aS'http://www.espnscrum.com/southafrica/rugby/player/1600.html'
p78
aS'http://www.espnscrum.com/southafrica/rugby/player/1602.html'
p79
aS'http://www.espnscrum.com/southafrica/rugby/player/1603.html'
p80
aS'http://www.espnscrum.com/southafrica/rugby/player/1604.html'
p81
aS'http://www.espnscrum.com/southafrica/rugby/player/1605.html'
p82
aS'http://www.espnscrum.com/southafrica/rugby/player/1606.html'
p83
aS'http://www.espnscrum.com/southafrica/rugby/player/1608.html'
p84
aS'http://www.espnscrum.com/southafrica/rugby/player/1609.html'
p85
aS'http://www.espnscrum.com/southafrica/rugby/player/1610.html'
p86
aS'http://www.espnscrum.com/southafrica/rugby/player/1484.html'
p87
aS'http://www.espnscrum.com/southafrica/rugby/player/1611.html'
p88
aS'http://www.espnscrum.com/southafrica/rugby/player/1612.html'
p89
aS'http://www.espnscrum.com/southafrica/rugby/player/1613.html'
p90
aS'http://www.espnscrum.com/southafrica/rugby/player/1614.html'
p91
aS'http://www.espnscrum.com/southafrica/rugby/player/1822.html'
p92
aS'http://www.espnscrum.com/southafrica/rugby/player/1823.html'
p93
aS'http://www.espnscrum.com/southafrica/rugby/player/1824.html'
p94
aS'http://www.espnscrum.com/southafrica/rugby/player/1825.html'
p95
aS'http://www.espnscrum.com/southafrica/rugby/player/1826.html'
p96
aS'http://www.espnscrum.com/southafrica/rugby/player/1827.html'
p97
aS'http://www.espnscrum.com/southafrica/rugby/player/1830.html'
p98
aS'http://www.espnscrum.com/southafrica/rugby/player/1831.html'
p99
aS'http://www.espnscrum.com/southafrica/rugby/player/1832.html'
p100
aS'http://www.espnscrum.com/southafrica/rugby/player/1834.html'
p101
aS'http://www.espnscrum.com/southafrica/rugby/player/1837.html'
p102
aS'http://www.espnscrum.com/southafrica/rugby/player/1838.html'
p103
aS'http://www.espnscrum.com/southafrica/rugby/player/1839.html'
p104
aS'http://www.espnscrum.com/southafrica/rugby/player/1840.html'
p105
aS'http://www.espnscrum.com/southafrica/rugby/player/1842.html'
p106
aS'http://www.espnscrum.com/southafrica/rugby/player/1851.html'
p107
aS'http://www.espnscrum.com/southafrica/rugby/player/2168.html'
p108
aS'http://www.espnscrum.com/southafrica/rugby/player/2169.html'
p109
aS'http://www.espnscrum.com/southafrica/rugby/player/2170.html'
p110
aS'http://www.espnscrum.com/southafrica/rugby/player/2171.html'
p111
aS'http://www.espnscrum.com/southafrica/rugby/player/2172.html'
p112
aS'http://www.espnscrum.com/southafrica/rugby/player/2174.html'
p113
aS'http://www.espnscrum.com/southafrica/rugby/player/2175.html'
p114
aS'http://www.espnscrum.com/southafrica/rugby/player/2177.html'
p115
aS'http://www.espnscrum.com/southafrica/rugby/player/2180.html'
p116
aS'http://www.espnscrum.com/southafrica/rugby/player/2181.html'
p117
aS'http://www.espnscrum.com/southafrica/rugby/player/2184.html'
p118
aS'http://www.espnscrum.com/southafrica/rugby/player/2185.html'
p119
aS'http://www.espnscrum.com/southafrica/rugby/player/2186.html'
p120
aS'http://www.espnscrum.com/southafrica/rugby/player/2187.html'
p121
aS'http://www.espnscrum.com/southafrica/rugby/player/2188.html'
p122
aS'http://www.espnscrum.com/southafrica/rugby/player/2189.html'
p123
aS'http://www.espnscrum.com/southafrica/rugby/player/2190.html'
p124
aS'http://www.espnscrum.com/southafrica/rugby/player/2191.html'
p125
aS'http://www.espnscrum.com/southafrica/rugby/player/2192.html'
p126
aS'http://www.espnscrum.com/southafrica/rugby/player/2322.html'
p127
aS'http://www.espnscrum.com/southafrica/rugby/player/2323.html'
p128
aS'http://www.espnscrum.com/southafrica/rugby/player/2324.html'
p129
aS'http://www.espnscrum.com/southafrica/rugby/player/2325.html'
p130
aS'http://www.espnscrum.com/southafrica/rugby/player/2326.html'
p131
aS'http://www.espnscrum.com/southafrica/rugby/player/2327.html'
p132
aS'http://www.espnscrum.com/southafrica/rugby/player/2328.html'
p133
aS'http://www.espnscrum.com/southafrica/rugby/player/2329.html'
p134
aS'http://www.espnscrum.com/southafrica/rugby/player/2330.html'
p135
aS'http://www.espnscrum.com/southafrica/rugby/player/2331.html'
p136
aS'http://www.espnscrum.com/southafrica/rugby/player/2359.html'
p137
aS'http://www.espnscrum.com/southafrica/rugby/player/2360.html'
p138
aS'http://www.espnscrum.com/southafrica/rugby/player/2364.html'
p139
aS'http://www.espnscrum.com/southafrica/rugby/player/2786.html'
p140
aS'http://www.espnscrum.com/southafrica/rugby/player/2790.html'
p141
aS'http://www.espnscrum.com/southafrica/rugby/player/2602.html'
p142
aS'http://www.espnscrum.com/southafrica/rugby/player/2792.html'
p143
aS'http://www.espnscrum.com/southafrica/rugby/player/2793.html'
p144
aS'http://www.espnscrum.com/southafrica/rugby/player/2794.html'
p145
aS'http://www.espnscrum.com/southafrica/rugby/player/2795.html'
p146
aS'http://www.espnscrum.com/southafrica/rugby/player/2809.html'
p147
aS'http://www.espnscrum.com/southafrica/rugby/player/2814.html'
p148
aS'http://www.espnscrum.com/southafrica/rugby/player/2799.html'
p149
aS'http://www.espnscrum.com/southafrica/rugby/player/2824.html'
p150
aS'http://www.espnscrum.com/southafrica/rugby/player/2804.html'
p151
aS'http://www.espnscrum.com/southafrica/rugby/player/2805.html'
p152
aS'http://www.espnscrum.com/southafrica/rugby/player/2787.html'
p153
aS'http://www.espnscrum.com/southafrica/rugby/player/2812.html'
p154
aS'http://www.espnscrum.com/southafrica/rugby/player/2796.html'
p155
aS'http://www.espnscrum.com/southafrica/rugby/player/2828.html'
p156
aS'http://www.espnscrum.com/southafrica/rugby/player/2811.html'
p157
aS'http://www.espnscrum.com/southafrica/rugby/player/2817.html'
p158
aS'http://www.espnscrum.com/southafrica/rugby/player/2807.html'
p159
aS'http://www.espnscrum.com/southafrica/rugby/player/2816.html'
p160
aS'http://www.espnscrum.com/southafrica/rugby/player/3144.html'
p161
aS'http://www.espnscrum.com/southafrica/rugby/player/3145.html'
p162
aS'http://www.espnscrum.com/southafrica/rugby/player/3149.html'
p163
aS'http://www.espnscrum.com/southafrica/rugby/player/3151.html'
p164
aS'http://www.espnscrum.com/southafrica/rugby/player/3152.html'
p165
aS'http://www.espnscrum.com/southafrica/rugby/player/3153.html'
p166
aS'http://www.espnscrum.com/southafrica/rugby/player/2803.html'
p167
aS'http://www.espnscrum.com/southafrica/rugby/player/3154.html'
p168
aS'http://www.espnscrum.com/southafrica/rugby/player/3178.html'
p169
aS'http://www.espnscrum.com/southafrica/rugby/player/3179.html'
p170
aS'http://www.espnscrum.com/southafrica/rugby/player/3181.html'
p171
aS'http://www.espnscrum.com/southafrica/rugby/player/3182.html'
p172
aS'http://www.espnscrum.com/southafrica/rugby/player/3183.html'
p173
aS'http://www.espnscrum.com/southafrica/rugby/player/3184.html'
p174
aS'http://www.espnscrum.com/southafrica/rugby/player/3185.html'
p175
aS'http://www.espnscrum.com/southafrica/rugby/player/3546.html'
p176
aS'http://www.espnscrum.com/southafrica/rugby/player/3547.html'
p177
aS'http://www.espnscrum.com/southafrica/rugby/player/3548.html'
p178
aS'http://www.espnscrum.com/southafrica/rugby/player/3552.html'
p179
aS'http://www.espnscrum.com/southafrica/rugby/player/3553.html'
p180
aS'http://www.espnscrum.com/southafrica/rugby/player/3554.html'
p181
aS'http://www.espnscrum.com/southafrica/rugby/player/3555.html'
p182
aS'http://www.espnscrum.com/southafrica/rugby/player/3556.html'
p183
aS'http://www.espnscrum.com/southafrica/rugby/player/3560.html'
p184
aS'http://www.espnscrum.com/southafrica/rugby/player/3561.html'
p185
aS'http://www.espnscrum.com/southafrica/rugby/player/3562.html'
p186
aS'http://www.espnscrum.com/southafrica/rugby/player/3564.html'
p187
aS'http://www.espnscrum.com/southafrica/rugby/player/3565.html'
p188
aS'http://www.espnscrum.com/southafrica/rugby/player/3566.html'
p189
aS'http://www.espnscrum.com/southafrica/rugby/player/3567.html'
p190
aS'http://www.espnscrum.com/southafrica/rugby/player/3569.html'
p191
aS'http://www.espnscrum.com/southafrica/rugby/player/3570.html'
p192
aS'http://www.espnscrum.com/southafrica/rugby/player/3571.html'
p193
aS'http://www.espnscrum.com/southafrica/rugby/player/3582.html'
p194
aS'http://www.espnscrum.com/southafrica/rugby/player/3584.html'
p195
aS'http://www.espnscrum.com/southafrica/rugby/player/3906.html'
p196
aS'http://www.espnscrum.com/southafrica/rugby/player/3907.html'
p197
aS'http://www.espnscrum.com/southafrica/rugby/player/3909.html'
p198
aS'http://www.espnscrum.com/southafrica/rugby/player/3910.html'
p199
aS'http://www.espnscrum.com/southafrica/rugby/player/3911.html'
p200
aS'http://www.espnscrum.com/southafrica/rugby/player/3912.html'
p201
aS'http://www.espnscrum.com/southafrica/rugby/player/3913.html'
p202
aS'http://www.espnscrum.com/southafrica/rugby/player/3914.html'
p203
aS'http://www.espnscrum.com/southafrica/rugby/player/3915.html'
p204
aS'http://www.espnscrum.com/southafrica/rugby/player/3916.html'
p205
aS'http://www.espnscrum.com/southafrica/rugby/player/3917.html'
p206
aS'http://www.espnscrum.com/southafrica/rugby/player/3918.html'
p207
aS'http://www.espnscrum.com/southafrica/rugby/player/3927.html'
p208
aS'http://www.espnscrum.com/southafrica/rugby/player/4009.html'
p209
aS'http://www.espnscrum.com/southafrica/rugby/player/4112.html'
p210
aS'http://www.espnscrum.com/southafrica/rugby/player/3322.html'
p211
aS'http://www.espnscrum.com/southafrica/rugby/player/4113.html'
p212
aS'http://www.espnscrum.com/southafrica/rugby/player/4115.html'
p213
aS'http://www.espnscrum.com/southafrica/rugby/player/4118.html'
p214
aS'http://www.espnscrum.com/southafrica/rugby/player/4120.html'
p215
aS'http://www.espnscrum.com/southafrica/rugby/player/4122.html'
p216
aS'http://www.espnscrum.com/southafrica/rugby/player/4023.html'
p217
aS'http://www.espnscrum.com/southafrica/rugby/player/4123.html'
p218
aS'http://www.espnscrum.com/southafrica/rugby/player/4124.html'
p219
aS'http://www.espnscrum.com/southafrica/rugby/player/4125.html'
p220
aS'http://www.espnscrum.com/southafrica/rugby/player/4001.html'
p221
aS'http://www.espnscrum.com/southafrica/rugby/player/4126.html'
p222
aS'http://www.espnscrum.com/southafrica/rugby/player/4507.html'
p223
aS'http://www.espnscrum.com/southafrica/rugby/player/4508.html'
p224
aS'http://www.espnscrum.com/southafrica/rugby/player/4510.html'
p225
aS'http://www.espnscrum.com/southafrica/rugby/player/4512.html'
p226
aS'http://www.espnscrum.com/southafrica/rugby/player/4513.html'
p227
aS'http://www.espnscrum.com/southafrica/rugby/player/4519.html'
p228
aS'http://www.espnscrum.com/southafrica/rugby/player/4522.html'
p229
aS'http://www.espnscrum.com/southafrica/rugby/player/4523.html'
p230
aS'http://www.espnscrum.com/southafrica/rugby/player/4527.html'
p231
aS'http://www.espnscrum.com/southafrica/rugby/player/4534.html'
p232
aS'http://www.espnscrum.com/southafrica/rugby/player/4536.html'
p233
aS'http://www.espnscrum.com/southafrica/rugby/player/4619.html'
p234
aS'http://www.espnscrum.com/southafrica/rugby/player/4620.html'
p235
aS'http://www.espnscrum.com/southafrica/rugby/player/4629.html'
p236
aS'http://www.espnscrum.com/southafrica/rugby/player/4667.html'
p237
aS'http://www.espnscrum.com/southafrica/rugby/player/4669.html'
p238
aS'http://www.espnscrum.com/southafrica/rugby/player/5194.html'
p239
aS'http://www.espnscrum.com/southafrica/rugby/player/5195.html'
p240
aS'http://www.espnscrum.com/southafrica/rugby/player/5196.html'
p241
aS'http://www.espnscrum.com/southafrica/rugby/player/5197.html'
p242
aS'http://www.espnscrum.com/southafrica/rugby/player/5201.html'
p243
aS'http://www.espnscrum.com/southafrica/rugby/player/5202.html'
p244
aS'http://www.espnscrum.com/southafrica/rugby/player/5203.html'
p245
aS'http://www.espnscrum.com/southafrica/rugby/player/5205.html'
p246
aS'http://www.espnscrum.com/southafrica/rugby/player/5206.html'
p247
aS'http://www.espnscrum.com/southafrica/rugby/player/5207.html'
p248
aS'http://www.espnscrum.com/southafrica/rugby/player/5210.html'
p249
aS'http://www.espnscrum.com/southafrica/rugby/player/5211.html'
p250
aS'http://www.espnscrum.com/southafrica/rugby/player/5212.html'
p251
aS'http://www.espnscrum.com/southafrica/rugby/player/5213.html'
p252
aS'http://www.espnscrum.com/southafrica/rugby/player/5214.html'
p253
aS'http://www.espnscrum.com/southafrica/rugby/player/5216.html'
p254
aS'http://www.espnscrum.com/southafrica/rugby/player/5217.html'
p255
aS'http://www.espnscrum.com/southafrica/rugby/player/5219.html'
p256
aS'http://www.espnscrum.com/southafrica/rugby/player/5221.html'
p257
aS'http://www.espnscrum.com/southafrica/rugby/player/5237.html'
p258
aS'http://www.espnscrum.com/southafrica/rugby/player/5254.html'
p259
aS'http://www.espnscrum.com/southafrica/rugby/player/5257.html'
p260
aS'http://www.espnscrum.com/southafrica/rugby/player/5258.html'
p261
aS'http://www.espnscrum.com/southafrica/rugby/player/5259.html'
p262
aS'http://www.espnscrum.com/southafrica/rugby/player/5481.html'
p263
aS'http://www.espnscrum.com/southafrica/rugby/player/5482.html'
p264
aS'http://www.espnscrum.com/southafrica/rugby/player/5483.html'
p265
aS'http://www.espnscrum.com/southafrica/rugby/player/5484.html'
p266
aS'http://www.espnscrum.com/southafrica/rugby/player/5487.html'
p267
aS'http://www.espnscrum.com/southafrica/rugby/player/5488.html'
p268
aS'http://www.espnscrum.com/southafrica/rugby/player/5491.html'
p269
aS'http://www.espnscrum.com/southafrica/rugby/player/5495.html'
p270
aS'http://www.espnscrum.com/southafrica/rugby/player/5700.html'
p271
aS'http://www.espnscrum.com/southafrica/rugby/player/5707.html'
p272
aS'http://www.espnscrum.com/southafrica/rugby/player/5708.html'
p273
aS'http://www.espnscrum.com/southafrica/rugby/player/5709.html'
p274
aS'http://www.espnscrum.com/southafrica/rugby/player/5710.html'
p275
aS'http://www.espnscrum.com/southafrica/rugby/player/5711.html'
p276
aS'http://www.espnscrum.com/southafrica/rugby/player/5712.html'
p277
aS'http://www.espnscrum.com/southafrica/rugby/player/5713.html'
p278
aS'http://www.espnscrum.com/southafrica/rugby/player/5950.html'
p279
aS'http://www.espnscrum.com/southafrica/rugby/player/5951.html'
p280
aS'http://www.espnscrum.com/southafrica/rugby/player/5952.html'
p281
aS'http://www.espnscrum.com/southafrica/rugby/player/5953.html'
p282
aS'http://www.espnscrum.com/southafrica/rugby/player/5955.html'
p283
aS'http://www.espnscrum.com/southafrica/rugby/player/5956.html'
p284
aS'http://www.espnscrum.com/southafrica/rugby/player/5957.html'
p285
aS'http://www.espnscrum.com/southafrica/rugby/player/5958.html'
p286
aS'http://www.espnscrum.com/southafrica/rugby/player/5959.html'
p287
aS'http://www.espnscrum.com/southafrica/rugby/player/5960.html'
p288
aS'http://www.espnscrum.com/southafrica/rugby/player/5961.html'
p289
aS'http://www.espnscrum.com/southafrica/rugby/player/5966.html'
p290
aS'http://www.espnscrum.com/southafrica/rugby/player/5968.html'
p291
aS'http://www.espnscrum.com/southafrica/rugby/player/5974.html'
p292
aS'http://www.espnscrum.com/southafrica/rugby/player/5979.html'
p293
aS'http://www.espnscrum.com/southafrica/rugby/player/5982.html'
p294
aS'http://www.espnscrum.com/southafrica/rugby/player/6050.html'
p295
aS'http://www.espnscrum.com/southafrica/rugby/player/6051.html'
p296
aS'http://www.espnscrum.com/southafrica/rugby/player/6052.html'
p297
aS'http://www.espnscrum.com/southafrica/rugby/player/6055.html'
p298
aS'http://www.espnscrum.com/southafrica/rugby/player/6058.html'
p299
aS'http://www.espnscrum.com/southafrica/rugby/player/6059.html'
p300
aS'http://www.espnscrum.com/southafrica/rugby/player/6088.html'
p301
aS'http://www.espnscrum.com/southafrica/rugby/player/6277.html'
p302
aS'http://www.espnscrum.com/southafrica/rugby/player/6278.html'
p303
aS'http://www.espnscrum.com/southafrica/rugby/player/6279.html'
p304
aS'http://www.espnscrum.com/southafrica/rugby/player/6280.html'
p305
aS'http://www.espnscrum.com/southafrica/rugby/player/6281.html'
p306
aS'http://www.espnscrum.com/southafrica/rugby/player/6282.html'
p307
aS'http://www.espnscrum.com/southafrica/rugby/player/6284.html'
p308
aS'http://www.espnscrum.com/southafrica/rugby/player/6294.html'
p309
aS'http://www.espnscrum.com/southafrica/rugby/player/6295.html'
p310
aS'http://www.espnscrum.com/southafrica/rugby/player/6296.html'
p311
aS'http://www.espnscrum.com/southafrica/rugby/player/6297.html'
p312
aS'http://www.espnscrum.com/southafrica/rugby/player/6413.html'
p313
aS'http://www.espnscrum.com/southafrica/rugby/player/6504.html'
p314
aS'http://www.espnscrum.com/southafrica/rugby/player/6417.html'
p315
aS'http://www.espnscrum.com/southafrica/rugby/player/6456.html'
p316
aS'http://www.espnscrum.com/southafrica/rugby/player/6418.html'
p317
aS'http://www.espnscrum.com/southafrica/rugby/player/6420.html'
p318
aS'http://www.espnscrum.com/southafrica/rugby/player/6421.html'
p319
aS'http://www.espnscrum.com/southafrica/rugby/player/6428.html'
p320
aS'http://www.espnscrum.com/southafrica/rugby/player/6458.html'
p321
aS'http://www.espnscrum.com/southafrica/rugby/player/6507.html'
p322
aS'http://www.espnscrum.com/southafrica/rugby/player/6516.html'
p323
aS'http://www.espnscrum.com/southafrica/rugby/player/6517.html'
p324
aS'http://www.espnscrum.com/southafrica/rugby/player/6518.html'
p325
aS'http://www.espnscrum.com/southafrica/rugby/player/6426.html'
p326
aS'http://www.espnscrum.com/southafrica/rugby/player/6520.html'
p327
aS'http://www.espnscrum.com/southafrica/rugby/player/6521.html'
p328
aS'http://www.espnscrum.com/southafrica/rugby/player/6424.html'
p329
aS'http://www.espnscrum.com/southafrica/rugby/player/6541.html'
p330
aS'http://www.espnscrum.com/southafrica/rugby/player/6547.html'
p331
aS'http://www.espnscrum.com/southafrica/rugby/player/6549.html'
p332
aS'http://www.espnscrum.com/southafrica/rugby/player/6554.html'
p333
aS'http://www.espnscrum.com/southafrica/rugby/player/6555.html'
p334
aS'http://www.espnscrum.com/southafrica/rugby/player/6557.html'
p335
aS'http://www.espnscrum.com/southafrica/rugby/player/6562.html'
p336
aS'http://www.espnscrum.com/southafrica/rugby/player/6593.html'
p337
aS'http://www.espnscrum.com/southafrica/rugby/player/6595.html'
p338
aS'http://www.espnscrum.com/southafrica/rugby/player/6596.html'
p339
aS'http://www.espnscrum.com/southafrica/rugby/player/6430.html'
p340
aS'http://www.espnscrum.com/southafrica/rugby/player/6697.html'
p341
aS'http://www.espnscrum.com/southafrica/rugby/player/6429.html'
p342
aS'http://www.espnscrum.com/southafrica/rugby/player/6698.html'
p343
aS'http://www.espnscrum.com/southafrica/rugby/player/6699.html'
p344
aS'http://www.espnscrum.com/southafrica/rugby/player/6700.html'
p345
aS'http://www.espnscrum.com/southafrica/rugby/player/6702.html'
p346
aS'http://www.espnscrum.com/southafrica/rugby/player/6824.html'
p347
aS'http://www.espnscrum.com/southafrica/rugby/player/6825.html'
p348
aS'http://www.espnscrum.com/southafrica/rugby/player/6457.html'
p349
aS'http://www.espnscrum.com/southafrica/rugby/player/6826.html'
p350
aS'http://www.espnscrum.com/southafrica/rugby/player/6831.html'
p351
aS'http://www.espnscrum.com/southafrica/rugby/player/6832.html'
p352
aS'http://www.espnscrum.com/southafrica/rugby/player/6833.html'
p353
aS'http://www.espnscrum.com/southafrica/rugby/player/6834.html'
p354
aS'http://www.espnscrum.com/southafrica/rugby/player/6835.html'
p355
aS'http://www.espnscrum.com/southafrica/rugby/player/6850.html'
p356
aS'http://www.espnscrum.com/southafrica/rugby/player/6851.html'
p357
aS'http://www.espnscrum.com/southafrica/rugby/player/6906.html'
p358
aS'http://www.espnscrum.com/southafrica/rugby/player/6909.html'
p359
aS'http://www.espnscrum.com/southafrica/rugby/player/6911.html'
p360
aS'http://www.espnscrum.com/southafrica/rugby/player/6986.html'
p361
aS'http://www.espnscrum.com/southafrica/rugby/player/6987.html'
p362
aS'http://www.espnscrum.com/southafrica/rugby/player/6988.html'
p363
aS'http://www.espnscrum.com/southafrica/rugby/player/6989.html'
p364
aS'http://www.espnscrum.com/southafrica/rugby/player/7019.html'
p365
aS'http://www.espnscrum.com/southafrica/rugby/player/7020.html'
p366
aS'http://www.espnscrum.com/southafrica/rugby/player/7028.html'
p367
aS'http://www.espnscrum.com/southafrica/rugby/player/7029.html'
p368
aS'http://www.espnscrum.com/southafrica/rugby/player/7043.html'
p369
aS'http://www.espnscrum.com/southafrica/rugby/player/7044.html'
p370
aS'http://www.espnscrum.com/southafrica/rugby/player/7045.html'
p371
aS'http://www.espnscrum.com/southafrica/rugby/player/7269.html'
p372
aS'http://www.espnscrum.com/southafrica/rugby/player/7270.html'
p373
aS'http://www.espnscrum.com/southafrica/rugby/player/7271.html'
p374
aS'http://www.espnscrum.com/southafrica/rugby/player/7147.html'
p375
aS'http://www.espnscrum.com/southafrica/rugby/player/7272.html'
p376
aS'http://www.espnscrum.com/southafrica/rugby/player/7273.html'
p377
aS'http://www.espnscrum.com/southafrica/rugby/player/7144.html'
p378
aS'http://www.espnscrum.com/southafrica/rugby/player/7275.html'
p379
aS'http://www.espnscrum.com/southafrica/rugby/player/7283.html'
p380
aS'http://www.espnscrum.com/southafrica/rugby/player/7141.html'
p381
aS'http://www.espnscrum.com/southafrica/rugby/player/7397.html'
p382
aS'http://www.espnscrum.com/southafrica/rugby/player/7543.html'
p383
aS'http://www.espnscrum.com/southafrica/rugby/player/7545.html'
p384
aS'http://www.espnscrum.com/southafrica/rugby/player/7571.html'
p385
aS'http://www.espnscrum.com/southafrica/rugby/player/7572.html'
p386
aS'http://www.espnscrum.com/southafrica/rugby/player/7574.html'
p387
aS'http://www.espnscrum.com/southafrica/rugby/player/7568.html'
p388
aS'http://www.espnscrum.com/southafrica/rugby/player/7582.html'
p389
aS'http://www.espnscrum.com/southafrica/rugby/player/7607.html'
p390
aS'http://www.espnscrum.com/southafrica/rugby/player/7650.html'
p391
aS'http://www.espnscrum.com/southafrica/rugby/player/7651.html'
p392
aS'http://www.espnscrum.com/southafrica/rugby/player/7656.html'
p393
aS'http://www.espnscrum.com/southafrica/rugby/player/7657.html'
p394
aS'http://www.espnscrum.com/southafrica/rugby/player/7601.html'
p395
aS'http://www.espnscrum.com/southafrica/rugby/player/7756.html'
p396
aS'http://www.espnscrum.com/southafrica/rugby/player/7758.html'
p397
aS'http://www.espnscrum.com/southafrica/rugby/player/7759.html'
p398
aS'http://www.espnscrum.com/southafrica/rugby/player/7760.html'
p399
aS'http://www.espnscrum.com/southafrica/rugby/player/7772.html'
p400
aS'http://www.espnscrum.com/southafrica/rugby/player/7791.html'
p401
aS'http://www.espnscrum.com/southafrica/rugby/player/7797.html'
p402
aS'http://www.espnscrum.com/southafrica/rugby/player/7920.html'
p403
aS'http://www.espnscrum.com/southafrica/rugby/player/7921.html'
p404
aS'http://www.espnscrum.com/southafrica/rugby/player/7923.html'
p405
aS'http://www.espnscrum.com/southafrica/rugby/player/7927.html'
p406
aS'http://www.espnscrum.com/southafrica/rugby/player/8264.html'
p407
aS'http://www.espnscrum.com/southafrica/rugby/player/8265.html'
p408
aS'http://www.espnscrum.com/southafrica/rugby/player/8267.html'
p409
aS'http://www.espnscrum.com/southafrica/rugby/player/8269.html'
p410
aS'http://www.espnscrum.com/southafrica/rugby/player/8270.html'
p411
aS'http://www.espnscrum.com/southafrica/rugby/player/8271.html'
p412
aS'http://www.espnscrum.com/southafrica/rugby/player/8284.html'
p413
aS'http://www.espnscrum.com/southafrica/rugby/player/8285.html'
p414
aS'http://www.espnscrum.com/southafrica/rugby/player/8286.html'
p415
aS'http://www.espnscrum.com/southafrica/rugby/player/8287.html'
p416
aS'http://www.espnscrum.com/southafrica/rugby/player/8288.html'
p417
aS'http://www.espnscrum.com/southafrica/rugby/player/8289.html'
p418
aS'http://www.espnscrum.com/southafrica/rugby/player/7792.html'
p419
aS'http://www.espnscrum.com/southafrica/rugby/player/8290.html'
p420
aS'http://www.espnscrum.com/southafrica/rugby/player/8291.html'
p421
aS'http://www.espnscrum.com/southafrica/rugby/player/8292.html'
p422
aS'http://www.espnscrum.com/southafrica/rugby/player/8293.html'
p423
aS'http://www.espnscrum.com/southafrica/rugby/player/8294.html'
p424
aS'http://www.espnscrum.com/southafrica/rugby/player/8295.html'
p425
aS'http://www.espnscrum.com/southafrica/rugby/player/7775.html'
p426
aS'http://www.espnscrum.com/southafrica/rugby/player/8296.html'
p427
aS'http://www.espnscrum.com/southafrica/rugby/player/8323.html'
p428
aS'http://www.espnscrum.com/southafrica/rugby/player/8325.html'
p429
aS'http://www.espnscrum.com/southafrica/rugby/player/8331.html'
p430
aS'http://www.espnscrum.com/southafrica/rugby/player/8332.html'
p431
aS'http://www.espnscrum.com/southafrica/rugby/player/8336.html'
p432
aS'http://www.espnscrum.com/southafrica/rugby/player/8404.html'
p433
aS'http://www.espnscrum.com/southafrica/rugby/player/8571.html'
p434
aS'http://www.espnscrum.com/southafrica/rugby/player/8572.html'
p435
aS'http://www.espnscrum.com/southafrica/rugby/player/8576.html'
p436
aS'http://www.espnscrum.com/southafrica/rugby/player/8580.html'
p437
aS'http://www.espnscrum.com/southafrica/rugby/player/8743.html'
p438
aS'http://www.espnscrum.com/southafrica/rugby/player/8744.html'
p439
aS'http://www.espnscrum.com/southafrica/rugby/player/8745.html'
p440
aS'http://www.espnscrum.com/southafrica/rugby/player/8747.html'
p441
aS'http://www.espnscrum.com/southafrica/rugby/player/8748.html'
p442
aS'http://www.espnscrum.com/southafrica/rugby/player/8749.html'
p443
aS'http://www.espnscrum.com/southafrica/rugby/player/8750.html'
p444
aS'http://www.espnscrum.com/southafrica/rugby/player/8751.html'
p445
aS'http://www.espnscrum.com/southafrica/rugby/player/9130.html'
p446
aS'http://www.espnscrum.com/southafrica/rugby/player/9131.html'
p447
aS'http://www.espnscrum.com/southafrica/rugby/player/9132.html'
p448
aS'http://www.espnscrum.com/southafrica/rugby/player/9133.html'
p449
aS'http://www.espnscrum.com/southafrica/rugby/player/9134.html'
p450
aS'http://www.espnscrum.com/southafrica/rugby/player/9135.html'
p451
aS'http://www.espnscrum.com/southafrica/rugby/player/9136.html'
p452
aS'http://www.espnscrum.com/southafrica/rugby/player/9151.html'
p453
aS'http://www.espnscrum.com/southafrica/rugby/player/9195.html'
p454
aS'http://www.espnscrum.com/southafrica/rugby/player/9196.html'
p455
aS'http://www.espnscrum.com/southafrica/rugby/player/9197.html'
p456
aS'http://www.espnscrum.com/southafrica/rugby/player/9198.html'
p457
aS'http://www.espnscrum.com/southafrica/rugby/player/9205.html'
p458
aS'http://www.espnscrum.com/southafrica/rugby/player/9215.html'
p459
aS'http://www.espnscrum.com/southafrica/rugby/player/9270.html'
p460
aS'http://www.espnscrum.com/southafrica/rugby/player/9327.html'
p461
aS'http://www.espnscrum.com/southafrica/rugby/player/9272.html'
p462
aS'http://www.espnscrum.com/southafrica/rugby/player/9333.html'
p463
aS'http://www.espnscrum.com/southafrica/rugby/player/9355.html'
p464
aS'http://www.espnscrum.com/southafrica/rugby/player/9356.html'
p465
aS'http://www.espnscrum.com/southafrica/rugby/player/9269.html'
p466
aS'http://www.espnscrum.com/southafrica/rugby/player/9271.html'
p467
aS'http://www.espnscrum.com/southafrica/rugby/player/9358.html'
p468
aS'http://www.espnscrum.com/southafrica/rugby/player/9361.html'
p469
aS'http://www.espnscrum.com/southafrica/rugby/player/9362.html'
p470
aS'http://www.espnscrum.com/southafrica/rugby/player/9363.html'
p471
aS'http://www.espnscrum.com/southafrica/rugby/player/9360.html'
p472
aS'http://www.espnscrum.com/southafrica/rugby/player/9364.html'
p473
aS'http://www.espnscrum.com/southafrica/rugby/player/9428.html'
p474
aS'http://www.espnscrum.com/southafrica/rugby/player/9749.html'
p475
aS'http://www.espnscrum.com/southafrica/rugby/player/9752.html'
p476
aS'http://www.espnscrum.com/southafrica/rugby/player/9753.html'
p477
aS'http://www.espnscrum.com/southafrica/rugby/player/9754.html'
p478
aS'http://www.espnscrum.com/southafrica/rugby/player/9755.html'
p479
aS'http://www.espnscrum.com/southafrica/rugby/player/9797.html'
p480
aS'http://www.espnscrum.com/southafrica/rugby/player/9799.html'
p481
aS'http://www.espnscrum.com/southafrica/rugby/player/9800.html'
p482
aS'http://www.espnscrum.com/southafrica/rugby/player/9801.html'
p483
aS'http://www.espnscrum.com/southafrica/rugby/player/9803.html'
p484
aS'http://www.espnscrum.com/southafrica/rugby/player/10019.html'
p485
aS'http://www.espnscrum.com/southafrica/rugby/player/10020.html'
p486
aS'http://www.espnscrum.com/southafrica/rugby/player/10021.html'
p487
aS'http://www.espnscrum.com/southafrica/rugby/player/10022.html'
p488
aS'http://www.espnscrum.com/southafrica/rugby/player/10024.html'
p489
aS'http://www.espnscrum.com/southafrica/rugby/player/10025.html'
p490
aS'http://www.espnscrum.com/southafrica/rugby/player/10027.html'
p491
aS'http://www.espnscrum.com/southafrica/rugby/player/10028.html'
p492
aS'http://www.espnscrum.com/southafrica/rugby/player/10029.html'
p493
aS'http://www.espnscrum.com/southafrica/rugby/player/10041.html'
p494
aS'http://www.espnscrum.com/southafrica/rugby/player/10597.html'
p495
aS'http://www.espnscrum.com/southafrica/rugby/player/10598.html'
p496
aS'http://www.espnscrum.com/southafrica/rugby/player/10600.html'
p497
aS'http://www.espnscrum.com/southafrica/rugby/player/10601.html'
p498
aS'http://www.espnscrum.com/southafrica/rugby/player/10602.html'
p499
aS'http://www.espnscrum.com/southafrica/rugby/player/10599.html'
p500
aS'http://www.espnscrum.com/southafrica/rugby/player/11277.html'
p501
aS'http://www.espnscrum.com/southafrica/rugby/player/11279.html'
p502
aS'http://www.espnscrum.com/southafrica/rugby/player/11280.html'
p503
aS'http://www.espnscrum.com/southafrica/rugby/player/11281.html'
p504
aS'http://www.espnscrum.com/southafrica/rugby/player/11282.html'
p505
aS'http://www.espnscrum.com/southafrica/rugby/player/11283.html'
p506
aS'http://www.espnscrum.com/southafrica/rugby/player/11284.html'
p507
aS'http://www.espnscrum.com/southafrica/rugby/player/11286.html'
p508
aS'http://www.espnscrum.com/southafrica/rugby/player/11278.html'
p509
aS'http://www.espnscrum.com/southafrica/rugby/player/11285.html'
p510
aS'http://www.espnscrum.com/southafrica/rugby/player/11287.html'
p511
aS'http://www.espnscrum.com/southafrica/rugby/player/11322.html'
p512
aS'http://www.espnscrum.com/southafrica/rugby/player/11325.html'
p513
aS'http://www.espnscrum.com/southafrica/rugby/player/11326.html'
p514
aS'http://www.espnscrum.com/southafrica/rugby/player/11327.html'
p515
aS'http://www.espnscrum.com/southafrica/rugby/player/11329.html'
p516
aS'http://www.espnscrum.com/southafrica/rugby/player/11362.html'
p517
aS'http://www.espnscrum.com/southafrica/rugby/player/11371.html'
p518
aS'http://www.espnscrum.com/southafrica/rugby/player/11536.html'
p519
aS'http://www.espnscrum.com/southafrica/rugby/player/11538.html'
p520
aS'http://www.espnscrum.com/southafrica/rugby/player/11539.html'
p521
aS'http://www.espnscrum.com/southafrica/rugby/player/11542.html'
p522
aS'http://www.espnscrum.com/southafrica/rugby/player/11545.html'
p523
aS'http://www.espnscrum.com/southafrica/rugby/player/11549.html'
p524
aS'http://www.espnscrum.com/southafrica/rugby/player/11573.html'
p525
aS'http://www.espnscrum.com/southafrica/rugby/player/11574.html'
p526
aS'http://www.espnscrum.com/southafrica/rugby/player/10699.html'
p527
aS'http://www.espnscrum.com/southafrica/rugby/player/11571.html'
p528
aS'http://www.espnscrum.com/southafrica/rugby/player/11654.html'
p529
aS'http://www.espnscrum.com/southafrica/rugby/player/11659.html'
p530
aS'http://www.espnscrum.com/southafrica/rugby/player/11660.html'
p531
aS'http://www.espnscrum.com/southafrica/rugby/player/11575.html'
p532
aS'http://www.espnscrum.com/southafrica/rugby/player/11657.html'
p533
aS'http://www.espnscrum.com/southafrica/rugby/player/11666.html'
p534
aS'http://www.espnscrum.com/southafrica/rugby/player/11670.html'
p535
aS'http://www.espnscrum.com/southafrica/rugby/player/11780.html'
p536
aS'http://www.espnscrum.com/southafrica/rugby/player/11793.html'
p537
aS'http://www.espnscrum.com/southafrica/rugby/player/11795.html'
p538
aS'http://www.espnscrum.com/southafrica/rugby/player/11652.html'
p539
aS'http://www.espnscrum.com/southafrica/rugby/player/11781.html'
p540
aS'http://www.espnscrum.com/southafrica/rugby/player/11789.html'
p541
aS'http://www.espnscrum.com/southafrica/rugby/player/11856.html'
p542
aS'http://www.espnscrum.com/southafrica/rugby/player/11857.html'
p543
aS'http://www.espnscrum.com/southafrica/rugby/player/11865.html'
p544
aS'http://www.espnscrum.com/southafrica/rugby/player/11867.html'
p545
aS'http://www.espnscrum.com/southafrica/rugby/player/11870.html'
p546
aS'http://www.espnscrum.com/southafrica/rugby/player/11772.html'
p547
aS'http://www.espnscrum.com/southafrica/rugby/player/11871.html'
p548
aS'http://www.espnscrum.com/southafrica/rugby/player/11873.html'
p549
aS'http://www.espnscrum.com/southafrica/rugby/player/11370.html'
p550
aS'http://www.espnscrum.com/southafrica/rugby/player/11994.html'
p551
aS'http://www.espnscrum.com/southafrica/rugby/player/11997.html'
p552
aS'http://www.espnscrum.com/southafrica/rugby/player/12018.html'
p553
aS'http://www.espnscrum.com/southafrica/rugby/player/12034.html'
p554
aS'http://www.espnscrum.com/southafrica/rugby/player/12036.html'
p555
aS'http://www.espnscrum.com/southafrica/rugby/player/12017.html'
p556
aS'http://www.espnscrum.com/southafrica/rugby/player/12075.html'
p557
aS'http://www.espnscrum.com/southafrica/rugby/player/12127.html'
p558
aS'http://www.espnscrum.com/southafrica/rugby/player/12288.html'
p559
aS'http://www.espnscrum.com/southafrica/rugby/player/12291.html'
p560
aS'http://www.espnscrum.com/southafrica/rugby/player/12294.html'
p561
aS'http://www.espnscrum.com/southafrica/rugby/player/12308.html'
p562
aS'http://www.espnscrum.com/southafrica/rugby/player/12314.html'
p563
aS'http://www.espnscrum.com/southafrica/rugby/player/12309.html'
p564
aS'http://www.espnscrum.com/southafrica/rugby/player/12315.html'
p565
aS'http://www.espnscrum.com/southafrica/rugby/player/12070.html'
p566
aS'http://www.espnscrum.com/southafrica/rugby/player/12313.html'
p567
aS'http://www.espnscrum.com/southafrica/rugby/player/10814.html'
p568
aS'http://www.espnscrum.com/southafrica/rugby/player/12526.html'
p569
aS'http://www.espnscrum.com/southafrica/rugby/player/12523.html'
p570
aS'http://www.espnscrum.com/southafrica/rugby/player/12597.html'
p571
aS'http://www.espnscrum.com/southafrica/rugby/player/12599.html'
p572
aS'http://www.espnscrum.com/southafrica/rugby/player/12608.html'
p573
aS'http://www.espnscrum.com/southafrica/rugby/player/12609.html'
p574
aS'http://www.espnscrum.com/southafrica/rugby/player/12530.html'
p575
aS'http://www.espnscrum.com/southafrica/rugby/player/12623.html'
p576
aS'http://www.espnscrum.com/southafrica/rugby/player/12622.html'
p577
aS'http://www.espnscrum.com/southafrica/rugby/player/12624.html'
p578
aS'http://www.espnscrum.com/southafrica/rugby/player/12695.html'
p579
aS'http://www.espnscrum.com/southafrica/rugby/player/12686.html'
p580
aS'http://www.espnscrum.com/southafrica/rugby/player/12724.html'
p581
aS'http://www.espnscrum.com/southafrica/rugby/player/12126.html'
p582
aS'http://www.espnscrum.com/southafrica/rugby/player/12729.html'
p583
aS'http://www.espnscrum.com/southafrica/rugby/player/12902.html'
p584
aS'http://www.espnscrum.com/southafrica/rugby/player/12909.html'
p585
aS'http://www.espnscrum.com/southafrica/rugby/player/12904.html'
p586
aS'http://www.espnscrum.com/southafrica/rugby/player/12072.html'
p587
aS'http://www.espnscrum.com/southafrica/rugby/player/10991.html'
p588
aS'http://www.espnscrum.com/southafrica/rugby/player/12936.html'
p589
aS'http://www.espnscrum.com/southafrica/rugby/player/13166.html'
p590
aS'http://www.espnscrum.com/southafrica/rugby/player/12696.html'
p591
aS'http://www.espnscrum.com/southafrica/rugby/player/13173.html'
p592
aS'http://www.espnscrum.com/southafrica/rugby/player/13168.html'
p593
aS'http://www.espnscrum.com/southafrica/rugby/player/13172.html'
p594
aS'http://www.espnscrum.com/southafrica/rugby/player/13174.html'
p595
aS'http://www.espnscrum.com/southafrica/rugby/player/13175.html'
p596
aS'http://www.espnscrum.com/southafrica/rugby/player/13067.html'
p597
aS'http://www.espnscrum.com/southafrica/rugby/player/13184.html'
p598
aS'http://www.espnscrum.com/southafrica/rugby/player/12932.html'
p599
aS'http://www.espnscrum.com/southafrica/rugby/player/13192.html'
p600
aS'http://www.espnscrum.com/southafrica/rugby/player/13256.html'
p601
aS'http://www.espnscrum.com/southafrica/rugby/player/13257.html'
p602
aS'http://www.espnscrum.com/southafrica/rugby/player/13426.html'
p603
aS'http://www.espnscrum.com/southafrica/rugby/player/13428.html'
p604
aS'http://www.espnscrum.com/southafrica/rugby/player/13432.html'
p605
aS'http://www.espnscrum.com/southafrica/rugby/player/13473.html'
p606
aS'http://www.espnscrum.com/southafrica/rugby/player/13482.html'
p607
aS'http://www.espnscrum.com/southafrica/rugby/player/13483.html'
p608
aS'http://www.espnscrum.com/southafrica/rugby/player/13484.html'
p609
aS'http://www.espnscrum.com/southafrica/rugby/player/13539.html'
p610
aS'http://www.espnscrum.com/southafrica/rugby/player/12723.html'
p611
aS'http://www.espnscrum.com/southafrica/rugby/player/13672.html'
p612
aS'http://www.espnscrum.com/southafrica/rugby/player/13673.html'
p613
aS'http://www.espnscrum.com/southafrica/rugby/player/13676.html'
p614
aS'http://www.espnscrum.com/southafrica/rugby/player/13671.html'
p615
aS'http://www.espnscrum.com/southafrica/rugby/player/13677.html'
p616
aS'http://www.espnscrum.com/southafrica/rugby/player/13713.html'
p617
aS'http://www.espnscrum.com/southafrica/rugby/player/13715.html'
p618
aS'http://www.espnscrum.com/southafrica/rugby/player/13723.html'
p619
aS'http://www.espnscrum.com/southafrica/rugby/player/13724.html'
p620
aS'http://www.espnscrum.com/southafrica/rugby/player/13751.html'
p621
aS'http://www.espnscrum.com/southafrica/rugby/player/13779.html'
p622
aS'http://www.espnscrum.com/southafrica/rugby/player/13782.html'
p623
aS'http://www.espnscrum.com/southafrica/rugby/player/13837.html'
p624
aS'http://www.espnscrum.com/southafrica/rugby/player/13794.html'
p625
aS'http://www.espnscrum.com/southafrica/rugby/player/13795.html'
p626
aS'http://www.espnscrum.com/southafrica/rugby/player/13797.html'
p627
aS'http://www.espnscrum.com/southafrica/rugby/player/13798.html'
p628
aS'http://www.espnscrum.com/southafrica/rugby/player/13955.html'
p629
aS'http://www.espnscrum.com/southafrica/rugby/player/13800.html'
p630
aS'http://www.espnscrum.com/southafrica/rugby/player/13956.html'
p631
aS'http://www.espnscrum.com/southafrica/rugby/player/13796.html'
p632
aS'http://www.espnscrum.com/southafrica/rugby/player/13947.html'
p633
aS'http://www.espnscrum.com/southafrica/rugby/player/13538.html'
p634
aS'http://www.espnscrum.com/southafrica/rugby/player/13964.html'
p635
aS'http://www.espnscrum.com/southafrica/rugby/player/14011.html'
p636
aS'http://www.espnscrum.com/southafrica/rugby/player/14012.html'
p637
aS'http://www.espnscrum.com/southafrica/rugby/player/13803.html'
p638
aS'http://www.espnscrum.com/southafrica/rugby/player/13802.html'
p639
aS'http://www.espnscrum.com/southafrica/rugby/player/13793.html'
p640
aS'http://www.espnscrum.com/southafrica/rugby/player/14074.html'
p641
aS'http://www.espnscrum.com/southafrica/rugby/player/14086.html'
p642
aS'http://www.espnscrum.com/southafrica/rugby/player/14092.html'
p643
aS'http://www.espnscrum.com/southafrica/rugby/player/14093.html'
p644
aS'http://www.espnscrum.com/southafrica/rugby/player/14096.html'
p645
aS'http://www.espnscrum.com/southafrica/rugby/player/14098.html'
p646
aS'http://www.espnscrum.com/southafrica/rugby/player/14102.html'
p647
aS'http://www.espnscrum.com/southafrica/rugby/player/14103.html'
p648
aS'http://www.espnscrum.com/southafrica/rugby/player/14106.html'
p649
aS'http://www.espnscrum.com/southafrica/rugby/player/14223.html'
p650
aS'http://www.espnscrum.com/southafrica/rugby/player/14224.html'
p651
aS'http://www.espnscrum.com/southafrica/rugby/player/14228.html'
p652
aS'http://www.espnscrum.com/southafrica/rugby/player/14229.html'
p653
aS'http://www.espnscrum.com/southafrica/rugby/player/14225.html'
p654
aS'http://www.espnscrum.com/southafrica/rugby/player/13792.html'
p655
aS'http://www.espnscrum.com/southafrica/rugby/player/13801.html'
p656
aS'http://www.espnscrum.com/southafrica/rugby/player/14291.html'
p657
aS'http://www.espnscrum.com/southafrica/rugby/player/14293.html'
p658
aS'http://www.espnscrum.com/southafrica/rugby/player/14277.html'
p659
aS'http://www.espnscrum.com/southafrica/rugby/player/14337.html'
p660
aS'http://www.espnscrum.com/southafrica/rugby/player/14339.html'
p661
aS'http://www.espnscrum.com/southafrica/rugby/player/14278.html'
p662
aS'http://www.espnscrum.com/southafrica/rugby/player/14355.html'
p663
aS'http://www.espnscrum.com/southafrica/rugby/player/14526.html'
p664
aS'http://www.espnscrum.com/southafrica/rugby/player/14528.html'
p665
aS'http://www.espnscrum.com/southafrica/rugby/player/14529.html'
p666
aS'http://www.espnscrum.com/southafrica/rugby/player/14541.html'
p667
aS'http://www.espnscrum.com/southafrica/rugby/player/14527.html'
p668
aS'http://www.espnscrum.com/southafrica/rugby/player/14281.html'
p669
aS'http://www.espnscrum.com/southafrica/rugby/player/14626.html'
p670
aS'http://www.espnscrum.com/southafrica/rugby/player/14628.html'
p671
aS'http://www.espnscrum.com/southafrica/rugby/player/14660.html'
p672
aS'http://www.espnscrum.com/southafrica/rugby/player/14688.html'
p673
aS'http://www.espnscrum.com/southafrica/rugby/player/14689.html'
p674
aS'http://www.espnscrum.com/southafrica/rugby/player/14877.html'
p675
aS'http://www.espnscrum.com/southafrica/rugby/player/14882.html'
p676
aS'http://www.espnscrum.com/southafrica/rugby/player/15001.html'
p677
aS'http://www.espnscrum.com/southafrica/rugby/player/15075.html'
p678
aS'http://www.espnscrum.com/southafrica/rugby/player/15270.html'
p679
aS'http://www.espnscrum.com/southafrica/rugby/player/15271.html'
p680
aS'http://www.espnscrum.com/southafrica/rugby/player/15345.html'
p681
aS'http://www.espnscrum.com/southafrica/rugby/player/15346.html'
p682
aS'http://www.espnscrum.com/southafrica/rugby/player/15356.html'
p683
aS'http://www.espnscrum.com/southafrica/rugby/player/15357.html'
p684
aS'http://www.espnscrum.com/southafrica/rugby/player/15350.html'
p685
aS'http://www.espnscrum.com/southafrica/rugby/player/15348.html'
p686
aS'http://www.espnscrum.com/southafrica/rugby/player/15415.html'
p687
aS'http://www.espnscrum.com/southafrica/rugby/player/15420.html'
p688
aS'http://www.espnscrum.com/southafrica/rugby/player/15421.html'
p689
aS'http://www.espnscrum.com/southafrica/rugby/player/15428.html'
p690
aS'http://www.espnscrum.com/southafrica/rugby/player/15431.html'
p691
aS'http://www.espnscrum.com/southafrica/rugby/player/15680.html'
p692
aS'http://www.espnscrum.com/southafrica/rugby/player/15683.html'
p693
aS'http://www.espnscrum.com/southafrica/rugby/player/15729.html'
p694
aS'http://www.espnscrum.com/southafrica/rugby/player/15726.html'
p695
aS'http://www.espnscrum.com/southafrica/rugby/player/15662.html'
p696
aS'http://www.espnscrum.com/southafrica/rugby/player/15777.html'
p697
aS'http://www.espnscrum.com/southafrica/rugby/player/15670.html'
p698
aS'http://www.espnscrum.com/southafrica/rugby/player/27339.html'
p699
aS'http://www.espnscrum.com/southafrica/rugby/player/15916.html'
p700
aS'http://www.espnscrum.com/southafrica/rugby/player/16022.html'
p701
aS'http://www.espnscrum.com/southafrica/rugby/player/15666.html'
p702
aS'http://www.espnscrum.com/southafrica/rugby/player/15660.html'
p703
aS'http://www.espnscrum.com/southafrica/rugby/player/16083.html'
p704
aS'http://www.espnscrum.com/southafrica/rugby/player/16084.html'
p705
aS'http://www.espnscrum.com/southafrica/rugby/player/86893.html'
p706
aS'http://www.espnscrum.com/southafrica/rugby/player/98620.html'
p707
aS'http://www.espnscrum.com/southafrica/rugby/player/99612.html'
p708
aS'http://www.espnscrum.com/southafrica/rugby/player/105637.html'
p709
aS'http://www.espnscrum.com/southafrica/rugby/player/106155.html'
p710
aS'http://www.espnscrum.com/southafrica/rugby/player/106158.html'
p711
aS'http://www.espnscrum.com/southafrica/rugby/player/106987.html'
p712
aS'http://www.espnscrum.com/southafrica/rugby/player/98007.html'
p713
aS'http://www.espnscrum.com/southafrica/rugby/player/117535.html'
p714
aS'http://www.espnscrum.com/southafrica/rugby/player/117544.html'
p715
aS'http://www.espnscrum.com/southafrica/rugby/player/15955.html'
p716
aS'http://www.espnscrum.com/southafrica/rugby/player/117539.html'
p717
aS'http://www.espnscrum.com/southafrica/rugby/player/117325.html'
p718
aS'http://www.espnscrum.com/southafrica/rugby/player/15706.html'
p719
aS'http://www.espnscrum.com/southafrica/rugby/player/83841.html'
p720
aS'http://www.espnscrum.com/southafrica/rugby/player/83827.html'
p721
aS'http://www.espnscrum.com/southafrica/rugby/player/112898.html'
p722
aS'http://www.espnscrum.com/southafrica/rugby/player/91512.html'
p723
aS'http://www.espnscrum.com/southafrica/rugby/player/97968.html'
p724
aS'http://www.espnscrum.com/southafrica/rugby/player/98332.html'
p725
aS'http://www.espnscrum.com/southafrica/rugby/player/15976.html'
p726
aS'http://www.espnscrum.com/southafrica/rugby/player/83843.html'
p727
aS'http://www.espnscrum.com/southafrica/rugby/player/91509.html'
p728
aS'http://www.espnscrum.com/southafrica/rugby/player/93958.html'
p729
aS'http://www.espnscrum.com/southafrica/rugby/player/139298.html'
p730
aS'http://www.espnscrum.com/southafrica/rugby/player/159922.html'
p731
aS'http://www.espnscrum.com/southafrica/rugby/player/83844.html'
p732
aS'http://www.espnscrum.com/southafrica/rugby/player/165510.html'
p733
aS'http://www.espnscrum.com/southafrica/rugby/player/166123.html'
p734
aS'http://www.espnscrum.com/southafrica/rugby/player/168710.html'
p735
aS'http://www.espnscrum.com/southafrica/rugby/player/98006.html'
p736
aS'http://www.espnscrum.com/southafrica/rugby/player/27399.html'
p737
aS'http://www.espnscrum.com/southafrica/rugby/player/91492.html'
p738
aS'http://www.espnscrum.com/southafrica/rugby/player/144732.html'
p739
aS'http://www.espnscrum.com/southafrica/rugby/player/134714.html'
p740
aS'http://www.espnscrum.com/southafrica/rugby/player/117444.html'
p741
aS'http://www.espnscrum.com/southafrica/rugby/player/145978.html'
p742
aS'http://www.espnscrum.com/southafrica/rugby/player/159900.html'
p743
aS'http://www.espnscrum.com/southafrica/rugby/player/15672.html'
p744
aS'http://www.espnscrum.com/southafrica/rugby/player/144412.html'
p745
aS'http://www.espnscrum.com/southafrica/rugby/player/165119.html'
p746
aS'http://www.espnscrum.com/southafrica/rugby/player/117451.html'
p747
aS'http://www.espnscrum.com/southafrica/rugby/player/186339.html'
p748
aS'http://www.espnscrum.com/southafrica/rugby/player/91511.html'
p749
aS'http://www.espnscrum.com/southafrica/rugby/player/135146.html'
p750
aS'http://www.espnscrum.com/southafrica/rugby/player/162961.html'
p751
aS'http://www.espnscrum.com/southafrica/rugby/player/136982.html'
p752
aS'http://www.espnscrum.com/southafrica/rugby/player/229707.html'
p753
aS'http://www.espnscrum.com/southafrica/rugby/player/177404.html'
p754
aS'http://www.espnscrum.com/southafrica/rugby/player/165132.html'
p755
aS'http://www.espnscrum.com/southafrica/rugby/player/100602.html'
p756
aS'http://www.espnscrum.com/southafrica/rugby/player/199757.html'
p757
aS'http://www.espnscrum.com/southafrica/rugby/player/231327.html'
p758
aS'http://www.espnscrum.com/southafrica/rugby/player/117448.html'
p759
aS'http://www.espnscrum.com/southafrica/rugby/player/168335.html'
p760
aS'http://www.espnscrum.com/southafrica/rugby/player/119570.html'
p761
aS'http://www.espnscrum.com/southafrica/rugby/player/242665.html'
p762
aS'http://www.espnscrum.com/southafrica/rugby/player/147009.html'
p763
aS'http://www.espnscrum.com/southafrica/rugby/player/144089.html'
p764
a.