(lp1
VForward
p2
aVForward
p3
aVWing
p4
aVForward
p5
aVForward
p6
aVFullback
p7
aVHalfback
p8
aVForward
p9
aVForward
p10
aVForward
p11
aVForward
p12
aVHalfback
p13
aVWing
p14
aVForward
p15
aVCentre
p16
aVWing
p17
aVForward
p18
aVHalfback
p19
aVForward
p20
aVForward
p21
aVForward
p22
aVForward
p23
aVForward
p24
aVForward
p25
aVWing
p26
aVFlanker
p27
aVForward
p28
aVWing
p29
aVCentre
p30
aVWing
p31
aVForward
p32
aVForward
p33
aVForward
p34
aVFullback
p35
aVForward
p36
aVHalfback
p37
aVWing
p38
aVForward
p39
aVWing
p40
aVForward
p41
aVForward
p42
aVForward
p43
aVFullback
p44
aVForward
p45
aVForward
p46
aVHalfback
p47
aVCentre
p48
aVHalfback
p49
aVForward
p50
aVFullback
p51
aVCentre
p52
aVHalfback
p53
aVForward
p54
aVForward
p55
aVCentre
p56
aVForward
p57
aVForward
p58
aVForward
p59
aVHalfback
p60
aVCentre
p61
aVForward
p62
aVWing
p63
aVForward
p64
aVHalfback
p65
aVForward
p66
aVFullback
p67
aVCentre
p68
aVForward
p69
aVWing
p70
aVForward
p71
aVForward
p72
aVForward
p73
aVForward
p74
aVFullback
p75
aVCentre
p76
aVForward
p77
aVForward
p78
aVCentre
p79
aVWing
p80
aVForward
p81
aVForward
p82
aVForward
p83
aVForward
p84
aVForward
p85
aVHalfback
p86
aVScrum-half
p87
aVHalfback
p88
aVWing
p89
aVForward
p90
aVForward
p91
aVForward
p92
aVForward
p93
aVForward
p94
aVForward
p95
aVForward
p96
aVCentre
p97
aVForward
p98
aVWing
p99
aVForward
p100
aVWing
p101
aVCentre
p102
aVHalfback
p103
aVFullback
p104
aVForward
p105
aVForward
p106
aVForward
p107
aVForward
p108
aVForward
p109
aVCentre
p110
aVWing
p111
aVForward
p112
aVHalfback
p113
aVFullback
p114
aVForward
p115
aVForward
p116
aVForward
p117
aVFullback
p118
aVForward
p119
aVCentre
p120
aVWing
p121
aVForward
p122
aVForward
p123
aVHalfback
p124
aVForward
p125
aVForward
p126
aVForward
p127
aVForward
p128
aVForward
p129
aVForward
p130
aVWing
p131
aVCentre
p132
aVFullback
p133
aVWing
p134
aVForward
p135
aVForward
p136
aVHalfback
p137
aVForward
p138
aVHalfback
p139
aVCentre
p140
aVHooker
p141
aVFlanker
p142
aVCentre
p143
aVLock
p144
aVScrum-half
p145
aVLock
p146
aVWing
p147
aVProp
p148
aVFlanker
p149
aVScrum-half
p150
aVWing
p151
aVLock
p152
aVLock
p153
aVFlanker
p154
aVLock
p155
aVCentre
p156
aVLock
p157
aVWing
p158
aVCentre
p159
aVCentre
p160
aVCentre
p161
aVWing
p162
aVScrum-half
p163
aVFly-half
p164
aVFlanker
p165
aVWing
p166
aVFullback
p167
aVNo. 8
p168
aVCentre
p169
aVFullback
p170
aVScrum-half
p171
aVScrum-half
p172
aVFlanker
p173
aVWing
p174
aVProp
p175
aVNo. 8
p176
aVScrum-half
p177
aVCentre
p178
aVLock
p179
aVCentre
p180
aVLock
p181
aVFlanker
p182
aVWing
p183
aVProp
p184
aVFullback
p185
aVCentre
p186
aVWing
p187
aVCentre
p188
aVWing
p189
aVLock
p190
aVProp
p191
aVProp
p192
aVCentre
p193
aVWing
p194
aVWing
p195
aVLock
p196
aVScrum-half
p197
aVCentre
p198
aVHooker
p199
aVFlanker
p200
aVFlanker
p201
aVWing
p202
aVCentre
p203
aVWing
p204
aVFlanker
p205
aVWing
p206
aVCentre
p207
aVFlanker
p208
aVFlanker
p209
aVFlanker
p210
aVWing
p211
aVLock
p212
aVProp
p213
aVWing
p214
aVFlanker
p215
aVWing
p216
aVProp
p217
aVProp
p218
aVFlanker
p219
aVFlanker
p220
aVNo. 8
p221
aVFullback
p222
aVCentre
p223
aVFlanker
p224
aVHooker
p225
aVLock
p226
aVWing
p227
aVProp
p228
aVFly-half
p229
aVNo. 8
p230
aVProp
p231
aVFly-half
p232
aVCentre
p233
aVCentre
p234
aVFlanker
p235
aVLock
p236
aVWing
p237
aVFullback
p238
aVFly-half
p239
aVLock
p240
aVCentre
p241
aVProp
p242
aVHooker
p243
aVLock
p244
aVCentre
p245
aVWing
p246
aVWing
p247
aVNo. 8
p248
aVFlanker
p249
aVFlanker
p250
aVFullback
p251
aVProp
p252
aVScrum-half
p253
aVLock
p254
aVScrum-half
p255
aVProp
p256
aVCentre
p257
aVLock
p258
aVLock
p259
aVWing
p260
aVFlanker
p261
aVFlanker
p262
aVFullback
p263
aVHooker
p264
aVLock
p265
aVFlanker
p266
aVWing
p267
aVFlanker
p268
aVWing
p269
aVProp
p270
aVScrum-half
p271
aVCentre
p272
aVWing
p273
aVWing
p274
aVLock
p275
aVFly-half
p276
aVCentre
p277
aVProp
p278
aVWing
p279
aVLock
p280
aVProp
p281
aVScrum-half
p282
aVHooker
p283
aVFlanker
p284
aVCentre
p285
aVWing
p286
aVFly-half
p287
aVWing
p288
aVFlanker
p289
aVFullback
p290
aVCentre
p291
aVHooker
p292
aVNo. 8
p293
aVScrum-half
p294
aVCentre
p295
aVCentre
p296
aVFly-half
p297
aVFullback
p298
aVWing
p299
aVCentre
p300
aVFlanker
p301
aVProp
p302
aVWing
p303
aVFullback
p304
aVFlanker
p305
aVWing
p306
aVLock
p307
aVFlanker
p308
aVCentre
p309
aVHooker
p310
aVFlanker
p311
aVCentre
p312
aVLock
p313
aVProp
p314
aVWing
p315
aVCentre
p316
aVScrum-half
p317
aVProp
p318
aVNo. 8
p319
aVCentre
p320
aVWing
p321
aVFlanker
p322
aVWing
p323
aVScrum-half
p324
aVLock
p325
aVProp, No. 8
p326
aVFly-half
p327
aVWing
p328
aVProp
p329
aVFullback
p330
aVLock
p331
aVHooker
p332
aVCentre
p333
aVScrum-half
p334
aVNo. 8
p335
aVLock
p336
aVCentre
p337
aVFly-half
p338
aVWing
p339
aVLock
p340
aVProp
p341
aVWing
p342
aVCentre
p343
aVProp
p344
aVFlanker
p345
aVScrum-half
p346
aVNo. 8
p347
aVWing
p348
aVProp
p349
aVWing
p350
aVProp
p351
aVNo. 8
p352
aVFly-half
p353
aVFlanker
p354
aVScrum-half
p355
aVWing
p356
aVLock
p357
aVLock
p358
aVFly-half
p359
aVHooker
p360
aVCentre
p361
aVFlanker
p362
aVFly-half
p363
aVScrum-half
p364
aVLock
p365
aVWing
p366
aVProp
p367
aVProp
p368
aVFlanker
p369
aVProp
p370
aVLock
p371
aVFullback
p372
aVNo. 8
p373
aVFlanker
p374
aVProp
p375
aVProp
p376
aVCentre, Scrum-half
p377
aVHooker
p378
aVFly-half
p379
aVWing
p380
aVFullback
p381
aVFlanker
p382
aVLock
p383
aVWing
p384
aVHooker
p385
aVCentre
p386
aVWing
p387
aVBack-row
p388
aVLock
p389
aVCentre
p390
aVCentre
p391
aVFullback
p392
aVLock
p393
aVHooker
p394
aVHooker
p395
aVCentre
p396
aVProp
p397
aVScrum-half
p398
aVLock
p399
aVNo. 8
p400
aVWing
p401
aVProp
p402
aVProp
p403
aVFullback
p404
aVLock
p405
aVFullback
p406
aVFlanker
p407
aVLock
p408
aVScrum-half
p409
aVCentre
p410
aVWing
p411
aVCentre
p412
aVScrum-half
p413
aVFly-half
p414
aVHooker
p415
aVWing
p416
aVNo. 8
p417
aVFly-half
p418
aVWing
p419
aVLock
p420
aVFlanker
p421
aVFlanker
p422
aVCentre
p423
aVNo. 8
p424
aVLock
p425
aVBack-row
p426
aVProp
p427
aVHooker
p428
aVWing
p429
aVCentre
p430
aVWing
p431
aVHooker
p432
aVProp
p433
aVWing
p434
aVUtility back
p435
aVFlanker
p436
aVProp
p437
aVFly-half
p438
aVProp
p439
aVCentre
p440
aVLock
p441
aVWing
p442
aVFlanker
p443
aVCentre
p444
aVScrum-half
p445
aVFly-half
p446
aVScrum-half
p447
aVCentre
p448
aVFullback
p449
aVFlanker
p450
aVWing
p451
aVProp
p452
aVFullback
p453
aVHooker
p454
aVProp
p455
aVScrum-half
p456
aVCentre
p457
aVNo. 8
p458
aVHooker
p459
aVCentre
p460
aVNo. 8
p461
aVFly-half
p462
aVProp
p463
aVLock
p464
aVWing
p465
aVProp
p466
aVFlanker
p467
aVProp
p468
aVFlanker
p469
aVProp
p470
aVLock
p471
aVCentre
p472
aVFullback
p473
aVWing
p474
aVFlanker
p475
aVHooker
p476
aVCentre
p477
aVLock
p478
aVWing
p479
aVProp
p480
aVCentre
p481
aVFlanker
p482
aVNo. 8
p483
aVProp
p484
aVFlanker
p485
aVNo. 8
p486
aVScrum-half
p487
aVWing
p488
aVHooker
p489
aVFlanker
p490
aVProp
p491
aVProp
p492
aVScrum-half
p493
aVUtility back
p494
aVWing
p495
aVLock
p496
aVCentre
p497
aVLock
p498
aVProp
p499
aVFullback
p500
aVScrum-half
p501
aVLock
p502
aVWing
p503
aVFlanker
p504
aVProp
p505
aVCentre
p506
aVWing
p507
aVFullback
p508
aVCentre
p509
aVProp
p510
aVLock
p511
aVHooker
p512
aVWing
p513
aVFullback
p514
aVNo. 8
p515
aVNo. 8
p516
aVProp
p517
aVFlanker
p518
aVCentre
p519
aVFlanker
p520
aVLock
p521
aVFlanker
p522
aVLock
p523
aVLock
p524
aVFly-half
p525
aVProp
p526
aVHooker
p527
aVFly-half
p528
aVLock
p529
aVProp
p530
aVFlanker
p531
aVScrum-half
p532
aVHooker
p533
aVFullback, Wing
p534
aVWing
p535
aVProp
p536
aVLock
p537
aVCentre
p538
aVLock, No. 8
p539
aVProp
p540
aVScrum-half
p541
aVBack-row
p542
aVCentre
p543
aVProp
p544
aVProp
p545
aVCentre
p546
aVHooker
p547
aVWing
p548
aVFlanker
p549
aVLock
p550
aVHooker
p551
aVHooker
p552
aVProp
p553
aVFlanker
p554
aVProp
p555
aVLock
p556
aVNo. 8
p557
aVProp
p558
aVLock
p559
aVWing
p560
aVCentre
p561
aVProp
p562
aVCentre
p563
aVHooker
p564
aVFlanker
p565
aVFly-half
p566
aVFlanker
p567
aVProp
p568
aVCentre
p569
aVFullback
p570
aVFullback
p571
aVWing
p572
aVFly-half
p573
aVFlanker
p574
aVScrum-half
p575
aVFlanker
p576
aVFlanker
p577
aVFlanker
p578
aVCentre
p579
aVFlanker
p580
aVFlanker
p581
aVProp
p582
aVFly-half
p583
aVFly-half, Fullback
p584
aVCentre
p585
aVWing
p586
aVProp
p587
aVCentre
p588
aVLock
p589
aVCentre
p590
aVWing
p591
aVProp
p592
aVHooker
p593
aVLock
p594
aVScrum-half
p595
aVBack-row
p596
aVFlanker
p597
aVWing
p598
aVCentre
p599
aVNo. 8
p600
aVCentre
p601
aVCentre
p602
aVCentre
p603
aVFullback
p604
aVHooker, Prop
p605
aVFly-half
p606
aVWing, Centre
p607
aVLock
p608
aVUtility back
p609
aVNo. 8, Lock
p610
aVFly-half, Scrum-half
p611
aVProp
p612
aVWing
p613
aVFly-half
p614
aVScrum-half
p615
aVFullback
p616
aVLock
p617
aVHooker
p618
aVCentre
p619
aVBack-row
p620
aVCentre
p621
aVScrum-half
p622
aVCentre
p623
aVProp
p624
aVFlanker
p625
aVScrum-half
p626
aVProp
p627
aVFullback
p628
aVFly-half
p629
aVProp
p630
aVWing
p631
aVLock
p632
aVScrum-half
p633
aVLock
p634
aVWing
p635
aVHooker
p636
aVHooker
p637
aVNo. 8
p638
aVBack-row
p639
aVLock
p640
aVCentre
p641
aVProp
p642
aVNo. 8
p643
aVLock
p644
aVProp
p645
aVWing
p646
aVFlanker
p647
aVProp
p648
aVScrum-half
p649
aVHooker, Prop
p650
aVFlanker
p651
aVFlanker, Lock
p652
aVWing
p653
aVFlanker
p654
aVCentre
p655
aVHooker
p656
aVWing
p657
aVLock
p658
aVProp
p659
aVCentre
p660
aVLock
p661
aVFly-half
p662
aVBack-row
p663
aVProp
p664
aVNo. 8
p665
aVScrum-half
p666
aVWing
p667
aVBack-row
p668
aVHooker
p669
aVScrum-half
p670
aVFlanker
p671
aVWing
p672
aVProp
p673
aVBack-row
p674
aVWing
p675
aVScrum-half
p676
aVHooker
p677
aVCentre
p678
aVLock
p679
aVCentre
p680
aVWing
p681
aVNo. 8
p682
aVProp
p683
aVScrum-half
p684
aVHooker
p685
aVWing
p686
aVFullback, Centre
p687
aVCentre
p688
aVCentre
p689
aVLock
p690
aVFlanker
p691
aVCentre
p692
aVBack-row
p693
aVProp
p694
aVHooker
p695
aVFly-half
p696
aVNo. 8
p697
aVProp
p698
aVLock
p699
aVProp
p700
aVProp
p701
aVWing
p702
aVHooker
p703
aVHooker
p704
aVWing
p705
aVFlanker
p706
aVFly-half
p707
aVWing, Fullback
p708
aVProp
p709
aVBack-row
p710
aVScrum-half
p711
aVBack-row
p712
aVFullback
p713
aVCentre
p714
aVFlanker
p715
aVWing
p716
aVLock
p717
aVLock
p718
aVHooker
p719
aVFlanker
p720
aVBack-row
p721
aVFly-half
p722
aVBack-row
p723
aVWing
p724
aVProp
p725
aVBack-row
p726
aVProp
p727
aVLock
p728
aVScrum-half
p729
aVFlanker
p730
aVLock
p731
aVLock
p732
aVProp
p733
aVLock
p734
aVProp
p735
aVCentre
p736
aVHooker
p737
aVNo. 8
p738
aVFly-half
p739
aVFullback
p740
aVFly-half
p741
aVFlanker
p742
aVFullback
p743
aVScrum-half
p744
aVProp
p745
aVCentre
p746
aVFlanker
p747
aVScrum-half
p748
aVLock
p749
aVProp
p750
aVLock
p751
aVProp
p752
aVWing
p753
aVLock
p754
aVFly-half
p755
aVUtility back
p756
aVLock
p757
aVFlanker
p758
aVProp
p759
aVCentre
p760
aVNo. 8
p761
aVScrum-half
p762
aVBack-row
p763
aVProp
p764
a.