(lp1
VSamoa v Fiji at Apia, Aug 18, 1924
p2
aVSamoa v Fiji at Apia, Aug 18, 1924
p3
aVSamoa v Fiji at Apia, Aug 18, 1924
p4
aVSamoa v Fiji at Apia, Aug 18, 1924
p5
aVSamoa v Fiji at Apia, Aug 18, 1924
p6
aVSamoa v Fiji at Apia, Aug 18, 1924
p7
aVSamoa v Fiji at Apia, Aug 18, 1924
p8
aVSamoa v Fiji at Apia, Aug 18, 1924
p9
aVSamoa v Fiji at Apia, Aug 18, 1924
p10
aVSamoa v Fiji at Apia, Aug 18, 1924
p11
aVSamoa v Fiji at Apia, Aug 18, 1924
p12
aVSamoa v Fiji at Apia, Aug 18, 1924
p13
aVSamoa v Fiji at Apia, Aug 18, 1924
p14
aVSamoa v Fiji at Apia, Aug 18, 1924
p15
aVSamoa v Fiji at Apia, Aug 18, 1924
p16
aVSamoa v Fiji at Apia, Sep 19, 1924
p17
aVSamoa v Fiji at Apia, Sep 19, 1924
p18
aVSamoa v Fiji at Apia, Sep 21, 1928
p19
aVSamoa v Fiji at Apia, Sep 21, 1928
p20
aVSamoa v Fiji at Apia, Sep 21, 1928
p21
aVSamoa v Fiji at Apia, Sep 21, 1928
p22
aVSamoa v Fiji at Apia, Sep 21, 1928
p23
aVSamoa v Fiji at Apia, Sep 21, 1928
p24
aVSamoa v Fiji at Apia, Sep 21, 1928
p25
aVSamoa v Fiji at Apia, Sep 21, 1928
p26
aVSamoa v Fiji at Apia, Sep 21, 1928
p27
aVSamoa v Fiji at Apia, Sep 21, 1928
p28
aVSamoa v Fiji at Apia, Sep 21, 1928
p29
aVSamoa v Fiji at Apia, Sep 21, 1928
p30
aVSamoa v Fiji at Apia, Sep 21, 1928
p31
aVSamoa v Fiji at Apia, Sep 21, 1928
p32
aVSamoa v Tonga at Apia, Sep 16, 1932
p33
aVSamoa v Tonga at Apia, Sep 16, 1932
p34
aVSamoa v Tonga at Apia, Sep 16, 1932
p35
aVSamoa v Tonga at Apia, Sep 16, 1932
p36
aVSamoa v Tonga at Apia, Sep 16, 1932
p37
aVSamoa v Tonga at Apia, Sep 16, 1932
p38
aVSamoa v Tonga at Apia, Sep 16, 1932
p39
aVSamoa v Tonga at Apia, Sep 16, 1932
p40
aVSamoa v Tonga at Apia, Sep 16, 1932
p41
aVSamoa v Tonga at Apia, Sep 16, 1932
p42
aVSamoa v Tonga at Apia, Aug 9, 1947
p43
aVSamoa v Tonga at Apia, Aug 9, 1947
p44
aVSamoa v Tonga at Apia, Aug 9, 1947
p45
aVSamoa v Tonga at Apia, Aug 9, 1947
p46
aVSamoa v Tonga at Apia, Aug 9, 1947
p47
aVSamoa v Tonga at Apia, Aug 9, 1947
p48
aVSamoa v Tonga at Apia, Aug 9, 1947
p49
aVSamoa v Tonga at Apia, Aug 9, 1947
p50
aVSamoa v Tonga at Apia, Aug 9, 1947
p51
aVSamoa v Tonga at Apia, Aug 9, 1947
p52
aVSamoa v Tonga at Apia, Aug 9, 1947
p53
aVSamoa v Tonga at Apia, Aug 9, 1947
p54
aVSamoa v Tonga at Apia, Aug 9, 1947
p55
aVSamoa v Tonga at Apia, Aug 9, 1947
p56
aVSamoa v Fiji XV at Apia, Jun 4, 1955
p57
aVSamoa v Fiji XV at Apia, Jun 4, 1955
p58
aVSamoa v Fiji XV at Apia, Jun 4, 1955
p59
aVSamoa v Fiji XV at Apia, Jun 4, 1955
p60
aVSamoa v Fiji XV at Apia, Jun 4, 1955
p61
aVSamoa v Fiji XV at Apia, Jun 4, 1955
p62
aVSamoa v Fiji XV at Apia, Jun 4, 1955
p63
aVSamoa v Fiji XV at Apia, Jun 4, 1955
p64
aVSamoa v Fiji XV at Apia, Jun 4, 1955
p65
aVSamoa v Fiji XV at Apia, Jun 4, 1955
p66
aVSamoa v Fiji XV at Apia, Jun 4, 1955
p67
aVSamoa v Fiji XV at Apia, Jun 4, 1955
p68
aVSamoa v Fiji XV at Apia, Jun 4, 1955
p69
aVSamoa v Fiji XV at Apia, Jun 4, 1955
p70
aVSamoa v Fiji XV at Apia, Jun 4, 1955
p71
aVSamoa v Fiji XV at Apia, Jun 11, 1955
p72
aVSamoa v Fiji XV at Apia, Jun 11, 1955
p73
aVSamoa v Fiji XV at Apia, Jun 11, 1955
p74
aVSamoa v Fiji XV at Apia, Jun 11, 1955
p75
aVSamoa v Fiji XV at Apia, Jun 18, 1955
p76
aVSamoa v Fiji XV at Apia, Jun 18, 1955
p77
aVSamoa v Tonga at Apia, Jun 1, 1957
p78
aVSamoa v Tonga at Apia, Jun 1, 1957
p79
aVSamoa v Tonga at Apia, Jun 1, 1957
p80
aVSamoa v Tonga at Apia, Jun 1, 1957
p81
aVSamoa v Tonga at Apia, Jun 1, 1957
p82
aVSamoa v Tonga at Apia, Jun 1, 1957
p83
aVSamoa v Tonga at Apia, Jun 1, 1957
p84
aVSamoa v Tonga at Apia, Jun 1, 1957
p85
aVSamoa v Tonga at Apia, Jun 1, 1957
p86
aVSamoa v Tonga at Apia, Jun 1, 1957
p87
aVSamoa v Tonga at Apia, Jun 1, 1957
p88
aVSamoa v Tonga at Apia, Jun 4, 1957
p89
aVSamoa v Tonga at Apia, Jun 4, 1957
p90
aVSamoa v Tonga at Apia, Jun 4, 1957
p91
aVSamoa v Tonga at Apia, Jun 4, 1957
p92
aVSamoa v Tonga at Apia, Jun 4, 1957
p93
aVSamoa v Tonga at Apia, Jun 4, 1957
p94
aVSamoa v Tonga at Apia, Jun 4, 1957
p95
aVSamoa v Tonga at Apia, Jun 4, 1957
p96
aVFiji v Samoa at Suva, Aug 30, 1963
p97
aVFiji v Samoa at Suva, Aug 30, 1963
p98
aVFiji v Samoa at Suva, Aug 30, 1963
p99
aVFiji v Samoa at Suva, Aug 30, 1963
p100
aVFiji v Samoa at Suva, Aug 30, 1963
p101
aVFiji v Samoa at Suva, Aug 30, 1963
p102
aVFiji v Samoa at Suva, Aug 30, 1963
p103
aVFiji v Samoa at Suva, Aug 30, 1963
p104
aVFiji v Samoa at Suva, Aug 30, 1963
p105
aVFiji v Samoa at Suva, Aug 30, 1963
p106
aVFiji v Samoa at Suva, Aug 30, 1963
p107
aVFiji v Samoa at Suva, Aug 30, 1963
p108
aVFiji v Samoa at Suva, Aug 30, 1963
p109
aVFiji v Samoa at Suva, Aug 30, 1963
p110
aVFiji v Samoa at Suva, Aug 30, 1963
p111
aVFiji v Samoa at Suva, Sep 5, 1963
p112
aVFiji v Samoa at Suva, Sep 5, 1963
p113
aVFiji v Samoa at Suva, Sep 5, 1963
p114
aVFiji v Samoa at Suva, Sep 5, 1963
p115
aVSamoa v Tonga at Apia, May 27, 1972
p116
aVSamoa v Tonga at Apia, May 27, 1972
p117
aVSamoa v Tonga at Apia, May 27, 1972
p118
aVSamoa v Tonga at Apia, May 27, 1972
p119
aVSamoa v Tonga at Apia, May 27, 1972
p120
aVSamoa v Tonga at Apia, May 27, 1972
p121
aVSamoa v Tonga at Apia, May 27, 1972
p122
aVSamoa v Tonga at Apia, May 27, 1972
p123
aVSamoa v Tonga at Apia, May 27, 1972
p124
aVSamoa v Tonga at Apia, May 27, 1972
p125
aVSamoa v Tonga at Apia, May 27, 1972
p126
aVSamoa v Tonga at Apia, May 27, 1972
p127
aVSamoa v Tonga at Apia, May 27, 1972
p128
aVSamoa v Tonga at Apia, May 27, 1972
p129
aVSamoa v Tonga at Apia, May 27, 1972
p130
aVSamoa v Tonga at Apia, Jun 13, 1975
p131
aVSamoa v Tonga at Apia, Jun 13, 1975
p132
aVSamoa v Tonga at Apia, Jun 13, 1975
p133
aVSamoa v Tonga at Apia, Jun 13, 1975
p134
aVSamoa v Tonga at Apia, Jun 13, 1975
p135
aVSamoa v Tonga at Apia, Jun 13, 1975
p136
aVSamoa v Tonga at Apia, Jun 13, 1975
p137
aVSamoa v Tonga at Apia, Jun 13, 1975
p138
aVSamoa v Tonga at Apia, Jun 13, 1975
p139
aVSamoa v Tonga at Apia, Jun 13, 1975
p140
aVSamoa v Tonga at Apia, Jun 13, 1975
p141
aVSamoa v Tonga at Apia, Jun 13, 1975
p142
aVSamoa v Tonga at Suva, Aug 30, 1979
p143
aVSamoa v Tonga at Suva, Aug 30, 1979
p144
aVSamoa v Tonga at Suva, Aug 30, 1979
p145
aVSamoa v Tonga at Suva, Aug 30, 1979
p146
aVSamoa v Tonga at Suva, Aug 30, 1979
p147
aVSamoa v Tonga at Suva, Aug 30, 1979
p148
aVSamoa v Tonga at Suva, Aug 30, 1979
p149
aVSamoa v Tonga at Suva, Aug 30, 1979
p150
aVSamoa v Tonga at Suva, Aug 30, 1979
p151
aVSamoa v Tonga at Suva, Aug 30, 1979
p152
aVSamoa v Tonga at Suva, Aug 30, 1979
p153
aVSamoa v Tonga at Suva, Aug 30, 1979
p154
aVSamoa v Tonga at Suva, Aug 30, 1979
p155
aVSamoa v Tonga at Suva, Aug 30, 1979
p156
aVFiji v Samoa at Suva, Sep 5, 1979
p157
aVFiji v Samoa at Suva, Sep 5, 1979
p158
aVFiji v Samoa at Suva, Sep 5, 1979
p159
aVFiji v Samoa at Suva, Sep 5, 1979
p160
aVSamoa v Tonga at Apia, Jun 3, 1980
p161
aVSamoa v Tonga at Apia, Jun 3, 1980
p162
aVSamoa v Tonga at Apia, Jun 3, 1980
p163
aVFiji v Samoa at Lautoka, Jun 27, 1981
p164
aVFiji v Samoa at Lautoka, Jun 27, 1981
p165
aVFiji v Samoa at Lautoka, Jun 27, 1981
p166
aVFiji v Samoa at Lautoka, Jun 27, 1981
p167
aVFiji v Samoa at Lautoka, Jun 27, 1981
p168
aVFiji v Samoa at Lautoka, Jun 27, 1981
p169
aVFiji v Samoa at Lautoka, Jun 27, 1981
p170
aVFiji v Samoa at Suva, Jul 4, 1981
p171
aVFiji v Samoa at Suva, Jul 4, 1981
p172
aVSamoa v Fiji at Apia, Jun 2, 1982
p173
aVSamoa v Fiji at Apia, Jun 2, 1982
p174
aVSamoa v Fiji at Apia, Jun 2, 1982
p175
aVSamoa v Fiji at Apia, Jun 2, 1982
p176
aVSamoa v Fiji at Apia, Jun 2, 1982
p177
aVSamoa v Fiji at Apia, Jun 2, 1982
p178
aVSamoa v Fiji at Apia, Jun 12, 1982
p179
aVFiji v Samoa at Suva, Aug 21, 1982
p180
aVFiji v Samoa at Suva, Aug 21, 1982
p181
aVFiji v Samoa at Suva, Aug 21, 1982
p182
aVTonga v Samoa at Nuku A'lofa, Aug 25, 1982
p183
aVTonga v Samoa at Nuku A'lofa, Aug 25, 1982
p184
aVSamoa v Tonga at Suva, Jun 22, 1983
p185
aVSamoa v Tonga at Suva, Jun 22, 1983
p186
aVSamoa v Tonga at Suva, Jun 22, 1983
p187
aVFiji v Samoa at Suva, Jun 25, 1983
p188
aVFiji v Samoa at Suva, Jun 25, 1983
p189
aVFiji v Samoa at Suva, Jun 25, 1983
p190
aVFiji v Samoa at Suva, Jun 30, 1984
p191
aVFiji v Samoa at Suva, Jun 30, 1984
p192
aVFiji v Samoa at Suva, Jun 30, 1984
p193
aVSamoa v Tonga at Suva, Jul 4, 1984
p194
aVSamoa v Fiji at Apia, Jun 1, 1985
p195
aVSamoa v Fiji at Apia, Jun 1, 1985
p196
aVSamoa v Fiji at Apia, Jun 1, 1985
p197
aVSamoa v Fiji at Apia, Jun 1, 1985
p198
aVSamoa v Fiji at Apia, Jun 1, 1985
p199
aVSamoa v Fiji at Apia, Jun 1, 1985
p200
aVSamoa v Fiji at Apia, Jun 1, 1985
p201
aVSamoa v Fiji at Apia, Jun 1, 1985
p202
aVSamoa v Fiji at Apia, Jun 1, 1985
p203
aVSamoa v Tonga at Apia, Jun 8, 1985
p204
aVSamoa v Tonga at Apia, Jun 8, 1985
p205
aVSamoa v Tonga at Apia, Jun 22, 1985
p206
aVSamoa v Wales at Apia, Jun 14, 1986
p207
aVSamoa v Wales at Apia, Jun 14, 1986
p208
aVSamoa v Wales at Apia, Jun 14, 1986
p209
aVSamoa v Wales at Apia, Jun 14, 1986
p210
aVSamoa v Wales at Apia, Jun 14, 1986
p211
aVSamoa v Wales at Apia, Jun 14, 1986
p212
aVFiji v Samoa at Nuku A'lofa, Jul 2, 1986
p213
aVFiji v Samoa at Nuku A'lofa, Jul 2, 1986
p214
aVFiji v Samoa at Nuku A'lofa, Jul 2, 1986
p215
aVFiji v Samoa at Nuku A'lofa, Jul 2, 1986
p216
aVFiji v Samoa at Suva, Aug 22, 1987
p217
aVFiji v Samoa at Suva, Aug 22, 1987
p218
aVFiji v Samoa at Suva, Aug 22, 1987
p219
aVFiji v Samoa at Suva, Aug 22, 1987
p220
aVFiji v Samoa at Suva, Aug 22, 1987
p221
aVFiji v Tonga at Suva, Jun 18, 1983
p222
aVFiji v Samoa at Suva, Aug 22, 1987
p223
aVSamoa v Tonga at Suva, Aug 28, 1987
p224
aVSamoa v Tonga at Suva, Aug 28, 1987
p225
aVSamoa v Tonga at Suva, Aug 28, 1987
p226
aVSamoa v Tonga at Apia, May 28, 1988
p227
aVSamoa v Tonga at Apia, May 28, 1988
p228
aVSamoa v Tonga at Apia, May 28, 1988
p229
aVSamoa v Tonga at Apia, May 28, 1988
p230
aVSamoa v Tonga at Apia, May 28, 1988
p231
aVSamoa v Tonga at Apia, May 28, 1988
p232
aVSamoa v Tonga at Apia, May 28, 1988
p233
aVSamoa v Fiji at Apia, Jun 4, 1988
p234
aVSamoa v Fiji at Apia, Jun 4, 1988
p235
aVIreland v Samoa at Lansdowne Road, Oct 29, 1988
p236
aVIreland v Samoa at Lansdowne Road, Oct 29, 1988
p237
aVIreland v Samoa at Lansdowne Road, Oct 29, 1988
p238
aVIreland v Samoa at Lansdowne Road, Oct 29, 1988
p239
aVIreland v Samoa at Lansdowne Road, Oct 29, 1988
p240
aVIreland v Samoa at Lansdowne Road, Oct 29, 1988
p241
aVWales v Samoa at Cardiff, Nov 12, 1988
p242
aVWales v Samoa at Cardiff, Nov 12, 1988
p243
aVSamoa v Fiji at Apia, Jun 10, 1989
p244
aVSamoa v Fiji at Apia, Jun 10, 1989
p245
aVSamoa v Fiji at Apia, Jun 10, 1989
p246
aVWest Germany v Samoa at Bonn, Sep 30, 1989
p247
aVBelgium v Samoa at Brussels, Oct 3, 1989
p248
aVBelgium v Samoa at Brussels, Oct 3, 1989
p249
aVBelgium v Samoa at Brussels, Oct 3, 1989
p250
aVBelgium v Samoa at Brussels, Oct 3, 1989
p251
aVRomania v Samoa at Bucharest, Oct 14, 1989
p252
aVKorea v Samoa at Tokyo, Apr 8, 1990
p253
aVKorea v Samoa at Tokyo, Apr 8, 1990
p254
aVKorea v Samoa at Tokyo, Apr 8, 1990
p255
aVKorea v Samoa at Tokyo, Apr 8, 1990
p256
aVSamoa v Tonga at Tokyo, Apr 11, 1990
p257
aVJapan v Samoa at Tokyo, Apr 15, 1990
p258
aVSamoa v Tonga at Apia, Jun 17, 1990
p259
aVSamoa v Tonga at Apia, Jun 17, 1990
p260
aVSamoa v Tonga at Apia, Jun 17, 1990
p261
aVSamoa v Tonga at Apia, Jun 17, 1990
p262
aVSamoa v Tonga at Apia, Jun 17, 1990
p263
aVSamoa v Tonga at Apia, Jun 17, 1990
p264
aVTonga v Samoa at Nuku A'lofa, May 28, 1991
p265
aVTonga v Samoa at Nuku A'lofa, May 28, 1991
p266
aVTonga v Samoa at Nuku A'lofa, May 28, 1991
p267
aVTonga v Samoa at Nuku A'lofa, May 28, 1991
p268
aVTonga v Samoa at Nuku A'lofa, May 28, 1991
p269
aVWales v Samoa at Cardiff, Oct 6, 1991
p270
aVWales v Samoa at Cardiff, Oct 6, 1991
p271
aVWales v Samoa at Cardiff, Oct 6, 1991
p272
aVWales v Samoa at Cardiff, Oct 6, 1991
p273
aVSamoa v Tonga at Apia, Jun 13, 1992
p274
aVSamoa v Tonga at Apia, Jun 13, 1992
p275
aVSamoa v Tonga at Apia, Jun 13, 1992
p276
aVFiji v Samoa at Suva, Jun 20, 1992
p277
aVTonga v Samoa at Nuku A'lofa, May 29, 1993
p278
aVTonga v Samoa at Nuku A'lofa, May 29, 1993
p279
aVTonga v Samoa at Nuku A'lofa, May 29, 1993
p280
aVNew Zealand v Samoa at Auckland, Jul 31, 1993
p281
aVSamoa v Tonga at Moamoa, Jun 4, 1994
p282
aVSamoa v Tonga at Moamoa, Jun 4, 1994
p283
aVHong Kong v Japan at Seoul, Sep 26, 1992
p284
aVSamoa v Tonga at Moamoa, Jun 4, 1994
p285
aVSamoa v Wales at Moamoa, Jun 25, 1994
p286
aVSamoa v Wales at Moamoa, Jun 25, 1994
p287
aVSamoa v Wales at Moamoa, Jun 25, 1994
p288
aVSouth Africa v Samoa at Johannesburg, Apr 13, 1995
p289
aVSouth Africa v Samoa at Johannesburg, Apr 13, 1995
p290
aVSouth Africa v Samoa at Johannesburg, Apr 13, 1995
p291
aVSouth Africa v Samoa at Johannesburg, Apr 13, 1995
p292
aVSouth Africa v Samoa at Johannesburg, Apr 13, 1995
p293
aVSouth Africa v Samoa at Johannesburg, Apr 13, 1995
p294
aVSouth Africa v Samoa at Johannesburg, Jun 10, 1995
p295
aVScotland v Samoa at Murrayfield, Nov 18, 1995
p296
aVScotland v Samoa at Murrayfield, Nov 18, 1995
p297
aVScotland v Samoa at Murrayfield, Nov 18, 1995
p298
aVScotland v Samoa at Murrayfield, Nov 18, 1995
p299
aVNew Zealand v Samoa at Napier, Jun 7, 1996
p300
aVSamoa v Tonga at Apia, Jul 13, 1996
p301
aVSamoa v Tonga at Apia, Jul 13, 1996
p302
aVSamoa v Tonga at Apia, Jul 13, 1996
p303
aVFiji v Samoa at Suva, Jul 20, 1996
p304
aVIreland v Samoa at Lansdowne Road, Nov 12, 1996
p305
aVIreland v Samoa at Lansdowne Road, Nov 12, 1996
p306
aVNew Zealand v United States of America at Gloucester, Oct 8, 1991
p307
aVIreland v Samoa at Lansdowne Road, Nov 12, 1996
p308
aVSamoa v Tonga at Apia, Jun 28, 1997
p309
aVSamoa v Tonga at Apia, Jun 28, 1997
p310
aVSamoa v Tonga at Apia, Jun 28, 1997
p311
aVSamoa v Tonga at Apia, Jun 28, 1997
p312
aVSamoa v Tonga at Apia, Jun 28, 1997
p313
aVSamoa v Tonga at Apia, Jun 28, 1997
p314
aVSamoa v Tonga at Sydney, Sep 18, 1998
p315
aVSamoa v Tonga at Sydney, Sep 18, 1998
p316
aVSamoa v Tonga at Sydney, Sep 18, 1998
p317
aVSamoa v Tonga at Sydney, Sep 18, 1998
p318
aVSamoa v Tonga at Sydney, Sep 18, 1998
p319
aVSamoa v Tonga at Sydney, Sep 18, 1998
p320
aVFiji v Samoa at Canberra, Sep 22, 1998
p321
aVFiji v Samoa at Canberra, Sep 22, 1998
p322
aVAustralia v Samoa at Brisbane, Sep 26, 1998
p323
aVJapan v Samoa at Osaka, May 22, 1999
p324
aVJapan v Samoa at Osaka, May 22, 1999
p325
aVJapan v Samoa at Osaka, May 22, 1999
p326
aVJapan v Samoa at Osaka, May 22, 1999
p327
aVJapan v Samoa at Osaka, May 22, 1999
p328
aVCanada v Samoa at Vancouver, May 29, 1999
p329
aVCanada v Samoa at Vancouver, May 29, 1999
p330
aVAustralia v New Zealand at Sydney, Jul 3, 1988
p331
aVSamoa v France at Apia, Jun 12, 1999
p332
aVScotland v Samoa at Murrayfield, Oct 20, 1999
p333
aVSamoa v Fiji at Apia, Jun 3, 2000
p334
aVSamoa v Fiji at Apia, Jun 3, 2000
p335
aVSamoa v Fiji at Apia, Jun 3, 2000
p336
aVSamoa v Fiji at Apia, Jun 3, 2000
p337
aVSamoa v Fiji at Apia, Jun 3, 2000
p338
aVSamoa v Fiji at Apia, Jun 3, 2000
p339
aVSamoa v Japan at Apia, Jun 10, 2000
p340
aVSamoa v Japan at Apia, Jun 10, 2000
p341
aVTonga v Samoa at Nuku A'lofa, Jun 24, 2000
p342
aVWales v Samoa at Millennium Stadium, Nov 11, 2000
p343
aVWales v Samoa at Millennium Stadium, Nov 11, 2000
p344
aVWales v Samoa at Millennium Stadium, Nov 11, 2000
p345
aVWales v Samoa at Millennium Stadium, Nov 11, 2000
p346
aVWales v Samoa at Millennium Stadium, Nov 11, 2000
p347
aVWales v Samoa at Millennium Stadium, Nov 11, 2000
p348
aVWales v Samoa at Millennium Stadium, Nov 11, 2000
p349
aVWales v Samoa at Millennium Stadium, Nov 11, 2000
p350
aVWales v Samoa at Millennium Stadium, Nov 11, 2000
p351
aVWales v Samoa at Millennium Stadium, Nov 11, 2000
p352
aVWales v Samoa at Millennium Stadium, Nov 11, 2000
p353
aVWales v Samoa at Millennium Stadium, Nov 11, 2000
p354
aVWales v Samoa at Millennium Stadium, Nov 11, 2000
p355
aVScotland v Samoa at Murrayfield, Nov 18, 2000
p356
aVScotland v Samoa at Murrayfield, Nov 18, 2000
p357
aVSamoa v Tonga at Apia, Jun 2, 2001
p358
aVSamoa v Tonga at Apia, Jun 2, 2001
p359
aVSamoa v Tonga at Apia, Jun 2, 2001
p360
aVSamoa v Tonga at Apia, Jun 2, 2001
p361
aVIreland v Samoa at Lansdowne Road, Nov 11, 2001
p362
aVIreland v Samoa at Lansdowne Road, Nov 11, 2001
p363
aVIreland v Samoa at Lansdowne Road, Nov 11, 2001
p364
aVIreland v Samoa at Lansdowne Road, Nov 11, 2001
p365
aVIreland v Samoa at Lansdowne Road, Nov 11, 2001
p366
aVIreland v Samoa at Lansdowne Road, Nov 11, 2001
p367
aVIreland v Samoa at Lansdowne Road, Nov 11, 2001
p368
aVSamoa v Fiji at Apia, Jun 1, 2002
p369
aVSamoa v Fiji at Apia, Jun 1, 2002
p370
aVFiji v Samoa at Nadi, Jun 22, 2002
p371
aVSouth Africa v Samoa at Pretoria, Jul 6, 2002
p372
aVSouth Africa v Samoa at Pretoria, Jul 6, 2002
p373
aVSamoa v Ireland at Apia, Jun 20, 2003
p374
aVSamoa v Ireland at Apia, Jun 20, 2003
p375
aVSamoa v Ireland at Apia, Jun 20, 2003
p376
aVSamoa v Ireland at Apia, Jun 20, 2003
p377
aVSamoa v Ireland at Apia, Jun 20, 2003
p378
aVNamibia v Samoa at Windhoek, Jul 12, 2003
p379
aVNamibia v Samoa at Windhoek, Jul 12, 2003
p380
aVNamibia v Samoa at Windhoek, Jul 12, 2003
p381
aVSamoa v Uruguay at Perth, Oct 15, 2003
p382
aVSamoa v Uruguay at Perth, Oct 15, 2003
p383
aVSamoa v South Africa at Brisbane, Nov 1, 2003
p384
aVSamoa v Tonga at Apia, May 29, 2004
p385
aVSamoa v Tonga at Apia, May 29, 2004
p386
aVSamoa v Tonga at Apia, May 29, 2004
p387
aVSamoa v Tonga at Apia, May 29, 2004
p388
aVSamoa v Tonga at Apia, May 29, 2004
p389
aVSamoa v Tonga at Apia, May 29, 2004
p390
aVSamoa v Scotland at Wellington, Jun 4, 2004
p391
aVFiji v Samoa at Suva, Jun 12, 2004
p392
aVFiji v Samoa at Suva, Jun 12, 2004
p393
aVFiji v Samoa at Suva, Jun 12, 2004
p394
aVAustralia v Samoa at Sydney, Jun 11, 2005
p395
aVAustralia v Samoa at Sydney, Jun 11, 2005
p396
aVAustralia v Samoa at Sydney, Jun 11, 2005
p397
aVAustralia v Samoa at Sydney, Jun 11, 2005
p398
aVAustralia v Samoa at Sydney, Jun 11, 2005
p399
aVAustralia v Samoa at Sydney, Jun 11, 2005
p400
aVAustralia v Samoa at Sydney, Jun 11, 2005
p401
aVAustralia v Samoa at Sydney, Jun 11, 2005
p402
aVAustralia v Samoa at Sydney, Jun 11, 2005
p403
aVSamoa v Tonga at Apia, Jul 2, 2005
p404
aVSamoa v Tonga at Apia, Jul 2, 2005
p405
aVSamoa v Tonga at Apia, Jul 2, 2005
p406
aVSamoa v Tonga at Apia, Jul 2, 2005
p407
aVSamoa v Tonga at Apia, Jul 2, 2005
p408
aVSamoa v Tonga at Apia, Jul 2, 2005
p409
aVSamoa v Tonga at Apia, Jul 2, 2005
p410
aVScotland v Samoa at Murrayfield, Nov 20, 2005
p411
aVScotland v Samoa at Murrayfield, Nov 20, 2005
p412
aVScotland v Samoa at Murrayfield, Nov 20, 2005
p413
aVScotland v Samoa at Murrayfield, Nov 20, 2005
p414
aVArgentina v Samoa at Buenos Aires, Dec 3, 2005
p415
aVSamoa v Japan at New Plymouth, Jun 17, 2006
p416
aVAustralia v Pacific Islanders at Adelaide, Jul 3, 2004
p417
aVSamoa v Japan at New Plymouth, Jun 17, 2006
p418
aVSamoa v Japan at New Plymouth, Jun 17, 2006
p419
aVSamoa v Japan at New Plymouth, Jun 17, 2006
p420
aVSamoa v Japan at New Plymouth, Jun 17, 2006
p421
aVFiji v Samoa at Suva, Jun 24, 2006
p422
aVSamoa v Fiji at Apia, May 19, 2007
p423
aVNew Zealand v Pacific Islanders at North Shore City, Jul 10, 2004
p424
aVSamoa v Fiji at Apia, May 19, 2007
p425
aVSamoa v Fiji at Apia, May 19, 2007
p426
aVSamoa v Fiji at Apia, May 19, 2007
p427
aVSamoa v Fiji at Apia, May 19, 2007
p428
aVSamoa v Fiji at Apia, May 19, 2007
p429
aVWales v Pacific Islanders at Millennium Stadium, Nov 11, 2006
p430
aVSouth Africa v Samoa at Johannesburg, Jun 9, 2007
p431
aVSamoa v Tonga at Apia, Jun 23, 2007
p432
aVSamoa v United States of America at Saint-Etienne, Sep 26, 2007
p433
aVFiji v Samoa at Lautoka, Jun 7, 2008
p434
aVFiji v Samoa at Lautoka, Jun 7, 2008
p435
aVFiji v Samoa at Lautoka, Jun 7, 2008
p436
aVFiji v Samoa at Lautoka, Jun 7, 2008
p437
aVFiji v Samoa at Lautoka, Jun 7, 2008
p438
aVFiji v Samoa at Lautoka, Jun 7, 2008
p439
aVFiji v Samoa at Lautoka, Jun 7, 2008
p440
aVFiji v Samoa at Lautoka, Jun 7, 2008
p441
aVFiji v Samoa at Lautoka, Jun 7, 2008
p442
aVTonga v Samoa at Nuku A'lofa, Jun 28, 2008
p443
aVTonga v Samoa at Nuku A'lofa, Jun 28, 2008
p444
aVTonga v Samoa at Nuku A'lofa, Jun 28, 2008
p445
aVTonga v Samoa at Nuku A'lofa, Jun 28, 2008
p446
aVNew Zealand v Samoa at New Plymouth, Sep 3, 2008
p447
aVNew Zealand v Samoa at New Plymouth, Sep 3, 2008
p448
aVNew Zealand v Samoa at New Plymouth, Sep 3, 2008
p449
aVNew Zealand v Samoa at New Plymouth, Sep 3, 2008
p450
aVNew Zealand v Samoa at New Plymouth, Sep 3, 2008
p451
aVJapan v Samoa at Sigatoka, Jun 18, 2009
p452
aVJapan v Samoa at Sigatoka, Jun 18, 2009
p453
aVJapan v Samoa at Sigatoka, Jun 18, 2009
p454
aVJapan v Samoa at Sigatoka, Jun 18, 2009
p455
aVSamoa v Tonga at Lautoka, Jun 23, 2009
p456
aVSamoa v Tonga at Lautoka, Jun 23, 2009
p457
aVSamoa v Papua New Guinea at Apia, Jul 11, 2009
p458
aVSamoa v Papua New Guinea at Apia, Jul 11, 2009
p459
aVPapua New Guinea v Samoa at Port Moresby, Jul 18, 2009
p460
aVPapua New Guinea v Samoa at Port Moresby, Jul 18, 2009
p461
aVPapua New Guinea v Samoa at Port Moresby, Jul 18, 2009
p462
aVPapua New Guinea v Samoa at Port Moresby, Jul 18, 2009
p463
aVPapua New Guinea v Samoa at Port Moresby, Jul 18, 2009
p464
aVWales v Samoa at Millennium Stadium, Nov 13, 2009
p465
aVFrance v Samoa at Stade de France, Nov 21, 2009
p466
aVFrance v Samoa at Stade de France, Nov 21, 2009
p467
aVItaly v Samoa at Ascoli Piceno, Nov 28, 2009
p468
aVSamoa v Tonga at Apia, Jun 12, 2010
p469
aVSamoa v Tonga at Apia, Jun 12, 2010
p470
aVSamoa v Tonga at Apia, Jun 12, 2010
p471
aVSamoa v Tonga at Apia, Jun 12, 2010
p472
aVSamoa v Tonga at Apia, Jun 12, 2010
p473
aVSamoa v Tonga at Apia, Jun 12, 2010
p474
aVSamoa v Tonga at Apia, Jun 12, 2010
p475
aVSamoa v Tonga at Apia, Jun 12, 2010
p476
aVSamoa v Tonga at Apia, Jun 12, 2010
p477
aVSamoa v Japan at Apia, Jun 19, 2010
p478
aVJapan v Samoa at Tokyo, Oct 30, 2010
p479
aVJapan v Samoa at Tokyo, Oct 30, 2010
p480
a.