(lp1
S'Agnew'
p2
aS'Aitofele'
p3
aS'T. Allen'
p4
aS'Atiga'
p5
aS'C.H. Capper'
p6
aS'I. Imo'
p7
aS'Iupati'
p8
aS'A. Macdonald'
p9
aS'H. Moors'
p10
aS"P. Papali'i"
p11
aS'I. Railey'
p12
aS"E. Sa'aga"
p13
aS'Sinaumea'
p14
aS'Toni'
p15
aS'Tualai'
p16
aS'Tagimanu'
p17
aS'Tufele'
p18
aS'Ah Sue'
p19
aS'Filivaa'
p20
aS'Iese'
p21
aS'Latai'
p22
aS'Lui'
p23
aS'Manulua'
p24
aS'C. Meredith'
p25
aS'Moli'
p26
aS'Pio'
p27
aS'Poutoa'
p28
aS'Siaosi'
p29
aS'Simaile'
p30
aS'Simanu'
p31
aS'Tuvale'
p32
aS"A'ati"
p33
aS'Ah Mu'
p34
aS'Fruean'
p35
aS'Hellesoe'
p36
aS'Mose'
p37
aS'Panapa'
p38
aS'Petelo'
p39
aS'Sefo'
p40
aS'Tamalua'
p41
aS'Visesio'
p42
aS'S. Ah Fook'
p43
aS'K. Ese'
p44
aS"Fa'amaile"
p45
aS"F. Fa'asuaga"
p46
aS'Fatu'
p47
aS'S. Fretton'
p48
aS'S. Iuta'
p49
aS"M. Mata'afa"
p50
aS'O. Meredith'
p51
aS'J. Schaafhausen'
p52
aS'W. Schaafhausen'
p53
aS'A. Teo'
p54
aS'T. Tuisaula'
p55
aS'T. Viliamu'
p56
aS'C. Betham'
p57
aS'J. Cavanagh'
p58
aS'O. Crichton'
p59
aS'Silipa Fruean'
p60
aS'Tile Imo'
p61
aS'Leavaula Kamu'
p62
aS'Potu Leavasa'
p63
aS'Sosene Leavasa'
p64
aS'O. Nelson'
p65
aS"Sione Pala'amo"
p66
aS"Muka Papali'i"
p67
aS'P. Paul'
p68
aS'Pelenato Solia'
p69
aS'Fetu Teo'
p70
aS'S. Wendt'
p71
aS'F. Ah Long'
p72
aS'Sioa Fale'
p73
aS'Mose Hewitt'
p74
aS'Kapisi Toleafoa'
p75
aS'B. Laban'
p76
aS"M. Papali'i"
p77
aS'L. Eves'
p78
aS"Fa'asalele"
p79
aS'A. Grey'
p80
aS'J. Hunt'
p81
aS'A. Ioane'
p82
aS'Mei Lome'
p83
aS'P. Matailina'
p84
aS'P. Saili'
p85
aS"L. Savai'inaea"
p86
aS'L. Schaafhausen'
p87
aS'V. Teo'
p88
aS'M. Fepuleai'
p89
aS'S. Kalapu'
p90
aS'M. McFadyen'
p91
aS'F. Nickel'
p92
aS'Nimmo'
p93
aS'P. Swepson'
p94
aS'F. Tuatagaloa'
p95
aS'M. Vili'
p96
aS'Faleata Asi'
p97
aS"Fautai Fa'asiu"
p98
aS'Salele Feagai'
p99
aS'Hans Kruse'
p100
aS'A. Liaina'
p101
aS'Solomona Liaina'
p102
aS"Fa'aitu Mailei"
p103
aS'Jack Meredith'
p104
aS'Sio Perez'
p105
aS'L. Sagaga'
p106
aS'Po Siu'
p107
aS'V. Stet'
p108
aS'I. Tualaulelei'
p109
aS'Keli Tuatagaloa'
p110
aS'V. Tuatagaloa'
p111
aS"Pito Fa'alogo"
p112
aS'Efu Feagai'
p113
aS'Fealofima Lima'
p114
aS"Ni'o Petaia"
p115
aS'H. Ekeroma'
p116
aS'S. Epati'
p117
aS'J. Fruean'
p118
aS'Siro Fuatai'
p119
aS'T. Galuvao'
p120
aS'I. Melei'
p121
aS'P. Momoisea'
p122
aS'T. Palamo'
p123
aS'K. Roberts'
p124
aS'R. Slade'
p125
aS'R. Tiatia'
p126
aS'S. Tilialo'
p127
aS"P. Tu'uau"
p128
aS'F. Vagaia'
p129
aS'F. Vito'
p130
aS'F. Asi'
p131
aS'Jeffe Atoa'
p132
aS'S. Enari'
p133
aS'Paul Grey'
p134
aS'T. Iona'
p135
aS'T. Kali'
p136
aS"I. Laga'aia"
p137
aS'Peter Schuster'
p138
aS'Asora Simanu'
p139
aS'F. Siu'
p140
aS"L. Utu'utu"
p141
aS'M. Vili'
p142
aS'Susuga Alesana'
p143
aS"Se Ati'ifale"
p144
aS'Simaile Leaupepe'
p145
aS'Andy Leavasa'
p146
aS'Magalo Malele'
p147
aS'Arona Palamo'
p148
aS'Niko Palamo'
p149
aS'Tapuofaofa Patu'
p150
aS'Keli Saifoloi'
p151
aS'Taufusi Salesa'
p152
aS'Ricky Schmidt'
p153
aS'Faitala Talapusi'
p154
aS'Foua Toloa'
p155
aS"A. Utu'utu"
p156
aS"Fineaso Aima'asu"
p157
aS'Seletifuti Patu'
p158
aS'Mark Phillips'
p159
aS'Korua'
p160
aS'O. Patu'
p161
aS'P. Schmidt'
p162
aS'Feausiga Sililoto'
p163
aS'Taei Aoese'
p164
aS'Saipele Esera'
p165
aS'Falefa Lima'
p166
aS'Samuela Punivalu'
p167
aS"Tufua Se'umanutafa"
p168
aS'Pio Sioa'
p169
aS'Dickie Tafua'
p170
aS'Ieti Solipo'
p171
aS"Va'a Tasi"
p172
aS'Jack Huch'
p173
aS'Maafala Lima'
p174
aS"Fa'aniniva Ropati"
p175
aS"Fa'afetai Sua"
p176
aS'Sepe Tupuola'
p177
aS'Sanele Skelton'
p178
aS'S. Lameta'
p179
aS'Pati Maligi'
p180
aS'Lomitusi Sasi'
p181
aS'Kini Vaega'
p182
aS'Toma Aleni'
p183
aS'David Schuster'
p184
aS'Andrew Aiolupo'
p185
aS"Ta'i Fong"
p186
aS'Lolani Koko'
p187
aS'Marcus Krause'
p188
aS'Keith McFall'
p189
aS'Winston Ryan'
p190
aS"Fa'au'uga Kelemete"
p191
aS'Etuale Sefo'
p192
aS'T. Tavita'
p193
aS'S. Motoi'
p194
aS'I. Fesuiaii'
p195
aS'Iose Grey'
p196
aS'Sepulona Moamanu'
p197
aS'Tovia Petelo'
p198
aS'John Schuster'
p199
aS'Iosefo Tautua'
p200
aS"Stan To'omalatai"
p201
aS'John Ulugia'
p202
aS'M. Lautau'
p203
aS'J. Apelu'
p204
aS'K. Mavaega'
p205
aS'F. Solomona'
p206
aS"Tele'a Aialupo"
p207
aS'P. Alalatoa'
p208
aS'Michael Jones'
p209
aS"Ma'atusi Krause"
p210
aS'Malaefatu Patolo'
p211
aS"To'o Vaega"
p212
aS'Palemia Alalafoa'
p213
aS'Alani Fata'
p214
aS'Faalelei Feimanatufa'
p215
aS'Keneti Taylor'
p216
aS'John Ah Kuoi'
p217
aS"Vaivase Fa'asua"
p218
aS'Ekeroma Lauaiufi'
p219
aS"Afa Leu'u"
p220
aS'Petaia Nee Nee'
p221
aS"'Otenili Pifeleti"
p222
aS'Kitona Vai'
p223
aS'T. Jensen'
p224
aS'Tuise Sefo'
p225
aS'S. Tanuko'
p226
aS'Peleiupu Fuatai Leota'
p227
aS'Malaki Iupeli'
p228
aS'T. Magele'
p229
aS'Filipo Saena'
p230
aS'Keneti Sio'
p231
aS'Suliveta Uati'
p232
aS'Tauvere Ugapo'
p233
aS'Lafaele Mano'
p234
aS'Taumaloto Tofilau'
p235
aS'Vili Alalatoa'
p236
aS'Peter Fatialofa'
p237
aS'Saini Lemamea'
p238
aS'Daryl Williams'
p239
aS'Phineas Young'
p240
aS'Ollie Crichton'
p241
aS"Tupo Fa'amasino"
p242
aS'Vincent Fepuleai'
p243
aS'P. Schmidt'
p244
aS'Harry Schuster'
p245
aS'T. Tofaeono'
p246
aS'Faatoto Moananu'
p247
aS'P. Paulo'
p248
aS'S. Sauila'
p249
aS'F. Taiomaivao'
p250
aS'S. Telea'
p251
aS'Sila Vaifale'
p252
aS'S.P. Ching'
p253
aS'Danny Kaleopa'
p254
aS'Milovale Moke'
p255
aS'Timo Tagaloa'
p256
aS'David Sio'
p257
aS'Peter Leavai'
p258
aS"S. Fa'aofo"
p259
aS'Lio Falaniko'
p260
aS'Siu Fanolua'
p261
aS'Eddie Ioane'
p262
aS'Fili Lameta'
p263
aS'Shem Tatupu'
p264
aS'Stephen Bachop'
p265
aS'Brian Lima'
p266
aS'Junior Paramore'
p267
aS'Apollo Perelini'
p268
aS'Mathew Vaea'
p269
aS'Mark Birtwistle'
p270
aS'Frank Bunce'
p271
aS'Mat Keenan'
p272
aS'Pat Lam'
p273
aS'Alama Ieremia'
p274
aS'Kose Seinafo'
p275
aS'Freddie Tuilagi'
p276
aS"Junior Tonu'u"
p277
aS'Darren Kellett'
p278
aS'Potu Leavasa'
p279
aS"Tala Leiasamaiva'o"
p280
aS'Palamia Lilomaiava'
p281
aS'George Latu'
p282
aS"Tu Nu'uali'itia"
p283
aS'Sam Kaleta'
p284
aS'Rudolf Moors'
p285
aS'Toa Samania'
p286
aS'Vaa Vitale'
p287
aS'Dylan Mika'
p288
aS'George Harder'
p289
aS'George Leaupepe'
p290
aS'Mike Mika'
p291
aS'Esera Puleitu'
p292
aS'Mike Umaga'
p293
aS'Fata Sini'
p294
aS'Brendan Reidy'
p295
aS'Joe Filemu'
p296
aS'Veli Patu'
p297
aS'Alex Telea'
p298
aS'Stephen Smith'
p299
aS'Terry Fanolua'
p300
aS"Sene Ta'ala"
p301
aS"Fa'avaivai Tanoa'i"
p302
aS'Onehunga Matauiau Esau'
p303
aS'Kaisa Tuigamala'
p304
aS"Zak Feau'nati"
p305
aS"Afato So'oalo"
p306
aS'Inga Tuigamala'
p307
aS"Earl Va'a"
p308
aS'Robbie Ale'
p309
aS'John Clarke'
p310
aS'Silao Leaegailesolo'
p311
aS'Trevor Leota'
p312
aS'Tupae Pati'
p313
aS'Richard Rasmussen'
p314
aS"Kepi Faiva'ai"
p315
aS"Fosi Pala'amo"
p316
aS'Opeta Palepoi'
p317
aS"Steve So'oialo"
p318
aS'Kalolo Toleafoa'
p319
aS'Lama Tone'
p320
aS'Filipo Toala'
p321
aS'Malua Tipi'
p322
aS"Andrew Va'a"
p323
aS'Craig Glendinning'
p324
aS'Ali Koko'
p325
aS'Mepi Faoagali'
p326
aS'Mark Luafalealo'
p327
aS'Semo Sititi'
p328
aS'Tanner Vili'
p329
aS"Fa'apulou So'olefai"
p330
aS'John Schuster'
p331
aS'Tani Fuga'
p332
aS'Polo Asi'
p333
aS'Tom Curtis'
p334
aS"Lome Fa'atau"
p335
aS"Kas Lealamanu'a"
p336
aS"Elvis Seveali'i"
p337
aS'Malaga Leota'
p338
aS'Denning Tyrell'
p339
aS'Tim Cowley'
p340
aS'Ngapaku Ngapaku'
p341
aS'Iva Motusaga'
p342
aS"S. Fa'asua Taua"
p343
aS'Junior Maligi'
p344
aS'Luke Mealamu'
p345
aS'Sika Poching'
p346
aS'Quintan Sanft'
p347
aS"Alfie To'oala Vaeluaga"
p348
aS'Tuaifuaina Veiru'
p349
aS'Joe Mamea'
p350
aS'Pule Misa'
p351
aS'Mahonri Schwalger'
p352
aS'Dan Tafeamalii'
p353
aS'Aleki Toleafoa'
p354
aS'Setefano Tone'
p355
aS'Mussolini Schuster'
p356
aS'Anthony Mika'
p357
aS"Leo Lafaiali'i"
p358
aS'Patrick Segi'
p359
aS'Ace Tiatia'
p360
aS'Hery Williams'
p361
aS'Tamato Leupolu'
p362
aS'Jonathan Meredith'
p363
aS'George Stowers'
p364
aS'Jeremy Tomuli'
p365
aS'Siaosi Vaili'
p366
aS'Kitiona Viliamu'
p367
aS"Fa'amaoni Lalomilo"
p368
aS'Carl Manu'
p369
aS'Henry Tuilagi'
p370
aS'Alesana Tuilagi'
p371
aS"Maurie Fa'asavalu"
p372
aS'Ponali Tapelu'
p373
aS"Ron Fanu'atanu"
p374
aS"Fa'atonu Fili"
p375
aS'Dale Rasmussen'
p376
aS'Gaolo Elisara'
p377
aS"Des Tuiali'i"
p378
aS"Dom Feau'nati"
p379
aS'Sailosi Tagicakibau'
p380
aS'Pama Petia'
p381
aS'Peter Poulos'
p382
aS'Simon Lemalu'
p383
aS'Romi Ropati'
p384
aS'David Lemi'
p385
aS'Ulia Ulia'
p386
aS'Roger Warren'
p387
aS'Nathan George'
p388
aS'John Senio'
p389
aS'Loleni Tafunai'
p390
aS'Michael von Dincklage'
p391
aS'Ray Tuivaiti'
p392
aS'Lolo Lui'
p393
aS'Simaika Mikaele'
p394
aS'Census Johnston'
p395
aS'Apoua Stewart'
p396
aS"Justin Va'a"
p397
aS'Lualua Vailoaloa'
p398
aS'Dan Leo'
p399
aS'Jamie Parkinson'
p400
aS'Faletoese Talapusi'
p401
aS'Notise Tauafao'
p402
aS'Paul Tupai'
p403
aS"Filisoa Fa'aiu"
p404
aS'Donald Kerslake'
p405
aS'Muliufi Salanoa'
p406
aS'Iosefa Taina'
p407
aS'Andy Tuilagi'
p408
aS'Daniel Farani'
p409
aS'Pelu Taele-Pavihi'
p410
aS'Garrick Cowley'
p411
aS"Jonny Fa'amatuainu"
p412
aS'Eliota Fuimaono-Sapolu'
p413
aS'Aukuso Collins'
p414
aS'Kiri Mariner'
p415
aS'Timoteo Iosua'
p416
aS'Seilala Mapusua'
p417
aS'Philemon Toleafoa'
p418
aS'Alafoti Faosiliva'
p419
aS'Doug Sanft'
p420
aS'Chad Slade'
p421
aS'Loki Crichton'
p422
aS'Alapasa Cortz'
p423
aS'Filipo Levi'
p424
aS'Justin Purdie'
p425
aS'Kane Thompson'
p426
aS'Gavin Williams'
p427
aS"Tauvaga Fa'afou"
p428
aS"Na'ama Leleimalefaga"
p429
aS'Junior Poluleuligaga'
p430
aS'Joe Tekori'
p431
aS'Jerry Meafou'
p432
aS'Silao Vaisola Sefo'
p433
aS"Henry Fa'afili"
p434
aS'Esera Lauina'
p435
aS'Samisoni Moala'
p436
aS'Ray Stowers'
p437
aS'Evile Telea'
p438
aS'Paletuatoa Toelupe'
p439
aS'Gasolo Salima'
p440
aS'Bell Sasalu'
p441
aS'Hiro Tea'
p442
aS'James Johnston'
p443
aS'Uale Mai'
p444
aS'Egelani Fale'
p445
aS'Ati Olive'
p446
aS'Rupeni Levasa'
p447
aS'Alatasi Tupou'
p448
aS'Lafoga Aoelua'
p449
aS'Maselino Paulino'
p450
aS'Roysiu Tolufale'
p451
aS'Will Brame'
p452
aS'Ernest Skelton'
p453
aS'Ofisa Treviranus'
p454
aS'Andrew Williams'
p455
aS'Ki Anufe'
p456
aS'Misioka Timoteo'
p457
aS'Titi Junior Esau'
p458
aS'Mikaela Pesamino'
p459
aS'Afa Aiono'
p460
aS'Nifo Nifo'
p461
aS'Pesamino Alauni'
p462
aS'Meki Magele'
p463
aS"Logovi'i Mulipola"
p464
aS'Zak Taulafo'
p465
aS'Lucky Mulipola'
p466
aS'Jeremiah Fatialofa'
p467
aS'Semiperive Semeane'
p468
aS'Jamie Helleur'
p469
aS'Anthony Perenise'
p470
aS'George Pisi'
p471
aS'Falemiga Selesele'
p472
aS'Paul Williams'
p473
aS'James Afoa'
p474
aS'Tua Otto'
p475
aS'Manu Salavea'
p476
aS'Uarotafou Setu'
p477
aS'Josh Keil'
p478
aS"Kahn Fotuali'i"
p479
aS'Richard Muagututia'
p480
a.