(lp1
S'http://www.espnscrum.com/other/rugby/player/94313.html'
p2
aS'http://www.espnscrum.com/other/rugby/player/94314.html'
p3
aS'http://www.espnscrum.com/other/rugby/player/94315.html'
p4
aS'http://www.espnscrum.com/other/rugby/player/94316.html'
p5
aS'http://www.espnscrum.com/other/rugby/player/2529.html'
p6
aS'http://www.espnscrum.com/other/rugby/player/94317.html'
p7
aS'http://www.espnscrum.com/other/rugby/player/94318.html'
p8
aS'http://www.espnscrum.com/other/rugby/player/94319.html'
p9
aS'http://www.espnscrum.com/other/rugby/player/94320.html'
p10
aS'http://www.espnscrum.com/other/rugby/player/94321.html'
p11
aS'http://www.espnscrum.com/other/rugby/player/94322.html'
p12
aS'http://www.espnscrum.com/other/rugby/player/94323.html'
p13
aS'http://www.espnscrum.com/other/rugby/player/94324.html'
p14
aS'http://www.espnscrum.com/other/rugby/player/94325.html'
p15
aS'http://www.espnscrum.com/other/rugby/player/94326.html'
p16
aS'http://www.espnscrum.com/other/rugby/player/94350.html'
p17
aS'http://www.espnscrum.com/other/rugby/player/94351.html'
p18
aS'http://www.espnscrum.com/other/rugby/player/94383.html'
p19
aS'http://www.espnscrum.com/other/rugby/player/94384.html'
p20
aS'http://www.espnscrum.com/other/rugby/player/94385.html'
p21
aS'http://www.espnscrum.com/other/rugby/player/94386.html'
p22
aS'http://www.espnscrum.com/other/rugby/player/94387.html'
p23
aS'http://www.espnscrum.com/other/rugby/player/94388.html'
p24
aS'http://www.espnscrum.com/other/rugby/player/94389.html'
p25
aS'http://www.espnscrum.com/other/rugby/player/94390.html'
p26
aS'http://www.espnscrum.com/other/rugby/player/94391.html'
p27
aS'http://www.espnscrum.com/other/rugby/player/94392.html'
p28
aS'http://www.espnscrum.com/other/rugby/player/94393.html'
p29
aS'http://www.espnscrum.com/other/rugby/player/94394.html'
p30
aS'http://www.espnscrum.com/other/rugby/player/94395.html'
p31
aS'http://www.espnscrum.com/other/rugby/player/94396.html'
p32
aS'http://www.espnscrum.com/other/rugby/player/94397.html'
p33
aS'http://www.espnscrum.com/other/rugby/player/94398.html'
p34
aS'http://www.espnscrum.com/other/rugby/player/94399.html'
p35
aS'http://www.espnscrum.com/other/rugby/player/94400.html'
p36
aS'http://www.espnscrum.com/other/rugby/player/94401.html'
p37
aS'http://www.espnscrum.com/other/rugby/player/94402.html'
p38
aS'http://www.espnscrum.com/other/rugby/player/94403.html'
p39
aS'http://www.espnscrum.com/other/rugby/player/94404.html'
p40
aS'http://www.espnscrum.com/other/rugby/player/94405.html'
p41
aS'http://www.espnscrum.com/other/rugby/player/94406.html'
p42
aS'http://www.espnscrum.com/other/rugby/player/94434.html'
p43
aS'http://www.espnscrum.com/other/rugby/player/94435.html'
p44
aS'http://www.espnscrum.com/other/rugby/player/94436.html'
p45
aS'http://www.espnscrum.com/other/rugby/player/94437.html'
p46
aS'http://www.espnscrum.com/other/rugby/player/94438.html'
p47
aS'http://www.espnscrum.com/other/rugby/player/94439.html'
p48
aS'http://www.espnscrum.com/other/rugby/player/94440.html'
p49
aS'http://www.espnscrum.com/other/rugby/player/94441.html'
p50
aS'http://www.espnscrum.com/other/rugby/player/94442.html'
p51
aS'http://www.espnscrum.com/other/rugby/player/94443.html'
p52
aS'http://www.espnscrum.com/other/rugby/player/94444.html'
p53
aS'http://www.espnscrum.com/other/rugby/player/94445.html'
p54
aS'http://www.espnscrum.com/other/rugby/player/94446.html'
p55
aS'http://www.espnscrum.com/other/rugby/player/94447.html'
p56
aS'http://www.espnscrum.com/other/rugby/player/94465.html'
p57
aS'http://www.espnscrum.com/other/rugby/player/94466.html'
p58
aS'http://www.espnscrum.com/other/rugby/player/94467.html'
p59
aS'http://www.espnscrum.com/other/rugby/player/94468.html'
p60
aS'http://www.espnscrum.com/other/rugby/player/94469.html'
p61
aS'http://www.espnscrum.com/other/rugby/player/94470.html'
p62
aS'http://www.espnscrum.com/other/rugby/player/94471.html'
p63
aS'http://www.espnscrum.com/other/rugby/player/94472.html'
p64
aS'http://www.espnscrum.com/other/rugby/player/94473.html'
p65
aS'http://www.espnscrum.com/other/rugby/player/94474.html'
p66
aS'http://www.espnscrum.com/other/rugby/player/94475.html'
p67
aS'http://www.espnscrum.com/other/rugby/player/94476.html'
p68
aS'http://www.espnscrum.com/other/rugby/player/94477.html'
p69
aS'http://www.espnscrum.com/other/rugby/player/94478.html'
p70
aS'http://www.espnscrum.com/other/rugby/player/94479.html'
p71
aS'http://www.espnscrum.com/other/rugby/player/94480.html'
p72
aS'http://www.espnscrum.com/other/rugby/player/94481.html'
p73
aS'http://www.espnscrum.com/other/rugby/player/94482.html'
p74
aS'http://www.espnscrum.com/other/rugby/player/94483.html'
p75
aS'http://www.espnscrum.com/other/rugby/player/94484.html'
p76
aS'http://www.espnscrum.com/other/rugby/player/94485.html'
p77
aS'http://www.espnscrum.com/other/rugby/player/94486.html'
p78
aS'http://www.espnscrum.com/other/rugby/player/94487.html'
p79
aS'http://www.espnscrum.com/other/rugby/player/94488.html'
p80
aS'http://www.espnscrum.com/other/rugby/player/94489.html'
p81
aS'http://www.espnscrum.com/other/rugby/player/94490.html'
p82
aS'http://www.espnscrum.com/other/rugby/player/94491.html'
p83
aS'http://www.espnscrum.com/other/rugby/player/94492.html'
p84
aS'http://www.espnscrum.com/other/rugby/player/94493.html'
p85
aS'http://www.espnscrum.com/other/rugby/player/94494.html'
p86
aS'http://www.espnscrum.com/other/rugby/player/94495.html'
p87
aS'http://www.espnscrum.com/other/rugby/player/94496.html'
p88
aS'http://www.espnscrum.com/other/rugby/player/94497.html'
p89
aS'http://www.espnscrum.com/other/rugby/player/94498.html'
p90
aS'http://www.espnscrum.com/other/rugby/player/94499.html'
p91
aS'http://www.espnscrum.com/other/rugby/player/94500.html'
p92
aS'http://www.espnscrum.com/other/rugby/player/94501.html'
p93
aS'http://www.espnscrum.com/other/rugby/player/94502.html'
p94
aS'http://www.espnscrum.com/other/rugby/player/94503.html'
p95
aS'http://www.espnscrum.com/other/rugby/player/94504.html'
p96
aS'http://www.espnscrum.com/other/rugby/player/94531.html'
p97
aS'http://www.espnscrum.com/other/rugby/player/94532.html'
p98
aS'http://www.espnscrum.com/other/rugby/player/94533.html'
p99
aS'http://www.espnscrum.com/other/rugby/player/94534.html'
p100
aS'http://www.espnscrum.com/other/rugby/player/94535.html'
p101
aS'http://www.espnscrum.com/other/rugby/player/94536.html'
p102
aS'http://www.espnscrum.com/other/rugby/player/94537.html'
p103
aS'http://www.espnscrum.com/other/rugby/player/94538.html'
p104
aS'http://www.espnscrum.com/other/rugby/player/94539.html'
p105
aS'http://www.espnscrum.com/other/rugby/player/94540.html'
p106
aS'http://www.espnscrum.com/other/rugby/player/94541.html'
p107
aS'http://www.espnscrum.com/other/rugby/player/94542.html'
p108
aS'http://www.espnscrum.com/other/rugby/player/94543.html'
p109
aS'http://www.espnscrum.com/other/rugby/player/94544.html'
p110
aS'http://www.espnscrum.com/other/rugby/player/94545.html'
p111
aS'http://www.espnscrum.com/other/rugby/player/94550.html'
p112
aS'http://www.espnscrum.com/other/rugby/player/94549.html'
p113
aS'http://www.espnscrum.com/other/rugby/player/94551.html'
p114
aS'http://www.espnscrum.com/other/rugby/player/94552.html'
p115
aS'http://www.espnscrum.com/other/rugby/player/94588.html'
p116
aS'http://www.espnscrum.com/other/rugby/player/94589.html'
p117
aS'http://www.espnscrum.com/other/rugby/player/94590.html'
p118
aS'http://www.espnscrum.com/other/rugby/player/94591.html'
p119
aS'http://www.espnscrum.com/other/rugby/player/94592.html'
p120
aS'http://www.espnscrum.com/other/rugby/player/94593.html'
p121
aS'http://www.espnscrum.com/other/rugby/player/94594.html'
p122
aS'http://www.espnscrum.com/other/rugby/player/94595.html'
p123
aS'http://www.espnscrum.com/other/rugby/player/94596.html'
p124
aS'http://www.espnscrum.com/other/rugby/player/94597.html'
p125
aS'http://www.espnscrum.com/other/rugby/player/94598.html'
p126
aS'http://www.espnscrum.com/other/rugby/player/94599.html'
p127
aS'http://www.espnscrum.com/other/rugby/player/94600.html'
p128
aS'http://www.espnscrum.com/other/rugby/player/94601.html'
p129
aS'http://www.espnscrum.com/other/rugby/player/94602.html'
p130
aS'http://www.espnscrum.com/other/rugby/player/94625.html'
p131
aS'http://www.espnscrum.com/other/rugby/player/94626.html'
p132
aS'http://www.espnscrum.com/other/rugby/player/94627.html'
p133
aS'http://www.espnscrum.com/other/rugby/player/94628.html'
p134
aS'http://www.espnscrum.com/other/rugby/player/94629.html'
p135
aS'http://www.espnscrum.com/other/rugby/player/94630.html'
p136
aS'http://www.espnscrum.com/other/rugby/player/94631.html'
p137
aS'http://www.espnscrum.com/other/rugby/player/94632.html'
p138
aS'http://www.espnscrum.com/other/rugby/player/94633.html'
p139
aS'http://www.espnscrum.com/other/rugby/player/94634.html'
p140
aS'http://www.espnscrum.com/other/rugby/player/94635.html'
p141
aS'http://www.espnscrum.com/other/rugby/player/94636.html'
p142
aS'http://www.espnscrum.com/other/rugby/player/94662.html'
p143
aS'http://www.espnscrum.com/other/rugby/player/94663.html'
p144
aS'http://www.espnscrum.com/other/rugby/player/94664.html'
p145
aS'http://www.espnscrum.com/other/rugby/player/94665.html'
p146
aS'http://www.espnscrum.com/other/rugby/player/94667.html'
p147
aS'http://www.espnscrum.com/other/rugby/player/9348.html'
p148
aS'http://www.espnscrum.com/other/rugby/player/10076.html'
p149
aS'http://www.espnscrum.com/other/rugby/player/94669.html'
p150
aS'http://www.espnscrum.com/other/rugby/player/94671.html'
p151
aS'http://www.espnscrum.com/other/rugby/player/16095.html'
p152
aS'http://www.espnscrum.com/other/rugby/player/94672.html'
p153
aS'http://www.espnscrum.com/other/rugby/player/94673.html'
p154
aS'http://www.espnscrum.com/other/rugby/player/94674.html'
p155
aS'http://www.espnscrum.com/other/rugby/player/94677.html'
p156
aS'http://www.espnscrum.com/other/rugby/player/94679.html'
p157
aS'http://www.espnscrum.com/other/rugby/player/94681.html'
p158
aS'http://www.espnscrum.com/other/rugby/player/94682.html'
p159
aS'http://www.espnscrum.com/other/rugby/player/94680.html'
p160
aS'http://www.espnscrum.com/other/rugby/player/94687.html'
p161
aS'http://www.espnscrum.com/other/rugby/player/94688.html'
p162
aS'http://www.espnscrum.com/other/rugby/player/94689.html'
p163
aS'http://www.espnscrum.com/other/rugby/player/94690.html'
p164
aS'http://www.espnscrum.com/other/rugby/player/94691.html'
p165
aS'http://www.espnscrum.com/other/rugby/player/94692.html'
p166
aS'http://www.espnscrum.com/other/rugby/player/94693.html'
p167
aS'http://www.espnscrum.com/other/rugby/player/94694.html'
p168
aS'http://www.espnscrum.com/other/rugby/player/94695.html'
p169
aS'http://www.espnscrum.com/other/rugby/player/10079.html'
p170
aS'http://www.espnscrum.com/other/rugby/player/94696.html'
p171
aS'http://www.espnscrum.com/other/rugby/player/94697.html'
p172
aS'http://www.espnscrum.com/other/rugby/player/94706.html'
p173
aS'http://www.espnscrum.com/other/rugby/player/94707.html'
p174
aS'http://www.espnscrum.com/other/rugby/player/94708.html'
p175
aS'http://www.espnscrum.com/other/rugby/player/94710.html'
p176
aS'http://www.espnscrum.com/other/rugby/player/10506.html'
p177
aS'http://www.espnscrum.com/other/rugby/player/94709.html'
p178
aS'http://www.espnscrum.com/other/rugby/player/94711.html'
p179
aS'http://www.espnscrum.com/other/rugby/player/94715.html'
p180
aS'http://www.espnscrum.com/other/rugby/player/10078.html'
p181
aS'http://www.espnscrum.com/other/rugby/player/94721.html'
p182
aS'http://www.espnscrum.com/other/rugby/player/10070.html'
p183
aS'http://www.espnscrum.com/other/rugby/player/94718.html'
p184
aS'http://www.espnscrum.com/other/rugby/player/10466.html'
p185
aS'http://www.espnscrum.com/other/rugby/player/10071.html'
p186
aS'http://www.espnscrum.com/other/rugby/player/10074.html'
p187
aS'http://www.espnscrum.com/other/rugby/player/94736.html'
p188
aS'http://www.espnscrum.com/other/rugby/player/94737.html'
p189
aS'http://www.espnscrum.com/other/rugby/player/94738.html'
p190
aS'http://www.espnscrum.com/other/rugby/player/10073.html'
p191
aS'http://www.espnscrum.com/other/rugby/player/94745.html'
p192
aS'http://www.espnscrum.com/other/rugby/player/94746.html'
p193
aS'http://www.espnscrum.com/other/rugby/player/94747.html'
p194
aS'http://www.espnscrum.com/other/rugby/player/94750.html'
p195
aS'http://www.espnscrum.com/other/rugby/player/94751.html'
p196
aS'http://www.espnscrum.com/other/rugby/player/94753.html'
p197
aS'http://www.espnscrum.com/other/rugby/player/94754.html'
p198
aS'http://www.espnscrum.com/other/rugby/player/94755.html'
p199
aS'http://www.espnscrum.com/other/rugby/player/10080.html'
p200
aS'http://www.espnscrum.com/other/rugby/player/10081.html'
p201
aS'http://www.espnscrum.com/other/rugby/player/94756.html'
p202
aS'http://www.espnscrum.com/other/rugby/player/94752.html'
p203
aS'http://www.espnscrum.com/other/rugby/player/94761.html'
p204
aS'http://www.espnscrum.com/other/rugby/player/94762.html'
p205
aS'http://www.espnscrum.com/other/rugby/player/94763.html'
p206
aS'http://www.espnscrum.com/other/rugby/player/10068.html'
p207
aS'http://www.espnscrum.com/other/rugby/player/10069.html'
p208
aS'http://www.espnscrum.com/other/rugby/player/10072.html'
p209
aS'http://www.espnscrum.com/other/rugby/player/10075.html'
p210
aS'http://www.espnscrum.com/other/rugby/player/10077.html'
p211
aS'http://www.espnscrum.com/other/rugby/player/10082.html'
p212
aS'http://www.espnscrum.com/other/rugby/player/94769.html'
p213
aS'http://www.espnscrum.com/other/rugby/player/94770.html'
p214
aS'http://www.espnscrum.com/other/rugby/player/94771.html'
p215
aS'http://www.espnscrum.com/other/rugby/player/94772.html'
p216
aS'http://www.espnscrum.com/other/rugby/player/10465.html'
p217
aS'http://www.espnscrum.com/other/rugby/player/10502.html'
p218
aS'http://www.espnscrum.com/other/rugby/player/10714.html'
p219
aS'http://www.espnscrum.com/other/rugby/player/10750.html'
p220
aS'http://www.espnscrum.com/other/rugby/player/11001.html'
p221
aS'http://www.espnscrum.com/other/rugby/player/94735.html'
p222
aS'http://www.espnscrum.com/other/rugby/player/94780.html'
p223
aS'http://www.espnscrum.com/other/rugby/player/94775.html'
p224
aS'http://www.espnscrum.com/other/rugby/player/10476.html'
p225
aS'http://www.espnscrum.com/other/rugby/player/94778.html'
p226
aS'http://www.espnscrum.com/other/rugby/player/10746.html'
p227
aS'http://www.espnscrum.com/other/rugby/player/10470.html'
p228
aS'http://www.espnscrum.com/other/rugby/player/94789.html'
p229
aS'http://www.espnscrum.com/other/rugby/player/10475.html'
p230
aS'http://www.espnscrum.com/other/rugby/player/10477.html'
p231
aS'http://www.espnscrum.com/other/rugby/player/94787.html'
p232
aS'http://www.espnscrum.com/other/rugby/player/10478.html'
p233
aS'http://www.espnscrum.com/other/rugby/player/10473.html'
p234
aS'http://www.espnscrum.com/other/rugby/player/94786.html'
p235
aS'http://www.espnscrum.com/other/rugby/player/11075.html'
p236
aS'http://www.espnscrum.com/other/rugby/player/10469.html'
p237
aS'http://www.espnscrum.com/other/rugby/player/10471.html'
p238
aS'http://www.espnscrum.com/other/rugby/player/10479.html'
p239
aS'http://www.espnscrum.com/other/rugby/player/10480.html'
p240
aS'http://www.espnscrum.com/other/rugby/player/10467.html'
p241
aS'http://www.espnscrum.com/other/rugby/player/10501.html'
p242
aS'http://www.espnscrum.com/other/rugby/player/10503.html'
p243
aS'http://www.espnscrum.com/other/rugby/player/94795.html'
p244
aS'http://www.espnscrum.com/other/rugby/player/10759.html'
p245
aS'http://www.espnscrum.com/other/rugby/player/94796.html'
p246
aS'http://www.espnscrum.com/other/rugby/player/94801.html'
p247
aS'http://www.espnscrum.com/other/rugby/player/94802.html'
p248
aS'http://www.espnscrum.com/other/rugby/player/94803.html'
p249
aS'http://www.espnscrum.com/other/rugby/player/94804.html'
p250
aS'http://www.espnscrum.com/other/rugby/player/94805.html'
p251
aS'http://www.espnscrum.com/other/rugby/player/10766.html'
p252
aS'http://www.espnscrum.com/other/rugby/player/10742.html'
p253
aS'http://www.espnscrum.com/other/rugby/player/10749.html'
p254
aS'http://www.espnscrum.com/other/rugby/player/10757.html'
p255
aS'http://www.espnscrum.com/other/rugby/player/10760.html'
p256
aS'http://www.espnscrum.com/other/rugby/player/10769.html'
p257
aS'http://www.espnscrum.com/other/rugby/player/10782.html'
p258
aS'http://www.espnscrum.com/other/rugby/player/94821.html'
p259
aS'http://www.espnscrum.com/other/rugby/player/10994.html'
p260
aS'http://www.espnscrum.com/other/rugby/player/10995.html'
p261
aS'http://www.espnscrum.com/other/rugby/player/10996.html'
p262
aS'http://www.espnscrum.com/other/rugby/player/10781.html'
p263
aS'http://www.espnscrum.com/other/rugby/player/11509.html'
p264
aS'http://www.espnscrum.com/other/rugby/player/10992.html'
p265
aS'http://www.espnscrum.com/other/rugby/player/10999.html'
p266
aS'http://www.espnscrum.com/other/rugby/player/11002.html'
p267
aS'http://www.espnscrum.com/other/rugby/player/11003.html'
p268
aS'http://www.espnscrum.com/other/rugby/player/11006.html'
p269
aS'http://www.espnscrum.com/other/rugby/player/11077.html'
p270
aS'http://www.espnscrum.com/other/rugby/player/11079.html'
p271
aS'http://www.espnscrum.com/other/rugby/player/11084.html'
p272
aS'http://www.espnscrum.com/other/rugby/player/11085.html'
p273
aS'http://www.espnscrum.com/other/rugby/player/11224.html'
p274
aS'http://www.espnscrum.com/other/rugby/player/11232.html'
p275
aS'http://www.espnscrum.com/other/rugby/player/11237.html'
p276
aS'http://www.espnscrum.com/other/rugby/player/11236.html'
p277
aS'http://www.espnscrum.com/other/rugby/player/11497.html'
p278
aS'http://www.espnscrum.com/other/rugby/player/11499.html'
p279
aS'http://www.espnscrum.com/other/rugby/player/11500.html'
p280
aS'http://www.espnscrum.com/other/rugby/player/11096.html'
p281
aS'http://www.espnscrum.com/other/rugby/player/11779.html'
p282
aS'http://www.espnscrum.com/other/rugby/player/11088.html'
p283
aS'http://www.espnscrum.com/other/rugby/player/11295.html'
p284
aS'http://www.espnscrum.com/other/rugby/player/11786.html'
p285
aS'http://www.espnscrum.com/other/rugby/player/11848.html'
p286
aS'http://www.espnscrum.com/other/rugby/player/11849.html'
p287
aS'http://www.espnscrum.com/other/rugby/player/11847.html'
p288
aS'http://www.espnscrum.com/other/rugby/player/11990.html'
p289
aS'http://www.espnscrum.com/other/rugby/player/11991.html'
p290
aS'http://www.espnscrum.com/other/rugby/player/11992.html'
p291
aS'http://www.espnscrum.com/other/rugby/player/11993.html'
p292
aS'http://www.espnscrum.com/other/rugby/player/11996.html'
p293
aS'http://www.espnscrum.com/other/rugby/player/11995.html'
p294
aS'http://www.espnscrum.com/other/rugby/player/12037.html'
p295
aS'http://www.espnscrum.com/other/rugby/player/12133.html'
p296
aS'http://www.espnscrum.com/other/rugby/player/12137.html'
p297
aS'http://www.espnscrum.com/other/rugby/player/12142.html'
p298
aS'http://www.espnscrum.com/other/rugby/player/12140.html'
p299
aS'http://www.espnscrum.com/other/rugby/player/12252.html'
p300
aS'http://www.espnscrum.com/other/rugby/player/12298.html'
p301
aS'http://www.espnscrum.com/other/rugby/player/12299.html'
p302
aS'http://www.espnscrum.com/other/rugby/player/12297.html'
p303
aS'http://www.espnscrum.com/other/rugby/player/247191.html'
p304
aS'http://www.espnscrum.com/other/rugby/player/12388.html'
p305
aS'http://www.espnscrum.com/other/rugby/player/12392.html'
p306
aS'http://www.espnscrum.com/other/rugby/player/10928.html'
p307
aS'http://www.espnscrum.com/other/rugby/player/12394.html'
p308
aS'http://www.espnscrum.com/other/rugby/player/12535.html'
p309
aS'http://www.espnscrum.com/other/rugby/player/12593.html'
p310
aS'http://www.espnscrum.com/other/rugby/player/12543.html'
p311
aS'http://www.espnscrum.com/other/rugby/player/12611.html'
p312
aS'http://www.espnscrum.com/other/rugby/player/12548.html'
p313
aS'http://www.espnscrum.com/other/rugby/player/12982.html'
p314
aS'http://www.espnscrum.com/other/rugby/player/12974.html'
p315
aS'http://www.espnscrum.com/other/rugby/player/12980.html'
p316
aS'http://www.espnscrum.com/other/rugby/player/12981.html'
p317
aS'http://www.espnscrum.com/other/rugby/player/12983.html'
p318
aS'http://www.espnscrum.com/other/rugby/player/12986.html'
p319
aS'http://www.espnscrum.com/other/rugby/player/12987.html'
p320
aS'http://www.espnscrum.com/other/rugby/player/12997.html'
p321
aS'http://www.espnscrum.com/other/rugby/player/12996.html'
p322
aS'http://www.espnscrum.com/other/rugby/player/12988.html'
p323
aS'http://www.espnscrum.com/other/rugby/player/13147.html'
p324
aS'http://www.espnscrum.com/other/rugby/player/11515.html'
p325
aS'http://www.espnscrum.com/other/rugby/player/13145.html'
p326
aS'http://www.espnscrum.com/other/rugby/player/13149.html'
p327
aS'http://www.espnscrum.com/other/rugby/player/13150.html'
p328
aS'http://www.espnscrum.com/other/rugby/player/13152.html'
p329
aS'http://www.espnscrum.com/other/rugby/player/13153.html'
p330
aS'http://www.espnscrum.com/other/rugby/player/10291.html'
p331
aS'http://www.espnscrum.com/other/rugby/player/13146.html'
p332
aS'http://www.espnscrum.com/other/rugby/player/13267.html'
p333
aS'http://www.espnscrum.com/other/rugby/player/13414.html'
p334
aS'http://www.espnscrum.com/other/rugby/player/13416.html'
p335
aS'http://www.espnscrum.com/other/rugby/player/13418.html'
p336
aS'http://www.espnscrum.com/other/rugby/player/13424.html'
p337
aS'http://www.espnscrum.com/other/rugby/player/13419.html'
p338
aS'http://www.espnscrum.com/other/rugby/player/13425.html'
p339
aS'http://www.espnscrum.com/other/rugby/player/13427.html'
p340
aS'http://www.espnscrum.com/other/rugby/player/13422.html'
p341
aS'http://www.espnscrum.com/other/rugby/player/13421.html'
p342
aS'http://www.espnscrum.com/other/rugby/player/13529.html'
p343
aS'http://www.espnscrum.com/other/rugby/player/13519.html'
p344
aS'http://www.espnscrum.com/other/rugby/player/13521.html'
p345
aS'http://www.espnscrum.com/other/rugby/player/13524.html'
p346
aS'http://www.espnscrum.com/other/rugby/player/13525.html'
p347
aS'http://www.espnscrum.com/other/rugby/player/13533.html'
p348
aS'http://www.espnscrum.com/other/rugby/player/13534.html'
p349
aS'http://www.espnscrum.com/other/rugby/player/13520.html'
p350
aS'http://www.espnscrum.com/other/rugby/player/13522.html'
p351
aS'http://www.espnscrum.com/other/rugby/player/13526.html'
p352
aS'http://www.espnscrum.com/other/rugby/player/13528.html'
p353
aS'http://www.espnscrum.com/other/rugby/player/13531.html'
p354
aS'http://www.espnscrum.com/other/rugby/player/13532.html'
p355
aS'http://www.espnscrum.com/other/rugby/player/13553.html'
p356
aS'http://www.espnscrum.com/other/rugby/player/13548.html'
p357
aS'http://www.espnscrum.com/other/rugby/player/13647.html'
p358
aS'http://www.espnscrum.com/other/rugby/player/13657.html'
p359
aS'http://www.espnscrum.com/other/rugby/player/13658.html'
p360
aS'http://www.espnscrum.com/other/rugby/player/13718.html'
p361
aS'http://www.espnscrum.com/other/rugby/player/13772.html'
p362
aS'http://www.espnscrum.com/other/rugby/player/13773.html'
p363
aS'http://www.espnscrum.com/other/rugby/player/13774.html'
p364
aS'http://www.espnscrum.com/other/rugby/player/13775.html'
p365
aS'http://www.espnscrum.com/other/rugby/player/13776.html'
p366
aS'http://www.espnscrum.com/other/rugby/player/13777.html'
p367
aS'http://www.espnscrum.com/other/rugby/player/13771.html'
p368
aS'http://www.espnscrum.com/other/rugby/player/13934.html'
p369
aS'http://www.espnscrum.com/other/rugby/player/13939.html'
p370
aS'http://www.espnscrum.com/other/rugby/player/117561.html'
p371
aS'http://www.espnscrum.com/other/rugby/player/14013.html'
p372
aS'http://www.espnscrum.com/other/rugby/player/14016.html'
p373
aS'http://www.espnscrum.com/other/rugby/player/14247.html'
p374
aS'http://www.espnscrum.com/other/rugby/player/13932.html'
p375
aS'http://www.espnscrum.com/other/rugby/player/14251.html'
p376
aS'http://www.espnscrum.com/other/rugby/player/14246.html'
p377
aS'http://www.espnscrum.com/other/rugby/player/14252.html'
p378
aS'http://www.espnscrum.com/other/rugby/player/14248.html'
p379
aS'http://www.espnscrum.com/other/rugby/player/14289.html'
p380
aS'http://www.espnscrum.com/other/rugby/player/14288.html'
p381
aS'http://www.espnscrum.com/other/rugby/player/14348.html'
p382
aS'http://www.espnscrum.com/other/rugby/player/14347.html'
p383
aS'http://www.espnscrum.com/other/rugby/player/14363.html'
p384
aS'http://www.espnscrum.com/other/rugby/player/14494.html'
p385
aS'http://www.espnscrum.com/other/rugby/player/14498.html'
p386
aS'http://www.espnscrum.com/other/rugby/player/14500.html'
p387
aS'http://www.espnscrum.com/other/rugby/player/14534.html'
p388
aS'http://www.espnscrum.com/other/rugby/player/13821.html'
p389
aS'http://www.espnscrum.com/other/rugby/player/14497.html'
p390
aS'http://www.espnscrum.com/other/rugby/player/14499.html'
p391
aS'http://www.espnscrum.com/other/rugby/player/14549.html'
p392
aS'http://www.espnscrum.com/other/rugby/player/14495.html'
p393
aS'http://www.espnscrum.com/other/rugby/player/14496.html'
p394
aS'http://www.espnscrum.com/other/rugby/player/14883.html'
p395
aS'http://www.espnscrum.com/other/rugby/player/14895.html'
p396
aS'http://www.espnscrum.com/other/rugby/player/14899.html'
p397
aS'http://www.espnscrum.com/other/rugby/player/14900.html'
p398
aS'http://www.espnscrum.com/other/rugby/player/14885.html'
p399
aS'http://www.espnscrum.com/other/rugby/player/14890.html'
p400
aS'http://www.espnscrum.com/other/rugby/player/14896.html'
p401
aS'http://www.espnscrum.com/other/rugby/player/14897.html'
p402
aS'http://www.espnscrum.com/other/rugby/player/14898.html'
p403
aS'http://www.espnscrum.com/other/rugby/player/14977.html'
p404
aS'http://www.espnscrum.com/other/rugby/player/14982.html'
p405
aS'http://www.espnscrum.com/other/rugby/player/14986.html'
p406
aS'http://www.espnscrum.com/other/rugby/player/14988.html'
p407
aS'http://www.espnscrum.com/other/rugby/player/14990.html'
p408
aS'http://www.espnscrum.com/other/rugby/player/14979.html'
p409
aS'http://www.espnscrum.com/other/rugby/player/14987.html'
p410
aS'http://www.espnscrum.com/other/rugby/player/15086.html'
p411
aS'http://www.espnscrum.com/other/rugby/player/15087.html'
p412
aS'http://www.espnscrum.com/other/rugby/player/15088.html'
p413
aS'http://www.espnscrum.com/other/rugby/player/15085.html'
p414
aS'http://www.espnscrum.com/other/rugby/player/15100.html'
p415
aS'http://www.espnscrum.com/other/rugby/player/15251.html'
p416
aS'http://www.espnscrum.com/other/rugby/player/14581.html'
p417
aS'http://www.espnscrum.com/other/rugby/player/15257.html'
p418
aS'http://www.espnscrum.com/other/rugby/player/15305.html'
p419
aS'http://www.espnscrum.com/other/rugby/player/15255.html'
p420
aS'http://www.espnscrum.com/other/rugby/player/15311.html'
p421
aS'http://www.espnscrum.com/other/rugby/player/15326.html'
p422
aS'http://www.espnscrum.com/other/rugby/player/15548.html'
p423
aS'http://www.espnscrum.com/other/rugby/player/14595.html'
p424
aS'http://www.espnscrum.com/other/rugby/player/15568.html'
p425
aS'http://www.espnscrum.com/other/rugby/player/15574.html'
p426
aS'http://www.espnscrum.com/other/rugby/player/15576.html'
p427
aS'http://www.espnscrum.com/other/rugby/player/15550.html'
p428
aS'http://www.espnscrum.com/other/rugby/player/15560.html'
p429
aS'http://www.espnscrum.com/other/rugby/player/15419.html'
p430
aS'http://www.espnscrum.com/other/rugby/player/15626.html'
p431
aS'http://www.espnscrum.com/other/rugby/player/15727.html'
p432
aS'http://www.espnscrum.com/other/rugby/player/15754.html'
p433
aS'http://www.espnscrum.com/other/rugby/player/15900.html'
p434
aS'http://www.espnscrum.com/other/rugby/player/15909.html'
p435
aS'http://www.espnscrum.com/other/rugby/player/15914.html'
p436
aS'http://www.espnscrum.com/other/rugby/player/15932.html'
p437
aS'http://www.espnscrum.com/other/rugby/player/15935.html'
p438
aS'http://www.espnscrum.com/other/rugby/player/15938.html'
p439
aS'http://www.espnscrum.com/other/rugby/player/15332.html'
p440
aS'http://www.espnscrum.com/other/rugby/player/15926.html'
p441
aS'http://www.espnscrum.com/other/rugby/player/15933.html'
p442
aS'http://www.espnscrum.com/other/rugby/player/16020.html'
p443
aS'http://www.espnscrum.com/other/rugby/player/16021.html'
p444
aS'http://www.espnscrum.com/other/rugby/player/16059.html'
p445
aS'http://www.espnscrum.com/other/rugby/player/16067.html'
p446
aS'http://www.espnscrum.com/other/rugby/player/16086.html'
p447
aS'http://www.espnscrum.com/other/rugby/player/16089.html'
p448
aS'http://www.espnscrum.com/other/rugby/player/16085.html'
p449
aS'http://www.espnscrum.com/other/rugby/player/16087.html'
p450
aS'http://www.espnscrum.com/other/rugby/player/16088.html'
p451
aS'http://www.espnscrum.com/other/rugby/player/98532.html'
p452
aS'http://www.espnscrum.com/other/rugby/player/98533.html'
p453
aS'http://www.espnscrum.com/other/rugby/player/101845.html'
p454
aS'http://www.espnscrum.com/other/rugby/player/98534.html'
p455
aS'http://www.espnscrum.com/other/rugby/player/98749.html'
p456
aS'http://www.espnscrum.com/other/rugby/player/98751.html'
p457
aS'http://www.espnscrum.com/other/rugby/player/102196.html'
p458
aS'http://www.espnscrum.com/other/rugby/player/102197.html'
p459
aS'http://www.espnscrum.com/other/rugby/player/102198.html'
p460
aS'http://www.espnscrum.com/other/rugby/player/102202.html'
p461
aS'http://www.espnscrum.com/other/rugby/player/102199.html'
p462
aS'http://www.espnscrum.com/other/rugby/player/102200.html'
p463
aS'http://www.espnscrum.com/other/rugby/player/102201.html'
p464
aS'http://www.espnscrum.com/other/rugby/player/100711.html'
p465
aS'http://www.espnscrum.com/other/rugby/player/106159.html'
p466
aS'http://www.espnscrum.com/other/rugby/player/106157.html'
p467
aS'http://www.espnscrum.com/other/rugby/player/106990.html'
p468
aS'http://www.espnscrum.com/other/rugby/player/91572.html'
p469
aS'http://www.espnscrum.com/other/rugby/player/92040.html'
p470
aS'http://www.espnscrum.com/other/rugby/player/102692.html'
p471
aS'http://www.espnscrum.com/other/rugby/player/117763.html'
p472
aS'http://www.espnscrum.com/other/rugby/player/117765.html'
p473
aS'http://www.espnscrum.com/other/rugby/player/117751.html'
p474
aS'http://www.espnscrum.com/other/rugby/player/117761.html'
p475
aS'http://www.espnscrum.com/other/rugby/player/117762.html'
p476
aS'http://www.espnscrum.com/other/rugby/player/117764.html'
p477
aS'http://www.espnscrum.com/other/rugby/player/13815.html'
p478
aS'http://www.espnscrum.com/other/rugby/player/91593.html'
p479
aS'http://www.espnscrum.com/other/rugby/player/126027.html'
p480
aS'http://www.espnscrum.com/other/rugby/player/84377.html'
p481
aS'http://www.espnscrum.com/other/rugby/player/91394.html'
p482
aS'http://www.espnscrum.com/other/rugby/player/126024.html'
p483
aS'http://www.espnscrum.com/other/rugby/player/126025.html'
p484
aS'http://www.espnscrum.com/other/rugby/player/91560.html'
p485
aS'http://www.espnscrum.com/other/rugby/player/110291.html'
p486
aS'http://www.espnscrum.com/other/rugby/player/15417.html'
p487
aS'http://www.espnscrum.com/other/rugby/player/142928.html'
p488
aS'http://www.espnscrum.com/other/rugby/player/93250.html'
p489
aS'http://www.espnscrum.com/other/rugby/player/142929.html'
p490
aS'http://www.espnscrum.com/other/rugby/player/142922.html'
p491
aS'http://www.espnscrum.com/other/rugby/player/91540.html'
p492
aS'http://www.espnscrum.com/other/rugby/player/120594.html'
p493
aS'http://www.espnscrum.com/other/rugby/player/27678.html'
p494
aS'http://www.espnscrum.com/other/rugby/player/143871.html'
p495
aS'http://www.espnscrum.com/other/rugby/player/149299.html'
p496
aS'http://www.espnscrum.com/other/rugby/player/165273.html'
p497
aS'http://www.espnscrum.com/other/rugby/player/165275.html'
p498
aS'http://www.espnscrum.com/other/rugby/player/129186.html'
p499
aS'http://www.espnscrum.com/other/rugby/player/165283.html'
p500
aS'http://www.espnscrum.com/other/rugby/player/165284.html'
p501
aS'http://www.espnscrum.com/other/rugby/player/165289.html'
p502
aS'http://www.espnscrum.com/other/rugby/player/165291.html'
p503
aS'http://www.espnscrum.com/other/rugby/player/165293.html'
p504
aS'http://www.espnscrum.com/other/rugby/player/126023.html'
p505
aS'http://www.espnscrum.com/other/rugby/player/165288.html'
p506
aS'http://www.espnscrum.com/other/rugby/player/172488.html'
p507
aS'http://www.espnscrum.com/other/rugby/player/165349.html'
p508
aS'http://www.espnscrum.com/other/rugby/player/89107.html'
p509
aS'http://www.espnscrum.com/other/rugby/player/172346.html'
p510
aS'http://www.espnscrum.com/other/rugby/player/165185.html'
p511
aS'http://www.espnscrum.com/other/rugby/player/120447.html'
p512
aS'http://www.espnscrum.com/other/rugby/player/112275.html'
p513
aS'http://www.espnscrum.com/other/rugby/player/122586.html'
p514
aS'http://www.espnscrum.com/other/rugby/player/91470.html'
p515
aS'http://www.espnscrum.com/other/rugby/player/121336.html'
p516
aS'http://www.espnscrum.com/other/rugby/player/91729.html'
p517
aS'http://www.espnscrum.com/other/rugby/player/186193.html'
p518
aS'http://www.espnscrum.com/other/rugby/player/227615.html'
p519
aS'http://www.espnscrum.com/other/rugby/player/227619.html'
p520
aS'http://www.espnscrum.com/other/rugby/player/165277.html'
p521
aS'http://www.espnscrum.com/other/rugby/player/227621.html'
p522
aS'http://www.espnscrum.com/other/rugby/player/227627.html'
p523
aS'http://www.espnscrum.com/other/rugby/player/227631.html'
p524
aS'http://www.espnscrum.com/other/rugby/player/227617.html'
p525
aS'http://www.espnscrum.com/other/rugby/player/227623.html'
p526
aS'http://www.espnscrum.com/other/rugby/player/227625.html'
p527
aS'http://www.espnscrum.com/other/rugby/player/227629.html'
p528
aS'http://www.espnscrum.com/other/rugby/player/246837.html'
p529
aS'http://www.espnscrum.com/other/rugby/player/247197.html'
p530
aS'http://www.espnscrum.com/other/rugby/player/92116.html'
p531
aS'http://www.espnscrum.com/other/rugby/player/247201.html'
p532
aS'http://www.espnscrum.com/other/rugby/player/215101.html'
p533
aS'http://www.espnscrum.com/other/rugby/player/120603.html'
p534
aS'http://www.espnscrum.com/other/rugby/player/247863.html'
p535
aS'http://www.espnscrum.com/other/rugby/player/120464.html'
p536
aS'http://www.espnscrum.com/other/rugby/player/110378.html'
p537
aS'http://www.espnscrum.com/other/rugby/player/268351.html'
p538
aS'http://www.espnscrum.com/other/rugby/player/269661.html'
p539
aS'http://www.espnscrum.com/other/rugby/player/122352.html'
p540
aS'http://www.espnscrum.com/other/rugby/player/270167.html'
p541
aS'http://www.espnscrum.com/other/rugby/player/270347.html'
p542
a.