(lp1
V
aV
aV
aV
aVFullback
p2
aV
aV
aV
aV
aV
aV
aV
aV
aV
aV
aV
aV
aV
aV
aV
aV
aV
aV
aV
aV
aV
aV
aV
aV
aV
aV
aV
aV
aV
aV
aV
aV
aV
aV
aV
aV
aV
aV
aV
aV
aV
aV
aV
aV
aV
aV
aV
aV
aV
aV
aV
aV
aV
aV
aV
aV
aV
aV
aV
aV
aV
aV
aV
aV
aV
aV
aV
aV
aV
aV
aV
aV
aV
aV
aV
aV
aV
aV
aV
aV
aV
aV
aV
aV
aV
aV
aV
aV
aV
aV
aV
aVWing
p3
aV
aV
aV
aV
aV
aV
aV
aV
aV
aV
aV
aV
aV
aV
aV
aV
aV
aV
aV
aV
aV
aV
aV
aV
aV
aV
aV
aV
aV
aV
aV
aV
aV
aV
aV
aV
aV
aV
aV
aV
aV
aV
aV
aV
aV
aV
aV
aV
aV
aVCentre
p4
aVCentre
p5
aV
aV
aV
aV
aV
aV
aV
aV
aV
aV
aVReplacement
p6
aV
aV
aV
aV
aV
aV
aV
aV
aV
aVProp
p7
aV
aV
aV
aV
aV
aV
aVFlanker
p8
aVReplacement
p9
aVReplacement
p10
aV
aVFlanker
p11
aV
aVScrum-half
p12
aV
aVFullback
p13
aVFly-half
p14
aVCentre
p15
aV
aV
aV
aVLock
p16
aV
aV
aV
aV
aV
aV
aV
aV
aVWing
p17
aVHooker
p18
aV
aVReplacement
p19
aV
aV
aV
aVFullback
p20
aVLock
p21
aVFlanker
p22
aVFlanker
p23
aVHooker
p24
aVCentre
p25
aV
aV
aV
aV
aVCentre
p26
aVFlanker
p27
aVLock
p28
aVProp
p29
aVFullback
p30
aVNo. 8
p31
aV
aV
aVFlanker
p32
aV
aVLock
p33
aVFlanker
p34
aV
aVFly-half
p35
aVCentre
p36
aV
aVWing
p37
aVFlanker
p38
aV
aVProp
p39
aVProp
p40
aVLock
p41
aVLock
p42
aVScrum-half
p43
aVFlanker
p44
aVCentre
p45
aVScrum-half
p46
aV
aVNo. 8
p47
aV
aVWing
p48
aV
aV
aV
aV
aVFlanker
p49
aVLock
p50
aVFlanker
p51
aVScrum-half
p52
aVWing
p53
aVProp
p54
aVLock
p55
aV
aVLock
p56
aVProp
p57
aVLock
p58
aV
aVBack-row
p59
aVFly-half
p60
aVWing
p61
aVNo. 8
p62
aVFlanker
p63
aVScrum-half
p64
aVLock
p65
aVCentre
p66
aVLock
p67
aVNo. 8
p68
aVFive-eighth
p69
aVWing, Centre
p70
aVWing, Centre
p71
aVScrum-half
p72
aVFly-half
p73
aVLock
p74
aVHooker
p75
aVProp
p76
aVProp
p77
aVScrum-half
p78
aVFlanker
p79
aVScrum-half
p80
aVFullback
p81
aVScrum-half
p82
aVBack-row
p83
aVWing
p84
aVWing
p85
aVProp
p86
aVFly-half
p87
aVCentre
p88
aVFly-half
p89
aVProp
p90
aVScrum-half
p91
aV
aVWing
p92
aVLock
p93
aVCentre
p94
aVFlanker
p95
aV
aVHooker
p96
aVCentre
p97
aVNo. 8
p98
aVWing
p99
aVCentre, Wing
p100
aVFly-half
p101
aVProp
p102
aVScrum-half
p103
aVCentre
p104
aVHooker
p105
aVFly-half
p106
aVLock
p107
aVProp
p108
aVProp
p109
aVLock, Flanker
p110
aVScrum-half
p111
aVFlanker
p112
aVLock
p113
aVWing
p114
aVLock
p115
aVHooker
p116
aVNo. 8
p117
aVWing
p118
aVWing, Centre
p119
aVProp
p120
aVFlanker
p121
aVCentre
p122
aVCentre, Wing
p123
aVCentre
p124
aVHooker
p125
aVProp
p126
aVLock
p127
aVWing
p128
aVProp
p129
aVCentre
p130
aVProp
p131
aVScrum-half
p132
aVFlanker
p133
aVFly-half
p134
aVFlanker
p135
aVNo. 8
p136
aVNo. 8
p137
aVNo. 8
p138
aVLock
p139
aVFly-half
p140
aVBack-row
p141
aVProp
p142
aVNo. 8
p143
aV
aVHooker
p144
aV
aVFly-half
p145
aVLock
p146
aVWing
p147
aVFlanker
p148
aVLock
p149
aVFlanker
p150
aVHooker
p151
aVProp
p152
aVProp
p153
aVHooker
p154
aVBack-row
p155
aVProp
p156
aVBack-row
p157
aVLock, Flanker
p158
aVProp
p159
aVCentre
p160
aVNo. 8
p161
aVWing
p162
aVBack-row
p163
aVFlanker
p164
aVWing
p165
aVFly-half, Centre
p166
aVCentre
p167
aVCentre
p168
aVFlanker
p169
aVCentre
p170
aVWing
p171
aVNo. 8
p172
aVFlanker
p173
aVProp
p174
aVCentre
p175
aVWing
p176
aVBack-row
p177
aVFly-half
p178
aVLock
p179
aVScrum-half
p180
aVHooker
p181
aVLock
p182
aVFlanker
p183
aVFullback
p184
aVFlanker
p185
aVProp
p186
aVFullback, Wing
p187
aVProp
p188
aVBack-row
p189
aVLock
p190
aVProp
p191
aVCentre
p192
aVScrum-half
p193
aVBack-row, Lock
p194
aVNo. 8
p195
aVProp
p196
aVProp, Hooker
p197
aVBack-row
p198
aVWing
p199
aVBack-row
p200
aVLock
p201
aVScrum-half
p202
aVLock, Back-row
p203
aVCentre
p204
aVCentre
p205
aVCentre
p206
aVWing, Fullback
p207
aVCentre
p208
aVProp
p209
aVFlanker
p210
aVCentre, Fly-half
p211
aVNo. 8
p212
aVUtility back
p213
aVFlanker
p214
aVLock
p215
aVBack-row
p216
aVBack-row
p217
aVCentre
p218
aVWing
p219
aVProp
p220
aVScrum-half
p221
aVNo. 8
p222
aVCentre
p223
aVHooker
p224
aVWing, Centre
p225
aVWing
p226
aVCentre
p227
aVBack-row
p228
aVProp
p229
aVCentre
p230
aVWing
p231
aVLock
p232
aVProp
p233
aVProp
p234
aVFly-half
p235
aVProp
p236
aVBack-row
p237
aVCentre
p238
aVScrum-half
p239
aVHooker
p240
aVLock
p241
aVProp
p242
aVFlanker
p243
aVProp
p244
aVFlanker
p245
aVHooker
p246
aVFly-half
p247
aVFlanker
p248
aVFullback
p249
aVWing
p250
aVFlanker
p251
aVBack-row, Lock
p252
aVWing
p253
aVWing
p254
aVProp
p255
aVProp
p256
aVCentre, Wing
p257
aVProp
p258
aVFlanker
p259
aVCentre
p260
aVProp
p261
aVCentre
p262
aVFlanker
p263
aVCentre
p264
aVProp
p265
aVCentre
p266
aVNo. 8
p267
aVCentre
p268
aVFly-half
p269
aVScrum-half
p270
aVFlanker
p271
aVWing
p272
aVCentre
p273
aVLock
p274
aVScrum-half
p275
aVFly-half
p276
aVHooker
p277
aVCentre, Fly-half
p278
aVCentre
p279
aVLock, Back-row
p280
aVNo. 8
p281
aVHooker
p282
aVCentre
p283
aVScrum-half
p284
aVBack-row
p285
aVCentre
p286
aVScrum-half
p287
aVFullback
p288
aVBack-row
p289
aVHooker
p290
aVLock, Flanker
p291
aVBack-row
p292
aVWing
p293
aVFly-half
p294
aVUtility back
p295
aVProp
p296
aVWing
p297
aVFlanker
p298
aVWing
p299
aVLock
p300
aVCentre
p301
aVHooker
p302
aVBack-row
p303
aVCentre
p304
aVHooker
p305
aVWing
p306
aVFlanker
p307
aVBack-row
p308
aVCentre
p309
aVScrum-half
p310
aVFlanker
p311
aVFly-half
p312
aVProp
p313
aVProp
p314
aVFullback
p315
aVProp
p316
aV
aVScrum-half
p317
aVCentre
p318
aVScrum-half
p319
aVFullback, Centre
p320
aVCentre
p321
aVProp
p322
aVWing
p323
aVBack-row
p324
aVCentre
p325
aVFullback, Wing
p326
a.