(lp1
VCentre
p2
aV
aVFullback
p3
aV
aVFullback
p4
aV
aV
aVProp
p5
aVFlanker
p6
aV
aVLock
p7
aV
aV
aVCentre
p8
aVProp
p9
aV
aVScrum-half
p10
aV
aV
aV
aV
aV
aV
aV
aV
aV
aV
aV
aV
aV
aV
aV
aV
aV
aV
aV
aV
aV
aV
aV
aV
aV
aV
aV
aV
aV
aV
aV
aV
aV
aV
aV
aV
aV
aV
aVProp
p11
aVNo. 8
p12
aVWing
p13
aVProp
p14
aVFlanker
p15
aVLock
p16
aVCentre
p17
aVFullback
p18
aVWing
p19
aVFly-half
p20
aVHooker
p21
aVLock
p22
aVCentre
p23
aVFlanker
p24
aVScrum-half
p25
aVHooker
p26
aVNo. 8
p27
aVLock
p28
aVProp
p29
aVCentre
p30
aVHooker
p31
aV
aV
aV
aV
aV
aVLock
p32
aV
aV
aV
aV
aV
aV
aV
aV
aV
aV
aV
aV
aV
aVFlanker
p33
aVWing
p34
aVProp
p35
aVHooker
p36
aVWing
p37
aVLock
p38
aVProp
p39
aVWing
p40
aVFly-half
p41
aVScrum-half
p42
aVNo. 8
p43
aVLock
p44
aVCentre
p45
aVCentre
p46
aVFullback
p47
aVCentre
p48
aVProp
p49
aVFlanker
p50
aVFullback
p51
aV
aV
aV
aV
aV
aV
aV
aV
aV
aV
aV
aV
aV
aV
aV
aV
aVCentre
p52
aV
aVWing
p53
aV
aV
aV
aV
aVLock
p54
aV
aV
aV
aVFlanker
p55
aVHooker
p56
aVProp
p57
aVLock
p58
aVProp
p59
aVCentre
p60
aVCentre
p61
aVFullback
p62
aVLock
p63
aVCentre
p64
aVScrum-half
p65
aVNo. 8
p66
aVFlanker
p67
aVFullback
p68
aVHooker
p69
aVWing
p70
aVLock
p71
aVReplacement
p72
aV
aV
aVScrum-half
p73
aVLock
p74
aVFlanker
p75
aVFly-half
p76
aVProp
p77
aVWing
p78
aVLock
p79
aVProp
p80
aVFlanker
p81
aVWing
p82
aVWing
p83
aVFlanker
p84
aVFullback
p85
aVHooker
p86
aVFlanker
p87
aVReplacement
p88
aVReplacement
p89
aVFlanker
p90
aVFlanker
p91
aVCentre
p92
aVScrum-half
p93
aVFullback
p94
aVFullback
p95
aVFly-half
p96
aVCentre
p97
aVHooker
p98
aVScrum-half
p99
aVWing
p100
aVLock
p101
aVProp
p102
aVScrum-half
p103
aV
aVProp
p104
aVLock
p105
aVHooker
p106
aVCentre
p107
aVScrum-half
p108
aVWing
p109
aVHooker
p110
aVWing
p111
aVReplacement
p112
aV
aV
aV
aVFullback
p113
aVLock
p114
aVFlanker
p115
aVFlanker
p116
aVHooker
p117
aVCentre
p118
aVLock
p119
aVFlanker
p120
aVFlanker
p121
aVWing
p122
aVCentre
p123
aVFlanker
p124
aVLock
p125
aVProp
p126
aVFullback
p127
aVNo. 8
p128
aVFlanker
p129
aV
aVFlanker
p130
aV
aVLock
p131
aVFlanker
p132
aV
aVFly-half
p133
aVCentre
p134
aVScrum-half
p135
aVWing
p136
aVFlanker
p137
aVNo. 8
p138
aVProp
p139
aVProp
p140
aVLock
p141
aVLock
p142
aVScrum-half
p143
aVFlanker
p144
aVCentre
p145
aVScrum-half
p146
aV
aVNo. 8
p147
aV
aVWing
p148
aV
aV
aV
aV
aVFlanker
p149
aVLock
p150
aVFlanker
p151
aVScrum-half
p152
aVWing
p153
aVProp
p154
aVLock
p155
aV
aVLock
p156
aVProp
p157
aVLock
p158
aVNo. 8
p159
aVBack-row
p160
aVFly-half
p161
aVWing
p162
aVNo. 8
p163
aVFlanker
p164
aVScrum-half
p165
aVLock
p166
aVCentre
p167
aVLock
p168
aVNo. 8
p169
aVFive-eighth
p170
aVWing, Centre
p171
aVCentre, Wing
p172
aVScrum-half
p173
aVFly-half
p174
aVLock
p175
aVHooker
p176
aVProp
p177
aVProp
p178
aVScrum-half
p179
aVFlanker
p180
aVScrum-half
p181
aVFullback
p182
aVScrum-half
p183
aVBack-row
p184
aVWing
p185
aVWing
p186
aVProp
p187
aVFly-half
p188
aVCentre
p189
aVFly-half
p190
aVProp
p191
aVScrum-half
p192
aVFullback
p193
aVWing
p194
aVLock
p195
aVCentre
p196
aVFlanker
p197
aVFly-half
p198
aVHooker
p199
aVCentre
p200
aVNo. 8
p201
aVWing
p202
aVWing, Centre
p203
aVFly-half
p204
aVProp
p205
aVScrum-half
p206
aVCentre
p207
aVHooker
p208
aVFly-half
p209
aVLock
p210
aVProp
p211
aVProp
p212
aVLock, Flanker
p213
aVScrum-half
p214
aVFlanker
p215
aVLock
p216
aVWing
p217
aVLock
p218
aVHooker
p219
aVNo. 8
p220
aVWing
p221
aVWing, Centre
p222
aVProp
p223
aVFlanker
p224
aVCentre
p225
aVWing, Centre
p226
aVCentre
p227
aVHooker
p228
aVProp
p229
aVLock
p230
aVWing
p231
aVProp
p232
aVCentre
p233
aVProp
p234
aVScrum-half
p235
aVFlanker
p236
aVFly-half
p237
aVFlanker
p238
aVNo. 8
p239
aVNo. 8
p240
aVNo. 8
p241
aVLock
p242
aVFly-half
p243
aVBack-row
p244
aVProp
p245
aVNo. 8
p246
aV
aVHooker
p247
aVProp
p248
aVFly-half
p249
aVLock
p250
aVWing
p251
aVFlanker
p252
aVLock
p253
aVFlanker
p254
aVHooker
p255
aVProp
p256
aVProp
p257
aVHooker
p258
aVBack-row
p259
aVProp
p260
aVBack-row
p261
aVLock, Flanker
p262
aVProp
p263
aVCentre
p264
aVNo. 8
p265
aVWing
p266
aVBack-row
p267
aVFlanker
p268
aVWing
p269
aVFly-half, Centre
p270
aVCentre
p271
aVCentre
p272
aVFlanker
p273
aVCentre
p274
aVWing
p275
aVNo. 8
p276
aVFlanker
p277
aVProp
p278
aVCentre
p279
aVWing
p280
aVBack-row
p281
aVFly-half
p282
aVLock
p283
aVScrum-half
p284
aVHooker
p285
aVLock
p286
aVFlanker
p287
aVFullback
p288
aVFlanker
p289
aVProp
p290
aVFullback, Wing
p291
aVProp
p292
aVBack-row
p293
aVLock
p294
aVProp
p295
aVCentre
p296
aVScrum-half
p297
aVBack-row, Lock
p298
aVNo. 8
p299
aVProp
p300
aVProp, Hooker
p301
aVBack-row
p302
aVCentre
p303
aVBack-row
p304
aVLock
p305
aVScrum-half
p306
aVLock, Back-row
p307
aVCentre
p308
aVCentre
p309
aVCentre
p310
aVWing, Fullback
p311
aVCentre
p312
aVProp
p313
aVFlanker
p314
aVCentre, Fly-half
p315
aVNo. 8
p316
aVUtility back
p317
aVFlanker
p318
aVLock
p319
aVBack-row
p320
aVLock
p321
aVCentre
p322
aVWing
p323
aVProp
p324
aVScrum-half
p325
aVLock
p326
aVCentre
p327
aVHooker
p328
aVWing, Centre
p329
aVWing
p330
aVCentre
p331
aVBack-row
p332
aVProp
p333
aVCentre
p334
aVWing
p335
aVLock
p336
aVProp
p337
aVProp
p338
aVFly-half
p339
aVProp
p340
aVBack-row
p341
aVCentre
p342
aVScrum-half
p343
aVHooker
p344
aVLock
p345
aVProp
p346
aVFlanker
p347
aVProp
p348
aVFlanker
p349
aVHooker
p350
aVFly-half
p351
aVFlanker
p352
aVFullback
p353
aVWing
p354
aVFlanker
p355
aVBack-row, Lock
p356
aVWing
p357
aVWing
p358
aVProp
p359
aVProp
p360
aVWing, Centre
p361
aVProp
p362
aVFlanker
p363
aVCentre
p364
aVProp
p365
aVCentre
p366
aVFlanker
p367
aVCentre
p368
aVProp
p369
aVCentre
p370
aVNo. 8
p371
aVCentre
p372
aVFly-half
p373
aVScrum-half
p374
aVFlanker
p375
a.