(lp1
(dp2
S'Pens'
p3
S'0'
sS'Sub'
p4
S'0'
sS'Lost'
p5
S'1'
sS'Drop'
p6
S'0'
sS'Start'
p7
S'2'
sS'Won'
p8
S'1'
sS'GfM'
p9
S'0'
sS'Draw'
p10
S'0'
sS'Mat'
p11
S'2'
sS'Conv'
p12
S'0'
sS'Tries'
p13
S'0'
sS'Pts'
p14
S'0'
sa(dp15
S'Pens'
p16
S'0'
sS'Sub'
p17
S'0'
sS'Lost'
p18
S'2'
sS'Drop'
p19
S'0'
sS'Start'
p20
S'3'
sS'Won'
p21
S'1'
sS'GfM'
p22
S'0'
sS'Draw'
p23
S'0'
sS'Mat'
p24
S'3'
sS'Conv'
p25
S'0'
sS'Tries'
p26
S'0'
sS'Pts'
p27
S'0'
sa(dp28
S'Pens'
p29
S'0'
sS'Sub'
p30
S'0'
sS'Lost'
p31
S'1'
sS'Drop'
p32
S'0'
sS'Start'
p33
S'2'
sS'Won'
p34
S'1'
sS'GfM'
p35
S'0'
sS'Draw'
p36
S'0'
sS'Mat'
p37
S'2'
sS'Conv'
p38
S'0'
sS'Tries'
p39
S'0'
sS'Pts'
p40
S'0'
sa(dp41
S'Pens'
p42
S'0'
sS'Sub'
p43
S'0'
sS'Lost'
p44
S'1'
sS'Drop'
p45
S'0'
sS'Start'
p46
S'1'
sS'Won'
p47
S'0'
sS'GfM'
p48
S'0'
sS'Draw'
p49
S'0'
sS'Mat'
p50
S'1'
sS'Conv'
p51
S'0'
sS'Tries'
p52
S'0'
sS'Pts'
p53
S'0'
sa(dp54
S'Pens'
p55
S'0'
sS'Sub'
p56
S'0'
sS'Lost'
p57
S'1'
sS'Drop'
p58
S'0'
sS'Start'
p59
S'1'
sS'Won'
p60
S'0'
sS'GfM'
p61
S'0'
sS'Draw'
p62
S'0'
sS'Mat'
p63
S'1'
sS'Conv'
p64
S'0'
sS'Tries'
p65
S'0'
sS'Pts'
p66
S'0'
sa(dp67
S'Pens'
p68
S'0'
sS'Sub'
p69
S'0'
sS'Lost'
p70
S'1'
sS'Drop'
p71
S'0'
sS'Start'
p72
S'1'
sS'Won'
p73
S'0'
sS'GfM'
p74
S'0'
sS'Draw'
p75
S'0'
sS'Mat'
p76
S'1'
sS'Conv'
p77
S'0'
sS'Tries'
p78
S'0'
sS'Pts'
p79
S'0'
sa(dp80
S'Pens'
p81
S'0'
sS'Sub'
p82
S'0'
sS'Lost'
p83
S'1'
sS'Drop'
p84
S'0'
sS'Start'
p85
S'1'
sS'Won'
p86
S'0'
sS'GfM'
p87
S'0'
sS'Draw'
p88
S'0'
sS'Mat'
p89
S'1'
sS'Conv'
p90
S'0'
sS'Tries'
p91
S'0'
sS'Pts'
p92
S'0'
sa(dp93
S'Pens'
p94
S'0'
sS'Sub'
p95
S'0'
sS'Lost'
p96
S'3'
sS'Drop'
p97
S'0'
sS'Start'
p98
S'4'
sS'Won'
p99
S'1'
sS'GfM'
p100
S'0'
sS'Draw'
p101
S'0'
sS'Mat'
p102
S'4'
sS'Conv'
p103
S'0'
sS'Tries'
p104
S'0'
sS'Pts'
p105
S'0'
sa(dp106
S'Pens'
p107
S'0'
sS'Sub'
p108
S'0'
sS'Lost'
p109
S'1'
sS'Drop'
p110
S'0'
sS'Start'
p111
S'2'
sS'Won'
p112
S'1'
sS'GfM'
p113
S'0'
sS'Draw'
p114
S'0'
sS'Mat'
p115
S'2'
sS'Conv'
p116
S'0'
sS'Tries'
p117
S'0'
sS'Pts'
p118
S'0'
sa(dp119
S'Pens'
p120
S'0'
sS'Sub'
p121
S'0'
sS'Lost'
p122
S'1'
sS'Drop'
p123
S'0'
sS'Start'
p124
S'2'
sS'Won'
p125
S'1'
sS'GfM'
p126
S'0'
sS'Draw'
p127
S'0'
sS'Mat'
p128
S'2'
sS'Conv'
p129
S'0'
sS'Tries'
p130
S'0'
sS'Pts'
p131
S'0'
sa(dp132
S'Pens'
p133
S'2'
sS'Sub'
p134
S'0'
sS'Lost'
p135
S'1'
sS'Drop'
p136
S'0'
sS'Start'
p137
S'2'
sS'Won'
p138
S'1'
sS'GfM'
p139
S'0'
sS'Draw'
p140
S'0'
sS'Mat'
p141
S'2'
sS'Conv'
p142
S'0'
sS'Tries'
p143
S'0'
sS'Pts'
p144
S'6'
sa(dp145
S'Pens'
p146
S'0'
sS'Sub'
p147
S'0'
sS'Lost'
p148
S'2'
sS'Drop'
p149
S'0'
sS'Start'
p150
S'3'
sS'Won'
p151
S'1'
sS'GfM'
p152
S'0'
sS'Draw'
p153
S'0'
sS'Mat'
p154
S'3'
sS'Conv'
p155
S'0'
sS'Tries'
p156
S'0'
sS'Pts'
p157
S'0'
sa(dp158
S'Pens'
p159
S'0'
sS'Sub'
p160
S'0'
sS'Lost'
p161
S'1'
sS'Drop'
p162
S'0'
sS'Start'
p163
S'1'
sS'Won'
p164
S'0'
sS'GfM'
p165
S'0'
sS'Draw'
p166
S'0'
sS'Mat'
p167
S'1'
sS'Conv'
p168
S'0'
sS'Tries'
p169
S'0'
sS'Pts'
p170
S'0'
sa(dp171
S'Pens'
p172
S'0'
sS'Sub'
p173
S'0'
sS'Lost'
p174
S'2'
sS'Drop'
p175
S'0'
sS'Start'
p176
S'3'
sS'Won'
p177
S'1'
sS'GfM'
p178
S'0'
sS'Draw'
p179
S'0'
sS'Mat'
p180
S'3'
sS'Conv'
p181
S'0'
sS'Tries'
p182
S'0'
sS'Pts'
p183
S'0'
sa(dp184
S'Pens'
p185
S'0'
sS'Sub'
p186
S'0'
sS'Lost'
p187
S'1'
sS'Drop'
p188
S'0'
sS'Start'
p189
S'2'
sS'Won'
p190
S'1'
sS'GfM'
p191
S'0'
sS'Draw'
p192
S'0'
sS'Mat'
p193
S'2'
sS'Conv'
p194
S'0'
sS'Tries'
p195
S'1'
sS'Pts'
p196
S'3'
sa(dp197
S'Pens'
p198
S'0'
sS'Sub'
p199
S'0'
sS'Lost'
p200
S'0'
sS'Drop'
p201
S'0'
sS'Start'
p202
S'1'
sS'Won'
p203
S'1'
sS'GfM'
p204
S'0'
sS'Draw'
p205
S'0'
sS'Mat'
p206
S'1'
sS'Conv'
p207
S'0'
sS'Tries'
p208
S'0'
sS'Pts'
p209
S'0'
sa(dp210
S'Pens'
p211
S'0'
sS'Sub'
p212
S'0'
sS'Lost'
p213
S'0'
sS'Drop'
p214
S'0'
sS'Start'
p215
S'1'
sS'Won'
p216
S'1'
sS'GfM'
p217
S'0'
sS'Draw'
p218
S'0'
sS'Mat'
p219
S'1'
sS'Conv'
p220
S'0'
sS'Tries'
p221
S'0'
sS'Pts'
p222
S'0'
sa(dp223
S'Pens'
p224
S'0'
sS'Sub'
p225
S'0'
sS'Lost'
p226
S'1'
sS'Drop'
p227
S'0'
sS'Start'
p228
S'1'
sS'Won'
p229
S'0'
sS'GfM'
p230
S'0'
sS'Draw'
p231
S'0'
sS'Mat'
p232
S'1'
sS'Conv'
p233
S'0'
sS'Tries'
p234
S'0'
sS'Pts'
p235
S'0'
sa(dp236
S'Pens'
p237
S'0'
sS'Sub'
p238
S'0'
sS'Lost'
p239
S'1'
sS'Drop'
p240
S'0'
sS'Start'
p241
S'1'
sS'Won'
p242
S'0'
sS'GfM'
p243
S'0'
sS'Draw'
p244
S'0'
sS'Mat'
p245
S'1'
sS'Conv'
p246
S'0'
sS'Tries'
p247
S'0'
sS'Pts'
p248
S'0'
sa(dp249
S'Pens'
p250
S'0'
sS'Sub'
p251
S'0'
sS'Lost'
p252
S'1'
sS'Drop'
p253
S'0'
sS'Start'
p254
S'1'
sS'Won'
p255
S'0'
sS'GfM'
p256
S'0'
sS'Draw'
p257
S'0'
sS'Mat'
p258
S'1'
sS'Conv'
p259
S'0'
sS'Tries'
p260
S'0'
sS'Pts'
p261
S'0'
sa(dp262
S'Pens'
p263
S'0'
sS'Sub'
p264
S'0'
sS'Lost'
p265
S'1'
sS'Drop'
p266
S'0'
sS'Start'
p267
S'1'
sS'Won'
p268
S'0'
sS'GfM'
p269
S'0'
sS'Draw'
p270
S'0'
sS'Mat'
p271
S'1'
sS'Conv'
p272
S'0'
sS'Tries'
p273
S'0'
sS'Pts'
p274
S'0'
sa(dp275
S'Pens'
p276
S'0'
sS'Sub'
p277
S'0'
sS'Lost'
p278
S'2'
sS'Drop'
p279
S'0'
sS'Start'
p280
S'2'
sS'Won'
p281
S'0'
sS'GfM'
p282
S'0'
sS'Draw'
p283
S'0'
sS'Mat'
p284
S'2'
sS'Conv'
p285
S'0'
sS'Tries'
p286
S'0'
sS'Pts'
p287
S'0'
sa(dp288
S'Pens'
p289
S'0'
sS'Sub'
p290
S'0'
sS'Lost'
p291
S'1'
sS'Drop'
p292
S'0'
sS'Start'
p293
S'1'
sS'Won'
p294
S'0'
sS'GfM'
p295
S'0'
sS'Draw'
p296
S'0'
sS'Mat'
p297
S'1'
sS'Conv'
p298
S'0'
sS'Tries'
p299
S'0'
sS'Pts'
p300
S'0'
sa(dp301
S'Pens'
p302
S'1'
sS'Sub'
p303
S'0'
sS'Lost'
p304
S'2'
sS'Drop'
p305
S'0'
sS'Start'
p306
S'2'
sS'Won'
p307
S'0'
sS'GfM'
p308
S'0'
sS'Draw'
p309
S'0'
sS'Mat'
p310
S'2'
sS'Conv'
p311
S'1'
sS'Tries'
p312
S'0'
sS'Pts'
p313
S'5'
sa(dp314
S'Pens'
p315
S'0'
sS'Sub'
p316
S'0'
sS'Lost'
p317
S'1'
sS'Drop'
p318
S'0'
sS'Start'
p319
S'1'
sS'Won'
p320
S'0'
sS'GfM'
p321
S'0'
sS'Draw'
p322
S'0'
sS'Mat'
p323
S'1'
sS'Conv'
p324
S'0'
sS'Tries'
p325
S'0'
sS'Pts'
p326
S'0'
sa(dp327
S'Pens'
p328
S'0'
sS'Sub'
p329
S'0'
sS'Lost'
p330
S'1'
sS'Drop'
p331
S'0'
sS'Start'
p332
S'1'
sS'Won'
p333
S'0'
sS'GfM'
p334
S'0'
sS'Draw'
p335
S'0'
sS'Mat'
p336
S'1'
sS'Conv'
p337
S'0'
sS'Tries'
p338
S'0'
sS'Pts'
p339
S'0'
sa(dp340
S'Pens'
p341
S'0'
sS'Sub'
p342
S'0'
sS'Lost'
p343
S'1'
sS'Drop'
p344
S'0'
sS'Start'
p345
S'1'
sS'Won'
p346
S'0'
sS'GfM'
p347
S'0'
sS'Draw'
p348
S'0'
sS'Mat'
p349
S'1'
sS'Conv'
p350
S'0'
sS'Tries'
p351
S'0'
sS'Pts'
p352
S'0'
sa(dp353
S'Pens'
p354
S'0'
sS'Sub'
p355
S'0'
sS'Lost'
p356
S'1'
sS'Drop'
p357
S'0'
sS'Start'
p358
S'1'
sS'Won'
p359
S'0'
sS'GfM'
p360
S'0'
sS'Draw'
p361
S'0'
sS'Mat'
p362
S'1'
sS'Conv'
p363
S'0'
sS'Tries'
p364
S'0'
sS'Pts'
p365
S'0'
sa(dp366
S'Pens'
p367
S'0'
sS'Sub'
p368
S'0'
sS'Lost'
p369
S'1'
sS'Drop'
p370
S'0'
sS'Start'
p371
S'1'
sS'Won'
p372
S'0'
sS'GfM'
p373
S'0'
sS'Draw'
p374
S'0'
sS'Mat'
p375
S'1'
sS'Conv'
p376
S'0'
sS'Tries'
p377
S'1'
sS'Pts'
p378
S'3'
sa(dp379
S'Pens'
p380
S'0'
sS'Sub'
p381
S'0'
sS'Lost'
p382
S'2'
sS'Drop'
p383
S'0'
sS'Start'
p384
S'2'
sS'Won'
p385
S'0'
sS'GfM'
p386
S'0'
sS'Draw'
p387
S'0'
sS'Mat'
p388
S'2'
sS'Conv'
p389
S'0'
sS'Tries'
p390
S'0'
sS'Pts'
p391
S'0'
sa(dp392
S'Pens'
p393
S'0'
sS'Sub'
p394
S'0'
sS'Lost'
p395
S'1'
sS'Drop'
p396
S'0'
sS'Start'
p397
S'1'
sS'Won'
p398
S'0'
sS'GfM'
p399
S'0'
sS'Draw'
p400
S'0'
sS'Mat'
p401
S'1'
sS'Conv'
p402
S'0'
sS'Tries'
p403
S'0'
sS'Pts'
p404
S'0'
sa(dp405
S'Pens'
p406
S'0'
sS'Sub'
p407
S'0'
sS'Lost'
p408
S'1'
sS'Drop'
p409
S'0'
sS'Start'
p410
S'1'
sS'Won'
p411
S'0'
sS'GfM'
p412
S'0'
sS'Draw'
p413
S'0'
sS'Mat'
p414
S'1'
sS'Conv'
p415
S'0'
sS'Tries'
p416
S'0'
sS'Pts'
p417
S'0'
sa(dp418
S'Pens'
p419
S'0'
sS'Sub'
p420
S'0'
sS'Lost'
p421
S'1'
sS'Drop'
p422
S'0'
sS'Start'
p423
S'1'
sS'Won'
p424
S'0'
sS'GfM'
p425
S'0'
sS'Draw'
p426
S'0'
sS'Mat'
p427
S'1'
sS'Conv'
p428
S'0'
sS'Tries'
p429
S'0'
sS'Pts'
p430
S'0'
sa(dp431
S'Pens'
p432
S'0'
sS'Sub'
p433
S'0'
sS'Lost'
p434
S'1'
sS'Drop'
p435
S'0'
sS'Start'
p436
S'1'
sS'Won'
p437
S'0'
sS'GfM'
p438
S'0'
sS'Draw'
p439
S'0'
sS'Mat'
p440
S'1'
sS'Conv'
p441
S'0'
sS'Tries'
p442
S'0'
sS'Pts'
p443
S'0'
sa(dp444
S'Pens'
p445
S'0'
sS'Sub'
p446
S'0'
sS'Lost'
p447
S'1'
sS'Drop'
p448
S'0'
sS'Start'
p449
S'1'
sS'Won'
p450
S'0'
sS'GfM'
p451
S'0'
sS'Draw'
p452
S'0'
sS'Mat'
p453
S'1'
sS'Conv'
p454
S'0'
sS'Tries'
p455
S'0'
sS'Pts'
p456
S'0'
sa(dp457
S'Pens'
p458
S'0'
sS'Sub'
p459
S'0'
sS'Lost'
p460
S'1'
sS'Drop'
p461
S'0'
sS'Start'
p462
S'1'
sS'Won'
p463
S'0'
sS'GfM'
p464
S'0'
sS'Draw'
p465
S'0'
sS'Mat'
p466
S'1'
sS'Conv'
p467
S'0'
sS'Tries'
p468
S'0'
sS'Pts'
p469
S'0'
sa(dp470
S'Pens'
p471
S'0'
sS'Sub'
p472
S'0'
sS'Lost'
p473
S'1'
sS'Drop'
p474
S'0'
sS'Start'
p475
S'1'
sS'Won'
p476
S'0'
sS'GfM'
p477
S'0'
sS'Draw'
p478
S'0'
sS'Mat'
p479
S'1'
sS'Conv'
p480
S'0'
sS'Tries'
p481
S'0'
sS'Pts'
p482
S'0'
sa(dp483
S'Pens'
p484
S'0'
sS'Sub'
p485
S'0'
sS'Lost'
p486
S'1'
sS'Drop'
p487
S'0'
sS'Start'
p488
S'1'
sS'Won'
p489
S'0'
sS'GfM'
p490
S'0'
sS'Draw'
p491
S'0'
sS'Mat'
p492
S'1'
sS'Conv'
p493
S'0'
sS'Tries'
p494
S'0'
sS'Pts'
p495
S'0'
sa(dp496
S'Pens'
p497
S'0'
sS'Sub'
p498
S'0'
sS'Lost'
p499
S'1'
sS'Drop'
p500
S'0'
sS'Start'
p501
S'1'
sS'Won'
p502
S'0'
sS'GfM'
p503
S'0'
sS'Draw'
p504
S'0'
sS'Mat'
p505
S'1'
sS'Conv'
p506
S'0'
sS'Tries'
p507
S'0'
sS'Pts'
p508
S'0'
sa(dp509
S'Pens'
p510
S'0'
sS'Sub'
p511
S'0'
sS'Lost'
p512
S'1'
sS'Drop'
p513
S'0'
sS'Start'
p514
S'1'
sS'Won'
p515
S'0'
sS'GfM'
p516
S'0'
sS'Draw'
p517
S'0'
sS'Mat'
p518
S'1'
sS'Conv'
p519
S'0'
sS'Tries'
p520
S'0'
sS'Pts'
p521
S'0'
sa(dp522
S'Pens'
p523
S'0'
sS'Sub'
p524
S'0'
sS'Lost'
p525
S'1'
sS'Drop'
p526
S'0'
sS'Start'
p527
S'1'
sS'Won'
p528
S'0'
sS'GfM'
p529
S'0'
sS'Draw'
p530
S'0'
sS'Mat'
p531
S'1'
sS'Conv'
p532
S'0'
sS'Tries'
p533
S'0'
sS'Pts'
p534
S'0'
sa(dp535
S'Pens'
p536
S'0'
sS'Sub'
p537
S'0'
sS'Lost'
p538
S'0'
sS'Drop'
p539
S'0'
sS'Start'
p540
S'1'
sS'Won'
p541
S'1'
sS'GfM'
p542
S'0'
sS'Draw'
p543
S'0'
sS'Mat'
p544
S'1'
sS'Conv'
p545
S'0'
sS'Tries'
p546
S'0'
sS'Pts'
p547
S'0'
sa(dp548
S'Pens'
p549
S'0'
sS'Sub'
p550
S'0'
sS'Lost'
p551
S'0'
sS'Drop'
p552
S'0'
sS'Start'
p553
S'1'
sS'Won'
p554
S'1'
sS'GfM'
p555
S'0'
sS'Draw'
p556
S'0'
sS'Mat'
p557
S'1'
sS'Conv'
p558
S'0'
sS'Tries'
p559
S'0'
sS'Pts'
p560
S'0'
sa(dp561
S'Pens'
p562
S'0'
sS'Sub'
p563
S'0'
sS'Lost'
p564
S'0'
sS'Drop'
p565
S'0'
sS'Start'
p566
S'1'
sS'Won'
p567
S'1'
sS'GfM'
p568
S'0'
sS'Draw'
p569
S'0'
sS'Mat'
p570
S'1'
sS'Conv'
p571
S'0'
sS'Tries'
p572
S'0'
sS'Pts'
p573
S'0'
sa(dp574
S'Pens'
p575
S'0'
sS'Sub'
p576
S'0'
sS'Lost'
p577
S'0'
sS'Drop'
p578
S'0'
sS'Start'
p579
S'1'
sS'Won'
p580
S'1'
sS'GfM'
p581
S'0'
sS'Draw'
p582
S'0'
sS'Mat'
p583
S'1'
sS'Conv'
p584
S'0'
sS'Tries'
p585
S'0'
sS'Pts'
p586
S'0'
sa(dp587
S'Pens'
p588
S'0'
sS'Sub'
p589
S'0'
sS'Lost'
p590
S'0'
sS'Drop'
p591
S'0'
sS'Start'
p592
S'1'
sS'Won'
p593
S'1'
sS'GfM'
p594
S'0'
sS'Draw'
p595
S'0'
sS'Mat'
p596
S'1'
sS'Conv'
p597
S'0'
sS'Tries'
p598
S'0'
sS'Pts'
p599
S'0'
sa(dp600
S'Pens'
p601
S'0'
sS'Sub'
p602
S'0'
sS'Lost'
p603
S'0'
sS'Drop'
p604
S'0'
sS'Start'
p605
S'1'
sS'Won'
p606
S'1'
sS'GfM'
p607
S'0'
sS'Draw'
p608
S'0'
sS'Mat'
p609
S'1'
sS'Conv'
p610
S'0'
sS'Tries'
p611
S'0'
sS'Pts'
p612
S'0'
sa(dp613
S'Pens'
p614
S'0'
sS'Sub'
p615
S'0'
sS'Lost'
p616
S'0'
sS'Drop'
p617
S'0'
sS'Start'
p618
S'1'
sS'Won'
p619
S'1'
sS'GfM'
p620
S'0'
sS'Draw'
p621
S'0'
sS'Mat'
p622
S'1'
sS'Conv'
p623
S'0'
sS'Tries'
p624
S'0'
sS'Pts'
p625
S'0'
sa(dp626
S'Pens'
p627
S'0'
sS'Sub'
p628
S'0'
sS'Lost'
p629
S'0'
sS'Drop'
p630
S'0'
sS'Start'
p631
S'1'
sS'Won'
p632
S'1'
sS'GfM'
p633
S'0'
sS'Draw'
p634
S'0'
sS'Mat'
p635
S'1'
sS'Conv'
p636
S'0'
sS'Tries'
p637
S'0'
sS'Pts'
p638
S'0'
sa(dp639
S'Pens'
p640
S'0'
sS'Sub'
p641
S'0'
sS'Lost'
p642
S'0'
sS'Drop'
p643
S'0'
sS'Start'
p644
S'1'
sS'Won'
p645
S'1'
sS'GfM'
p646
S'0'
sS'Draw'
p647
S'0'
sS'Mat'
p648
S'1'
sS'Conv'
p649
S'0'
sS'Tries'
p650
S'0'
sS'Pts'
p651
S'0'
sa(dp652
S'Pens'
p653
S'0'
sS'Sub'
p654
S'0'
sS'Lost'
p655
S'0'
sS'Drop'
p656
S'0'
sS'Start'
p657
S'1'
sS'Won'
p658
S'1'
sS'GfM'
p659
S'0'
sS'Draw'
p660
S'0'
sS'Mat'
p661
S'1'
sS'Conv'
p662
S'0'
sS'Tries'
p663
S'0'
sS'Pts'
p664
S'0'
sa(dp665
S'Pens'
p666
S'0'
sS'Sub'
p667
S'0'
sS'Lost'
p668
S'0'
sS'Drop'
p669
S'0'
sS'Start'
p670
S'1'
sS'Won'
p671
S'1'
sS'GfM'
p672
S'0'
sS'Draw'
p673
S'0'
sS'Mat'
p674
S'1'
sS'Conv'
p675
S'0'
sS'Tries'
p676
S'0'
sS'Pts'
p677
S'0'
sa(dp678
S'Pens'
p679
S'0'
sS'Sub'
p680
S'0'
sS'Lost'
p681
S'0'
sS'Drop'
p682
S'0'
sS'Start'
p683
S'1'
sS'Won'
p684
S'1'
sS'GfM'
p685
S'0'
sS'Draw'
p686
S'0'
sS'Mat'
p687
S'1'
sS'Conv'
p688
S'0'
sS'Tries'
p689
S'0'
sS'Pts'
p690
S'0'
sa(dp691
S'Pens'
p692
S'0'
sS'Sub'
p693
S'0'
sS'Lost'
p694
S'0'
sS'Drop'
p695
S'0'
sS'Start'
p696
S'1'
sS'Won'
p697
S'1'
sS'GfM'
p698
S'0'
sS'Draw'
p699
S'0'
sS'Mat'
p700
S'1'
sS'Conv'
p701
S'0'
sS'Tries'
p702
S'0'
sS'Pts'
p703
S'0'
sa(dp704
S'Pens'
p705
S'0'
sS'Sub'
p706
S'0'
sS'Lost'
p707
S'0'
sS'Drop'
p708
S'0'
sS'Start'
p709
S'1'
sS'Won'
p710
S'1'
sS'GfM'
p711
S'0'
sS'Draw'
p712
S'0'
sS'Mat'
p713
S'1'
sS'Conv'
p714
S'0'
sS'Tries'
p715
S'0'
sS'Pts'
p716
S'0'
sa(dp717
S'Pens'
p718
S'0'
sS'Sub'
p719
S'0'
sS'Lost'
p720
S'1'
sS'Drop'
p721
S'0'
sS'Start'
p722
S'1'
sS'Won'
p723
S'0'
sS'GfM'
p724
S'0'
sS'Draw'
p725
S'0'
sS'Mat'
p726
S'1'
sS'Conv'
p727
S'0'
sS'Tries'
p728
S'0'
sS'Pts'
p729
S'0'
sa(dp730
S'Pens'
p731
S'0'
sS'Sub'
p732
S'0'
sS'Lost'
p733
S'3'
sS'Drop'
p734
S'0'
sS'Start'
p735
S'3'
sS'Won'
p736
S'0'
sS'GfM'
p737
S'0'
sS'Draw'
p738
S'0'
sS'Mat'
p739
S'3'
sS'Conv'
p740
S'0'
sS'Tries'
p741
S'0'
sS'Pts'
p742
S'0'
sa(dp743
S'Pens'
p744
S'0'
sS'Sub'
p745
S'0'
sS'Lost'
p746
S'5'
sS'Drop'
p747
S'0'
sS'Start'
p748
S'5'
sS'Won'
p749
S'0'
sS'GfM'
p750
S'0'
sS'Draw'
p751
S'0'
sS'Mat'
p752
S'5'
sS'Conv'
p753
S'0'
sS'Tries'
p754
S'1'
sS'Pts'
p755
S'3'
sa(dp756
S'Pens'
p757
S'0'
sS'Sub'
p758
S'0'
sS'Lost'
p759
S'2'
sS'Drop'
p760
S'0'
sS'Start'
p761
S'2'
sS'Won'
p762
S'0'
sS'GfM'
p763
S'0'
sS'Draw'
p764
S'0'
sS'Mat'
p765
S'2'
sS'Conv'
p766
S'0'
sS'Tries'
p767
S'0'
sS'Pts'
p768
S'0'
sa(dp769
S'Pens'
p770
S'0'
sS'Sub'
p771
S'0'
sS'Lost'
p772
S'5'
sS'Drop'
p773
S'0'
sS'Start'
p774
S'5'
sS'Won'
p775
S'0'
sS'GfM'
p776
S'0'
sS'Draw'
p777
S'0'
sS'Mat'
p778
S'5'
sS'Conv'
p779
S'0'
sS'Tries'
p780
S'0'
sS'Pts'
p781
S'0'
sa(dp782
S'Pens'
p783
S'0'
sS'Sub'
p784
S'0'
sS'Lost'
p785
S'3'
sS'Drop'
p786
S'0'
sS'Start'
p787
S'3'
sS'Won'
p788
S'0'
sS'GfM'
p789
S'0'
sS'Draw'
p790
S'0'
sS'Mat'
p791
S'3'
sS'Conv'
p792
S'0'
sS'Tries'
p793
S'0'
sS'Pts'
p794
S'0'
sa(dp795
S'Pens'
p796
S'0'
sS'Sub'
p797
S'0'
sS'Lost'
p798
S'5'
sS'Drop'
p799
S'0'
sS'Start'
p800
S'6'
sS'Won'
p801
S'0'
sS'GfM'
p802
S'0'
sS'Draw'
p803
S'1'
sS'Mat'
p804
S'6'
sS'Conv'
p805
S'0'
sS'Tries'
p806
S'0'
sS'Pts'
p807
S'0'
sa(dp808
S'Pens'
p809
S'1'
sS'Sub'
p810
S'0'
sS'Lost'
p811
S'3'
sS'Drop'
p812
S'0'
sS'Start'
p813
S'4'
sS'Won'
p814
S'0'
sS'GfM'
p815
S'0'
sS'Draw'
p816
S'1'
sS'Mat'
p817
S'4'
sS'Conv'
p818
S'1'
sS'Tries'
p819
S'0'
sS'Pts'
p820
S'5'
sa(dp821
S'Pens'
p822
S'1'
sS'Sub'
p823
S'0'
sS'Lost'
p824
S'5'
sS'Drop'
p825
S'0'
sS'Start'
p826
S'5'
sS'Won'
p827
S'0'
sS'GfM'
p828
S'0'
sS'Draw'
p829
S'0'
sS'Mat'
p830
S'5'
sS'Conv'
p831
S'0'
sS'Tries'
p832
S'2'
sS'Pts'
p833
S'9'
sa(dp834
S'Pens'
p835
S'0'
sS'Sub'
p836
S'0'
sS'Lost'
p837
S'3'
sS'Drop'
p838
S'0'
sS'Start'
p839
S'4'
sS'Won'
p840
S'0'
sS'GfM'
p841
S'0'
sS'Draw'
p842
S'1'
sS'Mat'
p843
S'4'
sS'Conv'
p844
S'0'
sS'Tries'
p845
S'0'
sS'Pts'
p846
S'0'
sa(dp847
S'Pens'
p848
S'0'
sS'Sub'
p849
S'0'
sS'Lost'
p850
S'1'
sS'Drop'
p851
S'0'
sS'Start'
p852
S'1'
sS'Won'
p853
S'0'
sS'GfM'
p854
S'0'
sS'Draw'
p855
S'0'
sS'Mat'
p856
S'1'
sS'Conv'
p857
S'0'
sS'Tries'
p858
S'0'
sS'Pts'
p859
S'0'
sa(dp860
S'Pens'
p861
S'0'
sS'Sub'
p862
S'0'
sS'Lost'
p863
S'3'
sS'Drop'
p864
S'0'
sS'Start'
p865
S'3'
sS'Won'
p866
S'0'
sS'GfM'
p867
S'0'
sS'Draw'
p868
S'0'
sS'Mat'
p869
S'3'
sS'Conv'
p870
S'0'
sS'Tries'
p871
S'0'
sS'Pts'
p872
S'0'
sa(dp873
S'Pens'
p874
S'0'
sS'Sub'
p875
S'0'
sS'Lost'
p876
S'2'
sS'Drop'
p877
S'0'
sS'Start'
p878
S'2'
sS'Won'
p879
S'0'
sS'GfM'
p880
S'0'
sS'Draw'
p881
S'0'
sS'Mat'
p882
S'2'
sS'Conv'
p883
S'0'
sS'Tries'
p884
S'0'
sS'Pts'
p885
S'0'
sa(dp886
S'Pens'
p887
S'0'
sS'Sub'
p888
S'0'
sS'Lost'
p889
S'1'
sS'Drop'
p890
S'0'
sS'Start'
p891
S'1'
sS'Won'
p892
S'0'
sS'GfM'
p893
S'0'
sS'Draw'
p894
S'0'
sS'Mat'
p895
S'1'
sS'Conv'
p896
S'0'
sS'Tries'
p897
S'0'
sS'Pts'
p898
S'0'
sa(dp899
S'Pens'
p900
S'0'
sS'Sub'
p901
S'0'
sS'Lost'
p902
S'3'
sS'Drop'
p903
S'0'
sS'Start'
p904
S'3'
sS'Won'
p905
S'0'
sS'GfM'
p906
S'0'
sS'Draw'
p907
S'0'
sS'Mat'
p908
S'3'
sS'Conv'
p909
S'0'
sS'Tries'
p910
S'0'
sS'Pts'
p911
S'0'
sa(dp912
S'Pens'
p913
S'0'
sS'Sub'
p914
S'0'
sS'Lost'
p915
S'1'
sS'Drop'
p916
S'0'
sS'Start'
p917
S'1'
sS'Won'
p918
S'0'
sS'GfM'
p919
S'0'
sS'Draw'
p920
S'0'
sS'Mat'
p921
S'1'
sS'Conv'
p922
S'0'
sS'Tries'
p923
S'0'
sS'Pts'
p924
S'0'
sa(dp925
S'Pens'
p926
S'0'
sS'Sub'
p927
S'0'
sS'Lost'
p928
S'1'
sS'Drop'
p929
S'0'
sS'Start'
p930
S'1'
sS'Won'
p931
S'0'
sS'GfM'
p932
S'0'
sS'Draw'
p933
S'0'
sS'Mat'
p934
S'1'
sS'Conv'
p935
S'0'
sS'Tries'
p936
S'0'
sS'Pts'
p937
S'0'
sa(dp938
S'Pens'
p939
S'0'
sS'Sub'
p940
S'0'
sS'Lost'
p941
S'2'
sS'Drop'
p942
S'0'
sS'Start'
p943
S'2'
sS'Won'
p944
S'0'
sS'GfM'
p945
S'0'
sS'Draw'
p946
S'0'
sS'Mat'
p947
S'2'
sS'Conv'
p948
S'0'
sS'Tries'
p949
S'1'
sS'Pts'
p950
S'3'
sa(dp951
S'Pens'
p952
S'0'
sS'Sub'
p953
S'0'
sS'Lost'
p954
S'2'
sS'Drop'
p955
S'0'
sS'Start'
p956
S'2'
sS'Won'
p957
S'0'
sS'GfM'
p958
S'0'
sS'Draw'
p959
S'0'
sS'Mat'
p960
S'2'
sS'Conv'
p961
S'0'
sS'Tries'
p962
S'0'
sS'Pts'
p963
S'0'
sa(dp964
S'Pens'
p965
S'0'
sS'Sub'
p966
S'0'
sS'Lost'
p967
S'3'
sS'Drop'
p968
S'0'
sS'Start'
p969
S'3'
sS'Won'
p970
S'0'
sS'GfM'
p971
S'0'
sS'Draw'
p972
S'0'
sS'Mat'
p973
S'3'
sS'Conv'
p974
S'0'
sS'Tries'
p975
S'0'
sS'Pts'
p976
S'0'
sa(dp977
S'Pens'
p978
S'0'
sS'Sub'
p979
S'0'
sS'Lost'
p980
S'1'
sS'Drop'
p981
S'0'
sS'Start'
p982
S'1'
sS'Won'
p983
S'0'
sS'GfM'
p984
S'0'
sS'Draw'
p985
S'0'
sS'Mat'
p986
S'1'
sS'Conv'
p987
S'0'
sS'Tries'
p988
S'0'
sS'Pts'
p989
S'0'
sa(dp990
S'Pens'
p991
S'0'
sS'Sub'
p992
S'0'
sS'Lost'
p993
S'2'
sS'Drop'
p994
S'0'
sS'Start'
p995
S'2'
sS'Won'
p996
S'0'
sS'GfM'
p997
S'0'
sS'Draw'
p998
S'0'
sS'Mat'
p999
S'2'
sS'Conv'
p1000
S'0'
sS'Tries'
p1001
S'0'
sS'Pts'
p1002
S'0'
sa(dp1003
S'Pens'
p1004
S'0'
sS'Sub'
p1005
S'0'
sS'Lost'
p1006
S'2'
sS'Drop'
p1007
S'0'
sS'Start'
p1008
S'2'
sS'Won'
p1009
S'0'
sS'GfM'
p1010
S'0'
sS'Draw'
p1011
S'0'
sS'Mat'
p1012
S'2'
sS'Conv'
p1013
S'0'
sS'Tries'
p1014
S'0'
sS'Pts'
p1015
S'0'
sa(dp1016
S'Pens'
p1017
S'0'
sS'Sub'
p1018
S'0'
sS'Lost'
p1019
S'2'
sS'Drop'
p1020
S'0'
sS'Start'
p1021
S'2'
sS'Won'
p1022
S'0'
sS'GfM'
p1023
S'0'
sS'Draw'
p1024
S'0'
sS'Mat'
p1025
S'2'
sS'Conv'
p1026
S'0'
sS'Tries'
p1027
S'0'
sS'Pts'
p1028
S'0'
sa(dp1029
S'Pens'
p1030
S'0'
sS'Sub'
p1031
S'0'
sS'Lost'
p1032
S'2'
sS'Drop'
p1033
S'0'
sS'Start'
p1034
S'2'
sS'Won'
p1035
S'0'
sS'GfM'
p1036
S'0'
sS'Draw'
p1037
S'0'
sS'Mat'
p1038
S'2'
sS'Conv'
p1039
S'0'
sS'Tries'
p1040
S'0'
sS'Pts'
p1041
S'0'
sa(dp1042
S'Pens'
p1043
S'0'
sS'Sub'
p1044
S'0'
sS'Lost'
p1045
S'2'
sS'Drop'
p1046
S'0'
sS'Start'
p1047
S'3'
sS'Won'
p1048
S'0'
sS'GfM'
p1049
S'0'
sS'Draw'
p1050
S'1'
sS'Mat'
p1051
S'3'
sS'Conv'
p1052
S'0'
sS'Tries'
p1053
S'0'
sS'Pts'
p1054
S'0'
sa(dp1055
S'Pens'
p1056
S'0'
sS'Sub'
p1057
S'0'
sS'Lost'
p1058
S'3'
sS'Drop'
p1059
S'0'
sS'Start'
p1060
S'4'
sS'Won'
p1061
S'0'
sS'GfM'
p1062
S'0'
sS'Draw'
p1063
S'1'
sS'Mat'
p1064
S'4'
sS'Conv'
p1065
S'0'
sS'Tries'
p1066
S'0'
sS'Pts'
p1067
S'0'
sa(dp1068
S'Pens'
p1069
S'0'
sS'Sub'
p1070
S'0'
sS'Lost'
p1071
S'2'
sS'Drop'
p1072
S'0'
sS'Start'
p1073
S'3'
sS'Won'
p1074
S'0'
sS'GfM'
p1075
S'0'
sS'Draw'
p1076
S'1'
sS'Mat'
p1077
S'3'
sS'Conv'
p1078
S'0'
sS'Tries'
p1079
S'0'
sS'Pts'
p1080
S'0'
sa(dp1081
S'Pens'
p1082
S'0'
sS'Sub'
p1083
S'0'
sS'Lost'
p1084
S'2'
sS'Drop'
p1085
S'0'
sS'Start'
p1086
S'3'
sS'Won'
p1087
S'0'
sS'GfM'
p1088
S'0'
sS'Draw'
p1089
S'1'
sS'Mat'
p1090
S'3'
sS'Conv'
p1091
S'0'
sS'Tries'
p1092
S'0'
sS'Pts'
p1093
S'0'
sa(dp1094
S'Pens'
p1095
S'0'
sS'Sub'
p1096
S'0'
sS'Lost'
p1097
S'2'
sS'Drop'
p1098
S'0'
sS'Start'
p1099
S'2'
sS'Won'
p1100
S'0'
sS'GfM'
p1101
S'0'
sS'Draw'
p1102
S'0'
sS'Mat'
p1103
S'2'
sS'Conv'
p1104
S'0'
sS'Tries'
p1105
S'0'
sS'Pts'
p1106
S'0'
sa(dp1107
S'Pens'
p1108
S'0'
sS'Sub'
p1109
S'0'
sS'Lost'
p1110
S'2'
sS'Drop'
p1111
S'0'
sS'Start'
p1112
S'2'
sS'Won'
p1113
S'0'
sS'GfM'
p1114
S'0'
sS'Draw'
p1115
S'0'
sS'Mat'
p1116
S'2'
sS'Conv'
p1117
S'0'
sS'Tries'
p1118
S'0'
sS'Pts'
p1119
S'0'
sa(dp1120
S'Pens'
p1121
S'0'
sS'Sub'
p1122
S'0'
sS'Lost'
p1123
S'2'
sS'Drop'
p1124
S'0'
sS'Start'
p1125
S'2'
sS'Won'
p1126
S'0'
sS'GfM'
p1127
S'0'
sS'Draw'
p1128
S'0'
sS'Mat'
p1129
S'2'
sS'Conv'
p1130
S'0'
sS'Tries'
p1131
S'0'
sS'Pts'
p1132
S'0'
sa(dp1133
S'Pens'
p1134
S'0'
sS'Sub'
p1135
S'0'
sS'Lost'
p1136
S'0'
sS'Drop'
p1137
S'0'
sS'Start'
p1138
S'1'
sS'Won'
p1139
S'0'
sS'GfM'
p1140
S'0'
sS'Draw'
p1141
S'1'
sS'Mat'
p1142
S'1'
sS'Conv'
p1143
S'0'
sS'Tries'
p1144
S'0'
sS'Pts'
p1145
S'0'
sa(dp1146
S'Pens'
p1147
S'0'
sS'Sub'
p1148
S'0'
sS'Lost'
p1149
S'0'
sS'Drop'
p1150
S'0'
sS'Start'
p1151
S'1'
sS'Won'
p1152
S'0'
sS'GfM'
p1153
S'0'
sS'Draw'
p1154
S'1'
sS'Mat'
p1155
S'1'
sS'Conv'
p1156
S'0'
sS'Tries'
p1157
S'0'
sS'Pts'
p1158
S'0'
sa(dp1159
S'Pens'
p1160
S'0'
sS'Sub'
p1161
S'0'
sS'Lost'
p1162
S'0'
sS'Drop'
p1163
S'0'
sS'Start'
p1164
S'1'
sS'Won'
p1165
S'0'
sS'GfM'
p1166
S'0'
sS'Draw'
p1167
S'1'
sS'Mat'
p1168
S'1'
sS'Conv'
p1169
S'0'
sS'Tries'
p1170
S'0'
sS'Pts'
p1171
S'0'
sa(dp1172
S'Pens'
p1173
S'0'
sS'Sub'
p1174
S'0'
sS'Lost'
p1175
S'0'
sS'Drop'
p1176
S'0'
sS'Start'
p1177
S'1'
sS'Won'
p1178
S'0'
sS'GfM'
p1179
S'0'
sS'Draw'
p1180
S'1'
sS'Mat'
p1181
S'1'
sS'Conv'
p1182
S'0'
sS'Tries'
p1183
S'0'
sS'Pts'
p1184
S'0'
sa(dp1185
S'Pens'
p1186
S'0'
sS'Sub'
p1187
S'0'
sS'Lost'
p1188
S'0'
sS'Drop'
p1189
S'0'
sS'Start'
p1190
S'1'
sS'Won'
p1191
S'0'
sS'GfM'
p1192
S'0'
sS'Draw'
p1193
S'1'
sS'Mat'
p1194
S'1'
sS'Conv'
p1195
S'0'
sS'Tries'
p1196
S'0'
sS'Pts'
p1197
S'0'
sa(dp1198
S'Pens'
p1199
S'0'
sS'Sub'
p1200
S'0'
sS'Lost'
p1201
S'0'
sS'Drop'
p1202
S'0'
sS'Start'
p1203
S'1'
sS'Won'
p1204
S'0'
sS'GfM'
p1205
S'0'
sS'Draw'
p1206
S'1'
sS'Mat'
p1207
S'1'
sS'Conv'
p1208
S'0'
sS'Tries'
p1209
S'0'
sS'Pts'
p1210
S'0'
sa(dp1211
S'Pens'
p1212
S'0'
sS'Sub'
p1213
S'0'
sS'Lost'
p1214
S'0'
sS'Drop'
p1215
S'0'
sS'Start'
p1216
S'1'
sS'Won'
p1217
S'0'
sS'GfM'
p1218
S'0'
sS'Draw'
p1219
S'1'
sS'Mat'
p1220
S'1'
sS'Conv'
p1221
S'0'
sS'Tries'
p1222
S'0'
sS'Pts'
p1223
S'0'
sa(dp1224
S'Pens'
p1225
S'0'
sS'Sub'
p1226
S'0'
sS'Lost'
p1227
S'0'
sS'Drop'
p1228
S'0'
sS'Start'
p1229
S'1'
sS'Won'
p1230
S'0'
sS'GfM'
p1231
S'0'
sS'Draw'
p1232
S'1'
sS'Mat'
p1233
S'1'
sS'Conv'
p1234
S'0'
sS'Tries'
p1235
S'0'
sS'Pts'
p1236
S'0'
sa(dp1237
S'Pens'
p1238
S'0'
sS'Sub'
p1239
S'0'
sS'Lost'
p1240
S'2'
sS'Drop'
p1241
S'0'
sS'Start'
p1242
S'2'
sS'Won'
p1243
S'0'
sS'GfM'
p1244
S'0'
sS'Draw'
p1245
S'0'
sS'Mat'
p1246
S'2'
sS'Conv'
p1247
S'0'
sS'Tries'
p1248
S'0'
sS'Pts'
p1249
S'0'
sa(dp1250
S'Pens'
p1251
S'0'
sS'Sub'
p1252
S'0'
sS'Lost'
p1253
S'1'
sS'Drop'
p1254
S'0'
sS'Start'
p1255
S'1'
sS'Won'
p1256
S'0'
sS'GfM'
p1257
S'0'
sS'Draw'
p1258
S'0'
sS'Mat'
p1259
S'1'
sS'Conv'
p1260
S'0'
sS'Tries'
p1261
S'0'
sS'Pts'
p1262
S'0'
sa(dp1263
S'Pens'
p1264
S'0'
sS'Sub'
p1265
S'0'
sS'Lost'
p1266
S'2'
sS'Drop'
p1267
S'0'
sS'Start'
p1268
S'2'
sS'Won'
p1269
S'0'
sS'GfM'
p1270
S'0'
sS'Draw'
p1271
S'0'
sS'Mat'
p1272
S'2'
sS'Conv'
p1273
S'0'
sS'Tries'
p1274
S'0'
sS'Pts'
p1275
S'0'
sa(dp1276
S'Pens'
p1277
S'0'
sS'Sub'
p1278
S'0'
sS'Lost'
p1279
S'2'
sS'Drop'
p1280
S'0'
sS'Start'
p1281
S'2'
sS'Won'
p1282
S'0'
sS'GfM'
p1283
S'0'
sS'Draw'
p1284
S'0'
sS'Mat'
p1285
S'2'
sS'Conv'
p1286
S'0'
sS'Tries'
p1287
S'0'
sS'Pts'
p1288
S'0'
sa(dp1289
S'Pens'
p1290
S'0'
sS'Sub'
p1291
S'0'
sS'Lost'
p1292
S'1'
sS'Drop'
p1293
S'0'
sS'Start'
p1294
S'1'
sS'Won'
p1295
S'0'
sS'GfM'
p1296
S'0'
sS'Draw'
p1297
S'0'
sS'Mat'
p1298
S'1'
sS'Conv'
p1299
S'0'
sS'Tries'
p1300
S'0'
sS'Pts'
p1301
S'0'
sa(dp1302
S'Pens'
p1303
S'0'
sS'Sub'
p1304
S'0'
sS'Lost'
p1305
S'2'
sS'Drop'
p1306
S'0'
sS'Start'
p1307
S'2'
sS'Won'
p1308
S'0'
sS'GfM'
p1309
S'0'
sS'Draw'
p1310
S'0'
sS'Mat'
p1311
S'2'
sS'Conv'
p1312
S'0'
sS'Tries'
p1313
S'0'
sS'Pts'
p1314
S'3'
sa(dp1315
S'Pens'
p1316
S'0'
sS'Sub'
p1317
S'1'
sS'Lost'
p1318
S'2'
sS'Drop'
p1319
S'0'
sS'Start'
p1320
S'1'
sS'Won'
p1321
S'0'
sS'GfM'
p1322
S'0'
sS'Draw'
p1323
S'0'
sS'Mat'
p1324
S'2'
sS'Conv'
p1325
S'0'
sS'Tries'
p1326
S'0'
sS'Pts'
p1327
S'0'
sa(dp1328
S'Pens'
p1329
S'1'
sS'Sub'
p1330
S'0'
sS'Lost'
p1331
S'2'
sS'Drop'
p1332
S'0'
sS'Start'
p1333
S'2'
sS'Won'
p1334
S'0'
sS'GfM'
p1335
S'0'
sS'Draw'
p1336
S'0'
sS'Mat'
p1337
S'2'
sS'Conv'
p1338
S'0'
sS'Tries'
p1339
S'0'
sS'Pts'
p1340
S'3'
sa(dp1341
S'Pens'
p1342
S'0'
sS'Sub'
p1343
S'0'
sS'Lost'
p1344
S'2'
sS'Drop'
p1345
S'0'
sS'Start'
p1346
S'2'
sS'Won'
p1347
S'0'
sS'GfM'
p1348
S'0'
sS'Draw'
p1349
S'0'
sS'Mat'
p1350
S'2'
sS'Conv'
p1351
S'0'
sS'Tries'
p1352
S'1'
sS'Pts'
p1353
S'3'
sa(dp1354
S'Pens'
p1355
S'0'
sS'Sub'
p1356
S'0'
sS'Lost'
p1357
S'1'
sS'Drop'
p1358
S'0'
sS'Start'
p1359
S'1'
sS'Won'
p1360
S'0'
sS'GfM'
p1361
S'0'
sS'Draw'
p1362
S'0'
sS'Mat'
p1363
S'1'
sS'Conv'
p1364
S'0'
sS'Tries'
p1365
S'0'
sS'Pts'
p1366
S'0'
sa(dp1367
S'Pens'
p1368
S'0'
sS'Sub'
p1369
S'0'
sS'Lost'
p1370
S'2'
sS'Drop'
p1371
S'0'
sS'Start'
p1372
S'2'
sS'Won'
p1373
S'0'
sS'GfM'
p1374
S'0'
sS'Draw'
p1375
S'0'
sS'Mat'
p1376
S'2'
sS'Conv'
p1377
S'0'
sS'Tries'
p1378
S'0'
sS'Pts'
p1379
S'0'
sa(dp1380
S'Pens'
p1381
S'0'
sS'Sub'
p1382
S'0'
sS'Lost'
p1383
S'1'
sS'Drop'
p1384
S'0'
sS'Start'
p1385
S'1'
sS'Won'
p1386
S'0'
sS'GfM'
p1387
S'0'
sS'Draw'
p1388
S'0'
sS'Mat'
p1389
S'1'
sS'Conv'
p1390
S'0'
sS'Tries'
p1391
S'0'
sS'Pts'
p1392
S'0'
sa(dp1393
S'Pens'
p1394
S'0'
sS'Sub'
p1395
S'0'
sS'Lost'
p1396
S'2'
sS'Drop'
p1397
S'0'
sS'Start'
p1398
S'2'
sS'Won'
p1399
S'0'
sS'GfM'
p1400
S'0'
sS'Draw'
p1401
S'0'
sS'Mat'
p1402
S'2'
sS'Conv'
p1403
S'0'
sS'Tries'
p1404
S'0'
sS'Pts'
p1405
S'0'
sa(dp1406
S'Pens'
p1407
S'0'
sS'Sub'
p1408
S'0'
sS'Lost'
p1409
S'3'
sS'Drop'
p1410
S'0'
sS'Start'
p1411
S'3'
sS'Won'
p1412
S'0'
sS'GfM'
p1413
S'0'
sS'Draw'
p1414
S'0'
sS'Mat'
p1415
S'3'
sS'Conv'
p1416
S'0'
sS'Tries'
p1417
S'0'
sS'Pts'
p1418
S'0'
sa(dp1419
S'Pens'
p1420
S'0'
sS'Sub'
p1421
S'0'
sS'Lost'
p1422
S'1'
sS'Drop'
p1423
S'0'
sS'Start'
p1424
S'1'
sS'Won'
p1425
S'0'
sS'GfM'
p1426
S'0'
sS'Draw'
p1427
S'0'
sS'Mat'
p1428
S'1'
sS'Conv'
p1429
S'0'
sS'Tries'
p1430
S'0'
sS'Pts'
p1431
S'0'
sa(dp1432
S'Pens'
p1433
S'0'
sS'Sub'
p1434
S'0'
sS'Lost'
p1435
S'1'
sS'Drop'
p1436
S'0'
sS'Start'
p1437
S'1'
sS'Won'
p1438
S'0'
sS'GfM'
p1439
S'0'
sS'Draw'
p1440
S'0'
sS'Mat'
p1441
S'1'
sS'Conv'
p1442
S'0'
sS'Tries'
p1443
S'0'
sS'Pts'
p1444
S'0'
sa(dp1445
S'Pens'
p1446
S'0'
sS'Sub'
p1447
S'0'
sS'Lost'
p1448
S'1'
sS'Drop'
p1449
S'0'
sS'Start'
p1450
S'1'
sS'Won'
p1451
S'0'
sS'GfM'
p1452
S'0'
sS'Draw'
p1453
S'0'
sS'Mat'
p1454
S'1'
sS'Conv'
p1455
S'0'
sS'Tries'
p1456
S'0'
sS'Pts'
p1457
S'0'
sa(dp1458
S'Pens'
p1459
S'0'
sS'Sub'
p1460
S'0'
sS'Lost'
p1461
S'1'
sS'Drop'
p1462
S'0'
sS'Start'
p1463
S'1'
sS'Won'
p1464
S'0'
sS'GfM'
p1465
S'0'
sS'Draw'
p1466
S'0'
sS'Mat'
p1467
S'1'
sS'Conv'
p1468
S'0'
sS'Tries'
p1469
S'0'
sS'Pts'
p1470
S'0'
sa(dp1471
S'Pens'
p1472
S'0'
sS'Sub'
p1473
S'0'
sS'Lost'
p1474
S'1'
sS'Drop'
p1475
S'0'
sS'Start'
p1476
S'1'
sS'Won'
p1477
S'0'
sS'GfM'
p1478
S'0'
sS'Draw'
p1479
S'0'
sS'Mat'
p1480
S'1'
sS'Conv'
p1481
S'0'
sS'Tries'
p1482
S'0'
sS'Pts'
p1483
S'0'
sa(dp1484
S'Pens'
p1485
S'0'
sS'Sub'
p1486
S'0'
sS'Lost'
p1487
S'2'
sS'Drop'
p1488
S'0'
sS'Start'
p1489
S'2'
sS'Won'
p1490
S'0'
sS'GfM'
p1491
S'0'
sS'Draw'
p1492
S'0'
sS'Mat'
p1493
S'2'
sS'Conv'
p1494
S'0'
sS'Tries'
p1495
S'0'
sS'Pts'
p1496
S'0'
sa(dp1497
S'Pens'
p1498
S'0'
sS'Sub'
p1499
S'0'
sS'Lost'
p1500
S'1'
sS'Drop'
p1501
S'0'
sS'Start'
p1502
S'1'
sS'Won'
p1503
S'0'
sS'GfM'
p1504
S'0'
sS'Draw'
p1505
S'0'
sS'Mat'
p1506
S'1'
sS'Conv'
p1507
S'0'
sS'Tries'
p1508
S'0'
sS'Pts'
p1509
S'0'
sa(dp1510
S'Pens'
p1511
S'0'
sS'Sub'
p1512
S'0'
sS'Lost'
p1513
S'2'
sS'Drop'
p1514
S'0'
sS'Start'
p1515
S'2'
sS'Won'
p1516
S'0'
sS'GfM'
p1517
S'0'
sS'Draw'
p1518
S'0'
sS'Mat'
p1519
S'2'
sS'Conv'
p1520
S'0'
sS'Tries'
p1521
S'0'
sS'Pts'
p1522
S'0'
sa(dp1523
S'Pens'
p1524
S'0'
sS'Sub'
p1525
S'0'
sS'Lost'
p1526
S'1'
sS'Drop'
p1527
S'0'
sS'Start'
p1528
S'1'
sS'Won'
p1529
S'0'
sS'GfM'
p1530
S'0'
sS'Draw'
p1531
S'0'
sS'Mat'
p1532
S'1'
sS'Conv'
p1533
S'0'
sS'Tries'
p1534
S'0'
sS'Pts'
p1535
S'0'
sa(dp1536
S'Pens'
p1537
S'0'
sS'Sub'
p1538
S'0'
sS'Lost'
p1539
S'1'
sS'Drop'
p1540
S'0'
sS'Start'
p1541
S'1'
sS'Won'
p1542
S'0'
sS'GfM'
p1543
S'0'
sS'Draw'
p1544
S'0'
sS'Mat'
p1545
S'1'
sS'Conv'
p1546
S'0'
sS'Tries'
p1547
S'0'
sS'Pts'
p1548
S'0'
sa(dp1549
S'Pens'
p1550
S'0'
sS'Sub'
p1551
S'0'
sS'Lost'
p1552
S'1'
sS'Drop'
p1553
S'0'
sS'Start'
p1554
S'1'
sS'Won'
p1555
S'0'
sS'GfM'
p1556
S'0'
sS'Draw'
p1557
S'0'
sS'Mat'
p1558
S'1'
sS'Conv'
p1559
S'0'
sS'Tries'
p1560
S'0'
sS'Pts'
p1561
S'0'
sa(dp1562
S'Pens'
p1563
S'0'
sS'Sub'
p1564
S'0'
sS'Lost'
p1565
S'2'
sS'Drop'
p1566
S'0'
sS'Start'
p1567
S'2'
sS'Won'
p1568
S'0'
sS'GfM'
p1569
S'0'
sS'Draw'
p1570
S'0'
sS'Mat'
p1571
S'2'
sS'Conv'
p1572
S'0'
sS'Tries'
p1573
S'0'
sS'Pts'
p1574
S'0'
sa(dp1575
S'Pens'
p1576
S'0'
sS'Sub'
p1577
S'0'
sS'Lost'
p1578
S'1'
sS'Drop'
p1579
S'0'
sS'Start'
p1580
S'1'
sS'Won'
p1581
S'0'
sS'GfM'
p1582
S'0'
sS'Draw'
p1583
S'0'
sS'Mat'
p1584
S'1'
sS'Conv'
p1585
S'0'
sS'Tries'
p1586
S'0'
sS'Pts'
p1587
S'0'
sa(dp1588
S'Pens'
p1589
S'0'
sS'Sub'
p1590
S'0'
sS'Lost'
p1591
S'1'
sS'Drop'
p1592
S'0'
sS'Start'
p1593
S'1'
sS'Won'
p1594
S'0'
sS'GfM'
p1595
S'0'
sS'Draw'
p1596
S'0'
sS'Mat'
p1597
S'1'
sS'Conv'
p1598
S'0'
sS'Tries'
p1599
S'0'
sS'Pts'
p1600
S'0'
sa(dp1601
S'Pens'
p1602
S'0'
sS'Sub'
p1603
S'0'
sS'Lost'
p1604
S'1'
sS'Drop'
p1605
S'0'
sS'Start'
p1606
S'1'
sS'Won'
p1607
S'0'
sS'GfM'
p1608
S'0'
sS'Draw'
p1609
S'0'
sS'Mat'
p1610
S'1'
sS'Conv'
p1611
S'0'
sS'Tries'
p1612
S'0'
sS'Pts'
p1613
S'0'
sa(dp1614
S'Pens'
p1615
S'0'
sS'Sub'
p1616
S'0'
sS'Lost'
p1617
S'1'
sS'Drop'
p1618
S'0'
sS'Start'
p1619
S'1'
sS'Won'
p1620
S'0'
sS'GfM'
p1621
S'0'
sS'Draw'
p1622
S'0'
sS'Mat'
p1623
S'1'
sS'Conv'
p1624
S'0'
sS'Tries'
p1625
S'0'
sS'Pts'
p1626
S'0'
sa(dp1627
S'Pens'
p1628
S'0'
sS'Sub'
p1629
S'0'
sS'Lost'
p1630
S'1'
sS'Drop'
p1631
S'0'
sS'Start'
p1632
S'1'
sS'Won'
p1633
S'0'
sS'GfM'
p1634
S'0'
sS'Draw'
p1635
S'0'
sS'Mat'
p1636
S'1'
sS'Conv'
p1637
S'0'
sS'Tries'
p1638
S'0'
sS'Pts'
p1639
S'0'
sa(dp1640
S'Pens'
p1641
S'0'
sS'Sub'
p1642
S'0'
sS'Lost'
p1643
S'3'
sS'Drop'
p1644
S'0'
sS'Start'
p1645
S'3'
sS'Won'
p1646
S'0'
sS'GfM'
p1647
S'0'
sS'Draw'
p1648
S'0'
sS'Mat'
p1649
S'3'
sS'Conv'
p1650
S'0'
sS'Tries'
p1651
S'0'
sS'Pts'
p1652
S'0'
sa(dp1653
S'Pens'
p1654
S'0'
sS'Sub'
p1655
S'0'
sS'Lost'
p1656
S'1'
sS'Drop'
p1657
S'0'
sS'Start'
p1658
S'1'
sS'Won'
p1659
S'0'
sS'GfM'
p1660
S'0'
sS'Draw'
p1661
S'0'
sS'Mat'
p1662
S'1'
sS'Conv'
p1663
S'0'
sS'Tries'
p1664
S'0'
sS'Pts'
p1665
S'0'
sa(dp1666
S'Pens'
p1667
S'0'
sS'Sub'
p1668
S'0'
sS'Lost'
p1669
S'2'
sS'Drop'
p1670
S'0'
sS'Start'
p1671
S'2'
sS'Won'
p1672
S'0'
sS'GfM'
p1673
S'0'
sS'Draw'
p1674
S'0'
sS'Mat'
p1675
S'2'
sS'Conv'
p1676
S'0'
sS'Tries'
p1677
S'0'
sS'Pts'
p1678
S'0'
sa(dp1679
S'Pens'
p1680
S'0'
sS'Sub'
p1681
S'0'
sS'Lost'
p1682
S'1'
sS'Drop'
p1683
S'0'
sS'Start'
p1684
S'1'
sS'Won'
p1685
S'0'
sS'GfM'
p1686
S'0'
sS'Draw'
p1687
S'0'
sS'Mat'
p1688
S'1'
sS'Conv'
p1689
S'0'
sS'Tries'
p1690
S'0'
sS'Pts'
p1691
S'0'
sa(dp1692
S'Pens'
p1693
S'0'
sS'Sub'
p1694
S'0'
sS'Lost'
p1695
S'2'
sS'Drop'
p1696
S'0'
sS'Start'
p1697
S'2'
sS'Won'
p1698
S'0'
sS'GfM'
p1699
S'0'
sS'Draw'
p1700
S'0'
sS'Mat'
p1701
S'2'
sS'Conv'
p1702
S'0'
sS'Tries'
p1703
S'0'
sS'Pts'
p1704
S'0'
sa(dp1705
S'Pens'
p1706
S'0'
sS'Sub'
p1707
S'0'
sS'Lost'
p1708
S'1'
sS'Drop'
p1709
S'0'
sS'Start'
p1710
S'1'
sS'Won'
p1711
S'0'
sS'GfM'
p1712
S'0'
sS'Draw'
p1713
S'0'
sS'Mat'
p1714
S'1'
sS'Conv'
p1715
S'0'
sS'Tries'
p1716
S'0'
sS'Pts'
p1717
S'0'
sa(dp1718
S'Pens'
p1719
S'0'
sS'Sub'
p1720
S'0'
sS'Lost'
p1721
S'4'
sS'Drop'
p1722
S'0'
sS'Start'
p1723
S'4'
sS'Won'
p1724
S'0'
sS'GfM'
p1725
S'0'
sS'Draw'
p1726
S'0'
sS'Mat'
p1727
S'4'
sS'Conv'
p1728
S'0'
sS'Tries'
p1729
S'0'
sS'Pts'
p1730
S'0'
sa(dp1731
S'Pens'
p1732
S'0'
sS'Sub'
p1733
S'0'
sS'Lost'
p1734
S'1'
sS'Drop'
p1735
S'0'
sS'Start'
p1736
S'1'
sS'Won'
p1737
S'0'
sS'GfM'
p1738
S'0'
sS'Draw'
p1739
S'0'
sS'Mat'
p1740
S'1'
sS'Conv'
p1741
S'0'
sS'Tries'
p1742
S'0'
sS'Pts'
p1743
S'0'
sa(dp1744
S'Pens'
p1745
S'0'
sS'Sub'
p1746
S'0'
sS'Lost'
p1747
S'1'
sS'Drop'
p1748
S'0'
sS'Start'
p1749
S'1'
sS'Won'
p1750
S'0'
sS'GfM'
p1751
S'0'
sS'Draw'
p1752
S'0'
sS'Mat'
p1753
S'1'
sS'Conv'
p1754
S'0'
sS'Tries'
p1755
S'0'
sS'Pts'
p1756
S'0'
sa(dp1757
S'Pens'
p1758
S'0'
sS'Sub'
p1759
S'0'
sS'Lost'
p1760
S'2'
sS'Drop'
p1761
S'0'
sS'Start'
p1762
S'2'
sS'Won'
p1763
S'0'
sS'GfM'
p1764
S'0'
sS'Draw'
p1765
S'0'
sS'Mat'
p1766
S'2'
sS'Conv'
p1767
S'0'
sS'Tries'
p1768
S'0'
sS'Pts'
p1769
S'0'
sa(dp1770
S'Pens'
p1771
S'0'
sS'Sub'
p1772
S'0'
sS'Lost'
p1773
S'1'
sS'Drop'
p1774
S'0'
sS'Start'
p1775
S'1'
sS'Won'
p1776
S'0'
sS'GfM'
p1777
S'0'
sS'Draw'
p1778
S'0'
sS'Mat'
p1779
S'1'
sS'Conv'
p1780
S'0'
sS'Tries'
p1781
S'0'
sS'Pts'
p1782
S'0'
sa(dp1783
S'Pens'
p1784
S'0'
sS'Sub'
p1785
S'0'
sS'Lost'
p1786
S'2'
sS'Drop'
p1787
S'0'
sS'Start'
p1788
S'2'
sS'Won'
p1789
S'0'
sS'GfM'
p1790
S'0'
sS'Draw'
p1791
S'0'
sS'Mat'
p1792
S'2'
sS'Conv'
p1793
S'0'
sS'Tries'
p1794
S'0'
sS'Pts'
p1795
S'0'
sa(dp1796
S'Pens'
p1797
S'0'
sS'Sub'
p1798
S'0'
sS'Lost'
p1799
S'1'
sS'Drop'
p1800
S'0'
sS'Start'
p1801
S'1'
sS'Won'
p1802
S'0'
sS'GfM'
p1803
S'0'
sS'Draw'
p1804
S'0'
sS'Mat'
p1805
S'1'
sS'Conv'
p1806
S'0'
sS'Tries'
p1807
S'0'
sS'Pts'
p1808
S'0'
sa(dp1809
S'Pens'
p1810
S'0'
sS'Sub'
p1811
S'0'
sS'Lost'
p1812
S'1'
sS'Drop'
p1813
S'0'
sS'Start'
p1814
S'1'
sS'Won'
p1815
S'0'
sS'GfM'
p1816
S'0'
sS'Draw'
p1817
S'0'
sS'Mat'
p1818
S'1'
sS'Conv'
p1819
S'0'
sS'Tries'
p1820
S'0'
sS'Pts'
p1821
S'0'
sa(dp1822
S'Pens'
p1823
S'0'
sS'Sub'
p1824
S'0'
sS'Lost'
p1825
S'1'
sS'Drop'
p1826
S'0'
sS'Start'
p1827
S'1'
sS'Won'
p1828
S'0'
sS'GfM'
p1829
S'0'
sS'Draw'
p1830
S'0'
sS'Mat'
p1831
S'1'
sS'Conv'
p1832
S'0'
sS'Tries'
p1833
S'0'
sS'Pts'
p1834
S'0'
sa(dp1835
S'Pens'
p1836
S'0'
sS'Sub'
p1837
S'0'
sS'Lost'
p1838
S'8'
sS'Drop'
p1839
S'0'
sS'Start'
p1840
S'13'
p1841
sS'Won'
p1842
S'5'
sS'Draw'
p1843
S'0'
sS'%'
S'38.46'
p1844
sS'Mat'
p1845
S'13'
p1846
sS'Conv'
p1847
S'0'
sS'Tries'
p1848
S'0'
sS'Pts'
p1849
S'0'
sa(dp1850
S'Pens'
p1851
S'0'
sS'Sub'
p1852
S'0'
sS'Lost'
p1853
S'4'
sS'Drop'
p1854
S'0'
sS'Start'
p1855
S'4'
sS'Won'
p1856
S'0'
sS'Draw'
p1857
S'0'
sS'%'
S'0.00'
p1858
sS'Mat'
p1859
S'4'
sS'Conv'
p1860
S'0'
sS'Tries'
p1861
S'0'
sS'Pts'
p1862
S'0'
sa(dp1863
S'Pens'
p1864
S'0'
sS'Sub'
p1865
S'0'
sS'Lost'
p1866
S'3'
sS'Drop'
p1867
S'0'
sS'Start'
p1868
S'3'
sS'Won'
p1869
S'0'
sS'Draw'
p1870
S'0'
sS'%'
S'0.00'
p1871
sS'Mat'
p1872
S'3'
sS'Conv'
p1873
S'0'
sS'Tries'
p1874
S'0'
sS'Pts'
p1875
S'0'
sa(dp1876
S'Pens'
p1877
S'0'
sS'Sub'
p1878
S'0'
sS'Lost'
p1879
S'3'
sS'Drop'
p1880
S'0'
sS'Start'
p1881
S'3'
sS'Won'
p1882
S'0'
sS'Draw'
p1883
S'0'
sS'%'
S'0.00'
p1884
sS'Mat'
p1885
S'3'
sS'Conv'
p1886
S'0'
sS'Tries'
p1887
S'0'
sS'Pts'
p1888
S'0'
sa(dp1889
S'Pens'
p1890
S'0'
sS'Sub'
p1891
S'0'
sS'Lost'
p1892
S'3'
sS'Drop'
p1893
S'0'
sS'Start'
p1894
S'3'
sS'Won'
p1895
S'0'
sS'Draw'
p1896
S'0'
sS'%'
S'0.00'
p1897
sS'Mat'
p1898
S'3'
sS'Conv'
p1899
S'0'
sS'Tries'
p1900
S'0'
sS'Pts'
p1901
S'0'
sa(dp1902
S'Pens'
p1903
S'0'
sS'Sub'
p1904
S'0'
sS'Lost'
p1905
S'6'
sS'Drop'
p1906
S'0'
sS'Start'
p1907
S'9'
sS'Won'
p1908
S'2'
sS'Draw'
p1909
S'1'
sS'%'
S'27.77'
p1910
sS'Mat'
p1911
S'9'
sS'Conv'
p1912
S'0'
sS'Tries'
p1913
S'0'
sS'Pts'
p1914
S'0'
sa(dp1915
S'Pens'
p1916
S'0'
sS'Sub'
p1917
S'0'
sS'Lost'
p1918
S'9'
sS'Drop'
p1919
S'0'
sS'Start'
p1920
S'14'
p1921
sS'Won'
p1922
S'4'
sS'Draw'
p1923
S'1'
sS'%'
S'32.14'
p1924
sS'Mat'
p1925
S'14'
p1926
sS'Conv'
p1927
S'0'
sS'Tries'
p1928
S'1'
sS'Pts'
p1929
S'4'
sa(dp1930
S'Pens'
p1931
S'0'
sS'Sub'
p1932
S'0'
sS'Lost'
p1933
S'4'
sS'Drop'
p1934
S'0'
sS'Start'
p1935
S'4'
sS'Won'
p1936
S'0'
sS'Draw'
p1937
S'0'
sS'%'
S'0.00'
p1938
sS'Mat'
p1939
S'4'
sS'Conv'
p1940
S'0'
sS'Tries'
p1941
S'0'
sS'Pts'
p1942
S'0'
sa(dp1943
S'Pens'
p1944
S'0'
sS'Sub'
p1945
S'0'
sS'Lost'
p1946
S'4'
sS'Drop'
p1947
S'0'
sS'Start'
p1948
S'6'
sS'Won'
p1949
S'1'
sS'Draw'
p1950
S'1'
sS'%'
S'25.00'
p1951
sS'Mat'
p1952
S'6'
sS'Conv'
p1953
S'0'
sS'Tries'
p1954
S'0'
sS'Pts'
p1955
S'0'
sa(dp1956
S'Pens'
p1957
S'10'
p1958
sS'Sub'
p1959
S'1'
sS'Lost'
p1960
S'15'
p1961
sS'Drop'
p1962
S'0'
sS'Start'
p1963
S'26'
p1964
sS'Won'
p1965
S'10'
p1966
sS'Draw'
p1967
S'2'
sS'%'
S'40.74'
p1968
sS'Mat'
p1969
S'27'
p1970
sS'Conv'
p1971
S'2'
sS'Tries'
p1972
S'2'
sS'Pts'
p1973
S'42'
p1974
sa(dp1975
S'Pens'
p1976
S'0'
sS'Sub'
p1977
S'0'
sS'Lost'
p1978
S'3'
sS'Drop'
p1979
S'0'
sS'Start'
p1980
S'3'
sS'Won'
p1981
S'0'
sS'Draw'
p1982
S'0'
sS'%'
S'0.00'
p1983
sS'Mat'
p1984
S'3'
sS'Conv'
p1985
S'0'
sS'Tries'
p1986
S'0'
sS'Pts'
p1987
S'0'
sa(dp1988
S'Pens'
p1989
S'1'
sS'Sub'
p1990
S'0'
sS'Lost'
p1991
S'3'
sS'Drop'
p1992
S'0'
sS'Start'
p1993
S'3'
sS'Won'
p1994
S'0'
sS'Draw'
p1995
S'0'
sS'%'
S'0.00'
p1996
sS'Mat'
p1997
S'3'
sS'Conv'
p1998
S'1'
sS'Tries'
p1999
S'0'
sS'Pts'
p2000
S'5'
sa(dp2001
S'Pens'
p2002
S'0'
sS'Sub'
p2003
S'0'
sS'Lost'
p2004
S'3'
sS'Drop'
p2005
S'0'
sS'Start'
p2006
S'3'
sS'Won'
p2007
S'0'
sS'Draw'
p2008
S'0'
sS'%'
S'0.00'
p2009
sS'Mat'
p2010
S'3'
sS'Conv'
p2011
S'0'
sS'Tries'
p2012
S'1'
sS'Pts'
p2013
S'4'
sa(dp2014
S'Pens'
p2015
S'0'
sS'Sub'
p2016
S'0'
sS'Lost'
p2017
S'2'
sS'Drop'
p2018
S'0'
sS'Start'
p2019
S'2'
sS'Won'
p2020
S'0'
sS'Draw'
p2021
S'0'
sS'%'
S'0.00'
p2022
sS'Mat'
p2023
S'2'
sS'Conv'
p2024
S'0'
sS'Tries'
p2025
S'0'
sS'Pts'
p2026
S'0'
sa(dp2027
S'Pens'
p2028
S'0'
sS'Sub'
p2029
S'1'
sS'Lost'
p2030
S'3'
sS'Drop'
p2031
S'0'
sS'Start'
p2032
S'7'
sS'Won'
p2033
S'3'
sS'Draw'
p2034
S'2'
sS'%'
S'50.00'
p2035
sS'Mat'
p2036
S'8'
sS'Conv'
p2037
S'0'
sS'Tries'
p2038
S'0'
sS'Pts'
p2039
S'0'
sa(dp2040
S'Pens'
p2041
S'0'
sS'Sub'
p2042
S'0'
sS'Lost'
p2043
S'1'
sS'Drop'
p2044
S'0'
sS'Start'
p2045
S'1'
sS'Won'
p2046
S'0'
sS'Draw'
p2047
S'0'
sS'%'
S'0.00'
p2048
sS'Mat'
p2049
S'1'
sS'Conv'
p2050
S'0'
sS'Tries'
p2051
S'0'
sS'Pts'
p2052
S'0'
sa(dp2053
S'Pens'
p2054
S'0'
sS'Sub'
p2055
S'0'
sS'Lost'
p2056
S'1'
sS'Drop'
p2057
S'0'
sS'Start'
p2058
S'1'
sS'Won'
p2059
S'0'
sS'Draw'
p2060
S'0'
sS'%'
S'0.00'
p2061
sS'Mat'
p2062
S'1'
sS'Conv'
p2063
S'0'
sS'Tries'
p2064
S'0'
sS'Pts'
p2065
S'0'
sa(dp2066
S'Pens'
p2067
S'0'
sS'Sub'
p2068
S'1'
sS'Lost'
p2069
S'1'
sS'Drop'
p2070
S'0'
sS'Start'
p2071
S'0'
sS'Won'
p2072
S'0'
sS'Draw'
p2073
S'0'
sS'%'
S'0.00'
p2074
sS'Mat'
p2075
S'1'
sS'Conv'
p2076
S'0'
sS'Tries'
p2077
S'1'
sS'Pts'
p2078
S'4'
sa(dp2079
S'Pens'
p2080
S'0'
sS'Sub'
p2081
S'0'
sS'Lost'
p2082
S'1'
sS'Drop'
p2083
S'0'
sS'Start'
p2084
S'1'
sS'Won'
p2085
S'0'
sS'Draw'
p2086
S'0'
sS'%'
S'0.00'
p2087
sS'Mat'
p2088
S'1'
sS'Conv'
p2089
S'0'
sS'Tries'
p2090
S'0'
sS'Pts'
p2091
S'0'
sa(dp2092
S'Pens'
p2093
S'0'
sS'Sub'
p2094
S'0'
sS'Lost'
p2095
S'1'
sS'Drop'
p2096
S'0'
sS'Start'
p2097
S'2'
sS'Won'
p2098
S'1'
sS'Draw'
p2099
S'0'
sS'%'
S'50.00'
p2100
sS'Mat'
p2101
S'2'
sS'Conv'
p2102
S'0'
sS'Tries'
p2103
S'0'
sS'Pts'
p2104
S'0'
sa(dp2105
S'Pens'
p2106
S'0'
sS'Sub'
p2107
S'0'
sS'Lost'
p2108
S'4'
sS'Drop'
p2109
S'0'
sS'Start'
p2110
S'6'
sS'Won'
p2111
S'1'
sS'Draw'
p2112
S'1'
sS'%'
S'25.00'
p2113
sS'Mat'
p2114
S'6'
sS'Conv'
p2115
S'0'
sS'Tries'
p2116
S'0'
sS'Pts'
p2117
S'0'
sa(dp2118
S'Pens'
p2119
S'0'
sS'Sub'
p2120
S'0'
sS'Lost'
p2121
S'4'
sS'Drop'
p2122
S'0'
sS'Start'
p2123
S'7'
sS'Won'
p2124
S'2'
sS'Draw'
p2125
S'1'
sS'%'
S'35.71'
p2126
sS'Mat'
p2127
S'7'
sS'Conv'
p2128
S'0'
sS'Tries'
p2129
S'0'
sS'Pts'
p2130
S'0'
sa(dp2131
S'Pens'
p2132
S'0'
sS'Sub'
p2133
S'0'
sS'Lost'
p2134
S'1'
sS'Drop'
p2135
S'0'
sS'Start'
p2136
S'2'
sS'Won'
p2137
S'0'
sS'Draw'
p2138
S'1'
sS'%'
S'25.00'
p2139
sS'Mat'
p2140
S'2'
sS'Conv'
p2141
S'0'
sS'Tries'
p2142
S'0'
sS'Pts'
p2143
S'0'
sa(dp2144
S'Pens'
p2145
S'0'
sS'Sub'
p2146
S'0'
sS'Lost'
p2147
S'1'
sS'Drop'
p2148
S'0'
sS'Start'
p2149
S'1'
sS'Won'
p2150
S'0'
sS'Draw'
p2151
S'0'
sS'%'
S'0.00'
p2152
sS'Mat'
p2153
S'1'
sS'Conv'
p2154
S'0'
sS'Tries'
p2155
S'0'
sS'Pts'
p2156
S'0'
sa(dp2157
S'Pens'
p2158
S'0'
sS'Sub'
p2159
S'0'
sS'Lost'
p2160
S'4'
sS'Drop'
p2161
S'0'
sS'Start'
p2162
S'7'
sS'Won'
p2163
S'2'
sS'Draw'
p2164
S'1'
sS'%'
S'35.71'
p2165
sS'Mat'
p2166
S'7'
sS'Conv'
p2167
S'0'
sS'Tries'
p2168
S'0'
sS'Pts'
p2169
S'0'
sa(dp2170
S'Pens'
p2171
S'0'
sS'Sub'
p2172
S'0'
sS'Lost'
p2173
S'1'
sS'Drop'
p2174
S'0'
sS'Start'
p2175
S'1'
sS'Won'
p2176
S'0'
sS'Draw'
p2177
S'0'
sS'%'
S'0.00'
p2178
sS'Mat'
p2179
S'1'
sS'Conv'
p2180
S'0'
sS'Tries'
p2181
S'0'
sS'Pts'
p2182
S'0'
sa(dp2183
S'Pens'
p2184
S'0'
sS'Sub'
p2185
S'0'
sS'Lost'
p2186
S'2'
sS'Drop'
p2187
S'0'
sS'Start'
p2188
S'2'
sS'Won'
p2189
S'0'
sS'Draw'
p2190
S'0'
sS'%'
S'0.00'
p2191
sS'Mat'
p2192
S'2'
sS'Conv'
p2193
S'0'
sS'Tries'
p2194
S'0'
sS'Pts'
p2195
S'0'
sa(dp2196
S'Pens'
p2197
S'0'
sS'Sub'
p2198
S'0'
sS'Lost'
p2199
S'9'
sS'Drop'
p2200
S'0'
sS'Start'
p2201
S'18'
p2202
sS'Won'
p2203
S'8'
sS'Draw'
p2204
S'1'
sS'%'
S'47.22'
p2205
sS'Mat'
p2206
S'18'
p2207
sS'Conv'
p2208
S'0'
sS'Tries'
p2209
S'1'
sS'Pts'
p2210
S'4'
sa(dp2211
S'Pens'
p2212
S'0'
sS'Sub'
p2213
S'0'
sS'Lost'
p2214
S'1'
sS'Drop'
p2215
S'0'
sS'Start'
p2216
S'1'
sS'Won'
p2217
S'0'
sS'Draw'
p2218
S'0'
sS'%'
S'0.00'
p2219
sS'Mat'
p2220
S'1'
sS'Conv'
p2221
S'0'
sS'Tries'
p2222
S'0'
sS'Pts'
p2223
S'0'
sa(dp2224
S'Pens'
p2225
S'0'
sS'Sub'
p2226
S'0'
sS'Lost'
p2227
S'4'
sS'Drop'
p2228
S'0'
sS'Start'
p2229
S'9'
sS'Won'
p2230
S'4'
sS'Draw'
p2231
S'1'
sS'%'
S'50.00'
p2232
sS'Mat'
p2233
S'9'
sS'Conv'
p2234
S'0'
sS'Tries'
p2235
S'1'
sS'Pts'
p2236
S'4'
sa(dp2237
S'Pens'
p2238
S'0'
sS'Sub'
p2239
S'0'
sS'Lost'
p2240
S'3'
sS'Drop'
p2241
S'0'
sS'Start'
p2242
S'4'
sS'Won'
p2243
S'0'
sS'Draw'
p2244
S'1'
sS'%'
S'12.50'
p2245
sS'Mat'
p2246
S'4'
sS'Conv'
p2247
S'0'
sS'Tries'
p2248
S'0'
sS'Pts'
p2249
S'0'
sa(dp2250
S'Pens'
p2251
S'0'
sS'Sub'
p2252
S'0'
sS'Lost'
p2253
S'1'
sS'Drop'
p2254
S'0'
sS'Start'
p2255
S'2'
sS'Won'
p2256
S'0'
sS'Draw'
p2257
S'1'
sS'%'
S'25.00'
p2258
sS'Mat'
p2259
S'2'
sS'Conv'
p2260
S'0'
sS'Tries'
p2261
S'0'
sS'Pts'
p2262
S'0'
sa(dp2263
S'Pens'
p2264
S'1'
sS'Sub'
p2265
S'0'
sS'Lost'
p2266
S'2'
sS'Drop'
p2267
S'0'
sS'Start'
p2268
S'5'
sS'Won'
p2269
S'2'
sS'Draw'
p2270
S'1'
sS'%'
S'50.00'
p2271
sS'Mat'
p2272
S'5'
sS'Conv'
p2273
S'0'
sS'Tries'
p2274
S'0'
sS'Pts'
p2275
S'3'
sa(dp2276
S'Pens'
p2277
S'0'
sS'Sub'
p2278
S'0'
sS'Lost'
p2279
S'8'
sS'Drop'
p2280
S'0'
sS'Start'
p2281
S'13'
p2282
sS'Won'
p2283
S'4'
sS'Draw'
p2284
S'1'
sS'%'
S'34.61'
p2285
sS'Mat'
p2286
S'13'
p2287
sS'Conv'
p2288
S'0'
sS'Tries'
p2289
S'1'
sS'Pts'
p2290
S'4'
sa(dp2291
S'Pens'
p2292
S'0'
sS'Sub'
p2293
S'0'
sS'Lost'
p2294
S'7'
sS'Drop'
p2295
S'0'
sS'Start'
p2296
S'13'
p2297
sS'Won'
p2298
S'5'
sS'Draw'
p2299
S'1'
sS'%'
S'42.30'
p2300
sS'Mat'
p2301
S'13'
p2302
sS'Conv'
p2303
S'0'
sS'Tries'
p2304
S'0'
sS'Pts'
p2305
S'0'
sa(dp2306
S'Pens'
p2307
S'0'
sS'Sub'
p2308
S'1'
sS'Lost'
p2309
S'0'
sS'Drop'
p2310
S'0'
sS'Start'
p2311
S'0'
sS'Won'
p2312
S'0'
sS'Draw'
p2313
S'1'
sS'%'
S'50.00'
p2314
sS'Mat'
p2315
S'1'
sS'Conv'
p2316
S'0'
sS'Tries'
p2317
S'0'
sS'Pts'
p2318
S'0'
sa(dp2319
S'Pens'
p2320
S'0'
sS'Sub'
p2321
S'1'
sS'Lost'
p2322
S'1'
sS'Drop'
p2323
S'0'
sS'Start'
p2324
S'0'
sS'Won'
p2325
S'0'
sS'Draw'
p2326
S'0'
sS'%'
S'0.00'
p2327
sS'Mat'
p2328
S'1'
sS'Conv'
p2329
S'0'
sS'Tries'
p2330
S'0'
sS'Pts'
p2331
S'0'
sa(dp2332
S'Pens'
p2333
S'0'
sS'Sub'
p2334
S'0'
sS'Lost'
p2335
S'5'
sS'Drop'
p2336
S'0'
sS'Start'
p2337
S'11'
p2338
sS'Won'
p2339
S'6'
sS'Draw'
p2340
S'0'
sS'%'
S'54.54'
p2341
sS'Mat'
p2342
S'11'
p2343
sS'Conv'
p2344
S'0'
sS'Tries'
p2345
S'1'
sS'Pts'
p2346
S'4'
sa(dp2347
S'Pens'
p2348
S'0'
sS'Sub'
p2349
S'0'
sS'Lost'
p2350
S'6'
sS'Drop'
p2351
S'0'
sS'Start'
p2352
S'14'
p2353
sS'Won'
p2354
S'7'
sS'Draw'
p2355
S'1'
sS'%'
S'53.57'
p2356
sS'Mat'
p2357
S'14'
p2358
sS'Conv'
p2359
S'1'
sS'Tries'
p2360
S'0'
sS'Pts'
p2361
S'2'
sa(dp2362
S'Pens'
p2363
S'0'
sS'Sub'
p2364
S'0'
sS'Lost'
p2365
S'0'
sS'Drop'
p2366
S'0'
sS'Start'
p2367
S'2'
sS'Won'
p2368
S'2'
sS'Draw'
p2369
S'0'
sS'%'
S'100.00'
p2370
sS'Mat'
p2371
S'2'
sS'Conv'
p2372
S'0'
sS'Tries'
p2373
S'0'
sS'Pts'
p2374
S'0'
sa(dp2375
S'Pens'
p2376
S'0'
sS'Sub'
p2377
S'0'
sS'Lost'
p2378
S'5'
sS'Drop'
p2379
S'0'
sS'Start'
p2380
S'7'
sS'Won'
p2381
S'2'
sS'Draw'
p2382
S'0'
sS'%'
S'28.57'
p2383
sS'Mat'
p2384
S'7'
sS'Conv'
p2385
S'0'
sS'Tries'
p2386
S'0'
sS'Pts'
p2387
S'0'
sa(dp2388
S'Pens'
p2389
S'0'
sS'Sub'
p2390
S'0'
sS'Lost'
p2391
S'2'
sS'Drop'
p2392
S'0'
sS'Start'
p2393
S'4'
sS'Won'
p2394
S'2'
sS'Draw'
p2395
S'0'
sS'%'
S'50.00'
p2396
sS'Mat'
p2397
S'4'
sS'Conv'
p2398
S'0'
sS'Tries'
p2399
S'0'
sS'Pts'
p2400
S'0'
sa(dp2401
S'Pens'
p2402
S'9'
sS'Sub'
p2403
S'0'
sS'Lost'
p2404
S'14'
p2405
sS'Drop'
p2406
S'0'
sS'Start'
p2407
S'36'
p2408
sS'Won'
p2409
S'21'
p2410
sS'Draw'
p2411
S'1'
sS'%'
S'59.72'
p2412
sS'Mat'
p2413
S'36'
p2414
sS'Conv'
p2415
S'21'
p2416
sS'Tries'
p2417
S'3'
sS'Pts'
p2418
S'83'
p2419
sa(dp2420
S'Pens'
p2421
S'0'
sS'Sub'
p2422
S'0'
sS'Lost'
p2423
S'6'
sS'Drop'
p2424
S'0'
sS'Start'
p2425
S'9'
sS'Won'
p2426
S'3'
sS'Draw'
p2427
S'0'
sS'%'
S'33.33'
p2428
sS'Mat'
p2429
S'9'
sS'Conv'
p2430
S'0'
sS'Tries'
p2431
S'0'
sS'Pts'
p2432
S'0'
sa(dp2433
S'Pens'
p2434
S'0'
sS'Sub'
p2435
S'0'
sS'Lost'
p2436
S'12'
p2437
sS'Drop'
p2438
S'0'
sS'Start'
p2439
S'23'
p2440
sS'Won'
p2441
S'10'
p2442
sS'Draw'
p2443
S'1'
sS'%'
S'45.65'
p2444
sS'Mat'
p2445
S'23'
p2446
sS'Conv'
p2447
S'0'
sS'Tries'
p2448
S'2'
sS'Pts'
p2449
S'8'
sa(dp2450
S'Pens'
p2451
S'0'
sS'Sub'
p2452
S'0'
sS'Lost'
p2453
S'0'
sS'Drop'
p2454
S'0'
sS'Start'
p2455
S'2'
sS'Won'
p2456
S'2'
sS'Draw'
p2457
S'0'
sS'%'
S'100.00'
p2458
sS'Mat'
p2459
S'2'
sS'Conv'
p2460
S'0'
sS'Tries'
p2461
S'0'
sS'Pts'
p2462
S'0'
sa(dp2463
S'Pens'
p2464
S'0'
sS'Sub'
p2465
S'0'
sS'Lost'
p2466
S'0'
sS'Drop'
p2467
S'0'
sS'Start'
p2468
S'1'
sS'Won'
p2469
S'1'
sS'Draw'
p2470
S'0'
sS'%'
S'100.00'
p2471
sS'Mat'
p2472
S'1'
sS'Conv'
p2473
S'0'
sS'Tries'
p2474
S'0'
sS'Pts'
p2475
S'0'
sa(dp2476
S'Pens'
p2477
S'0'
sS'Sub'
p2478
S'0'
sS'Lost'
p2479
S'0'
sS'Drop'
p2480
S'0'
sS'Start'
p2481
S'2'
sS'Won'
p2482
S'2'
sS'Draw'
p2483
S'0'
sS'%'
S'100.00'
p2484
sS'Mat'
p2485
S'2'
sS'Conv'
p2486
S'0'
sS'Tries'
p2487
S'0'
sS'Pts'
p2488
S'0'
sa(dp2489
S'Pens'
p2490
S'0'
sS'Sub'
p2491
S'0'
sS'Lost'
p2492
S'3'
sS'Drop'
p2493
S'0'
sS'Start'
p2494
S'5'
sS'Won'
p2495
S'2'
sS'Draw'
p2496
S'0'
sS'%'
S'40.00'
p2497
sS'Mat'
p2498
S'5'
sS'Conv'
p2499
S'0'
sS'Tries'
p2500
S'0'
sS'Pts'
p2501
S'0'
sa(dp2502
S'Pens'
p2503
S'0'
sS'Sub'
p2504
S'0'
sS'Lost'
p2505
S'1'
sS'Drop'
p2506
S'0'
sS'Start'
p2507
S'1'
sS'Won'
p2508
S'0'
sS'Draw'
p2509
S'0'
sS'%'
S'0.00'
p2510
sS'Mat'
p2511
S'1'
sS'Conv'
p2512
S'0'
sS'Tries'
p2513
S'0'
sS'Pts'
p2514
S'0'
sa(dp2515
S'Pens'
p2516
S'0'
sS'Sub'
p2517
S'0'
sS'Lost'
p2518
S'1'
sS'Drop'
p2519
S'0'
sS'Start'
p2520
S'2'
sS'Won'
p2521
S'1'
sS'Draw'
p2522
S'0'
sS'%'
S'50.00'
p2523
sS'Mat'
p2524
S'2'
sS'Conv'
p2525
S'0'
sS'Tries'
p2526
S'0'
sS'Pts'
p2527
S'0'
sa(dp2528
S'Pens'
p2529
S'0'
sS'Sub'
p2530
S'0'
sS'Lost'
p2531
S'0'
sS'Drop'
p2532
S'0'
sS'Start'
p2533
S'1'
sS'Won'
p2534
S'1'
sS'Draw'
p2535
S'0'
sS'%'
S'100.00'
p2536
sS'Mat'
p2537
S'1'
sS'Conv'
p2538
S'0'
sS'Tries'
p2539
S'0'
sS'Pts'
p2540
S'0'
sa(dp2541
S'Pens'
p2542
S'0'
sS'Sub'
p2543
S'0'
sS'Lost'
p2544
S'1'
sS'Drop'
p2545
S'0'
sS'Start'
p2546
S'2'
sS'Won'
p2547
S'1'
sS'Draw'
p2548
S'0'
sS'%'
S'50.00'
p2549
sS'Mat'
p2550
S'2'
sS'Conv'
p2551
S'0'
sS'Tries'
p2552
S'0'
sS'Pts'
p2553
S'0'
sa(dp2554
S'Pens'
p2555
S'0'
sS'Sub'
p2556
S'0'
sS'Lost'
p2557
S'1'
sS'Drop'
p2558
S'0'
sS'Start'
p2559
S'2'
sS'Won'
p2560
S'1'
sS'Draw'
p2561
S'0'
sS'%'
S'50.00'
p2562
sS'Mat'
p2563
S'2'
sS'Conv'
p2564
S'0'
sS'Tries'
p2565
S'0'
sS'Pts'
p2566
S'0'
sa(dp2567
S'Pens'
p2568
S'0'
sS'Sub'
p2569
S'0'
sS'Lost'
p2570
S'3'
sS'Drop'
p2571
S'0'
sS'Start'
p2572
S'3'
sS'Won'
p2573
S'0'
sS'Draw'
p2574
S'0'
sS'%'
S'0.00'
p2575
sS'Mat'
p2576
S'3'
sS'Conv'
p2577
S'0'
sS'Tries'
p2578
S'0'
sS'Pts'
p2579
S'0'
sa(dp2580
S'Pens'
p2581
S'0'
sS'Sub'
p2582
S'0'
sS'Lost'
p2583
S'1'
sS'Drop'
p2584
S'0'
sS'Start'
p2585
S'1'
sS'Won'
p2586
S'0'
sS'Draw'
p2587
S'0'
sS'%'
S'0.00'
p2588
sS'Mat'
p2589
S'1'
sS'Conv'
p2590
S'0'
sS'Tries'
p2591
S'1'
sS'Pts'
p2592
S'4'
sa(dp2593
S'Pens'
p2594
S'0'
sS'Sub'
p2595
S'0'
sS'Lost'
p2596
S'1'
sS'Drop'
p2597
S'0'
sS'Start'
p2598
S'3'
sS'Won'
p2599
S'2'
sS'Draw'
p2600
S'0'
sS'%'
S'66.66'
p2601
sS'Mat'
p2602
S'3'
sS'Conv'
p2603
S'0'
sS'Tries'
p2604
S'1'
sS'Pts'
p2605
S'4'
sa(dp2606
S'Pens'
p2607
S'0'
sS'Sub'
p2608
S'0'
sS'Lost'
p2609
S'3'
sS'Drop'
p2610
S'0'
sS'Start'
p2611
S'4'
sS'Won'
p2612
S'1'
sS'Draw'
p2613
S'0'
sS'%'
S'25.00'
p2614
sS'Mat'
p2615
S'4'
sS'Conv'
p2616
S'0'
sS'Tries'
p2617
S'0'
sS'Pts'
p2618
S'0'
sa(dp2619
S'Pens'
p2620
S'0'
sS'Sub'
p2621
S'1'
sS'Lost'
p2622
S'10'
p2623
sS'Drop'
p2624
S'0'
sS'Start'
p2625
S'28'
p2626
sS'Won'
p2627
S'18'
p2628
sS'Draw'
p2629
S'1'
sS'%'
S'63.79'
p2630
sS'Mat'
p2631
S'29'
p2632
sS'Conv'
p2633
S'0'
sS'Tries'
p2634
S'2'
sS'Pts'
p2635
S'8'
sa(dp2636
S'Pens'
p2637
S'0'
sS'Sub'
p2638
S'0'
sS'Lost'
p2639
S'1'
sS'Drop'
p2640
S'0'
sS'Start'
p2641
S'2'
sS'Won'
p2642
S'1'
sS'Draw'
p2643
S'0'
sS'%'
S'50.00'
p2644
sS'Mat'
p2645
S'2'
sS'Conv'
p2646
S'0'
sS'Tries'
p2647
S'0'
sS'Pts'
p2648
S'0'
sa(dp2649
S'Pens'
p2650
S'0'
sS'Sub'
p2651
S'1'
sS'Lost'
p2652
S'1'
sS'Drop'
p2653
S'0'
sS'Start'
p2654
S'0'
sS'Won'
p2655
S'0'
sS'Draw'
p2656
S'0'
sS'%'
S'0.00'
p2657
sS'Mat'
p2658
S'1'
sS'Conv'
p2659
S'0'
sS'Tries'
p2660
S'0'
sS'Pts'
p2661
S'0'
sa(dp2662
S'Pens'
p2663
S'0'
sS'Sub'
p2664
S'0'
sS'Lost'
p2665
S'0'
sS'Drop'
p2666
S'0'
sS'Start'
p2667
S'1'
sS'Won'
p2668
S'1'
sS'Draw'
p2669
S'0'
sS'%'
S'100.00'
p2670
sS'Mat'
p2671
S'1'
sS'Conv'
p2672
S'0'
sS'Tries'
p2673
S'0'
sS'Pts'
p2674
S'0'
sa(dp2675
S'Pens'
p2676
S'0'
sS'Sub'
p2677
S'0'
sS'Lost'
p2678
S'0'
sS'Drop'
p2679
S'0'
sS'Start'
p2680
S'1'
sS'Won'
p2681
S'1'
sS'Draw'
p2682
S'0'
sS'%'
S'100.00'
p2683
sS'Mat'
p2684
S'1'
sS'Conv'
p2685
S'0'
sS'Tries'
p2686
S'0'
sS'Pts'
p2687
S'0'
sa(dp2688
S'Pens'
p2689
S'0'
sS'Sub'
p2690
S'0'
sS'Lost'
p2691
S'0'
sS'Drop'
p2692
S'0'
sS'Start'
p2693
S'1'
sS'Won'
p2694
S'1'
sS'Draw'
p2695
S'0'
sS'%'
S'100.00'
p2696
sS'Mat'
p2697
S'1'
sS'Conv'
p2698
S'0'
sS'Tries'
p2699
S'0'
sS'Pts'
p2700
S'0'
sa(dp2701
S'Pens'
p2702
S'2'
sS'Sub'
p2703
S'0'
sS'Lost'
p2704
S'1'
sS'Drop'
p2705
S'0'
sS'Start'
p2706
S'1'
sS'Won'
p2707
S'0'
sS'Draw'
p2708
S'0'
sS'%'
S'0.00'
p2709
sS'Mat'
p2710
S'1'
sS'Conv'
p2711
S'0'
sS'Tries'
p2712
S'0'
sS'Pts'
p2713
S'6'
sa(dp2714
S'Pens'
p2715
S'0'
sS'Sub'
p2716
S'0'
sS'Lost'
p2717
S'1'
sS'Drop'
p2718
S'0'
sS'Start'
p2719
S'1'
sS'Won'
p2720
S'0'
sS'Draw'
p2721
S'0'
sS'%'
S'0.00'
p2722
sS'Mat'
p2723
S'1'
sS'Conv'
p2724
S'0'
sS'Tries'
p2725
S'0'
sS'Pts'
p2726
S'0'
sa(dp2727
S'Pens'
p2728
S'0'
sS'Sub'
p2729
S'2'
sS'Lost'
p2730
S'11'
p2731
sS'Drop'
p2732
S'0'
sS'Start'
p2733
S'54'
p2734
sS'Won'
p2735
S'43'
p2736
sS'Draw'
p2737
S'2'
sS'%'
S'78.57'
p2738
sS'Mat'
p2739
S'56'
p2740
sS'Conv'
p2741
S'0'
sS'Tries'
p2742
S'13'
p2743
sS'Pts'
p2744
S'56'
p2745
sa(dp2746
S'Pens'
p2747
S'0'
sS'Sub'
p2748
S'0'
sS'Lost'
p2749
S'1'
sS'Drop'
p2750
S'0'
sS'Start'
p2751
S'1'
sS'Won'
p2752
S'0'
sS'Draw'
p2753
S'0'
sS'%'
S'0.00'
p2754
sS'Mat'
p2755
S'1'
sS'Conv'
p2756
S'0'
sS'Tries'
p2757
S'0'
sS'Pts'
p2758
S'0'
sa(dp2759
S'Pens'
p2760
S'0'
sS'Sub'
p2761
S'0'
sS'Lost'
p2762
S'3'
sS'Drop'
p2763
S'0'
sS'Start'
p2764
S'3'
sS'Won'
p2765
S'0'
sS'Draw'
p2766
S'0'
sS'%'
S'0.00'
p2767
sS'Mat'
p2768
S'3'
sS'Conv'
p2769
S'0'
sS'Tries'
p2770
S'0'
sS'Pts'
p2771
S'0'
sa(dp2772
S'Pens'
p2773
S'3'
sS'Sub'
p2774
S'5'
sS'Lost'
p2775
S'25'
p2776
sS'Drop'
p2777
S'0'
sS'Start'
p2778
S'56'
p2779
sS'Won'
p2780
S'35'
p2781
sS'Draw'
p2782
S'1'
sS'%'
S'58.19'
p2783
sS'Mat'
p2784
S'61'
p2785
sS'Conv'
p2786
S'4'
sS'Tries'
p2787
S'12'
p2788
sS'Pts'
p2789
S'71'
p2790
sa(dp2791
S'Pens'
p2792
S'0'
sS'Sub'
p2793
S'0'
sS'Lost'
p2794
S'1'
sS'Drop'
p2795
S'0'
sS'Start'
p2796
S'1'
sS'Won'
p2797
S'0'
sS'Draw'
p2798
S'0'
sS'%'
S'0.00'
p2799
sS'Mat'
p2800
S'1'
sS'Conv'
p2801
S'0'
sS'Tries'
p2802
S'0'
sS'Pts'
p2803
S'0'
sa(dp2804
S'Pens'
p2805
S'0'
sS'Sub'
p2806
S'0'
sS'Lost'
p2807
S'1'
sS'Drop'
p2808
S'0'
sS'Start'
p2809
S'1'
sS'Won'
p2810
S'0'
sS'Draw'
p2811
S'0'
sS'%'
S'0.00'
p2812
sS'Mat'
p2813
S'1'
sS'Conv'
p2814
S'0'
sS'Tries'
p2815
S'0'
sS'Pts'
p2816
S'0'
sa(dp2817
S'Pens'
p2818
S'0'
sS'Sub'
p2819
S'0'
sS'Lost'
p2820
S'1'
sS'Drop'
p2821
S'0'
sS'Start'
p2822
S'1'
sS'Won'
p2823
S'0'
sS'Draw'
p2824
S'0'
sS'%'
S'0.00'
p2825
sS'Mat'
p2826
S'1'
sS'Conv'
p2827
S'0'
sS'Tries'
p2828
S'0'
sS'Pts'
p2829
S'0'
sa(dp2830
S'Pens'
p2831
S'0'
sS'Sub'
p2832
S'0'
sS'Lost'
p2833
S'1'
sS'Drop'
p2834
S'0'
sS'Start'
p2835
S'1'
sS'Won'
p2836
S'0'
sS'Draw'
p2837
S'0'
sS'%'
S'0.00'
p2838
sS'Mat'
p2839
S'1'
sS'Conv'
p2840
S'0'
sS'Tries'
p2841
S'0'
sS'Pts'
p2842
S'0'
sa(dp2843
S'Pens'
p2844
S'0'
sS'Sub'
p2845
S'0'
sS'Lost'
p2846
S'3'
sS'Drop'
p2847
S'1'
sS'Start'
p2848
S'6'
sS'Won'
p2849
S'3'
sS'Draw'
p2850
S'0'
sS'%'
S'50.00'
p2851
sS'Mat'
p2852
S'6'
sS'Conv'
p2853
S'0'
sS'Tries'
p2854
S'2'
sS'Pts'
p2855
S'11'
p2856
sa(dp2857
S'Pens'
p2858
S'0'
sS'Sub'
p2859
S'1'
sS'Lost'
p2860
S'2'
sS'Drop'
p2861
S'0'
sS'Start'
p2862
S'3'
sS'Won'
p2863
S'1'
sS'Draw'
p2864
S'1'
sS'%'
S'37.50'
p2865
sS'Mat'
p2866
S'4'
sS'Conv'
p2867
S'0'
sS'Tries'
p2868
S'1'
sS'Pts'
p2869
S'4'
sa(dp2870
S'Pens'
p2871
S'0'
sS'Sub'
p2872
S'1'
sS'Lost'
p2873
S'9'
sS'Drop'
p2874
S'0'
sS'Start'
p2875
S'14'
p2876
sS'Won'
p2877
S'5'
sS'Draw'
p2878
S'1'
sS'%'
S'36.66'
p2879
sS'Mat'
p2880
S'15'
p2881
sS'Conv'
p2882
S'0'
sS'Tries'
p2883
S'1'
sS'Pts'
p2884
S'4'
sa(dp2885
S'Pens'
p2886
S'0'
sS'Sub'
p2887
S'0'
sS'Lost'
p2888
S'3'
sS'Drop'
p2889
S'0'
sS'Start'
p2890
S'10'
p2891
sS'Won'
p2892
S'7'
sS'Draw'
p2893
S'0'
sS'%'
S'70.00'
p2894
sS'Mat'
p2895
S'10'
p2896
sS'Conv'
p2897
S'0'
sS'Tries'
p2898
S'1'
sS'Pts'
p2899
S'4'
sa(dp2900
S'Pens'
p2901
S'0'
sS'Sub'
p2902
S'0'
sS'Lost'
p2903
S'1'
sS'Drop'
p2904
S'0'
sS'Start'
p2905
S'4'
sS'Won'
p2906
S'3'
sS'Draw'
p2907
S'0'
sS'%'
S'75.00'
p2908
sS'Mat'
p2909
S'4'
sS'Conv'
p2910
S'0'
sS'Tries'
p2911
S'0'
sS'Pts'
p2912
S'0'
sa(dp2913
S'Pens'
p2914
S'0'
sS'Sub'
p2915
S'0'
sS'Lost'
p2916
S'10'
p2917
sS'Drop'
p2918
S'0'
sS'Start'
p2919
S'14'
p2920
sS'Won'
p2921
S'4'
sS'Draw'
p2922
S'0'
sS'%'
S'28.57'
p2923
sS'Mat'
p2924
S'14'
p2925
sS'Conv'
p2926
S'0'
sS'Tries'
p2927
S'1'
sS'Pts'
p2928
S'4'
sa(dp2929
S'Pens'
p2930
S'0'
sS'Sub'
p2931
S'0'
sS'Lost'
p2932
S'1'
sS'Drop'
p2933
S'0'
sS'Start'
p2934
S'3'
sS'Won'
p2935
S'2'
sS'Draw'
p2936
S'0'
sS'%'
S'66.66'
p2937
sS'Mat'
p2938
S'3'
sS'Conv'
p2939
S'0'
sS'Tries'
p2940
S'0'
sS'Pts'
p2941
S'0'
sa(dp2942
S'Pens'
p2943
S'0'
sS'Sub'
p2944
S'0'
sS'Lost'
p2945
S'0'
sS'Drop'
p2946
S'0'
sS'Start'
p2947
S'2'
sS'Won'
p2948
S'2'
sS'Draw'
p2949
S'0'
sS'%'
S'100.00'
p2950
sS'Mat'
p2951
S'2'
sS'Conv'
p2952
S'0'
sS'Tries'
p2953
S'0'
sS'Pts'
p2954
S'0'
sa(dp2955
S'Pens'
p2956
S'0'
sS'Sub'
p2957
S'0'
sS'Lost'
p2958
S'1'
sS'Drop'
p2959
S'0'
sS'Start'
p2960
S'2'
sS'Won'
p2961
S'1'
sS'Draw'
p2962
S'0'
sS'%'
S'50.00'
p2963
sS'Mat'
p2964
S'2'
sS'Conv'
p2965
S'0'
sS'Tries'
p2966
S'0'
sS'Pts'
p2967
S'0'
sa(dp2968
S'Pens'
p2969
S'0'
sS'Sub'
p2970
S'0'
sS'Lost'
p2971
S'0'
sS'Drop'
p2972
S'0'
sS'Start'
p2973
S'1'
sS'Won'
p2974
S'1'
sS'Draw'
p2975
S'0'
sS'%'
S'100.00'
p2976
sS'Mat'
p2977
S'1'
sS'Conv'
p2978
S'0'
sS'Tries'
p2979
S'0'
sS'Pts'
p2980
S'0'
sa(dp2981
S'Pens'
p2982
S'0'
sS'Sub'
p2983
S'0'
sS'Lost'
p2984
S'1'
sS'Drop'
p2985
S'0'
sS'Start'
p2986
S'8'
sS'Won'
p2987
S'6'
sS'Draw'
p2988
S'1'
sS'%'
S'81.25'
p2989
sS'Mat'
p2990
S'8'
sS'Conv'
p2991
S'0'
sS'Tries'
p2992
S'0'
sS'Pts'
p2993
S'0'
sa(dp2994
S'Pens'
p2995
S'0'
sS'Sub'
p2996
S'3'
sS'Lost'
p2997
S'8'
sS'Drop'
p2998
S'0'
sS'Start'
p2999
S'13'
p3000
sS'Won'
p3001
S'7'
sS'Draw'
p3002
S'1'
sS'%'
S'46.87'
p3003
sS'Mat'
p3004
S'16'
p3005
sS'Conv'
p3006
S'0'
sS'Tries'
p3007
S'0'
sS'Pts'
p3008
S'0'
sa(dp3009
S'Pens'
p3010
S'0'
sS'Sub'
p3011
S'0'
sS'Lost'
p3012
S'0'
sS'Drop'
p3013
S'0'
sS'Start'
p3014
S'1'
sS'Won'
p3015
S'1'
sS'Draw'
p3016
S'0'
sS'%'
S'100.00'
p3017
sS'Mat'
p3018
S'1'
sS'Conv'
p3019
S'0'
sS'Tries'
p3020
S'0'
sS'Pts'
p3021
S'0'
sa(dp3022
S'Pens'
p3023
S'2'
sS'Sub'
p3024
S'0'
sS'Lost'
p3025
S'2'
sS'Drop'
p3026
S'0'
sS'Start'
p3027
S'17'
p3028
sS'Won'
p3029
S'14'
p3030
sS'Draw'
p3031
S'1'
sS'%'
S'85.29'
p3032
sS'Mat'
p3033
S'17'
p3034
sS'Conv'
p3035
S'0'
sS'Tries'
p3036
S'2'
sS'Pts'
p3037
S'14'
p3038
sa(dp3039
S'Pens'
p3040
S'0'
sS'Sub'
p3041
S'1'
sS'Lost'
p3042
S'4'
sS'Drop'
p3043
S'0'
sS'Start'
p3044
S'13'
p3045
sS'Won'
p3046
S'9'
sS'Draw'
p3047
S'1'
sS'%'
S'67.85'
p3048
sS'Mat'
p3049
S'14'
p3050
sS'Conv'
p3051
S'0'
sS'Tries'
p3052
S'3'
sS'Pts'
p3053
S'12'
p3054
sa(dp3055
S'Pens'
p3056
S'0'
sS'Sub'
p3057
S'0'
sS'Lost'
p3058
S'0'
sS'Drop'
p3059
S'0'
sS'Start'
p3060
S'2'
sS'Won'
p3061
S'1'
sS'Draw'
p3062
S'1'
sS'%'
S'75.00'
p3063
sS'Mat'
p3064
S'2'
sS'Conv'
p3065
S'0'
sS'Tries'
p3066
S'0'
sS'Pts'
p3067
S'0'
sa(dp3068
S'Pens'
p3069
S'0'
sS'Sub'
p3070
S'0'
sS'Lost'
p3071
S'2'
sS'Drop'
p3072
S'0'
sS'Start'
p3073
S'7'
sS'Won'
p3074
S'4'
sS'Draw'
p3075
S'1'
sS'%'
S'64.28'
p3076
sS'Mat'
p3077
S'7'
sS'Conv'
p3078
S'0'
sS'Tries'
p3079
S'0'
sS'Pts'
p3080
S'0'
sa(dp3081
S'Pens'
p3082
S'0'
sS'Sub'
p3083
S'0'
sS'Lost'
p3084
S'2'
sS'Drop'
p3085
S'0'
sS'Start'
p3086
S'3'
sS'Won'
p3087
S'0'
sS'Draw'
p3088
S'1'
sS'%'
S'16.66'
p3089
sS'Mat'
p3090
S'3'
sS'Conv'
p3091
S'0'
sS'Tries'
p3092
S'1'
sS'Pts'
p3093
S'4'
sa(dp3094
S'Pens'
p3095
S'0'
sS'Sub'
p3096
S'0'
sS'Lost'
p3097
S'0'
sS'Drop'
p3098
S'0'
sS'Start'
p3099
S'1'
sS'Won'
p3100
S'0'
sS'Draw'
p3101
S'1'
sS'%'
S'50.00'
p3102
sS'Mat'
p3103
S'1'
sS'Conv'
p3104
S'0'
sS'Tries'
p3105
S'0'
sS'Pts'
p3106
S'0'
sa(dp3107
S'Pens'
p3108
S'0'
sS'Sub'
p3109
S'0'
sS'Lost'
p3110
S'4'
sS'Drop'
p3111
S'0'
sS'Start'
p3112
S'10'
p3113
sS'Won'
p3114
S'6'
sS'Draw'
p3115
S'0'
sS'%'
S'60.00'
p3116
sS'Mat'
p3117
S'10'
p3118
sS'Conv'
p3119
S'0'
sS'Tries'
p3120
S'0'
sS'Pts'
p3121
S'0'
sa(dp3122
S'Pens'
p3123
S'0'
sS'Sub'
p3124
S'3'
sS'Lost'
p3125
S'15'
p3126
sS'Drop'
p3127
S'0'
sS'Start'
p3128
S'31'
p3129
sS'Won'
p3130
S'18'
p3131
sS'Draw'
p3132
S'1'
sS'%'
S'54.41'
p3133
sS'Mat'
p3134
S'34'
p3135
sS'Conv'
p3136
S'0'
sS'Tries'
p3137
S'3'
sS'Pts'
p3138
S'14'
p3139
sa(dp3140
S'Pens'
p3141
S'0'
sS'Sub'
p3142
S'2'
sS'Lost'
p3143
S'6'
sS'Drop'
p3144
S'0'
sS'Start'
p3145
S'11'
p3146
sS'Won'
p3147
S'7'
sS'Draw'
p3148
S'0'
sS'%'
S'53.84'
p3149
sS'Mat'
p3150
S'13'
p3151
sS'Conv'
p3152
S'0'
sS'Tries'
p3153
S'1'
sS'Pts'
p3154
S'4'
sa(dp3155
S'Pens'
p3156
S'0'
sS'Sub'
p3157
S'0'
sS'Lost'
p3158
S'4'
sS'Drop'
p3159
S'0'
sS'Start'
p3160
S'5'
sS'Won'
p3161
S'1'
sS'Draw'
p3162
S'0'
sS'%'
S'20.00'
p3163
sS'Mat'
p3164
S'5'
sS'Conv'
p3165
S'0'
sS'Tries'
p3166
S'0'
sS'Pts'
p3167
S'0'
sa(dp3168
S'Pens'
p3169
S'0'
sS'Sub'
p3170
S'0'
sS'Lost'
p3171
S'1'
sS'Drop'
p3172
S'0'
sS'Start'
p3173
S'2'
sS'Won'
p3174
S'1'
sS'Draw'
p3175
S'0'
sS'%'
S'50.00'
p3176
sS'Mat'
p3177
S'2'
sS'Conv'
p3178
S'0'
sS'Tries'
p3179
S'2'
sS'Pts'
p3180
S'8'
sa(dp3181
S'Pens'
p3182
S'0'
sS'Sub'
p3183
S'1'
sS'Lost'
p3184
S'1'
sS'Drop'
p3185
S'0'
sS'Start'
p3186
S'0'
sS'Won'
p3187
S'0'
sS'Draw'
p3188
S'0'
sS'%'
S'0.00'
p3189
sS'Mat'
p3190
S'1'
sS'Conv'
p3191
S'1'
sS'Tries'
p3192
S'0'
sS'Pts'
p3193
S'2'
sa(dp3194
S'Pens'
p3195
S'2'
sS'Sub'
p3196
S'0'
sS'Lost'
p3197
S'8'
sS'Drop'
p3198
S'0'
sS'Start'
p3199
S'20'
p3200
sS'Won'
p3201
S'12'
p3202
sS'Draw'
p3203
S'0'
sS'%'
S'60.00'
p3204
sS'Mat'
p3205
S'20'
p3206
sS'Conv'
p3207
S'5'
sS'Tries'
p3208
S'5'
sS'Pts'
p3209
S'36'
p3210
sa(dp3211
S'Pens'
p3212
S'0'
sS'Sub'
p3213
S'0'
sS'Lost'
p3214
S'2'
sS'Drop'
p3215
S'0'
sS'Start'
p3216
S'4'
sS'Won'
p3217
S'2'
sS'Draw'
p3218
S'0'
sS'%'
S'50.00'
p3219
sS'Mat'
p3220
S'4'
sS'Conv'
p3221
S'0'
sS'Tries'
p3222
S'0'
sS'Pts'
p3223
S'0'
sa(dp3224
S'Pens'
p3225
S'0'
sS'Sub'
p3226
S'0'
sS'Lost'
p3227
S'0'
sS'Drop'
p3228
S'0'
sS'Start'
p3229
S'2'
sS'Won'
p3230
S'2'
sS'Draw'
p3231
S'0'
sS'%'
S'100.00'
p3232
sS'Mat'
p3233
S'2'
sS'Conv'
p3234
S'0'
sS'Tries'
p3235
S'0'
sS'Pts'
p3236
S'0'
sa(dp3237
S'Pens'
p3238
S'0'
sS'Sub'
p3239
S'0'
sS'Lost'
p3240
S'0'
sS'Drop'
p3241
S'0'
sS'Start'
p3242
S'4'
sS'Won'
p3243
S'4'
sS'Draw'
p3244
S'0'
sS'%'
S'100.00'
p3245
sS'Mat'
p3246
S'4'
sS'Conv'
p3247
S'0'
sS'Tries'
p3248
S'1'
sS'Pts'
p3249
S'4'
sa(dp3250
S'Pens'
p3251
S'0'
sS'Sub'
p3252
S'0'
sS'Lost'
p3253
S'0'
sS'Drop'
p3254
S'0'
sS'Start'
p3255
S'2'
sS'Won'
p3256
S'2'
sS'Draw'
p3257
S'0'
sS'%'
S'100.00'
p3258
sS'Mat'
p3259
S'2'
sS'Conv'
p3260
S'0'
sS'Tries'
p3261
S'0'
sS'Pts'
p3262
S'0'
sa(dp3263
S'Pens'
p3264
S'0'
sS'Sub'
p3265
S'0'
sS'Lost'
p3266
S'0'
sS'Drop'
p3267
S'0'
sS'Start'
p3268
S'1'
sS'Won'
p3269
S'1'
sS'Draw'
p3270
S'0'
sS'%'
S'100.00'
p3271
sS'Mat'
p3272
S'1'
sS'Conv'
p3273
S'0'
sS'Tries'
p3274
S'0'
sS'Pts'
p3275
S'0'
sa(dp3276
S'Pens'
p3277
S'0'
sS'Sub'
p3278
S'0'
sS'Lost'
p3279
S'0'
sS'Drop'
p3280
S'0'
sS'Start'
p3281
S'3'
sS'Won'
p3282
S'3'
sS'Draw'
p3283
S'0'
sS'%'
S'100.00'
p3284
sS'Mat'
p3285
S'3'
sS'Conv'
p3286
S'0'
sS'Tries'
p3287
S'0'
sS'Pts'
p3288
S'0'
sa(dp3289
S'Pens'
p3290
S'0'
sS'Sub'
p3291
S'0'
sS'Lost'
p3292
S'0'
sS'Drop'
p3293
S'0'
sS'Start'
p3294
S'1'
sS'Won'
p3295
S'1'
sS'Draw'
p3296
S'0'
sS'%'
S'100.00'
p3297
sS'Mat'
p3298
S'1'
sS'Conv'
p3299
S'0'
sS'Tries'
p3300
S'0'
sS'Pts'
p3301
S'0'
sa(dp3302
S'Pens'
p3303
S'0'
sS'Sub'
p3304
S'0'
sS'Lost'
p3305
S'0'
sS'Drop'
p3306
S'0'
sS'Start'
p3307
S'1'
sS'Won'
p3308
S'1'
sS'Draw'
p3309
S'0'
sS'%'
S'100.00'
p3310
sS'Mat'
p3311
S'1'
sS'Conv'
p3312
S'0'
sS'Tries'
p3313
S'0'
sS'Pts'
p3314
S'0'
sa(dp3315
S'Pens'
p3316
S'0'
sS'Sub'
p3317
S'0'
sS'Lost'
p3318
S'0'
sS'Drop'
p3319
S'0'
sS'Start'
p3320
S'1'
sS'Won'
p3321
S'1'
sS'Draw'
p3322
S'0'
sS'%'
S'100.00'
p3323
sS'Mat'
p3324
S'1'
sS'Conv'
p3325
S'0'
sS'Tries'
p3326
S'0'
sS'Pts'
p3327
S'0'
sa(dp3328
S'Pens'
p3329
S'0'
sS'Sub'
p3330
S'3'
sS'Lost'
p3331
S'9'
sS'Drop'
p3332
S'0'
sS'Start'
p3333
S'25'
p3334
sS'Won'
p3335
S'18'
p3336
sS'Draw'
p3337
S'1'
sS'%'
S'66.07'
p3338
sS'Mat'
p3339
S'28'
p3340
sS'Conv'
p3341
S'0'
sS'Tries'
p3342
S'4'
sS'Pts'
p3343
S'16'
p3344
sa(dp3345
S'Pens'
p3346
S'0'
sS'Sub'
p3347
S'0'
sS'Lost'
p3348
S'0'
sS'Drop'
p3349
S'0'
sS'Start'
p3350
S'3'
sS'Won'
p3351
S'3'
sS'Draw'
p3352
S'0'
sS'%'
S'100.00'
p3353
sS'Mat'
p3354
S'3'
sS'Conv'
p3355
S'0'
sS'Tries'
p3356
S'0'
sS'Pts'
p3357
S'0'
sa(dp3358
S'Pens'
p3359
S'0'
sS'Sub'
p3360
S'0'
sS'Lost'
p3361
S'1'
sS'Drop'
p3362
S'0'
sS'Start'
p3363
S'7'
sS'Won'
p3364
S'6'
sS'Draw'
p3365
S'0'
sS'%'
S'85.71'
p3366
sS'Mat'
p3367
S'7'
sS'Conv'
p3368
S'0'
sS'Tries'
p3369
S'3'
sS'Pts'
p3370
S'12'
p3371
sa(dp3372
S'Pens'
p3373
S'0'
sS'Sub'
p3374
S'0'
sS'Lost'
p3375
S'0'
sS'Drop'
p3376
S'0'
sS'Start'
p3377
S'5'
sS'Won'
p3378
S'5'
sS'Draw'
p3379
S'0'
sS'%'
S'100.00'
p3380
sS'Mat'
p3381
S'5'
sS'Conv'
p3382
S'0'
sS'Tries'
p3383
S'0'
sS'Pts'
p3384
S'0'
sa(dp3385
S'Pens'
p3386
S'0'
sS'Sub'
p3387
S'1'
sS'Lost'
p3388
S'2'
sS'Drop'
p3389
S'0'
sS'Start'
p3390
S'8'
sS'Won'
p3391
S'7'
sS'Draw'
p3392
S'0'
sS'%'
S'77.77'
p3393
sS'Mat'
p3394
S'9'
sS'Conv'
p3395
S'0'
sS'Tries'
p3396
S'6'
sS'Pts'
p3397
S'24'
p3398
sa(dp3399
S'Pens'
p3400
S'0'
sS'Sub'
p3401
S'1'
sS'Lost'
p3402
S'0'
sS'Drop'
p3403
S'0'
sS'Start'
p3404
S'1'
sS'Won'
p3405
S'2'
sS'Draw'
p3406
S'0'
sS'%'
S'100.00'
p3407
sS'Mat'
p3408
S'2'
sS'Conv'
p3409
S'0'
sS'Tries'
p3410
S'0'
sS'Pts'
p3411
S'0'
sa(dp3412
S'Pens'
p3413
S'0'
sS'Sub'
p3414
S'0'
sS'Lost'
p3415
S'0'
sS'Drop'
p3416
S'0'
sS'Start'
p3417
S'1'
sS'Won'
p3418
S'1'
sS'Draw'
p3419
S'0'
sS'%'
S'100.00'
p3420
sS'Mat'
p3421
S'1'
sS'Conv'
p3422
S'0'
sS'Tries'
p3423
S'0'
sS'Pts'
p3424
S'0'
sa(dp3425
S'Pens'
p3426
S'0'
sS'Sub'
p3427
S'0'
sS'Lost'
p3428
S'0'
sS'Drop'
p3429
S'0'
sS'Start'
p3430
S'1'
sS'Won'
p3431
S'1'
sS'Draw'
p3432
S'0'
sS'%'
S'100.00'
p3433
sS'Mat'
p3434
S'1'
sS'Conv'
p3435
S'0'
sS'Tries'
p3436
S'0'
sS'Pts'
p3437
S'0'
sa(dp3438
S'Pens'
p3439
S'0'
sS'Sub'
p3440
S'1'
sS'Lost'
p3441
S'8'
sS'Drop'
p3442
S'0'
sS'Start'
p3443
S'20'
p3444
sS'Won'
p3445
S'12'
p3446
sS'Draw'
p3447
S'1'
sS'%'
S'59.52'
p3448
sS'Mat'
p3449
S'21'
p3450
sS'Conv'
p3451
S'0'
sS'Tries'
p3452
S'2'
sS'Pts'
p3453
S'10'
p3454
sa(dp3455
S'Pens'
p3456
S'0'
sS'Sub'
p3457
S'0'
sS'Lost'
p3458
S'0'
sS'Drop'
p3459
S'0'
sS'Start'
p3460
S'4'
sS'Won'
p3461
S'4'
sS'Draw'
p3462
S'0'
sS'%'
S'100.00'
p3463
sS'Mat'
p3464
S'4'
sS'Conv'
p3465
S'0'
sS'Tries'
p3466
S'0'
sS'Pts'
p3467
S'0'
sa(dp3468
S'Pens'
p3469
S'0'
sS'Sub'
p3470
S'0'
sS'Lost'
p3471
S'1'
sS'Drop'
p3472
S'0'
sS'Start'
p3473
S'5'
sS'Won'
p3474
S'4'
sS'Draw'
p3475
S'0'
sS'%'
S'80.00'
p3476
sS'Mat'
p3477
S'5'
sS'Conv'
p3478
S'0'
sS'Tries'
p3479
S'0'
sS'Pts'
p3480
S'0'
sa(dp3481
S'Pens'
p3482
S'0'
sS'Sub'
p3483
S'0'
sS'Lost'
p3484
S'0'
sS'Drop'
p3485
S'0'
sS'Start'
p3486
S'2'
sS'Won'
p3487
S'2'
sS'Draw'
p3488
S'0'
sS'%'
S'100.00'
p3489
sS'Mat'
p3490
S'2'
sS'Conv'
p3491
S'0'
sS'Tries'
p3492
S'0'
sS'Pts'
p3493
S'0'
sa(dp3494
S'Pens'
p3495
S'0'
sS'Sub'
p3496
S'1'
sS'Lost'
p3497
S'4'
sS'Drop'
p3498
S'0'
sS'Start'
p3499
S'9'
sS'Won'
p3500
S'6'
sS'Draw'
p3501
S'0'
sS'%'
S'60.00'
p3502
sS'Mat'
p3503
S'10'
p3504
sS'Conv'
p3505
S'0'
sS'Tries'
p3506
S'3'
sS'Pts'
p3507
S'15'
p3508
sa(dp3509
S'Pens'
p3510
S'9'
sS'Sub'
p3511
S'1'
sS'Lost'
p3512
S'10'
p3513
sS'Drop'
p3514
S'2'
sS'Start'
p3515
S'22'
p3516
sS'Won'
p3517
S'12'
p3518
sS'Draw'
p3519
S'1'
sS'%'
S'54.34'
p3520
sS'Mat'
p3521
S'23'
p3522
sS'Conv'
p3523
S'6'
sS'Tries'
p3524
S'4'
sS'Pts'
p3525
S'64'
p3526
sa(dp3527
S'Pens'
p3528
S'0'
sS'Sub'
p3529
S'4'
sS'Lost'
p3530
S'33'
p3531
sS'Drop'
p3532
S'0'
sS'Start'
p3533
S'62'
p3534
sS'Won'
p3535
S'31'
p3536
sS'Draw'
p3537
S'2'
sS'%'
S'48.48'
p3538
sS'Mat'
p3539
S'66'
p3540
sS'Conv'
p3541
S'0'
sS'Tries'
p3542
S'29'
p3543
sS'Pts'
p3544
S'140'
p3545
sa(dp3546
S'Pens'
p3547
S'0'
sS'Sub'
p3548
S'5'
sS'Lost'
p3549
S'10'
p3550
sS'Drop'
p3551
S'0'
sS'Start'
p3552
S'22'
p3553
sS'Won'
p3554
S'17'
p3555
sS'Draw'
p3556
S'0'
sS'%'
S'62.96'
p3557
sS'Mat'
p3558
S'27'
p3559
sS'Conv'
p3560
S'0'
sS'Tries'
p3561
S'6'
sS'Pts'
p3562
S'30'
p3563
sa(dp3564
S'Pens'
p3565
S'0'
sS'Sub'
p3566
S'0'
sS'Lost'
p3567
S'3'
sS'Drop'
p3568
S'0'
sS'Start'
p3569
S'9'
sS'Won'
p3570
S'6'
sS'Draw'
p3571
S'0'
sS'%'
S'66.66'
p3572
sS'Mat'
p3573
S'9'
sS'Conv'
p3574
S'0'
sS'Tries'
p3575
S'0'
sS'Pts'
p3576
S'0'
sa(dp3577
S'Pens'
p3578
S'5'
sS'Sub'
p3579
S'2'
sS'Lost'
p3580
S'2'
sS'Drop'
p3581
S'0'
sS'Start'
p3582
S'6'
sS'Won'
p3583
S'5'
sS'Draw'
p3584
S'1'
sS'%'
S'68.75'
p3585
sS'Mat'
p3586
S'8'
sS'Conv'
p3587
S'5'
sS'Tries'
p3588
S'0'
sS'Pts'
p3589
S'25'
p3590
sa(dp3591
S'Pens'
p3592
S'0'
sS'Sub'
p3593
S'1'
sS'Lost'
p3594
S'5'
sS'Drop'
p3595
S'0'
sS'Start'
p3596
S'10'
p3597
sS'Won'
p3598
S'6'
sS'Draw'
p3599
S'0'
sS'%'
S'54.54'
p3600
sS'Mat'
p3601
S'11'
p3602
sS'Conv'
p3603
S'0'
sS'Tries'
p3604
S'0'
sS'Pts'
p3605
S'0'
sa(dp3606
S'Pens'
p3607
S'0'
sS'Sub'
p3608
S'0'
sS'Lost'
p3609
S'13'
p3610
sS'Drop'
p3611
S'0'
sS'Start'
p3612
S'59'
p3613
sS'Won'
p3614
S'44'
p3615
sS'Draw'
p3616
S'2'
sS'%'
S'76.27'
p3617
sS'Mat'
p3618
S'59'
p3619
sS'Conv'
p3620
S'0'
sS'Tries'
p3621
S'21'
p3622
sS'Pts'
p3623
S'100'
p3624
sa(dp3625
S'Pens'
p3626
S'0'
sS'Sub'
p3627
S'0'
sS'Lost'
p3628
S'4'
sS'Drop'
p3629
S'0'
sS'Start'
p3630
S'10'
p3631
sS'Won'
p3632
S'6'
sS'Draw'
p3633
S'0'
sS'%'
S'60.00'
p3634
sS'Mat'
p3635
S'10'
p3636
sS'Conv'
p3637
S'0'
sS'Tries'
p3638
S'0'
sS'Pts'
p3639
S'0'
sa(dp3640
S'Pens'
p3641
S'0'
sS'Sub'
p3642
S'0'
sS'Lost'
p3643
S'17'
p3644
sS'Drop'
p3645
S'0'
sS'Start'
p3646
S'34'
p3647
sS'Won'
p3648
S'15'
p3649
sS'Draw'
p3650
S'2'
sS'%'
S'47.05'
p3651
sS'Mat'
p3652
S'34'
p3653
sS'Conv'
p3654
S'0'
sS'Tries'
p3655
S'5'
sS'Pts'
p3656
S'25'
p3657
sa(dp3658
S'Pens'
p3659
S'0'
sS'Sub'
p3660
S'4'
sS'Lost'
p3661
S'7'
sS'Drop'
p3662
S'0'
sS'Start'
p3663
S'31'
p3664
sS'Won'
p3665
S'27'
p3666
sS'Draw'
p3667
S'1'
sS'%'
S'78.57'
p3668
sS'Mat'
p3669
S'35'
p3670
sS'Conv'
p3671
S'0'
sS'Tries'
p3672
S'5'
sS'Pts'
p3673
S'25'
p3674
sa(dp3675
S'Pens'
p3676
S'0'
sS'Sub'
p3677
S'0'
sS'Lost'
p3678
S'0'
sS'Drop'
p3679
S'0'
sS'Start'
p3680
S'1'
sS'Won'
p3681
S'1'
sS'Draw'
p3682
S'0'
sS'%'
S'100.00'
p3683
sS'Mat'
p3684
S'1'
sS'Conv'
p3685
S'0'
sS'Tries'
p3686
S'0'
sS'Pts'
p3687
S'0'
sa(dp3688
S'Pens'
p3689
S'0'
sS'Sub'
p3690
S'2'
sS'Lost'
p3691
S'9'
sS'Drop'
p3692
S'0'
sS'Start'
p3693
S'15'
p3694
sS'Won'
p3695
S'8'
sS'Draw'
p3696
S'0'
sS'%'
S'47.05'
p3697
sS'Mat'
p3698
S'17'
p3699
sS'Conv'
p3700
S'0'
sS'Tries'
p3701
S'2'
sS'Pts'
p3702
S'10'
p3703
sa(dp3704
S'Pens'
p3705
S'0'
sS'Sub'
p3706
S'3'
sS'Lost'
p3707
S'2'
sS'Drop'
p3708
S'0'
sS'Start'
p3709
S'6'
sS'Won'
p3710
S'7'
sS'Draw'
p3711
S'0'
sS'%'
S'77.77'
p3712
sS'Mat'
p3713
S'9'
sS'Conv'
p3714
S'0'
sS'Tries'
p3715
S'1'
sS'Pts'
p3716
S'5'
sa(dp3717
S'Pens'
p3718
S'31'
p3719
sS'Sub'
p3720
S'0'
sS'Lost'
p3721
S'5'
sS'Drop'
p3722
S'2'
sS'Start'
p3723
S'13'
p3724
sS'Won'
p3725
S'7'
sS'Draw'
p3726
S'1'
sS'%'
S'57.69'
p3727
sS'Mat'
p3728
S'13'
p3729
sS'Conv'
p3730
S'14'
p3731
sS'Tries'
p3732
S'2'
sS'Pts'
p3733
S'137'
p3734
sa(dp3735
S'Pens'
p3736
S'0'
sS'Sub'
p3737
S'2'
sS'Lost'
p3738
S'5'
sS'Drop'
p3739
S'0'
sS'Start'
p3740
S'15'
p3741
sS'Won'
p3742
S'11'
p3743
sS'Draw'
p3744
S'1'
sS'%'
S'67.64'
p3745
sS'Mat'
p3746
S'17'
p3747
sS'Conv'
p3748
S'0'
sS'Tries'
p3749
S'0'
sS'Pts'
p3750
S'0'
sa(dp3751
S'Pens'
p3752
S'0'
sS'Sub'
p3753
S'0'
sS'Lost'
p3754
S'8'
sS'Drop'
p3755
S'0'
sS'Start'
p3756
S'18'
p3757
sS'Won'
p3758
S'9'
sS'Draw'
p3759
S'1'
sS'%'
S'52.77'
p3760
sS'Mat'
p3761
S'18'
p3762
sS'Conv'
p3763
S'0'
sS'Tries'
p3764
S'1'
sS'Pts'
p3765
S'5'
sa(dp3766
S'Pens'
p3767
S'0'
sS'Sub'
p3768
S'1'
sS'Lost'
p3769
S'1'
sS'Drop'
p3770
S'0'
sS'Start'
p3771
S'0'
sS'Won'
p3772
S'0'
sS'Draw'
p3773
S'0'
sS'%'
S'0.00'
p3774
sS'Mat'
p3775
S'1'
sS'Conv'
p3776
S'0'
sS'Tries'
p3777
S'0'
sS'Pts'
p3778
S'0'
sa(dp3779
S'Pens'
p3780
S'0'
sS'Sub'
p3781
S'1'
sS'Lost'
p3782
S'6'
sS'Drop'
p3783
S'0'
sS'Start'
p3784
S'9'
sS'Won'
p3785
S'4'
sS'Draw'
p3786
S'0'
sS'%'
S'40.00'
p3787
sS'Mat'
p3788
S'10'
p3789
sS'Conv'
p3790
S'0'
sS'Tries'
p3791
S'0'
sS'Pts'
p3792
S'0'
sa(dp3793
S'Pens'
p3794
S'0'
sS'Sub'
p3795
S'1'
sS'Lost'
p3796
S'5'
sS'Drop'
p3797
S'0'
sS'Start'
p3798
S'7'
sS'Won'
p3799
S'3'
sS'Draw'
p3800
S'0'
sS'%'
S'37.50'
p3801
sS'Mat'
p3802
S'8'
sS'Conv'
p3803
S'0'
sS'Tries'
p3804
S'1'
sS'Pts'
p3805
S'5'
sa(dp3806
S'Pens'
p3807
S'0'
sS'Sub'
p3808
S'2'
sS'Lost'
p3809
S'5'
sS'Drop'
p3810
S'0'
sS'Start'
p3811
S'9'
sS'Won'
p3812
S'5'
sS'Draw'
p3813
S'1'
sS'%'
S'50.00'
p3814
sS'Mat'
p3815
S'11'
p3816
sS'Conv'
p3817
S'0'
sS'Tries'
p3818
S'1'
sS'Pts'
p3819
S'5'
sa(dp3820
S'Pens'
p3821
S'0'
sS'Sub'
p3822
S'1'
sS'Lost'
p3823
S'0'
sS'Drop'
p3824
S'0'
sS'Start'
p3825
S'0'
sS'Won'
p3826
S'1'
sS'Draw'
p3827
S'0'
sS'%'
S'100.00'
p3828
sS'Mat'
p3829
S'1'
sS'Conv'
p3830
S'0'
sS'Tries'
p3831
S'0'
sS'Pts'
p3832
S'0'
sa(dp3833
S'Pens'
p3834
S'4'
sS'Sub'
p3835
S'2'
sS'Lost'
p3836
S'3'
sS'Drop'
p3837
S'0'
sS'Start'
p3838
S'7'
sS'Won'
p3839
S'6'
sS'Draw'
p3840
S'0'
sS'%'
S'66.66'
p3841
sS'Mat'
p3842
S'9'
sS'Conv'
p3843
S'3'
sS'Tries'
p3844
S'2'
sS'Pts'
p3845
S'28'
p3846
sa(dp3847
S'Pens'
p3848
S'0'
sS'Sub'
p3849
S'0'
sS'Lost'
p3850
S'3'
sS'Drop'
p3851
S'0'
sS'Start'
p3852
S'5'
sS'Won'
p3853
S'2'
sS'Draw'
p3854
S'0'
sS'%'
S'40.00'
p3855
sS'Mat'
p3856
S'5'
sS'Conv'
p3857
S'0'
sS'Tries'
p3858
S'0'
sS'Pts'
p3859
S'0'
sa(dp3860
S'Pens'
p3861
S'0'
sS'Sub'
p3862
S'3'
sS'Lost'
p3863
S'3'
sS'Drop'
p3864
S'0'
sS'Start'
p3865
S'6'
sS'Won'
p3866
S'6'
sS'Draw'
p3867
S'0'
sS'%'
S'66.66'
p3868
sS'Mat'
p3869
S'9'
sS'Conv'
p3870
S'0'
sS'Tries'
p3871
S'1'
sS'Pts'
p3872
S'5'
sa(dp3873
S'Pens'
p3874
S'0'
sS'Sub'
p3875
S'0'
sS'Lost'
p3876
S'2'
sS'Drop'
p3877
S'0'
sS'Start'
p3878
S'4'
sS'Won'
p3879
S'2'
sS'Draw'
p3880
S'0'
sS'%'
S'50.00'
p3881
sS'Mat'
p3882
S'4'
sS'Conv'
p3883
S'0'
sS'Tries'
p3884
S'3'
sS'Pts'
p3885
S'15'
p3886
sa(dp3887
S'Pens'
p3888
S'0'
sS'Sub'
p3889
S'3'
sS'Lost'
p3890
S'12'
p3891
sS'Drop'
p3892
S'0'
sS'Start'
p3893
S'23'
p3894
sS'Won'
p3895
S'12'
p3896
sS'Draw'
p3897
S'2'
sS'%'
S'50.00'
p3898
sS'Mat'
p3899
S'26'
p3900
sS'Conv'
p3901
S'0'
sS'Tries'
p3902
S'10'
p3903
sS'Pts'
p3904
S'50'
p3905
sa(dp3906
S'Pens'
p3907
S'0'
sS'Sub'
p3908
S'6'
sS'Lost'
p3909
S'7'
sS'Drop'
p3910
S'0'
sS'Start'
p3911
S'9'
sS'Won'
p3912
S'6'
sS'Draw'
p3913
S'2'
sS'%'
S'46.66'
p3914
sS'Mat'
p3915
S'15'
p3916
sS'Conv'
p3917
S'0'
sS'Tries'
p3918
S'0'
sS'Pts'
p3919
S'0'
sa(dp3920
S'Pens'
p3921
S'0'
sS'Sub'
p3922
S'0'
sS'Lost'
p3923
S'2'
sS'Drop'
p3924
S'0'
sS'Start'
p3925
S'2'
sS'Won'
p3926
S'0'
sS'Draw'
p3927
S'0'
sS'%'
S'0.00'
p3928
sS'Mat'
p3929
S'2'
sS'Conv'
p3930
S'0'
sS'Tries'
p3931
S'0'
sS'Pts'
p3932
S'0'
sa(dp3933
S'Pens'
p3934
S'1'
sS'Sub'
p3935
S'0'
sS'Lost'
p3936
S'7'
sS'Drop'
p3937
S'0'
sS'Start'
p3938
S'13'
p3939
sS'Won'
p3940
S'5'
sS'Draw'
p3941
S'1'
sS'%'
S'42.30'
p3942
sS'Mat'
p3943
S'13'
p3944
sS'Conv'
p3945
S'0'
sS'Tries'
p3946
S'2'
sS'Pts'
p3947
S'13'
p3948
sa(dp3949
S'Pens'
p3950
S'0'
sS'Sub'
p3951
S'3'
sS'Lost'
p3952
S'3'
sS'Drop'
p3953
S'0'
sS'Start'
p3954
S'1'
sS'Won'
p3955
S'1'
sS'Draw'
p3956
S'0'
sS'%'
S'25.00'
p3957
sS'Mat'
p3958
S'4'
sS'Conv'
p3959
S'0'
sS'Tries'
p3960
S'2'
sS'Pts'
p3961
S'10'
p3962
sa(dp3963
S'Pens'
p3964
S'0'
sS'Sub'
p3965
S'2'
sS'Lost'
p3966
S'10'
p3967
sS'Drop'
p3968
S'0'
sS'Start'
p3969
S'16'
p3970
sS'Won'
p3971
S'7'
sS'Draw'
p3972
S'1'
sS'%'
S'41.66'
p3973
sS'Mat'
p3974
S'18'
p3975
sS'Conv'
p3976
S'0'
sS'Tries'
p3977
S'0'
sS'Pts'
p3978
S'0'
sa(dp3979
S'Pens'
p3980
S'0'
sS'Sub'
p3981
S'2'
sS'Lost'
p3982
S'7'
sS'Drop'
p3983
S'0'
sS'Start'
p3984
S'20'
p3985
sS'Won'
p3986
S'13'
p3987
sS'Draw'
p3988
S'2'
sS'%'
S'63.63'
p3989
sS'Mat'
p3990
S'22'
p3991
sS'Conv'
p3992
S'0'
sS'Tries'
p3993
S'1'
sS'Pts'
p3994
S'5'
sa(dp3995
S'Pens'
p3996
S'1'
sS'Sub'
p3997
S'0'
sS'Lost'
p3998
S'3'
sS'Drop'
p3999
S'0'
sS'Start'
p4000
S'5'
sS'Won'
p4001
S'1'
sS'Draw'
p4002
S'1'
sS'%'
S'30.00'
p4003
sS'Mat'
p4004
S'5'
sS'Conv'
p4005
S'0'
sS'Tries'
p4006
S'2'
sS'Pts'
p4007
S'13'
p4008
sa(dp4009
S'Pens'
p4010
S'0'
sS'Sub'
p4011
S'0'
sS'Lost'
p4012
S'3'
sS'Drop'
p4013
S'0'
sS'Start'
p4014
S'5'
sS'Won'
p4015
S'1'
sS'Draw'
p4016
S'1'
sS'%'
S'30.00'
p4017
sS'Mat'
p4018
S'5'
sS'Conv'
p4019
S'0'
sS'Tries'
p4020
S'3'
sS'Pts'
p4021
S'15'
p4022
sa(dp4023
S'Pens'
p4024
S'0'
sS'Sub'
p4025
S'5'
sS'Lost'
p4026
S'4'
sS'Drop'
p4027
S'0'
sS'Start'
p4028
S'3'
sS'Won'
p4029
S'2'
sS'Draw'
p4030
S'2'
sS'%'
S'37.50'
p4031
sS'Mat'
p4032
S'8'
sS'Conv'
p4033
S'0'
sS'Tries'
p4034
S'0'
sS'Pts'
p4035
S'0'
sa(dp4036
S'Pens'
p4037
S'0'
sS'Sub'
p4038
S'8'
sS'Lost'
p4039
S'12'
p4040
sS'Drop'
p4041
S'0'
sS'Start'
p4042
S'21'
p4043
sS'Won'
p4044
S'17'
p4045
sS'Draw'
p4046
S'0'
sS'%'
S'58.62'
p4047
sS'Mat'
p4048
S'29'
p4049
sS'Conv'
p4050
S'0'
sS'Tries'
p4051
S'7'
sS'Pts'
p4052
S'35'
p4053
sa(dp4054
S'Pens'
p4055
S'0'
sS'Sub'
p4056
S'3'
sS'Lost'
p4057
S'6'
sS'Drop'
p4058
S'0'
sS'Start'
p4059
S'15'
p4060
sS'Won'
p4061
S'11'
p4062
sS'Draw'
p4063
S'1'
sS'%'
S'63.88'
p4064
sS'Mat'
p4065
S'18'
p4066
sS'Conv'
p4067
S'0'
sS'Tries'
p4068
S'0'
sS'Pts'
p4069
S'0'
sa(dp4070
S'Pens'
p4071
S'2'
sS'Sub'
p4072
S'0'
sS'Lost'
p4073
S'1'
sS'Drop'
p4074
S'0'
sS'Start'
p4075
S'2'
sS'Won'
p4076
S'1'
sS'Draw'
p4077
S'0'
sS'%'
S'50.00'
p4078
sS'Mat'
p4079
S'2'
sS'Conv'
p4080
S'2'
sS'Tries'
p4081
S'0'
sS'Pts'
p4082
S'10'
p4083
sa(dp4084
S'Pens'
p4085
S'0'
sS'Sub'
p4086
S'6'
sS'Lost'
p4087
S'5'
sS'Drop'
p4088
S'0'
sS'Start'
p4089
S'3'
sS'Won'
p4090
S'4'
sS'Draw'
p4091
S'0'
sS'%'
S'44.44'
p4092
sS'Mat'
p4093
S'9'
sS'Conv'
p4094
S'0'
sS'Tries'
p4095
S'0'
sS'Pts'
p4096
S'0'
sa(dp4097
S'Pens'
p4098
S'0'
sS'Sub'
p4099
S'1'
sS'Lost'
p4100
S'1'
sS'Drop'
p4101
S'0'
sS'Start'
p4102
S'0'
sS'Won'
p4103
S'0'
sS'Draw'
p4104
S'0'
sS'%'
S'0.00'
p4105
sS'Mat'
p4106
S'1'
sS'Conv'
p4107
S'0'
sS'Tries'
p4108
S'0'
sS'Pts'
p4109
S'0'
sa(dp4110
S'Pens'
p4111
S'0'
sS'Sub'
p4112
S'4'
sS'Lost'
p4113
S'4'
sS'Drop'
p4114
S'0'
sS'Start'
p4115
S'10'
p4116
sS'Won'
p4117
S'9'
sS'Draw'
p4118
S'1'
sS'%'
S'67.85'
p4119
sS'Mat'
p4120
S'14'
p4121
sS'Conv'
p4122
S'0'
sS'Tries'
p4123
S'2'
sS'Pts'
p4124
S'10'
p4125
sa(dp4126
S'Pens'
p4127
S'0'
sS'Sub'
p4128
S'2'
sS'Lost'
p4129
S'7'
sS'Drop'
p4130
S'0'
sS'Start'
p4131
S'18'
p4132
sS'Won'
p4133
S'12'
p4134
sS'Draw'
p4135
S'1'
sS'%'
S'62.50'
p4136
sS'Mat'
p4137
S'20'
p4138
sS'Conv'
p4139
S'0'
sS'Tries'
p4140
S'15'
p4141
sS'Pts'
p4142
S'75'
p4143
sa(dp4144
S'Pens'
p4145
S'0'
sS'Sub'
p4146
S'2'
sS'Lost'
p4147
S'14'
p4148
sS'Drop'
p4149
S'0'
sS'Start'
p4150
S'39'
p4151
sS'Won'
p4152
S'27'
p4153
sS'Draw'
p4154
S'0'
sS'%'
S'65.85'
p4155
sS'Mat'
p4156
S'41'
p4157
sS'Conv'
p4158
S'0'
sS'Tries'
p4159
S'8'
sS'Pts'
p4160
S'36'
p4161
sa(dp4162
S'Pens'
p4163
S'31'
p4164
sS'Sub'
p4165
S'4'
sS'Lost'
p4166
S'12'
p4167
sS'Drop'
p4168
S'0'
sS'Start'
p4169
S'24'
p4170
sS'Won'
p4171
S'15'
p4172
sS'Draw'
p4173
S'1'
sS'%'
S'55.35'
p4174
sS'Mat'
p4175
S'28'
p4176
sS'Conv'
p4177
S'33'
p4178
sS'Tries'
p4179
S'3'
sS'Pts'
p4180
S'174'
p4181
sa(dp4182
S'Pens'
p4183
S'0'
sS'Sub'
p4184
S'1'
sS'Lost'
p4185
S'2'
sS'Drop'
p4186
S'0'
sS'Start'
p4187
S'5'
sS'Won'
p4188
S'4'
sS'Draw'
p4189
S'0'
sS'%'
S'66.66'
p4190
sS'Mat'
p4191
S'6'
sS'Conv'
p4192
S'0'
sS'Tries'
p4193
S'2'
sS'Pts'
p4194
S'10'
p4195
sa(dp4196
S'Pens'
p4197
S'0'
sS'Sub'
p4198
S'3'
sS'Lost'
p4199
S'1'
sS'Drop'
p4200
S'0'
sS'Start'
p4201
S'2'
sS'Won'
p4202
S'4'
sS'Draw'
p4203
S'0'
sS'%'
S'80.00'
p4204
sS'Mat'
p4205
S'5'
sS'Conv'
p4206
S'0'
sS'Tries'
p4207
S'2'
sS'Pts'
p4208
S'10'
p4209
sa(dp4210
S'Pens'
p4211
S'31'
p4212
sS'Sub'
p4213
S'3'
sS'Lost'
p4214
S'9'
sS'Drop'
p4215
S'0'
sS'Start'
p4216
S'16'
p4217
sS'Won'
p4218
S'10'
p4219
sS'Draw'
p4220
S'0'
sS'%'
S'52.63'
p4221
sS'Mat'
p4222
S'19'
p4223
sS'Conv'
p4224
S'21'
p4225
sS'Tries'
p4226
S'2'
sS'Pts'
p4227
S'145'
p4228
sa(dp4229
S'Pens'
p4230
S'0'
sS'Sub'
p4231
S'3'
sS'Lost'
p4232
S'14'
p4233
sS'Drop'
p4234
S'0'
sS'Start'
p4235
S'27'
p4236
sS'Won'
p4237
S'15'
p4238
sS'Draw'
p4239
S'1'
sS'%'
S'51.66'
p4240
sS'Mat'
p4241
S'30'
p4242
sS'Conv'
p4243
S'0'
sS'Tries'
p4244
S'1'
sS'Pts'
p4245
S'5'
sa(dp4246
S'Pens'
p4247
S'0'
sS'Sub'
p4248
S'0'
sS'Lost'
p4249
S'0'
sS'Drop'
p4250
S'0'
sS'Start'
p4251
S'1'
sS'Won'
p4252
S'1'
sS'Draw'
p4253
S'0'
sS'%'
S'100.00'
p4254
sS'Mat'
p4255
S'1'
sS'Conv'
p4256
S'0'
sS'Tries'
p4257
S'0'
sS'Pts'
p4258
S'0'
sa(dp4259
S'Pens'
p4260
S'0'
sS'Sub'
p4261
S'0'
sS'Lost'
p4262
S'0'
sS'Drop'
p4263
S'0'
sS'Start'
p4264
S'1'
sS'Won'
p4265
S'1'
sS'Draw'
p4266
S'0'
sS'%'
S'100.00'
p4267
sS'Mat'
p4268
S'1'
sS'Conv'
p4269
S'0'
sS'Tries'
p4270
S'0'
sS'Pts'
p4271
S'0'
sa(dp4272
S'Pens'
p4273
S'0'
sS'Sub'
p4274
S'4'
sS'Lost'
p4275
S'4'
sS'Drop'
p4276
S'0'
sS'Start'
p4277
S'5'
sS'Won'
p4278
S'4'
sS'Draw'
p4279
S'1'
sS'%'
S'50.00'
p4280
sS'Mat'
p4281
S'9'
sS'Conv'
p4282
S'0'
sS'Tries'
p4283
S'0'
sS'Pts'
p4284
S'0'
sa(dp4285
S'Pens'
p4286
S'0'
sS'Sub'
p4287
S'1'
sS'Lost'
p4288
S'7'
sS'Drop'
p4289
S'0'
sS'Start'
p4290
S'13'
p4291
sS'Won'
p4292
S'7'
sS'Draw'
p4293
S'0'
sS'%'
S'50.00'
p4294
sS'Mat'
p4295
S'14'
p4296
sS'Conv'
p4297
S'0'
sS'Tries'
p4298
S'1'
sS'Pts'
p4299
S'5'
sa(dp4300
S'Pens'
p4301
S'0'
sS'Sub'
p4302
S'13'
p4303
sS'Lost'
p4304
S'19'
p4305
sS'Drop'
p4306
S'0'
sS'Start'
p4307
S'30'
p4308
sS'Won'
p4309
S'24'
p4310
sS'Draw'
p4311
S'0'
sS'%'
S'55.81'
p4312
sS'Mat'
p4313
S'43'
p4314
sS'Conv'
p4315
S'0'
sS'Tries'
p4316
S'2'
sS'Pts'
p4317
S'10'
p4318
sa(dp4319
S'Pens'
p4320
S'0'
sS'Sub'
p4321
S'9'
sS'Lost'
p4322
S'22'
p4323
sS'Drop'
p4324
S'0'
sS'Start'
p4325
S'31'
p4326
sS'Won'
p4327
S'18'
p4328
sS'Draw'
p4329
S'0'
sS'%'
S'45.00'
p4330
sS'Mat'
p4331
S'40'
p4332
sS'Conv'
p4333
S'0'
sS'Tries'
p4334
S'5'
sS'Pts'
p4335
S'25'
p4336
sa(dp4337
S'Pens'
p4338
S'0'
sS'Sub'
p4339
S'2'
sS'Lost'
p4340
S'2'
sS'Drop'
p4341
S'0'
sS'Start'
p4342
S'1'
sS'Won'
p4343
S'1'
sS'Draw'
p4344
S'0'
sS'%'
S'33.33'
p4345
sS'Mat'
p4346
S'3'
sS'Conv'
p4347
S'0'
sS'Tries'
p4348
S'0'
sS'Pts'
p4349
S'0'
sa(dp4350
S'Pens'
p4351
S'0'
sS'Sub'
p4352
S'2'
sS'Lost'
p4353
S'11'
p4354
sS'Drop'
p4355
S'0'
sS'Start'
p4356
S'22'
p4357
sS'Won'
p4358
S'12'
p4359
sS'Draw'
p4360
S'1'
sS'%'
S'52.08'
p4361
sS'Mat'
p4362
S'24'
p4363
sS'Conv'
p4364
S'0'
sS'Tries'
p4365
S'0'
sS'Pts'
p4366
S'0'
sa(dp4367
S'Pens'
p4368
S'0'
sS'Sub'
p4369
S'1'
sS'Lost'
p4370
S'5'
sS'Drop'
p4371
S'0'
sS'Start'
p4372
S'5'
sS'Won'
p4373
S'1'
sS'Draw'
p4374
S'0'
sS'%'
S'16.66'
p4375
sS'Mat'
p4376
S'6'
sS'Conv'
p4377
S'0'
sS'Tries'
p4378
S'1'
sS'Pts'
p4379
S'5'
sa(dp4380
S'Pens'
p4381
S'0'
sS'Sub'
p4382
S'3'
sS'Lost'
p4383
S'5'
sS'Drop'
p4384
S'0'
sS'Start'
p4385
S'4'
sS'Won'
p4386
S'2'
sS'Draw'
p4387
S'0'
sS'%'
S'28.57'
p4388
sS'Mat'
p4389
S'7'
sS'Conv'
p4390
S'0'
sS'Tries'
p4391
S'0'
sS'Pts'
p4392
S'0'
sa(dp4393
S'Pens'
p4394
S'0'
sS'Sub'
p4395
S'1'
sS'Lost'
p4396
S'1'
sS'Drop'
p4397
S'0'
sS'Start'
p4398
S'0'
sS'Won'
p4399
S'0'
sS'Draw'
p4400
S'0'
sS'%'
S'0.00'
p4401
sS'Mat'
p4402
S'1'
sS'Conv'
p4403
S'0'
sS'Tries'
p4404
S'0'
sS'Pts'
p4405
S'0'
sa(dp4406
S'Pens'
p4407
S'0'
sS'Sub'
p4408
S'2'
sS'Lost'
p4409
S'8'
sS'Drop'
p4410
S'0'
sS'Start'
p4411
S'20'
p4412
sS'Won'
p4413
S'13'
p4414
sS'Draw'
p4415
S'1'
sS'%'
S'61.36'
p4416
sS'Mat'
p4417
S'22'
p4418
sS'Conv'
p4419
S'0'
sS'Tries'
p4420
S'1'
sS'Pts'
p4421
S'5'
sa(dp4422
S'Pens'
p4423
S'0'
sS'Sub'
p4424
S'0'
sS'Lost'
p4425
S'1'
sS'Drop'
p4426
S'0'
sS'Start'
p4427
S'1'
sS'Won'
p4428
S'0'
sS'Draw'
p4429
S'0'
sS'%'
S'0.00'
p4430
sS'Mat'
p4431
S'1'
sS'Conv'
p4432
S'0'
sS'Tries'
p4433
S'2'
sS'Pts'
p4434
S'10'
p4435
sa(dp4436
S'Pens'
p4437
S'0'
sS'Sub'
p4438
S'1'
sS'Lost'
p4439
S'1'
sS'Drop'
p4440
S'0'
sS'Start'
p4441
S'1'
sS'Won'
p4442
S'1'
sS'Draw'
p4443
S'0'
sS'%'
S'50.00'
p4444
sS'Mat'
p4445
S'2'
sS'Conv'
p4446
S'0'
sS'Tries'
p4447
S'0'
sS'Pts'
p4448
S'0'
sa(dp4449
S'Pens'
p4450
S'0'
sS'Sub'
p4451
S'4'
sS'Lost'
p4452
S'4'
sS'Drop'
p4453
S'0'
sS'Start'
p4454
S'6'
sS'Won'
p4455
S'6'
sS'Draw'
p4456
S'0'
sS'%'
S'60.00'
p4457
sS'Mat'
p4458
S'10'
p4459
sS'Conv'
p4460
S'0'
sS'Tries'
p4461
S'0'
sS'Pts'
p4462
S'0'
sa(dp4463
S'Pens'
p4464
S'0'
sS'Sub'
p4465
S'12'
p4466
sS'Lost'
p4467
S'30'
p4468
sS'Drop'
p4469
S'0'
sS'Start'
p4470
S'51'
p4471
sS'Won'
p4472
S'33'
p4473
sS'Draw'
p4474
S'0'
sS'%'
S'52.38'
p4475
sS'Mat'
p4476
S'63'
p4477
sS'Conv'
p4478
S'0'
sS'Tries'
p4479
S'17'
p4480
sS'Pts'
p4481
S'85'
p4482
sa(dp4483
S'Pens'
p4484
S'13'
p4485
sS'Sub'
p4486
S'5'
sS'Lost'
p4487
S'17'
p4488
sS'Drop'
p4489
S'0'
sS'Start'
p4490
S'29'
p4491
sS'Won'
p4492
S'16'
p4493
sS'Draw'
p4494
S'1'
sS'%'
S'48.52'
p4495
sS'Mat'
p4496
S'34'
p4497
sS'Conv'
p4498
S'20'
p4499
sS'Tries'
p4500
S'4'
sS'Pts'
p4501
S'99'
p4502
sa(dp4503
S'Pens'
p4504
S'0'
sS'Sub'
p4505
S'2'
sS'Lost'
p4506
S'4'
sS'Drop'
p4507
S'0'
sS'Start'
p4508
S'7'
sS'Won'
p4509
S'4'
sS'Draw'
p4510
S'1'
sS'%'
S'50.00'
p4511
sS'Mat'
p4512
S'9'
sS'Conv'
p4513
S'0'
sS'Tries'
p4514
S'0'
sS'Pts'
p4515
S'0'
sa(dp4516
S'Pens'
p4517
S'5'
sS'Sub'
p4518
S'0'
sS'Lost'
p4519
S'1'
sS'Drop'
p4520
S'0'
sS'Start'
p4521
S'13'
p4522
sS'Won'
p4523
S'10'
p4524
sS'Draw'
p4525
S'2'
sS'%'
S'84.61'
p4526
sS'Mat'
p4527
S'13'
p4528
sS'Conv'
p4529
S'1'
sS'Tries'
p4530
S'1'
sS'Pts'
p4531
S'21'
p4532
sa(dp4533
S'Pens'
p4534
S'0'
sS'Sub'
p4535
S'6'
sS'Lost'
p4536
S'6'
sS'Drop'
p4537
S'0'
sS'Start'
p4538
S'7'
sS'Won'
p4539
S'7'
sS'Draw'
p4540
S'0'
sS'%'
S'53.84'
p4541
sS'Mat'
p4542
S'13'
p4543
sS'Conv'
p4544
S'0'
sS'Tries'
p4545
S'1'
sS'Pts'
p4546
S'5'
sa(dp4547
S'Pens'
p4548
S'0'
sS'Sub'
p4549
S'0'
sS'Lost'
p4550
S'7'
sS'Drop'
p4551
S'0'
sS'Start'
p4552
S'15'
p4553
sS'Won'
p4554
S'8'
sS'Draw'
p4555
S'0'
sS'%'
S'53.33'
p4556
sS'Mat'
p4557
S'15'
p4558
sS'Conv'
p4559
S'0'
sS'Tries'
p4560
S'0'
sS'Pts'
p4561
S'0'
sa(dp4562
S'Pens'
p4563
S'0'
sS'Sub'
p4564
S'0'
sS'Lost'
p4565
S'1'
sS'Drop'
p4566
S'0'
sS'Start'
p4567
S'6'
sS'Won'
p4568
S'5'
sS'Draw'
p4569
S'0'
sS'%'
S'83.33'
p4570
sS'Mat'
p4571
S'6'
sS'Conv'
p4572
S'0'
sS'Tries'
p4573
S'2'
sS'Pts'
p4574
S'10'
p4575
sa(dp4576
S'Pens'
p4577
S'0'
sS'Sub'
p4578
S'4'
sS'Lost'
p4579
S'21'
p4580
sS'Drop'
p4581
S'0'
sS'Start'
p4582
S'36'
p4583
sS'Won'
p4584
S'19'
p4585
sS'Draw'
p4586
S'0'
sS'%'
S'47.50'
p4587
sS'Mat'
p4588
S'40'
p4589
sS'Conv'
p4590
S'0'
sS'Tries'
p4591
S'15'
p4592
sS'Pts'
p4593
S'75'
p4594
sa(dp4595
S'Pens'
p4596
S'0'
sS'Sub'
p4597
S'10'
p4598
sS'Lost'
p4599
S'17'
p4600
sS'Drop'
p4601
S'0'
sS'Start'
p4602
S'21'
p4603
sS'Won'
p4604
S'14'
p4605
sS'Draw'
p4606
S'0'
sS'%'
S'45.16'
p4607
sS'Mat'
p4608
S'31'
p4609
sS'Conv'
p4610
S'0'
sS'Tries'
p4611
S'1'
sS'Pts'
p4612
S'5'
sa(dp4613
S'Pens'
p4614
S'0'
sS'Sub'
p4615
S'4'
sS'Lost'
p4616
S'11'
p4617
sS'Drop'
p4618
S'0'
sS'Start'
p4619
S'18'
p4620
sS'Won'
p4621
S'11'
p4622
sS'Draw'
p4623
S'0'
sS'%'
S'50.00'
p4624
sS'Mat'
p4625
S'22'
p4626
sS'Conv'
p4627
S'0'
sS'Tries'
p4628
S'9'
sS'Pts'
p4629
S'45'
p4630
sa(dp4631
S'Pens'
p4632
S'0'
sS'Sub'
p4633
S'2'
sS'Lost'
p4634
S'0'
sS'Drop'
p4635
S'0'
sS'Start'
p4636
S'0'
sS'Won'
p4637
S'2'
sS'Draw'
p4638
S'0'
sS'%'
S'100.00'
p4639
sS'Mat'
p4640
S'2'
sS'Conv'
p4641
S'0'
sS'Tries'
p4642
S'0'
sS'Pts'
p4643
S'0'
sa(dp4644
S'Pens'
p4645
S'0'
sS'Sub'
p4646
S'9'
sS'Lost'
p4647
S'5'
sS'Drop'
p4648
S'0'
sS'Start'
p4649
S'4'
sS'Won'
p4650
S'8'
sS'Draw'
p4651
S'0'
sS'%'
S'61.53'
p4652
sS'Mat'
p4653
S'13'
p4654
sS'Conv'
p4655
S'0'
sS'Tries'
p4656
S'0'
sS'Pts'
p4657
S'0'
sa(dp4658
S'Pens'
p4659
S'0'
sS'Sub'
p4660
S'2'
sS'Lost'
p4661
S'0'
sS'Drop'
p4662
S'0'
sS'Start'
p4663
S'1'
sS'Won'
p4664
S'3'
sS'Draw'
p4665
S'0'
sS'%'
S'100.00'
p4666
sS'Mat'
p4667
S'3'
sS'Conv'
p4668
S'0'
sS'Tries'
p4669
S'0'
sS'Pts'
p4670
S'0'
sa(dp4671
S'Pens'
p4672
S'0'
sS'Sub'
p4673
S'2'
sS'Lost'
p4674
S'0'
sS'Drop'
p4675
S'0'
sS'Start'
p4676
S'1'
sS'Won'
p4677
S'3'
sS'Draw'
p4678
S'0'
sS'%'
S'100.00'
p4679
sS'Mat'
p4680
S'3'
sS'Conv'
p4681
S'1'
sS'Tries'
p4682
S'0'
sS'Pts'
p4683
S'2'
sa(dp4684
S'Pens'
p4685
S'0'
sS'Sub'
p4686
S'2'
sS'Lost'
p4687
S'2'
sS'Drop'
p4688
S'0'
sS'Start'
p4689
S'1'
sS'Won'
p4690
S'1'
sS'Draw'
p4691
S'0'
sS'%'
S'33.33'
p4692
sS'Mat'
p4693
S'3'
sS'Conv'
p4694
S'0'
sS'Tries'
p4695
S'0'
sS'Pts'
p4696
S'0'
sa(dp4697
S'Pens'
p4698
S'0'
sS'Sub'
p4699
S'0'
sS'Lost'
p4700
S'1'
sS'Drop'
p4701
S'0'
sS'Start'
p4702
S'1'
sS'Won'
p4703
S'0'
sS'Draw'
p4704
S'0'
sS'%'
S'0.00'
p4705
sS'Mat'
p4706
S'1'
sS'Conv'
p4707
S'0'
sS'Tries'
p4708
S'0'
sS'Pts'
p4709
S'0'
sa(dp4710
S'Pens'
p4711
S'0'
sS'Sub'
p4712
S'0'
sS'Lost'
p4713
S'2'
sS'Drop'
p4714
S'0'
sS'Start'
p4715
S'2'
sS'Won'
p4716
S'0'
sS'Draw'
p4717
S'0'
sS'%'
S'0.00'
p4718
sS'Mat'
p4719
S'2'
sS'Conv'
p4720
S'0'
sS'Tries'
p4721
S'0'
sS'Pts'
p4722
S'0'
sa(dp4723
S'Pens'
p4724
S'0'
sS'Sub'
p4725
S'0'
sS'Lost'
p4726
S'2'
sS'Drop'
p4727
S'0'
sS'Start'
p4728
S'2'
sS'Won'
p4729
S'0'
sS'Draw'
p4730
S'0'
sS'%'
S'0.00'
p4731
sS'Mat'
p4732
S'2'
sS'Conv'
p4733
S'0'
sS'Tries'
p4734
S'0'
sS'Pts'
p4735
S'0'
sa(dp4736
S'Pens'
p4737
S'0'
sS'Sub'
p4738
S'0'
sS'Lost'
p4739
S'2'
sS'Drop'
p4740
S'0'
sS'Start'
p4741
S'3'
sS'Won'
p4742
S'1'
sS'Draw'
p4743
S'0'
sS'%'
S'33.33'
p4744
sS'Mat'
p4745
S'3'
sS'Conv'
p4746
S'0'
sS'Tries'
p4747
S'0'
sS'Pts'
p4748
S'0'
sa(dp4749
S'Pens'
p4750
S'2'
sS'Sub'
p4751
S'0'
sS'Lost'
p4752
S'2'
sS'Drop'
p4753
S'0'
sS'Start'
p4754
S'2'
sS'Won'
p4755
S'0'
sS'Draw'
p4756
S'0'
sS'%'
S'0.00'
p4757
sS'Mat'
p4758
S'2'
sS'Conv'
p4759
S'0'
sS'Tries'
p4760
S'0'
sS'Pts'
p4761
S'6'
sa(dp4762
S'Pens'
p4763
S'0'
sS'Sub'
p4764
S'7'
sS'Lost'
p4765
S'7'
sS'Drop'
p4766
S'0'
sS'Start'
p4767
S'6'
sS'Won'
p4768
S'6'
sS'Draw'
p4769
S'0'
sS'%'
S'46.15'
p4770
sS'Mat'
p4771
S'13'
p4772
sS'Conv'
p4773
S'0'
sS'Tries'
p4774
S'0'
sS'Pts'
p4775
S'0'
sa(dp4776
S'Pens'
p4777
S'0'
sS'Sub'
p4778
S'1'
sS'Lost'
p4779
S'2'
sS'Drop'
p4780
S'0'
sS'Start'
p4781
S'1'
sS'Won'
p4782
S'0'
sS'Draw'
p4783
S'0'
sS'%'
S'0.00'
p4784
sS'Mat'
p4785
S'2'
sS'Conv'
p4786
S'0'
sS'Tries'
p4787
S'0'
sS'Pts'
p4788
S'0'
sa(dp4789
S'Pens'
p4790
S'0'
sS'Sub'
p4791
S'2'
sS'Lost'
p4792
S'2'
sS'Drop'
p4793
S'0'
sS'Start'
p4794
S'0'
sS'Won'
p4795
S'0'
sS'Draw'
p4796
S'0'
sS'%'
S'0.00'
p4797
sS'Mat'
p4798
S'2'
sS'Conv'
p4799
S'0'
sS'Tries'
p4800
S'0'
sS'Pts'
p4801
S'0'
sa(dp4802
S'Pens'
p4803
S'0'
sS'Sub'
p4804
S'2'
sS'Lost'
p4805
S'2'
sS'Drop'
p4806
S'0'
sS'Start'
p4807
S'0'
sS'Won'
p4808
S'0'
sS'Draw'
p4809
S'0'
sS'%'
S'0.00'
p4810
sS'Mat'
p4811
S'2'
sS'Conv'
p4812
S'0'
sS'Tries'
p4813
S'0'
sS'Pts'
p4814
S'0'
sa(dp4815
S'Pens'
p4816
S'0'
sS'Sub'
p4817
S'7'
sS'Lost'
p4818
S'24'
p4819
sS'Drop'
p4820
S'0'
sS'Start'
p4821
S'35'
p4822
sS'Won'
p4823
S'18'
p4824
sS'Draw'
p4825
S'0'
sS'%'
S'42.85'
p4826
sS'Mat'
p4827
S'42'
p4828
sS'Conv'
p4829
S'0'
sS'Tries'
p4830
S'4'
sS'Pts'
p4831
S'20'
p4832
sa(dp4833
S'Pens'
p4834
S'0'
sS'Sub'
p4835
S'1'
sS'Lost'
p4836
S'2'
sS'Drop'
p4837
S'0'
sS'Start'
p4838
S'1'
sS'Won'
p4839
S'0'
sS'Draw'
p4840
S'0'
sS'%'
S'0.00'
p4841
sS'Mat'
p4842
S'2'
sS'Conv'
p4843
S'0'
sS'Tries'
p4844
S'0'
sS'Pts'
p4845
S'0'
sa(dp4846
S'Pens'
p4847
S'0'
sS'Sub'
p4848
S'4'
sS'Lost'
p4849
S'3'
sS'Drop'
p4850
S'0'
sS'Start'
p4851
S'0'
sS'Won'
p4852
S'1'
sS'Draw'
p4853
S'0'
sS'%'
S'25.00'
p4854
sS'Mat'
p4855
S'4'
sS'Conv'
p4856
S'0'
sS'Tries'
p4857
S'0'
sS'Pts'
p4858
S'0'
sa(dp4859
S'Pens'
p4860
S'0'
sS'Sub'
p4861
S'1'
sS'Lost'
p4862
S'2'
sS'Drop'
p4863
S'0'
sS'Start'
p4864
S'1'
sS'Won'
p4865
S'0'
sS'Draw'
p4866
S'0'
sS'%'
S'0.00'
p4867
sS'Mat'
p4868
S'2'
sS'Conv'
p4869
S'0'
sS'Tries'
p4870
S'0'
sS'Pts'
p4871
S'0'
sa(dp4872
S'Pens'
p4873
S'0'
sS'Sub'
p4874
S'0'
sS'Lost'
p4875
S'2'
sS'Drop'
p4876
S'0'
sS'Start'
p4877
S'2'
sS'Won'
p4878
S'0'
sS'Draw'
p4879
S'0'
sS'%'
S'0.00'
p4880
sS'Mat'
p4881
S'2'
sS'Conv'
p4882
S'0'
sS'Tries'
p4883
S'0'
sS'Pts'
p4884
S'0'
sa(dp4885
S'Pens'
p4886
S'0'
sS'Sub'
p4887
S'1'
sS'Lost'
p4888
S'1'
sS'Drop'
p4889
S'0'
sS'Start'
p4890
S'0'
sS'Won'
p4891
S'0'
sS'Draw'
p4892
S'0'
sS'%'
S'0.00'
p4893
sS'Mat'
p4894
S'1'
sS'Conv'
p4895
S'0'
sS'Tries'
p4896
S'0'
sS'Pts'
p4897
S'0'
sa(dp4898
S'Pens'
p4899
S'0'
sS'Sub'
p4900
S'5'
sS'Lost'
p4901
S'13'
p4902
sS'Drop'
p4903
S'0'
sS'Start'
p4904
S'22'
p4905
sS'Won'
p4906
S'14'
p4907
sS'Draw'
p4908
S'0'
sS'%'
S'51.85'
p4909
sS'Mat'
p4910
S'27'
p4911
sS'Conv'
p4912
S'0'
sS'Tries'
p4913
S'0'
sS'Pts'
p4914
S'0'
sa(dp4915
S'Pens'
p4916
S'0'
sS'Sub'
p4917
S'4'
sS'Lost'
p4918
S'4'
sS'Drop'
p4919
S'0'
sS'Start'
p4920
S'7'
sS'Won'
p4921
S'7'
sS'Draw'
p4922
S'0'
sS'%'
S'63.63'
p4923
sS'Mat'
p4924
S'11'
p4925
sS'Conv'
p4926
S'0'
sS'Tries'
p4927
S'1'
sS'Pts'
p4928
S'5'
sa(dp4929
S'Pens'
p4930
S'0'
sS'Sub'
p4931
S'5'
sS'Lost'
p4932
S'3'
sS'Drop'
p4933
S'0'
sS'Start'
p4934
S'2'
sS'Won'
p4935
S'4'
sS'Draw'
p4936
S'0'
sS'%'
S'57.14'
p4937
sS'Mat'
p4938
S'7'
sS'Conv'
p4939
S'0'
sS'Tries'
p4940
S'0'
sS'Pts'
p4941
S'0'
sa(dp4942
S'Pens'
p4943
S'0'
sS'Sub'
p4944
S'3'
sS'Lost'
p4945
S'0'
sS'Drop'
p4946
S'0'
sS'Start'
p4947
S'0'
sS'Won'
p4948
S'3'
sS'Draw'
p4949
S'0'
sS'%'
S'100.00'
p4950
sS'Mat'
p4951
S'3'
sS'Conv'
p4952
S'0'
sS'Tries'
p4953
S'0'
sS'Pts'
p4954
S'0'
sa(dp4955
S'Pens'
p4956
S'0'
sS'Sub'
p4957
S'5'
sS'Lost'
p4958
S'7'
sS'Drop'
p4959
S'0'
sS'Start'
p4960
S'10'
p4961
sS'Won'
p4962
S'8'
sS'Draw'
p4963
S'0'
sS'%'
S'53.33'
p4964
sS'Mat'
p4965
S'15'
p4966
sS'Conv'
p4967
S'0'
sS'Tries'
p4968
S'1'
sS'Pts'
p4969
S'5'
sa(dp4970
S'Pens'
p4971
S'0'
sS'Sub'
p4972
S'7'
sS'Lost'
p4973
S'10'
p4974
sS'Drop'
p4975
S'0'
sS'Start'
p4976
S'14'
p4977
sS'Won'
p4978
S'11'
p4979
sS'Draw'
p4980
S'0'
sS'%'
S'52.38'
p4981
sS'Mat'
p4982
S'21'
p4983
sS'Conv'
p4984
S'0'
sS'Tries'
p4985
S'1'
sS'Pts'
p4986
S'5'
sa(dp4987
S'Pens'
p4988
S'0'
sS'Sub'
p4989
S'1'
sS'Lost'
p4990
S'14'
p4991
sS'Drop'
p4992
S'0'
sS'Start'
p4993
S'23'
p4994
sS'Won'
p4995
S'10'
p4996
sS'Draw'
p4997
S'0'
sS'%'
S'41.66'
p4998
sS'Mat'
p4999
S'24'
p5000
sS'Conv'
p5001
S'0'
sS'Tries'
p5002
S'5'
sS'Pts'
p5003
S'25'
p5004
sa(dp5005
S'Pens'
p5006
S'0'
sS'Sub'
p5007
S'0'
sS'Lost'
p5008
S'6'
sS'Drop'
p5009
S'0'
sS'Start'
p5010
S'14'
p5011
sS'Won'
p5012
S'8'
sS'Draw'
p5013
S'0'
sS'%'
S'57.14'
p5014
sS'Mat'
p5015
S'14'
p5016
sS'Conv'
p5017
S'0'
sS'Tries'
p5018
S'0'
sS'Pts'
p5019
S'0'
sa(dp5020
S'Pens'
p5021
S'0'
sS'Sub'
p5022
S'4'
sS'Lost'
p5023
S'4'
sS'Drop'
p5024
S'0'
sS'Start'
p5025
S'6'
sS'Won'
p5026
S'6'
sS'Draw'
p5027
S'0'
sS'%'
S'60.00'
p5028
sS'Mat'
p5029
S'10'
p5030
sS'Conv'
p5031
S'0'
sS'Tries'
p5032
S'0'
sS'Pts'
p5033
S'0'
sa(dp5034
S'Pens'
p5035
S'0'
sS'Sub'
p5036
S'6'
sS'Lost'
p5037
S'7'
sS'Drop'
p5038
S'0'
sS'Start'
p5039
S'4'
sS'Won'
p5040
S'3'
sS'Draw'
p5041
S'0'
sS'%'
S'30.00'
p5042
sS'Mat'
p5043
S'10'
p5044
sS'Conv'
p5045
S'0'
sS'Tries'
p5046
S'1'
sS'Pts'
p5047
S'5'
sa(dp5048
S'Pens'
p5049
S'0'
sS'Sub'
p5050
S'2'
sS'Lost'
p5051
S'1'
sS'Drop'
p5052
S'0'
sS'Start'
p5053
S'0'
sS'Won'
p5054
S'1'
sS'Draw'
p5055
S'0'
sS'%'
S'50.00'
p5056
sS'Mat'
p5057
S'2'
sS'Conv'
p5058
S'0'
sS'Tries'
p5059
S'0'
sS'Pts'
p5060
S'0'
sa(dp5061
S'Pens'
p5062
S'0'
sS'Sub'
p5063
S'2'
sS'Lost'
p5064
S'2'
sS'Drop'
p5065
S'0'
sS'Start'
p5066
S'2'
sS'Won'
p5067
S'2'
sS'Draw'
p5068
S'0'
sS'%'
S'50.00'
p5069
sS'Mat'
p5070
S'4'
sS'Conv'
p5071
S'0'
sS'Tries'
p5072
S'0'
sS'Pts'
p5073
S'0'
sa(dp5074
S'Pens'
p5075
S'0'
sS'Sub'
p5076
S'1'
sS'Lost'
p5077
S'6'
sS'Drop'
p5078
S'0'
sS'Start'
p5079
S'9'
sS'Won'
p5080
S'4'
sS'Draw'
p5081
S'0'
sS'%'
S'40.00'
p5082
sS'Mat'
p5083
S'10'
p5084
sS'Conv'
p5085
S'0'
sS'Tries'
p5086
S'1'
sS'Pts'
p5087
S'5'
sa(dp5088
S'Pens'
p5089
S'0'
sS'Sub'
p5090
S'3'
sS'Lost'
p5091
S'20'
p5092
sS'Drop'
p5093
S'0'
sS'Start'
p5094
S'35'
p5095
sS'Won'
p5096
S'17'
p5097
sS'Draw'
p5098
S'1'
sS'%'
S'46.05'
p5099
sS'Mat'
p5100
S'38'
p5101
sS'Conv'
p5102
S'0'
sS'Tries'
p5103
S'18'
p5104
sS'Pts'
p5105
S'90'
p5106
sa(dp5107
S'Pens'
p5108
S'0'
sS'Sub'
p5109
S'4'
sS'Lost'
p5110
S'13'
p5111
sS'Drop'
p5112
S'0'
sS'Start'
p5113
S'23'
p5114
sS'Won'
p5115
S'14'
p5116
sS'Draw'
p5117
S'0'
sS'%'
S'51.85'
p5118
sS'Mat'
p5119
S'27'
p5120
sS'Conv'
p5121
S'0'
sS'Tries'
p5122
S'2'
sS'Pts'
p5123
S'10'
p5124
sa(dp5125
S'Pens'
p5126
S'0'
sS'Sub'
p5127
S'1'
sS'Lost'
p5128
S'1'
sS'Drop'
p5129
S'0'
sS'Start'
p5130
S'0'
sS'Won'
p5131
S'0'
sS'Draw'
p5132
S'0'
sS'%'
S'0.00'
p5133
sS'Mat'
p5134
S'1'
sS'Conv'
p5135
S'0'
sS'Tries'
p5136
S'0'
sS'Pts'
p5137
S'0'
sa(dp5138
S'Pens'
p5139
S'0'
sS'Sub'
p5140
S'0'
sS'Lost'
p5141
S'1'
sS'Drop'
p5142
S'0'
sS'Start'
p5143
S'2'
sS'Won'
p5144
S'1'
sS'Draw'
p5145
S'0'
sS'%'
S'50.00'
p5146
sS'Mat'
p5147
S'2'
sS'Conv'
p5148
S'0'
sS'Tries'
p5149
S'1'
sS'Pts'
p5150
S'5'
sa(dp5151
S'Pens'
p5152
S'2'
sS'Sub'
p5153
S'0'
sS'Lost'
p5154
S'4'
sS'Drop'
p5155
S'0'
sS'Start'
p5156
S'5'
sS'Won'
p5157
S'1'
sS'Draw'
p5158
S'0'
sS'%'
S'20.00'
p5159
sS'Mat'
p5160
S'5'
sS'Conv'
p5161
S'1'
sS'Tries'
p5162
S'0'
sS'Pts'
p5163
S'8'
sa(dp5164
S'Pens'
p5165
S'0'
sS'Sub'
p5166
S'5'
sS'Lost'
p5167
S'5'
sS'Drop'
p5168
S'0'
sS'Start'
p5169
S'4'
sS'Won'
p5170
S'4'
sS'Draw'
p5171
S'0'
sS'%'
S'44.44'
p5172
sS'Mat'
p5173
S'9'
sS'Conv'
p5174
S'0'
sS'Tries'
p5175
S'0'
sS'Pts'
p5176
S'0'
sa(dp5177
S'Pens'
p5178
S'0'
sS'Sub'
p5179
S'2'
sS'Lost'
p5180
S'1'
sS'Drop'
p5181
S'0'
sS'Start'
p5182
S'0'
sS'Won'
p5183
S'1'
sS'Draw'
p5184
S'0'
sS'%'
S'50.00'
p5185
sS'Mat'
p5186
S'2'
sS'Conv'
p5187
S'0'
sS'Tries'
p5188
S'0'
sS'Pts'
p5189
S'0'
sa(dp5190
S'Pens'
p5191
S'0'
sS'Sub'
p5192
S'4'
sS'Lost'
p5193
S'3'
sS'Drop'
p5194
S'0'
sS'Start'
p5195
S'1'
sS'Won'
p5196
S'2'
sS'Draw'
p5197
S'0'
sS'%'
S'40.00'
p5198
sS'Mat'
p5199
S'5'
sS'Conv'
p5200
S'0'
sS'Tries'
p5201
S'0'
sS'Pts'
p5202
S'0'
sa(dp5203
S'Pens'
p5204
S'0'
sS'Sub'
p5205
S'4'
sS'Lost'
p5206
S'2'
sS'Drop'
p5207
S'0'
sS'Start'
p5208
S'1'
sS'Won'
p5209
S'3'
sS'Draw'
p5210
S'0'
sS'%'
S'60.00'
p5211
sS'Mat'
p5212
S'5'
sS'Conv'
p5213
S'0'
sS'Tries'
p5214
S'5'
sS'Pts'
p5215
S'25'
p5216
sa(dp5217
S'Pens'
p5218
S'0'
sS'Sub'
p5219
S'1'
sS'Lost'
p5220
S'12'
p5221
sS'Drop'
p5222
S'0'
sS'Start'
p5223
S'23'
p5224
sS'Won'
p5225
S'12'
p5226
sS'Draw'
p5227
S'0'
sS'%'
S'50.00'
p5228
sS'Mat'
p5229
S'24'
p5230
sS'Conv'
p5231
S'0'
sS'Tries'
p5232
S'7'
sS'Pts'
p5233
S'35'
p5234
sa(dp5235
S'Pens'
p5236
S'0'
sS'Sub'
p5237
S'1'
sS'Lost'
p5238
S'0'
sS'Drop'
p5239
S'0'
sS'Start'
p5240
S'0'
sS'Won'
p5241
S'1'
sS'Draw'
p5242
S'0'
sS'%'
S'100.00'
p5243
sS'Mat'
p5244
S'1'
sS'Conv'
p5245
S'0'
sS'Tries'
p5246
S'0'
sS'Pts'
p5247
S'0'
sa(dp5248
S'Pens'
p5249
S'0'
sS'Sub'
p5250
S'0'
sS'Lost'
p5251
S'2'
sS'Drop'
p5252
S'0'
sS'Start'
p5253
S'4'
sS'Won'
p5254
S'2'
sS'Draw'
p5255
S'0'
sS'%'
S'50.00'
p5256
sS'Mat'
p5257
S'4'
sS'Conv'
p5258
S'0'
sS'Tries'
p5259
S'0'
sS'Pts'
p5260
S'0'
sa(dp5261
S'Pens'
p5262
S'0'
sS'Sub'
p5263
S'9'
sS'Lost'
p5264
S'7'
sS'Drop'
p5265
S'0'
sS'Start'
p5266
S'4'
sS'Won'
p5267
S'6'
sS'Draw'
p5268
S'0'
sS'%'
S'46.15'
p5269
sS'Mat'
p5270
S'13'
p5271
sS'Conv'
p5272
S'0'
sS'Tries'
p5273
S'1'
sS'Pts'
p5274
S'5'
sa(dp5275
S'Pens'
p5276
S'0'
sS'Sub'
p5277
S'1'
sS'Lost'
p5278
S'2'
sS'Drop'
p5279
S'0'
sS'Start'
p5280
S'1'
sS'Won'
p5281
S'0'
sS'Draw'
p5282
S'0'
sS'%'
S'0.00'
p5283
sS'Mat'
p5284
S'2'
sS'Conv'
p5285
S'0'
sS'Tries'
p5286
S'0'
sS'Pts'
p5287
S'0'
sa(dp5288
S'Pens'
p5289
S'0'
sS'Sub'
p5290
S'8'
sS'Lost'
p5291
S'22'
p5292
sS'Drop'
p5293
S'0'
sS'Start'
p5294
S'34'
p5295
sS'Won'
p5296
S'19'
p5297
sS'Draw'
p5298
S'1'
sS'%'
S'46.42'
p5299
sS'Mat'
p5300
S'42'
p5301
sS'Conv'
p5302
S'0'
sS'Tries'
p5303
S'11'
p5304
sS'Pts'
p5305
S'55'
p5306
sa(dp5307
S'Pens'
p5308
S'0'
sS'Sub'
p5309
S'5'
sS'Lost'
p5310
S'4'
sS'Drop'
p5311
S'0'
sS'Start'
p5312
S'6'
sS'Won'
p5313
S'7'
sS'Draw'
p5314
S'0'
sS'%'
S'63.63'
p5315
sS'Mat'
p5316
S'11'
p5317
sS'Conv'
p5318
S'0'
sS'Tries'
p5319
S'1'
sS'Pts'
p5320
S'5'
sa(dp5321
S'Pens'
p5322
S'29'
p5323
sS'Sub'
p5324
S'3'
sS'Lost'
p5325
S'5'
sS'Drop'
p5326
S'2'
sS'Start'
p5327
S'9'
sS'Won'
p5328
S'7'
sS'Draw'
p5329
S'0'
sS'%'
S'58.33'
p5330
sS'Mat'
p5331
S'12'
p5332
sS'Conv'
p5333
S'13'
p5334
sS'Tries'
p5335
S'0'
sS'Pts'
p5336
S'119'
p5337
sa(dp5338
S'Pens'
p5339
S'0'
sS'Sub'
p5340
S'1'
sS'Lost'
p5341
S'1'
sS'Drop'
p5342
S'0'
sS'Start'
p5343
S'1'
sS'Won'
p5344
S'1'
sS'Draw'
p5345
S'0'
sS'%'
S'50.00'
p5346
sS'Mat'
p5347
S'2'
sS'Conv'
p5348
S'0'
sS'Tries'
p5349
S'0'
sS'Pts'
p5350
S'0'
sa(dp5351
S'Pens'
p5352
S'0'
sS'Sub'
p5353
S'7'
sS'Lost'
p5354
S'4'
sS'Drop'
p5355
S'0'
sS'Start'
p5356
S'3'
sS'Won'
p5357
S'6'
sS'Draw'
p5358
S'0'
sS'%'
S'60.00'
p5359
sS'Mat'
p5360
S'10'
p5361
sS'Conv'
p5362
S'0'
sS'Tries'
p5363
S'2'
sS'Pts'
p5364
S'10'
p5365
sa(dp5366
S'Pens'
p5367
S'0'
sS'Sub'
p5368
S'7'
sS'Lost'
p5369
S'4'
sS'Drop'
p5370
S'0'
sS'Start'
p5371
S'4'
sS'Won'
p5372
S'7'
sS'Draw'
p5373
S'0'
sS'%'
S'63.63'
p5374
sS'Mat'
p5375
S'11'
p5376
sS'Conv'
p5377
S'0'
sS'Tries'
p5378
S'2'
sS'Pts'
p5379
S'10'
p5380
sa(dp5381
S'Pens'
p5382
S'0'
sS'Sub'
p5383
S'1'
sS'Lost'
p5384
S'1'
sS'Drop'
p5385
S'0'
sS'Start'
p5386
S'0'
sS'Won'
p5387
S'0'
sS'Draw'
p5388
S'0'
sS'%'
S'0.00'
p5389
sS'Mat'
p5390
S'1'
sS'Conv'
p5391
S'0'
sS'Tries'
p5392
S'0'
sS'Pts'
p5393
S'0'
sa(dp5394
S'Pens'
p5395
S'0'
sS'Sub'
p5396
S'0'
sS'Lost'
p5397
S'1'
sS'Drop'
p5398
S'0'
sS'Start'
p5399
S'1'
sS'Won'
p5400
S'0'
sS'Draw'
p5401
S'0'
sS'%'
S'0.00'
p5402
sS'Mat'
p5403
S'1'
sS'Conv'
p5404
S'0'
sS'Tries'
p5405
S'0'
sS'Pts'
p5406
S'0'
sa(dp5407
S'Pens'
p5408
S'4'
sS'Sub'
p5409
S'7'
sS'Lost'
p5410
S'8'
sS'Drop'
p5411
S'0'
sS'Start'
p5412
S'18'
p5413
sS'Won'
p5414
S'17'
p5415
sS'Draw'
p5416
S'0'
sS'%'
S'68.00'
p5417
sS'Mat'
p5418
S'25'
p5419
sS'Conv'
p5420
S'12'
p5421
sS'Tries'
p5422
S'0'
sS'Pts'
p5423
S'36'
p5424
sa(dp5425
S'Pens'
p5426
S'0'
sS'Sub'
p5427
S'3'
sS'Lost'
p5428
S'4'
sS'Drop'
p5429
S'0'
sS'Start'
p5430
S'7'
sS'Won'
p5431
S'6'
sS'Draw'
p5432
S'0'
sS'%'
S'60.00'
p5433
sS'Mat'
p5434
S'10'
p5435
sS'Conv'
p5436
S'0'
sS'Tries'
p5437
S'0'
sS'Pts'
p5438
S'0'
sa(dp5439
S'Pens'
p5440
S'0'
sS'Sub'
p5441
S'14'
p5442
sS'Lost'
p5443
S'31'
p5444
sS'Drop'
p5445
S'0'
sS'Start'
p5446
S'41'
p5447
sS'Won'
p5448
S'23'
p5449
sS'Draw'
p5450
S'1'
sS'%'
S'42.72'
p5451
sS'Mat'
p5452
S'55'
p5453
sS'Conv'
p5454
S'0'
sS'Tries'
p5455
S'4'
sS'Pts'
p5456
S'20'
p5457
sa(dp5458
S'Pens'
p5459
S'0'
sS'Sub'
p5460
S'0'
sS'Lost'
p5461
S'1'
sS'Drop'
p5462
S'0'
sS'Start'
p5463
S'2'
sS'Won'
p5464
S'1'
sS'Draw'
p5465
S'0'
sS'%'
S'50.00'
p5466
sS'Mat'
p5467
S'2'
sS'Conv'
p5468
S'0'
sS'Tries'
p5469
S'0'
sS'Pts'
p5470
S'0'
sa(dp5471
S'Pens'
p5472
S'0'
sS'Sub'
p5473
S'2'
sS'Lost'
p5474
S'14'
p5475
sS'Drop'
p5476
S'0'
sS'Start'
p5477
S'21'
p5478
sS'Won'
p5479
S'9'
sS'Draw'
p5480
S'0'
sS'%'
S'39.13'
p5481
sS'Mat'
p5482
S'23'
p5483
sS'Conv'
p5484
S'0'
sS'Tries'
p5485
S'2'
sS'Pts'
p5486
S'10'
p5487
sa(dp5488
S'Pens'
p5489
S'0'
sS'Sub'
p5490
S'2'
sS'Lost'
p5491
S'3'
sS'Drop'
p5492
S'0'
sS'Start'
p5493
S'2'
sS'Won'
p5494
S'1'
sS'Draw'
p5495
S'0'
sS'%'
S'25.00'
p5496
sS'Mat'
p5497
S'4'
sS'Conv'
p5498
S'0'
sS'Tries'
p5499
S'0'
sS'Pts'
p5500
S'0'
sa(dp5501
S'Pens'
p5502
S'0'
sS'Sub'
p5503
S'6'
sS'Lost'
p5504
S'19'
p5505
sS'Drop'
p5506
S'0'
sS'Start'
p5507
S'36'
p5508
sS'Won'
p5509
S'22'
p5510
sS'Draw'
p5511
S'1'
sS'%'
S'53.57'
p5512
sS'Mat'
p5513
S'42'
p5514
sS'Conv'
p5515
S'0'
sS'Tries'
p5516
S'1'
sS'Pts'
p5517
S'5'
sa(dp5518
S'Pens'
p5519
S'0'
sS'Sub'
p5520
S'2'
sS'Lost'
p5521
S'1'
sS'Drop'
p5522
S'0'
sS'Start'
p5523
S'0'
sS'Won'
p5524
S'1'
sS'Draw'
p5525
S'0'
sS'%'
S'50.00'
p5526
sS'Mat'
p5527
S'2'
sS'Conv'
p5528
S'0'
sS'Tries'
p5529
S'0'
sS'Pts'
p5530
S'0'
sa(dp5531
S'Pens'
p5532
S'0'
sS'Sub'
p5533
S'5'
sS'Lost'
p5534
S'2'
sS'Drop'
p5535
S'0'
sS'Start'
p5536
S'0'
sS'Won'
p5537
S'3'
sS'Draw'
p5538
S'0'
sS'%'
S'60.00'
p5539
sS'Mat'
p5540
S'5'
sS'Conv'
p5541
S'1'
sS'Tries'
p5542
S'0'
sS'Pts'
p5543
S'2'
sa(dp5544
S'Pens'
p5545
S'0'
sS'Sub'
p5546
S'10'
p5547
sS'Lost'
p5548
S'6'
sS'Drop'
p5549
S'0'
sS'Start'
p5550
S'6'
sS'Won'
p5551
S'10'
p5552
sS'Draw'
p5553
S'0'
sS'%'
S'62.50'
p5554
sS'Mat'
p5555
S'16'
p5556
sS'Conv'
p5557
S'0'
sS'Tries'
p5558
S'1'
sS'Pts'
p5559
S'5'
sa(dp5560
S'Pens'
p5561
S'0'
sS'Sub'
p5562
S'3'
sS'Lost'
p5563
S'3'
sS'Drop'
p5564
S'0'
sS'Start'
p5565
S'2'
sS'Won'
p5566
S'2'
sS'Draw'
p5567
S'0'
sS'%'
S'40.00'
p5568
sS'Mat'
p5569
S'5'
sS'Conv'
p5570
S'0'
sS'Tries'
p5571
S'0'
sS'Pts'
p5572
S'0'
sa(dp5573
S'Pens'
p5574
S'0'
sS'Sub'
p5575
S'0'
sS'Lost'
p5576
S'0'
sS'Drop'
p5577
S'0'
sS'Start'
p5578
S'1'
sS'Won'
p5579
S'1'
sS'Draw'
p5580
S'0'
sS'%'
S'100.00'
p5581
sS'Mat'
p5582
S'1'
sS'Conv'
p5583
S'0'
sS'Tries'
p5584
S'0'
sS'Pts'
p5585
S'0'
sa(dp5586
S'Pens'
p5587
S'0'
sS'Sub'
p5588
S'7'
sS'Lost'
p5589
S'2'
sS'Drop'
p5590
S'0'
sS'Start'
p5591
S'2'
sS'Won'
p5592
S'7'
sS'Draw'
p5593
S'0'
sS'%'
S'77.77'
p5594
sS'Mat'
p5595
S'9'
sS'Conv'
p5596
S'0'
sS'Tries'
p5597
S'0'
sS'Pts'
p5598
S'0'
sa(dp5599
S'Pens'
p5600
S'0'
sS'Sub'
p5601
S'7'
sS'Lost'
p5602
S'3'
sS'Drop'
p5603
S'0'
sS'Start'
p5604
S'3'
sS'Won'
p5605
S'7'
sS'Draw'
p5606
S'0'
sS'%'
S'70.00'
p5607
sS'Mat'
p5608
S'10'
p5609
sS'Conv'
p5610
S'0'
sS'Tries'
p5611
S'0'
sS'Pts'
p5612
S'0'
sa(dp5613
S'Pens'
p5614
S'0'
sS'Sub'
p5615
S'1'
sS'Lost'
p5616
S'2'
sS'Drop'
p5617
S'0'
sS'Start'
p5618
S'4'
sS'Won'
p5619
S'3'
sS'Draw'
p5620
S'0'
sS'%'
S'60.00'
p5621
sS'Mat'
p5622
S'5'
sS'Conv'
p5623
S'0'
sS'Tries'
p5624
S'0'
sS'Pts'
p5625
S'0'
sa(dp5626
S'Pens'
p5627
S'0'
sS'Sub'
p5628
S'2'
sS'Lost'
p5629
S'5'
sS'Drop'
p5630
S'0'
sS'Start'
p5631
S'15'
p5632
sS'Won'
p5633
S'11'
p5634
sS'Draw'
p5635
S'1'
sS'%'
S'67.64'
p5636
sS'Mat'
p5637
S'17'
p5638
sS'Conv'
p5639
S'0'
sS'Tries'
p5640
S'5'
sS'Pts'
p5641
S'25'
p5642
sa(dp5643
S'Pens'
p5644
S'0'
sS'Sub'
p5645
S'2'
sS'Lost'
p5646
S'4'
sS'Drop'
p5647
S'0'
sS'Start'
p5648
S'7'
sS'Won'
p5649
S'5'
sS'Draw'
p5650
S'0'
sS'%'
S'55.55'
p5651
sS'Mat'
p5652
S'9'
sS'Conv'
p5653
S'0'
sS'Tries'
p5654
S'3'
sS'Pts'
p5655
S'15'
p5656
sa(dp5657
S'Pens'
p5658
S'0'
sS'Sub'
p5659
S'3'
sS'Lost'
p5660
S'3'
sS'Drop'
p5661
S'0'
sS'Start'
p5662
S'5'
sS'Won'
p5663
S'5'
sS'Draw'
p5664
S'0'
sS'%'
S'62.50'
p5665
sS'Mat'
p5666
S'8'
sS'Conv'
p5667
S'0'
sS'Tries'
p5668
S'0'
sS'Pts'
p5669
S'0'
sa(dp5670
S'Pens'
p5671
S'0'
sS'Sub'
p5672
S'1'
sS'Lost'
p5673
S'1'
sS'Drop'
p5674
S'0'
sS'Start'
p5675
S'3'
sS'Won'
p5676
S'3'
sS'Draw'
p5677
S'0'
sS'%'
S'75.00'
p5678
sS'Mat'
p5679
S'4'
sS'Conv'
p5680
S'0'
sS'Tries'
p5681
S'0'
sS'Pts'
p5682
S'0'
sa(dp5683
S'Pens'
p5684
S'0'
sS'Sub'
p5685
S'6'
sS'Lost'
p5686
S'7'
sS'Drop'
p5687
S'0'
sS'Start'
p5688
S'6'
sS'Won'
p5689
S'5'
sS'Draw'
p5690
S'0'
sS'%'
S'41.66'
p5691
sS'Mat'
p5692
S'12'
p5693
sS'Conv'
p5694
S'0'
sS'Tries'
p5695
S'0'
sS'Pts'
p5696
S'0'
sa(dp5697
S'Pens'
p5698
S'0'
sS'Sub'
p5699
S'6'
sS'Lost'
p5700
S'12'
p5701
sS'Drop'
p5702
S'0'
sS'Start'
p5703
S'17'
p5704
sS'Won'
p5705
S'11'
p5706
sS'Draw'
p5707
S'0'
sS'%'
S'47.82'
p5708
sS'Mat'
p5709
S'23'
p5710
sS'Conv'
p5711
S'0'
sS'Tries'
p5712
S'3'
sS'Pts'
p5713
S'15'
p5714
sa(dp5715
S'Pens'
p5716
S'0'
sS'Sub'
p5717
S'2'
sS'Lost'
p5718
S'1'
sS'Drop'
p5719
S'0'
sS'Start'
p5720
S'0'
sS'Won'
p5721
S'1'
sS'Draw'
p5722
S'0'
sS'%'
S'50.00'
p5723
sS'Mat'
p5724
S'2'
sS'Conv'
p5725
S'0'
sS'Tries'
p5726
S'0'
sS'Pts'
p5727
S'0'
sa(dp5728
S'Pens'
p5729
S'0'
sS'Sub'
p5730
S'1'
sS'Lost'
p5731
S'0'
sS'Drop'
p5732
S'0'
sS'Start'
p5733
S'0'
sS'Won'
p5734
S'1'
sS'Draw'
p5735
S'0'
sS'%'
S'100.00'
p5736
sS'Mat'
p5737
S'1'
sS'Conv'
p5738
S'0'
sS'Tries'
p5739
S'0'
sS'Pts'
p5740
S'0'
sa(dp5741
S'Pens'
p5742
S'0'
sS'Sub'
p5743
S'2'
sS'Lost'
p5744
S'2'
sS'Drop'
p5745
S'0'
sS'Start'
p5746
S'2'
sS'Won'
p5747
S'2'
sS'Draw'
p5748
S'0'
sS'%'
S'50.00'
p5749
sS'Mat'
p5750
S'4'
sS'Conv'
p5751
S'0'
sS'Tries'
p5752
S'3'
sS'Pts'
p5753
S'15'
p5754
sa(dp5755
S'Pens'
p5756
S'0'
sS'Sub'
p5757
S'5'
sS'Lost'
p5758
S'20'
p5759
sS'Drop'
p5760
S'0'
sS'Start'
p5761
S'28'
p5762
sS'Won'
p5763
S'13'
p5764
sS'Draw'
p5765
S'0'
sS'%'
S'39.39'
p5766
sS'Mat'
p5767
S'33'
p5768
sS'Conv'
p5769
S'0'
sS'Tries'
p5770
S'2'
sS'Pts'
p5771
S'10'
p5772
sa(dp5773
S'Pens'
p5774
S'0'
sS'Sub'
p5775
S'1'
sS'Lost'
p5776
S'1'
sS'Drop'
p5777
S'0'
sS'Start'
p5778
S'1'
sS'Won'
p5779
S'1'
sS'Draw'
p5780
S'0'
sS'%'
S'50.00'
p5781
sS'Mat'
p5782
S'2'
sS'Conv'
p5783
S'0'
sS'Tries'
p5784
S'0'
sS'Pts'
p5785
S'0'
sa(dp5786
S'Pens'
p5787
S'0'
sS'Sub'
p5788
S'9'
sS'Lost'
p5789
S'5'
sS'Drop'
p5790
S'0'
sS'Start'
p5791
S'6'
sS'Won'
p5792
S'10'
p5793
sS'Draw'
p5794
S'0'
sS'%'
S'66.66'
p5795
sS'Mat'
p5796
S'15'
p5797
sS'Conv'
p5798
S'0'
sS'Tries'
p5799
S'5'
sS'Pts'
p5800
S'25'
p5801
sa(dp5802
S'Pens'
p5803
S'0'
sS'Sub'
p5804
S'1'
sS'Lost'
p5805
S'0'
sS'Drop'
p5806
S'0'
sS'Start'
p5807
S'0'
sS'Won'
p5808
S'1'
sS'Draw'
p5809
S'0'
sS'%'
S'100.00'
p5810
sS'Mat'
p5811
S'1'
sS'Conv'
p5812
S'1'
sS'Tries'
p5813
S'0'
sS'Pts'
p5814
S'2'
sa(dp5815
S'Pens'
p5816
S'0'
sS'Sub'
p5817
S'3'
sS'Lost'
p5818
S'3'
sS'Drop'
p5819
S'0'
sS'Start'
p5820
S'3'
sS'Won'
p5821
S'3'
sS'Draw'
p5822
S'0'
sS'%'
S'50.00'
p5823
sS'Mat'
p5824
S'6'
sS'Conv'
p5825
S'0'
sS'Tries'
p5826
S'0'
sS'Pts'
p5827
S'0'
sa(dp5828
S'Pens'
p5829
S'12'
p5830
sS'Sub'
p5831
S'1'
sS'Lost'
p5832
S'5'
sS'Drop'
p5833
S'0'
sS'Start'
p5834
S'9'
sS'Won'
p5835
S'5'
sS'Draw'
p5836
S'0'
sS'%'
S'50.00'
p5837
sS'Mat'
p5838
S'10'
p5839
sS'Conv'
p5840
S'13'
p5841
sS'Tries'
p5842
S'0'
sS'Pts'
p5843
S'62'
p5844
sa(dp5845
S'Pens'
p5846
S'0'
sS'Sub'
p5847
S'0'
sS'Lost'
p5848
S'0'
sS'Drop'
p5849
S'0'
sS'Start'
p5850
S'1'
sS'Won'
p5851
S'1'
sS'Draw'
p5852
S'0'
sS'%'
S'100.00'
p5853
sS'Mat'
p5854
S'1'
sS'Conv'
p5855
S'0'
sS'Tries'
p5856
S'0'
sS'Pts'
p5857
S'0'
sa(dp5858
S'Pens'
p5859
S'0'
sS'Sub'
p5860
S'8'
sS'Lost'
p5861
S'17'
p5862
sS'Drop'
p5863
S'0'
sS'Start'
p5864
S'22'
p5865
sS'Won'
p5866
S'13'
p5867
sS'Draw'
p5868
S'0'
sS'%'
S'43.33'
p5869
sS'Mat'
p5870
S'30'
p5871
sS'Conv'
p5872
S'0'
sS'Tries'
p5873
S'0'
sS'Pts'
p5874
S'0'
sa(dp5875
S'Pens'
p5876
S'0'
sS'Sub'
p5877
S'4'
sS'Lost'
p5878
S'4'
sS'Drop'
p5879
S'0'
sS'Start'
p5880
S'4'
sS'Won'
p5881
S'4'
sS'Draw'
p5882
S'0'
sS'%'
S'50.00'
p5883
sS'Mat'
p5884
S'8'
sS'Conv'
p5885
S'0'
sS'Tries'
p5886
S'0'
sS'Pts'
p5887
S'0'
sa(dp5888
S'Pens'
p5889
S'0'
sS'Sub'
p5890
S'4'
sS'Lost'
p5891
S'19'
p5892
sS'Drop'
p5893
S'0'
sS'Start'
p5894
S'29'
p5895
sS'Won'
p5896
S'13'
p5897
sS'Draw'
p5898
S'1'
sS'%'
S'40.90'
p5899
sS'Mat'
p5900
S'33'
p5901
sS'Conv'
p5902
S'0'
sS'Tries'
p5903
S'2'
sS'Pts'
p5904
S'10'
p5905
sa(dp5906
S'Pens'
p5907
S'15'
p5908
sS'Sub'
p5909
S'3'
sS'Lost'
p5910
S'10'
p5911
sS'Drop'
p5912
S'0'
sS'Start'
p5913
S'15'
p5914
sS'Won'
p5915
S'8'
sS'Draw'
p5916
S'0'
sS'%'
S'44.44'
p5917
sS'Mat'
p5918
S'18'
p5919
sS'Conv'
p5920
S'18'
p5921
sS'Tries'
p5922
S'5'
sS'Pts'
p5923
S'106'
p5924
sa(dp5925
S'Pens'
p5926
S'0'
sS'Sub'
p5927
S'1'
sS'Lost'
p5928
S'0'
sS'Drop'
p5929
S'0'
sS'Start'
p5930
S'0'
sS'Won'
p5931
S'1'
sS'Draw'
p5932
S'0'
sS'%'
S'100.00'
p5933
sS'Mat'
p5934
S'1'
sS'Conv'
p5935
S'0'
sS'Tries'
p5936
S'0'
sS'Pts'
p5937
S'0'
sa(dp5938
S'Pens'
p5939
S'0'
sS'Sub'
p5940
S'2'
sS'Lost'
p5941
S'0'
sS'Drop'
p5942
S'0'
sS'Start'
p5943
S'0'
sS'Won'
p5944
S'2'
sS'Draw'
p5945
S'0'
sS'%'
S'100.00'
p5946
sS'Mat'
p5947
S'2'
sS'Conv'
p5948
S'0'
sS'Tries'
p5949
S'0'
sS'Pts'
p5950
S'0'
sa(dp5951
S'Pens'
p5952
S'0'
sS'Sub'
p5953
S'11'
p5954
sS'Lost'
p5955
S'15'
p5956
sS'Drop'
p5957
S'0'
sS'Start'
p5958
S'12'
p5959
sS'Won'
p5960
S'8'
sS'Draw'
p5961
S'0'
sS'%'
S'34.78'
p5962
sS'Mat'
p5963
S'23'
p5964
sS'Conv'
p5965
S'0'
sS'Tries'
p5966
S'4'
sS'Pts'
p5967
S'20'
p5968
sa(dp5969
S'Pens'
p5970
S'0'
sS'Sub'
p5971
S'17'
p5972
sS'Lost'
p5973
S'20'
p5974
sS'Drop'
p5975
S'0'
sS'Start'
p5976
S'17'
p5977
sS'Won'
p5978
S'13'
p5979
sS'Draw'
p5980
S'1'
sS'%'
S'39.70'
p5981
sS'Mat'
p5982
S'34'
p5983
sS'Conv'
p5984
S'0'
sS'Tries'
p5985
S'4'
sS'Pts'
p5986
S'20'
p5987
sa(dp5988
S'Pens'
p5989
S'0'
sS'Sub'
p5990
S'2'
sS'Lost'
p5991
S'3'
sS'Drop'
p5992
S'0'
sS'Start'
p5993
S'2'
sS'Won'
p5994
S'1'
sS'Draw'
p5995
S'0'
sS'%'
S'25.00'
p5996
sS'Mat'
p5997
S'4'
sS'Conv'
p5998
S'0'
sS'Tries'
p5999
S'0'
sS'Pts'
p6000
S'0'
sa(dp6001
S'Pens'
p6002
S'0'
sS'Sub'
p6003
S'1'
sS'Lost'
p6004
S'0'
sS'Drop'
p6005
S'0'
sS'Start'
p6006
S'0'
sS'Won'
p6007
S'1'
sS'Draw'
p6008
S'0'
sS'%'
S'100.00'
p6009
sS'Mat'
p6010
S'1'
sS'Conv'
p6011
S'0'
sS'Tries'
p6012
S'0'
sS'Pts'
p6013
S'0'
sa(dp6014
S'Pens'
p6015
S'0'
sS'Sub'
p6016
S'1'
sS'Lost'
p6017
S'5'
sS'Drop'
p6018
S'0'
sS'Start'
p6019
S'9'
sS'Won'
p6020
S'5'
sS'Draw'
p6021
S'0'
sS'%'
S'50.00'
p6022
sS'Mat'
p6023
S'10'
p6024
sS'Conv'
p6025
S'0'
sS'Tries'
p6026
S'1'
sS'Pts'
p6027
S'5'
sa(dp6028
S'Pens'
p6029
S'0'
sS'Sub'
p6030
S'3'
sS'Lost'
p6031
S'3'
sS'Drop'
p6032
S'0'
sS'Start'
p6033
S'6'
sS'Won'
p6034
S'6'
sS'Draw'
p6035
S'0'
sS'%'
S'66.66'
p6036
sS'Mat'
p6037
S'9'
sS'Conv'
p6038
S'0'
sS'Tries'
p6039
S'5'
sS'Pts'
p6040
S'25'
p6041
sa(dp6042
S'Pens'
p6043
S'0'
sS'Sub'
p6044
S'0'
sS'Lost'
p6045
S'1'
sS'Drop'
p6046
S'0'
sS'Start'
p6047
S'1'
sS'Won'
p6048
S'0'
sS'Draw'
p6049
S'0'
sS'%'
S'0.00'
p6050
sS'Mat'
p6051
S'1'
sS'Conv'
p6052
S'0'
sS'Tries'
p6053
S'0'
sS'Pts'
p6054
S'0'
sa(dp6055
S'Pens'
p6056
S'0'
sS'Sub'
p6057
S'0'
sS'Lost'
p6058
S'1'
sS'Drop'
p6059
S'0'
sS'Start'
p6060
S'1'
sS'Won'
p6061
S'0'
sS'Draw'
p6062
S'0'
sS'%'
S'0.00'
p6063
sS'Mat'
p6064
S'1'
sS'Conv'
p6065
S'0'
sS'Tries'
p6066
S'0'
sS'Pts'
p6067
S'0'
sa(dp6068
S'Pens'
p6069
S'0'
sS'Sub'
p6070
S'0'
sS'Lost'
p6071
S'1'
sS'Drop'
p6072
S'0'
sS'Start'
p6073
S'1'
sS'Won'
p6074
S'0'
sS'Draw'
p6075
S'0'
sS'%'
S'0.00'
p6076
sS'Mat'
p6077
S'1'
sS'Conv'
p6078
S'0'
sS'Tries'
p6079
S'0'
sS'Pts'
p6080
S'0'
sa(dp6081
S'Pens'
p6082
S'0'
sS'Sub'
p6083
S'1'
sS'Lost'
p6084
S'2'
sS'Drop'
p6085
S'0'
sS'Start'
p6086
S'2'
sS'Won'
p6087
S'1'
sS'Draw'
p6088
S'0'
sS'%'
S'33.33'
p6089
sS'Mat'
p6090
S'3'
sS'Conv'
p6091
S'0'
sS'Tries'
p6092
S'0'
sS'Pts'
p6093
S'0'
sa(dp6094
S'Pens'
p6095
S'0'
sS'Sub'
p6096
S'1'
sS'Lost'
p6097
S'1'
sS'Drop'
p6098
S'0'
sS'Start'
p6099
S'0'
sS'Won'
p6100
S'0'
sS'Draw'
p6101
S'0'
sS'%'
S'0.00'
p6102
sS'Mat'
p6103
S'1'
sS'Conv'
p6104
S'0'
sS'Tries'
p6105
S'0'
sS'Pts'
p6106
S'0'
sa(dp6107
S'Pens'
p6108
S'0'
sS'Sub'
p6109
S'1'
sS'Lost'
p6110
S'1'
sS'Drop'
p6111
S'0'
sS'Start'
p6112
S'0'
sS'Won'
p6113
S'0'
sS'Draw'
p6114
S'0'
sS'%'
S'0.00'
p6115
sS'Mat'
p6116
S'1'
sS'Conv'
p6117
S'1'
sS'Tries'
p6118
S'0'
sS'Pts'
p6119
S'2'
sa(dp6120
S'Pens'
p6121
S'0'
sS'Sub'
p6122
S'3'
sS'Lost'
p6123
S'2'
sS'Drop'
p6124
S'0'
sS'Start'
p6125
S'2'
sS'Won'
p6126
S'3'
sS'Draw'
p6127
S'0'
sS'%'
S'60.00'
p6128
sS'Mat'
p6129
S'5'
sS'Conv'
p6130
S'0'
sS'Tries'
p6131
S'1'
sS'Pts'
p6132
S'5'
sa(dp6133
S'Pens'
p6134
S'0'
sS'Sub'
p6135
S'9'
sS'Lost'
p6136
S'5'
sS'Drop'
p6137
S'0'
sS'Start'
p6138
S'5'
sS'Won'
p6139
S'9'
sS'Draw'
p6140
S'0'
sS'%'
S'64.28'
p6141
sS'Mat'
p6142
S'14'
p6143
sS'Conv'
p6144
S'0'
sS'Tries'
p6145
S'1'
sS'Pts'
p6146
S'5'
sa(dp6147
S'Pens'
p6148
S'0'
sS'Sub'
p6149
S'8'
sS'Lost'
p6150
S'8'
sS'Drop'
p6151
S'0'
sS'Start'
p6152
S'8'
sS'Won'
p6153
S'8'
sS'Draw'
p6154
S'0'
sS'%'
S'50.00'
p6155
sS'Mat'
p6156
S'16'
p6157
sS'Conv'
p6158
S'1'
sS'Tries'
p6159
S'4'
sS'Pts'
p6160
S'22'
p6161
sa(dp6162
S'Pens'
p6163
S'0'
sS'Sub'
p6164
S'1'
sS'Lost'
p6165
S'0'
sS'Drop'
p6166
S'0'
sS'Start'
p6167
S'0'
sS'Won'
p6168
S'1'
sS'Draw'
p6169
S'0'
sS'%'
S'100.00'
p6170
sS'Mat'
p6171
S'1'
sS'Conv'
p6172
S'0'
sS'Tries'
p6173
S'0'
sS'Pts'
p6174
S'0'
sa(dp6175
S'Pens'
p6176
S'0'
sS'Sub'
p6177
S'1'
sS'Lost'
p6178
S'0'
sS'Drop'
p6179
S'0'
sS'Start'
p6180
S'0'
sS'Won'
p6181
S'1'
sS'Draw'
p6182
S'0'
sS'%'
S'100.00'
p6183
sS'Mat'
p6184
S'1'
sS'Conv'
p6185
S'0'
sS'Tries'
p6186
S'0'
sS'Pts'
p6187
S'0'
sa(dp6188
S'Pens'
p6189
S'0'
sS'Sub'
p6190
S'4'
sS'Lost'
p6191
S'3'
sS'Drop'
p6192
S'0'
sS'Start'
p6193
S'2'
sS'Won'
p6194
S'3'
sS'Draw'
p6195
S'0'
sS'%'
S'50.00'
p6196
sS'Mat'
p6197
S'6'
sS'Conv'
p6198
S'0'
sS'Tries'
p6199
S'1'
sS'Pts'
p6200
S'5'
sa(dp6201
S'Pens'
p6202
S'0'
sS'Sub'
p6203
S'1'
sS'Lost'
p6204
S'1'
sS'Drop'
p6205
S'0'
sS'Start'
p6206
S'1'
sS'Won'
p6207
S'1'
sS'Draw'
p6208
S'0'
sS'%'
S'50.00'
p6209
sS'Mat'
p6210
S'2'
sS'Conv'
p6211
S'0'
sS'Tries'
p6212
S'0'
sS'Pts'
p6213
S'0'
sa(dp6214
S'Pens'
p6215
S'0'
sS'Sub'
p6216
S'1'
sS'Lost'
p6217
S'1'
sS'Drop'
p6218
S'0'
sS'Start'
p6219
S'0'
sS'Won'
p6220
S'0'
sS'Draw'
p6221
S'0'
sS'%'
S'0.00'
p6222
sS'Mat'
p6223
S'1'
sS'Conv'
p6224
S'0'
sS'Tries'
p6225
S'0'
sS'Pts'
p6226
S'0'
sa(dp6227
S'Pens'
p6228
S'0'
sS'Sub'
p6229
S'4'
sS'Lost'
p6230
S'2'
sS'Drop'
p6231
S'0'
sS'Start'
p6232
S'3'
sS'Won'
p6233
S'5'
sS'Draw'
p6234
S'0'
sS'%'
S'71.42'
p6235
sS'Mat'
p6236
S'7'
sS'Conv'
p6237
S'0'
sS'Tries'
p6238
S'0'
sS'Pts'
p6239
S'0'
sa(dp6240
S'Pens'
p6241
S'0'
sS'Sub'
p6242
S'2'
sS'Lost'
p6243
S'1'
sS'Drop'
p6244
S'0'
sS'Start'
p6245
S'0'
sS'Won'
p6246
S'1'
sS'Draw'
p6247
S'0'
sS'%'
S'50.00'
p6248
sS'Mat'
p6249
S'2'
sS'Conv'
p6250
S'0'
sS'Tries'
p6251
S'0'
sS'Pts'
p6252
S'0'
sa(dp6253
S'Pens'
p6254
S'0'
sS'Sub'
p6255
S'0'
sS'Lost'
p6256
S'1'
sS'Drop'
p6257
S'0'
sS'Start'
p6258
S'2'
sS'Won'
p6259
S'1'
sS'Draw'
p6260
S'0'
sS'%'
S'50.00'
p6261
sS'Mat'
p6262
S'2'
sS'Conv'
p6263
S'0'
sS'Tries'
p6264
S'0'
sS'Pts'
p6265
S'0'
sa(dp6266
S'Pens'
p6267
S'0'
sS'Sub'
p6268
S'3'
sS'Lost'
p6269
S'0'
sS'Drop'
p6270
S'0'
sS'Start'
p6271
S'1'
sS'Won'
p6272
S'4'
sS'Draw'
p6273
S'0'
sS'%'
S'100.00'
p6274
sS'Mat'
p6275
S'4'
sS'Conv'
p6276
S'0'
sS'Tries'
p6277
S'1'
sS'Pts'
p6278
S'5'
sa(dp6279
S'Pens'
p6280
S'0'
sS'Sub'
p6281
S'7'
sS'Lost'
p6282
S'20'
p6283
sS'Drop'
p6284
S'0'
sS'Start'
p6285
S'28'
p6286
sS'Won'
p6287
S'14'
p6288
sS'Draw'
p6289
S'1'
sS'%'
S'41.42'
p6290
sS'Mat'
p6291
S'35'
p6292
sS'Conv'
p6293
S'0'
sS'Tries'
p6294
S'2'
sS'Pts'
p6295
S'10'
p6296
sa(dp6297
S'Pens'
p6298
S'0'
sS'Sub'
p6299
S'8'
sS'Lost'
p6300
S'6'
sS'Drop'
p6301
S'0'
sS'Start'
p6302
S'3'
sS'Won'
p6303
S'5'
sS'Draw'
p6304
S'0'
sS'%'
S'45.45'
p6305
sS'Mat'
p6306
S'11'
p6307
sS'Conv'
p6308
S'0'
sS'Tries'
p6309
S'4'
sS'Pts'
p6310
S'20'
p6311
sa(dp6312
S'Pens'
p6313
S'8'
sS'Sub'
p6314
S'2'
sS'Lost'
p6315
S'1'
sS'Drop'
p6316
S'0'
sS'Start'
p6317
S'4'
sS'Won'
p6318
S'5'
sS'Draw'
p6319
S'0'
sS'%'
S'83.33'
p6320
sS'Mat'
p6321
S'6'
sS'Conv'
p6322
S'8'
sS'Tries'
p6323
S'0'
sS'Pts'
p6324
S'40'
p6325
sa(dp6326
S'Pens'
p6327
S'0'
sS'Sub'
p6328
S'4'
sS'Lost'
p6329
S'3'
sS'Drop'
p6330
S'0'
sS'Start'
p6331
S'2'
sS'Won'
p6332
S'3'
sS'Draw'
p6333
S'0'
sS'%'
S'50.00'
p6334
sS'Mat'
p6335
S'6'
sS'Conv'
p6336
S'0'
sS'Tries'
p6337
S'0'
sS'Pts'
p6338
S'0'
sa(dp6339
S'Pens'
p6340
S'2'
sS'Sub'
p6341
S'1'
sS'Lost'
p6342
S'2'
sS'Drop'
p6343
S'0'
sS'Start'
p6344
S'3'
sS'Won'
p6345
S'2'
sS'Draw'
p6346
S'0'
sS'%'
S'50.00'
p6347
sS'Mat'
p6348
S'4'
sS'Conv'
p6349
S'13'
p6350
sS'Tries'
p6351
S'1'
sS'Pts'
p6352
S'37'
p6353
sa(dp6354
S'Pens'
p6355
S'0'
sS'Sub'
p6356
S'1'
sS'Lost'
p6357
S'1'
sS'Drop'
p6358
S'0'
sS'Start'
p6359
S'5'
sS'Won'
p6360
S'5'
sS'Draw'
p6361
S'0'
sS'%'
S'83.33'
p6362
sS'Mat'
p6363
S'6'
sS'Conv'
p6364
S'0'
sS'Tries'
p6365
S'7'
sS'Pts'
p6366
S'35'
p6367
sa(dp6368
S'Pens'
p6369
S'0'
sS'Sub'
p6370
S'5'
sS'Lost'
p6371
S'5'
sS'Drop'
p6372
S'0'
sS'Start'
p6373
S'3'
sS'Won'
p6374
S'3'
sS'Draw'
p6375
S'0'
sS'%'
S'37.50'
p6376
sS'Mat'
p6377
S'8'
sS'Conv'
p6378
S'0'
sS'Tries'
p6379
S'1'
sS'Pts'
p6380
S'5'
sa(dp6381
S'Pens'
p6382
S'0'
sS'Sub'
p6383
S'0'
sS'Lost'
p6384
S'0'
sS'Drop'
p6385
S'0'
sS'Start'
p6386
S'1'
sS'Won'
p6387
S'1'
sS'Draw'
p6388
S'0'
sS'%'
S'100.00'
p6389
sS'Mat'
p6390
S'1'
sS'Conv'
p6391
S'0'
sS'Tries'
p6392
S'0'
sS'Pts'
p6393
S'0'
sa(dp6394
S'Pens'
p6395
S'0'
sS'Sub'
p6396
S'1'
sS'Lost'
p6397
S'0'
sS'Drop'
p6398
S'0'
sS'Start'
p6399
S'0'
sS'Won'
p6400
S'1'
sS'Draw'
p6401
S'0'
sS'%'
S'100.00'
p6402
sS'Mat'
p6403
S'1'
sS'Conv'
p6404
S'0'
sS'Tries'
p6405
S'0'
sS'Pts'
p6406
S'0'
sa(dp6407
S'Pens'
p6408
S'0'
sS'Sub'
p6409
S'2'
sS'Lost'
p6410
S'1'
sS'Drop'
p6411
S'0'
sS'Start'
p6412
S'0'
sS'Won'
p6413
S'1'
sS'Draw'
p6414
S'0'
sS'%'
S'50.00'
p6415
sS'Mat'
p6416
S'2'
sS'Conv'
p6417
S'0'
sS'Tries'
p6418
S'1'
sS'Pts'
p6419
S'5'
sa(dp6420
S'Pens'
p6421
S'0'
sS'Sub'
p6422
S'7'
sS'Lost'
p6423
S'6'
sS'Drop'
p6424
S'0'
sS'Start'
p6425
S'10'
p6426
sS'Won'
p6427
S'10'
p6428
sS'Draw'
p6429
S'1'
sS'%'
S'61.76'
p6430
sS'Mat'
p6431
S'17'
p6432
sS'Conv'
p6433
S'0'
sS'Tries'
p6434
S'0'
sS'Pts'
p6435
S'0'
sa(dp6436
S'Pens'
p6437
S'0'
sS'Sub'
p6438
S'5'
sS'Lost'
p6439
S'20'
p6440
sS'Drop'
p6441
S'0'
sS'Start'
p6442
S'35'
p6443
sS'Won'
p6444
S'18'
p6445
sS'Draw'
p6446
S'2'
sS'%'
S'47.50'
p6447
sS'Mat'
p6448
S'40'
p6449
sS'Conv'
p6450
S'0'
sS'Tries'
p6451
S'1'
sS'Pts'
p6452
S'5'
sa(dp6453
S'Pens'
p6454
S'0'
sS'Sub'
p6455
S'1'
sS'Lost'
p6456
S'2'
sS'Drop'
p6457
S'0'
sS'Start'
p6458
S'1'
sS'Won'
p6459
S'0'
sS'Draw'
p6460
S'0'
sS'%'
S'0.00'
p6461
sS'Mat'
p6462
S'2'
sS'Conv'
p6463
S'0'
sS'Tries'
p6464
S'0'
sS'Pts'
p6465
S'0'
sa(dp6466
S'Pens'
p6467
S'0'
sS'Sub'
p6468
S'1'
sS'Lost'
p6469
S'1'
sS'Drop'
p6470
S'0'
sS'Start'
p6471
S'0'
sS'Won'
p6472
S'0'
sS'Draw'
p6473
S'0'
sS'%'
S'0.00'
p6474
sS'Mat'
p6475
S'1'
sS'Conv'
p6476
S'0'
sS'Tries'
p6477
S'0'
sS'Pts'
p6478
S'0'
sa(dp6479
S'Pens'
p6480
S'0'
sS'Sub'
p6481
S'1'
sS'Lost'
p6482
S'1'
sS'Drop'
p6483
S'0'
sS'Start'
p6484
S'0'
sS'Won'
p6485
S'0'
sS'Draw'
p6486
S'0'
sS'%'
S'0.00'
p6487
sS'Mat'
p6488
S'1'
sS'Conv'
p6489
S'0'
sS'Tries'
p6490
S'0'
sS'Pts'
p6491
S'0'
sa(dp6492
S'Pens'
p6493
S'0'
sS'Sub'
p6494
S'0'
sS'Lost'
p6495
S'1'
sS'Drop'
p6496
S'0'
sS'Start'
p6497
S'4'
sS'Won'
p6498
S'3'
sS'Draw'
p6499
S'0'
sS'%'
S'75.00'
p6500
sS'Mat'
p6501
S'4'
sS'Conv'
p6502
S'0'
sS'Tries'
p6503
S'0'
sS'Pts'
p6504
S'0'
sa(dp6505
S'Pens'
p6506
S'0'
sS'Sub'
p6507
S'12'
p6508
sS'Lost'
p6509
S'15'
p6510
sS'Drop'
p6511
S'0'
sS'Start'
p6512
S'16'
p6513
sS'Won'
p6514
S'11'
p6515
sS'Draw'
p6516
S'2'
sS'%'
S'42.85'
p6517
sS'Mat'
p6518
S'28'
p6519
sS'Conv'
p6520
S'0'
sS'Tries'
p6521
S'4'
sS'Pts'
p6522
S'20'
p6523
sa(dp6524
S'Pens'
p6525
S'0'
sS'Sub'
p6526
S'2'
sS'Lost'
p6527
S'8'
sS'Drop'
p6528
S'0'
sS'Start'
p6529
S'17'
p6530
sS'Won'
p6531
S'10'
p6532
sS'Draw'
p6533
S'1'
sS'%'
S'55.26'
p6534
sS'Mat'
p6535
S'19'
p6536
sS'Conv'
p6537
S'0'
sS'Tries'
p6538
S'3'
sS'Pts'
p6539
S'15'
p6540
sa(dp6541
S'Pens'
p6542
S'0'
sS'Sub'
p6543
S'1'
sS'Lost'
p6544
S'2'
sS'Drop'
p6545
S'0'
sS'Start'
p6546
S'3'
sS'Won'
p6547
S'2'
sS'Draw'
p6548
S'0'
sS'%'
S'50.00'
p6549
sS'Mat'
p6550
S'4'
sS'Conv'
p6551
S'0'
sS'Tries'
p6552
S'0'
sS'Pts'
p6553
S'0'
sa(dp6554
S'Pens'
p6555
S'10'
p6556
sS'Sub'
p6557
S'0'
sS'Lost'
p6558
S'8'
sS'Drop'
p6559
S'0'
sS'Start'
p6560
S'18'
p6561
sS'Won'
p6562
S'10'
p6563
sS'Draw'
p6564
S'0'
sS'%'
S'55.55'
p6565
sS'Mat'
p6566
S'18'
p6567
sS'Conv'
p6568
S'11'
p6569
sS'Tries'
p6570
S'4'
sS'Pts'
p6571
S'72'
p6572
sa(dp6573
S'Pens'
p6574
S'0'
sS'Sub'
p6575
S'1'
sS'Lost'
p6576
S'1'
sS'Drop'
p6577
S'0'
sS'Start'
p6578
S'1'
sS'Won'
p6579
S'1'
sS'Draw'
p6580
S'0'
sS'%'
S'50.00'
p6581
sS'Mat'
p6582
S'2'
sS'Conv'
p6583
S'0'
sS'Tries'
p6584
S'0'
sS'Pts'
p6585
S'0'
sa(dp6586
S'Pens'
p6587
S'0'
sS'Sub'
p6588
S'6'
sS'Lost'
p6589
S'6'
sS'Drop'
p6590
S'0'
sS'Start'
p6591
S'6'
sS'Won'
p6592
S'5'
sS'Draw'
p6593
S'1'
sS'%'
S'45.83'
p6594
sS'Mat'
p6595
S'12'
p6596
sS'Conv'
p6597
S'0'
sS'Tries'
p6598
S'3'
sS'Pts'
p6599
S'15'
p6600
sa(dp6601
S'Pens'
p6602
S'0'
sS'Sub'
p6603
S'4'
sS'Lost'
p6604
S'5'
sS'Drop'
p6605
S'0'
sS'Start'
p6606
S'6'
sS'Won'
p6607
S'5'
sS'Draw'
p6608
S'0'
sS'%'
S'50.00'
p6609
sS'Mat'
p6610
S'10'
p6611
sS'Conv'
p6612
S'0'
sS'Tries'
p6613
S'1'
sS'Pts'
p6614
S'5'
sa(dp6615
S'Pens'
p6616
S'0'
sS'Sub'
p6617
S'2'
sS'Lost'
p6618
S'0'
sS'Drop'
p6619
S'0'
sS'Start'
p6620
S'0'
sS'Won'
p6621
S'2'
sS'Draw'
p6622
S'0'
sS'%'
S'100.00'
p6623
sS'Mat'
p6624
S'2'
sS'Conv'
p6625
S'0'
sS'Tries'
p6626
S'0'
sS'Pts'
p6627
S'0'
sa(dp6628
S'Pens'
p6629
S'0'
sS'Sub'
p6630
S'1'
sS'Lost'
p6631
S'1'
sS'Drop'
p6632
S'0'
sS'Start'
p6633
S'1'
sS'Won'
p6634
S'1'
sS'Draw'
p6635
S'0'
sS'%'
S'50.00'
p6636
sS'Mat'
p6637
S'2'
sS'Conv'
p6638
S'0'
sS'Tries'
p6639
S'0'
sS'Pts'
p6640
S'0'
sa(dp6641
S'Pens'
p6642
S'1'
sS'Sub'
p6643
S'2'
sS'Lost'
p6644
S'16'
p6645
sS'Drop'
p6646
S'0'
sS'Start'
p6647
S'26'
p6648
sS'Won'
p6649
S'11'
p6650
sS'Draw'
p6651
S'1'
sS'%'
S'41.07'
p6652
sS'Mat'
p6653
S'28'
p6654
sS'Conv'
p6655
S'0'
sS'Tries'
p6656
S'5'
sS'Pts'
p6657
S'28'
p6658
sa(dp6659
S'Pens'
p6660
S'0'
sS'Sub'
p6661
S'0'
sS'Lost'
p6662
S'0'
sS'Drop'
p6663
S'0'
sS'Start'
p6664
S'1'
sS'Won'
p6665
S'1'
sS'Draw'
p6666
S'0'
sS'%'
S'100.00'
p6667
sS'Mat'
p6668
S'1'
sS'Conv'
p6669
S'0'
sS'Tries'
p6670
S'0'
sS'Pts'
p6671
S'0'
sa(dp6672
S'Pens'
p6673
S'0'
sS'Sub'
p6674
S'1'
sS'Lost'
p6675
S'2'
sS'Drop'
p6676
S'0'
sS'Start'
p6677
S'4'
sS'Won'
p6678
S'3'
sS'Draw'
p6679
S'0'
sS'%'
S'60.00'
p6680
sS'Mat'
p6681
S'5'
sS'Conv'
p6682
S'0'
sS'Tries'
p6683
S'0'
sS'Pts'
p6684
S'0'
sa(dp6685
S'Pens'
p6686
S'0'
sS'Sub'
p6687
S'0'
sS'Lost'
p6688
S'0'
sS'Drop'
p6689
S'0'
sS'Start'
p6690
S'1'
sS'Won'
p6691
S'1'
sS'Draw'
p6692
S'0'
sS'%'
S'100.00'
p6693
sS'Mat'
p6694
S'1'
sS'Conv'
p6695
S'0'
sS'Tries'
p6696
S'0'
sS'Pts'
p6697
S'0'
sa(dp6698
S'Pens'
p6699
S'0'
sS'Sub'
p6700
S'1'
sS'Lost'
p6701
S'0'
sS'Drop'
p6702
S'0'
sS'Start'
p6703
S'0'
sS'Won'
p6704
S'1'
sS'Draw'
p6705
S'0'
sS'%'
S'100.00'
p6706
sS'Mat'
p6707
S'1'
sS'Conv'
p6708
S'0'
sS'Tries'
p6709
S'0'
sS'Pts'
p6710
S'0'
sa(dp6711
S'Pens'
p6712
S'0'
sS'Sub'
p6713
S'1'
sS'Lost'
p6714
S'0'
sS'Drop'
p6715
S'0'
sS'Start'
p6716
S'0'
sS'Won'
p6717
S'1'
sS'Draw'
p6718
S'0'
sS'%'
S'100.00'
p6719
sS'Mat'
p6720
S'1'
sS'Conv'
p6721
S'0'
sS'Tries'
p6722
S'0'
sS'Pts'
p6723
S'0'
sa(dp6724
S'Pens'
p6725
S'1'
sS'Sub'
p6726
S'2'
sS'Lost'
p6727
S'5'
sS'Drop'
p6728
S'0'
sS'Start'
p6729
S'5'
sS'Won'
p6730
S'2'
sS'Draw'
p6731
S'0'
sS'%'
S'28.57'
p6732
sS'Mat'
p6733
S'7'
sS'Conv'
p6734
S'0'
sS'Tries'
p6735
S'0'
sS'Pts'
p6736
S'3'
sa(dp6737
S'Pens'
p6738
S'0'
sS'Sub'
p6739
S'13'
p6740
sS'Lost'
p6741
S'12'
p6742
sS'Drop'
p6743
S'0'
sS'Start'
p6744
S'9'
sS'Won'
p6745
S'9'
sS'Draw'
p6746
S'1'
sS'%'
S'43.18'
p6747
sS'Mat'
p6748
S'22'
p6749
sS'Conv'
p6750
S'0'
sS'Tries'
p6751
S'0'
sS'Pts'
p6752
S'0'
sa(dp6753
S'Pens'
p6754
S'45'
p6755
sS'Sub'
p6756
S'2'
sS'Lost'
p6757
S'16'
p6758
sS'Drop'
p6759
S'2'
sS'Start'
p6760
S'26'
p6761
sS'Won'
p6762
S'11'
p6763
sS'Draw'
p6764
S'1'
sS'%'
S'41.07'
p6765
sS'Mat'
p6766
S'28'
p6767
sS'Conv'
p6768
S'16'
p6769
sS'Tries'
p6770
S'3'
sS'Pts'
p6771
S'188'
p6772
sa(dp6773
S'Pens'
p6774
S'15'
p6775
sS'Sub'
p6776
S'1'
sS'Lost'
p6777
S'4'
sS'Drop'
p6778
S'0'
sS'Start'
p6779
S'6'
sS'Won'
p6780
S'3'
sS'Draw'
p6781
S'0'
sS'%'
S'42.85'
p6782
sS'Mat'
p6783
S'7'
sS'Conv'
p6784
S'14'
p6785
sS'Tries'
p6786
S'1'
sS'Pts'
p6787
S'78'
p6788
sa(dp6789
S'Pens'
p6790
S'0'
sS'Sub'
p6791
S'1'
sS'Lost'
p6792
S'1'
sS'Drop'
p6793
S'0'
sS'Start'
p6794
S'1'
sS'Won'
p6795
S'1'
sS'Draw'
p6796
S'0'
sS'%'
S'50.00'
p6797
sS'Mat'
p6798
S'2'
sS'Conv'
p6799
S'0'
sS'Tries'
p6800
S'0'
sS'Pts'
p6801
S'0'
sa(dp6802
S'Pens'
p6803
S'0'
sS'Sub'
p6804
S'1'
sS'Lost'
p6805
S'6'
sS'Drop'
p6806
S'0'
sS'Start'
p6807
S'16'
p6808
sS'Won'
p6809
S'10'
p6810
sS'Draw'
p6811
S'1'
sS'%'
S'61.76'
p6812
sS'Mat'
p6813
S'17'
p6814
sS'Conv'
p6815
S'0'
sS'Tries'
p6816
S'2'
sS'Pts'
p6817
S'10'
p6818
sa(dp6819
S'Pens'
p6820
S'0'
sS'Sub'
p6821
S'11'
p6822
sS'Lost'
p6823
S'11'
p6824
sS'Drop'
p6825
S'0'
sS'Start'
p6826
S'13'
p6827
sS'Won'
p6828
S'12'
p6829
sS'Draw'
p6830
S'1'
sS'%'
S'52.08'
p6831
sS'Mat'
p6832
S'24'
p6833
sS'Conv'
p6834
S'0'
sS'Tries'
p6835
S'0'
sS'Pts'
p6836
S'0'
sa(dp6837
S'Pens'
p6838
S'0'
sS'Sub'
p6839
S'5'
sS'Lost'
p6840
S'11'
p6841
sS'Drop'
p6842
S'0'
sS'Start'
p6843
S'15'
p6844
sS'Won'
p6845
S'7'
sS'Draw'
p6846
S'2'
sS'%'
S'40.00'
p6847
sS'Mat'
p6848
S'20'
p6849
sS'Conv'
p6850
S'0'
sS'Tries'
p6851
S'2'
sS'Pts'
p6852
S'10'
p6853
sa(dp6854
S'Pens'
p6855
S'0'
sS'Sub'
p6856
S'1'
sS'Lost'
p6857
S'1'
sS'Drop'
p6858
S'0'
sS'Start'
p6859
S'1'
sS'Won'
p6860
S'1'
sS'Draw'
p6861
S'0'
sS'%'
S'50.00'
p6862
sS'Mat'
p6863
S'2'
sS'Conv'
p6864
S'0'
sS'Tries'
p6865
S'0'
sS'Pts'
p6866
S'0'
sa(dp6867
S'Pens'
p6868
S'0'
sS'Sub'
p6869
S'0'
sS'Lost'
p6870
S'1'
sS'Drop'
p6871
S'0'
sS'Start'
p6872
S'1'
sS'Won'
p6873
S'0'
sS'Draw'
p6874
S'0'
sS'%'
S'0.00'
p6875
sS'Mat'
p6876
S'1'
sS'Conv'
p6877
S'0'
sS'Tries'
p6878
S'0'
sS'Pts'
p6879
S'0'
sa(dp6880
S'Pens'
p6881
S'0'
sS'Sub'
p6882
S'0'
sS'Lost'
p6883
S'1'
sS'Drop'
p6884
S'0'
sS'Start'
p6885
S'1'
sS'Won'
p6886
S'0'
sS'Draw'
p6887
S'0'
sS'%'
S'0.00'
p6888
sS'Mat'
p6889
S'1'
sS'Conv'
p6890
S'0'
sS'Tries'
p6891
S'0'
sS'Pts'
p6892
S'0'
sa(dp6893
S'Pens'
p6894
S'0'
sS'Sub'
p6895
S'8'
sS'Lost'
p6896
S'5'
sS'Drop'
p6897
S'0'
sS'Start'
p6898
S'6'
sS'Won'
p6899
S'8'
sS'Draw'
p6900
S'1'
sS'%'
S'60.71'
p6901
sS'Mat'
p6902
S'14'
p6903
sS'Conv'
p6904
S'0'
sS'Tries'
p6905
S'0'
sS'Pts'
p6906
S'0'
sa(dp6907
S'Pens'
p6908
S'0'
sS'Sub'
p6909
S'4'
sS'Lost'
p6910
S'6'
sS'Drop'
p6911
S'0'
sS'Start'
p6912
S'14'
p6913
sS'Won'
p6914
S'10'
p6915
sS'Draw'
p6916
S'2'
sS'%'
S'61.11'
p6917
sS'Mat'
p6918
S'18'
p6919
sS'Conv'
p6920
S'0'
sS'Tries'
p6921
S'3'
sS'Pts'
p6922
S'15'
p6923
sa(dp6924
S'Pens'
p6925
S'0'
sS'Sub'
p6926
S'1'
sS'Lost'
p6927
S'1'
sS'Drop'
p6928
S'0'
sS'Start'
p6929
S'3'
sS'Won'
p6930
S'3'
sS'Draw'
p6931
S'0'
sS'%'
S'75.00'
p6932
sS'Mat'
p6933
S'4'
sS'Conv'
p6934
S'0'
sS'Tries'
p6935
S'0'
sS'Pts'
p6936
S'0'
sa(dp6937
S'Pens'
p6938
S'0'
sS'Sub'
p6939
S'1'
sS'Lost'
p6940
S'0'
sS'Drop'
p6941
S'0'
sS'Start'
p6942
S'1'
sS'Won'
p6943
S'2'
sS'Draw'
p6944
S'0'
sS'%'
S'100.00'
p6945
sS'Mat'
p6946
S'2'
sS'Conv'
p6947
S'0'
sS'Tries'
p6948
S'0'
sS'Pts'
p6949
S'0'
sa(dp6950
S'Pens'
p6951
S'0'
sS'Sub'
p6952
S'3'
sS'Lost'
p6953
S'7'
sS'Drop'
p6954
S'0'
sS'Start'
p6955
S'12'
p6956
sS'Won'
p6957
S'7'
sS'Draw'
p6958
S'1'
sS'%'
S'50.00'
p6959
sS'Mat'
p6960
S'15'
p6961
sS'Conv'
p6962
S'0'
sS'Tries'
p6963
S'2'
sS'Pts'
p6964
S'10'
p6965
sa(dp6966
S'Pens'
p6967
S'0'
sS'Sub'
p6968
S'1'
sS'Lost'
p6969
S'1'
sS'Drop'
p6970
S'0'
sS'Start'
p6971
S'3'
sS'Won'
p6972
S'3'
sS'Draw'
p6973
S'0'
sS'%'
S'75.00'
p6974
sS'Mat'
p6975
S'4'
sS'Conv'
p6976
S'0'
sS'Tries'
p6977
S'0'
sS'Pts'
p6978
S'0'
sa(dp6979
S'Pens'
p6980
S'0'
sS'Sub'
p6981
S'4'
sS'Lost'
p6982
S'7'
sS'Drop'
p6983
S'0'
sS'Start'
p6984
S'6'
sS'Won'
p6985
S'3'
sS'Draw'
p6986
S'0'
sS'%'
S'30.00'
p6987
sS'Mat'
p6988
S'10'
p6989
sS'Conv'
p6990
S'0'
sS'Tries'
p6991
S'0'
sS'Pts'
p6992
S'0'
sa(dp6993
S'Pens'
p6994
S'0'
sS'Sub'
p6995
S'0'
sS'Lost'
p6996
S'0'
sS'Drop'
p6997
S'0'
sS'Start'
p6998
S'1'
sS'Won'
p6999
S'1'
sS'Draw'
p7000
S'0'
sS'%'
S'100.00'
p7001
sS'Mat'
p7002
S'1'
sS'Conv'
p7003
S'0'
sS'Tries'
p7004
S'0'
sS'Pts'
p7005
S'0'
sa(dp7006
S'Pens'
p7007
S'0'
sS'Sub'
p7008
S'1'
sS'Lost'
p7009
S'0'
sS'Drop'
p7010
S'0'
sS'Start'
p7011
S'1'
sS'Won'
p7012
S'2'
sS'Draw'
p7013
S'0'
sS'%'
S'100.00'
p7014
sS'Mat'
p7015
S'2'
sS'Conv'
p7016
S'0'
sS'Tries'
p7017
S'1'
sS'Pts'
p7018
S'5'
sa(dp7019
S'Pens'
p7020
S'0'
sS'Sub'
p7021
S'13'
p7022
sS'Lost'
p7023
S'8'
sS'Drop'
p7024
S'0'
sS'Start'
p7025
S'1'
sS'Won'
p7026
S'5'
sS'Draw'
p7027
S'1'
sS'%'
S'39.28'
p7028
sS'Mat'
p7029
S'14'
p7030
sS'Conv'
p7031
S'0'
sS'Tries'
p7032
S'0'
sS'Pts'
p7033
S'0'
sa(dp7034
S'Pens'
p7035
S'0'
sS'Sub'
p7036
S'1'
sS'Lost'
p7037
S'6'
sS'Drop'
p7038
S'0'
sS'Start'
p7039
S'14'
p7040
sS'Won'
p7041
S'8'
sS'Draw'
p7042
S'1'
sS'%'
S'56.66'
p7043
sS'Mat'
p7044
S'15'
p7045
sS'Conv'
p7046
S'0'
sS'Tries'
p7047
S'3'
sS'Pts'
p7048
S'15'
p7049
sa(dp7050
S'Pens'
p7051
S'0'
sS'Sub'
p7052
S'2'
sS'Lost'
p7053
S'1'
sS'Drop'
p7054
S'0'
sS'Start'
p7055
S'1'
sS'Won'
p7056
S'2'
sS'Draw'
p7057
S'0'
sS'%'
S'66.66'
p7058
sS'Mat'
p7059
S'3'
sS'Conv'
p7060
S'0'
sS'Tries'
p7061
S'0'
sS'Pts'
p7062
S'0'
sa(dp7063
S'Pens'
p7064
S'0'
sS'Sub'
p7065
S'0'
sS'Lost'
p7066
S'1'
sS'Drop'
p7067
S'0'
sS'Start'
p7068
S'2'
sS'Won'
p7069
S'1'
sS'Draw'
p7070
S'0'
sS'%'
S'50.00'
p7071
sS'Mat'
p7072
S'2'
sS'Conv'
p7073
S'0'
sS'Tries'
p7074
S'4'
sS'Pts'
p7075
S'20'
p7076
sa(dp7077
S'Pens'
p7078
S'0'
sS'Sub'
p7079
S'2'
sS'Lost'
p7080
S'11'
p7081
sS'Drop'
p7082
S'0'
sS'Start'
p7083
S'20'
p7084
sS'Won'
p7085
S'9'
sS'Draw'
p7086
S'2'
sS'%'
S'45.45'
p7087
sS'Mat'
p7088
S'22'
p7089
sS'Conv'
p7090
S'0'
sS'Tries'
p7091
S'1'
sS'Pts'
p7092
S'5'
sa(dp7093
S'Pens'
p7094
S'0'
sS'Sub'
p7095
S'0'
sS'Lost'
p7096
S'0'
sS'Drop'
p7097
S'0'
sS'Start'
p7098
S'1'
sS'Won'
p7099
S'1'
sS'Draw'
p7100
S'0'
sS'%'
S'100.00'
p7101
sS'Mat'
p7102
S'1'
sS'Conv'
p7103
S'0'
sS'Tries'
p7104
S'0'
sS'Pts'
p7105
S'0'
sa(dp7106
S'Pens'
p7107
S'0'
sS'Sub'
p7108
S'2'
sS'Lost'
p7109
S'1'
sS'Drop'
p7110
S'0'
sS'Start'
p7111
S'0'
sS'Won'
p7112
S'1'
sS'Draw'
p7113
S'0'
sS'%'
S'50.00'
p7114
sS'Mat'
p7115
S'2'
sS'Conv'
p7116
S'0'
sS'Tries'
p7117
S'0'
sS'Pts'
p7118
S'0'
sa(dp7119
S'Pens'
p7120
S'0'
sS'Sub'
p7121
S'2'
sS'Lost'
p7122
S'10'
p7123
sS'Drop'
p7124
S'0'
sS'Start'
p7125
S'17'
p7126
sS'Won'
p7127
S'7'
sS'Draw'
p7128
S'2'
sS'%'
S'42.10'
p7129
sS'Mat'
p7130
S'19'
p7131
sS'Conv'
p7132
S'0'
sS'Tries'
p7133
S'3'
sS'Pts'
p7134
S'15'
p7135
sa(dp7136
S'Pens'
p7137
S'0'
sS'Sub'
p7138
S'0'
sS'Lost'
p7139
S'5'
sS'Drop'
p7140
S'0'
sS'Start'
p7141
S'10'
p7142
sS'Won'
p7143
S'4'
sS'Draw'
p7144
S'1'
sS'%'
S'45.00'
p7145
sS'Mat'
p7146
S'10'
p7147
sS'Conv'
p7148
S'0'
sS'Tries'
p7149
S'2'
sS'Pts'
p7150
S'10'
p7151
sa(dp7152
S'Pens'
p7153
S'0'
sS'Sub'
p7154
S'6'
sS'Lost'
p7155
S'5'
sS'Drop'
p7156
S'0'
sS'Start'
p7157
S'3'
sS'Won'
p7158
S'3'
sS'Draw'
p7159
S'1'
sS'%'
S'38.88'
p7160
sS'Mat'
p7161
S'9'
sS'Conv'
p7162
S'0'
sS'Tries'
p7163
S'1'
sS'Pts'
p7164
S'5'
sa(dp7165
S'Pens'
p7166
S'0'
sS'Sub'
p7167
S'3'
sS'Lost'
p7168
S'4'
sS'Drop'
p7169
S'0'
sS'Start'
p7170
S'3'
sS'Won'
p7171
S'2'
sS'Draw'
p7172
S'0'
sS'%'
S'33.33'
p7173
sS'Mat'
p7174
S'6'
sS'Conv'
p7175
S'0'
sS'Tries'
p7176
S'2'
sS'Pts'
p7177
S'10'
p7178
sa(dp7179
S'Pens'
p7180
S'0'
sS'Sub'
p7181
S'2'
sS'Lost'
p7182
S'2'
sS'Drop'
p7183
S'0'
sS'Start'
p7184
S'3'
sS'Won'
p7185
S'3'
sS'Draw'
p7186
S'0'
sS'%'
S'60.00'
p7187
sS'Mat'
p7188
S'5'
sS'Conv'
p7189
S'0'
sS'Tries'
p7190
S'0'
sS'Pts'
p7191
S'0'
sa(dp7192
S'Pens'
p7193
S'0'
sS'Sub'
p7194
S'5'
sS'Lost'
p7195
S'6'
sS'Drop'
p7196
S'0'
sS'Start'
p7197
S'5'
sS'Won'
p7198
S'2'
sS'Draw'
p7199
S'2'
sS'%'
S'30.00'
p7200
sS'Mat'
p7201
S'10'
p7202
sS'Conv'
p7203
S'0'
sS'Tries'
p7204
S'0'
sS'Pts'
p7205
S'0'
sa(dp7206
S'Pens'
p7207
S'0'
sS'Sub'
p7208
S'1'
sS'Lost'
p7209
S'2'
sS'Drop'
p7210
S'0'
sS'Start'
p7211
S'1'
sS'Won'
p7212
S'0'
sS'Draw'
p7213
S'0'
sS'%'
S'0.00'
p7214
sS'Mat'
p7215
S'2'
sS'Conv'
p7216
S'0'
sS'Tries'
p7217
S'0'
sS'Pts'
p7218
S'0'
sa(dp7219
S'Pens'
p7220
S'0'
sS'Sub'
p7221
S'6'
sS'Lost'
p7222
S'5'
sS'Drop'
p7223
S'0'
sS'Start'
p7224
S'2'
sS'Won'
p7225
S'3'
sS'Draw'
p7226
S'0'
sS'%'
S'37.50'
p7227
sS'Mat'
p7228
S'8'
sS'Conv'
p7229
S'0'
sS'Tries'
p7230
S'0'
sS'Pts'
p7231
S'0'
sa(dp7232
S'Pens'
p7233
S'0'
sS'Sub'
p7234
S'1'
sS'Lost'
p7235
S'1'
sS'Drop'
p7236
S'0'
sS'Start'
p7237
S'1'
sS'Won'
p7238
S'1'
sS'Draw'
p7239
S'0'
sS'%'
S'50.00'
p7240
sS'Mat'
p7241
S'2'
sS'Conv'
p7242
S'0'
sS'Tries'
p7243
S'0'
sS'Pts'
p7244
S'0'
sa(dp7245
S'Pens'
p7246
S'4'
sS'Sub'
p7247
S'5'
sS'Lost'
p7248
S'3'
sS'Drop'
p7249
S'0'
sS'Start'
p7250
S'2'
sS'Won'
p7251
S'3'
sS'Draw'
p7252
S'1'
sS'%'
S'50.00'
p7253
sS'Mat'
p7254
S'7'
sS'Conv'
p7255
S'4'
sS'Tries'
p7256
S'0'
sS'Pts'
p7257
S'20'
p7258
sa(dp7259
S'Pens'
p7260
S'0'
sS'Sub'
p7261
S'3'
sS'Lost'
p7262
S'2'
sS'Drop'
p7263
S'0'
sS'Start'
p7264
S'1'
sS'Won'
p7265
S'1'
sS'Draw'
p7266
S'1'
sS'%'
S'37.50'
p7267
sS'Mat'
p7268
S'4'
sS'Conv'
p7269
S'0'
sS'Tries'
p7270
S'0'
sS'Pts'
p7271
S'0'
sa(dp7272
S'Pens'
p7273
S'0'
sS'Sub'
p7274
S'0'
sS'Lost'
p7275
S'1'
sS'Drop'
p7276
S'0'
sS'Start'
p7277
S'1'
sS'Won'
p7278
S'0'
sS'Draw'
p7279
S'0'
sS'%'
S'0.00'
p7280
sS'Mat'
p7281
S'1'
sS'Conv'
p7282
S'0'
sS'Tries'
p7283
S'0'
sS'Pts'
p7284
S'0'
sa(dp7285
S'Pens'
p7286
S'0'
sS'Sub'
p7287
S'0'
sS'Lost'
p7288
S'1'
sS'Drop'
p7289
S'0'
sS'Start'
p7290
S'1'
sS'Won'
p7291
S'0'
sS'Draw'
p7292
S'0'
sS'%'
S'0.00'
p7293
sS'Mat'
p7294
S'1'
sS'Conv'
p7295
S'0'
sS'Tries'
p7296
S'0'
sS'Pts'
p7297
S'0'
sa(dp7298
S'Pens'
p7299
S'0'
sS'Sub'
p7300
S'1'
sS'Lost'
p7301
S'1'
sS'Drop'
p7302
S'0'
sS'Start'
p7303
S'0'
sS'Won'
p7304
S'0'
sS'Draw'
p7305
S'0'
sS'%'
S'0.00'
p7306
sS'Mat'
p7307
S'1'
sS'Conv'
p7308
S'0'
sS'Tries'
p7309
S'0'
sS'Pts'
p7310
S'0'
sa(dp7311
S'Pens'
p7312
S'0'
sS'Sub'
p7313
S'1'
sS'Lost'
p7314
S'1'
sS'Drop'
p7315
S'0'
sS'Start'
p7316
S'0'
sS'Won'
p7317
S'0'
sS'Draw'
p7318
S'0'
sS'%'
S'0.00'
p7319
sS'Mat'
p7320
S'1'
sS'Conv'
p7321
S'0'
sS'Tries'
p7322
S'0'
sS'Pts'
p7323
S'0'
sa(dp7324
S'Pens'
p7325
S'0'
sS'Sub'
p7326
S'1'
sS'Lost'
p7327
S'1'
sS'Drop'
p7328
S'0'
sS'Start'
p7329
S'0'
sS'Won'
p7330
S'0'
sS'Draw'
p7331
S'0'
sS'%'
S'0.00'
p7332
sS'Mat'
p7333
S'1'
sS'Conv'
p7334
S'0'
sS'Tries'
p7335
S'0'
sS'Pts'
p7336
S'0'
sa(dp7337
S'Pens'
p7338
S'0'
sS'Sub'
p7339
S'1'
sS'Lost'
p7340
S'1'
sS'Drop'
p7341
S'0'
sS'Start'
p7342
S'0'
sS'Won'
p7343
S'0'
sS'Draw'
p7344
S'0'
sS'%'
S'0.00'
p7345
sS'Mat'
p7346
S'1'
sS'Conv'
p7347
S'0'
sS'Tries'
p7348
S'0'
sS'Pts'
p7349
S'0'
sa(dp7350
S'Pens'
p7351
S'0'
sS'Sub'
p7352
S'4'
sS'Lost'
p7353
S'2'
sS'Drop'
p7354
S'0'
sS'Start'
p7355
S'2'
sS'Won'
p7356
S'3'
sS'Draw'
p7357
S'1'
sS'%'
S'58.33'
p7358
sS'Mat'
p7359
S'6'
sS'Conv'
p7360
S'0'
sS'Tries'
p7361
S'0'
sS'Pts'
p7362
S'0'
sa(dp7363
S'Pens'
p7364
S'14'
p7365
sS'Sub'
p7366
S'3'
sS'Lost'
p7367
S'4'
sS'Drop'
p7368
S'0'
sS'Start'
p7369
S'5'
sS'Won'
p7370
S'3'
sS'Draw'
p7371
S'1'
sS'%'
S'43.75'
p7372
sS'Mat'
p7373
S'8'
sS'Conv'
p7374
S'6'
sS'Tries'
p7375
S'0'
sS'Pts'
p7376
S'54'
p7377
sa(dp7378
S'Pens'
p7379
S'0'
sS'Sub'
p7380
S'2'
sS'Lost'
p7381
S'1'
sS'Drop'
p7382
S'0'
sS'Start'
p7383
S'0'
sS'Won'
p7384
S'1'
sS'Draw'
p7385
S'0'
sS'%'
S'50.00'
p7386
sS'Mat'
p7387
S'2'
sS'Conv'
p7388
S'0'
sS'Tries'
p7389
S'1'
sS'Pts'
p7390
S'5'
sa(dp7391
S'Pens'
p7392
S'0'
sS'Sub'
p7393
S'1'
sS'Lost'
p7394
S'1'
sS'Drop'
p7395
S'0'
sS'Start'
p7396
S'0'
sS'Won'
p7397
S'0'
sS'Draw'
p7398
S'0'
sS'%'
S'0.00'
p7399
sS'Mat'
p7400
S'1'
sS'Conv'
p7401
S'0'
sS'Tries'
p7402
S'0'
sS'Pts'
p7403
S'0'
sa(dp7404
S'Pens'
p7405
S'0'
sS'Sub'
p7406
S'0'
sS'Lost'
p7407
S'1'
sS'Drop'
p7408
S'0'
sS'Start'
p7409
S'3'
sS'Won'
p7410
S'1'
sS'Draw'
p7411
S'1'
sS'%'
S'50.00'
p7412
sS'Mat'
p7413
S'3'
sS'Conv'
p7414
S'0'
sS'Tries'
p7415
S'0'
sS'Pts'
p7416
S'0'
sa(dp7417
S'Pens'
p7418
S'0'
sS'Sub'
p7419
S'2'
sS'Lost'
p7420
S'4'
sS'Drop'
p7421
S'0'
sS'Start'
p7422
S'6'
sS'Won'
p7423
S'3'
sS'Draw'
p7424
S'1'
sS'%'
S'43.75'
p7425
sS'Mat'
p7426
S'8'
sS'Conv'
p7427
S'0'
sS'Tries'
p7428
S'1'
sS'Pts'
p7429
S'5'
sa(dp7430
S'Pens'
p7431
S'0'
sS'Sub'
p7432
S'1'
sS'Lost'
p7433
S'4'
sS'Drop'
p7434
S'0'
sS'Start'
p7435
S'5'
sS'Won'
p7436
S'2'
sS'Draw'
p7437
S'0'
sS'%'
S'33.33'
p7438
sS'Mat'
p7439
S'6'
sS'Conv'
p7440
S'0'
sS'Tries'
p7441
S'1'
sS'Pts'
p7442
S'5'
sa(dp7443
S'Pens'
p7444
S'0'
sS'Sub'
p7445
S'0'
sS'Lost'
p7446
S'1'
sS'Drop'
p7447
S'0'
sS'Start'
p7448
S'4'
sS'Won'
p7449
S'3'
sS'Draw'
p7450
S'0'
sS'%'
S'75.00'
p7451
sS'Mat'
p7452
S'4'
sS'Conv'
p7453
S'0'
sS'Tries'
p7454
S'1'
sS'Pts'
p7455
S'5'
sa(dp7456
S'Pens'
p7457
S'0'
sS'Sub'
p7458
S'0'
sS'Lost'
p7459
S'4'
sS'Drop'
p7460
S'0'
sS'Start'
p7461
S'5'
sS'Won'
p7462
S'1'
sS'Draw'
p7463
S'0'
sS'%'
S'20.00'
p7464
sS'Mat'
p7465
S'5'
sS'Conv'
p7466
S'1'
sS'Tries'
p7467
S'1'
sS'Pts'
p7468
S'7'
sa(dp7469
S'Pens'
p7470
S'0'
sS'Sub'
p7471
S'1'
sS'Lost'
p7472
S'2'
sS'Drop'
p7473
S'0'
sS'Start'
p7474
S'3'
sS'Won'
p7475
S'2'
sS'Draw'
p7476
S'0'
sS'%'
S'50.00'
p7477
sS'Mat'
p7478
S'4'
sS'Conv'
p7479
S'0'
sS'Tries'
p7480
S'0'
sS'Pts'
p7481
S'0'
sa(dp7482
S'Pens'
p7483
S'0'
sS'Sub'
p7484
S'3'
sS'Lost'
p7485
S'4'
sS'Drop'
p7486
S'0'
sS'Start'
p7487
S'4'
sS'Won'
p7488
S'2'
sS'Draw'
p7489
S'1'
sS'%'
S'35.71'
p7490
sS'Mat'
p7491
S'7'
sS'Conv'
p7492
S'0'
sS'Tries'
p7493
S'0'
sS'Pts'
p7494
S'0'
sa(dp7495
S'Pens'
p7496
S'0'
sS'Sub'
p7497
S'4'
sS'Lost'
p7498
S'3'
sS'Drop'
p7499
S'0'
sS'Start'
p7500
S'3'
sS'Won'
p7501
S'3'
sS'Draw'
p7502
S'1'
sS'%'
S'50.00'
p7503
sS'Mat'
p7504
S'7'
sS'Conv'
p7505
S'0'
sS'Tries'
p7506
S'1'
sS'Pts'
p7507
S'5'
sa(dp7508
S'Pens'
p7509
S'0'
sS'Sub'
p7510
S'2'
sS'Lost'
p7511
S'0'
sS'Drop'
p7512
S'0'
sS'Start'
p7513
S'0'
sS'Won'
p7514
S'1'
sS'Draw'
p7515
S'1'
sS'%'
S'75.00'
p7516
sS'Mat'
p7517
S'2'
sS'Conv'
p7518
S'0'
sS'Tries'
p7519
S'0'
sS'Pts'
p7520
S'0'
sa(dp7521
S'Pens'
p7522
S'0'
sS'Sub'
p7523
S'1'
sS'Lost'
p7524
S'0'
sS'Drop'
p7525
S'0'
sS'Start'
p7526
S'0'
sS'Won'
p7527
S'1'
sS'Draw'
p7528
S'0'
sS'%'
S'100.00'
p7529
sS'Mat'
p7530
S'1'
sS'Conv'
p7531
S'0'
sS'Tries'
p7532
S'0'
sS'Pts'
p7533
S'0'
sa.