(lp1
VJuly 15, 1978, Hemel Hempstead
p2
aVJanuary 21, 1982, Taplow, Bucks
p3
aVFebruary 10, 1974, Tokoroa
p4
aVSeptember 26, 1977, Dundee
p5
aVJune 16, 1980, Heidelberg
p6
aVSeptember 25, 1973, Lewisham
p7
aVJune 3, 1977, Johannesburg
p8
aVNovember 8, 1978, Clatterbridge
p9
aVMay 30, 1982, Stockton-on-Tees
p10
aVFebruary 20, 1982, Hertford
p11
aVAugust 14, 1982, Leicester
p12
aVDecember 1, 1976, Warrington
p13
aVJune 3, 1978, Cape Town
p14
aVFebruary 16, 1978, Bingley
p15
aVJune 24, 1980, Manchester
p16
aVOctober 1, 1982, Durban
p17
aVJanuary 16, 1980, London
p18
aVJanuary 10, 1981, Dartford
p19
aVApril 29, 1979, Swindon
p20
aVDecember 26, 1979, Workington
p21
aVApril 25, 1978, Gloucester
p22
aVNovember 1, 1979, Bromley, Kent
p23
aVSeptember 8, 1976, Guildford
p24
aVMay 17, 1982, Wigston
p25
aVFebruary 6, 1986, Shotley Bridge
p26
aVFebruary 9, 1981, Oxford
p27
aVOctober 1, 1974, King's Lynn
p28
aVApril 3, 1980, Coventry
p29
aVJune 30, 1977, Hamilton
p30
aVOctober 7, 1980, Leicester
p31
aVJuly 27, 1973, Wellington
p32
aVMarch 5, 1979, Torquay
p33
aVSeptember 16, 1985, Ashford, Kent
p34
aVMay 17, 1979, Bristol
p35
aVJune 25, 1983, Manchester
p36
aVMarch 10, 1978, Portsmouth
p37
aVJuly 9, 1976, Greenwich
p38
aVNovember 1, 1973, Chiswick
p39
aVSeptember 1, 1986, Southampton
p40
aVMay 4, 1978, Wolverhampton
p41
aVNovember 8, 1979, Westminster, London
p42
aVAugust 8, 1985, Frimley
p43
aVMay 30, 1975, Wigan
p44
aVNovember 3, 1985, London
p45
aVSeptember 11, 1984, London
p46
aVAugust 15, 1978, Epsom
p47
aVJuly 23, 1983, Warrington
p48
aVAugust 12, 1986, Coventry
p49
aVApril 2, 1985, Windsor
p50
aVApril 22, 1972, Southport
p51
aVSeptember 4, 1985, Southampton
p52
aVJanuary 19, 1979, Manchester
p53
aVMarch 31, 1979, Birkenhead
p54
aVSeptember 12, 1972, Exeter
p55
aVDecember 13, 1975, Cuckfield
p56
aVOctober 9, 1983, Harlow
p57
aVAugust 27, 1986, Bryanston
p58
aVJune 4, 1982, Ipswich
p59
aVSeptember 7, 1983, Worcester
p60
aVNovember 2, 1987, Roehampton
p61
aVMay 4, 1979, Nuku'alofa
p62
aVJune 9, 1983, Blackpool
p63
aVNovember 7, 1985, Basingstoke
p64
aVApril 25, 1982, Epsom
p65
aVJuly 28, 1985, Tottenham
p66
aVJanuary 2, 1987, Leeds
p67
aVNovember 24, 1983, Darwin
p68
aVFebruary 10, 1983, Swansea
p69
aVDecember 15, 1983, San Fernando, Trinidad
p70
aVFebruary 10, 1980, Featherston
p71
aVAugust 19, 1981, Southampton
p72
aVApril 13, 1983, Islington
p73
aVMarch 24, 1986, Rotorua
p74
aVJune 3, 1986, Bromsgrove
p75
aVSeptember 20, 1985, San Fernando, Trinidad
p76
aVJuly 22, 1985, Chester
p77
aVDecember 30, 1986, St Brelade, Jersey
p78
aVFebruary 5, 1979, London
p79
aVApril 9, 1985, South Shields
p80
aVNovember 26, 1981, Leicester
p81
aVJune 4, 1986, Redhill
p82
aVFebruary 20, 1980, Lagos
p83
aVFebruary 23, 1989, Hackney
p84
aVMay 2, 1985, Enfield
p85
aVMay 9, 1987, Leicester
p86
aVFebruary 23, 1987, Brighton
p87
aVSeptember 5, 1989, Cawston
p88
aVMarch 29, 1987, Wigan
p89
aVJanuary 30, 1981, Auckland
p90
aVApril 5, 1987, Bristol
p91
aVSeptember 19, 1979, Burgersdorp
p92
aVNovember 3, 1986, Coventry
p93
aVAugust 30, 1988, New York, NY, United States
p94
aVMay 18, 1991, Fatausi-Fogapoa, Western Samoa
p95
aVJanuary 29, 1982, Vryheid
p96
aVAugust 17, 1989
p97
aVJuly 5, 1988, Sydney, NSW
p98
aVAugust 7, 1986, Durban
p99
aVOctober 1, 1981, Guildford
p100
aVSeptember 24, 1991, Wigan
p101
aVMarch 29, 1985, Verden
p102
aVFebruary 18, 1989, Bristol
p103
aVOctober 28, 1983, Stockton-on-Tees
p104
aVJanuary 5, 1988, Camden, London
p105
aVAugust 1, 1986, York
p106
aVJuly 16, 1982, Dusseldorf
p107
aVJuly 7, 1990, Eastbourne
p108
aVMay 21, 1991, Derby
p109
aVMay 7, 1988, Cambridge
p110
aVApril 28, 1983, Lower Hutt
p111
aVJanuary 28, 1987, Norwich
p112
aVApril 12, 1991, Exeter
p113
aVJanuary 13, 1991, Wellington
p114
aVMay 13, 1990, Bath
p115
aVNovember 15, 1988, Chichester
p116
aVApril 14, 1992, Iserlohn
p117
aVMay 15, 1991, Slough
p118
aVJuly 17, 1989, Oldham
p119
aVOctober 30, 1991, Kingston-upon-Thames
p120
aVNovember 3, 1992, Sydney, NSW
p121
aVApril 1, 1990, Swindon
p122
aVApril 20, 1992, Castries
p123
aVJuly 21, 1984, Widnes
p124
aVMarch 21, 1987, Warrington
p125
aVDecember 6, 1987, Huddersfield
p126
aVApril 11, 1993, Truro
p127
aVMarch 16, 1993, Oldham
p128
aVAugust 5, 1988, Nottingham
p129
aVApril 26, 1987, Worcester
p130
aVAugust 29, 1990, Stoke-on-Trent
p131
aVAugust 28, 1987, Nausori
p132
aVFebruary 22, 1990, Guildford
p133
aVFebruary 26, 1994, Ashford
p134
aVDecember 14, 1988, Dewsbury
p135
aVJune 10, 1989, Stockton-on-Tees
p136
aVMarch 19, 1993, Plymouth
p137
aVJune 20, 1993, Truro
p138
aVOctober 20, 1990, Welwyn Garden City
p139
aVFebruary 12, 1993, Brisbane, QLD
p140
aVMarch 2, 1995, Aschaffenburg
p141
aVOctober 28, 1994, Camden
p142
aVOctober 8, 1992, Croydon
p143
aVSeptember 5, 1992, Opotiki
p144
aVSeptember 22, 1993, Yeovil
p145
aVFebruary 16, 1995, Bristol
p146
aVNovember 11, 1991, Macclesfield
p147
aVJune 10, 1991, Lautoka
p148
aVMarch 30, 1993, Wandsworth
p149
aVJanuary 27, 1987, Auckland
p150
aVJune 29, 1995, Bournemouth
p151
aVNovember 13, 1973, Southampton
p152
aVOctober 25, 1971, Lower Hutt
p153
aVAugust 29, 1973, Kelso
p154
aVOctober 29, 1971, Edinburgh
p155
aVApril 16, 1971, Duns
p156
aVJuly 28, 1972, Stirling
p157
aVMay 1, 1976, Brisbane, QLD
p158
aVAugust 20, 1972, Christchurch
p159
aVMarch 30, 1978, Edinburgh
p160
aVSeptember 25, 1973, Aberdeen
p161
aVNovember 21, 1973, Leeds
p162
aVApril 17, 1978, Edinburgh
p163
aVNovember 15, 1977, Sittingbourne
p164
aVApril 25, 1976, Edinburgh
p165
aVOctober 19, 1976, Dundee
p166
aVFebruary 17, 1976, Edinburgh
p167
aVNovember 29, 1976, Wagga Wagga
p168
aVJuly 26, 1974, Galashiels
p169
aVJuly 7, 1977, Glasgow
p170
aVMarch 14, 1980, Middlesbrough
p171
aVAugust 17, 1979, Stirling
p172
aVFebruary 3, 1980, Chatham, Kent
p173
aVSeptember 9, 1975, Sydney, NSW
p174
aVMarch 8, 1978, Edinburgh
p175
aVSeptember 13, 1978, Middleberg
p176
aVNovember 16, 1973, Invercargill
p177
aVApril 20, 1981, Edinburgh
p178
aVMarch 16, 1976, St Helens, Lancs
p179
aVDecember 20, 1979, Glasgow
p180
aVAugust 30, 1978, Fulford, York
p181
aVMarch 22, 1977, Melbourne, VIC
p182
aVSeptember 22, 1978, Edinburgh
p183
aVOctober 11, 1979, Edinburgh
p184
aVMarch 31, 1978, Edinburgh
p185
aVJune 5, 1979, Solihull
p186
aVFebruary 10, 1980, Edinburgh
p187
aVAugust 18, 1977, Edinburgh
p188
aVMarch 5, 1982, Aberdeen
p189
aVApril 3, 1977, Newcastle-upon-Tyne
p190
aVJuly 17, 1976, Edinburgh
p191
aVSeptember 8, 1979, Edinburgh
p192
aVJuly 22, 1977, Edinburgh
p193
aVSeptember 24, 1980, Dingwall
p194
aVMarch 8, 1981, Hartlepool
p195
aVJune 13, 1982, Aberdeen
p196
aVJanuary 20, 1983, Stirling
p197
aVJune 25, 1983, Edinburgh
p198
aVMay 26, 1978, Hornsby
p199
aVJanuary 15, 1981, Perth
p200
aVMay 14, 1980, London
p201
aVOctober 17, 1982
p202
aVSeptember 1, 1979, Dumfries
p203
aVFebruary 25, 1978, Salisbury, Rhodesia
p204
aVMarch 3, 1979, Hawick
p205
aVApril 23, 1984, Leith
p206
aVJune 14, 1981, Bishopbriggs
p207
aVApril 4, 1980, Wegberg
p208
aVOctober 10, 1982, Perth
p209
aVJune 8, 1982, Edinburgh
p210
aVSeptember 28, 1981, Lanark
p211
aVMay 20, 1982, Edinburgh
p212
aVAugust 7, 1980, Glasgow
p213
aVDecember 9, 1980, Fort Brown
p214
aVMay 25, 1977, Sydney, NSW
p215
aVFebruary 15, 1979
p216
aVNovember 21, 1985, Glasgow
p217
aVOctober 19, 1983, Marlborough
p218
aVFebruary 15, 1983, Edinburgh
p219
aVNovember 17, 1982, Swindon
p220
aVMarch 12, 1981, Dunfermline
p221
aVFebruary 21, 1983, Paisley
p222
aVOctober 18, 1983, Dundee
p223
aVSeptember 24, 1986
p224
aVSeptember 11, 1983, Dundee
p225
aVFebruary 1, 1984, Dumfries
p226
aVMarch 29, 1986, Edinburgh
p227
aVSeptember 29, 1985, Leeds
p228
aVApril 2, 1985, Harare
p229
aVFebruary 2, 1977, Christchurch
p230
aVSeptember 28, 1983, Torquay
p231
aVDecember 11, 1982, Edinburgh
p232
aVNovember 28, 1984, Torphins
p233
aVNovember 30, 1987, Solihull
p234
aVFebruary 27, 1986, Farnborough
p235
aVJuly 7, 1987, Dundee
p236
aVOctober 21, 1985, Edinburgh
p237
aVAugust 24, 1989, Rutherglen
p238
aVFebruary 12, 1988, Northampton
p239
aVOctober 12, 1985, Edinburgh
p240
aVOctober 29, 1985, Glasgow
p241
aVSeptember 3, 1987, Bristol
p242
aVFebruary 5, 1990, Marondera
p243
aVJune 28, 1988, Edinburgh
p244
aVJune 24, 1992, Melrose
p245
aVDecember 7, 1982, Plymouth
p246
aVMay 10, 1991, Glasgow
p247
aVSeptember 30, 1990, Dunfermline
p248
aVOctober 13, 1986, Glasgow
p249
aVOctober 8, 1985, Kirkcaldy
p250
aVMarch 31, 1990, Edinburgh
p251
aVMay 29, 1987, Zeewolde, Netherland
p252
aVFebruary 21, 1985, Nottingham
p253
aVMay 26, 1990, Crewe, Cheshire
p254
aVJuly 9, 1989, Dorchester
p255
aVFebruary 11, 1992, Inverness
p256
aVSeptember 14, 1988, Tokoroa
p257
aVMay 18, 1989, Aldershot
p258
aVAugust 9, 1990, Stirling
p259
aVApril 23, 1990, Dumfries
p260
aVApril 27, 1987, Irvine
p261
aVMay 20, 1989, Pretoria
p262
aVOctober 5, 1989, Kirkcaldy
p263
aVFebruary 22, 1984, Edinburgh
p264
aVSeptember 5, 1989, Northampton
p265
aVJanuary 7, 1986, Carlisle
p266
aVJuly 1, 1988, Tullahoma, TN, United States
p267
aVFebruary 17, 1987, London
p268
aVJune 20, 1989, Lanark
p269
aVMarch 14, 1994, Glasgow
p270
aVJanuary 27, 1991, Chichester
p271
aVJuly 21, 1989, Kirkcaldy
p272
aVAugust 8, 1990, Edinburgh
p273
aVApril 21, 1986, Upper Hutt
p274
aVMarch 4, 1987, Irvine
p275
aVSeptember 23, 1992, Stirling
p276
aVFebruary 28, 1992, Harrogate
p277
aVSeptember 7, 1988, Alloa
p278
aVJune 19, 1988, Kaitaia
p279
aVJuly 24, 1993, Livingston
p280
aVApril 15, 1986, Johannesburg
p281
aVFebruary 3, 1993, Cumnock
p282
aVAugust 4, 1993, Granada
p283
aVMarch 31, 1992, Brisbane, QLD
p284
aVOctober 15, 1991, Manchester
p285
aVSeptember 10, 1992, Tauranga
p286
aVNovember 7, 1984, Doncaster
p287
aVJuly 27, 1988, Lumsden
p288
aVMarch 4, 1993, Glasgow
p289
aVAugust 9, 1990, Edinburgh
p290
aVJanuary 11, 1994, Edinburgh
p291
aVApril 30, 1986, Loriesfontein
p292
aVOctober 23, 1986, Bellville
p293
aVJanuary 19, 1996, Perth
p294
aVAugust 24, 1992, Melrose
p295
aVDecember 17, 1993, Edinburgh
p296
aVMarch 16, 1992, Humansdorp
p297
aVAugust 23, 1995, Glasgow
p298
aVMay 12, 1993, Kings Lynn
p299
aVDecember 7, 1990, Christchurch
p300
aVMarch 23, 1991, Port Elizabeth
p301
aVMay 1, 1972
p302
aVOctober 2, 1975, Dublin
p303
aVOctober 15, 1978, Dublin
p304
aVSeptember 10, 1974, Sydney, NSW
p305
aVJanuary 21, 1979, Dublin
p306
aVSeptember 1, 1976, Limerick
p307
aVOctober 29, 1970, Auckland
p308
aVJuly 18, 1978, Dublin
p309
aVFebruary 10, 1980, Wexford
p310
aVFebruary 13, 1969, Drogheda
p311
aVJuly 13, 1974, Tipperary
p312
aVJuly 21, 1975, Harrogate
p313
aVNovember 2, 1973, Cappamore
p314
aVJuly 18, 1978, Bellewstown, Co.Meath
p315
aVMarch 7, 1977, San Diego, CA, United States
p316
aVDecember 13, 1977, Cork
p317
aVNovember 24, 1973, Dublin
p318
aVJuly 8, 1976, Cork
p319
aVMarch 21, 1971, Tadcaster
p320
aVApril 2, 1971, Newtownards, Northern Ireland
p321
aVApril 19, 1978, Dublin
p322
aVSeptember 7, 1977, Limerick
p323
aVAugust 27, 1976, Toronto, ON
p324
aVJuly 30, 1971, Belfast, Northern Ireland
p325
aVApril 4, 1973, Dublin
p326
aVJuly 18, 1971, Aughrim
p327
aVOctober 8, 1978, Cork
p328
aVMay 7, 1980, Limerick
p329
aVOctober 20, 1979, Limerick
p330
aVJune 17, 1976, Dublin
p331
aVApril 18, 1974, Dublin
p332
aVJanuary 9, 1978, Wicklow
p333
aVMarch 24, 1979, Cork
p334
aVAugust 9, 1978, Dun Laoighre
p335
aVFebruary 11, 1978, Craigavon, Northern Ireland
p336
aVNovember 15, 1976, Cork
p337
aVJanuary 5, 1977, Drogheda
p338
aVSeptember 25, 1978, Belfast, Northern Ireland
p339
aVSeptember 18, 1981, Ballina
p340
aVFebruary 9, 1980, Galway
p341
aVFebruary 22, 1984, Emyvale
p342
aVNovember 27, 1981, Tipperary
p343
aVSeptember 9, 1981, ?
p344
aVSeptember 21, 1981, Belfast, Northern Ireland
p345
aVJuly 26, 1979, Hillingdon, London
p346
aVNovember 19, 1979, Nenagh, Co.Tipperary
p347
aVMay 5, 1976, Carlow
p348
aVJanuary 4, 1978, Dublin
p349
aVAugust 19, 1980, Dublin
p350
aVMarch 4, 1979, Belfast, Northern Ireland
p351
aVAugust 15, 1982, Craigavon, Northern Ireland
p352
aVOctober 20, 1984, Coleraine, Northern Ireland
p353
aVOctober 17, 1978, Galway
p354
aVNovember 20, 1980, Limerick
p355
aVApril 9, 1980, Tokoroa
p356
aVJune 11, 1981, Ballymena, Northern Ireland
p357
aVAugust 27, 1979, Belfast, Northern Ireland
p358
aVAugust 2, 1985, Portadown, Northern Ireland
p359
aVSeptember 13, 1987, Wicklow
p360
aVDecember 15, 1983, Tiberias
p361
aVJuly 23, 1976, Cork
p362
aVOctober 8, 1980, Cork
p363
aVNovember 28, 1982, Limerick
p364
aVOctober 22, 1983, Cork
p365
aVJuly 8, 1981, Dublin
p366
aVMarch 26, 1986, Dublin
p367
aVOctober 2, 1987, Limerick
p368
aVDecember 11, 1983, Limerick
p369
aVNovember 6, 1980, Brisbane, QLD
p370
aVApril 5, 1987, Holywood, Northern Ireland
p371
aVOctober 5, 1982, Kilkenny
p372
aVApril 1, 1987, Dublin
p373
aVNovember 30, 1982, Ballinasloe
p374
aVSeptember 14, 1982, Pilltown, Co Meath
p375
aVJune 5, 1987, Lisburn, Northern Ireland
p376
aVSeptember 1, 1984, Belfast, Northern Ireland
p377
aVDecember 21, 1979, Cork
p378
aVJuly 15, 1984, West Cork
p379
aVOctober 7, 1987, Dublin
p380
aVJuly 11, 1985, Dublin
p381
aVMay 6, 1986, Limerick
p382
aVFebruary 14, 1987, Dublin
p383
aVSeptember 20, 1984, Dublin
p384
aVOctober 18, 1977, Cork
p385
aVJune 18, 1985, Bristol
p386
aVOctober 17, 1984, Belfast, Northern Ireland
p387
aVNovember 13, 1990, Dublin
p388
aVOctober 29, 1983, Limerick
p389
aVJune 29, 1986, Dublin
p390
aVJune 17, 1986, Kilkenny
p391
aVNovember 27, 1981, London
p392
aVAugust 5, 1987, Dublin
p393
aVApril 20, 1989, Limerick
p394
aVSeptember 17, 1989, Cork
p395
aVJuly 12, 1983, Bromsgrove, Worcs
p396
aVMarch 16, 1990, Cork
p397
aVNovember 1, 1984, Galway
p398
aVJanuary 29, 1986, Pretoria
p399
aVApril 25, 1986, Hawera
p400
aVFebruary 21, 1992, Craigavon, Northern Ireland
p401
aVDecember 14, 1988, Limerick
p402
aVMarch 11, 1991, Belfast, Northern Ireland
p403
aVJanuary 5, 1992, Lisburn, Northern Ireland
p404
aVMarch 3, 1991, Ballymena
p405
aVMarch 21, 1989, Dublin
p406
aVJanuary 29, 1988, Cork
p407
aVJuly 26, 1985, Belfast, Northern Ireland
p408
aVJune 12, 1993, Balinasloe
p409
aVMarch 11, 1993, Belfast, Northern Ireland
p410
aVApril 15, 1987, Dublin
p411
aVMay 21, 1987, Tipperary
p412
aVJune 18, 1988, Limerick
p413
aVMarch 23, 1981, Dublin
p414
aVOctober 11, 1989, Dublin
p415
aVJune 19, 1989, Dublin
p416
aVMarch 1, 1991, Dublin
p417
aVApril 22, 1991, Barcelona
p418
aVNovember 12, 1985, Johannesburg
p419
aVOctober 27, 1988, Wellington
p420
aVFebruary 11, 1992, Barking
p421
aVNovember 23, 1990, Ballincollig
p422
aVApril 27, 1990, Cape Town
p423
aVMay 22, 1990, Dublin
p424
aVOctober 13, 1985, Tauranga
p425
aVMay 16, 1988, Tipperary
p426
aVMarch 28, 1990, Dublin
p427
aVOctober 23, 1987, Wexford
p428
aVJuly 29, 1992, Dublin
p429
aVSeptember 4, 1981, Hawera
p430
aVNovember 14, 1992, New Ross
p431
aVApril 5, 1990, George
p432
aVAugust 6, 1992, Newtonards, Northern Ireland
p433
aVApril 25, 1993, Dublin
p434
aVNovember 9, 1993, Paris
p435
aVOctober 9, 1991, Canberra
p436
aVOctober 30, 1990, Pretoria
p437
aVFebruary 26, 1991, Galway
p438
aVMay 10, 1989, Auckland
p439
aVMarch 14, 1989, Dublin
p440
aVNovember 1, 1995, Auckland
p441
aVAugust 3, 1985, Cork
p442
aVFebruary 8, 1994, Waterford
p443
aVJanuary 26, 1995, Dublin
p444
aVNovember 3, 1990, Ibadan
p445
aVMay 23, 1994, Donnybrook
p446
aVFebruary 3, 1993, Hamilton, ONT
p447
aVAugust 2, 1988, Cork
p448
aVApril 2, 1991, Kildare
p449
aVApril 8, 1992, Cork
p450
aVJuly 11, 1991, Dublin
p451
aVJuly 7, 1975, Papakura
p452
aVFebruary 23, 1980, Bridgend
p453
aVNovember 18, 1977, Carmarthen
p454
aVDecember 15, 1976, Panteg
p455
aVJanuary 3, 1977, Glanaman
p456
aVNovember 7, 1979, Builth Wells
p457
aVMay 7, 1979, Bridgend
p458
aVOctober 28, 1975, Neath
p459
aVApril 9, 1981, Swansea
p460
aVOctober 22, 1977, Leamington Spa
p461
aVFebruary 1, 1982, Bridgend
p462
aVApril 20, 1977, Neath
p463
aVJanuary 18, 1976, Cardiff
p464
aVApril 7, 1980, Cardiff
p465
aVNovember 24, 1979, Harrow
p466
aVAugust 31, 1981, Carmarthen
p467
aVJune 25, 1976, Oldham
p468
aVNovember 23, 1968, Hull
p469
aVSeptember 18, 1978, Neath
p470
aVSeptember 26, 1978, Pontypridd
p471
aVNovember 13, 1972, Salisbury, Rhodesia
p472
aVNovember 7, 1980, Church Village
p473
aVDecember 4, 1973, Cardiff
p474
aVAugust 14, 1977, Pontypridd
p475
aVJuly 1, 1980, Panteg
p476
aVJune 21, 1979, Merthyr Tydfil
p477
aVSeptember 2, 1972, Nantgaredig
p478
aVNovember 17, 1980, Llantwit Fadre
p479
aVAugust 27, 1977, Thames
p480
aVJune 24, 1979, Aberystwyth
p481
aVJune 12, 1977, Morriston
p482
aVJanuary 21, 1980, Pontypridd
p483
aVSeptember 2, 1978, Newport
p484
aVDecember 19, 1978, Bridgend
p485
aVDecember 27, 1982, Pembroke
p486
aVOctober 17, 1979, Newport
p487
aVSeptember 16, 1980, Plymouth
p488
aVJanuary 3, 1982, Cardiff
p489
aVJune 11, 1983, Ebbw Vale
p490
aVMarch 8, 1981, Abercrave
p491
aVApril 21, 1982, S.Glamorgan
p492
aVNovember 15, 1974, Innisfail, Cairns
p493
aVMay 13, 1982, Neath
p494
aVAugust 29, 1982, Carmarthen
p495
aVJanuary 7, 1980, Bridgend
p496
aVOctober 14, 1976, Aberdare
p497
aVFebruary 7, 1981, Swansea
p498
aVJanuary 8, 1973, Swansea
p499
aVFebruary 23, 1981, Laingsburg
p500
aVFebruary 25, 1971, Derby
p501
aVMarch 13, 1981, Newport
p502
aVMarch 9, 1983, Camborne
p503
aVApril 9, 1983, Cardiff
p504
aVApril 9, 1982, Cardiff
p505
aVDecember 9, 1980, Tonyrefail
p506
aVMay 7, 1982, London
p507
aVAugust 10, 1983, Swansea
p508
aVApril 20, 1980, Pembroke Dock
p509
aVApril 23, 1982, Abercynon
p510
aVDecember 14, 1985, Cardiff
p511
aVApril 4, 1984, Bridgend
p512
aVJune 1, 1980, Bridgend
p513
aVFebruary 2, 1977, Newport Pagnell
p514
aVJanuary 12, 1980, Swansea
p515
aVDecember 30, 1982, Cardiff
p516
aVMarch 5, 1981, Carmarthen
p517
aVOctober 4, 1984, Johannesburg
p518
aVSeptember 19, 1985, Swansea
p519
aVDecember 13, 1983, Neath
p520
aVJune 27, 1985, Neath
p521
aVJuly 31, 1982, Johannesburg
p522
aVJuly 18, 1984, Swansea
p523
aVAugust 9, 1986, Cardiff
p524
aVJune 19, 1977, Newport
p525
aVOctober 17, 1978, Neath
p526
aVDecember 22, 1976, Plymouth
p527
aVApril 17, 1987, Merthyr Tydfil
p528
aVSeptember 23, 1984, Pontypridd
p529
aVNovember 8, 1986, Newport
p530
aVDecember 10, 1985, Swansea
p531
aVAugust 7, 1985, Llantrisant
p532
aVDecember 22, 1988, Swansea
p533
aVAugust 23, 1981, Brecon
p534
aVJune 6, 1986, Aberdare
p535
aVOctober 16, 1989, Swansea
p536
aVFebruary 13, 1981, St Asaph
p537
aVJanuary 9, 1987, Llantrisant
p538
aVApril 5, 1988, Solihull
p539
aVNovember 15, 1988, Swansea
p540
aVMay 3, 1986, Neath
p541
aVApril 28, 1986, Neath
p542
aVOctober 5, 1988, Cardiff
p543
aVDecember 18, 1987, Salford
p544
aVMay 21, 1983, Swansea
p545
aVOctober 30, 1986, Rhondda
p546
aVFebruary 23, 1992, Bridgend
p547
aVDecember 10, 1985, Wrexham
p548
aVJune 2, 1990, Glynneath
p549
aVMarch 30, 1987, Cardiff
p550
aVApril 13, 1992, King's Lynn
p551
aVJanuary 9, 1987, Llangathen
p552
aVMarch 12, 1988, Haverfordwest
p553
aVDecember 9, 1988, Bridgend
p554
aVNovember 12, 1990, Tofoa, Tongatapu
p555
aVAugust 1, 1989, Church Village
p556
aVDecember 9, 1984, Panteg
p557
aVOctober 10, 1990, Carmarthen
p558
aVAugust 6, 1989, Neath
p559
aVNovember 30, 1989, Cardiff
p560
aVJanuary 3, 1987, Carmarthen
p561
aVApril 5, 1990, Gloucester
p562
aVAugust 7, 1987, Aldershot
p563
aVSeptember 10, 1987, Treorchy
p564
aVDecember 9, 1988, Bridgend
p565
aVDecember 23, 1991, Aberystwyth
p566
aVApril 16, 1993, Pentyrch
p567
aVApril 9, 1991, Swansea
p568
aVMarch 7, 1991, Burry Port
p569
aVApril 15, 1990, Neath
p570
aVMay 20, 1986, Exeter
p571
aVOctober 27, 1984, Merthyr Tydfil
p572
aVMarch 19, 1981, Bristol
p573
aVMarch 22, 1995, Brecon
p574
aVJuly 24, 1990, Wodonga, VIC
p575
aVFebruary 22, 1987, Llandovery
p576
aVOctober 2, 1991, Merthyr Tydfil
p577
aVJuly 5, 1992, Neath
p578
aVMay 17, 1993, Llandough
p579
aVSeptember 26, 1985, Nelspruit
p580
aVDecember 30, 1990, Bridgend
p581
aVJuly 12, 1988, Bridgend
p582
aVFebruary 11, 1993, Cardiff
p583
aVNovember 30, 1992, Swansea
p584
aVSeptember 24, 1994, Stockport
p585
aVMay 5, 1993, Swansea
p586
aVJune 21, 1991, Ascot
p587
aVAugust 18, 1990, Carmarthen
p588
aVApril 23, 1992, Swansea
p589
aVApril 7, 1994, Swansea
p590
aVApril 14, 1992, Haverfordwest
p591
aVAugust 22, 1985, Pembroke
p592
aVSeptember 11, 1995, Newport
p593
aVApril 18, 1994, St Helens, Lancs
p594
aVMarch 28, 1992, Swansea
p595
aVMay 10, 1991, North Shore
p596
aVJuly 25, 1989, Merthyr Tydfil
p597
aVApril 27, 1992, York
p598
aVApril 29, 1993, Church Village
p599
aVOctober 6, 1993, Swansea
p600
aVFebruary 10, 1992, Maesycoed, Pontyprid
p601
aVMarch 5, 1980, Port Elizabeth
p602
aVJuly 17, 1975, Bellville
p603
aVFebruary 23, 1977, King William's Town
p604
aVMarch 2, 1976, Paarl
p605
aVJuly 14, 1977, Bellville
p606
aVSeptember 2, 1977, Harrismith
p607
aVJune 12, 1975, Queenstown
p608
aVJuly 1, 1978, Vereeniging
p609
aVMarch 22, 1979, Bethlehem
p610
aVSeptember 22, 1979, Newcastle, Natal
p611
aVFebruary 24, 1981, Paarl
p612
aVOctober 1, 1976, Bothaville
p613
aVJanuary 2, 1981, Nelspruit
p614
aVMay 6, 1979, George
p615
aVJune 3, 1979, Goodwood
p616
aVMarch 4, 1979, Frankfort
p617
aVFebruary 5, 1976, Mossel Bay
p618
aVAugust 27, 1980, Welkom
p619
aVApril 3, 1975, Cape Town
p620
aVMarch 25, 1974, Mafeking
p621
aVApril 12, 1976, George
p622
aVFebruary 25, 1979, Johannesburg
p623
aVSeptember 8, 1981, Caledon
p624
aVJuly 30, 1981, Bloemfontein
p625
aVSeptember 12, 1979, King William's Town
p626
aVAugust 18, 1969, Cape Town
p627
aVMarch 1, 1981, Fochville
p628
aVJuly 23, 1980, Klerksdorp
p629
aVMay 14, 1970, Canary Is
p630
aVMarch 4, 1983, Carletonville
p631
aVMay 6, 1978, Sabie
p632
aVJanuary 4, 1983, Citrusdal
p633
aVApril 13, 1983, Port Elizabeth
p634
aVMarch 18, 1977, Cape Town
p635
aVAugust 4, 1982, Klerksdorp
p636
aVMarch 24, 1982, Pretoria
p637
aVSeptember 25, 1979, Ermelo
p638
aVApril 14, 1978, Bloemfontein
p639
aVApril 17, 1978, Elim
p640
aVOctober 28, 1982, Kroonstad
p641
aVJune 5, 1981, Umtala
p642
aVJune 12, 1983, Johannesburg
p643
aVJune 12, 1981, Paarl
p644
aVJune 23, 1979, Port Elizabeth
p645
aVDecember 24, 1983, Masvingo
p646
aVFebruary 2, 1982, Hopefield
p647
aVOctober 12, 1981, Pretoria
p648
aVApril 19, 1985, Bethlehem
p649
aVJanuary 6, 1980, Mossel Bay
p650
aVJune 11, 1983, Welkom
p651
aVFebruary 20, 1981, Umtala, Transkei
p652
aVJune 8, 1985, Pretoria
p653
aVJanuary 4, 1980, Durban
p654
aVMarch 10, 1984, Bloemfontein
p655
aVSeptember 11, 1986, Tzaneen
p656
aVJuly 12, 1986, Stellenbosch
p657
aVFebruary 6, 1979, George
p658
aVDecember 10, 1979, Johannesburg
p659
aVMay 14, 1987, Aliwal North
p660
aVJune 11, 1986, Paarl
p661
aVNovember 15, 1980, Oudtshoorn
p662
aVApril 27, 1986, Durban
p663
aVOctober 26, 1983, Port Elizabeth
p664
aVNovember 16, 1982, Bethlehem
p665
aVMay 22, 1984, Bethlehem
p666
aVAugust 15, 1984, Durban
p667
aVOctober 14, 1985, Port Elizabeth
p668
aVMay 3, 1985, Johannesburg
p669
aVDecember 5, 1983, Goodwood
p670
aVSeptember 28, 1984, Bulawayo
p671
aVAugust 1, 1985, Harare
p672
aVFebruary 20, 1981, Umtala, Transkei
p673
aVMay 16, 1981, Empangeni
p674
aVNovember 18, 1985, Bloemfontein
p675
aVDecember 30, 1981, Eastern Cape
p676
aVJuly 21, 1986, Bloemfontein
p677
aVJuly 11, 1984, Bellville
p678
aVJune 16, 1984, George
p679
aVOctober 30, 1982, Bloemfontein
p680
aVMarch 5, 1985, Virginia
p681
aVApril 6, 1988, Paarl
p682
aVFebruary 22, 1987, Port Elizabeth
p683
aVOctober 6, 1982, Hermanus
p684
aVApril 15, 1988, Paarl
p685
aVJune 15, 1985, Cape Town
p686
aVFebruary 11, 1987, King William's Town
p687
aVApril 29, 1986, Durban
p688
aVJune 6, 1985, Potchefstroom
p689
aVJuly 24, 1986, King William's Town
p690
aVMarch 23, 1986, Cradock
p691
aVMarch 5, 1985, Humansdorp
p692
aVOctober 17, 1990, Durban
p693
aVMay 11, 1984, Pretoria
p694
aVJune 3, 1986, Umtala
p695
aVJanuary 1, 1986, Potgietersrus
p696
aVMay 16, 1986, Wynberg
p697
aVJanuary 23, 1985, Kempton Park
p698
aVOctober 4, 1984, Rustenburg
p699
aVAugust 5, 1983, Johannesburg
p700
aVMay 8, 1991, Potchefstroom
p701
aVOctober 29, 1991, Cape Town
p702
aVSeptember 6, 1985, Cape Town
p703
aVMarch 22, 1989, Potchefstroom
p704
aVApril 24, 1986, Port Elizabeth
p705
aVMarch 3, 1987, Pietermaritzburg
p706
aVFebruary 22, 1989, Port Elizabeth
p707
aVDecember 18, 1981, Kimberley
p708
aVJuly 3, 1986, Nelspruit
p709
aVJuly 27, 1992, Burgersdorp
p710
aVMarch 21, 1991, Springs
p711
aVAugust 1, 1990, Graaff Reinet
p712
aVOctober 26, 1991, Modimolle
p713
aVAugust 18, 1989, Cape Town
p714
aVJanuary 1, 1985, Graaff-Reinet
p715
aVMay 4, 1989, Bushbuck Ridge
p716
aVApril 15, 1993, Port Elizabeth
p717
aVJune 16, 1991, Port Elizabeth
p718
aVSeptember 14, 1989, Pretoria
p719
aVMarch 15, 1983, Paarl
p720
aVMarch 14, 1991, Paarl
p721
aVAugust 20, 1992, Cape Town
p722
aVFebruary 5, 1988, Cape Town
p723
aVApril 18, 1988, Paarl
p724
aVDecember 17, 1992, Alberton
p725
aVMarch 11, 1994, Somerset West
p726
aVJanuary 11, 1989, Nelspruit
p727
aVJanuary 27, 1992, Pretoria
p728
aVAugust 3, 1990, Qwa Qwa
p729
aVOctober 24, 1990, Welkom
p730
aVNovember 25, 1991, Cape Town
p731
aVSeptember 18, 1987, Durban
p732
aVFebruary 7, 1990, Bloemfontein
p733
aVApril 4, 1991, Cape Town
p734
aVSeptember 11, 1989, Pretoria
p735
aVFebruary 15, 1994, Cape Town
p736
aVMarch 13, 1990, Empangeni
p737
aVJuly 13, 1988, Port Elizabeth
p738
aVAugust 2, 1989, Riversdale
p739
aVOctober 19, 1991, Nelspruit
p740
aVMay 10, 1990, Vryheid
p741
aVNovember 27, 1990, Welkom
p742
aVFebruary 10, 1992, Somerset West
p743
aVAugust 21, 1989, Standerton
p744
aVJanuary 7, 1991, Bethlehem
p745
aVJuly 13, 1994, Germiston
p746
aVApril 19, 1991, Bloemfontein
p747
aVMarch 17, 1990, Strand
p748
aVSeptember 11, 1994, Welkom
p749
aVJanuary 7, 1990, Vryburg
p750
aVAugust 5, 1995, Durban
p751
aVMay 17, 1971, Brisbane, QLD
p752
aVJune 25, 1971, Newcastle, NSW
p753
aVJanuary 6, 1972, Sydney, NSW
p754
aVDecember 12, 1977, West Wyalong, NSW
p755
aVMay 27, 1973, Victoria
p756
aVMay 20, 1977, Sydney, NSW
p757
aVMarch 20, 1976, Sydney, NSW
p758
aVJune 16, 1980, Orange, NSW
p759
aVMarch 11, 1972, Newcastle, NSW
p760
aVNovember 22, 1973, Shoalhaven, NSW
p761
aVJuly 14, 1980, Manly, NSW
p762
aVMarch 4, 1974, Sydney, NSW
p763
aVSeptember 22, 1979, Sydney, NSW
p764
aVOctober 17, 1973, Melbourne, VIC
p765
aVOctober 17, 1976, Crewe
p766
aVApril 5, 1973, Brisbane, QLD
p767
aVApril 20, 1974, Sydney, NSW
p768
aVMay 21, 1974, Duke of York Island
p769
aVDecember 16, 1979, Brisbane, QLD
p770
aVJuly 16, 1974, Sarina, QLD
p771
aVFebruary 26, 1978, Wagga Wagga, NSW
p772
aVFebruary 1, 1976, Sydney, NSW
p773
aVMay 6, 1977, Brisbane, QLD
p774
aVJune 4, 1979, Cape Town
p775
aVFebruary 22, 1979, Brisbane, QLD
p776
aVMarch 20, 1980, Sydney, NSW
p777
aVSeptember 29, 1982, Auburn, NSW
p778
aVJune 30, 1977, Brisbane, QLD
p779
aVJanuary 5, 1982, Sydney, NSW
p780
aVSeptember 23, 1979, Namatakula
p781
aVNovember 17, 1981, Gatton
p782
aVJanuary 21, 1977, Canberra, ACT
p783
aVDecember 19, 1978, Calgary, AL
p784
aVApril 10, 1977, Brisbane, QLD
p785
aVJuly 23, 1981, Durban
p786
aVJuly 9, 1976, Nadi
p787
aVNovember 25, 1981, Queanbeyan
p788
aVMay 1, 1981, Millmerran, QLD
p789
aVSeptember 18, 1981, Gladstone, QLD
p790
aVOctober 13, 1981, Sydney, NSW
p791
aVFebruary 14, 1983, Melbourne, VIC
p792
aVNovember 1, 1983, Brisbane, QLD
p793
aVJanuary 20, 1983, Khamis Mushait, Saudi Arab
p794
aVSeptember 4, 1982, Sydney, NSW
p795
aVJuly 17, 1979, Newcastle, NSW
p796
aVMarch 26, 1984, Liverpool, NSW
p797
aVMarch 27, 1984, Camperdown, NSW
p798
aVMay 2, 1985, Melbourne, VIC
p799
aVMarch 4, 1983, Nowra
p800
aVNovember 30, 1982, Sydney, NSW
p801
aVJune 11, 1983, Warwick, QLD
p802
aVJanuary 19, 1976, Auburn, NSW
p803
aVJuly 26, 1985, Sydney, NSW
p804
aVJanuary 27, 1977, Melbourne, VIC
p805
aVApril 29, 1983, Tofoa, Tongatapu
p806
aVMarch 19, 1975, Brisbane, QLD
p807
aVMarch 30, 1984, Windsor
p808
aVFebruary 22, 1983, Newcastle, NSW
p809
aVJuly 27, 1982, Sydney, NSW
p810
aVFebruary 17, 1982, Djakata
p811
aVJuly 19, 1984, Sydney, NSW
p812
aVSeptember 16, 1979, Geraldton, WA
p813
aVAugust 3, 1979, Sydney, NSW
p814
aVDecember 2, 1983, Canberra, ACT
p815
aVJuly 14, 1985, Wellington
p816
aVMay 29, 1985, Brisbane, QLD
p817
aVMay 28, 1986, Brisbane, QLD
p818
aVAugust 20, 1983, Newcastle, NSW
p819
aVJuly 18, 1982, Brisbane, QLD
p820
aVMarch 5, 1984, Takapuna
p821
aVNovember 13, 1984, Sydney, NSW
p822
aVOctober 6, 1979, Sydney, NSW
p823
aVMay 11, 1987, Sydney, NSW
p824
aVOctober 16, 1980, Melbourne, VIC
p825
aVAugust 28, 1984, Townsville, QLD
p826
aVApril 23, 1988, Gweru
p827
aVApril 5, 1988, Tokoroa
p828
aVFebruary 5, 1986, Sydney, NSW
p829
aVJuly 5, 1990, Southport, QLD
p830
aVJuly 11, 1985, Canberra, ACT
p831
aVJune 2, 1986, Wellington
p832
aVJanuary 17, 1988, Port Moresby
p833
aVJanuary 6, 1989, Blacktown, NSW
p834
aVOctober 20, 1981, Ashburton
p835
aVAugust 15, 1989, Greenacre, NSW
p836
aVMarch 26, 1983, Sydney, NSW
p837
aVFebruary 2, 1987, Queanbeyan, NSW
p838
aVJune 25, 1981, Sydney, NSW
p839
aVJune 27, 1988, Sydney, NSW
p840
aVJune 6, 1989, Southport, QLD
p841
aVMarch 18, 1988, Dubbo, NSW
p842
aVApril 19, 1989, Theodore, QLD
p843
aVFebruary 2, 1987, Queanbeyan, NSW
p844
aVMarch 21, 1988, Manly, NSW
p845
aVSeptember 5, 1986, Subiaco, WA
p846
aVMay 18, 1989, Rockhampton, QLD
p847
aVJanuary 9, 1989, Baulkham Hills, NSW
p848
aVSeptember 19, 1986, Navutoka
p849
aVAugust 15, 1986, Alice Springs, NT
p850
aVJanuary 19, 1989, Brisbane, QLD
p851
aVJanuary 10, 1986, East Kurrajong, NSW
p852
aVJuly 8, 1988, North Shore
p853
aVApril 13, 1990, Brisbane, QLD
p854
aVSeptember 13, 1988, Shellharbour, NSW
p855
aVFebruary 11, 1990, Palmerston North
p856
aVOctober 29, 1991, Manly, NSW
p857
aVJuly 5, 1987, Auckland
p858
aVJune 8, 1992, Melbourne, VIC
p859
aVJanuary 4, 1991, Redcliffe, QLD
p860
aVJune 1, 1989, Maclean, NSW
p861
aVOctober 5, 1987, Port Macquarie
p862
aVSeptember 15, 1988, Brisbane, QLD
p863
aVAugust 9, 1988, Tamworth, NSW
p864
aVApril 3, 1989, Minto, QLD
p865
aVSeptember 24, 1987, Auckland
p866
aVDecember 1, 1984, Brisbane, QLD
p867
aVJune 8, 1989, Brisbane, QLD
p868
aVJanuary 2, 1990, Box Hill, VIC
p869
aVJuly 5, 1984, Sydney, NSW
p870
aVMarch 31, 1991, Nausori
p871
aVOctober 16, 1991, Eastwood, NSW
p872
aVJune 13, 1990, Scone, NSW
p873
aVNovember 17, 1993, Auckland
p874
aVSeptember 8, 1989, Glenmorie, NSW
p875
aVJanuary 6, 1989, Wellington
p876
aVSeptember 10, 1989, Quirindi, NSW
p877
aVJanuary 9, 1989, Baulkham Hills, NSW
p878
aVApril 2, 1991, Sydney, NSW
p879
aVApril 5, 1986, Sydney, NSW
p880
aVMay 3, 1992, Auckland
p881
aVFebruary 19, 1981, Narromine, NSW
p882
aVJuly 25, 1990, Sunnybank, QLD
p883
aVJune 18, 1994, Brisbane, QLD
p884
aVJuly 26, 1988, Tauranga
p885
aVMarch 24, 1988, Suva
p886
aVDecember 7, 1991, Yasawa Island
p887
aVOctober 10, 1988, Kirwan, QLD
p888
aVJuly 1, 1990, Wagga Wagga, NSW
p889
aVJune 18, 1989, Durban
p890
aVSeptember 27, 1993, Viseisei
p891
aVOctober 29, 1992, Brisbane, QLD
p892
aVOctober 7, 1991, Hobart, TAS
p893
aVJanuary 28, 1994, Sydney, NSW
p894
aVAugust 26, 1994, Manly, NSW
p895
aVAugust 28, 1994, Wellington, NSW
p896
aVSeptember 28, 1990, Navutoka
p897
aVJanuary 7, 1992, Levuka
p898
aVNovember 10, 1986, Levin
p899
aVFebruary 23, 1993, Tofoa, Tongatapu
p900
aVJuly 30, 1992, Harare
p901
aVDecember 31, 1980, Oamaru
p902
aVNovember 29, 1980, Christchurch
p903
aVJuly 14, 1971, Christchurch
p904
aVMarch 26, 1979, Westport
p905
aVJanuary 6, 1974, Turangi
p906
aVMarch 1, 1973, Hastings
p907
aVJune 3, 1975, Christchurch
p908
aVApril 20, 1979, Dunedin
p909
aVDecember 1, 1980, Subiaco
p910
aVJuly 29, 1976, Christchurch
p911
aVDecember 12, 1976, Boggabri, NSW
p912
aVSeptember 13, 1978, Dunedin
p913
aVJuly 14, 1976, Huntly
p914
aVDecember 14, 1976, Te Aroha
p915
aVApril 30, 1981, Auckland
p916
aVMarch 1, 1976, Hastings
p917
aVJune 2, 1981, Otahuhu
p918
aVFebruary 13, 1981, Tauranga
p919
aVOctober 2, 1980, Cambridge
p920
aVMarch 20, 1979, Tokoroa
p921
aVOctober 3, 1979, Moto'otua, Western Samoa
p922
aVJanuary 27, 1981, Helensville
p923
aVJanuary 26, 1977, Paraparaumu
p924
aVMay 21, 1982, Wellington
p925
aVJune 6, 1983, Nadi
p926
aVJuly 31, 1980, Salesi, Western Samoa
p927
aVMarch 5, 1982, Leeston
p928
aVFebruary 3, 1975, Mosgiel
p929
aVJanuary 5, 1981, Invercargill
p930
aVMay 5, 1983, Auckland
p931
aVJanuary 22, 1977, Henderson
p932
aVAugust 14, 1980, Takapuna
p933
aVFebruary 1, 1982, Auckland
p934
aVJuly 27, 1979, Rotorua
p935
aVMarch 25, 1981, Auckland
p936
aVFebruary 26, 1978, Gisborne
p937
aVOctober 12, 1981, Hawera
p938
aVDecember 21, 1979, Ha'apai
p939
aVJanuary 16, 1980, Auckland
p940
aVMarch 6, 1982, Gore
p941
aVMay 3, 1982, Moto'otua, Western Samoa
p942
aVSeptember 7, 1983, Lower Hutt
p943
aVFebruary 10, 1983, Christchurch
p944
aVApril 19, 1982, Suva
p945
aVOctober 30, 1978, Hobart, TAS
p946
aVJuly 3, 1981, Moto'otua, Western Samoa
p947
aVJanuary 7, 1980, Waipukarau
p948
aVJune 22, 1981, Ha'apai
p949
aVAugust 28, 1983, Waitara
p950
aVJuly 6, 1978, Auckland
p951
aVMay 15, 1979, Savai'i, Western Samoa
p952
aVJuly 15, 1982, Lower Hutt
p953
aVJanuary 12, 1981, Whangarei
p954
aVOctober 16, 1983, Auckland
p955
aVAugust 21, 1982, Palmerston North
p956
aVJanuary 15, 1986, Moto'otua, Western Samoa
p957
aVApril 22, 1980, Invercargill
p958
aVAugust 14, 1978, Durban
p959
aVApril 6, 1983, Tutuila
p960
aVJuly 31, 1978, Blenheim
p961
aVMarch 4, 1980, Christchurch
p962
aVFebruary 21, 1984, Christchurch
p963
aVApril 16, 1985, Morrinsville
p964
aVApril 14, 1979, Lower Hutt
p965
aVSeptember 28, 1983, Apia, Western Samoa
p966
aVFebruary 12, 1982, Auckland
p967
aVMarch 13, 1982, Ashburton
p968
aVDecember 27, 1983, Auckland
p969
aVDecember 3, 1983, Papakura
p970
aVJune 9, 1985, Tokoroa
p971
aVFebruary 2, 1984, Auckland
p972
aVFebruary 24, 1982, Te Aroha
p973
aVMarch 16, 1984, Gisborne
p974
aVFebruary 8, 1983, Lower Hutt
p975
aVFebruary 20, 1985, Invercargill
p976
aVMarch 25, 1984, Blenheim
p977
aVOctober 26, 1985, Papakura
p978
aVOctober 27, 1984, Ashburton
p979
aVOctober 28, 1984, Hastings
p980
aVMay 6, 1986, Tauranga
p981
aVJanuary 24, 1983, Burwood
p982
aVAugust 30, 1986, Wellington
p983
aVSeptember 11, 1984, Palmerston North
p984
aVDecember 23, 1987, Motueka
p985
aVMarch 27, 1986, Palmerston North
p986
aVOctober 1, 1981, Rotorua
p987
aVFebruary 8, 1989, Greytown
p988
aVJune 15, 1982, Rotorua
p989
aVApril 1, 1983, Wellington
p990
aVJune 1, 1986, Dunedin
p991
aVJune 6, 1988, Marton
p992
aVMarch 27, 1984, Frankston, VIC
p993
aVSeptember 11, 1984, Wollongong, NSW
p994
aVJanuary 8, 1989, Palmerston North
p995
aVMarch 27, 1987, Wellington
p996
aVOctober 12, 1988, Palmerston North
p997
aVSeptember 30, 1986, Auckland
p998
aVDecember 13, 1985, Hastings
p999
aVOctober 10, 1987, Burwood
p1000
aVAugust 3, 1985, Auckland
p1001
aVJanuary 22, 1986, Hastings
p1002
aVDecember 12, 1982, Porirua
p1003
aVMay 31, 1991, Rangiora
p1004
aVAugust 7, 1990, Wellington
p1005
aVNovember 21, 1988, Palmerston North
p1006
aVJanuary 13, 1992, Reporoa
p1007
aVFebruary 16, 1986, Nelson
p1008
aVMay 27, 1991, New Plymouth
p1009
aVDecember 24, 1986, South Auckland
p1010
aVDecember 10, 1986, Wellington
p1011
aVAugust 15, 1990, Altona, VIC
p1012
aVJanuary 12, 1988, Auckland
p1013
aVApril 19, 1985, Auckland
p1014
aVApril 29, 1991, Auckland
p1015
aVOctober 31, 1991, Auckland
p1016
aVMarch 24, 1988, Christchurch
p1017
aVSeptember 23, 1988, Nelson
p1018
aVMarch 11, 1989, Christchurch
p1019
aVFebruary 16, 1991, Auckland
p1020
aVApril 9, 1991, Waipukurau
p1021
aVMarch 6, 1988, Pangai
p1022
aVNovember 19, 1990, Wellington
p1023
aVJanuary 29, 1991, Palmerston North
p1024
aVMay 10, 1992, Hihifo, Ha'apai
p1025
aVJanuary 23, 1992, Porirua
p1026
aVJanuary 23, 1993, Auckland
p1027
aVSeptember 18, 1988, Christchurch
p1028
aVMarch 8, 1992, Tauranga
p1029
aVJanuary 4, 1990, Auckland
p1030
aVNovember 27, 1986, Palmerston North
p1031
aVNovember 5, 1990, Auckland
p1032
aVNovember 6, 1991, Fagaalu
p1033
aVAugust 17, 1990, Gisborne
p1034
aVJanuary 17, 1991, Napier
p1035
aVMay 8, 1991, Sigatoka
p1036
aVMarch 31, 1991, Levin
p1037
aVDecember 1, 1987, Kaitaia
p1038
aVFebruary 3, 1991, Lower Hutt
p1039
aVDecember 15, 1990, Taihape
p1040
aVOctober 14, 1993, Wellington
p1041
aVJuly 23, 1992, Lautoka
p1042
aVSeptember 4, 1989, Christchurch
p1043
aVMarch 20, 1991, Palmerston North
p1044
aVApril 19, 1992, Nuku'alofa
p1045
aVAugust 28, 1988, Wellington
p1046
aVApril 15, 1995, Christchurch
p1047
aVApril 20, 1995, Invercargill
p1048
aVNovember 20, 1993, New Plymouth
p1049
aVJanuary 25, 1990, New Plymouth
p1050
aVMarch 18, 1997, Auckland
p1051
aVJune 7, 1975, Toulouse
p1052
aVDecember 19, 1983, Kinshasa, Zaire
p1053
aVJanuary 26, 1975, Villefranche
p1054
aVMay 22, 1976, Neuilly-sur-Seine
p1055
aVMay 26, 1977, Clamart
p1056
aVJuly 3, 1980, Aix-en-Province
p1057
aVJanuary 13, 1978, Bayonne
p1058
aVSeptember 28, 1972, Perpignan
p1059
aVAugust 15, 1973, Talence
p1060
aVJanuary 26, 1983, Beziers
p1061
aVJanuary 12, 1982, Paris
p1062
aVAugust 4, 1982, Frejus
p1063
aVJuly 29, 1978, Tarbes
p1064
aVSeptember 7, 1983, Lavelanet
p1065
aVOctober 30, 1982, Perpignan
p1066
aVJuly 8, 1980, Agen
p1067
aVJanuary 17, 1984, Sens, Burgundy
p1068
aVApril 20, 1983, Ris-Orangis
p1069
aVOctober 31, 1972, Thouars
p1070
aVOctober 12, 1981, Toulouse
p1071
aVAugust 8, 1979, Vienne
p1072
aVJune 7, 1981, Valence
p1073
aVNovember 18, 1981, Abidjan, Ivory Coas
p1074
aVOctober 2, 1981, Woluwe-Saint-Lambert
p1075
aVMarch 31, 1985, Saint-Doulchard
p1076
aVOctober 24, 1985, Tarbes
p1077
aVDecember 20, 1976, Mont-de-Marsan
p1078
aVDecember 23, 1980, Grenoble
p1079
aVOctober 4, 1982, Toulouse
p1080
aVMarch 4, 1977, Toulon
p1081
aVNovember 1, 1986, Auch
p1082
aVJuly 31, 1981, Rodez
p1083
aVJune 2, 1984, Reims
p1084
aVNovember 27, 1985, Limoges
p1085
aVAugust 9, 1975, Chambery
p1086
aVOctober 30, 1981, Tarbes
p1087
aVMarch 26, 1982, Cannes
p1088
aVApril 13, 1977, Perpignan
p1089
aVJune 26, 1984, Toulouse
p1090
aVJanuary 17, 1972, Cenon
p1091
aVJuly 21, 1986, Ouagadougou
p1092
aVNovember 17, 1981, Lille
p1093
aVNovember 26, 1977, Montauban
p1094
aVMay 4, 1983, Le Puy-en-Velay
p1095
aVNovember 11, 1986, Herault
p1096
aVJanuary 19, 1980, Saint-Gaudens
p1097
aVNovember 15, 1988, Metz
p1098
aVFebruary 5, 1986, Paris
p1099
aVFebruary 12, 1983, Clermont-Ferrand
p1100
aVOctober 27, 1983, Agen
p1101
aVApril 15, 1988, Bourgoin
p1102
aVMay 25, 1983, Savignu-sur-Orge
p1103
aVJune 17, 1986, Ceret
p1104
aVApril 21, 1985, Montpellier
p1105
aVMarch 22, 1978, Agen
p1106
aVSeptember 9, 1987, Montauban
p1107
aVMay 7, 1980, Grenoble
p1108
aVMay 9, 1977, Tremblay-les-Gonesse
p1109
aVJuly 26, 1984, Paris
p1110
aVMay 14, 1985, Niort
p1111
aVNovember 6, 1975, Perpignan
p1112
aVApril 29, 1985, Oloron-Sainte-Marie
p1113
aVDecember 4, 1983, Talence
p1114
aVJuly 28, 1986, Epinal
p1115
aVApril 3, 1983, Castres
p1116
aVJanuary 5, 1984, Pau
p1117
aVNovember 16, 1986, Toulouse
p1118
aVSeptember 17, 1988, Creteil
p1119
aVAugust 20, 1985, Tulle
p1120
aVDecember 19, 1983, Perigueux
p1121
aVAugust 1, 1981, Grenoble
p1122
aVOctober 26, 1983, Marseille
p1123
aVMarch 3, 1989, Langon
p1124
aVApril 13, 1989, Paray-le-Monial
p1125
aVJanuary 2, 1984, La Fere
p1126
aVDecember 27, 1985, Frejus
p1127
aVMarch 28, 1989, Tarbes
p1128
aVSeptember 20, 1985, Perpignan
p1129
aVDecember 26, 1981, Carcassonne
p1130
aVJune 29, 1985, Perpignan
p1131
aVDecember 17, 1980, Dijon
p1132
aVJune 2, 1987, Pamiers
p1133
aVOctober 28, 1988, Tours
p1134
aVFebruary 12, 1991, Toulouse
p1135
aVJanuary 20, 1988, Paris
p1136
aVJanuary 14, 1988, Hyeres
p1137
aVDecember 16, 1991, Colmar
p1138
aVApril 13, 1990, Lot-et-Garonne
p1139
aVApril 21, 1989, Foix
p1140
aVSeptember 14, 1990, Mont-de-Marsan
p1141
aVDecember 31, 1993, Frejus
p1142
aVDecember 30, 1988, Bordeaux
p1143
aVMarch 1, 1984, Clermont-Ferrand
p1144
aVJanuary 2, 1982, Narbonne
p1145
aVNovember 18, 1982, Port Vila
p1146
aVOctober 21, 1991, Noumea, New Caledo
p1147
aVOctober 20, 1984, Durban
p1148
aVMarch 26, 1994, La Seyne-sur-Mer
p1149
aVApril 3, 1989, Oloron-Sainte-Marie
p1150
aVApril 21, 1985, Longjumeau
p1151
aVOctober 9, 1989, Cambrai
p1152
aVMarch 28, 1987, Frankfort
p1153
aVJune 4, 1989, Moorreesburg
p1154
aVMay 2, 1984, Mont-de-Marsan
p1155
aVAugust 25, 1990, Trappes
p1156
aVOctober 18, 1989, Sarcelles
p1157
aVMarch 27, 1989, Algiers
p1158
aVJune 6, 1988, Aubergenville
p1159
aVAugust 20, 1991, Neuilly-sur-Seine
p1160
aVJuly 22, 1987, Neuilly-sur-Seine
p1161
aVNovember 19, 1990, Toulouse
p1162
aVApril 2, 1986, Perpignan
p1163
aVApril 7, 1988, Pithiviers
p1164
aVJanuary 14, 1990, Sainte-Foy-la-Grande
p1165
aVAugust 5, 1983, Basse-Ham
p1166
aVAugust 24, 1989, Bourgoin
p1167
aVMay 4, 1986, Krugersdorp
p1168
aVSeptember 18, 1993, Biarritz
p1169
aVMarch 26, 1990, Timaru
p1170
aVFebruary 13, 1990, Toulon
p1171
aVJune 25, 1986, East London
p1172
aVMay 11, 1993, Saint-Pee-sur-Nivell
p1173
aVApril 23, 1989, Combronde
p1174
aVJuly 11, 1990, Naluwai
p1175
aVDecember 4, 1988, Lyon
p1176
aVNovember 22, 1991, Hauts-de-Seine
p1177
aVOctober 7, 1992, Paris
p1178
aVFebruary 6, 1993, Montlucon
p1179
aVMay 1, 1992, Rangiora
p1180
aVJune 2, 1994, Aubervilliers
p1181
aVNovember 1, 1992, Val-d'Oise
p1182
aVDecember 18, 1995, Auxerre
p1183
aVJune 22, 1989, Juvisy-sur-Orge
p1184
aVApril 22, 1988, Uvea, Wallis Islands
p1185
aVSeptember 26, 1988, Paris
p1186
aVMay 22, 1991, Clermont-Ferrand
p1187
aVJanuary 23, 1990, Valence
p1188
aVJune 4, 1986, Sainte-Foy-la-Grande
p1189
aVJanuary 27, 1994
p1190
aVSeptember 1, 1986, Toulouse
p1191
aVJune 20, 1994, La Teste-de-Buch
p1192
aVOctober 11, 1988, Toulouse
p1193
aVJanuary 23, 1991
p1194
aVJanuary 18, 1988
p1195
aVMarch 18, 1992, Montpellier
p1196
aVSeptember 15, 1993, Pau
p1197
aVMay 13, 1994, Bayonne
p1198
aVMay 22, 1988, Strasbourg
p1199
aVFebruary 21, 1995, Larche, Correze
p1200
aVNovember 15, 1996, Lannemezan
p1201
aVJuly 12, 1985, Cordoba
p1202
aVMay 8, 1982, Buenos Aires
p1203
aVMay 5, 1988, Rosario
p1204
aVJuly 1, 1987, Buenos Aires
p1205
aVMay 10, 1985, Cordoba
p1206
aVJune 27, 1988, Buenos Aires
p1207
aVJanuary 28, 1988, La Plata
p1208
aVJune 14, 1988, Buenos Aires
p1209
aVAugust 9, 1988, Buenos Aires
p1210
aVJune 20, 1983, Mendoza
p1211
aVNovember 28, 1985, Buenos Aires
p1212
aVJanuary 27, 1985, Buenos Aires
p1213
aVMay 23, 1988, Buenos Aires
p1214
aVOctober 28, 1988, Buenos Aires
p1215
aVMay 15, 1987, Cordoba
p1216
aVMay 10, 1982, Cordoba
p1217
aVJune 16, 1988, Buenos Aires
p1218
aVMay 11, 1988, Rosario
p1219
aVJanuary 10, 1986, Tucuman
p1220
aVMarch 22, 1981, Cordoba
p1221
aVSeptember 5, 1984, Buenos Aires
p1222
aVJune 18, 1988, La Plata
p1223
aVdate unknown
p1224
aVdate unknown
p1225
aVFebruary 23, 1988
p1226
aVOctober 28, 1988
p1227
aVdate unknown
p1228
aVdate unknown
p1229
aVApril 12, 1985, Rosario
p1230
aVdate unknown
p1231
aVMarch 6, 1983
p1232
aVJune 12, 1989, Buenos Aires
p1233
aVMarch 2, 1984, Cordoba
p1234
aVJune 22, 1986, Rosario
p1235
aVJanuary 3, 1989, Tucuman
p1236
aVOctober 26, 1988, San Miguel de Tucuma
p1237
aVFebruary 8, 1989, Mendoza
p1238
aVJune 11, 1989, General Madariaga
p1239
aVNovember 12, 1986, Veinticinco de Mayo
p1240
aVJanuary 11, 1989, San Miguel de Tucuma
p1241
aVMarch 25, 1988, Salta
p1242
aVSeptember 19, 1978, San Miguel de Tucuma
p1243
aVFebruary 13, 1982, Cordoba
p1244
aVSeptember 14, 1984, Buenos Aires
p1245
aVSeptember 28, 1990, Buenos Aires
p1246
aVDecember 7, 1989, Buenos Aires
p1247
aVJuly 5, 1985
p1248
aVApril 15, 1988, San Miguel de Tucuma
p1249
aVJune 3, 1988, Rosario
p1250
aVNovember 17, 1989
p1251
aVOctober 6, 1985, Cordoba
p1252
aVJune 18, 1988, Buenos Aires
p1253
aVdate unknown
p1254
aVMay 28, 1990, Tucuman
p1255
aVMay 12, 1990
p1256
aVApril 17, 1987
p1257
aVDecember 14, 1990, Rosario
p1258
aVMarch 17, 1983, Buenos Aires
p1259
aVOctober 16, 1984, Rosario
p1260
aVDecember 29, 1988, San Miguel de Tucuma
p1261
aVOctober 20, 1990, Buenos Aires
p1262
aVJune 20, 1986, Buenos Aires
p1263
aVNovember 20, 1991, Adrogue
p1264
aVNovember 14, 1991, Tucuman
p1265
aVJune 14, 1990, Entre Rios
p1266
aVMarch 26, 1988, Buenos Aires
p1267
aVApril 15, 1991, Tucuman
p1268
aVJune 15, 1987, Cordoba
p1269
aVApril 16, 1987, Mar del Plata
p1270
aVMarch 10, 1989, Cordoba
p1271
aVJanuary 3, 1991, Villa Maria
p1272
aVApril 8, 1987, La Plata
p1273
aVDecember 11, 1991, Buenos Aires
p1274
aVJuly 4, 1985, San Miguel de Tucuma
p1275
aVFebruary 21, 1987, Buenos Aires
p1276
aVAugust 8, 1989, La Plata
p1277
aVDecember 30, 1982, Rosario
p1278
aVAugust 27, 1991, Chajari
p1279
aVApril 2, 1976, Santa Fe
p1280
aVMarch 4, 1992, Buenos Aires
p1281
aVMarch 10, 1989, Chaco
p1282
aVMarch 16, 1993, Mendoza
p1283
aVApril 30, 1990, Rosario
p1284
aVNovember 30, 1988, Mendoza
p1285
aVJanuary 22, 1993, Buenos Aires
p1286
aVOctober 10, 1990, Buenos Aires
p1287
aVMarch 17, 1988, Villa la Angostura
p1288
aVOctober 20, 1993, Cordoba
p1289
aVOctober 20, 1992, Rosario
p1290
aVJune 20, 1989, Tucuman
p1291
aVFebruary 5, 1994, Cordoba
p1292
aVFebruary 17, 1994, Bahia Blanca
p1293
aVDecember 19, 1989, Buenos Aires
p1294
aVJuly 30, 1990, Parana
p1295
aVOctober 18, 1989, Buenos Aires
p1296
aVMay 26, 1993, Tucuman
p1297
aVMay 1, 1989, Rosario
p1298
aVOctober 11, 1994, Rosario
p1299
aVJune 19, 1992, Buenos Aires
p1300
aVJuly 18, 1993, Buenos Aires
p1301
aVApril 22, 1991, Buenos Aires
p1302
aVMay 12, 1990, Tucuman
p1303
aVMay 4, 1990, Tucuman
p1304
aVDecember 6, 1993, Buenos Aires
p1305
aVSeptember 6, 1987, Tucuman
p1306
aVDecember 5, 1991, Cordoba
p1307
aVFebruary 24, 1991, Rosario
p1308
aVOctober 5, 1993, Tucuman
p1309
aVSeptember 3, 1990, Buenos Aires
p1310
aVApril 15, 1993, Buenos Aires
p1311
aVOctober 29, 1993, Buenos Aires
p1312
aVJanuary 26, 1991, Buenos Aires
p1313
aVFebruary 14, 1989, Comodoro Rivadavia
p1314
aVMarch 29, 1991, Buenos Aires
p1315
aVAugust 21, 1992, San Juan
p1316
aVSeptember 21, 1993, Santiago del Estero
p1317
aVNovember 17, 1994, Buenos Aires
p1318
aVFebruary 16, 1994, Santiago del Estero
p1319
aVNovember 24, 1987, Buenos Aires
p1320
aVMarch 24, 1995, Mar del Plata
p1321
aVJune 8, 1992, Tucuman
p1322
aVDecember 31, 1993, Mendoza
p1323
aVJanuary 4, 1996, Salta
p1324
aVMay 30, 1988, Buenos Aires
p1325
aVJune 9, 1994, Rosario
p1326
aVApril 9, 1994, Buenos Aires
p1327
aVAugust 18, 1991, Buenos Aires
p1328
aVAugust 8, 1991, Necochea
p1329
aVAugust 22, 1993
p1330
aVSeptember 17, 1993
p1331
aVMay 23, 1992, Cordoba
p1332
aVApril 12, 1989, Buenos Aires
p1333
aVOctober 25, 1995, Buenos Aires
p1334
aVFebruary 26, 1990
p1335
aVJuly 30, 1994, Rosario
p1336
aVNovember 21, 1995, Tucuman
p1337
aVAugust 26, 1995, Buenos Aires
p1338
aVNovember 27, 1995, Cordoba
p1339
aVMarch 7, 1992
p1340
aVAugust 11, 1995, Mendoza
p1341
aVdate unknown
p1342
aVdate unknown
p1343
aVApril 18, 1995, Buenos Aires
p1344
aVApril 12, 1995, Cordoba
p1345
aVSeptember 15, 1994, Cordoba
p1346
aVJune 22, 1987, Buenos Aires, aRGENTINA
p1347
aVDecember 15, 1994, Cordoba
p1348
aVFebruary 5, 1994, La Plata
p1349
aVdate unknown
p1350
aVJuly 30, 1997, Concordia, Entre Rio
p1351
aVJuly 31, 1974, Rosario
p1352
aVAugust 14, 1980, Legnago, VR
p1353
aVMay 6, 1976, Segni, RM
p1354
aVMay 21, 1976, Cordoba
p1355
aVJanuary 12, 1978, L'Aquila
p1356
aVMay 3, 1972, Noceto, PR
p1357
aVAugust 10, 1971, Conselve, PD
p1358
aVSeptember 23, 1977, Venezia
p1359
aVJanuary 1, 1973, Casale, TV
p1360
aVJuly 22, 1977, Treviso
p1361
aVJune 12, 1979, Treviso
p1362
aVOctober 26, 1975, Mombasa
p1363
aVJune 12, 1980, Padova
p1364
aVSeptember 21, 1976, Modena
p1365
aVDecember 3, 1977, Catania
p1366
aVNovember 8, 1979, Viadana, MN
p1367
aVJanuary 20, 1980, Ponte dell'Oglio, PC
p1368
aVNovember 17, 1974, Brescia
p1369
aVMay 9, 1978, La Plata
p1370
aVApril 10, 1975, Kaitaia
p1371
aVFebruary 23, 1983, Padova
p1372
aVMarch 22, 1974, Germiston
p1373
aVApril 28, 1976, La Plata
p1374
aVOctober 23, 1970, Buenos Aires
p1375
aVSeptember 12, 1983, La Plata
p1376
aVJune 8, 1982, Venezia
p1377
aVOctober 21, 1981, Parana
p1378
aVOctober 15, 1980, Montebelluna, TV
p1379
aVNovember 10, 1977, Palmerston North
p1380
aVMay 13, 1975, Reggio Emilia
p1381
aVJune 20, 1980, L'Aquila
p1382
aVNovember 11, 1982, Cordoba
p1383
aVFebruary 23, 1981, Livorno
p1384
aVMarch 23, 1976, North Shore
p1385
aVMarch 30, 1975, Dunedin
p1386
aVNovember 17, 1975, Durban
p1387
aVFebruary 9, 1981, Venezia
p1388
aVApril 10, 1979, Brescia
p1389
aVSeptember 26, 1982, Roma
p1390
aVJuly 1, 1981, Umtala
p1391
aVApril 9, 1982, Catania
p1392
aVOctober 29, 1980, Thames
p1393
aVJuly 22, 1979, L'Aquila
p1394
aVFebruary 15, 1981, Milano
p1395
aVNovember 13, 1973, Sabbioneta, MN
p1396
aVOctober 27, 1983, Roma
p1397
aVOctober 12, 1981, Cordoba
p1398
aVApril 28, 1981, Treviso
p1399
aVJuly 27, 1985, Roma
p1400
aVMarch 3, 1984, Roma
p1401
aVJune 6, 1981, Varese
p1402
aVFebruary 15, 1980, Hamilton
p1403
aVOctober 13, 1982, Agordo, PL
p1404
aVDecember 26, 1981, Cordoba
p1405
aVSeptember 16, 1982, Dolo, VE
p1406
aVFebruary 13, 1981, San Nicolas
p1407
aVJanuary 31, 1984, Udine
p1408
aVJuly 21, 1981, Auch
p1409
aVJanuary 12, 1980, Cape Town
p1410
aVJune 5, 1984, Toronto, ON
p1411
aVDecember 26, 1984, Padova
p1412
aVApril 17, 1983, Padova
p1413
aVOctober 8, 1986, Roma
p1414
aVApril 20, 1983, Eboli
p1415
aVOctober 1, 1979, Birmingham
p1416
aVNovember 1, 1982, Manchester
p1417
aVAugust 4, 1980, Brisbane, QLD
p1418
aVJanuary 15, 1985, Camposampiero, PD
p1419
aVOctober 24, 1983, Varese
p1420
aVAugust 12, 1983, Suva
p1421
aVDecember 17, 1982, Bergamo
p1422
aVMay 12, 1984, Rovigo
p1423
aVNovember 26, 1986, Montebelluna, TV
p1424
aVJuly 28, 1986, Treviso
p1425
aVJuly 31, 1979, Humansdorf
p1426
aVFebruary 18, 1984, Mendoza
p1427
aVJune 29, 1987, Townsville
p1428
aVOctober 22, 1978, Buenos Aires
p1429
aVOctober 13, 1986, Conegliano, TV
p1430
aVJanuary 15, 1984, Roma
p1431
aVMarch 21, 1983, Muret
p1432
aVJuly 4, 1988, Rovigo
p1433
aVApril 24, 1987, Frascati, RM
p1434
aVDecember 3, 1982, Mar del Plata
p1435
aVMarch 29, 1988, L'Aquila
p1436
aVJune 19, 1981, Krugersdorp
p1437
aVApril 29, 1978, Penrith, NSW
p1438
aVNovember 3, 1986, Cecina, LI
p1439
aVSeptember 23, 1987, Parma
p1440
aVNovember 7, 1988, Treviso
p1441
aVMarch 3, 1988, Viterbo
p1442
aVDecember 12, 1990, Vittorio Veneto
p1443
aVMarch 5, 1990, Prato
p1444
aVMay 6, 1986, Treviso
p1445
aVJune 30, 1988, Benevento
p1446
aVJanuary 27, 1979, Nelspruit
p1447
aVOctober 21, 1989, Melbourne, VIC
p1448
aVMarch 27, 1990, Avezzano
p1449
aVApril 26, 1984, Worcester
p1450
aVFebruary 22, 1991, Milano
p1451
aVMarch 13, 1986, Jesolo
p1452
aVJanuary 16, 1986, Mestre, VE
p1453
aVMarch 31, 1989, Bagni-a-Ripoli
p1454
aVNovember 25, 1990, Padova
p1455
aVNovember 26, 1988, Roma
p1456
aVMarch 9, 1991, Villorba
p1457
aVSeptember 16, 1990, Treviso
p1458
aVMay 20, 1987, Mirano, VE
p1459
aVNovember 4, 1980, Rosario
p1460
aVApril 28, 1990, Parma
p1461
aVFebruary 16, 1988, Resistencia
p1462
aVJanuary 15, 1992, Zevio, VR
p1463
aVDecember 5, 1990, Venezia
p1464
aVApril 26, 1993, Vicenza
p1465
aVMarch 13, 1993, Mirano, VE
p1466
aVJune 14, 1993, Napoli
p1467
aVOctober 4, 1985, Irvine
p1468
aVApril 11, 1991, Gardone val Trompia
p1469
aVNovember 19, 1988, Montebelluna, TV
p1470
aVSeptember 14, 1988, Kempton Park
p1471
aVJuly 30, 1986, Rotorua
p1472
aVAugust 19, 1988, Suva
p1473
aVOctober 16, 1990, Padova
p1474
aVApril 4, 1992, Frascati, RM
p1475
aVNovember 28, 1992, San Dona, VE
p1476
aVDecember 13, 1991, Paese
p1477
aVAugust 25, 1992, Benevento
p1478
aVOctober 11, 1993, Parma
p1479
aVFebruary 8, 1994, Padova
p1480
aVMarch 24, 1990, Lezhe, Albania
p1481
aVJuly 28, 1989, Piacenza
p1482
aVFebruary 24, 1993, Reggio Emilia
p1483
aVDecember 21, 1984, Bloemfontein
p1484
aVApril 9, 1993, San Dona, VE
p1485
aVMay 15, 1993, Venezia
p1486
aVMay 2, 1992, Cradock
p1487
aVFebruary 16, 1992, Roma
p1488
aVJuly 13, 1990, Roma
p1489
aVMarch 28, 1986, Treviso
p1490
aVJuly 15, 1990, Zevio, VR
p1491
aVAugust 14, 1991, Genova
p1492
aVJune 4, 1993, Albano
p1493
aVApril 10, 1993, Roma
p1494
aVJune 30, 1994, Harare
p1495
aVJanuary 15, 1993, Mestre, VE
p1496
aVApril 20, 1990, Viadana, MN
p1497
aVMarch 28, 1994, Cernusco sul Navigli
p1498
aVMarch 9, 1991, Rovigo
p1499
aVJanuary 28, 1996, Treviso
p1500
aVAugust 4, 1994, Padova
p1501
aVMarch 14, 1977, Wellington
p1502
aVSeptember 28, 1981, Dunedin
p1503
aVApril 23, 1982, Rotorua
p1504
aVDecember 29, 1983, Auckland
p1505
aVOctober 31, 1980, Apia, Western Samoa
p1506
aVJune 25, 1979
p1507
aVAugust 26, 1984, Western Samoa
p1508
aVSeptember 17, 1986
p1509
aVFebruary 27, 1980, Moto'otua, Western Samoa
p1510
aVApril 17, 1982, Western Samoa
p1511
aVOctober 28, 1985, Afega, Western Samoa
p1512
aVdate unknown
p1513
aVJanuary 8, 1982, Matuatua, Western Samoa
p1514
aVMarch 14, 1976, Moata'a, Western Samoa
p1515
aVJuly 21, 1973
p1516
aVSeptember 6, 1979, Huntly
p1517
aVMay 30, 1980, Wellington
p1518
aVJanuary 9, 1982, Paraparaumu
p1519
aVOctober 25, 1979, Auckland
p1520
aVdate unknown
p1521
aVNovember 20, 1987, Apia, Western Samoa
p1522
aVFebruary 5, 1981, Auckland
p1523
aVDecember 17, 1983, Moto'otua, Western Samoa
p1524
aVApril 22, 1982, Apia, Western Samoa
p1525
aVJuly 17, 1979, Apia, Western Samoa
p1526
aVMay 30, 1980, Moto'otua, Western Samoa
p1527
aVJanuary 28, 1986
p1528
aVFebruary 21, 1984
p1529
aVJuly 2, 1986, Auckland
p1530
aVdate unknown
p1531
aVOctober 7, 1982
p1532
aVMay 20, 1984
p1533
aVMay 7, 1980
p1534
aVMarch 24, 1984, Western Samoa
p1535
aVMarch 6, 1986, Auckland
p1536
aVJuly 20, 1978
p1537
aVJuly 23, 1976
p1538
aVOctober 9, 1980
p1539
aVJanuary 8, 1983
p1540
aVApril 21, 1988
p1541
aVMarch 2, 1982
p1542
aVJune 21, 1988, Western Samoa
p1543
aVDecember 7, 1988
p1544
aVJune 19, 1980
p1545
aVMay 28, 1977
p1546
aVMarch 31, 1984, Moto'otua, Western Samoa
p1547
aVJune 20, 1985, Auckland
p1548
aVApril 12, 1987
p1549
aVNovember 26, 1988
p1550
aVDecember 13, 1988
p1551
aVApril 2, 1984, Vailelev, Upolu, Western Samoa
p1552
aVSeptember 8, 1988
p1553
aVMarch 25, 1981
p1554
aVAugust 9, 1985
p1555
aVJanuary 21, 1985
p1556
aVMarch 11, 1987, Manono, Western Samoa
p1557
aVJanuary 29, 1983, Moto'otua, Western Samoa
p1558
aVMay 28, 1983, Moto'otua, Western Samoa
p1559
aVApril 26, 1984
p1560
aVDecember 12, 1988
p1561
aVNovember 21, 1983, Auckland
p1562
aVOctober 18, 1982, Wellington
p1563
aVJune 29, 1986, Apia, Western Samoa
p1564
aVFebruary 28, 1989
p1565
aVApril 22, 1983, Auckland
p1566
aVDecember 6, 1981, Auckland
p1567
aVJuly 23, 1985, Saasaai, Western Samoa
p1568
aVMarch 26, 1986, Moto'otua, Western Samoa
p1569
aVFebruary 22, 1987, Western Samoa
p1570
aVSeptember 29, 1982
p1571
aVMay 22, 1982, Auckland
p1572
aVJanuary 7, 1988, Western Samoa
p1573
aVSeptember 9, 1985, Wellington
p1574
aVNovember 6, 1986, Christchurch
p1575
aVFebruary 10, 1988
p1576
aVMarch 4, 1987
p1577
aVJanuary 10, 1980, Taihape
p1578
aVJanuary 13, 1983, Auckland
p1579
aVJune 18, 1982, Apia, Western Samoa
p1580
aVMarch 2, 1989, Wellington
p1581
aVApril 6, 1983, Brisbane, QLD
p1582
aVAugust 20, 1984, Moto'otua, Western Samoa
p1583
aVJune 13, 1983, Wellington
p1584
aVJanuary 21, 1984, Palmerston North
p1585
aVFebruary 13, 1986, Auckland
p1586
aVMarch 22, 1980, Western Samoa
p1587
aVSeptember 18, 1986, Western Samoa
p1588
aVNovember 10, 1988, Wellington
p1589
aVSeptember 18, 1988, Vailoa, Palauli, Western Samoa
p1590
aVOctober 22, 1985, Wellington
p1591
aVAugust 3, 1983
p1592
aVApril 17, 1989, Otahuhu
p1593
aVMarch 9, 1986
p1594
aVFebruary 24, 1989, Auckland
p1595
aVApril 11, 1987
p1596
aVFebruary 11, 1989
p1597
aVMay 24, 1990, Vaiala, Western Samoa
p1598
aVJuly 26, 1986, Moto'otua, Western Samoa
p1599
aVMay 26, 1985
p1600
aVMarch 28, 1992, Moto'otua, Western Samoa
p1601
aVNovember 6, 1987, Porirua
p1602
aVSeptember 14, 1987, Western Samoa
p1603
aVMarch 13, 1992
p1604
aVNovember 18, 1987, Hamilton
p1605
aVSeptember 21, 1988, Malie, Western Samoa
p1606
aVDecember 26, 1986, Wellington
p1607
aVMay 3, 1987, Auckland
p1608
aVJanuary 22, 1988, Porirua
p1609
aVJanuary 15, 1986, Porirua
p1610
aVAugust 24, 1987
p1611
aVFebruary 18, 1992, Moto'otua, Western Samoa
p1612
aVJune 2, 1992
p1613
aVMay 3, 1991, Moto'otua, Western Samoa
p1614
aVFebruary 17, 1984, Moto'otua, Western Samoa
p1615
aVSeptember 1, 1992, Moto'otua, Western Samoa
p1616
aVJanuary 25, 1991, Western Samoa
p1617
aVApril 7, 1989, Western Samoa
p1618
aVDecember 22, 1989
p1619
aVMarch 16, 1991
p1620
aVMay 12, 1991
p1621
aVApril 16, 1993
p1622
aVDecember 29, 1989, Auckland
p1623
aVFebruary 11, 1989, Auckland
p1624
aVMarch 14, 1984
p1625
aVMarch 12, 1991, Auckland
p1626
aVMay 9, 1989, Moto'otua, Western Samoa
p1627
aVFebruary 20, 1986, Moto'otua, Western Samoa
p1628
aVAugust 23, 1989, Moto'otua, Western Samoa
p1629
aVJune 12, 1989, Auckland
p1630
aVMarch 5, 1989, Fasito'otai, Western Samoa
p1631
aVJune 15, 1988, Moto'otua, Western Samoa
p1632
aVApril 30, 1987, Wellington
p1633
aVMay 28, 1989
p1634
aVNovember 17, 1992
p1635
aVSeptember 10, 1991
p1636
aVAugust 7, 1992, Auckland
p1637
aVJuly 30, 1990
p1638
aVNovember 21, 1992
p1639
aVJuly 18, 1995
p1640
aVFebruary 18, 1989, Hamilton
p1641
aVFebruary 4, 1980
p1642
aVJanuary 18, 1997
p1643
aVOctober 18, 1991
p1644
aVDecember 17, 1991
p1645
aVSeptember 22, 1988
p1646
aVFebruary 11, 1993
p1647
aVJanuary 22, 1996
p1648
aVJune 29, 1987, Moto'otua, Western Samoa
p1649
aVDecember 5, 1993
p1650
aVFebruary 11, 1992, Apia, Western Samoa
p1651
aVDecember 12, 1983
p1652
aVNovember 18, 1977
p1653
aVJanuary 11, 1981
p1654
aVdate unknown
p1655
aVdate unknown
p1656
aVJune 26, 1983
p1657
aVdate unknown
p1658
aVdate unknown
p1659
aVJanuary 21, 1982, Houma
p1660
aVSeptember 11, 1984
p1661
aVFebruary 21, 1978, Longoteme
p1662
aVNovember 13, 1980
p1663
aVFebruary 1, 1979, Vaini
p1664
aVFebruary 19, 1982, Tofoa, Tongatapu
p1665
aVJune 12, 1984
p1666
aVAugust 18, 1974
p1667
aVApril 12, 1987
p1668
aVOctober 26, 1984, Tofoa, Tongatapu
p1669
aVMay 10, 1984
p1670
aVdate unknown
p1671
aVFebruary 19, 1980
p1672
aVFebruary 28, 1983, Koulo
p1673
aVMay 13, 1984
p1674
aVdate unknown
p1675
aVJune 20, 1985, Ha'ateiho
p1676
aVApril 30, 1979, Kolomotu'a
p1677
aVMarch 2, 1981
p1678
aVMay 18, 1988, Matahau
p1679
aVJuly 30, 1985
p1680
aVdate unknown
p1681
aVDecember 21, 1983
p1682
aVDecember 5, 1987
p1683
aVSeptember 29, 1980
p1684
aVDecember 5, 1979, Ha'ateiho
p1685
aVJune 7, 1982
p1686
aVMay 21, 1982
p1687
aVApril 24, 1978, Ovaka, Vavau
p1688
aVOctober 10, 1979
p1689
aVdate unknown
p1690
aVdate unknown
p1691
aVSeptember 13, 1986
p1692
aVJuly 10, 1977, Longoteme
p1693
aVSeptember 24, 1984, Ha'ateiho
p1694
aVFebruary 21, 1987, Brisbane, QLD
p1695
aVMay 9, 1985
p1696
aVDecember 10, 1985
p1697
aVDecember 22, 1982, Auckland
p1698
aVFebruary 17, 1986
p1699
aVSeptember 3, 1984, Tofoa, Tongatapu
p1700
aVJune 1, 1980
p1701
aVDecember 13, 1984, Sigatoka
p1702
aVJuly 5, 1987, Nieafu, Vava'u
p1703
aVFebruary 5, 1982, Tofoa, Tongatapu
p1704
aVDecember 25, 1978
p1705
aVMay 26, 1986, Kolonga
p1706
aVApril 27, 1980
p1707
aVJuly 7, 1988
p1708
aVJuly 20, 1988
p1709
aVdate unknown
p1710
aVJuly 31, 1985
p1711
aVJuly 29, 1985, Tonga Tapu
p1712
aVMay 28, 1988
p1713
aVdate unknown
p1714
aVApril 8, 1989, Tefisi
p1715
aVJuly 4, 1981
p1716
aVNovember 13, 1984, Takapuna
p1717
aVJanuary 12, 1986, Meifu
p1718
aVAugust 4, 1986
p1719
aVJuly 31, 1987
p1720
aVJuly 3, 1984
p1721
aVJuly 29, 1980
p1722
aVApril 20, 1979
p1723
aVJuly 24, 1983, Ha'ateiho
p1724
aVNovember 29, 1987, Tofoa, Tongatapu
p1725
aVApril 13, 1984
p1726
aVDecember 9, 1989, Fairfield, NSW
p1727
aVApril 19, 1986, Otahuhu
p1728
aVApril 15, 1986
p1729
aVJanuary 25, 1988
p1730
aVJune 21, 1979
p1731
aVDecember 10, 1984
p1732
aVNovember 13, 1980
p1733
aVJune 24, 1985
p1734
aVdate unknown
p1735
aVAugust 23, 1985
p1736
aVJanuary 30, 1981
p1737
aVMay 15, 1990
p1738
aVdate unknown
p1739
aVApril 29, 1985
p1740
aVdate unknown
p1741
aVAugust 8, 1989, Tofoa, Tongatapu
p1742
aVJune 18, 1982
p1743
aVMarch 9, 1982, Longolongo
p1744
aVDecember 5, 1982
p1745
aVMarch 11, 1984
p1746
aVFebruary 8, 1988, Sydney, NSW
p1747
aVJuly 31, 1985
p1748
aVNovember 13, 1981, Ha'akame
p1749
aVAugust 18, 1981, Suva
p1750
aVNovember 29, 1984
p1751
aVApril 15, 1988, Tefisi
p1752
aVFebruary 2, 1988
p1753
aVSeptember 23, 1986, Wellington
p1754
aVAugust 31, 1983, Angahaeua
p1755
aVMarch 11, 1985, Tofoa, Tongatapu
p1756
aVJanuary 30, 1985, Tofoa, Tongatapu
p1757
aVOctober 13, 1985, Auckland
p1758
aVFebruary 5, 1983, Brisbane, QLD
p1759
aVMarch 27, 1988, NSW
p1760
aVApril 25, 1985, Manly
p1761
aVJune 8, 1985, Futu
p1762
aVMay 25, 1983, Tofoa, Tongatapu
p1763
aVDecember 3, 1981, Auckland
p1764
aVDecember 1, 1988, Auckland
p1765
aVJanuary 17, 1987, Nuku'alofa
p1766
aVMarch 1, 1986
p1767
aVApril 20, 1984, Auckland
p1768
aVJuly 7, 1991
p1769
aVFebruary 13, 1989
p1770
aVMarch 8, 1980
p1771
aVSeptember 29, 1982, Auckland
p1772
aVJuly 25, 1992, Takapuna
p1773
aVAugust 12, 1988, Tokoroa
p1774
aVAugust 7, 1990
p1775
aVApril 26, 1991, Havelu
p1776
aVFebruary 19, 1990, Christchurch
p1777
aVJanuary 11, 1991, Tofoa, Tongatapu
p1778
aVNovember 4, 1988, Auckland
p1779
aVAugust 9, 1986, Tofoa, Tongatapu
p1780
aVJanuary 12, 1987, Vava'u
p1781
aVDecember 26, 1990, Kawakawa
p1782
aVSeptember 10, 1992, Auckland
p1783
aVDecember 14, 1991
p1784
aVJanuary 14, 1987, Sydney, NSW
p1785
aVSeptember 15, 1991, Nieafu, Vava'u
p1786
aVJune 20, 1988
p1787
aVFebruary 22, 1993, Havelu
p1788
aVJanuary 21, 1989, Auckland
p1789
aVNovember 7, 1988, Sydney, NSW
p1790
aVMarch 6, 1991
p1791
aVMarch 10, 1987, Camperdown, NSW
p1792
aVOctober 1, 1990
p1793
aVFebruary 21, 1989
p1794
aVOctober 13, 1988, Auckland
p1795
aVJuly 8, 1990
p1796
aVSeptember 7, 1988, Auckland
p1797
aVAugust 3, 1990, Auckland
p1798
aVJuly 18, 1993, Auckland
p1799
aVAugust 16, 1994
p1800
aVJuly 5, 1987, Auckland
p1801
aVDecember 17, 1975, Sigatoka
p1802
aVJune 23, 1981, Suva
p1803
aVMarch 19, 1979, Nadi
p1804
aVDecember 30, 1978, Sigatoka
p1805
aVApril 15, 1980, Suva
p1806
aVJuly 27, 1985, Sigatoka
p1807
aVFebruary 19, 1979, Lautoka
p1808
aVFebruary 26, 1981, Suva
p1809
aVAugust 19, 1979, Nadi
p1810
aVAugust 14, 1978, Lautoka
p1811
aVApril 16, 1980, Nadi
p1812
aVMarch 23, 1980, Suva
p1813
aVApril 24, 1984, Suva
p1814
aVApril 3, 1979, Suva
p1815
aVNovember 13, 1983, Sigatoka
p1816
aVNovember 6, 1982, Naroi
p1817
aVJuly 11, 1978, Lautoka
p1818
aVJune 6, 1979, Lautoka
p1819
aVDecember 23, 1977, Suva
p1820
aVOctober 21, 1975, Ra
p1821
aVJanuary 20, 1982, Lautoka
p1822
aVFebruary 12, 1984, Yasawa
p1823
aVAugust 8, 1982, Suva
p1824
aVDecember 25, 1981, Sigatoka
p1825
aVMarch 19, 1983, Suva
p1826
aVOctober 5, 1983, Sigatoka
p1827
aVMay 3, 1976, Nadi
p1828
aVApril 5, 1984, Nadi
p1829
aVJuly 19, 1978, Mosimosi
p1830
aVSeptember 27, 1977, Nairai
p1831
aVApril 30, 1986, Lautoka
p1832
aVAugust 16, 1983, Sigatoka
p1833
aVJanuary 22, 1977, Suva
p1834
aVNovember 1, 1985, Melbourne, VIC
p1835
aVSeptember 24, 1983, Lautoka
p1836
aVJanuary 24, 1982, Suva
p1837
aVJune 20, 1985, Savusavu
p1838
aVJuly 23, 1985, Suva
p1839
aVMay 9, 1985, South Auckland
p1840
aVApril 8, 1985, Suva
p1841
aVNovember 19, 1982, Suva
p1842
aVMay 9, 1980, Suva
p1843
aVJune 1, 1977, Lautoka
p1844
aVJuly 14, 1987, Nadi
p1845
aVSeptember 30, 1980, Suva
p1846
aVSeptember 30, 1986, Sigatoka
p1847
aVApril 14, 1984, Lautoka
p1848
aVJune 4, 1984, Suva
p1849
aVJanuary 21, 1986, Tavua
p1850
aVMay 2, 1986, Sigatoka
p1851
aVDecember 11, 1985, Sigatoka
p1852
aVSeptember 11, 1982, Sigatoka
p1853
aVJanuary 27, 1987, Nausori
p1854
aVOctober 8, 1985, Sigatoka
p1855
aVMarch 17, 1983, Suva
p1856
aVFebruary 13, 1981, Suva
p1857
aVFebruary 21, 1983
p1858
aVJuly 19, 1984
p1859
aVDecember 12, 1985, Suva
p1860
aVApril 2, 1988, Tavua
p1861
aVAugust 22, 1987, Suva
p1862
aVMarch 1, 1985, Lautoka
p1863
aVAugust 23, 1986
p1864
aVMarch 1, 1987, Nausori
p1865
aVFebruary 15, 1981, Labasa
p1866
aVMay 12, 1982, Suva
p1867
aVSeptember 16, 1981, Nadi
p1868
aVFebruary 18, 1979, New Plymouth
p1869
aVOctober 5, 1990, Camborne
p1870
aVApril 7, 1986, Sigatoka
p1871
aVApril 4, 1982, Suva
p1872
aVApril 5, 1977, Sigatoka
p1873
aVNovember 29, 1979, Vunidawa
p1874
aVNovember 10, 1983, Suva
p1875
aVAugust 5, 1985, Vunidawa
p1876
aVMarch 3, 1978, Suva
p1877
aVJuly 7, 1981, Suva
p1878
aVDecember 19, 1984, Sydney, NSW
p1879
aVApril 6, 1984, Sigatoka
p1880
aVAugust 16, 1985, Suva
p1881
aVApril 20, 1986, Suva
p1882
aVJanuary 31, 1988, Sigatoka
p1883
aVOctober 30, 1987, Savusavu
p1884
aVMarch 24, 1981, Ra
p1885
aVMarch 8, 1989, Suva
p1886
aVMay 6, 1985, Nausori
p1887
aVDecember 31, 1986, Suva
p1888
aVFebruary 14, 1986, Suva
p1889
aVFebruary 16, 1988, Suva
p1890
aVMay 26, 1985, Savusavu
p1891
aVSeptember 22, 1983, Korovou
p1892
aVOctober 4, 1985, Suva
p1893
aVAugust 12, 1987, Suva
p1894
aVMay 15, 1989, Suva
p1895
aVJune 11, 1984, Levuka-i-gau
p1896
aVApril 1, 1989, Sigatoka
p1897
aVFebruary 10, 1981, Savusavu
p1898
aVMarch 28, 1989, Suva
p1899
aVMay 27, 1983
p1900
aVAugust 28, 1984, Sigatoka
p1901
aVNovember 30, 1984, Labasa
p1902
aVApril 4, 1985, Nadi
p1903
aVJune 26, 1990, Navua
p1904
aVMarch 19, 1980, Sigatoka
p1905
aVMarch 25, 1985, Lautoka
p1906
aVOctober 21, 1983, Suva
p1907
aVMarch 28, 1984
p1908
aVMay 11, 1987, Vunidawa
p1909
aVApril 10, 1985, Suva
p1910
aVAugust 21, 1990, Somosomo, Naviti
p1911
aVMay 24, 1991, Lautoka
p1912
aVFebruary 23, 1985
p1913
aVJuly 12, 1987
p1914
aVJuly 11, 1986, Sigatoka
p1915
aVJanuary 24, 1986, Leichardt, NSW
p1916
aVApril 6, 1989, Suva
p1917
aVSeptember 5, 1990
p1918
aVJune 21, 1988, Nadi
p1919
aVMarch 10, 1986
p1920
aVJune 3, 1984
p1921
aVApril 12, 1990, Tavua
p1922
aVJanuary 13, 1992, Truro
p1923
aVJune 24, 1986, Suva
p1924
aVMarch 14, 1989, Suva
p1925
aVOctober 6, 1989, Adelaide, SA
p1926
aVJune 16, 1990, Ra
p1927
aVJune 15, 1989, Tavua
p1928
aVOctober 3, 1985, Suva
p1929
aVMarch 1, 1981, Suva
p1930
aVDecember 23, 1983, Suva
p1931
aVMarch 10, 1988, Suva
p1932
aVFebruary 17, 1991, Namosi
p1933
aVMarch 4, 1985, Nadi
p1934
aVFebruary 8, 1990, Kadavu
p1935
aVOctober 7, 1989
p1936
aVJanuary 13, 1991, Sydney, NSW
p1937
aVJanuary 17, 1993, Sigatoka
p1938
aVJune 26, 1987, Lautoka
p1939
aVJune 14, 1987, Suva
p1940
aVApril 25, 1988, Dratabu
p1941
aVSeptember 17, 1987
p1942
aVdate unknown
p1943
aVApril 29, 1990
p1944
aVMay 27, 1989
p1945
aVJune 7, 1985
p1946
aVAugust 20, 1991
p1947
aVJanuary 4, 1993
p1948
aVSeptember 6, 1992
p1949
aVJuly 31, 1990
p1950
aVMarch 14, 1986
p1951
aVNovember 3, 1983, Yamanasi
p1952
aVJuly 25, 1983, Kyoto
p1953
aVAugust 11, 1979, Hamilton
p1954
aVSeptember 19, 1980, New Plymouth
p1955
aVJanuary 12, 1983, Nagasaki
p1956
aVFebruary 22, 1982, Kyoto
p1957
aVJune 19, 1983, Tokyo
p1958
aVAugust 11, 1986, Osaka
p1959
aVApril 17, 1987, Aichi
p1960
aVOctober 17, 1981, Osaka
p1961
aVOctober 30, 1983, Osaka
p1962
aVApril 16, 1981, Kaiapoi
p1963
aVOctober 5, 1982, Tokyo
p1964
aVOctober 4, 1983, Aichi
p1965
aVAugust 12, 1972, Rotorua
p1966
aVMarch 20, 1981, Osaka
p1967
aVJanuary 22, 1984, Seoul
p1968
aVMay 23, 1979, Broken Hill
p1969
aVJuly 13, 1983, Saitama
p1970
aVNovember 16, 1981, Fukushima
p1971
aVAugust 6, 1982, Fukuoka
p1972
aVApril 5, 1978, Nagasaki
p1973
aVJune 10, 1981, Osaka
p1974
aVAugust 24, 1979, Hiroshima
p1975
aVMarch 15, 1982, Ibaraki
p1976
aVFebruary 6, 1982, Akita
p1977
aVJanuary 3, 1985, Kyoto
p1978
aVDecember 30, 1981, Blenheim
p1979
aVOctober 25, 1981, Nuku'alofa
p1980
aVMarch 15, 1982, Hyogo
p1981
aVAugust 2, 1985, Miyagi
p1982
aVJanuary 15, 1983, Kyoto
p1983
aVNovember 23, 1983, Hyogo
p1984
aVMay 7, 1980, Osaka
p1985
aVOctober 7, 1988, Burwood
p1986
aVSeptember 30, 1981, Fukuoka
p1987
aVOctober 31, 1985, Tokyo
p1988
aVMarch 3, 1986
p1989
aVNovember 29, 1984, Kyoto
p1990
aVOctober 8, 1980, Nuku'alofa
p1991
aVJanuary 1, 1986, Osaka
p1992
aVNovember 5, 1984, Gunma
p1993
aVAugust 18, 1987, Hyogo
p1994
aVFebruary 4, 1980
p1995
aVAugust 25, 1984, Tokyo
p1996
aVMay 15, 1986, Fukuoka
p1997
aVJanuary 21, 1986, Osaka
p1998
aVApril 2, 1980, Napier
p1999
aVFebruary 1, 1982, Manunu, Western Samoa
p2000
aVJuly 15, 1988, Osaka
p2001
aVMarch 26, 1987, Sendai
p2002
aVMay 3, 1985, Miyazaki
p2003
aVMarch 14, 1983, Nuku'alofa
p2004
aVOctober 2, 1984, Saitama
p2005
aVJanuary 21, 1984, Chiba
p2006
aVJuly 13, 1981, Osaka
p2007
aVApril 14, 1985, Fukuoka
p2008
aVJune 22, 1988, Osaka
p2009
aVJune 25, 1978, Nara
p2010
aVOctober 1, 1984, Ibaraki
p2011
aVMay 22, 1987, Hyogo
p2012
aVMay 24, 1984, Mosgiel
p2013
aVMarch 3, 1982, Fukuoka
p2014
aVSeptember 28, 1985, Osaka
p2015
aVOctober 2, 1985, Kyoto
p2016
aVJanuary 2, 1988, Osaka
p2017
aVJune 27, 1982, Lower Hutt
p2018
aVMarch 21, 1989, Fukuoka
p2019
aVAugust 10, 1982, Aichi
p2020
aVDecember 2, 1980, Hyogo
p2021
aVJuly 19, 1985, Gifu
p2022
aVOctober 26, 1982, Shiga
p2023
aVJanuary 9, 1989, Aichi
p2024
aVAugust 21, 1981, Kanagawa
p2025
aVDecember 2, 1989, Nara
p2026
aVMarch 21, 1989
p2027
aVFebruary 22, 1992, Shiga
p2028
aVOctober 8, 1993, Kyoto
p2029
aVFebruary 7, 1987, Fukuoka
p2030
aVOctober 23, 1985, Kagoshima
p2031
aVMay 27, 1988, Chiba
p2032
aVDecember 13, 1987, Auckland
p2033
aVOctober 30, 1986, Kaitaia
p2034
aVJune 4, 1988, Aomori
p2035
aVOctober 13, 1987, Auckland
p2036
aVSeptember 7, 1987, Yamanasi
p2037
aVSeptember 7, 1992, Fukuoka
p2038
aVDecember 26, 1979, Sydney, NSW
p2039
aVJune 3, 1991, Kagoshima
p2040
aVDecember 6, 1989, Kyoto
p2041
aVJuly 26, 1985, Kyoto
p2042
aVJuly 30, 1980, Christchurch
p2043
aVFebruary 26, 1993, Pretoria
p2044
aVMay 29, 1988, Nagasaki
p2045
aVApril 26, 1985, Osaka
p2046
aVJuly 11, 1990, Tokyo
p2047
aVAugust 1, 1985, Napier
p2048
aVJanuary 11, 1990, Tofoa, Tongatapu
p2049
aVJune 2, 1990, Niigata
p2050
aVDecember 19, 1991, Fukuoka
p2051
aVNovember 11, 1994
p2052
aVDecember 15, 1988, Kanagawa
p2053
aVMarch 17, 1992, Ehime
p2054
aVAugust 1, 1990
p2055
aVMay 27, 1994
p2056
aVAugust 22, 1987, Akita
p2057
aVNovember 18, 1990, Okinawa
p2058
aVAugust 19, 1992, Fukuoka
p2059
aVAugust 27, 1992, Fukuoka
p2060
aVJanuary 28, 1992, Fukuoka
p2061
aVApril 25, 1988, Tokyo
p2062
aVJuly 15, 1995
p2063
aVJanuary 2, 1996
p2064
aVNovember 17, 1992, Osaka
p2065
aVJune 14, 1992, Nagasaki
p2066
aVJuly 29, 1986, Gunma
p2067
aVNovember 26, 1992, Okinawa
p2068
aVNovember 16, 1989, Nara
p2069
aVJune 13, 1992, Kagoshima
p2070
aVNovember 30, 1996
p2071
aVFebruary 6, 1996
p2072
aVJune 21, 1993, Kyoto
p2073
aVOctober 3, 1991, Osaka
p2074
aVJune 8, 1995
p2075
aVDecember 6, 1996
p2076
aVMay 20, 1996
p2077
aVJanuary 28, 1994, Saitama
p2078
aVJanuary 20, 1997
p2079
aVMarch 25, 1996
p2080
aVAugust 5, 1987, Nagano
p2081
aVJuly 6, 1987, Viaola, Tofoa
p2082
aVAugust 4, 1988, Kanagawa
p2083
aVMay 3, 1994
p2084
aVNovember 21, 1990, Osaka
p2085
aVAugust 13, 1986, Suva
p2086
aVJuly 12, 1990
p2087
aVSeptember 5, 1987, Fukuoka
p2088
aVJanuary 20, 1989
p2089
aVApril 14, 1990
p2090
aVFebruary 27, 1989, Tochigi
p2091
aVOctober 27, 1981, Osaka
p2092
aVJune 5, 1993
p2093
aVOctober 5, 1990, Oita
p2094
aVAugust 19, 1991, Western Samoa
p2095
aVNovember 24, 1993, Nagano
p2096
aVMarch 18, 1991, Fukuoka
p2097
aVOctober 29, 1990, Shiga
p2098
aVJuly 13, 1992, Fukuoka
p2099
aVFebruary 20, 1985, Tokyo
p2100
aVJanuary 20, 1990, Fukuoka
p2101
aVAugust 9, 1979, Whitby, ON
p2102
aVMay 2, 1977
p2103
aVSeptember 30, 1979, London, ON
p2104
aVSeptember 13, 1979, Kitchener, ON
p2105
aVJuly 9, 1979, London, ON
p2106
aVJuly 21, 1979, Parks, NSW
p2107
aVMarch 7, 1977, Duncan, BC
p2108
aVAugust 15, 1974, Sydney, NSW
p2109
aVOctober 2, 1980, Fergus, ON
p2110
aVSeptember 27, 1978
p2111
aVApril 15, 1979, Edmonton
p2112
aVApril 9, 1982, Vancouver, BC
p2113
aVAugust 5, 1979
p2114
aVJune 7, 1973
p2115
aVMarch 24, 1984, Victoria, BC
p2116
aVJune 19, 1979, N Vancouver, BC
p2117
aVMarch 3, 1980
p2118
aVOctober 9, 1980, Vancouver, BC
p2119
aVAugust 10, 1980
p2120
aVOctober 20, 1979
p2121
aVApril 19, 1983
p2122
aVOctober 30, 1976
p2123
aVApril 12, 1983, Lucan, ON
p2124
aVJune 26, 1982, Williams Lake, BC
p2125
aVdate unknown
p2126
aVNovember 17, 1980
p2127
aVJune 14, 1979, N Vancouver, BC
p2128
aVFebruary 20, 1978, London, ON
p2129
aVMay 31, 1985, Victoria, BC
p2130
aVJanuary 9, 1983, Hamilton, ON
p2131
aVDecember 23, 1977, Devon
p2132
aVOctober 26, 1981, Barrie, ON
p2133
aVNovember 7, 1975
p2134
aVSeptember 20, 1980
p2135
aVDecember 12, 1983, N Vancouver, BC
p2136
aVApril 19, 1983, Port Perry, ON
p2137
aVJuly 24, 1981
p2138
aVNovember 21, 1974
p2139
aVJune 13, 1982, Warsaw
p2140
aVSeptember 28, 1976
p2141
aVJune 18, 1980, Calgary, AL
p2142
aVApril 9, 1979
p2143
aVOctober 27, 1982, Oakville, ON
p2144
aVMay 1, 1978
p2145
aVMay 31, 1978, Surrey, BC
p2146
aVApril 12, 1983, Lucan, ON
p2147
aVMarch 2, 1984, Elk Point, AB
p2148
aVJanuary 28, 1978, Abbotsford, BC
p2149
aVdate unknown
p2150
aVdate unknown
p2151
aVNovember 18, 1983, Vancouver, BC
p2152
aVMay 5, 1978
p2153
aVAugust 10, 1985, Vancouver, BC
p2154
aVDecember 15, 1980
p2155
aVJuly 7, 1978, Toronto, ON
p2156
aVSeptember 6, 1981, North York, ON
p2157
aVJanuary 4, 1982, Saskatoon, SK
p2158
aVMay 17, 1982, Vancouver, BC
p2159
aVApril 28, 1986, Worcester
p2160
aVDecember 17, 1981, Ontario
p2161
aVAugust 23, 1980, Regina, SK
p2162
aVJune 18, 1984, Jos
p2163
aVApril 7, 1987, Randburg
p2164
aVSeptember 5, 1984, Vancouver, BC
p2165
aVMay 30, 1985, Vancouver, BC
p2166
aVAugust 29, 1985
p2167
aVOctober 30, 1985
p2168
aVApril 3, 1984
p2169
aVFebruary 25, 1987, Oakville, ON
p2170
aVMarch 23, 1988, Richmond, BC
p2171
aVAugust 4, 1986, Red Deer, AB
p2172
aVDecember 30, 1985, St John's, NL
p2173
aVJanuary 2, 1988, Salisbury
p2174
aVSeptember 5, 1976, St John's, NL
p2175
aVMay 7, 1988
p2176
aVFebruary 5, 1985, N Vancouver, BC
p2177
aVFebruary 22, 1986, Bellisle, NB
p2178
aVSeptember 18, 1985, Victoria, BC
p2179
aVDecember 19, 1985, Lindsay, ON
p2180
aVJuly 21, 1988, St Albert, AB
p2181
aVJuly 2, 1987, Scarborough, ON
p2182
aVNovember 11, 1988, Edmonton, AB
p2183
aVJune 28, 1988, Victoria, BC
p2184
aVAugust 13, 1984
p2185
aVAugust 18, 1977, Winnipeg, MB
p2186
aVApril 11, 1986
p2187
aVAugust 6, 1988, London, ON
p2188
aVApril 9, 1988, Edmonton
p2189
aVMay 2, 1983, Wellington
p2190
aVOctober 6, 1992, Barrie, ON
p2191
aVMay 31, 1990, Victoria, BC
p2192
aVApril 27, 1986
p2193
aVFebruary 28, 1989, Troon
p2194
aVJanuary 20, 1986
p2195
aVDecember 5, 1989, Vancouver, BC
p2196
aVAugust 13, 1990, Lindsay, ON
p2197
aVJune 16, 1991, Peterborough, ON
p2198
aVAugust 21, 1991, Okotoks, AB
p2199
aVAugust 26, 1980, Niagara Falls, ON
p2200
aVApril 27, 1983
p2201
aVAugust 26, 1989, Vancouver, BC
p2202
aVNovember 1, 1991
p2203
aVJune 3, 1991, Toronto, ON
p2204
aVJune 16, 1989
p2205
aVMarch 20, 1992
p2206
aVOctober 26, 1991
p2207
aVFebruary 24, 1992, Williams Lake, BC
p2208
aVMay 21, 1987, Montreal, QC
p2209
aVJanuary 26, 1988, Fort McMurray, AB
p2210
aVMay 24, 1994, Edmonton
p2211
aVMay 12, 1988
p2212
aVJanuary 17, 1989
p2213
aVNovember 1, 1984, Beckenham
p2214
aVJune 24, 1988
p2215
aVNovember 28, 1985
p2216
aVFebruary 21, 1991, N Vancouver, BC
p2217
aVAugust 27, 1992
p2218
aVOctober 28, 1995
p2219
aVJuly 24, 1990
p2220
aVJanuary 1, 1985
p2221
aVAugust 2, 1995
p2222
aVSeptember 1, 1985
p2223
aVJuly 4, 1987
p2224
aVApril 7, 1988, St Albert, AB
p2225
aVApril 7, 1991
p2226
aVMay 1, 1992
p2227
aVJanuary 2, 1989
p2228
aVMarch 24, 1992
p2229
aVDecember 10, 1982
p2230
aVdate unknown
p2231
aVMarch 6, 1988
p2232
aVSeptember 5, 1993
p2233
aVAugust 6, 1994
p2234
aVJune 3, 1988
p2235
aVFebruary 21, 1990
p2236
aVFebruary 9, 1993, Ladysmith, BC
p2237
aVJuly 4, 1996, Mississauga, ONT
p2238
aVJune 26, 1990, Bosnia, Yugoslavia
p2239
aVNovember 24, 1995
p2240
aVJuly 29, 1995
p2241
aVJuly 9, 1996
p2242
aVMay 26, 1995
p2243
aVSeptember 27, 1997, Duncan, BC
p2244
aVApril 3, 1997
p2245
aVdate unknown
p2246
aVMay 7, 1996
p2247
aVSeptember 21, 1996
p2248
aVApril 29, 1991
p2249
aVMay 21, 1994
p2250
aVdate unknown
p2251
aVOctober 8, 1975
p2252
aVMarch 10, 1979, Whakatane
p2253
aVSeptember 9, 1979, Fort Collins, CO, United States
p2254
aVJanuary 8, 1980, Pietermaritzburg
p2255
aVFebruary 12, 1972, Washington DC, United States
p2256
aVNovember 3, 1981, Canton, OH, United States
p2257
aVJanuary 19, 1980, Minneapolis, MN, United States
p2258
aVJune 21, 1983, Anaheim, CA, United States
p2259
aVJanuary 27, 1975, Dubbo, NSW
p2260
aVSeptember 10, 1985, Pago Pago
p2261
aVMay 17, 1981, Hartford, CT, United States
p2262
aVSeptember 13, 1983, Stamford, CT, United States
p2263
aVMarch 4, 1981, Suva
p2264
aVFebruary 13, 1981, Philadelphia, PA, United States
p2265
aVOctober 10, 1984, Monterrey
p2266
aVSeptember 12, 1972, Victor, NY, United States
p2267
aVJanuary 4, 1973, Los Angeles, CA, United States
p2268
aVJuly 22, 1985, Harare
p2269
aVMay 16, 1978, Vaini
p2270
aVSeptember 22, 1988, Woodland, CA, United States
p2271
aVAugust 16, 1984, Brooklyn, NY, United States
p2272
aVMarch 29, 1982, Sydney, NSW
p2273
aVMay 6, 1982, Jerome, ID, United States
p2274
aVFebruary 28, 1984, Rockland Co, NY, United States
p2275
aVdate unknown
p2276
aVApril 28, 1976, Wairoa
p2277
aVdate unknown
p2278
aVMarch 26, 1986
p2279
aVJuly 24, 1983, Taplow, Bucks
p2280
aVMarch 24, 1983, Faga'alu
p2281
aVApril 10, 1985, Penrith, NSW
p2282
aVAugust 14, 1985, Cape Town
p2283
aVJanuary 22, 1988, Bellingham, WA, United States
p2284
aVMay 1, 1982, Pago Pago
p2285
aVOctober 30, 1984, Sacramento, CA, United States
p2286
aVMay 26, 1983, St Paul, MN, United States
p2287
aVApril 22, 1983
p2288
aVOctober 11, 1985, California, United States
p2289
aVNovember 11, 1984, Christchurch
p2290
aVOctober 4, 1989, Salt Lake City, UT, United States
p2291
aVMay 29, 1984, California, United States
p2292
aVDecember 17, 1986, Pago Pago
p2293
aVDecember 16, 1984, San Jose, CA, United States
p2294
aVSeptember 10, 1985, Pago Pago
p2295
aVJune 21, 1983, Brisbane, QLD
p2296
aVJune 12, 1982, Mountain View, CA, United States
p2297
aVApril 10, 1987, Phoenix, AZ, United States
p2298
aVOctober 29, 1984, Traverse City, MI, United States
p2299
aVDecember 27, 1984
p2300
aVMarch 7, 1985, Baltimore, MD, United States
p2301
aVMarch 30, 1983, Durban
p2302
aVJuly 4, 1988, Olympia, WA, United States
p2303
aVNovember 11, 1986, Lawrence, MA, United States
p2304
aVDecember 6, 1983, Oakland, CA, United States
p2305
aVOctober 27, 1981
p2306
aVMarch 5, 1985, Concord, CA, United States
p2307
aVJune 3, 1989, Faga'alu
p2308
aVSeptember 14, 1987, Davis, CA, United States
p2309
aVFebruary 16, 1982, Portland, OR, United States
p2310
aVFebruary 29, 1988, Sacramento, CA, United States
p2311
aVApril 11, 1987, Christchurch
p2312
aVJuly 4, 1984
p2313
aVOctober 25, 1987, New York City, NY, United States
p2314
aVMarch 19, 1991, Frankfurt
p2315
aVJanuary 26, 1988, Sydney, NSW
p2316
aVMarch 4, 1988, Arlington, TX, United States
p2317
aVSeptember 16, 1988, Bakersfield, CA, United States
p2318
aVAugust 13, 1984
p2319
aVdate unknown
p2320
aVSeptember 2, 1988, Berkeley, CA, United States
p2321
aVMarch 10, 1990, Youghal, Cork
p2322
aVJuly 29, 1989, Denver, CO, United States
p2323
aVJune 16, 1988, Hagatna
p2324
aVFebruary 23, 1987
p2325
aVJuly 27, 1988, Auckland
p2326
aVMay 30, 1991, New York, NY, United States
p2327
aVJuly 11, 1988
p2328
aVOctober 16, 1989, Bellingham, WA, United States
p2329
aVMarch 7, 1990, Fort Myers, FL, United States
p2330
aVFebruary 11, 1995, Bellingham, WA, United States
p2331
aVJanuary 27, 1985, East Palo Alto, CA, United States
p2332
aVMarch 23, 1989, Danville, CA, United States
p2333
aVSeptember 28, 1986, Seattle, WA, United States
p2334
aVAugust 28, 1980, San Diego, CA, United States
p2335
aVJune 20, 1989, Durban
p2336
aVAugust 26, 1988, Sydney, NSW
p2337
aVJanuary 24, 1990, American Fork, UT, United States
p2338
aVJune 5, 1988, Pago Pago
p2339
aVMarch 23, 1990, Pacifica, CA, United States
p2340
aVSeptember 27, 1988, Johannesburg
p2341
aVAugust 17, 1990, Tempe, AZ, United States
p2342
aVApril 7, 1989, Vancouver, WA, United States
p2343
aVSeptember 6, 1986, Darlinghurst, NSW
p2344
aVMay 16, 1990, La Mirada, CA, United States
p2345
aVMarch 26, 1991, Sydney, NSW
p2346
aVMarch 17, 1994, Gold Coast, QLD
p2347
aVJune 5, 1985, Burbank, CA, United States
p2348
aVFebruary 26, 1990, Dublin
p2349
aVOctober 13, 1989, Redwood City, CA, United States
p2350
aVJune 2, 1989, Paddington, NSW
p2351
aVMay 18, 1987, Steamboat Springs, C, United States
p2352
aVOctober 9, 1991, Pretoria
p2353
aVOctober 4, 1992, Vallejo, CA, United States
p2354
aVJanuary 22, 1992, Tiburon, CA, United States
p2355
aVJanuary 4, 1989, Cardiff
p2356
aVAugust 31, 1989, Marblehead, MD, United States
p2357
aVMay 25, 1993, San Mateo, CA, United States
p2358
aVMarch 26, 1991, Pewaukee, WI, United States
p2359
aVDecember 18, 1992, St Thomas, TX, United States
p2360
aVJanuary 1, 1985, Kansas City, MO, United States
p2361
aVApril 17, 1993, Apia, Western Samoa
p2362
aVJanuary 22, 1990, Redwood City, CA, United States
p2363
aVJuly 23, 1993, Long Beach, CA, United States
p2364
aVMay 28, 1991, Pretoria
p2365
aVJanuary 11, 1989, Centennial, CO, United States
p2366
aVOctober 10, 1991, Los Gatos, CA, United States
p2367
aVMay 21, 1989, Adelaide, SA
p2368
aVMarch 12, 1993, New York City, NY, United States
p2369
aVFebruary 24, 1984, Sydney, NSW
p2370
aVJanuary 22, 1997
p2371
aVDecember 28, 1987, Toledo, OH, United States
p2372
aVJanuary 27, 1990, Tacoma, WA, United States
p2373
aVDecember 24, 1990, Tucson, AZ, United States
p2374
aVMarch 16, 1987, Pukekohe
p2375
aVDecember 31, 1992, North Bend, WA, United States
p2376
aVAugust 24, 1996, Omaha, NE, United States
p2377
aVJanuary 7, 1997, Des Moines, IA, United States
p2378
aVJanuary 31, 1990, Minneapolis, MN, United States
p2379
aVJuly 31, 1991, Timaru
p2380
aVAugust 24, 1992, Traverse City, MI, United States
p2381
aVJuly 3, 1989, San Mateo, CA, United States
p2382
aVOctober 8, 1991, Brisbane
p2383
aVSeptember 25, 1994, Santa Rosa, CA, United States
p2384
aVSeptember 21, 1994, Indianapolis, IN, United States
p2385
aVNovember 5, 1989, White Plains, NY, United States
p2386
aVOctober 26, 1992, Surrey
p2387
aVJanuary 13, 1990, Wahiawa, HI, United States
p2388
aVJuly 20, 1990
p2389
aVJuly 11, 1991, Crockett, CA, United States
p2390
aVOctober 15, 1987, Los Angeles, CA, United States
p2391
aVMarch 20, 1996
p2392
aVMarch 4, 1994, Huntingtown, MD, United States
p2393
aVApril 21, 1992, Scranton, PA, United States
p2394
aVFebruary 23, 1992, Westminster
p2395
aVApril 24, 1995, Charlotte, NC, United States
p2396
aVJune 20, 1989, Lake Elsinore, CA, United States
p2397
aVApril 26, 1989, Auroro, IL, United States
p2398
aVJanuary 29, 1997, East Palo Alto, CA, United States
p2399
aVMarch 24, 1993, London
p2400
aVNovember 30, 1995, Johannesburg
p2401
a.