(lp1
VScotland v England at Murrayfield, Feb 2, 2002
p2
aVScotland v England at Murrayfield, Feb 2, 2002
p3
aVFrance v England at Stade de France, Mar 2, 2002
p4
aVArgentina v England at Buenos Aires, Jun 22, 2002
p5
aVArgentina v England at Buenos Aires, Jun 22, 2002
p6
aVArgentina v England at Buenos Aires, Jun 22, 2002
p7
aVArgentina v England at Buenos Aires, Jun 22, 2002
p8
aVArgentina v England at Buenos Aires, Jun 22, 2002
p9
aVEngland v New Zealand at Twickenham, Nov 9, 2002
p10
aVWales v England at Millennium Stadium, Feb 22, 2003
p11
aVEngland v Italy at Twickenham, Mar 9, 2003
p12
aVEngland v Italy at Twickenham, Mar 9, 2003
p13
aVWales v England at Millennium Stadium, Aug 23, 2003
p14
aVWales v England at Millennium Stadium, Aug 23, 2003
p15
aVItaly v England at Rome, Feb 15, 2004
p16
aVNew Zealand v England at Dunedin, Jun 12, 2004
p17
aVNew Zealand v England at Auckland, Jun 19, 2004
p18
aVNew Zealand v England at Auckland, Jun 19, 2004
p19
aVAustralia v England at Brisbane, Jun 26, 2004
p20
aVEngland v Canada at Twickenham, Nov 13, 2004
p21
aVEngland v Canada at Twickenham, Nov 13, 2004
p22
aVEngland v Canada at Twickenham, Nov 13, 2004
p23
aVEngland v Canada at Twickenham, Nov 13, 2004
p24
aVEngland v South Africa at Twickenham, Nov 20, 2004
p25
aVWales v England at Millennium Stadium, Feb 5, 2005
p26
aVWales v England at Millennium Stadium, Feb 5, 2005
p27
aVEngland v Italy at Twickenham, Mar 12, 2005
p28
aVEngland v Italy at Twickenham, Mar 12, 2005
p29
aVEngland v Australia at Twickenham, Nov 12, 2005
p30
aVEngland v Samoa at Twickenham, Nov 26, 2005
p31
aVEngland v Samoa at Twickenham, Nov 26, 2005
p32
aVEngland v Samoa at Twickenham, Nov 26, 2005
p33
aVEngland v Samoa at Twickenham, Nov 26, 2005
p34
aVAustralia v England at Sydney, Jun 11, 2006
p35
aVAustralia v England at Sydney, Jun 11, 2006
p36
aVAustralia v England at Sydney, Jun 11, 2006
p37
aVAustralia v England at Sydney, Jun 11, 2006
p38
aVAustralia v England at Sydney, Jun 11, 2006
p39
aVEngland v New Zealand at Twickenham, Nov 5, 2006
p40
aVEngland v New Zealand at Twickenham, Nov 5, 2006
p41
aVEngland v New Zealand at Twickenham, Nov 5, 2006
p42
aVEngland v Argentina at Twickenham, Nov 11, 2006
p43
aVEngland v Scotland at Twickenham, Feb 3, 2007
p44
aVEngland v Scotland at Twickenham, Feb 3, 2007
p45
aVEngland v Scotland at Twickenham, Feb 3, 2007
p46
aVEngland v Italy at Twickenham, Feb 10, 2007
p47
aVIreland v England at Croke Park, Feb 24, 2007
p48
aVEngland v France at Twickenham, Mar 11, 2007
p49
aVWales v England at Millennium Stadium, Mar 17, 2007
p50
aVWales v England at Millennium Stadium, Mar 17, 2007
p51
aVSouth Africa v England at Bloemfontein, May 26, 2007
p52
aVSouth Africa v England at Bloemfontein, May 26, 2007
p53
aVSouth Africa v England at Bloemfontein, May 26, 2007
p54
aVSouth Africa v England at Bloemfontein, May 26, 2007
p55
aVSouth Africa v England at Bloemfontein, May 26, 2007
p56
aVSouth Africa v England at Pretoria, Jun 2, 2007
p57
aVSouth Africa v England at Pretoria, Jun 2, 2007
p58
aVEngland v Wales at Twickenham, Aug 4, 2007
p59
aVEngland v Wales at Twickenham, Feb 2, 2008
p60
aVEngland v Wales at Twickenham, Feb 2, 2008
p61
aVEngland v Wales at Twickenham, Feb 2, 2008
p62
aVItaly v England at Rome, Feb 10, 2008
p63
aVFrance v England at Stade de France, Feb 23, 2008
p64
aVEngland v Ireland at Twickenham, Mar 15, 2008
p65
aVNew Zealand v England at Auckland, Jun 14, 2008
p66
aVNew Zealand v England at Auckland, Jun 14, 2008
p67
aVNew Zealand v England at Auckland, Jun 14, 2008
p68
aVNew Zealand v England at Christchurch, Jun 21, 2008
p69
aVEngland v Pacific Islanders at Twickenham, Nov 8, 2008
p70
aVEngland v Pacific Islanders at Twickenham, Nov 8, 2008
p71
aVEngland v Pacific Islanders at Twickenham, Nov 8, 2008
p72
aVEngland v Pacific Islanders at Twickenham, Nov 8, 2008
p73
aVEngland v Pacific Islanders at Twickenham, Nov 8, 2008
p74
aVEngland v South Africa at Twickenham, Nov 22, 2008
p75
aVEngland v Italy at Twickenham, Feb 7, 2009
p76
aVEngland v Italy at Twickenham, Feb 7, 2009
p77
aVEngland v Argentina at Manchester, Jun 6, 2009
p78
aVEngland v Argentina at Manchester, Jun 6, 2009
p79
aVEngland v Argentina at Manchester, Jun 6, 2009
p80
aVEngland v Argentina at Manchester, Jun 6, 2009
p81
aVArgentina v England at Salta, Jun 13, 2009
p82
aVEngland v Australia at Twickenham, Nov 7, 2009
p83
aVEngland v Australia at Twickenham, Nov 7, 2009
p84
aVEngland v Argentina at Twickenham, Nov 14, 2009
p85
aVEngland v Wales at Twickenham, Feb 6, 2010
p86
aVItaly v England at Rome, Feb 14, 2010
p87
aVScotland v England at Murrayfield, Mar 13, 2010
p88
aVFrance v England at Stade de France, Mar 20, 2010
p89
aVAustralia v England at Perth, Jun 12, 2010
p90
aVEngland v New Zealand at Twickenham, Nov 6, 2010
p91
aVEngland v New Zealand at Twickenham, Nov 6, 2010
p92
aVWales v England at Millennium Stadium, Feb 4, 2011
p93
aVEngland v Italy at Twickenham, Feb 12, 2011
p94
aVEngland v Wales at Twickenham, Aug 6, 2011
p95
aVEngland v Wales at Twickenham, Aug 6, 2011
p96
aVEngland v Wales at Twickenham, Aug 6, 2011
p97
aVEngland v Georgia at Dunedin, Sep 18, 2011
p98
aVScotland v England at Murrayfield, Feb 4, 2012
p99
aVScotland v England at Murrayfield, Feb 4, 2012
p100
aVScotland v England at Murrayfield, Feb 4, 2012
p101
aVScotland v England at Murrayfield, Feb 4, 2012
p102
aVScotland v England at Murrayfield, Feb 4, 2012
p103
aVScotland v England at Murrayfield, Feb 4, 2012
p104
aVScotland v England at Murrayfield, Feb 4, 2012
p105
aVItaly v England at Rome, Feb 11, 2012
p106
aVSouth Africa v England at Durban, Jun 9, 2012
p107
aVSouth Africa v England at Durban, Jun 9, 2012
p108
aVSouth Africa v England at Durban, Jun 9, 2012
p109
aVSouth Africa v England at Johannesburg, Jun 16, 2012
p110
aVSouth Africa v England at Johannesburg, Jun 16, 2012
p111
aVEngland v Fiji at Twickenham, Nov 10, 2012
p112
aVEngland v Fiji at Twickenham, Nov 10, 2012
p113
aVEngland v Fiji at Twickenham, Nov 10, 2012
p114
aVEngland v New Zealand at Twickenham, Dec 1, 2012
p115
aVEngland v Scotland at Twickenham, Feb 2, 2013
p116
aVArgentina v England at Salta, Jun 8, 2013
p117
aV
aVArgentina v England at Salta, Jun 8, 2013
p118
aVArgentina v England at Salta, Jun 8, 2013
p119
aVArgentina v England at Salta, Jun 8, 2013
p120
aVArgentina v England at Buenos Aires, Jun 15, 2013
p121
aVArgentina v England at Buenos Aires, Jun 15, 2013
p122
aVArgentina v England at Buenos Aires, Jun 15, 2013
p123
aVEngland v Australia at Twickenham, Nov 2, 2013
p124
aVFrance v England at Stade de France, Feb 1, 2014
p125
aVFrance v England at Stade de France, Feb 1, 2014
p126
aVEngland v Wales at Twickenham, Mar 9, 2014
p127
aVNew Zealand v England at Auckland, Jun 7, 2014
p128
aVNew Zealand v England at Auckland, Jun 7, 2014
p129
aVNew Zealand v England at Dunedin, Jun 14, 2014
p130
aVEngland v New Zealand at Twickenham, Nov 8, 2014
p131
aVEngland v New Zealand at Twickenham, Nov 8, 2014
p132
aVEngland v New Zealand at Twickenham, Nov 8, 2014
p133
aVEngland v France at Twickenham, Aug 15, 2015
p134
aVEngland v France at Twickenham, Aug 15, 2015
p135
aVEngland v France at Twickenham, Aug 15, 2015
p136
aVEngland v France at Twickenham, Aug 15, 2015
p137
aVFrance v England at Stade de France, Aug 22, 2015
p138
aVScotland v England at Murrayfield, Feb 6, 2016
p139
aVItaly v England at Rome, Feb 14, 2016
p140
aVItaly v England at Rome, Feb 14, 2016
p141
aVEngland v Ireland at Twickenham, Feb 27, 2016
p142
aVEngland v Wales at Twickenham, May 29, 2016
p143
aVEngland v Wales at Twickenham, May 29, 2016
p144
aVEngland v Wales at Twickenham, May 29, 2016
p145
aVEngland v Wales at Twickenham, May 29, 2016
p146
aVEngland v South Africa at Twickenham, Nov 12, 2016
p147
aVEngland v South Africa at Twickenham, Nov 12, 2016
p148
aVEngland v South Africa at Twickenham, Nov 12, 2016
p149
aVEngland v Fiji at Twickenham, Nov 19, 2016
p150
aVScotland v South Africa at Murrayfield, Nov 21, 1998
p151
aVScotland v South Africa at Murrayfield, Nov 21, 1998
p152
aVScotland v Italy at Murrayfield, Mar 6, 1999
p153
aVScotland v Italy at Murrayfield, Mar 6, 1999
p154
aVScotland v Ireland at Murrayfield, Mar 20, 1999
p155
aVScotland v Argentina at Murrayfield, Aug 21, 1999
p156
aVScotland v Romania at Glasgow, Aug 28, 1999
p157
aVScotland v Romania at Glasgow, Aug 28, 1999
p158
aVScotland v Spain at Murrayfield, Oct 16, 1999
p159
aVWales v Scotland at Millennium Stadium, Mar 18, 2000
p160
aVScotland v England at Murrayfield, Apr 2, 2000
p161
aVScotland v England at Murrayfield, Apr 2, 2000
p162
aVNew Zealand v Scotland at Dunedin, Jun 24, 2000
p163
aVNew Zealand v Scotland at Dunedin, Jun 24, 2000
p164
aVNew Zealand v Scotland at Auckland, Jul 1, 2000
p165
aVNew Zealand v Scotland at Auckland, Jul 1, 2000
p166
aVNew Zealand v Scotland at Auckland, Jul 1, 2000
p167
aVNew Zealand v Scotland at Auckland, Jul 1, 2000
p168
aVScotland v United States of America at Murrayfield, Nov 4, 2000
p169
aVScotland v United States of America at Murrayfield, Nov 4, 2000
p170
aVScotland v United States of America at Murrayfield, Nov 4, 2000
p171
aVScotland v Ireland at Murrayfield, Sep 22, 2001
p172
aVScotland v Tonga at Murrayfield, Nov 10, 2001
p173
aVScotland v Tonga at Murrayfield, Nov 10, 2001
p174
aVScotland v Tonga at Murrayfield, Nov 10, 2001
p175
aVScotland v New Zealand at Murrayfield, Nov 24, 2001
p176
aVCanada v Scotland at Vancouver, Jun 15, 2002
p177
aVCanada v Scotland at Vancouver, Jun 15, 2002
p178
aVCanada v Scotland at Vancouver, Jun 15, 2002
p179
aVCanada v Scotland at Vancouver, Jun 15, 2002
p180
aVCanada v Scotland at Vancouver, Jun 15, 2002
p181
aVCanada v Scotland at Vancouver, Jun 15, 2002
p182
aVCanada v Scotland at Vancouver, Jun 15, 2002
p183
aVUnited States of America v Scotland at San Francisco, Jun 22, 2002
p184
aVUnited States of America v Scotland at San Francisco, Jun 22, 2002
p185
aVScotland v Romania at Murrayfield, Nov 9, 2002
p186
aVScotland v Romania at Murrayfield, Nov 9, 2002
p187
aVScotland v Romania at Murrayfield, Nov 9, 2002
p188
aVScotland v Ireland at Murrayfield, Feb 16, 2003
p189
aVFrance v Scotland at Stade de France, Feb 23, 2003
p190
aVScotland v Italy at Murrayfield, Aug 23, 2003
p191
aVWales v Scotland at Millennium Stadium, Aug 30, 2003
p192
aVWales v Scotland at Millennium Stadium, Aug 30, 2003
p193
aVScotland v Ireland at Murrayfield, Sep 6, 2003
p194
aVWales v Scotland at Millennium Stadium, Feb 14, 2004
p195
aVWales v Scotland at Millennium Stadium, Feb 14, 2004
p196
aVWales v Scotland at Millennium Stadium, Feb 14, 2004
p197
aVWales v Scotland at Millennium Stadium, Feb 14, 2004
p198
aVSamoa v Scotland at Wellington, Jun 4, 2004
p199
aVSamoa v Scotland at Wellington, Jun 4, 2004
p200
aVAustralia v Scotland at Melbourne, Jun 13, 2004
p201
aVAustralia v Scotland at Sydney, Jun 19, 2004
p202
aVScotland v Australia at Murrayfield, Nov 6, 2004
p203
aVScotland v Australia at Murrayfield, Nov 6, 2004
p204
aVScotland v Australia at Murrayfield, Nov 6, 2004
p205
aVScotland v Australia at Murrayfield, Nov 6, 2004
p206
aVFrance v Scotland at Stade de France, Feb 5, 2005
p207
aVScotland v Wales at Murrayfield, Mar 13, 2005
p208
aVRomania v Scotland at Bucharest, Jun 5, 2005
p209
aVRomania v Scotland at Bucharest, Jun 5, 2005
p210
aVRomania v Scotland at Bucharest, Jun 5, 2005
p211
aVRomania v Scotland at Bucharest, Jun 5, 2005
p212
aVRomania v Scotland at Bucharest, Jun 5, 2005
p213
aVWales v Scotland at Millennium Stadium, Feb 12, 2006
p214
aVSouth Africa v Scotland at Durban, Jun 10, 2006
p215
aVScotland v Romania at Murrayfield, Nov 11, 2006
p216
aVScotland v Romania at Murrayfield, Nov 11, 2006
p217
aVScotland v Romania at Murrayfield, Nov 11, 2006
p218
aVScotland v Romania at Murrayfield, Nov 11, 2006
p219
aVScotland v Australia at Murrayfield, Nov 25, 2006
p220
aVScotland v Australia at Murrayfield, Nov 25, 2006
p221
aVScotland v Ireland at Murrayfield, Aug 11, 2007
p222
aVScotland v New Zealand at Murrayfield, Sep 23, 2007
p223
aVScotland v New Zealand at Murrayfield, Sep 23, 2007
p224
aVScotland v France at Murrayfield, Feb 3, 2008
p225
aVIreland v Scotland at Croke Park, Feb 23, 2008
p226
aVArgentina v Scotland at Rosario, Jun 7, 2008
p227
aVArgentina v Scotland at Rosario, Jun 7, 2008
p228
aVArgentina v Scotland at Rosario, Jun 7, 2008
p229
aVScotland v Canada at Aberdeen, Nov 22, 2008
p230
aVScotland v Wales at Murrayfield, Feb 8, 2009
p231
aVFrance v Scotland at Stade de France, Feb 14, 2009
p232
aVScotland v Fiji at Murrayfield, Nov 14, 2009
p233
aVScotland v Fiji at Murrayfield, Nov 14, 2009
p234
aVScotland v Fiji at Murrayfield, Nov 14, 2009
p235
aVScotland v Argentina at Murrayfield, Nov 28, 2009
p236
aVScotland v France at Murrayfield, Feb 7, 2010
p237
aVScotland v New Zealand at Murrayfield, Nov 13, 2010
p238
aVScotland v New Zealand at Murrayfield, Nov 13, 2010
p239
aVScotland v South Africa at Murrayfield, Nov 20, 2010
p240
aVScotland v Ireland at Murrayfield, Aug 6, 2011
p241
aVScotland v Ireland at Murrayfield, Aug 6, 2011
p242
aVScotland v England at Murrayfield, Feb 4, 2012
p243
aVWales v Scotland at Millennium Stadium, Feb 12, 2012
p244
aVWales v Scotland at Millennium Stadium, Feb 12, 2012
p245
aVScotland v France at Murrayfield, Feb 26, 2012
p246
aVIreland v Scotland at Lansdowne Road, Mar 10, 2012
p247
aVItaly v Scotland at Rome, Mar 17, 2012
p248
aVAustralia v Scotland at Newcastle, Jun 5, 2012
p249
aVAustralia v Scotland at Newcastle, Jun 5, 2012
p250
aVFiji v Scotland at Lautoka, Jun 16, 2012
p251
aVFiji v Scotland at Lautoka, Jun 16, 2012
p252
aVSamoa v Scotland at Apia, Jun 23, 2012
p253
aVScotland v New Zealand at Murrayfield, Nov 11, 2012
p254
aVScotland v Tonga at Aberdeen, Nov 24, 2012
p255
aVEngland v Scotland at Twickenham, Feb 2, 2013
p256
aVScotland v Wales at Murrayfield, Mar 9, 2013
p257
aVFrance v Scotland at Stade de France, Mar 16, 2013
p258
aVSamoa v Scotland at Durban, Jun 8, 2013
p259
aVSamoa v Scotland at Durban, Jun 8, 2013
p260
aVSamoa v Scotland at Durban, Jun 8, 2013
p261
aVSamoa v Scotland at Durban, Jun 8, 2013
p262
aVSamoa v Scotland at Durban, Jun 8, 2013
p263
aVSamoa v Scotland at Durban, Jun 8, 2013
p264
aVSouth Africa v Scotland at Nelspruit, Jun 15, 2013
p265
aVSouth Africa v Scotland at Nelspruit, Jun 15, 2013
p266
aVSouth Africa v Scotland at Nelspruit, Jun 15, 2013
p267
aVItaly v Scotland at Pretoria, Jun 22, 2013
p268
aVScotland v South Africa at Murrayfield, Nov 17, 2013
p269
aVScotland v Australia at Murrayfield, Nov 23, 2013
p270
aVScotland v England at Murrayfield, Feb 8, 2014
p271
aVWales v Scotland at Millennium Stadium, Mar 15, 2014
p272
aVUnited States of America v Scotland at Houston, Jun 7, 2014
p273
aVUnited States of America v Scotland at Houston, Jun 7, 2014
p274
aVUnited States of America v Scotland at Houston, Jun 7, 2014
p275
aVUnited States of America v Scotland at Houston, Jun 7, 2014
p276
aVCanada v Scotland at Toronto, Jun 14, 2014
p277
aVCanada v Scotland at Toronto, Jun 14, 2014
p278
aVSouth Africa v Scotland at Port Elizabeth, Jun 28, 2014
p279
aVSouth Africa v Scotland at Port Elizabeth, Jun 28, 2014
p280
aVScotland v Argentina at Murrayfield, Nov 8, 2014
p281
aVFrance v Scotland at Stade de France, Feb 7, 2015
p282
aVScotland v Italy at Murrayfield, Feb 28, 2015
p283
aVScotland v Italy at Murrayfield, Feb 28, 2015
p284
aVIreland v Scotland at Lansdowne Road, Aug 15, 2015
p285
aVIreland v Scotland at Lansdowne Road, Aug 15, 2015
p286
aVItaly v Scotland at Torino, Aug 22, 2015
p287
aVItaly v Scotland at Torino, Aug 22, 2015
p288
aVItaly v Scotland at Torino, Aug 22, 2015
p289
aVItaly v Scotland at Torino, Aug 22, 2015
p290
aVItaly v Scotland at Torino, Aug 22, 2015
p291
aVJapan v Scotland at Gloucester, Sep 23, 2015
p292
aVScotland v England at Murrayfield, Feb 6, 2016
p293
aVIreland v Scotland at Lansdowne Road, Mar 19, 2016
p294
aVJapan v Scotland at Tokyo, Jun 25, 2016
p295
aVScotland v Australia at Murrayfield, Nov 12, 2016
p296
aVScotland v Argentina at Murrayfield, Nov 19, 2016
p297
aVScotland v Georgia at Kilmarnock, Nov 26, 2016
p298
aVFrance v Scotland at Stade de France, Feb 12, 2017
p299
aVEngland v Scotland at Twickenham, Mar 11, 2017
p300
aVIreland v Georgia at Lansdowne Road, Nov 14, 1998
p301
aVIreland v Georgia at Lansdowne Road, Nov 14, 1998
p302
aVIreland v Georgia at Lansdowne Road, Nov 14, 1998
p303
aVAustralia v Ireland at Brisbane, Jun 12, 1999
p304
aVAustralia v Ireland at Brisbane, Jun 12, 1999
p305
aVAustralia v Ireland at Brisbane, Jun 12, 1999
p306
aVIreland v Argentina at Lansdowne Road, Aug 28, 1999
p307
aVIreland v Australia at Lansdowne Road, Oct 10, 1999
p308
aVIreland v Romania at Lansdowne Road, Oct 15, 1999
p309
aVIreland v Romania at Lansdowne Road, Oct 15, 1999
p310
aVIreland v Romania at Lansdowne Road, Oct 15, 1999
p311
aVIreland v Scotland at Lansdowne Road, Feb 19, 2000
p312
aVIreland v Scotland at Lansdowne Road, Feb 19, 2000
p313
aVIreland v Scotland at Lansdowne Road, Feb 19, 2000
p314
aVIreland v Scotland at Lansdowne Road, Feb 19, 2000
p315
aVIreland v Scotland at Lansdowne Road, Feb 19, 2000
p316
aVArgentina v Ireland at Buenos Aires, Jun 3, 2000
p317
aVArgentina v Ireland at Buenos Aires, Jun 3, 2000
p318
aVUnited States of America v Ireland at Manchester, Jun 10, 2000
p319
aVUnited States of America v Ireland at Manchester, Jun 10, 2000
p320
aVUnited States of America v Ireland at Manchester, Jun 10, 2000
p321
aVUnited States of America v Ireland at Manchester, Jun 10, 2000
p322
aVUnited States of America v Ireland at Manchester, Jun 10, 2000
p323
aVIreland v Japan at Lansdowne Road, Nov 11, 2000
p324
aVItaly v Ireland at Rome, Feb 3, 2001
p325
aVRomania v Ireland at Bucharest, Jun 2, 2001
p326
aVRomania v Ireland at Bucharest, Jun 2, 2001
p327
aVIreland v Samoa at Lansdowne Road, Nov 11, 2001
p328
aVIreland v Wales at Lansdowne Road, Feb 3, 2002
p329
aVIreland v Wales at Lansdowne Road, Feb 3, 2002
p330
aVIreland v Italy at Lansdowne Road, Mar 23, 2002
p331
aVNew Zealand v Ireland at Auckland, Jun 22, 2002
p332
aVWales v Ireland at Millennium Stadium, Mar 22, 2003
p333
aVTonga v Ireland at Nuku A'lofa, Jun 14, 2003
p334
aVTonga v Ireland at Nuku A'lofa, Jun 14, 2003
p335
aVSamoa v Ireland at Apia, Jun 20, 2003
p336
aVSamoa v Ireland at Apia, Jun 20, 2003
p337
aVSamoa v Ireland at Apia, Jun 20, 2003
p338
aVSouth Africa v Ireland at Cape Town, Jun 19, 2004
p339
aVIreland v South Africa at Lansdowne Road, Nov 13, 2004
p340
aVIreland v United States of America at Lansdowne Road, Nov 20, 2004
p341
aVIreland v United States of America at Lansdowne Road, Nov 20, 2004
p342
aVJapan v Ireland at Osaka, Jun 12, 2005
p343
aVJapan v Ireland at Osaka, Jun 12, 2005
p344
aVJapan v Ireland at Osaka, Jun 12, 2005
p345
aVJapan v Ireland at Osaka, Jun 12, 2005
p346
aVJapan v Ireland at Osaka, Jun 12, 2005
p347
aVJapan v Ireland at Osaka, Jun 12, 2005
p348
aVJapan v Ireland at Tokyo, Jun 19, 2005
p349
aVIreland v New Zealand at Lansdowne Road, Nov 12, 2005
p350
aVIreland v New Zealand at Lansdowne Road, Nov 12, 2005
p351
aVIreland v Australia at Lansdowne Road, Nov 19, 2005
p352
aVIreland v Romania at Lansdowne Road, Nov 26, 2005
p353
aVFrance v Ireland at Stade de France, Feb 11, 2006
p354
aVNew Zealand v Ireland at Auckland, Jun 17, 2006
p355
aVNew Zealand v Ireland at Auckland, Jun 17, 2006
p356
aVIreland v South Africa at Lansdowne Road, Nov 11, 2006
p357
aVIreland v Pacific Islanders at Lansdowne Road, Nov 26, 2006
p358
aVIreland v Pacific Islanders at Lansdowne Road, Nov 26, 2006
p359
aVIreland v Pacific Islanders at Lansdowne Road, Nov 26, 2006
p360
aVArgentina v Ireland at Santa Fe, May 26, 2007
p361
aVArgentina v Ireland at Santa Fe, May 26, 2007
p362
aVArgentina v Ireland at Santa Fe, May 26, 2007
p363
aVArgentina v Ireland at Santa Fe, May 26, 2007
p364
aVArgentina v Ireland at Buenos Aires, Jun 2, 2007
p365
aVArgentina v Ireland at Buenos Aires, Jun 2, 2007
p366
aVIreland v Canada at Limerick, Nov 8, 2008
p367
aVIreland v Argentina at Croke Park, Nov 22, 2008
p368
aVItaly v Ireland at Rome, Feb 15, 2009
p369
aVCanada v Ireland at Vancouver, May 23, 2009
p370
aVCanada v Ireland at Vancouver, May 23, 2009
p371
aVCanada v Ireland at Vancouver, May 23, 2009
p372
aVCanada v Ireland at Vancouver, May 23, 2009
p373
aVCanada v Ireland at Vancouver, May 23, 2009
p374
aVCanada v Ireland at Vancouver, May 23, 2009
p375
aVCanada v Ireland at Vancouver, May 23, 2009
p376
aVCanada v Ireland at Vancouver, May 23, 2009
p377
aVUnited States of America v Ireland at Santa Clara, May 31, 2009
p378
aVIreland v Australia at Croke Park, Nov 15, 2009
p379
aVIreland v Fiji at Dublin, Nov 21, 2009
p380
aVIreland v Fiji at Dublin, Nov 21, 2009
p381
aVIreland v Fiji at Dublin, Nov 21, 2009
p382
aVIreland v Italy at Croke Park, Feb 6, 2010
p383
aVNew Zealand v Ireland at New Plymouth, Jun 12, 2010
p384
aVNew Zealand v Ireland at New Plymouth, Jun 12, 2010
p385
aVAustralia v Ireland at Brisbane, Jun 26, 2010
p386
aVAustralia v Ireland at Brisbane, Jun 26, 2010
p387
aVAustralia v Ireland at Brisbane, Jun 26, 2010
p388
aVIreland v Samoa at Lansdowne Road, Nov 13, 2010
p389
aVItaly v Ireland at Rome, Feb 5, 2011
p390
aVScotland v Ireland at Murrayfield, Aug 6, 2011
p391
aVScotland v Ireland at Murrayfield, Aug 6, 2011
p392
aVFrance v Ireland at Bordeaux, Aug 13, 2011
p393
aVIreland v Italy at Lansdowne Road, Feb 25, 2012
p394
aVNew Zealand v Ireland at Auckland, Jun 9, 2012
p395
aVNew Zealand v Ireland at Auckland, Jun 9, 2012
p396
aVNew Zealand v Ireland at Auckland, Jun 9, 2012
p397
aVIreland v South Africa at Lansdowne Road, Nov 10, 2012
p398
aVIreland v South Africa at Lansdowne Road, Nov 10, 2012
p399
aVIreland v South Africa at Lansdowne Road, Nov 10, 2012
p400
aVIreland v South Africa at Lansdowne Road, Nov 10, 2012
p401
aVIreland v Argentina at Lansdowne Road, Nov 24, 2012
p402
aVScotland v Ireland at Murrayfield, Feb 24, 2013
p403
aVScotland v Ireland at Murrayfield, Feb 24, 2013
p404
aVIreland v France at Lansdowne Road, Mar 9, 2013
p405
aVItaly v Ireland at Rome, Mar 16, 2013
p406
aVItaly v Ireland at Rome, Mar 16, 2013
p407
aVUnited States of America v Ireland at Houston, Jun 8, 2013
p408
aVUnited States of America v Ireland at Houston, Jun 8, 2013
p409
aVUnited States of America v Ireland at Houston, Jun 8, 2013
p410
aVUnited States of America v Ireland at Houston, Jun 8, 2013
p411
aVUnited States of America v Ireland at Houston, Jun 8, 2013
p412
aVCanada v Ireland at Toronto, Jun 15, 2013
p413
aVIreland v Samoa at Lansdowne Road, Nov 9, 2013
p414
aVIreland v Samoa at Lansdowne Road, Nov 9, 2013
p415
aVIreland v Scotland at Lansdowne Road, Feb 2, 2014
p416
aVEngland v Ireland at Twickenham, Feb 22, 2014
p417
aVArgentina v Ireland at Resistencia, Jun 7, 2014
p418
aVArgentina v Ireland at Resistencia, Jun 7, 2014
p419
aVArgentina v Ireland at Resistencia, Jun 7, 2014
p420
aVArgentina v Ireland at Tucuman, Jun 14, 2014
p421
aVArgentina v Ireland at Tucuman, Jun 14, 2014
p422
aVArgentina v Ireland at Tucuman, Jun 14, 2014
p423
aVIreland v South Africa at Lansdowne Road, Nov 8, 2014
p424
aVIreland v Georgia at Lansdowne Road, Nov 16, 2014
p425
aVIreland v Georgia at Lansdowne Road, Nov 16, 2014
p426
aVIreland v Georgia at Lansdowne Road, Nov 16, 2014
p427
aVIreland v Scotland at Lansdowne Road, Aug 15, 2015
p428
aVIreland v Scotland at Lansdowne Road, Aug 15, 2015
p429
aVIreland v Wales at Lansdowne Road, Aug 29, 2015
p430
aVIreland v Wales at Lansdowne Road, Feb 7, 2016
p431
aVEngland v Ireland at Twickenham, Feb 27, 2016
p432
aVEngland v Ireland at Twickenham, Feb 27, 2016
p433
aVEngland v Ireland at Twickenham, Feb 27, 2016
p434
aVIreland v Italy at Lansdowne Road, Mar 12, 2016
p435
aVSouth Africa v Ireland at Johannesburg, Jun 18, 2016
p436
aVSouth Africa v Ireland at Johannesburg, Jun 18, 2016
p437
aVSouth Africa v Ireland at Johannesburg, Jun 18, 2016
p438
aVSouth Africa v Ireland at Port Elizabeth, Jun 25, 2016
p439
aVIreland v New Zealand at Chicago, Nov 5, 2016
p440
aVIreland v Canada at Lansdowne Road, Nov 12, 2016
p441
aVIreland v Canada at Lansdowne Road, Nov 12, 2016
p442
aVIreland v Canada at Lansdowne Road, Nov 12, 2016
p443
aVIreland v Canada at Lansdowne Road, Nov 12, 2016
p444
aVIreland v Canada at Lansdowne Road, Nov 12, 2016
p445
aVIreland v Canada at Lansdowne Road, Nov 12, 2016
p446
aVIreland v Canada at Lansdowne Road, Nov 12, 2016
p447
aVIreland v Canada at Lansdowne Road, Nov 12, 2016
p448
aVItaly v Ireland at Rome, Feb 11, 2017
p449
aVIreland v England at Lansdowne Road, Mar 18, 2017
p450
aVWales v Scotland at Millennium Stadium, Mar 18, 2000
p451
aVIreland v Wales at Lansdowne Road, Apr 1, 2000
p452
aVWales v Samoa at Millennium Stadium, Nov 11, 2000
p453
aVWales v Samoa at Millennium Stadium, Nov 11, 2000
p454
aVWales v Samoa at Millennium Stadium, Nov 11, 2000
p455
aVWales v England at Millennium Stadium, Feb 3, 2001
p456
aVItaly v Wales at Rome, Apr 8, 2001
p457
aVJapan v Wales at Osaka, Jun 10, 2001
p458
aVJapan v Wales at Osaka, Jun 10, 2001
p459
aVJapan v Wales at Osaka, Jun 10, 2001
p460
aVJapan v Wales at Osaka, Jun 10, 2001
p461
aVJapan v Wales at Osaka, Jun 10, 2001
p462
aVJapan v Wales at Osaka, Jun 10, 2001
p463
aVJapan v Wales at Osaka, Jun 10, 2001
p464
aVJapan v Wales at Tokyo, Jun 17, 2001
p465
aVJapan v Wales at Tokyo, Jun 17, 2001
p466
aVWales v Argentina at Millennium Stadium, Nov 10, 2001
p467
aVWales v Argentina at Millennium Stadium, Nov 10, 2001
p468
aVWales v Australia at Millennium Stadium, Nov 25, 2001
p469
aVIreland v Wales at Lansdowne Road, Feb 3, 2002
p470
aVIreland v Wales at Lansdowne Road, Feb 3, 2002
p471
aVSouth Africa v Wales at Bloemfontein, Jun 8, 2002
p472
aVSouth Africa v Wales at Bloemfontein, Jun 8, 2002
p473
aVSouth Africa v Wales at Bloemfontein, Jun 8, 2002
p474
aVSouth Africa v Wales at Bloemfontein, Jun 8, 2002
p475
aVSouth Africa v Wales at Bloemfontein, Jun 8, 2002
p476
aVSouth Africa v Wales at Cape Town, Jun 15, 2002
p477
aVWales v Romania at Wrexham, Nov 1, 2002
p478
aVWales v Romania at Wrexham, Nov 1, 2002
p479
aVWales v Fiji at Millennium Stadium, Nov 9, 2002
p480
aVWales v Canada at Millennium Stadium, Nov 16, 2002
p481
aVItaly v Wales at Rome, Feb 15, 2003
p482
aVItaly v Wales at Rome, Feb 15, 2003
p483
aVItaly v Wales at Rome, Feb 15, 2003
p484
aVAustralia v Wales at Sydney, Jun 14, 2003
p485
aVAustralia v Wales at Sydney, Jun 14, 2003
p486
aVIreland v Wales at Lansdowne Road, Aug 16, 2003
p487
aVIreland v Wales at Lansdowne Road, Aug 16, 2003
p488
aVIreland v Wales at Lansdowne Road, Aug 16, 2003
p489
aVWales v England at Millennium Stadium, Aug 23, 2003
p490
aVWales v Romania at Wrexham, Aug 27, 2003
p491
aVWales v Romania at Wrexham, Aug 27, 2003
p492
aVWales v Romania at Wrexham, Aug 27, 2003
p493
aVWales v Romania at Wrexham, Aug 27, 2003
p494
aVWales v Romania at Wrexham, Aug 27, 2003
p495
aVWales v Romania at Wrexham, Aug 27, 2003
p496
aVWales v Romania at Wrexham, Aug 27, 2003
p497
aVWales v Romania at Wrexham, Aug 27, 2003
p498
aVWales v Scotland at Millennium Stadium, Aug 30, 2003
p499
aVArgentina v Wales at Tucuman, Jun 12, 2004
p500
aVWales v South Africa at Millennium Stadium, Nov 6, 2004
p501
aVWales v South Africa at Millennium Stadium, Nov 6, 2004
p502
aVWales v England at Millennium Stadium, Feb 5, 2005
p503
aVItaly v Wales at Rome, Feb 12, 2005
p504
aVUnited States of America v Wales at Hartford, Jun 4, 2005
p505
aVUnited States of America v Wales at Hartford, Jun 4, 2005
p506
aVUnited States of America v Wales at Hartford, Jun 4, 2005
p507
aVUnited States of America v Wales at Hartford, Jun 4, 2005
p508
aVUnited States of America v Wales at Hartford, Jun 4, 2005
p509
aVCanada v Wales at Toronto, Jun 11, 2005
p510
aVCanada v Wales at Toronto, Jun 11, 2005
p511
aVWales v New Zealand at Millennium Stadium, Nov 5, 2005
p512
aVWales v New Zealand at Millennium Stadium, Nov 5, 2005
p513
aVEngland v Wales at Twickenham, Feb 4, 2006
p514
aVWales v Scotland at Millennium Stadium, Feb 12, 2006
p515
aVIreland v Wales at Lansdowne Road, Feb 26, 2006
p516
aVArgentina v Wales at Puerto Madryn, Jun 11, 2006
p517
aVArgentina v Wales at Puerto Madryn, Jun 11, 2006
p518
aVArgentina v Wales at Puerto Madryn, Jun 11, 2006
p519
aVArgentina v Wales at Puerto Madryn, Jun 11, 2006
p520
aVArgentina v Wales at Buenos Aires, Jun 17, 2006
p521
aVWales v Pacific Islanders at Millennium Stadium, Nov 11, 2006
p522
aVWales v Ireland at Millennium Stadium, Feb 4, 2007
p523
aVAustralia v Wales at Sydney, May 26, 2007
p524
aVAustralia v Wales at Brisbane, Jun 2, 2007
p525
aVEngland v Wales at Twickenham, Aug 4, 2007
p526
aVEngland v Wales at Twickenham, Aug 4, 2007
p527
aVWales v South Africa at Millennium Stadium, Nov 24, 2007
p528
aVWales v Scotland at Millennium Stadium, Feb 9, 2008
p529
aVSouth Africa v Wales at Bloemfontein, Jun 7, 2008
p530
aVSouth Africa v Wales at Pretoria, Jun 14, 2008
p531
aVWales v South Africa at Millennium Stadium, Nov 8, 2008
p532
aVWales v South Africa at Millennium Stadium, Nov 8, 2008
p533
aVWales v Canada at Millennium Stadium, Nov 14, 2008
p534
aVWales v Canada at Millennium Stadium, Nov 14, 2008
p535
aVWales v Canada at Millennium Stadium, Nov 14, 2008
p536
aVScotland v Wales at Murrayfield, Feb 8, 2009
p537
aVCanada v Wales at Toronto, May 30, 2009
p538
aVCanada v Wales at Toronto, May 30, 2009
p539
aVCanada v Wales at Toronto, May 30, 2009
p540
aVCanada v Wales at Toronto, May 30, 2009
p541
aVUnited States of America v Wales at Chicago, Jun 6, 2009
p542
aVWales v Argentina at Millennium Stadium, Nov 21, 2009
p543
aVEngland v Wales at Twickenham, Feb 6, 2010
p544
aVIreland v Wales at Croke Park, Mar 13, 2010
p545
aVWales v Italy at Millennium Stadium, Mar 20, 2010
p546
aVWales v South Africa at Millennium Stadium, Jun 5, 2010
p547
aVNew Zealand v Wales at Dunedin, Jun 19, 2010
p548
aVNew Zealand v Wales at Hamilton, Jun 26, 2010
p549
aVWales v South Africa at Millennium Stadium, Nov 13, 2010
p550
aVScotland v Wales at Murrayfield, Feb 12, 2011
p551
aVScotland v Wales at Murrayfield, Feb 12, 2011
p552
aVWales v Barbarians at Millennium Stadium, Jun 4, 2011
p553
aVWales v Barbarians at Millennium Stadium, Jun 4, 2011
p554
aVWales v Barbarians at Millennium Stadium, Jun 4, 2011
p555
aVWales v Barbarians at Millennium Stadium, Jun 4, 2011
p556
aVWales v Barbarians at Millennium Stadium, Jun 4, 2011
p557
aVWales v Argentina at Millennium Stadium, Aug 20, 2011
p558
aVWales v Argentina at Millennium Stadium, Aug 20, 2011
p559
aVNamibia v Wales at New Plymouth, Sep 26, 2011
p560
aVWales v Australia at Millennium Stadium, Dec 3, 2011
p561
aVWales v Scotland at Millennium Stadium, Feb 12, 2012
p562
aVWales v Scotland at Millennium Stadium, Feb 12, 2012
p563
aVWales v Italy at Millennium Stadium, Mar 10, 2012
p564
aVWales v Barbarians at Millennium Stadium, Jun 2, 2012
p565
aVWales v Barbarians at Millennium Stadium, Jun 2, 2012
p566
aVWales v Barbarians at Millennium Stadium, Jun 2, 2012
p567
aVWales v Barbarians at Millennium Stadium, Jun 2, 2012
p568
aVAustralia v Wales at Brisbane, Jun 9, 2012
p569
aVWales v Argentina at Millennium Stadium, Nov 10, 2012
p570
aVWales v Ireland at Millennium Stadium, Feb 2, 2013
p571
aVWales v Ireland at Millennium Stadium, Feb 2, 2013
p572
aVJapan v Wales at Osaka, Jun 8, 2013
p573
aVJapan v Wales at Osaka, Jun 8, 2013
p574
aVJapan v Wales at Osaka, Jun 8, 2013
p575
aVJapan v Wales at Osaka, Jun 8, 2013
p576
aVJapan v Wales at Osaka, Jun 8, 2013
p577
aVJapan v Wales at Osaka, Jun 8, 2013
p578
aVJapan v Wales at Osaka, Jun 8, 2013
p579
aVJapan v Wales at Tokyo, Jun 15, 2013
p580
aVJapan v Wales at Tokyo, Jun 15, 2013
p581
aVWales v Argentina at Millennium Stadium, Nov 16, 2013
p582
aVWales v Argentina at Millennium Stadium, Nov 16, 2013
p583
aVWales v Tonga at Millennium Stadium, Nov 22, 2013
p584
aVWales v Tonga at Millennium Stadium, Nov 22, 2013
p585
aVIreland v Wales at Lansdowne Road, Feb 8, 2014
p586
aVSouth Africa v Wales at Durban, Jun 14, 2014
p587
aVSouth Africa v Wales at Durban, Jun 14, 2014
p588
aVWales v Fiji at Millennium Stadium, Nov 15, 2014
p589
aVWales v Ireland at Millennium Stadium, Mar 14, 2015
p590
aVWales v Ireland at Millennium Stadium, Aug 8, 2015
p591
aVWales v Ireland at Millennium Stadium, Aug 8, 2015
p592
aVWales v Ireland at Millennium Stadium, Aug 8, 2015
p593
aVWales v Ireland at Millennium Stadium, Aug 8, 2015
p594
aVWales v Ireland at Millennium Stadium, Aug 8, 2015
p595
aVWales v Ireland at Millennium Stadium, Aug 8, 2015
p596
aVIreland v Wales at Lansdowne Road, Aug 29, 2015
p597
aVNew Zealand v Wales at Auckland, Jun 11, 2016
p598
aVWales v Australia at Millennium Stadium, Nov 5, 2016
p599
aVWales v Australia at Millennium Stadium, Nov 5, 2016
p600
aVSouth Africa v Wales at Bloemfontein, Jun 8, 2002
p601
aVSouth Africa v Wales at Cape Town, Jun 15, 2002
p602
aVSouth Africa v Wales at Cape Town, Jun 15, 2002
p603
aVSouth Africa v Wales at Cape Town, Jun 15, 2002
p604
aVSouth Africa v Argentina at Springs, Jun 29, 2002
p605
aVSouth Africa v Samoa at Pretoria, Jul 6, 2002
p606
aVSouth Africa v Samoa at Pretoria, Jul 6, 2002
p607
aVSouth Africa v Samoa at Pretoria, Jul 6, 2002
p608
aVAustralia v South Africa at Brisbane, Jul 27, 2002
p609
aVFrance v South Africa at Marseille, Nov 9, 2002
p610
aVFrance v South Africa at Marseille, Nov 9, 2002
p611
aVFrance v South Africa at Marseille, Nov 9, 2002
p612
aVFrance v South Africa at Marseille, Nov 9, 2002
p613
aVFrance v South Africa at Marseille, Nov 9, 2002
p614
aVScotland v South Africa at Murrayfield, Nov 16, 2002
p615
aVScotland v South Africa at Murrayfield, Nov 16, 2002
p616
aVScotland v South Africa at Murrayfield, Nov 16, 2002
p617
aVScotland v South Africa at Murrayfield, Nov 16, 2002
p618
aVEngland v South Africa at Twickenham, Nov 23, 2002
p619
aVSouth Africa v Scotland at Durban, Jun 7, 2003
p620
aVSouth Africa v Scotland at Durban, Jun 7, 2003
p621
aVSouth Africa v Scotland at Durban, Jun 7, 2003
p622
aVSouth Africa v Scotland at Durban, Jun 7, 2003
p623
aVSouth Africa v Scotland at Durban, Jun 7, 2003
p624
aVSouth Africa v Scotland at Johannesburg, Jun 14, 2003
p625
aVSouth Africa v Australia at Cape Town, Jul 12, 2003
p626
aVAustralia v South Africa at Brisbane, Aug 2, 2003
p627
aVNew Zealand v South Africa at Dunedin, Aug 9, 2003
p628
aVNew Zealand v South Africa at Dunedin, Aug 9, 2003
p629
aVSouth Africa v Uruguay at Perth, Oct 11, 2003
p630
aVSouth Africa v Uruguay at Perth, Oct 11, 2003
p631
aVSouth Africa v Uruguay at Perth, Oct 11, 2003
p632
aVGeorgia v South Africa at Sydney, Oct 24, 2003
p633
aVSouth Africa v Ireland at Bloemfontein, Jun 12, 2004
p634
aVSouth Africa v Ireland at Bloemfontein, Jun 12, 2004
p635
aVSouth Africa v Ireland at Bloemfontein, Jun 12, 2004
p636
aVSouth Africa v Ireland at Bloemfontein, Jun 12, 2004
p637
aVSouth Africa v Ireland at Bloemfontein, Jun 12, 2004
p638
aVSouth Africa v Wales at Pretoria, Jun 26, 2004
p639
aVWales v South Africa at Millennium Stadium, Nov 6, 2004
p640
aVWales v South Africa at Millennium Stadium, Nov 6, 2004
p641
aVEngland v South Africa at Twickenham, Nov 20, 2004
p642
aVScotland v South Africa at Murrayfield, Nov 27, 2004
p643
aVScotland v South Africa at Murrayfield, Nov 27, 2004
p644
aVSouth Africa v Uruguay at East London, Jun 11, 2005
p645
aVSouth Africa v Uruguay at East London, Jun 11, 2005
p646
aVSouth Africa v Australia at Pretoria, Jul 30, 2005
p647
aVWales v South Africa at Millennium Stadium, Nov 19, 2005
p648
aVSouth Africa v Scotland at Durban, Jun 10, 2006
p649
aVSouth Africa v Scotland at Durban, Jun 10, 2006
p650
aVAustralia v South Africa at Brisbane, Jul 15, 2006
p651
aVAustralia v South Africa at Brisbane, Jul 15, 2006
p652
aVSouth Africa v New Zealand at Pretoria, Aug 26, 2006
p653
aVSouth Africa v New Zealand at Pretoria, Aug 26, 2006
p654
aVSouth Africa v New Zealand at Pretoria, Aug 26, 2006
p655
aVSouth Africa v Australia at Johannesburg, Sep 9, 2006
p656
aVIreland v South Africa at Lansdowne Road, Nov 11, 2006
p657
aVIreland v South Africa at Lansdowne Road, Nov 11, 2006
p658
aVIreland v South Africa at Lansdowne Road, Nov 11, 2006
p659
aVEngland v South Africa at Twickenham, Nov 18, 2006
p660
aVEngland v South Africa at Twickenham, Nov 25, 2006
p661
aVSouth Africa v Samoa at Johannesburg, Jun 9, 2007
p662
aVSouth Africa v Samoa at Johannesburg, Jun 9, 2007
p663
aVAustralia v South Africa at Sydney, Jul 7, 2007
p664
aVAustralia v South Africa at Sydney, Jul 7, 2007
p665
aVAustralia v South Africa at Sydney, Jul 7, 2007
p666
aVWales v South Africa at Millennium Stadium, Nov 24, 2007
p667
aVWales v South Africa at Millennium Stadium, Nov 24, 2007
p668
aVSouth Africa v Wales at Bloemfontein, Jun 7, 2008
p669
aVSouth Africa v Wales at Bloemfontein, Jun 7, 2008
p670
aVSouth Africa v Wales at Pretoria, Jun 14, 2008
p671
aVSouth Africa v Italy at Cape Town, Jun 21, 2008
p672
aVSouth Africa v Italy at Cape Town, Jun 21, 2008
p673
aVAustralia v South Africa at Perth, Jul 19, 2008
p674
aVSouth Africa v Argentina at Johannesburg, Aug 9, 2008
p675
aVEngland v South Africa at Twickenham, Nov 22, 2008
p676
aVSouth Africa v British and Irish Lions at Durban, Jun 20, 2009
p677
aVSouth Africa v British and Irish Lions at Johannesburg, Jul 4, 2009
p678
aVItaly v South Africa at Udine, Nov 21, 2009
p679
aVItaly v South Africa at Udine, Nov 21, 2009
p680
aVItaly v South Africa at Udine, Nov 21, 2009
p681
aVIreland v South Africa at Croke Park, Nov 28, 2009
p682
aVWales v South Africa at Millennium Stadium, Jun 5, 2010
p683
aVWales v South Africa at Millennium Stadium, Jun 5, 2010
p684
aVWales v South Africa at Millennium Stadium, Jun 5, 2010
p685
aVWales v South Africa at Millennium Stadium, Jun 5, 2010
p686
aVWales v South Africa at Millennium Stadium, Jun 5, 2010
p687
aVSouth Africa v France at Cape Town, Jun 12, 2010
p688
aVSouth Africa v Italy at Witbank, Jun 19, 2010
p689
aVIreland v South Africa at Lansdowne Road, Nov 6, 2010
p690
aVIreland v South Africa at Lansdowne Road, Nov 6, 2010
p691
aVIreland v South Africa at Lansdowne Road, Nov 6, 2010
p692
aVWales v South Africa at Millennium Stadium, Nov 13, 2010
p693
aVScotland v South Africa at Murrayfield, Nov 20, 2010
p694
aVAustralia v South Africa at Sydney, Jul 23, 2011
p695
aVAustralia v South Africa at Sydney, Jul 23, 2011
p696
aVAustralia v South Africa at Sydney, Jul 23, 2011
p697
aVNew Zealand v South Africa at Wellington, Jul 30, 2011
p698
aVNew Zealand v South Africa at Wellington, Jul 30, 2011
p699
aVSouth Africa v England at Durban, Jun 9, 2012
p700
aVSouth Africa v England at Durban, Jun 9, 2012
p701
aVSouth Africa v England at Durban, Jun 9, 2012
p702
aVSouth Africa v England at Durban, Jun 9, 2012
p703
aVSouth Africa v England at Port Elizabeth, Jun 23, 2012
p704
aVSouth Africa v Argentina at Cape Town, Aug 18, 2012
p705
aVSouth Africa v Argentina at Cape Town, Aug 18, 2012
p706
aVArgentina v South Africa at Mendoza, Aug 25, 2012
p707
aVAustralia v South Africa at Perth, Sep 8, 2012
p708
aVAustralia v South Africa at Perth, Sep 8, 2012
p709
aVSouth Africa v Australia at Pretoria, Sep 29, 2012
p710
aVSouth Africa v Australia at Pretoria, Sep 29, 2012
p711
aVSouth Africa v Italy at Durban, Jun 8, 2013
p712
aVSouth Africa v Italy at Durban, Jun 8, 2013
p713
aVSouth Africa v Italy at Durban, Jun 8, 2013
p714
aVSouth Africa v Italy at Durban, Jun 8, 2013
p715
aVSouth Africa v Italy at Durban, Jun 8, 2013
p716
aVSouth Africa v Scotland at Nelspruit, Jun 15, 2013
p717
aVSouth Africa v Scotland at Nelspruit, Jun 15, 2013
p718
aVSouth Africa v New Zealand at Johannesburg, Oct 5, 2013
p719
aVWales v South Africa at Millennium Stadium, Nov 9, 2013
p720
aVWales v South Africa at Millennium Stadium, Nov 9, 2013
p721
aVFrance v South Africa at Stade de France, Nov 23, 2013
p722
aVSouth Africa v Wales at Durban, Jun 14, 2014
p723
aVSouth Africa v Wales at Durban, Jun 14, 2014
p724
aVSouth Africa v Scotland at Port Elizabeth, Jun 28, 2014
p725
aVSouth Africa v Scotland at Port Elizabeth, Jun 28, 2014
p726
aVSouth Africa v Scotland at Port Elizabeth, Jun 28, 2014
p727
aVSouth Africa v Scotland at Port Elizabeth, Jun 28, 2014
p728
aVSouth Africa v Scotland at Port Elizabeth, Jun 28, 2014
p729
aVSouth Africa v Argentina at Pretoria, Aug 16, 2014
p730
aVAustralia v South Africa at Perth, Sep 6, 2014
p731
aVSouth Africa v Australia at Cape Town, Sep 27, 2014
p732
aVItaly v South Africa at Padova, Nov 22, 2014
p733
aVItaly v South Africa at Padova, Nov 22, 2014
p734
aVAustralia v South Africa at Brisbane, Jul 18, 2015
p735
aVSouth Africa v New Zealand at Johannesburg, Jul 25, 2015
p736
aVSouth Africa v New Zealand at Johannesburg, Jul 25, 2015
p737
aVSouth Africa v United States of America at London, Oct 7, 2015
p738
aVSouth Africa v Ireland at Cape Town, Jun 11, 2016
p739
aVSouth Africa v Ireland at Johannesburg, Jun 18, 2016
p740
aVSouth Africa v Ireland at Johannesburg, Jun 18, 2016
p741
aVSouth Africa v Ireland at Port Elizabeth, Jun 25, 2016
p742
aVSouth Africa v Ireland at Port Elizabeth, Jun 25, 2016
p743
aVSouth Africa v Ireland at Port Elizabeth, Jun 25, 2016
p744
aVNew Zealand v South Africa at Christchurch, Sep 17, 2016
p745
aVEngland v South Africa at Twickenham, Nov 12, 2016
p746
aVWales v South Africa at Millennium Stadium, Nov 26, 2016
p747
aVWales v South Africa at Millennium Stadium, Nov 26, 2016
p748
aVWales v South Africa at Millennium Stadium, Nov 26, 2016
p749
aVWales v South Africa at Millennium Stadium, Nov 26, 2016
p750
aVAustralia v South Africa at Brisbane, Jul 17, 1999
p751
aVAustralia v New Zealand at Sydney, Aug 28, 1999
p752
aVAustralia v United States of America at Limerick, Oct 14, 1999
p753
aVAustralia v United States of America at Limerick, Oct 14, 1999
p754
aVAustralia v Argentina at Brisbane, Jun 17, 2000
p755
aVAustralia v Argentina at Brisbane, Jun 17, 2000
p756
aVAustralia v Argentina at Brisbane, Jun 17, 2000
p757
aVAustralia v Argentina at Brisbane, Jun 17, 2000
p758
aVAustralia v South Africa at Melbourne, Jul 8, 2000
p759
aVAustralia v New Zealand at Sydney, Jul 15, 2000
p760
aVFrance v Australia at Stade de France, Nov 4, 2000
p761
aVFrance v Australia at Stade de France, Nov 4, 2000
p762
aVEngland v Australia at Twickenham, Nov 18, 2000
p763
aVAustralia v British and Irish Lions at Brisbane, Jun 30, 2001
p764
aVAustralia v British and Irish Lions at Brisbane, Jun 30, 2001
p765
aVAustralia v British and Irish Lions at Melbourne, Jul 7, 2001
p766
aVAustralia v British and Irish Lions at Sydney, Jul 14, 2001
p767
aVAustralia v South Africa at Perth, Aug 18, 2001
p768
aVWales v Australia at Millennium Stadium, Nov 25, 2001
p769
aVAustralia v France at Melbourne, Jun 22, 2002
p770
aVAustralia v France at Melbourne, Jun 22, 2002
p771
aVAustralia v France at Melbourne, Jun 22, 2002
p772
aVAustralia v France at Sydney, Jun 29, 2002
p773
aVAustralia v France at Sydney, Jun 29, 2002
p774
aVArgentina v Australia at Buenos Aires, Nov 2, 2002
p775
aVArgentina v Australia at Buenos Aires, Nov 2, 2002
p776
aVEngland v Australia at Twickenham, Nov 16, 2002
p777
aVItaly v Australia at Genova, Nov 23, 2002
p778
aVAustralia v Ireland at Perth, Jun 7, 2003
p779
aVAustralia v Ireland at Perth, Jun 7, 2003
p780
aVAustralia v Wales at Sydney, Jun 14, 2003
p781
aVNew Zealand v Australia at Auckland, Aug 16, 2003
p782
aVAustralia v Namibia at Adelaide, Oct 25, 2003
p783
aVAustralia v Namibia at Adelaide, Oct 25, 2003
p784
aVAustralia v Scotland at Melbourne, Jun 13, 2004
p785
aVAustralia v Scotland at Melbourne, Jun 13, 2004
p786
aVAustralia v England at Brisbane, Jun 26, 2004
p787
aVAustralia v Pacific Islanders at Adelaide, Jul 3, 2004
p788
aVScotland v Australia at Murrayfield, Nov 6, 2004
p789
aVScotland v Australia at Glasgow, Nov 20, 2004
p790
aVAustralia v Samoa at Sydney, Jun 11, 2005
p791
aVAustralia v Samoa at Sydney, Jun 11, 2005
p792
aVAustralia v Samoa at Sydney, Jun 11, 2005
p793
aVAustralia v Italy at Melbourne, Jun 25, 2005
p794
aVAustralia v France at Brisbane, Jul 2, 2005
p795
aVAustralia v South Africa at Sydney, Jul 9, 2005
p796
aVAustralia v South Africa at Perth, Aug 20, 2005
p797
aVNew Zealand v Australia at Auckland, Sep 3, 2005
p798
aVNew Zealand v Australia at Auckland, Sep 3, 2005
p799
aVNew Zealand v Australia at Auckland, Sep 3, 2005
p800
aVFrance v Australia at Marseille, Nov 5, 2005
p801
aVEngland v Australia at Twickenham, Nov 12, 2005
p802
aVEngland v Australia at Twickenham, Nov 12, 2005
p803
aVIreland v Australia at Lansdowne Road, Nov 19, 2005
p804
aVAustralia v England at Sydney, Jun 11, 2006
p805
aVAustralia v England at Sydney, Jun 11, 2006
p806
aVAustralia v England at Sydney, Jun 11, 2006
p807
aVAustralia v England at Sydney, Jun 11, 2006
p808
aVAustralia v England at Melbourne, Jun 17, 2006
p809
aVAustralia v Ireland at Perth, Jun 24, 2006
p810
aVSouth Africa v Australia at Johannesburg, Sep 9, 2006
p811
aVSouth Africa v Australia at Johannesburg, Sep 9, 2006
p812
aVAustralia v Wales at Sydney, May 26, 2007
p813
aVAustralia v Wales at Sydney, May 26, 2007
p814
aVAustralia v Wales at Brisbane, Jun 2, 2007
p815
aVAustralia v Fiji at Perth, Jun 9, 2007
p816
aVAustralia v Japan at Lyon, Sep 8, 2007
p817
aVAustralia v Ireland at Melbourne, Jun 14, 2008
p818
aVAustralia v Ireland at Melbourne, Jun 14, 2008
p819
aVAustralia v Ireland at Melbourne, Jun 14, 2008
p820
aVAustralia v France at Sydney, Jun 28, 2008
p821
aVAustralia v France at Sydney, Jun 28, 2008
p822
aVAustralia v France at Brisbane, Jul 5, 2008
p823
aVAustralia v New Zealand at Sydney, Jul 26, 2008
p824
aVAustralia v New Zealand at Brisbane, Sep 13, 2008
p825
aVAustralia v New Zealand at Hong Kong, Nov 1, 2008
p826
aVItaly v Australia at Padova, Nov 8, 2008
p827
aVItaly v Australia at Padova, Nov 8, 2008
p828
aVItaly v Australia at Padova, Nov 8, 2008
p829
aVAustralia v Italy at Canberra, Jun 13, 2009
p830
aVAustralia v Italy at Melbourne, Jun 20, 2009
p831
aVNew Zealand v Australia at Auckland, Jul 18, 2009
p832
aVWales v Australia at Millennium Stadium, Nov 28, 2009
p833
aVAustralia v Fiji at Canberra, Jun 5, 2010
p834
aVAustralia v Fiji at Canberra, Jun 5, 2010
p835
aVAustralia v Fiji at Canberra, Jun 5, 2010
p836
aVAustralia v Fiji at Canberra, Jun 5, 2010
p837
aVAustralia v Fiji at Canberra, Jun 5, 2010
p838
aVAustralia v England at Perth, Jun 12, 2010
p839
aVAustralia v England at Perth, Jun 12, 2010
p840
aVAustralia v South Africa at Brisbane, Jul 24, 2010
p841
aVAustralia v South Africa at Brisbane, Jul 24, 2010
p842
aVAustralia v New Zealand at Melbourne, Jul 31, 2010
p843
aVItaly v Australia at Firenze, Nov 20, 2010
p844
aVFrance v Australia at Stade de France, Nov 27, 2010
p845
aVAustralia v Samoa at Sydney, Jul 17, 2011
p846
aVAustralia v Samoa at Sydney, Jul 17, 2011
p847
aVAustralia v Samoa at Sydney, Jul 17, 2011
p848
aVAustralia v Samoa at Sydney, Jul 17, 2011
p849
aVWales v Australia at Millennium Stadium, Dec 3, 2011
p850
aVAustralia v Scotland at Newcastle, Jun 5, 2012
p851
aVAustralia v Scotland at Newcastle, Jun 5, 2012
p852
aVAustralia v Scotland at Newcastle, Jun 5, 2012
p853
aVAustralia v Scotland at Newcastle, Jun 5, 2012
p854
aVAustralia v Scotland at Newcastle, Jun 5, 2012
p855
aVAustralia v Scotland at Newcastle, Jun 5, 2012
p856
aVAustralia v Wales at Brisbane, Jun 9, 2012
p857
aVNew Zealand v Australia at Auckland, Aug 25, 2012
p858
aVAustralia v South Africa at Perth, Sep 8, 2012
p859
aVAustralia v Argentina at Gold Coast, Sep 15, 2012
p860
aVArgentina v Australia at Rosario, Oct 6, 2012
p861
aVAustralia v New Zealand at Brisbane, Oct 20, 2012
p862
aVFrance v Australia at Stade de France, Nov 10, 2012
p863
aVAustralia v British and Irish Lions at Brisbane, Jun 22, 2013
p864
aVAustralia v British and Irish Lions at Brisbane, Jun 22, 2013
p865
aVAustralia v British and Irish Lions at Brisbane, Jun 22, 2013
p866
aVAustralia v British and Irish Lions at Sydney, Jul 6, 2013
p867
aVAustralia v New Zealand at Sydney, Aug 17, 2013
p868
aVAustralia v New Zealand at Sydney, Aug 17, 2013
p869
aVAustralia v New Zealand at Sydney, Aug 17, 2013
p870
aVAustralia v New Zealand at Sydney, Aug 17, 2013
p871
aVAustralia v New Zealand at Sydney, Aug 17, 2013
p872
aVSouth Africa v Australia at Cape Town, Sep 28, 2013
p873
aVArgentina v Australia at Rosario, Oct 5, 2013
p874
aVNew Zealand v Australia at Dunedin, Oct 19, 2013
p875
aVAustralia v France at Brisbane, Jun 7, 2014
p876
aVAustralia v France at Melbourne, Jun 14, 2014
p877
aVAustralia v France at Melbourne, Jun 14, 2014
p878
aVAustralia v France at Melbourne, Jun 14, 2014
p879
aVAustralia v France at Sydney, Jun 21, 2014
p880
aVArgentina v Australia at Mendoza, Oct 4, 2014
p881
aVArgentina v Australia at Mendoza, Oct 4, 2014
p882
aVWales v Australia at Millennium Stadium, Nov 8, 2014
p883
aVWales v Australia at Millennium Stadium, Nov 8, 2014
p884
aVIreland v Australia at Lansdowne Road, Nov 22, 2014
p885
aVUnited States of America v Australia at Chicago, Sep 5, 2015
p886
aVUnited States of America v Australia at Chicago, Sep 5, 2015
p887
aVAustralia v England at Brisbane, Jun 11, 2016
p888
aVAustralia v England at Brisbane, Jun 11, 2016
p889
aVAustralia v England at Brisbane, Jun 11, 2016
p890
aVAustralia v England at Brisbane, Jun 11, 2016
p891
aVAustralia v England at Sydney, Jun 25, 2016
p892
aVAustralia v New Zealand at Sydney, Aug 20, 2016
p893
aVNew Zealand v Australia at Wellington, Aug 27, 2016
p894
aVAustralia v Argentina at Perth, Sep 17, 2016
p895
aVAustralia v Argentina at Perth, Sep 17, 2016
p896
aVSouth Africa v Australia at Pretoria, Oct 1, 2016
p897
aVArgentina v Australia at Twickenham, Oct 8, 2016
p898
aVWales v Australia at Millennium Stadium, Nov 5, 2016
p899
aVFrance v Australia at Stade de France, Nov 19, 2016
p900
aVIreland v New Zealand at Lansdowne Road, Nov 17, 2001
p901
aVIreland v New Zealand at Lansdowne Road, Nov 17, 2001
p902
aVIreland v New Zealand at Lansdowne Road, Nov 17, 2001
p903
aVScotland v New Zealand at Murrayfield, Nov 24, 2001
p904
aVArgentina v New Zealand at Buenos Aires, Dec 1, 2001
p905
aVNew Zealand v Italy at Hamilton, Jun 8, 2002
p906
aVNew Zealand v Italy at Hamilton, Jun 8, 2002
p907
aVNew Zealand v Italy at Hamilton, Jun 8, 2002
p908
aVNew Zealand v Fiji at Wellington, Jun 29, 2002
p909
aVNew Zealand v South Africa at Wellington, Jul 20, 2002
p910
aVEngland v New Zealand at Twickenham, Nov 9, 2002
p911
aVEngland v New Zealand at Twickenham, Nov 9, 2002
p912
aVEngland v New Zealand at Twickenham, Nov 9, 2002
p913
aVEngland v New Zealand at Twickenham, Nov 9, 2002
p914
aVEngland v New Zealand at Twickenham, Nov 9, 2002
p915
aVEngland v New Zealand at Twickenham, Nov 9, 2002
p916
aVEngland v New Zealand at Twickenham, Nov 9, 2002
p917
aVWales v New Zealand at Millennium Stadium, Nov 23, 2002
p918
aVWales v New Zealand at Millennium Stadium, Nov 23, 2002
p919
aVWales v New Zealand at Millennium Stadium, Nov 23, 2002
p920
aVWales v New Zealand at Millennium Stadium, Nov 23, 2002
p921
aVWales v New Zealand at Millennium Stadium, Nov 23, 2002
p922
aVWales v New Zealand at Millennium Stadium, Nov 23, 2002
p923
aVNew Zealand v England at Wellington, Jun 14, 2003
p924
aVNew Zealand v England at Wellington, Jun 14, 2003
p925
aVNew Zealand v England at Wellington, Jun 14, 2003
p926
aVNew Zealand v Wales at Hamilton, Jun 21, 2003
p927
aVNew Zealand v Wales at Hamilton, Jun 21, 2003
p928
aVCanada v New Zealand at Melbourne, Oct 17, 2003
p929
aVNew Zealand v Tonga at Brisbane, Oct 24, 2003
p930
aVNew Zealand v England at Dunedin, Jun 12, 2004
p931
aVNew Zealand v England at Dunedin, Jun 12, 2004
p932
aVNew Zealand v England at Dunedin, Jun 12, 2004
p933
aVNew Zealand v England at Auckland, Jun 19, 2004
p934
aVNew Zealand v Argentina at Hamilton, Jun 26, 2004
p935
aVNew Zealand v Pacific Islanders at North Shore City, Jul 10, 2004
p936
aVItaly v New Zealand at Rome, Nov 13, 2004
p937
aVItaly v New Zealand at Rome, Nov 13, 2004
p938
aVItaly v New Zealand at Rome, Nov 13, 2004
p939
aVItaly v New Zealand at Rome, Nov 13, 2004
p940
aVWales v New Zealand at Millennium Stadium, Nov 20, 2004
p941
aVWales v New Zealand at Millennium Stadium, Nov 20, 2004
p942
aVNew Zealand v Fiji at North Shore City, Jun 10, 2005
p943
aVAustralia v Pacific Islanders at Adelaide, Jul 3, 2004
p944
aVNew Zealand v Fiji at North Shore City, Jun 10, 2005
p945
aVNew Zealand v Fiji at North Shore City, Jun 10, 2005
p946
aVNew Zealand v Fiji at North Shore City, Jun 10, 2005
p947
aVAustralia v Pacific Islanders at Adelaide, Jul 3, 2004
p948
aVNew Zealand v British and Irish Lions at Auckland, Jul 9, 2005
p949
aVNew Zealand v Australia at Auckland, Sep 3, 2005
p950
aVWales v New Zealand at Millennium Stadium, Nov 5, 2005
p951
aVWales v New Zealand at Millennium Stadium, Nov 5, 2005
p952
aVWales v New Zealand at Millennium Stadium, Nov 5, 2005
p953
aVIreland v New Zealand at Lansdowne Road, Nov 12, 2005
p954
aVIreland v New Zealand at Lansdowne Road, Nov 12, 2005
p955
aVScotland v New Zealand at Murrayfield, Nov 26, 2005
p956
aVNew Zealand v Ireland at Hamilton, Jun 10, 2006
p957
aVNew Zealand v Ireland at Hamilton, Jun 10, 2006
p958
aVNew Zealand v Ireland at Hamilton, Jun 10, 2006
p959
aVNew Zealand v Ireland at Auckland, Jun 17, 2006
p960
aVArgentina v New Zealand at Buenos Aires, Jun 24, 2006
p961
aVEngland v New Zealand at Twickenham, Nov 5, 2006
p962
aVNew Zealand v France at Auckland, Jun 2, 2007
p963
aVNew Zealand v Canada at Hamilton, Jun 16, 2007
p964
aVNew Zealand v Canada at Hamilton, Jun 16, 2007
p965
aVNew Zealand v Ireland at Wellington, Jun 7, 2008
p966
aVNew Zealand v Ireland at Wellington, Jun 7, 2008
p967
aVNew Zealand v England at Auckland, Jun 14, 2008
p968
aVNew Zealand v England at Auckland, Jun 14, 2008
p969
aVNew Zealand v England at Christchurch, Jun 21, 2008
p970
aVNew Zealand v England at Christchurch, Jun 21, 2008
p971
aVNew Zealand v South Africa at Dunedin, Jul 12, 2008
p972
aVAustralia v New Zealand at Hong Kong, Nov 1, 2008
p973
aVAustralia v New Zealand at Hong Kong, Nov 1, 2008
p974
aVScotland v New Zealand at Murrayfield, Nov 8, 2008
p975
aVScotland v New Zealand at Murrayfield, Nov 8, 2008
p976
aVScotland v New Zealand at Murrayfield, Nov 8, 2008
p977
aVNew Zealand v France at Dunedin, Jun 13, 2009
p978
aVNew Zealand v France at Dunedin, Jun 13, 2009
p979
aVNew Zealand v France at Dunedin, Jun 13, 2009
p980
aVNew Zealand v Italy at Christchurch, Jun 27, 2009
p981
aVNew Zealand v Italy at Christchurch, Jun 27, 2009
p982
aVNew Zealand v Italy at Christchurch, Jun 27, 2009
p983
aVNew Zealand v Italy at Christchurch, Jun 27, 2009
p984
aVNew Zealand v Italy at Christchurch, Jun 27, 2009
p985
aVNew Zealand v Australia at Wellington, Sep 19, 2009
p986
aVWales v New Zealand at Millennium Stadium, Nov 7, 2009
p987
aVItaly v New Zealand at Milan, Nov 14, 2009
p988
aVItaly v New Zealand at Milan, Nov 14, 2009
p989
aVItaly v New Zealand at Milan, Nov 14, 2009
p990
aVNew Zealand v Ireland at New Plymouth, Jun 12, 2010
p991
aVNew Zealand v Ireland at New Plymouth, Jun 12, 2010
p992
aVNew Zealand v Ireland at New Plymouth, Jun 12, 2010
p993
aVNew Zealand v Ireland at New Plymouth, Jun 12, 2010
p994
aVNew Zealand v Ireland at New Plymouth, Jun 12, 2010
p995
aVNew Zealand v Ireland at New Plymouth, Jun 12, 2010
p996
aVNew Zealand v Wales at Hamilton, Jun 26, 2010
p997
aVNew Zealand v Australia at Christchurch, Aug 7, 2010
p998
aVAustralia v New Zealand at Sydney, Sep 11, 2010
p999
aVEngland v New Zealand at Twickenham, Nov 6, 2010
p1000
aVScotland v New Zealand at Murrayfield, Nov 13, 2010
p1001
aVNew Zealand v Fiji at Dunedin, Jul 22, 2011
p1002
aVNew Zealand v Ireland at Auckland, Jun 9, 2012
p1003
aVNew Zealand v Ireland at Auckland, Jun 9, 2012
p1004
aVNew Zealand v Ireland at Auckland, Jun 9, 2012
p1005
aVNew Zealand v Ireland at Christchurch, Jun 16, 2012
p1006
aVNew Zealand v Ireland at Hamilton, Jun 23, 2012
p1007
aVNew Zealand v Ireland at Hamilton, Jun 23, 2012
p1008
aVNew Zealand v Argentina at Wellington, Sep 8, 2012
p1009
aVScotland v New Zealand at Murrayfield, Nov 11, 2012
p1010
aVScotland v New Zealand at Murrayfield, Nov 11, 2012
p1011
aVNew Zealand v France at Auckland, Jun 8, 2013
p1012
aVNew Zealand v France at Christchurch, Jun 15, 2013
p1013
aVNew Zealand v France at New Plymouth, Jun 22, 2013
p1014
aVNew Zealand v France at New Plymouth, Jun 22, 2013
p1015
aVNew Zealand v France at New Plymouth, Jun 22, 2013
p1016
aVAustralia v New Zealand at Sydney, Aug 17, 2013
p1017
aVNew Zealand v Australia at Wellington, Aug 24, 2013
p1018
aVNew Zealand v Argentina at Hamilton, Sep 7, 2013
p1019
aVJapan v New Zealand at Tokyo, Nov 2, 2013
p1020
aVJapan v New Zealand at Tokyo, Nov 2, 2013
p1021
aVJapan v New Zealand at Tokyo, Nov 2, 2013
p1022
aVJapan v New Zealand at Tokyo, Nov 2, 2013
p1023
aVNew Zealand v England at Auckland, Jun 7, 2014
p1024
aVNew Zealand v England at Auckland, Jun 7, 2014
p1025
aVNew Zealand v England at Dunedin, Jun 14, 2014
p1026
aVAustralia v New Zealand at Sydney, Aug 16, 2014
p1027
aVArgentina v New Zealand at La Plata, Sep 27, 2014
p1028
aVUnited States of America v New Zealand at Chicago, Nov 1, 2014
p1029
aVScotland v New Zealand at Murrayfield, Nov 15, 2014
p1030
aVSamoa v New Zealand at Apia, Jul 8, 2015
p1031
aVSamoa v New Zealand at Apia, Jul 8, 2015
p1032
aVSamoa v New Zealand at Apia, Jul 8, 2015
p1033
aVSamoa v New Zealand at Apia, Jul 8, 2015
p1034
aVNew Zealand v Argentina at Christchurch, Jul 17, 2015
p1035
aVNew Zealand v Argentina at Christchurch, Jul 17, 2015
p1036
aVSouth Africa v New Zealand at Johannesburg, Jul 25, 2015
p1037
aVSouth Africa v New Zealand at Johannesburg, Jul 25, 2015
p1038
aVAustralia v New Zealand at Sydney, Aug 8, 2015
p1039
aVNew Zealand v Wales at Auckland, Jun 11, 2016
p1040
aVNew Zealand v Wales at Auckland, Jun 11, 2016
p1041
aVNew Zealand v Wales at Dunedin, Jun 25, 2016
p1042
aVNew Zealand v Wales at Dunedin, Jun 25, 2016
p1043
aVNew Zealand v Wales at Dunedin, Jun 25, 2016
p1044
aVAustralia v New Zealand at Sydney, Aug 20, 2016
p1045
aVNew Zealand v Australia at Wellington, Aug 27, 2016
p1046
aVArgentina v New Zealand at Buenos Aires, Oct 1, 2016
p1047
aVIreland v New Zealand at Chicago, Nov 5, 2016
p1048
aVItaly v New Zealand at Rome, Nov 12, 2016
p1049
aVItaly v New Zealand at Rome, Nov 12, 2016
p1050
aVUnited States of America v France at Hartford, Jul 3, 2004
p1051
aVUnited States of America v France at Hartford, Jul 3, 2004
p1052
aVUnited States of America v France at Hartford, Jul 3, 2004
p1053
aVUnited States of America v France at Hartford, Jul 3, 2004
p1054
aVUnited States of America v France at Hartford, Jul 3, 2004
p1055
aVUnited States of America v France at Hartford, Jul 3, 2004
p1056
aVCanada v France at Toronto, Jul 10, 2004
p1057
aVCanada v France at Toronto, Jul 10, 2004
p1058
aVCanada v France at Toronto, Jul 10, 2004
p1059
aVCanada v France at Toronto, Jul 10, 2004
p1060
aVFrance v Scotland at Stade de France, Feb 5, 2005
p1061
aVEngland v France at Twickenham, Feb 13, 2005
p1062
aVFrance v Wales at Stade de France, Feb 26, 2005
p1063
aVIreland v France at Lansdowne Road, Mar 12, 2005
p1064
aVItaly v France at Rome, Mar 19, 2005
p1065
aVSouth Africa v France at Durban, Jun 18, 2005
p1066
aVSouth Africa v France at Durban, Jun 18, 2005
p1067
aVSouth Africa v France at Durban, Jun 18, 2005
p1068
aVAustralia v France at Brisbane, Jul 2, 2005
p1069
aVScotland v France at Murrayfield, Feb 5, 2006
p1070
aVFrance v Ireland at Stade de France, Feb 11, 2006
p1071
aVRomania v France at Bucharest, Jun 17, 2006
p1072
aVRomania v France at Bucharest, Jun 17, 2006
p1073
aVRomania v France at Bucharest, Jun 17, 2006
p1074
aVFrance v New Zealand at Stade de France, Nov 18, 2006
p1075
aVItaly v France at Rome, Feb 3, 2007
p1076
aVFrance v Wales at Stade de France, Feb 24, 2007
p1077
aVNew Zealand v France at Auckland, Jun 2, 2007
p1078
aVNew Zealand v France at Auckland, Jun 2, 2007
p1079
aVNew Zealand v France at Auckland, Jun 2, 2007
p1080
aVNew Zealand v France at Auckland, Jun 2, 2007
p1081
aVNew Zealand v France at Auckland, Jun 2, 2007
p1082
aVNew Zealand v France at Auckland, Jun 2, 2007
p1083
aVNew Zealand v France at Auckland, Jun 2, 2007
p1084
aVNew Zealand v France at Auckland, Jun 2, 2007
p1085
aVNew Zealand v France at Auckland, Jun 2, 2007
p1086
aVNew Zealand v France at Auckland, Jun 2, 2007
p1087
aVNew Zealand v France at Auckland, Jun 2, 2007
p1088
aVNew Zealand v France at Wellington, Jun 9, 2007
p1089
aVNew Zealand v France at Wellington, Jun 9, 2007
p1090
aVNew Zealand v France at Wellington, Jun 9, 2007
p1091
aVScotland v France at Murrayfield, Feb 3, 2008
p1092
aVScotland v France at Murrayfield, Feb 3, 2008
p1093
aVScotland v France at Murrayfield, Feb 3, 2008
p1094
aVScotland v France at Murrayfield, Feb 3, 2008
p1095
aVScotland v France at Murrayfield, Feb 3, 2008
p1096
aVScotland v France at Murrayfield, Feb 3, 2008
p1097
aVFrance v Ireland at Stade de France, Feb 9, 2008
p1098
aVFrance v England at Stade de France, Feb 23, 2008
p1099
aVFrance v Italy at Stade de France, Mar 9, 2008
p1100
aVFrance v Italy at Stade de France, Mar 9, 2008
p1101
aVFrance v Italy at Stade de France, Mar 9, 2008
p1102
aVFrance v Italy at Stade de France, Mar 9, 2008
p1103
aVFrance v Italy at Stade de France, Mar 9, 2008
p1104
aVAustralia v France at Sydney, Jun 28, 2008
p1105
aVAustralia v France at Sydney, Jun 28, 2008
p1106
aVAustralia v France at Sydney, Jun 28, 2008
p1107
aVAustralia v France at Sydney, Jun 28, 2008
p1108
aVAustralia v France at Sydney, Jun 28, 2008
p1109
aVAustralia v France at Sydney, Jun 28, 2008
p1110
aVAustralia v France at Sydney, Jun 28, 2008
p1111
aVAustralia v France at Sydney, Jun 28, 2008
p1112
aVAustralia v France at Brisbane, Jul 5, 2008
p1113
aVAustralia v France at Brisbane, Jul 5, 2008
p1114
aVAustralia v France at Brisbane, Jul 5, 2008
p1115
aVAustralia v France at Brisbane, Jul 5, 2008
p1116
aVFrance v Argentina at Marseille, Nov 8, 2008
p1117
aVFrance v Wales at Stade de France, Feb 27, 2009
p1118
aVFrance v Wales at Stade de France, Feb 27, 2009
p1119
aVNew Zealand v France at Dunedin, Jun 13, 2009
p1120
aVNew Zealand v France at Dunedin, Jun 13, 2009
p1121
aVAustralia v France at Sydney, Jun 27, 2009
p1122
aVFrance v Samoa at Stade de France, Nov 21, 2009
p1123
aVFrance v Samoa at Stade de France, Nov 21, 2009
p1124
aVScotland v France at Murrayfield, Feb 7, 2010
p1125
aVWales v France at Millennium Stadium, Feb 26, 2010
p1126
aVSouth Africa v France at Cape Town, Jun 12, 2010
p1127
aVArgentina v France at Buenos Aires, Jun 26, 2010
p1128
aVFrance v Fiji at Nantes, Nov 13, 2010
p1129
aVFrance v Fiji at Nantes, Nov 13, 2010
p1130
aVFrance v Fiji at Nantes, Nov 13, 2010
p1131
aVFrance v Argentina at Montpellier, Nov 20, 2010
p1132
aVFrance v Ireland at Bordeaux, Aug 13, 2011
p1133
aVNew Zealand v France at Auckland, Oct 23, 2011
p1134
aVFrance v Italy at Stade de France, Feb 4, 2012
p1135
aVFrance v Italy at Stade de France, Feb 4, 2012
p1136
aVWales v France at Millennium Stadium, Mar 17, 2012
p1137
aVArgentina v France at Cordoba, Jun 16, 2012
p1138
aVArgentina v France at Cordoba, Jun 16, 2012
p1139
aVArgentina v France at Cordoba, Jun 16, 2012
p1140
aVArgentina v France at Cordoba, Jun 16, 2012
p1141
aVArgentina v France at Tucuman, Jun 23, 2012
p1142
aVArgentina v France at Tucuman, Jun 23, 2012
p1143
aVFrance v Australia at Stade de France, Nov 10, 2012
p1144
aVFrance v Australia at Stade de France, Nov 10, 2012
p1145
aVFrance v Australia at Stade de France, Nov 10, 2012
p1146
aVEngland v France at Twickenham, Feb 23, 2013
p1147
aVFrance v Scotland at Stade de France, Mar 16, 2013
p1148
aVNew Zealand v France at Auckland, Jun 8, 2013
p1149
aVNew Zealand v France at Auckland, Jun 8, 2013
p1150
aVNew Zealand v France at Auckland, Jun 8, 2013
p1151
aVNew Zealand v France at Auckland, Jun 8, 2013
p1152
aVNew Zealand v France at Christchurch, Jun 15, 2013
p1153
aVNew Zealand v France at Christchurch, Jun 15, 2013
p1154
aVNew Zealand v France at New Plymouth, Jun 22, 2013
p1155
aVFrance v New Zealand at Stade de France, Nov 9, 2013
p1156
aVFrance v Tonga at Le Havre, Nov 16, 2013
p1157
aVFrance v Tonga at Le Havre, Nov 16, 2013
p1158
aVFrance v England at Stade de France, Feb 1, 2014
p1159
aVFrance v England at Stade de France, Feb 1, 2014
p1160
aVFrance v Italy at Stade de France, Feb 9, 2014
p1161
aVWales v France at Millennium Stadium, Feb 21, 2014
p1162
aVAustralia v France at Brisbane, Jun 7, 2014
p1163
aVAustralia v France at Brisbane, Jun 7, 2014
p1164
aVAustralia v France at Melbourne, Jun 14, 2014
p1165
aVFrance v Fiji at Marseille, Nov 8, 2014
p1166
aVFrance v Fiji at Marseille, Nov 8, 2014
p1167
aVFrance v Fiji at Marseille, Nov 8, 2014
p1168
aVFrance v Fiji at Marseille, Nov 8, 2014
p1169
aVFrance v Fiji at Marseille, Nov 8, 2014
p1170
aVFrance v Fiji at Marseille, Nov 8, 2014
p1171
aVFrance v Fiji at Marseille, Nov 8, 2014
p1172
aVFrance v Scotland at Stade de France, Feb 7, 2015
p1173
aVItaly v France at Rome, Mar 15, 2015
p1174
aVCanada v France at Milton Keynes, Oct 1, 2015
p1175
aVFrance v Italy at Stade de France, Feb 6, 2016
p1176
aVFrance v Italy at Stade de France, Feb 6, 2016
p1177
aVFrance v Italy at Stade de France, Feb 6, 2016
p1178
aVFrance v Italy at Stade de France, Feb 6, 2016
p1179
aVFrance v Italy at Stade de France, Feb 6, 2016
p1180
aVFrance v Italy at Stade de France, Feb 6, 2016
p1181
aVFrance v Ireland at Stade de France, Feb 13, 2016
p1182
aVWales v France at Millennium Stadium, Feb 26, 2016
p1183
aVWales v France at Millennium Stadium, Feb 26, 2016
p1184
aVArgentina v France at Tucuman, Jun 19, 2016
p1185
aVArgentina v France at Tucuman, Jun 19, 2016
p1186
aVArgentina v France at Tucuman, Jun 19, 2016
p1187
aVArgentina v France at Tucuman, Jun 19, 2016
p1188
aVArgentina v France at Tucuman, Jun 19, 2016
p1189
aVArgentina v France at Tucuman, Jun 19, 2016
p1190
aVArgentina v France at Tucuman, Jun 19, 2016
p1191
aVArgentina v France at Tucuman, Jun 19, 2016
p1192
aVArgentina v France at Tucuman, Jun 19, 2016
p1193
aVArgentina v France at Tucuman, Jun 19, 2016
p1194
aVArgentina v France at Tucuman, Jun 25, 2016
p1195
aVFrance v Samoa at Toulouse, Nov 12, 2016
p1196
aVEngland v France at Twickenham, Feb 4, 2017
p1197
aVIreland v France at Lansdowne Road, Feb 25, 2017
p1198
aVItaly v France at Rome, Mar 11, 2017
p1199
aVItaly v France at Rome, Mar 11, 2017
p1200
aVChile v Argentina at Santiago, Nov 8, 2008
p1201
aVChile v Argentina at Santiago, Nov 8, 2008
p1202
aVChile v Argentina at Santiago, Nov 8, 2008
p1203
aVChile v Argentina at Santiago, Nov 8, 2008
p1204
aVChile v Argentina at Santiago, Nov 8, 2008
p1205
aVChile v Argentina at Santiago, Nov 8, 2008
p1206
aVChile v Argentina at Santiago, Nov 8, 2008
p1207
aVChile v Argentina at Santiago, Nov 8, 2008
p1208
aVChile v Argentina at Santiago, Nov 8, 2008
p1209
aVFrance v Argentina at Marseille, Nov 8, 2008
p1210
aVItaly v Argentina at Torino, Nov 15, 2008
p1211
aVItaly v Argentina at Torino, Nov 15, 2008
p1212
aVArgentina v Chile at Montevideo, May 20, 2009
p1213
aVArgentina v Chile at Montevideo, May 20, 2009
p1214
aVArgentina v Chile at Montevideo, May 20, 2009
p1215
aVArgentina v Chile at Montevideo, May 20, 2009
p1216
aVArgentina v Chile at Montevideo, May 20, 2009
p1217
aVArgentina v Chile at Montevideo, May 20, 2009
p1218
aVArgentina v Chile at Montevideo, May 20, 2009
p1219
aVArgentina v Chile at Montevideo, May 20, 2009
p1220
aVArgentina v Chile at Montevideo, May 20, 2009
p1221
aVArgentina v Chile at Montevideo, May 20, 2009
p1222
aVArgentina v Chile at Montevideo, May 20, 2009
p1223
aVArgentina v Chile at Montevideo, May 20, 2009
p1224
aVArgentina v Chile at Montevideo, May 20, 2009
p1225
aVArgentina v Chile at Montevideo, May 20, 2009
p1226
aVArgentina v Chile at Montevideo, May 20, 2009
p1227
aVArgentina v Chile at Montevideo, May 20, 2009
p1228
aVEngland v Argentina at Twickenham, Nov 14, 2009
p1229
aVArgentina v Uruguay at Santiago, May 21, 2010
p1230
aVArgentina v Uruguay at Santiago, May 21, 2010
p1231
aVArgentina v Uruguay at Santiago, May 21, 2010
p1232
aVArgentina v Uruguay at Santiago, May 21, 2010
p1233
aVArgentina v Uruguay at Santiago, May 21, 2010
p1234
aVArgentina v Uruguay at Santiago, May 21, 2010
p1235
aVArgentina v Uruguay at Santiago, May 21, 2010
p1236
aVChile v Argentina at Santiago, May 23, 2010
p1237
aVChile v Argentina at Santiago, May 23, 2010
p1238
aVArgentina v Scotland at Tucuman, Jun 12, 2010
p1239
aVArgentina v Scotland at Mar del Plata, Jun 19, 2010
p1240
aVArgentina v France at Buenos Aires, Jun 26, 2010
p1241
aVFrance v Argentina at Montpellier, Nov 20, 2010
p1242
aVArgentina v Chile at Cataratas, May 22, 2011
p1243
aVArgentina v Chile at Cataratas, May 22, 2011
p1244
aVArgentina v Chile at Cataratas, May 22, 2011
p1245
aVArgentina v Chile at Cataratas, May 22, 2011
p1246
aVArgentina v Chile at Cataratas, May 22, 2011
p1247
aVArgentina v Chile at Cataratas, May 22, 2011
p1248
aVArgentina v Chile at Cataratas, May 22, 2011
p1249
aVArgentina v Chile at Cataratas, May 22, 2011
p1250
aVArgentina v Chile at Cataratas, May 22, 2011
p1251
aVArgentina v Chile at Cataratas, May 22, 2011
p1252
aVArgentina v Chile at Cataratas, May 22, 2011
p1253
aVArgentina v Chile at Cataratas, May 22, 2011
p1254
aVArgentina v Uruguay at Posadas, May 25, 2011
p1255
aVArgentina v Uruguay at Posadas, May 25, 2011
p1256
aVArgentina v Uruguay at Posadas, May 25, 2011
p1257
aVArgentina v Georgia at Palmerston North, Oct 2, 2011
p1258
aVArgentina v Georgia at Palmerston North, Oct 2, 2011
p1259
aVArgentina v Uruguay at Santiago, May 20, 2012
p1260
aVArgentina v Uruguay at Santiago, May 20, 2012
p1261
aVArgentina v Uruguay at Santiago, May 20, 2012
p1262
aVArgentina v Uruguay at Santiago, May 20, 2012
p1263
aVArgentina v Uruguay at Santiago, May 20, 2012
p1264
aVArgentina v Uruguay at Santiago, May 20, 2012
p1265
aVArgentina v Uruguay at Santiago, May 20, 2012
p1266
aVArgentina v Uruguay at Santiago, May 20, 2012
p1267
aVArgentina v Uruguay at Santiago, May 20, 2012
p1268
aVArgentina v Uruguay at Santiago, May 20, 2012
p1269
aVArgentina v Uruguay at Santiago, May 20, 2012
p1270
aVArgentina v Uruguay at Santiago, May 20, 2012
p1271
aVArgentina v Uruguay at Santiago, May 20, 2012
p1272
aVArgentina v Uruguay at Santiago, May 20, 2012
p1273
aVArgentina v Brazil at Santiago, May 23, 2012
p1274
aVArgentina v Brazil at Santiago, May 23, 2012
p1275
aVArgentina v Italy at San Juan, Jun 9, 2012
p1276
aVArgentina v France at Cordoba, Jun 16, 2012
p1277
aVFrance v Argentina at Lille, Nov 17, 2012
p1278
aVIreland v Argentina at Lansdowne Road, Nov 24, 2012
p1279
aVUruguay v Argentina at Montevideo, Apr 27, 2013
p1280
aVUruguay v Argentina at Montevideo, Apr 27, 2013
p1281
aVUruguay v Argentina at Montevideo, Apr 27, 2013
p1282
aVUruguay v Argentina at Montevideo, Apr 27, 2013
p1283
aVUruguay v Argentina at Montevideo, Apr 27, 2013
p1284
aVUruguay v Argentina at Montevideo, Apr 27, 2013
p1285
aVUruguay v Argentina at Montevideo, Apr 27, 2013
p1286
aVUruguay v Argentina at Montevideo, Apr 27, 2013
p1287
aVUruguay v Argentina at Montevideo, Apr 27, 2013
p1288
aVUruguay v Argentina at Montevideo, Apr 27, 2013
p1289
aVUruguay v Argentina at Montevideo, Apr 27, 2013
p1290
aVUruguay v Argentina at Montevideo, Apr 27, 2013
p1291
aVUruguay v Argentina at Montevideo, Apr 27, 2013
p1292
aVUruguay v Argentina at Montevideo, Apr 27, 2013
p1293
aVUruguay v Argentina at Montevideo, Apr 27, 2013
p1294
aVUruguay v Argentina at Montevideo, Apr 27, 2013
p1295
aVUruguay v Argentina at Montevideo, Apr 27, 2013
p1296
aVUruguay v Argentina at Montevideo, Apr 27, 2013
p1297
aVArgentina v Chile at Montevideo, May 1, 2013
p1298
aVArgentina v Chile at Montevideo, May 1, 2013
p1299
aVArgentina v Chile at Montevideo, May 1, 2013
p1300
aVArgentina v Chile at Montevideo, May 1, 2013
p1301
aVArgentina v Chile at Montevideo, May 1, 2013
p1302
aVArgentina v Chile at Montevideo, May 1, 2013
p1303
aVEngland v Argentina at Twickenham, Nov 9, 2013
p1304
aVUruguay v Argentina at Paysandu, May 17, 2014
p1305
aVUruguay v Argentina at Paysandu, May 17, 2014
p1306
aVUruguay v Argentina at Paysandu, May 17, 2014
p1307
aVUruguay v Argentina at Paysandu, May 17, 2014
p1308
aVUruguay v Argentina at Paysandu, May 17, 2014
p1309
aVUruguay v Argentina at Paysandu, May 17, 2014
p1310
aVUruguay v Argentina at Paysandu, May 17, 2014
p1311
aVChile v Argentina at Santiago, May 25, 2014
p1312
aVArgentina v Ireland at Resistencia, Jun 7, 2014
p1313
aVArgentina v Scotland at Cordoba, Jun 20, 2014
p1314
aVScotland v Argentina at Murrayfield, Nov 8, 2014
p1315
aVScotland v Argentina at Murrayfield, Nov 8, 2014
p1316
aVItaly v Argentina at Genova, Nov 14, 2014
p1317
aVFrance v Argentina at Stade de France, Nov 22, 2014
p1318
aVUruguay v Argentina at Montevideo, May 16, 2015
p1319
aVUruguay v Argentina at Montevideo, May 16, 2015
p1320
aVUruguay v Argentina at Montevideo, May 16, 2015
p1321
aVParaguay v Argentina at Asuncion, May 23, 2015
p1322
aVParaguay v Argentina at Asuncion, May 23, 2015
p1323
aVArgentina v Australia at Mendoza, Jul 25, 2015
p1324
aVUruguay v Argentina at Colonia del Sacramento, May 28, 2016
p1325
aVUruguay v Argentina at Colonia del Sacramento, May 28, 2016
p1326
aVUruguay v Argentina at Colonia del Sacramento, May 28, 2016
p1327
aVUruguay v Argentina at Colonia del Sacramento, May 28, 2016
p1328
aVUruguay v Argentina at Colonia del Sacramento, May 28, 2016
p1329
aVUruguay v Argentina at Colonia del Sacramento, May 28, 2016
p1330
aVUruguay v Argentina at Colonia del Sacramento, May 28, 2016
p1331
aVUruguay v Argentina at Colonia del Sacramento, May 28, 2016
p1332
aVUruguay v Argentina at Colonia del Sacramento, May 28, 2016
p1333
aVUruguay v Argentina at Colonia del Sacramento, May 28, 2016
p1334
aVUruguay v Argentina at Colonia del Sacramento, May 28, 2016
p1335
aVUruguay v Argentina at Colonia del Sacramento, May 28, 2016
p1336
aVUruguay v Argentina at Colonia del Sacramento, May 28, 2016
p1337
aVUruguay v Argentina at Colonia del Sacramento, May 28, 2016
p1338
aVUruguay v Argentina at Colonia del Sacramento, May 28, 2016
p1339
aVUruguay v Argentina at Colonia del Sacramento, May 28, 2016
p1340
aVUruguay v Argentina at Colonia del Sacramento, May 28, 2016
p1341
aVUruguay v Argentina at Colonia del Sacramento, May 28, 2016
p1342
aVUruguay v Argentina at Colonia del Sacramento, May 28, 2016
p1343
aVChile v Argentina at  Santiago, Jun 4, 2016
p1344
aVChile v Argentina at  Santiago, Jun 4, 2016
p1345
aVChile v Argentina at  Santiago, Jun 4, 2016
p1346
aVChile v Argentina at  Santiago, Jun 4, 2016
p1347
aVChile v Argentina at  Santiago, Jun 4, 2016
p1348
aVChile v Argentina at  Santiago, Jun 4, 2016
p1349
aVNew Zealand v Argentina at Hamilton, Sep 10, 2016
p1350
aVSamoa v Italy at Apia, Jul 8, 2000
p1351
aVSamoa v Italy at Apia, Jul 8, 2000
p1352
aVSamoa v Italy at Apia, Jul 8, 2000
p1353
aVSamoa v Italy at Apia, Jul 8, 2000
p1354
aVFiji v Italy at Lautoka, Jul 15, 2000
p1355
aVItaly v Canada at Rovigo, Nov 11, 2000
p1356
aVItaly v Canada at Rovigo, Nov 11, 2000
p1357
aVItaly v Canada at Rovigo, Nov 11, 2000
p1358
aVItaly v New Zealand at Genova, Nov 25, 2000
p1359
aVItaly v Ireland at Rome, Feb 3, 2001
p1360
aVItaly v Ireland at Rome, Feb 3, 2001
p1361
aVNamibia v Italy at Windhoek, Jun 23, 2001
p1362
aVNamibia v Italy at Windhoek, Jun 23, 2001
p1363
aVNamibia v Italy at Windhoek, Jun 23, 2001
p1364
aVUruguay v Italy at Montevideo, Jul 7, 2001
p1365
aVItaly v Fiji at Treviso, Nov 10, 2001
p1366
aVItaly v South Africa at Genova, Nov 17, 2001
p1367
aVItaly v Samoa at L'Aquila, Nov 24, 2001
p1368
aVFrance v Italy at Stade de France, Feb 2, 2002
p1369
aVFrance v Italy at Stade de France, Feb 2, 2002
p1370
aVFrance v Italy at Stade de France, Feb 2, 2002
p1371
aVWales v Italy at Millennium Stadium, Mar 2, 2002
p1372
aVItaly v England at Rome, Apr 7, 2002
p1373
aVNew Zealand v Italy at Hamilton, Jun 8, 2002
p1374
aVNew Zealand v Italy at Hamilton, Jun 8, 2002
p1375
aVNew Zealand v Italy at Hamilton, Jun 8, 2002
p1376
aVNew Zealand v Italy at Hamilton, Jun 8, 2002
p1377
aVItaly v Romania at Parma, Sep 28, 2002
p1378
aVItaly v Argentina at Rome, Nov 16, 2002
p1379
aVItaly v Wales at Rome, Feb 15, 2003
p1380
aVItaly v Wales at Rome, Feb 15, 2003
p1381
aVScotland v Italy at Murrayfield, Aug 23, 2003
p1382
aVIreland v Italy at Limerick, Aug 30, 2003
p1383
aVItaly v Tonga at Canberra, Oct 15, 2003
p1384
aVItaly v England at Rome, Feb 15, 2004
p1385
aVItaly v England at Rome, Feb 15, 2004
p1386
aVItaly v England at Rome, Feb 15, 2004
p1387
aVIreland v Italy at Lansdowne Road, Mar 20, 2004
p1388
aVIreland v Italy at Lansdowne Road, Mar 20, 2004
p1389
aVWales v Italy at Millennium Stadium, Mar 27, 2004
p1390
aVRomania v Italy at Bucharest, Jun 26, 2004
p1391
aVRomania v Italy at Bucharest, Jun 26, 2004
p1392
aVRomania v Italy at Bucharest, Jun 26, 2004
p1393
aVRomania v Italy at Bucharest, Jun 26, 2004
p1394
aVRomania v Italy at Bucharest, Jun 26, 2004
p1395
aVItaly v Canada at L'Aquila, Nov 6, 2004
p1396
aVItaly v Canada at L'Aquila, Nov 6, 2004
p1397
aVItaly v Canada at L'Aquila, Nov 6, 2004
p1398
aVItaly v New Zealand at Rome, Nov 13, 2004
p1399
aVItaly v United States of America at Biella-in-Piedmont, Nov 27, 2004
p1400
aVItaly v United States of America at Biella-in-Piedmont, Nov 27, 2004
p1401
aVArgentina v Italy at Salta, Jun 11, 2005
p1402
aVArgentina v Italy at Salta, Jun 11, 2005
p1403
aVAustralia v Italy at Melbourne, Jun 25, 2005
p1404
aVAustralia v Italy at Melbourne, Jun 25, 2005
p1405
aVItaly v Tonga at Prato, Nov 12, 2005
p1406
aVItaly v Tonga at Prato, Nov 12, 2005
p1407
aVJapan v Italy at Tokyo, Jun 11, 2006
p1408
aVJapan v Italy at Tokyo, Jun 11, 2006
p1409
aVJapan v Italy at Tokyo, Jun 11, 2006
p1410
aVJapan v Italy at Tokyo, Jun 11, 2006
p1411
aVJapan v Italy at Tokyo, Jun 11, 2006
p1412
aVJapan v Italy at Tokyo, Jun 11, 2006
p1413
aVJapan v Italy at Tokyo, Jun 11, 2006
p1414
aVItaly v Portugal at L'Aquila, Oct 7, 2006
p1415
aVItaly v Canada at Fontanafredda, Nov 25, 2006
p1416
aVUruguay v Italy at Montevideo, Jun 2, 2007
p1417
aVUruguay v Italy at Montevideo, Jun 2, 2007
p1418
aVUruguay v Italy at Montevideo, Jun 2, 2007
p1419
aVItaly v Japan at Saint Vincent Aosta, Aug 18, 2007
p1420
aVIreland v Italy at Croke Park, Feb 2, 2008
p1421
aVIreland v Italy at Croke Park, Feb 2, 2008
p1422
aVItaly v England at Rome, Feb 10, 2008
p1423
aVWales v Italy at Millennium Stadium, Feb 23, 2008
p1424
aVFrance v Italy at Stade de France, Mar 9, 2008
p1425
aVSouth Africa v Italy at Cape Town, Jun 21, 2008
p1426
aVSouth Africa v Italy at Cape Town, Jun 21, 2008
p1427
aVSouth Africa v Italy at Cape Town, Jun 21, 2008
p1428
aVSouth Africa v Italy at Cape Town, Jun 21, 2008
p1429
aVItaly v Australia at Padova, Nov 8, 2008
p1430
aVEngland v Italy at Twickenham, Feb 7, 2009
p1431
aVItaly v Ireland at Rome, Feb 15, 2009
p1432
aVScotland v Italy at Murrayfield, Feb 28, 2009
p1433
aVScotland v Italy at Murrayfield, Feb 28, 2009
p1434
aVItaly v Wales at Rome, Mar 14, 2009
p1435
aVAustralia v Italy at Canberra, Jun 13, 2009
p1436
aVAustralia v Italy at Canberra, Jun 13, 2009
p1437
aVAustralia v Italy at Canberra, Jun 13, 2009
p1438
aVAustralia v Italy at Canberra, Jun 13, 2009
p1439
aVAustralia v Italy at Melbourne, Jun 20, 2009
p1440
aVIreland v Italy at Croke Park, Feb 6, 2010
p1441
aVItaly v Argentina at Verona, Nov 13, 2010
p1442
aVItaly v Australia at Firenze, Nov 20, 2010
p1443
aVEngland v Italy at Twickenham, Feb 12, 2011
p1444
aVItaly v Japan at Cesena, Aug 13, 2011
p1445
aVItaly v Japan at Cesena, Aug 13, 2011
p1446
aVScotland v Italy at Murrayfield, Aug 20, 2011
p1447
aVFrance v Italy at Stade de France, Feb 4, 2012
p1448
aVFrance v Italy at Stade de France, Feb 4, 2012
p1449
aVItaly v England at Rome, Feb 11, 2012
p1450
aVArgentina v Italy at San Juan, Jun 9, 2012
p1451
aVArgentina v Italy at San Juan, Jun 9, 2012
p1452
aVArgentina v Italy at San Juan, Jun 9, 2012
p1453
aVCanada v Italy at Toronto, Jun 15, 2012
p1454
aVCanada v Italy at Toronto, Jun 15, 2012
p1455
aVCanada v Italy at Toronto, Jun 15, 2012
p1456
aVItaly v Tonga at Brescia, Nov 10, 2012
p1457
aVItaly v New Zealand at Rome, Nov 17, 2012
p1458
aVSouth Africa v Italy at Durban, Jun 8, 2013
p1459
aVItaly v Samoa at Nelspruit, Jun 15, 2013
p1460
aVItaly v Scotland at Pretoria, Jun 22, 2013
p1461
aVItaly v Scotland at Pretoria, Jun 22, 2013
p1462
aVItaly v Scotland at Pretoria, Jun 22, 2013
p1463
aVItaly v Australia at Torino, Nov 9, 2013
p1464
aVItaly v Fiji at Cremona, Nov 16, 2013
p1465
aVWales v Italy at Millennium Stadium, Feb 1, 2014
p1466
aVItaly v England at Rome, Mar 15, 2014
p1467
aVFiji v Italy at Suva, Jun 7, 2014
p1468
aVFiji v Italy at Suva, Jun 7, 2014
p1469
aVSamoa v Italy at Apia, Jun 14, 2014
p1470
aVItaly v Samoa at Ascoli Piceno, Nov 8, 2014
p1471
aVItaly v South Africa at Padova, Nov 22, 2014
p1472
aVItaly v Ireland at Rome, Feb 7, 2015
p1473
aVEngland v Italy at Twickenham, Feb 14, 2015
p1474
aVScotland v Italy at Murrayfield, Feb 28, 2015
p1475
aVScotland v Italy at Murrayfield, Feb 28, 2015
p1476
aVItaly v Scotland at Torino, Aug 22, 2015
p1477
aVItaly v Scotland at Torino, Aug 22, 2015
p1478
aVFrance v Italy at Stade de France, Feb 6, 2016
p1479
aVFrance v Italy at Stade de France, Feb 6, 2016
p1480
aVFrance v Italy at Stade de France, Feb 6, 2016
p1481
aVFrance v Italy at Stade de France, Feb 6, 2016
p1482
aVFrance v Italy at Stade de France, Feb 6, 2016
p1483
aVFrance v Italy at Stade de France, Feb 6, 2016
p1484
aVItaly v England at Rome, Feb 14, 2016
p1485
aVItaly v England at Rome, Feb 14, 2016
p1486
aVIreland v Italy at Lansdowne Road, Mar 12, 2016
p1487
aVIreland v Italy at Lansdowne Road, Mar 12, 2016
p1488
aVIreland v Italy at Lansdowne Road, Mar 12, 2016
p1489
aVWales v Italy at Millennium Stadium, Mar 19, 2016
p1490
aVArgentina v Italy at Santa Fe, Jun 11, 2016
p1491
aVArgentina v Italy at Santa Fe, Jun 11, 2016
p1492
aVUnited States of America v Italy at San Jose, Jun 18, 2016
p1493
aVUnited States of America v Italy at San Jose, Jun 18, 2016
p1494
aVCanada v Italy at Toronto, Jun 26, 2016
p1495
aVItaly v New Zealand at Rome, Nov 12, 2016
p1496
aVItaly v South Africa at Firenze, Nov 19, 2016
p1497
aVItaly v South Africa at Firenze, Nov 19, 2016
p1498
aVItaly v France at Rome, Mar 11, 2017
p1499
aVScotland v Italy at Murrayfield, Mar 18, 2017
p1500
aVSamoa v Tonga at Apia, Jul 2, 2005
p1501
aVSamoa v Tonga at Apia, Jul 2, 2005
p1502
aVScotland v Samoa at Murrayfield, Nov 20, 2005
p1503
aVScotland v Samoa at Murrayfield, Nov 20, 2005
p1504
aVScotland v Samoa at Murrayfield, Nov 20, 2005
p1505
aVScotland v Samoa at Murrayfield, Nov 20, 2005
p1506
aVArgentina v Samoa at Buenos Aires, Dec 3, 2005
p1507
aVSamoa v Japan at New Plymouth, Jun 17, 2006
p1508
aVAustralia v Pacific Islanders at Adelaide, Jul 3, 2004
p1509
aVSamoa v Japan at New Plymouth, Jun 17, 2006
p1510
aVSamoa v Japan at New Plymouth, Jun 17, 2006
p1511
aVSamoa v Japan at New Plymouth, Jun 17, 2006
p1512
aVSamoa v Japan at New Plymouth, Jun 17, 2006
p1513
aVFiji v Samoa at Suva, Jun 24, 2006
p1514
aVSamoa v Fiji at Apia, May 19, 2007
p1515
aVNew Zealand v Pacific Islanders at North Shore City, Jul 10, 2004
p1516
aVSamoa v Fiji at Apia, May 19, 2007
p1517
aVSamoa v Fiji at Apia, May 19, 2007
p1518
aVSamoa v Fiji at Apia, May 19, 2007
p1519
aVSamoa v Fiji at Apia, May 19, 2007
p1520
aVSamoa v Fiji at Apia, May 19, 2007
p1521
aVWales v Pacific Islanders at Millennium Stadium, Nov 11, 2006
p1522
aVSouth Africa v Samoa at Johannesburg, Jun 9, 2007
p1523
aVSamoa v Tonga at Apia, Jun 23, 2007
p1524
aVSamoa v United States of America at Saint-Etienne, Sep 26, 2007
p1525
aVFiji v Samoa at Lautoka, Jun 7, 2008
p1526
aVFiji v Samoa at Lautoka, Jun 7, 2008
p1527
aVFiji v Samoa at Lautoka, Jun 7, 2008
p1528
aVFiji v Samoa at Lautoka, Jun 7, 2008
p1529
aVFiji v Samoa at Lautoka, Jun 7, 2008
p1530
aVFiji v Samoa at Lautoka, Jun 7, 2008
p1531
aVFiji v Samoa at Lautoka, Jun 7, 2008
p1532
aVFiji v Samoa at Lautoka, Jun 7, 2008
p1533
aVFiji v Samoa at Lautoka, Jun 7, 2008
p1534
aVTonga v Samoa at Nuku A'lofa, Jun 28, 2008
p1535
aVTonga v Samoa at Nuku A'lofa, Jun 28, 2008
p1536
aVTonga v Samoa at Nuku A'lofa, Jun 28, 2008
p1537
aVTonga v Samoa at Nuku A'lofa, Jun 28, 2008
p1538
aVNew Zealand v Samoa at New Plymouth, Sep 3, 2008
p1539
aVNew Zealand v Samoa at New Plymouth, Sep 3, 2008
p1540
aVNew Zealand v Samoa at New Plymouth, Sep 3, 2008
p1541
aVNew Zealand v Samoa at New Plymouth, Sep 3, 2008
p1542
aVNew Zealand v Samoa at New Plymouth, Sep 3, 2008
p1543
aVJapan v Samoa at Sigatoka, Jun 18, 2009
p1544
aVJapan v Samoa at Sigatoka, Jun 18, 2009
p1545
aVJapan v Samoa at Sigatoka, Jun 18, 2009
p1546
aVJapan v Samoa at Sigatoka, Jun 18, 2009
p1547
aVSamoa v Tonga at Lautoka, Jun 23, 2009
p1548
aVSamoa v Tonga at Lautoka, Jun 23, 2009
p1549
aVSamoa v Papua New Guinea at Apia, Jul 11, 2009
p1550
aVSamoa v Papua New Guinea at Apia, Jul 11, 2009
p1551
aVPapua New Guinea v Samoa at Port Moresby, Jul 18, 2009
p1552
aVPapua New Guinea v Samoa at Port Moresby, Jul 18, 2009
p1553
aVPapua New Guinea v Samoa at Port Moresby, Jul 18, 2009
p1554
aVPapua New Guinea v Samoa at Port Moresby, Jul 18, 2009
p1555
aVPapua New Guinea v Samoa at Port Moresby, Jul 18, 2009
p1556
aVWales v Samoa at Millennium Stadium, Nov 13, 2009
p1557
aVFrance v Samoa at Stade de France, Nov 21, 2009
p1558
aVFrance v Samoa at Stade de France, Nov 21, 2009
p1559
aVItaly v Samoa at Ascoli Piceno, Nov 28, 2009
p1560
aVSamoa v Tonga at Apia, Jun 12, 2010
p1561
aVSamoa v Tonga at Apia, Jun 12, 2010
p1562
aVSamoa v Tonga at Apia, Jun 12, 2010
p1563
aVSamoa v Tonga at Apia, Jun 12, 2010
p1564
aVSamoa v Tonga at Apia, Jun 12, 2010
p1565
aVSamoa v Tonga at Apia, Jun 12, 2010
p1566
aVSamoa v Tonga at Apia, Jun 12, 2010
p1567
aVSamoa v Tonga at Apia, Jun 12, 2010
p1568
aVSamoa v Tonga at Apia, Jun 12, 2010
p1569
aVSamoa v Japan at Apia, Jun 19, 2010
p1570
aVJapan v Samoa at Tokyo, Oct 30, 2010
p1571
aVJapan v Samoa at Tokyo, Oct 30, 2010
p1572
aVJapan v Samoa at Tokyo, Oct 30, 2010
p1573
aVJapan v Samoa at Tokyo, Oct 30, 2010
p1574
aVJapan v Samoa at Tokyo, Oct 30, 2010
p1575
aVJapan v Samoa at Tokyo, Oct 30, 2010
p1576
aVIreland v Samoa at Lansdowne Road, Nov 13, 2010
p1577
aVEngland v Samoa at Twickenham, Nov 20, 2010
p1578
aVWales v Pacific Islanders at Millennium Stadium, Nov 11, 2006
p1579
aVJapan v Samoa at Tokyo, Jul 2, 2011
p1580
aVJapan v Samoa at Tokyo, Jul 2, 2011
p1581
aVJapan v Samoa at Tokyo, Jul 2, 2011
p1582
aVJapan v Samoa at Tokyo, Jul 2, 2011
p1583
aVFiji v Samoa at Suva, Jul 9, 2011
p1584
aVSamoa v Tonga at Lautoka, Jul 13, 2011
p1585
aVSamoa v Tonga at Lautoka, Jul 13, 2011
p1586
aVSamoa v Tonga at Lautoka, Jul 13, 2011
p1587
aVSamoa v Wales at Hamilton, Sep 18, 2011
p1588
aVSamoa v Tonga at Nagoya, Jun 5, 2012
p1589
aVSamoa v Tonga at Nagoya, Jun 5, 2012
p1590
aVSamoa v Tonga at Nagoya, Jun 5, 2012
p1591
aVSamoa v Tonga at Nagoya, Jun 5, 2012
p1592
aVSamoa v Tonga at Nagoya, Jun 5, 2012
p1593
aVSamoa v Tonga at Nagoya, Jun 5, 2012
p1594
aVSamoa v Tonga at Nagoya, Jun 5, 2012
p1595
aVSamoa v Tonga at Nagoya, Jun 5, 2012
p1596
aVSamoa v Tonga at Nagoya, Jun 5, 2012
p1597
aVSamoa v Tonga at Nagoya, Jun 5, 2012
p1598
aVCanada v Samoa at Colwyn Bay, Nov 9, 2012
p1599
aVCanada v Samoa at Colwyn Bay, Nov 9, 2012
p1600
aVCanada v Samoa at Colwyn Bay, Nov 9, 2012
p1601
aVCanada v Samoa at Colwyn Bay, Nov 9, 2012
p1602
aVCanada v Samoa at Colwyn Bay, Nov 9, 2012
p1603
aVSamoa v Scotland at Durban, Jun 8, 2013
p1604
aVSamoa v Scotland at Durban, Jun 8, 2013
p1605
aVSamoa v Scotland at Durban, Jun 8, 2013
p1606
aVSamoa v Scotland at Durban, Jun 8, 2013
p1607
aVItaly v Samoa at Nelspruit, Jun 15, 2013
p1608
aVIreland v Samoa at Lansdowne Road, Nov 9, 2013
p1609
aVIreland v Samoa at Lansdowne Road, Nov 9, 2013
p1610
aVJapan v Samoa at Tokyo, May 30, 2014
p1611
aVJapan v Samoa at Tokyo, May 30, 2014
p1612
aVJapan v Samoa at Tokyo, May 30, 2014
p1613
aVJapan v Samoa at Tokyo, May 30, 2014
p1614
aVJapan v Samoa at Tokyo, May 30, 2014
p1615
aVJapan v Samoa at Tokyo, May 30, 2014
p1616
aVJapan v Samoa at Tokyo, May 30, 2014
p1617
aVJapan v Samoa at Tokyo, May 30, 2014
p1618
aVJapan v Samoa at Tokyo, May 30, 2014
p1619
aVJapan v Samoa at Tokyo, May 30, 2014
p1620
aVItaly v Samoa at Ascoli Piceno, Nov 8, 2014
p1621
aVItaly v Samoa at Ascoli Piceno, Nov 8, 2014
p1622
aVItaly v Samoa at Ascoli Piceno, Nov 8, 2014
p1623
aVItaly v Samoa at Ascoli Piceno, Nov 8, 2014
p1624
aVCanada v Samoa at Vannes, Nov 14, 2014
p1625
aVCanada v Samoa at Vannes, Nov 14, 2014
p1626
aVCanada v Samoa at Vannes, Nov 14, 2014
p1627
aVCanada v Samoa at Vannes, Nov 14, 2014
p1628
aVSamoa v New Zealand at Apia, Jul 8, 2015
p1629
aVSamoa v New Zealand at Apia, Jul 8, 2015
p1630
aVUnited States of America v Samoa at San Jose, Jul 18, 2015
p1631
aVUnited States of America v Samoa at San Jose, Jul 18, 2015
p1632
aVFiji v Samoa at Sacramento, Jul 24, 2015
p1633
aVCanada v Samoa at Toronto, Jul 29, 2015
p1634
aVSamoa v Georgia at Apia, Jun 11, 2016
p1635
aVSamoa v Georgia at Apia, Jun 11, 2016
p1636
aVSamoa v Georgia at Apia, Jun 11, 2016
p1637
aVSamoa v Georgia at Apia, Jun 11, 2016
p1638
aVSamoa v Georgia at Apia, Jun 11, 2016
p1639
aVSamoa v Georgia at Apia, Jun 11, 2016
p1640
aVSamoa v Georgia at Apia, Jun 11, 2016
p1641
aVSamoa v Georgia at Apia, Jun 11, 2016
p1642
aVSamoa v Georgia at Apia, Jun 11, 2016
p1643
aVFiji v Samoa at Suva, Jun 18, 2016
p1644
aVFrance v Samoa at Toulouse, Nov 12, 2016
p1645
aVFrance v Samoa at Toulouse, Nov 12, 2016
p1646
aVFrance v Samoa at Toulouse, Nov 12, 2016
p1647
aVGeorgia v Samoa at Tbilisi, Nov 19, 2016
p1648
aVCanada v Samoa at Grenoble, Nov 25, 2016
p1649
aVCanada v Samoa at Grenoble, Nov 25, 2016
p1650
aVSamoa v Tonga at Apia, Jul 2, 2005
p1651
aVSamoa v Tonga at Apia, Jul 2, 2005
p1652
aVSamoa v Tonga at Apia, Jul 2, 2005
p1653
aVSamoa v Tonga at Apia, Jul 2, 2005
p1654
aVTonga v Fiji at Nuku A'lofa, Jul 16, 2005
p1655
aVTonga v Samoa at Nuku A'lofa, Jul 22, 2005
p1656
aVTonga v Samoa at Nuku A'lofa, Jul 22, 2005
p1657
aVTonga v Samoa at Nuku A'lofa, Jul 22, 2005
p1658
aVAustralia v Pacific Islanders at Adelaide, Jul 3, 2004
p1659
aVItaly v Tonga at Prato, Nov 12, 2005
p1660
aVFrance v Tonga at Toulouse, Nov 19, 2005
p1661
aVFrance v Tonga at Toulouse, Nov 19, 2005
p1662
aVJapan v Tonga at Fukuoka, Jun 4, 2006
p1663
aVJapan v Tonga at Fukuoka, Jun 4, 2006
p1664
aVJapan v Tonga at Fukuoka, Jun 4, 2006
p1665
aVJapan v Tonga at Fukuoka, Jun 4, 2006
p1666
aVJapan v Tonga at Fukuoka, Jun 4, 2006
p1667
aVCook Islands v Tonga at Raratonga, Jun 24, 2006
p1668
aVKorea v Tonga at Henderson, Feb 10, 2007
p1669
aVKorea v Tonga at Henderson, Feb 10, 2007
p1670
aVKorea v Tonga at Henderson, Feb 10, 2007
p1671
aVKorea v Tonga at Henderson, Feb 10, 2007
p1672
aVKorea v Tonga at Henderson, Feb 10, 2007
p1673
aVKorea v Tonga at Henderson, Feb 10, 2007
p1674
aVKorea v Tonga at Henderson, Feb 10, 2007
p1675
aVWales v Pacific Islanders at Millennium Stadium, Nov 11, 2006
p1676
aVKorea v Tonga at Henderson, Feb 10, 2007
p1677
aVKorea v Tonga at Henderson, Feb 10, 2007
p1678
aVKorea v Tonga at Henderson, Feb 10, 2007
p1679
aVKorea v Tonga at Henderson, Feb 10, 2007
p1680
aVAustralia A v Tonga at Sydney, May 25, 2007
p1681
aVAustralia A v Tonga at Sydney, May 25, 2007
p1682
aVAustralia A v Tonga at Sydney, May 25, 2007
p1683
aVAustralia A v Tonga at Sydney, May 25, 2007
p1684
aVAustralia A v Tonga at Sydney, May 25, 2007
p1685
aVAustralia A v Tonga at Sydney, May 25, 2007
p1686
aVJapan v Tonga at Coffs Harbour, Jun 2, 2007
p1687
aVJapan v Tonga at Coffs Harbour, Jun 2, 2007
p1688
aVJapan v Tonga at Coffs Harbour, Jun 2, 2007
p1689
aVTonga v Junior All Blacks at Nuku A'lofa, Jun 9, 2007
p1690
aVFiji v Tonga at Lautoka, Jun 16, 2007
p1691
aVTonga v United States of America at Montpellier, Sep 12, 2007
p1692
aVSamoa v Tonga at Montpellier, Sep 16, 2007
p1693
aVJapan v Tonga at Sendai, Jun 15, 2008
p1694
aVJapan v Tonga at Sendai, Jun 15, 2008
p1695
aVJapan v Tonga at Sendai, Jun 15, 2008
p1696
aVJapan v Tonga at Sendai, Jun 15, 2008
p1697
aVJapan v Tonga at Sendai, Jun 15, 2008
p1698
aVJapan v Tonga at Sendai, Jun 15, 2008
p1699
aVTonga v Samoa at Nuku A'lofa, Jun 28, 2008
p1700
aVTonga v Fiji at Nuku A'lofa, Jun 13, 2009
p1701
aVTonga v Fiji at Nuku A'lofa, Jun 13, 2009
p1702
aVTonga v Fiji at Nuku A'lofa, Jun 13, 2009
p1703
aVTonga v Fiji at Nuku A'lofa, Jun 13, 2009
p1704
aVTonga v Fiji at Nuku A'lofa, Jun 13, 2009
p1705
aVTonga v Fiji at Nuku A'lofa, Jun 13, 2009
p1706
aVSamoa v Tonga at Lautoka, Jun 23, 2009
p1707
aVSamoa v Tonga at Lautoka, Jun 23, 2009
p1708
aVJapan v Tonga at Lautoka, Jun 27, 2009
p1709
aVJapan v Tonga at Lautoka, Jun 27, 2009
p1710
aVPortugal v Tonga at Lisbon, Nov 28, 2009
p1711
aVPortugal v Tonga at Lisbon, Nov 28, 2009
p1712
aVPortugal v Tonga at Lisbon, Nov 28, 2009
p1713
aVPortugal v Tonga at Lisbon, Nov 28, 2009
p1714
aVPortugal v Tonga at Lisbon, Nov 28, 2009
p1715
aVPortugal v Tonga at Lisbon, Nov 28, 2009
p1716
aVSamoa v Tonga at Apia, Jun 12, 2010
p1717
aVSamoa v Tonga at Apia, Jun 12, 2010
p1718
aVSamoa v Tonga at Apia, Jun 12, 2010
p1719
aVSamoa v Tonga at Apia, Jun 12, 2010
p1720
aVSamoa v Tonga at Apia, Jun 12, 2010
p1721
aVSamoa v Tonga at Apia, Jun 12, 2010
p1722
aVSamoa v Tonga at Apia, Jun 12, 2010
p1723
aVSamoa v Tonga at Apia, Jun 12, 2010
p1724
aVSamoa v Tonga at Apia, Jun 12, 2010
p1725
aVSamoa v Tonga at Apia, Jun 12, 2010
p1726
aVFiji v Tonga at Apia, Jun 19, 2010
p1727
aVFiji v Tonga at Apia, Jun 19, 2010
p1728
aVFiji v Tonga at Apia, Jun 19, 2010
p1729
aVJapan v Tonga at Apia, Jun 26, 2010
p1730
aVChile v Tonga at Santiago, Sep 29, 2010
p1731
aVChile v Tonga at Santiago, Sep 29, 2010
p1732
aVChile v Tonga at Santiago, Sep 29, 2010
p1733
aVChile v Tonga at Santiago, Sep 29, 2010
p1734
aVChile v Tonga at Santiago, Sep 29, 2010
p1735
aVChile v Tonga at Santiago, Sep 29, 2010
p1736
aVChile v Tonga at Santiago, Sep 29, 2010
p1737
aVChile v Tonga at Santiago, Sep 29, 2010
p1738
aVChile v Tonga at Santiago, Sep 29, 2010
p1739
aVChile v Tonga at Santiago, Sep 29, 2010
p1740
aVTonga v United States of America at Esher, Jun 8, 2011
p1741
aVTonga v United States of America at Esher, Jun 8, 2011
p1742
aVTonga v United States of America at Esher, Jun 8, 2011
p1743
aVTonga v United States of America at Esher, Jun 8, 2011
p1744
aVTonga v United States of America at Esher, Jun 8, 2011
p1745
aVTonga v United States of America at Esher, Jun 8, 2011
p1746
aVTonga v United States of America at Esher, Jun 8, 2011
p1747
aVFiji v Tonga at Lautoka, Jul 2, 2011
p1748
aVFiji v Tonga at Lautoka, Jul 2, 2011
p1749
aVFiji v Tonga at Lautoka, Jul 2, 2011
p1750
aVJapan v Tonga at Suva, Jul 9, 2011
p1751
aVJapan v Tonga at Suva, Jul 9, 2011
p1752
aVSamoa v Tonga at Lautoka, Jul 13, 2011
p1753
aVFiji v Tonga at Lautoka, Aug 13, 2011
p1754
aVFiji v Tonga at Lautoka, Aug 13, 2011
p1755
aVFiji v Tonga at Lautoka, Aug 13, 2011
p1756
aVFiji v Tonga at Lautoka, Aug 13, 2011
p1757
aVSamoa v Tonga at Nagoya, Jun 5, 2012
p1758
aVSamoa v Tonga at Nagoya, Jun 5, 2012
p1759
aVSamoa v Tonga at Nagoya, Jun 5, 2012
p1760
aVItaly v Tonga at Brescia, Nov 10, 2012
p1761
aVItaly v Tonga at Brescia, Nov 10, 2012
p1762
aVJapan v Tonga at Kanagawa, May 25, 2013
p1763
aVJapan v Tonga at Kanagawa, May 25, 2013
p1764
aVJapan v Tonga at Kanagawa, May 25, 2013
p1765
aVJapan v Tonga at Kanagawa, May 25, 2013
p1766
aVUnited States of America v Tonga at Carson, Jun 14, 2013
p1767
aVUnited States of America v Tonga at Carson, Jun 14, 2013
p1768
aVUnited States of America v Tonga at Carson, Jun 14, 2013
p1769
aVFiji v Tonga at Tokyo, Jun 23, 2013
p1770
aVRomania v Tonga at Bucharest, Nov 9, 2013
p1771
aVRomania v Tonga at Bucharest, Nov 9, 2013
p1772
aVRomania v Tonga at Bucharest, Nov 9, 2013
p1773
aVWales v Tonga at Millennium Stadium, Nov 22, 2013
p1774
aVSamoa v Tonga at Apia, Jun 7, 2014
p1775
aVSamoa v Tonga at Apia, Jun 7, 2014
p1776
aVSamoa v Tonga at Apia, Jun 7, 2014
p1777
aVGeorgia v Tonga at Tbilisi, Nov 8, 2014
p1778
aVGeorgia v Tonga at Tbilisi, Nov 8, 2014
p1779
aVTonga v United States of America at Gloucester, Nov 15, 2014
p1780
aVFiji v Tonga at Suva, Jul 18, 2015
p1781
aVCanada v Tonga at Vancouver, Jul 24, 2015
p1782
aVCanada v Tonga at Vancouver, Jul 24, 2015
p1783
aVTonga v United States of America at Toronto, Jul 29, 2015
p1784
aVTonga v United States of America at Toronto, Jul 29, 2015
p1785
aVFiji v Tonga at Suva, Jun 11, 2016
p1786
aVFiji v Tonga at Suva, Jun 11, 2016
p1787
aVFiji v Tonga at Suva, Jun 11, 2016
p1788
aVFiji v Tonga at Suva, Jun 11, 2016
p1789
aVFiji v Tonga at Suva, Jun 11, 2016
p1790
aVFiji v Tonga at Suva, Jun 11, 2016
p1791
aVFiji v Tonga at Suva, Jun 11, 2016
p1792
aVFiji v Tonga at Suva, Jun 11, 2016
p1793
aVGeorgia v Tonga, Jun 18, 2016
p1794
aVSamoa v Tonga at Apia, Jun 25, 2016
p1795
aVSpain v Tonga at Madrid, Nov 12, 2016
p1796
aVSpain v Tonga at Madrid, Nov 12, 2016
p1797
aVSpain v Tonga at Madrid, Nov 12, 2016
p1798
aVSpain v Tonga at Madrid, Nov 12, 2016
p1799
aVAustralia v Wales at Brisbane, Jun 9, 2012
p1800
aVFiji v Samoa at Suva, Jun 12, 2004
p1801
aVFiji v Samoa at Suva, Jun 12, 2004
p1802
aVFiji v New Zealand Maori at Suva, Jun 3, 2005
p1803
aVFiji v New Zealand Maori at Suva, Jun 3, 2005
p1804
aVFiji v New Zealand Maori at Suva, Jun 3, 2005
p1805
aVFiji v New Zealand Maori at Suva, Jun 3, 2005
p1806
aVFiji v New Zealand Maori at Suva, Jun 3, 2005
p1807
aVNew Zealand v Fiji at North Shore City, Jun 10, 2005
p1808
aVFiji v Tonga at Suva, Jun 25, 2005
p1809
aVFiji v Tonga at Suva, Jun 25, 2005
p1810
aVFiji v Tonga at Suva, Jun 25, 2005
p1811
aVSamoa v Fiji at Apia, Jul 9, 2005
p1812
aVSamoa v Fiji at Apia, Jul 9, 2005
p1813
aVSamoa v Fiji at Apia, Jul 9, 2005
p1814
aVFiji v Samoa at Suva, Jul 30, 2005
p1815
aVFiji v Samoa at Suva, Jul 30, 2005
p1816
aVWales v Fiji at Millennium Stadium, Nov 11, 2005
p1817
aVWales v Fiji at Millennium Stadium, Nov 11, 2005
p1818
aVPortugal v Fiji at Lisbon, Nov 19, 2005
p1819
aVPortugal v Fiji at Lisbon, Nov 19, 2005
p1820
aVPortugal v Fiji at Lisbon, Nov 19, 2005
p1821
aVItaly v Fiji at Monza, Nov 26, 2005
p1822
aVFiji v Tonga at Gosford, Jun 10, 2006
p1823
aVFiji v Tonga at Gosford, Jun 10, 2006
p1824
aVFiji v Tonga at Gosford, Jun 10, 2006
p1825
aVFiji v Tonga at Gosford, Jun 10, 2006
p1826
aVFiji v Samoa at Suva, Jun 24, 2006
p1827
aVSamoa v Fiji at Apia, May 19, 2007
p1828
aVSamoa v Fiji at Apia, May 19, 2007
p1829
aVSamoa v Fiji at Apia, May 19, 2007
p1830
aVSamoa v Fiji at Apia, May 19, 2007
p1831
aVSamoa v Fiji at Apia, May 19, 2007
p1832
aVSamoa v Fiji at Apia, May 19, 2007
p1833
aVSamoa v Fiji at Apia, May 19, 2007
p1834
aVSamoa v Fiji at Apia, May 19, 2007
p1835
aVFiji v Japan at Lautoka, May 26, 2007
p1836
aVFiji v Japan at Lautoka, May 26, 2007
p1837
aVFiji v Tonga at Lautoka, Jun 16, 2007
p1838
aVFiji v Tonga at Lautoka, Jun 16, 2007
p1839
aVFiji v Tonga at Lautoka, Jun 16, 2007
p1840
aVFiji v Tonga at Lautoka, Jun 16, 2007
p1841
aVFiji v Tonga at Lautoka, Jun 16, 2007
p1842
aVAustralia v Fiji at Montpellier, Sep 23, 2007
p1843
aVFiji v Samoa at Lautoka, Jun 7, 2008
p1844
aVFiji v Samoa at Lautoka, Jun 7, 2008
p1845
aVFiji v Samoa at Lautoka, Jun 7, 2008
p1846
aVFiji v Samoa at Lautoka, Jun 7, 2008
p1847
aVFiji v New Zealand Maori at Lautoka, Jun 14, 2008
p1848
aVJapan v Fiji at Tokyo, Jun 22, 2008
p1849
aVJapan v Fiji at Tokyo, Jun 22, 2008
p1850
aVTonga v Fiji at Nuku A'lofa, Jul 5, 2008
p1851
aVTonga v Fiji at Nuku A'lofa, Jul 5, 2008
p1852
aVTonga v Fiji at Nuku A'lofa, Jul 5, 2008
p1853
aVTonga v Fiji at Nuku A'lofa, Jul 5, 2008
p1854
aVTonga v Fiji at Nuku A'lofa, Jun 13, 2009
p1855
aVTonga v Fiji at Nuku A'lofa, Jun 13, 2009
p1856
aVTonga v Fiji at Nuku A'lofa, Jun 13, 2009
p1857
aVTonga v Fiji at Nuku A'lofa, Jun 13, 2009
p1858
aVTonga v Fiji at Nuku A'lofa, Jun 13, 2009
p1859
aVTonga v Fiji at Nuku A'lofa, Jun 13, 2009
p1860
aVFiji v Samoa at Lautoka, Jun 27, 2009
p1861
aVFiji v Samoa at Lautoka, Jun 27, 2009
p1862
aVFiji v Japan at Suva, Jul 3, 2009
p1863
aVFiji v Japan at Suva, Jul 3, 2009
p1864
aVFiji v Japan at Suva, Jul 3, 2009
p1865
aVFiji v Japan at Suva, Jul 3, 2009
p1866
aVScotland v Fiji at Murrayfield, Nov 14, 2009
p1867
aVScotland v Fiji at Murrayfield, Nov 14, 2009
p1868
aVScotland v Fiji at Murrayfield, Nov 14, 2009
p1869
aVFrance v Pacific Islanders at Sochaux-Montbliard, Nov 15, 2008
p1870
aVScotland v Fiji at Murrayfield, Nov 14, 2009
p1871
aVScotland v Fiji at Murrayfield, Nov 14, 2009
p1872
aVScotland v Fiji at Murrayfield, Nov 14, 2009
p1873
aVScotland v Fiji at Murrayfield, Nov 14, 2009
p1874
aVRomania v Fiji at Bucharest, Nov 28, 2009
p1875
aVRomania v Fiji at Bucharest, Nov 28, 2009
p1876
aVRomania v Fiji at Bucharest, Nov 28, 2009
p1877
aVAustralia v Fiji at Canberra, Jun 5, 2010
p1878
aVAustralia v Fiji at Canberra, Jun 5, 2010
p1879
aVAustralia v Fiji at Canberra, Jun 5, 2010
p1880
aVAustralia v Fiji at Canberra, Jun 5, 2010
p1881
aVAustralia v Fiji at Canberra, Jun 5, 2010
p1882
aVFiji v Japan at Lautoka, Jun 12, 2010
p1883
aVFiji v Japan at Lautoka, Jun 12, 2010
p1884
aVFiji v Japan at Lautoka, Jun 12, 2010
p1885
aVFiji v Japan at Lautoka, Jun 12, 2010
p1886
aVFiji v Japan at Lautoka, Jun 12, 2010
p1887
aVFiji v Tonga at Apia, Jun 19, 2010
p1888
aVSamoa v Fiji at Apia, Jun 26, 2010
p1889
aVFrance v Fiji at Nantes, Nov 13, 2010
p1890
aVFrance v Fiji at Nantes, Nov 13, 2010
p1891
aVItaly v Fiji at Modena, Nov 27, 2010
p1892
aVFiji v Tonga at Lautoka, Jul 2, 2011
p1893
aVFiji v Tonga at Lautoka, Jul 2, 2011
p1894
aVFiji v Tonga at Lautoka, Jul 2, 2011
p1895
aVFiji v Tonga at Lautoka, Jul 2, 2011
p1896
aVFiji v Japan at Lautoka, Jul 13, 2011
p1897
aVFiji v Japan at Lautoka, Jul 13, 2011
p1898
aVJapan v Fiji at Nagoya, Jun 5, 2012
p1899
aVJapan v Fiji at Nagoya, Jun 5, 2012
p1900
aVJapan v Fiji at Nagoya, Jun 5, 2012
p1901
aVJapan v Fiji at Nagoya, Jun 5, 2012
p1902
aVJapan v Fiji at Nagoya, Jun 5, 2012
p1903
aVJapan v Fiji at Nagoya, Jun 5, 2012
p1904
aVJapan v Fiji at Nagoya, Jun 5, 2012
p1905
aVJapan v Fiji at Nagoya, Jun 5, 2012
p1906
aVJapan v Fiji at Nagoya, Jun 5, 2012
p1907
aVJapan v Fiji at Nagoya, Jun 5, 2012
p1908
aVFiji v Samoa at Tokyo, Jun 10, 2012
p1909
aVFiji v Samoa at Tokyo, Jun 10, 2012
p1910
aVFiji v Scotland at Lautoka, Jun 16, 2012
p1911
aVFiji v Tonga at Lautoka, Jun 23, 2012
p1912
aVFiji v Tonga at Lautoka, Jun 23, 2012
p1913
aVEngland v Fiji at Twickenham, Nov 10, 2012
p1914
aVEngland v Fiji at Twickenham, Nov 10, 2012
p1915
aVEngland v Fiji at Twickenham, Nov 10, 2012
p1916
aVGeorgia v Fiji at Tbilisi, Nov 24, 2012
p1917
aVGeorgia v Fiji at Tbilisi, Nov 24, 2012
p1918
aVFiji v Japan at Lautoka, Jun 1, 2013
p1919
aVFiji v Japan at Lautoka, Jun 1, 2013
p1920
aVCanada v Fiji at Nepean, Jun 5, 2013
p1921
aVCanada v Fiji at Nepean, Jun 5, 2013
p1922
aVPortugal v Fiji at Lisbon, Nov 9, 2013
p1923
aVPortugal v Fiji at Lisbon, Nov 9, 2013
p1924
aVPortugal v Fiji at Lisbon, Nov 9, 2013
p1925
aVRomania v Fiji at Bucharest, Nov 23, 2013
p1926
aVRomania v Fiji at Bucharest, Nov 23, 2013
p1927
aVBarbarians v Fiji at Twickenham, Nov 30, 2013
p1928
aVBarbarians v Fiji at Twickenham, Nov 30, 2013
p1929
aVFiji v Italy at Suva, Jun 7, 2014
p1930
aVFiji v Cook Islands at Suva, Jun 28, 2014
p1931
aVFrance v Fiji at Marseille, Nov 8, 2014
p1932
aVFrance v Fiji at Marseille, Nov 8, 2014
p1933
aVFiji v United States of America at Vannes, Nov 21, 2014
p1934
aVFiji v New Zealand Maori at Suva, Jul 11, 2015
p1935
aVFiji v New Zealand Maori at Suva, Jul 11, 2015
p1936
aVFiji v Tonga at Suva, Jul 18, 2015
p1937
aVFiji v Tonga at Suva, Jun 11, 2016
p1938
aVFiji v Tonga at Suva, Jun 11, 2016
p1939
aVFiji v Tonga at Suva, Jun 11, 2016
p1940
aVFiji v Tonga at Suva, Jun 11, 2016
p1941
aVFiji v Tonga at Suva, Jun 11, 2016
p1942
aVFiji v Tonga at Suva, Jun 11, 2016
p1943
aVFiji v Samoa at Suva, Jun 18, 2016
p1944
aVFiji v Samoa at Suva, Jun 18, 2016
p1945
aVFiji v Georgia at Suva, Jun 24, 2016
p1946
aVFiji v Georgia at Suva, Jun 24, 2016
p1947
aVBarbarians v Fiji at Belfast, Nov 11, 2016
p1948
aVBarbarians v Fiji at Belfast, Nov 11, 2016
p1949
aVBarbarians v Fiji at Belfast, Nov 11, 2016
p1950
aVHong Kong v Japan at Hong Kong, Nov 18, 2006
p1951
aVHong Kong v Japan at Hong Kong, Nov 18, 2006
p1952
aVJapan v Korea at Tokyo, Apr 22, 2007
p1953
aVJapan v Korea at Tokyo, Apr 22, 2007
p1954
aVJapan v Korea at Tokyo, Apr 22, 2007
p1955
aVJapan v Korea at Tokyo, Apr 22, 2007
p1956
aVJapan v Korea at Tokyo, Apr 22, 2007
p1957
aVJapan v Korea at Tokyo, Apr 22, 2007
p1958
aVJapan v Korea at Tokyo, Apr 22, 2007
p1959
aVJapan v Hong Kong at Tokyo, Apr 29, 2007
p1960
aVJapan v Hong Kong at Tokyo, Apr 29, 2007
p1961
aVJapan v Hong Kong at Tokyo, Apr 29, 2007
p1962
aVJapan v Hong Kong at Tokyo, Apr 29, 2007
p1963
aVJapan v Hong Kong at Tokyo, Apr 29, 2007
p1964
aVAustralia A v Japan at Townsville, Jun 9, 2007
p1965
aVAustralia v Japan at Lyon, Sep 8, 2007
p1966
aVWales v Japan at Millennium Stadium, Sep 20, 2007
p1967
aVKorea v Japan at Incheon, Apr 26, 2008
p1968
aVKorea v Japan at Incheon, Apr 26, 2008
p1969
aVKorea v Japan at Incheon, Apr 26, 2008
p1970
aVKorea v Japan at Incheon, Apr 26, 2008
p1971
aVKorea v Japan at Incheon, Apr 26, 2008
p1972
aVKorea v Japan at Incheon, Apr 26, 2008
p1973
aVJapan v Arabian Gulf at Osaka, May 3, 2008
p1974
aVJapan v Arabian Gulf at Osaka, May 3, 2008
p1975
aVJapan v Arabian Gulf at Osaka, May 3, 2008
p1976
aVJapan v Arabian Gulf at Osaka, May 3, 2008
p1977
aVJapan v Arabian Gulf at Osaka, May 3, 2008
p1978
aVKazakhstan v Japan at Almaty, May 10, 2008
p1979
aVJapan v Tonga at Sendai, Jun 15, 2008
p1980
aVJapan v United States of America at Nagoya, Nov 16, 2008
p1981
aVJapan v United States of America at Nagoya, Nov 16, 2008
p1982
aVJapan v United States of America at Nagoya, Nov 16, 2008
p1983
aVJapan v United States of America at Nagoya, Nov 16, 2008
p1984
aVJapan v United States of America at Nagoya, Nov 16, 2008
p1985
aVJapan v United States of America at Tokyo, Nov 22, 2008
p1986
aVJapan v United States of America at Tokyo, Nov 22, 2008
p1987
aVJapan v United States of America at Tokyo, Nov 22, 2008
p1988
aVJapan v United States of America at Tokyo, Nov 22, 2008
p1989
aVJapan v Kazakhstan at Osaka, Apr 25, 2009
p1990
aVJapan v Kazakhstan at Osaka, Apr 25, 2009
p1991
aVJapan v Kazakhstan at Osaka, Apr 25, 2009
p1992
aVJapan v Kazakhstan at Osaka, Apr 25, 2009
p1993
aVJapan v Kazakhstan at Osaka, Apr 25, 2009
p1994
aVHong Kong v Japan at Hong Kong, May 2, 2009
p1995
aVSingapore v Japan at Singapore, May 23, 2009
p1996
aVJapan v Canada at Miyagi, Nov 15, 2009
p1997
aVJapan v Canada at Miyagi, Nov 15, 2009
p1998
aVJapan v Canada at Miyagi, Nov 15, 2009
p1999
aVJapan v Canada at Tokyo, Nov 21, 2009
p2000
aVJapan v Canada at Tokyo, Nov 21, 2009
p2001
aVKorea v Japan at Daegu, May 1, 2010
p2002
aVKorea v Japan at Daegu, May 1, 2010
p2003
aVKorea v Japan at Daegu, May 1, 2010
p2004
aVKorea v Japan at Daegu, May 1, 2010
p2005
aVJapan v Arabian Gulf at Tokyo, May 8, 2010
p2006
aVJapan v Arabian Gulf at Tokyo, May 8, 2010
p2007
aVJapan v Arabian Gulf at Tokyo, May 8, 2010
p2008
aVJapan v Russia at Tokyo, Nov 6, 2010
p2009
aVJapan v Russia at Tokyo, Nov 6, 2010
p2010
aVHong Kong v Japan at Hong Kong, Apr 30, 2011
p2011
aVHong Kong v Japan at Hong Kong, Apr 30, 2011
p2012
aVHong Kong v Japan at Hong Kong, Apr 30, 2011
p2013
aVUnited Arab Emirates v Japan at Dubai, May 13, 2011
p2014
aVSri Lanka v Japan at Colombo, May 21, 2011
p2015
aVJapan v Samoa at Tokyo, Jul 2, 2011
p2016
aVJapan v Samoa at Tokyo, Jul 2, 2011
p2017
aVKazakhstan v Japan at Almaty, Apr 28, 2012
p2018
aVKazakhstan v Japan at Almaty, Apr 28, 2012
p2019
aVKazakhstan v Japan at Almaty, Apr 28, 2012
p2020
aVKazakhstan v Japan at Almaty, Apr 28, 2012
p2021
aVKazakhstan v Japan at Almaty, Apr 28, 2012
p2022
aVKazakhstan v Japan at Almaty, Apr 28, 2012
p2023
aVKazakhstan v Japan at Almaty, Apr 28, 2012
p2024
aVKazakhstan v Japan at Almaty, Apr 28, 2012
p2025
aVKazakhstan v Japan at Almaty, Apr 28, 2012
p2026
aVKazakhstan v Japan at Almaty, Apr 28, 2012
p2027
aVJapan v United Arab Emirates at Fukuoka, May 5, 2012
p2028
aVJapan v United Arab Emirates at Fukuoka, May 5, 2012
p2029
aVJapan v United Arab Emirates at Fukuoka, May 5, 2012
p2030
aVJapan v United Arab Emirates at Fukuoka, May 5, 2012
p2031
aVJapan v Tonga at Tokyo, Jun 10, 2012
p2032
aVRomania v Japan at Bucharest, Nov 10, 2012
p2033
aVJapan v Philippines at Fukuoka, Apr 20, 2013
p2034
aVJapan v Philippines at Fukuoka, Apr 20, 2013
p2035
aVJapan v Philippines at Fukuoka, Apr 20, 2013
p2036
aVJapan v Philippines at Fukuoka, Apr 20, 2013
p2037
aVUnited Arab Emirates v Japan at Dubai, May 10, 2013
p2038
aVUnited Arab Emirates v Japan at Dubai, May 10, 2013
p2039
aVUnited Arab Emirates v Japan at Dubai, May 10, 2013
p2040
aVJapan v Russia at Colwyn Bay, Nov 15, 2013
p2041
aVPhilippines v Japan at Silangan, May 3, 2014
p2042
aVPhilippines v Japan at Silangan, May 3, 2014
p2043
aVPhilippines v Japan at Silangan, May 3, 2014
p2044
aVPhilippines v Japan at Silangan, May 3, 2014
p2045
aVPhilippines v Japan at Silangan, May 3, 2014
p2046
aVRomania v Japan at Bucharest, Nov 15, 2014
p2047
aVRomania v Japan at Bucharest, Nov 15, 2014
p2048
aVRomania v Japan at Bucharest, Nov 15, 2014
p2049
aVGeorgia v Japan at Tbilisi, Nov 23, 2014
p2050
aVKorea v Japan at Incheon, Apr 18, 2015
p2051
aVKorea v Japan at Incheon, Apr 18, 2015
p2052
aVKorea v Japan at Incheon, Apr 18, 2015
p2053
aVCanada v Japan at San Jose, Jul 18, 2015
p2054
aVJapan v Uruguay at Fukuoka, Aug 22, 2015
p2055
aVJapan v Korea at Kanagawa, Apr 30, 2016
p2056
aVJapan v Korea at Kanagawa, Apr 30, 2016
p2057
aVJapan v Korea at Kanagawa, Apr 30, 2016
p2058
aVJapan v Korea at Kanagawa, Apr 30, 2016
p2059
aVJapan v Korea at Kanagawa, Apr 30, 2016
p2060
aVJapan v Korea at Kanagawa, Apr 30, 2016
p2061
aVJapan v Korea at Kanagawa, Apr 30, 2016
p2062
aVJapan v Korea at Kanagawa, Apr 30, 2016
p2063
aVJapan v Korea at Kanagawa, Apr 30, 2016
p2064
aVJapan v Korea at Kanagawa, Apr 30, 2016
p2065
aVJapan v Korea at Kanagawa, Apr 30, 2016
p2066
aVJapan v Korea at Kanagawa, Apr 30, 2016
p2067
aVJapan v Korea at Kanagawa, Apr 30, 2016
p2068
aVJapan v Korea at Kanagawa, Apr 30, 2016
p2069
aVJapan v Korea at Kanagawa, Apr 30, 2016
p2070
aVJapan v Korea at Kanagawa, Apr 30, 2016
p2071
aVJapan v Korea at Kanagawa, Apr 30, 2016
p2072
aVHong Kong v Japan at Hong Kong, May 7, 2016
p2073
aVHong Kong v Japan at Hong Kong, May 7, 2016
p2074
aVKorea v Japan at Incheon, May 21, 2016
p2075
aVKorea v Japan at Incheon, May 21, 2016
p2076
aVKorea v Japan at Incheon, May 21, 2016
p2077
aVKorea v Japan at Incheon, May 21, 2016
p2078
aVKorea v Japan at Incheon, May 21, 2016
p2079
aVCanada v Japan at Vancouver, Jun 11, 2016
p2080
aVCanada v Japan at Vancouver, Jun 11, 2016
p2081
aVCanada v Japan at Vancouver, Jun 11, 2016
p2082
aVCanada v Japan at Vancouver, Jun 11, 2016
p2083
aVCanada v Japan at Vancouver, Jun 11, 2016
p2084
aVJapan v Argentina at Tokyo, Nov 5, 2016
p2085
aVJapan v Argentina at Tokyo, Nov 5, 2016
p2086
aVJapan v Argentina at Tokyo, Nov 5, 2016
p2087
aVJapan v Argentina at Tokyo, Nov 5, 2016
p2088
aVJapan v Argentina at Tokyo, Nov 5, 2016
p2089
aVJapan v Argentina at Tokyo, Nov 5, 2016
p2090
aVJapan v Argentina at Tokyo, Nov 5, 2016
p2091
aVJapan v Argentina at Tokyo, Nov 5, 2016
p2092
aVJapan v Argentina at Tokyo, Nov 5, 2016
p2093
aVJapan v Argentina at Tokyo, Nov 5, 2016
p2094
aVJapan v Argentina at Tokyo, Nov 5, 2016
p2095
aVJapan v Argentina at Tokyo, Nov 5, 2016
p2096
aVJapan v Argentina at Tokyo, Nov 5, 2016
p2097
aVGeorgia v Japan at Tbilisi, Nov 12, 2016
p2098
aVGeorgia v Japan at Tbilisi, Nov 12, 2016
p2099
aVWales v Japan at Millennium Stadium, Nov 19, 2016
p2100
aVCanada v England A at Vancouver, Jun 14, 2003
p2101
aVCanada v England A at Vancouver, Jun 14, 2003
p2102
aVCanada v England A at Vancouver, Jun 14, 2003
p2103
aVCanada v England A at Vancouver, Jun 14, 2003
p2104
aVCanada v United States of America at Vancouver, Jun 18, 2003
p2105
aVCanada v New Zealand Maori at Calgary, Jul 26, 2003
p2106
aVCanada v New Zealand Maori at Calgary, Jul 26, 2003
p2107
aVCanada v New Zealand Maori at Calgary, Jul 26, 2003
p2108
aVCanada v Uruguay at Buenos Aires, Aug 23, 2003
p2109
aVCanada v United States of America at Tokyo, May 27, 2004
p2110
aVCanada v United States of America at Tokyo, May 27, 2004
p2111
aVCanada v United States of America at Tokyo, May 27, 2004
p2112
aVCanada v United States of America at Tokyo, May 27, 2004
p2113
aVCanada v United States of America at Tokyo, May 27, 2004
p2114
aVCanada v United States of America at Tokyo, May 27, 2004
p2115
aVCanada v United States of America at Tokyo, May 27, 2004
p2116
aVCanada v United States of America at Tokyo, May 27, 2004
p2117
aVCanada v United States of America at Tokyo, May 27, 2004
p2118
aVCanada v United States of America at Tokyo, May 27, 2004
p2119
aVCanada v United States of America at Tokyo, May 27, 2004
p2120
aVCanada v United States of America at Tokyo, May 27, 2004
p2121
aVCanada v United States of America at Tokyo, May 27, 2004
p2122
aVCanada v United States of America at Tokyo, May 27, 2004
p2123
aVJapan v Canada at Tokyo, May 30, 2004
p2124
aVCanada v England A at Calgary, Jun 13, 2004
p2125
aVCanada v England A at Calgary, Jun 13, 2004
p2126
aVCanada v England A at Calgary, Jun 13, 2004
p2127
aVCanada v England A at Calgary, Jun 13, 2004
p2128
aVEngland v Canada at Twickenham, Nov 13, 2004
p2129
aVCanada v United States of America at Tokyo, May 25, 2005
p2130
aVCanada v United States of America at Tokyo, May 25, 2005
p2131
aVCanada v United States of America at Tokyo, May 25, 2005
p2132
aVCanada v United States of America at Tokyo, May 25, 2005
p2133
aVJapan v Canada at Tokyo, May 29, 2005
p2134
aVJapan v Canada at Tokyo, May 29, 2005
p2135
aVJapan v Canada at Tokyo, May 29, 2005
p2136
aVJapan v Canada at Tokyo, May 29, 2005
p2137
aVCanada v Wales at Toronto, Jun 11, 2005
p2138
aVCanada v England XV at Edmonton, Jun 19, 2005
p2139
aVCanada v England XV at Edmonton, Jun 19, 2005
p2140
aVCanada v England XV at Edmonton, Jun 19, 2005
p2141
aVCanada v England XV at Edmonton, Jun 19, 2005
p2142
aVCanada v England XV at Edmonton, Jun 19, 2005
p2143
aVCanada v United States of America at Edmonton, Jun 26, 2005
p2144
aVCanada v Argentina at Calgary, Jul 2, 2005
p2145
aVCanada v Argentina at Calgary, Jul 2, 2005
p2146
aVFrance v Canada at Nantes, Nov 12, 2005
p2147
aVFrance v Canada at Nantes, Nov 12, 2005
p2148
aVRomania v Canada at Bucharest, Nov 19, 2005
p2149
aVRomania v Canada at Bucharest, Nov 19, 2005
p2150
aVCanada v Scotland A at Nepean, Jun 7, 2006
p2151
aVCanada v Scotland A at Nepean, Jun 7, 2006
p2152
aVCanada v Scotland A at Nepean, Jun 7, 2006
p2153
aVCanada v Scotland A at Nepean, Jun 7, 2006
p2154
aVCanada v England A at Toronto, Jun 10, 2006
p2155
aVCanada v England A at Toronto, Jun 10, 2006
p2156
aVCanada v England A at Toronto, Jun 10, 2006
p2157
aVCanada v England A at Toronto, Jun 10, 2006
p2158
aVBarbados v Canada at Bridgetown, Jun 24, 2006
p2159
aVWales v Canada at Millennium Stadium, Nov 17, 2006
p2160
aVCanada v United States of America at Twickenham, Jun 2, 2007
p2161
aVCanada v United States of America at Twickenham, Jun 2, 2007
p2162
aVAustralia v Canada at Bordeaux, Sep 29, 2007
p2163
aVUnited States of America v Canada at Chicago, Jun 21, 2008
p2164
aVUnited States of America v Canada at Chicago, Jun 21, 2008
p2165
aVUnited States of America v Canada at Chicago, Jun 21, 2008
p2166
aVUnited States of America v Canada at Chicago, Jun 21, 2008
p2167
aVPortugal v Canada at Lisbon, Nov 1, 2008
p2168
aVPortugal v Canada at Lisbon, Nov 1, 2008
p2169
aVPortugal v Canada at Lisbon, Nov 1, 2008
p2170
aVPortugal v Canada at Lisbon, Nov 1, 2008
p2171
aVIreland v Canada at Limerick, Nov 8, 2008
p2172
aVIreland v Canada at Limerick, Nov 8, 2008
p2173
aVIreland v Canada at Limerick, Nov 8, 2008
p2174
aVScotland v Canada at Aberdeen, Nov 22, 2008
p2175
aVScotland v Canada at Aberdeen, Nov 22, 2008
p2176
aVCanada v Ireland at Vancouver, May 23, 2009
p2177
aVCanada v Ireland at Vancouver, May 23, 2009
p2178
aVCanada v Ireland at Vancouver, May 23, 2009
p2179
aVCanada v Wales at Toronto, May 30, 2009
p2180
aVCanada v Georgia at Glendale, Jun 6, 2009
p2181
aVJapan v Canada at Miyagi, Nov 15, 2009
p2182
aVJapan v Canada at Miyagi, Nov 15, 2009
p2183
aVCanada v Russia at Vancouver, Nov 28, 2009
p2184
aVCanada v Russia at Vancouver, Nov 28, 2009
p2185
aVCanada v Russia at Vancouver, Nov 28, 2009
p2186
aVCanada v Russia at Vancouver, Nov 28, 2009
p2187
aVCanada v Uruguay at Glendale, Jun 5, 2010
p2188
aVBelgium v Canada at Brussels, Nov 6, 2010
p2189
aVBelgium v Canada at Brussels, Nov 6, 2010
p2190
aVBelgium v Canada at Brussels, Nov 6, 2010
p2191
aVBelgium v Canada at Brussels, Nov 6, 2010
p2192
aVBelgium v Canada at Brussels, Nov 6, 2010
p2193
aVBelgium v Canada at Brussels, Nov 6, 2010
p2194
aVCanada v Russia at Esher, Jun 8, 2011
p2195
aVCanada v United States of America at Kingston, Jun 9, 2012
p2196
aVCanada v United States of America at Kingston, Jun 9, 2012
p2197
aVCanada v United States of America at Kingston, Jun 9, 2012
p2198
aVCanada v Samoa at Colwyn Bay, Nov 9, 2012
p2199
aVCanada v Samoa at Colwyn Bay, Nov 9, 2012
p2200
aVCanada v Russia at Colwyn Bay, Nov 17, 2012
p2201
aVCanada v United States of America at Edmonton, May 25, 2013
p2202
aVCanada v United States of America at Edmonton, May 25, 2013
p2203
aVJapan v Canada at Nagoya, Jun 19, 2013
p2204
aVJapan v Canada at Nagoya, Jun 19, 2013
p2205
aVJapan v Canada at Nagoya, Jun 19, 2013
p2206
aVGeorgia v Canada at Tbilisi, Nov 9, 2013
p2207
aVGeorgia v Canada at Tbilisi, Nov 9, 2013
p2208
aVPortugal v Canada at Lisbon, Nov 23, 2013
p2209
aVPortugal v Canada at Lisbon, Nov 23, 2013
p2210
aVCanada v Japan at Vancouver, Jun 7, 2014
p2211
aVCanada v Namibia at Colwyn Bay, Nov 7, 2014
p2212
aVCanada v Samoa at Vannes, Nov 14, 2014
p2213
aVCanada v Japan at San Jose, Jul 18, 2015
p2214
aVCanada v Japan at San Jose, Jul 18, 2015
p2215
aVCanada v Samoa at Toronto, Jul 29, 2015
p2216
aVCanada v Uruguay at Langford, Feb 6, 2016
p2217
aVCanada v Uruguay at Langford, Feb 6, 2016
p2218
aVCanada v Uruguay at Langford, Feb 6, 2016
p2219
aVCanada v Uruguay at Langford, Feb 6, 2016
p2220
aVCanada v Uruguay at Langford, Feb 6, 2016
p2221
aVCanada v Uruguay at Langford, Feb 6, 2016
p2222
aVCanada v Uruguay at Langford, Feb 6, 2016
p2223
aVUnited States of America v Canada at TX, Feb 13, 2016
p2224
aVUnited States of America v Canada at TX, Feb 13, 2016
p2225
aVUnited States of America v Canada at TX, Feb 13, 2016
p2226
aVUnited States of America v Canada at TX, Feb 13, 2016
p2227
aVCanada v Brazil at Langford, Feb 20, 2016
p2228
aVCanada v Brazil at Langford, Feb 20, 2016
p2229
aVCanada v Brazil at Langford, Feb 20, 2016
p2230
aVCanada v Brazil at Langford, Feb 20, 2016
p2231
aVCanada v Brazil at Langford, Feb 20, 2016
p2232
aVCanada v Brazil at Langford, Feb 20, 2016
p2233
aVCanada v Brazil at Langford, Feb 20, 2016
p2234
aVChile v Canada at  Santiago, Mar 5, 2016
p2235
aVCanada v Japan at Vancouver, Jun 11, 2016
p2236
aVCanada v Russia at Calgary, Jun 18, 2016
p2237
aVIreland v Canada at Lansdowne Road, Nov 12, 2016
p2238
aVRomania v Canada at Bucharest, Nov 19, 2016
p2239
aVCanada v Chile at Langford, Feb 11, 2017
p2240
aVCanada v Chile at Langford, Feb 11, 2017
p2241
aVCanada v Chile at Langford, Feb 11, 2017
p2242
aVCanada v Chile at Langford, Feb 11, 2017
p2243
aVCanada v Chile at Langford, Feb 11, 2017
p2244
aVCanada v Chile at Langford, Feb 11, 2017
p2245
aVCanada v Chile at Langford, Feb 11, 2017
p2246
aVCanada v Chile at Langford, Feb 11, 2017
p2247
aVCanada v United States of America at Vancouver, Feb 18, 2017
p2248
aVUruguay v Canada at Punte de l'Este, Feb 25, 2017
p2249
aVBrazil v Canada at Pacaembu, Mar 3, 2017
p2250
aVCanada v United States of America at Edmonton, Jun 17, 2006
p2251
aVUnited States of America v Barbados at Santa Clara, Jul 1, 2006
p2252
aVCanada v United States of America at St John's, Aug 12, 2006
p2253
aVCanada v United States of America at St John's, Aug 12, 2006
p2254
aVCanada v United States of America at St John's, Aug 12, 2006
p2255
aVCanada v United States of America at St John's, Aug 12, 2006
p2256
aVUruguay v United States of America at Montevideo, Sep 30, 2006
p2257
aVUruguay v United States of America at Montevideo, Sep 30, 2006
p2258
aVEngland A v United States of America at Stockport, May 18, 2007
p2259
aVEngland A v United States of America at Stockport, May 18, 2007
p2260
aVEngland A v United States of America at Stockport, May 18, 2007
p2261
aVEngland A v United States of America at Stockport, May 18, 2007
p2262
aVEngland A v United States of America at Stockport, May 18, 2007
p2263
aVEngland A v United States of America at Stockport, May 18, 2007
p2264
aVScotland A v United States of America at Henley, May 23, 2007
p2265
aVScotland A v United States of America at Henley, May 23, 2007
p2266
aVEngland v United States of America at Lens, Sep 8, 2007
p2267
aVEngland v United States of America at Lens, Sep 8, 2007
p2268
aVEngland v United States of America at Lens, Sep 8, 2007
p2269
aVSouth Africa v United States of America at Montpellier, Sep 30, 2007
p2270
aVSouth Africa v United States of America at Montpellier, Sep 30, 2007
p2271
aVEngland A v United States of America at Ottawa, Jun 7, 2008
p2272
aVEngland A v United States of America at Ottawa, Jun 7, 2008
p2273
aVEngland A v United States of America at Ottawa, Jun 7, 2008
p2274
aVEngland A v United States of America at Ottawa, Jun 7, 2008
p2275
aVEngland A v United States of America at Ottawa, Jun 7, 2008
p2276
aVEngland A v United States of America at Ottawa, Jun 7, 2008
p2277
aVIreland A v United States of America at Kingston, Jun 11, 2008
p2278
aVIreland A v United States of America at Kingston, Jun 11, 2008
p2279
aVUnited States of America v Uruguay at Sandy, Nov 8, 2008
p2280
aVUnited States of America v Uruguay at Sandy, Nov 8, 2008
p2281
aVUnited States of America v Uruguay at Sandy, Nov 8, 2008
p2282
aVUnited States of America v Uruguay at Sandy, Nov 8, 2008
p2283
aVJapan v United States of America at Nagoya, Nov 16, 2008
p2284
aVJapan v United States of America at Nagoya, Nov 16, 2008
p2285
aVJapan v United States of America at Tokyo, Nov 22, 2008
p2286
aVJapan v United States of America at Tokyo, Nov 22, 2008
p2287
aVUnited States of America v Ireland at Santa Clara, May 31, 2009
p2288
aVUnited States of America v Ireland at Santa Clara, May 31, 2009
p2289
aVUnited States of America v Ireland at Santa Clara, May 31, 2009
p2290
aVUnited States of America v Ireland at Santa Clara, May 31, 2009
p2291
aVUnited States of America v Ireland at Santa Clara, May 31, 2009
p2292
aVUnited States of America v Ireland at Santa Clara, May 31, 2009
p2293
aVUnited States of America v Ireland at Santa Clara, May 31, 2009
p2294
aVUnited States of America v Ireland at Santa Clara, May 31, 2009
p2295
aVUnited States of America v Wales at Chicago, Jun 6, 2009
p2296
aVUnited States of America v Georgia at Commerce City, Jun 21, 2009
p2297
aVUruguay v United States of America at Montevideo, Nov 14, 2009
p2298
aVUruguay v United States of America at Montevideo, Nov 14, 2009
p2299
aVUnited States of America v Uruguay at Lauderhill, Nov 21, 2009
p2300
aVUnited States of America v Russia at Glendale, Jun 5, 2010
p2301
aVUnited States of America v Russia at Glendale, Jun 5, 2010
p2302
aVUnited States of America v Russia at Glendale, Jun 5, 2010
p2303
aVUnited States of America v Russia at Glendale, Jun 5, 2010
p2304
aVPortugal v United States of America at Lisbon, Nov 13, 2010
p2305
aVGeorgia v United States of America at Tbilisi, Nov 27, 2010
p2306
aVTonga v United States of America at Esher, Jun 8, 2011
p2307
aVTonga v United States of America at Esher, Jun 8, 2011
p2308
aVTonga v United States of America at Esher, Jun 8, 2011
p2309
aVRussia v United States of America at Worcester, Jun 18, 2011
p2310
aVJapan v United States of America at Tokyo, Aug 21, 2011
p2311
aVJapan v United States of America at Tokyo, Aug 21, 2011
p2312
aVCanada v United States of America at Kingston, Jun 9, 2012
p2313
aVCanada v United States of America at Kingston, Jun 9, 2012
p2314
aVCanada v United States of America at Kingston, Jun 9, 2012
p2315
aVCanada v United States of America at Kingston, Jun 9, 2012
p2316
aVUnited States of America v Georgia at Glendale, Jun 16, 2012
p2317
aVUnited States of America v Georgia at Glendale, Jun 16, 2012
p2318
aVRussia v United States of America at Colwyn Bay, Nov 9, 2012
p2319
aVRussia v United States of America at Colwyn Bay, Nov 9, 2012
p2320
aVRussia v United States of America at Colwyn Bay, Nov 9, 2012
p2321
aVRussia v United States of America at Colwyn Bay, Nov 9, 2012
p2322
aVTonga v United States of America at Colwyn Bay, Nov 17, 2012
p2323
aVRomania v United States of America at Bucharest, Nov 24, 2012
p2324
aVCanada v United States of America at Edmonton, May 25, 2013
p2325
aVCanada v United States of America at Edmonton, May 25, 2013
p2326
aVCanada v United States of America at Edmonton, May 25, 2013
p2327
aVUnited States of America v Tonga at Carson, Jun 14, 2013
p2328
aVFiji v United States of America at Nagoya, Jun 19, 2013
p2329
aVUnited States of America v Canada at Charleston, Aug 17, 2013
p2330
aVUnited States of America v Canada at Charleston, Aug 17, 2013
p2331
aVGeorgia v United States of America at Rustavi, Nov 16, 2013
p2332
aVGeorgia v United States of America at Rustavi, Nov 16, 2013
p2333
aVRussia v United States of America at Barnet, Nov 23, 2013
p2334
aVRussia v United States of America at Barnet, Nov 23, 2013
p2335
aVUruguay v United States of America at Montevideo, Mar 22, 2014
p2336
aVUruguay v United States of America at Montevideo, Mar 22, 2014
p2337
aVUruguay v United States of America at Montevideo, Mar 22, 2014
p2338
aVUnited States of America v Scotland at Houston, Jun 7, 2014
p2339
aVUnited States of America v Scotland at Houston, Jun 7, 2014
p2340
aVUnited States of America v Canada at Sacramento, Jun 21, 2014
p2341
aVUnited States of America v New Zealand at Chicago, Nov 1, 2014
p2342
aVRomania v United States of America at Bucharest, Nov 8, 2014
p2343
aVRomania v United States of America at Bucharest, Nov 8, 2014
p2344
aVRomania v United States of America at Bucharest, Nov 8, 2014
p2345
aVRomania v United States of America at Bucharest, Nov 8, 2014
p2346
aVFiji v United States of America at Vannes, Nov 21, 2014
p2347
aVUnited States of America v Samoa at San Jose, Jul 18, 2015
p2348
aVUnited States of America v Samoa at San Jose, Jul 18, 2015
p2349
aVUnited States of America v Japan at Sacramento, Jul 24, 2015
p2350
aVTonga v United States of America at Toronto, Jul 29, 2015
p2351
aVCanada v United States of America at Nepean, Aug 22, 2015
p2352
aVSouth Africa v United States of America at London, Oct 7, 2015
p2353
aVUnited States of America v Canada at TX, Feb 13, 2016
p2354
aVUnited States of America v Canada at TX, Feb 13, 2016
p2355
aVUnited States of America v Canada at TX, Feb 13, 2016
p2356
aVUnited States of America v Canada at TX, Feb 13, 2016
p2357
aVUnited States of America v Canada at TX, Feb 13, 2016
p2358
aVUnited States of America v Canada at TX, Feb 13, 2016
p2359
aVUnited States of America v Canada at TX, Feb 13, 2016
p2360
aVUnited States of America v Canada at TX, Feb 13, 2016
p2361
aVUnited States of America v Canada at TX, Feb 13, 2016
p2362
aVUnited States of America v Canada at TX, Feb 13, 2016
p2363
aVUnited States of America v Canada at TX, Feb 13, 2016
p2364
aVUnited States of America v Canada at TX, Feb 13, 2016
p2365
aVUnited States of America v Canada at TX, Feb 13, 2016
p2366
aVUnited States of America v Canada at TX, Feb 13, 2016
p2367
aVUnited States of America v Chile at Fort Lauderdale, Feb 20, 2016
p2368
aVUnited States of America v Chile at Fort Lauderdale, Feb 20, 2016
p2369
aVUnited States of America v Chile at Fort Lauderdale, Feb 20, 2016
p2370
aVUnited States of America v Chile at Fort Lauderdale, Feb 20, 2016
p2371
aVUnited States of America v Chile at Fort Lauderdale, Feb 20, 2016
p2372
aVUnited States of America v Chile at Fort Lauderdale, Feb 20, 2016
p2373
aVBrazil v United States of America at Sao Paulo, Feb 27, 2016
p2374
aVBrazil v United States of America at Sao Paulo, Feb 27, 2016
p2375
aVBrazil v United States of America at Sao Paulo, Feb 27, 2016
p2376
aVUruguay v United States of America at Montevideo, Mar 5, 2016
p2377
aVUnited States of America v Italy at San Jose, Jun 18, 2016
p2378
aVUnited States of America v Italy at San Jose, Jun 18, 2016
p2379
aVUnited States of America v Italy at San Jose, Jun 18, 2016
p2380
aVUnited States of America v Russia at Sacramento, Jun 25, 2016
p2381
aVUnited States of America v Russia at Sacramento, Jun 25, 2016
p2382
aVUnited States of America v Russia at Sacramento, Jun 25, 2016
p2383
aVRomania v United States of America at Bucharest, Nov 12, 2016
p2384
aVRomania v United States of America at Bucharest, Nov 12, 2016
p2385
aVRomania v United States of America at Bucharest, Nov 12, 2016
p2386
aVRomania v United States of America at Bucharest, Nov 12, 2016
p2387
aVRomania v United States of America at Bucharest, Nov 12, 2016
p2388
aVRomania v United States of America at Bucharest, Nov 12, 2016
p2389
aVTonga v United States of America at San Sebastian, Nov 19, 2016
p2390
aVUnited States of America v Uruguay at San Antonio, Feb 4, 2017
p2391
aVUnited States of America v Uruguay at San Antonio, Feb 4, 2017
p2392
aVUnited States of America v Uruguay at San Antonio, Feb 4, 2017
p2393
aVUnited States of America v Uruguay at San Antonio, Feb 4, 2017
p2394
aVUnited States of America v Uruguay at San Antonio, Feb 4, 2017
p2395
aVUnited States of America v Brazil at TX, Feb 11, 2017
p2396
aVUnited States of America v Brazil at TX, Feb 11, 2017
p2397
aVCanada v United States of America at Vancouver, Feb 18, 2017
p2398
aVChile v United States of America at Santiago, Feb 25, 2017
p2399
aVChile v United States of America at Santiago, Feb 25, 2017
p2400
a.