(lp1
S'Steve Thompson'
p2
aS'Nick Duncombe'
p3
aS'Henry Paul'
p4
aS'Geoff Appleford'
p5
aS'Phil Christophers'
p6
aS'Alex Codling'
p7
aS'Michael Horak'
p8
aS'Ben Johnston'
p9
aS'James Simpson-Daniel'
p10
aS'Robbie Morris'
p11
aS'Ollie Smith'
p12
aS'Mike Worsley'
p13
aS'Stuart Abbott'
p14
aS'Dan Scarbrough'
p15
aS'Chris Jones'
p16
aS'Matt Stevens'
p17
aS'Michael Lipman'
p18
aS'Andy Titterrell'
p19
aS'Tim Payne'
p20
aS'Mark Cueto'
p21
aS'Andy Hazell'
p22
aS'Andrew Sheridan'
p23
aS'Hugh Vyvyan'
p24
aS'Harry Ellis'
p25
aS'Mathew Tait'
p26
aS'James Forrester'
p27
aS'Duncan Bell'
p28
aS'Andy Goode'
p29
aS'Mark van Gisbergen'
p30
aS'Louis Deacon'
p31
aS'Perry Freshwater'
p32
aS'Lee Mears'
p33
aS'Tom Varndell'
p34
aS'Alex Brown'
p35
aS'Magnus Lund'
p36
aS'Peter Richards'
p37
aS'George Chuter'
p38
aS'Nick Walshe'
p39
aS'Anthony Allen'
p40
aS'Shaun Perry'
p41
aS'Paul Sackey'
p42
aS'Toby Flood'
p43
aS'Andy Farrell'
p44
aS'Olly Morgan'
p45
aS'Tom Rees'
p46
aS'Nick Easter'
p47
aS'David Strettle'
p48
aS'Shane Geraghty'
p49
aS'James Haskell'
p50
aS'Stuart Turner'
p51
aS'Mike Brown'
p52
aS'Dean Schofield'
p53
aS'Matt Cairns'
p54
aS'Darren Crompton'
p55
aS'Roy Winters'
p56
aS'Ben Skirving'
p57
aS'Nick Abendanon'
p58
aS'Dan Hipkiss'
p59
aS'Luke Narraway'
p60
aS'Danny Cipriani'
p61
aS'Lesley Vainikolo'
p62
aS'Richard Wigglesworth'
p63
aS'Tom Croft'
p64
aS'Paul Hodgson'
p65
aS'Topsy Ojo'
p66
aS'Danny Care'
p67
aS'David Paice'
p68
aS'Jason Hobson'
p69
aS'Delon Armitage'
p70
aS'Riki Flutey'
p71
aS'Nick Kennedy'
p72
aS'Ugo Monye'
p73
aS'Dylan Hartley'
p74
aS'Jordan Crane'
p75
aS'Steffon Armitage'
p76
aS'Ben Foden'
p77
aS'Matt Banahan'
p78
aS'Tom May'
p79
aS'David Wilson'
p80
aS'Sam Vesty'
p81
aS'Chris Robshaw'
p82
aS'Ayoola Erinle'
p83
aS'Courtney Lawes'
p84
aS'Paul Doran Jones'
p85
aS'Dan Cole'
p86
aS'Matt Mullan'
p87
aS'Ben Youngs'
p88
aS'Chris Ashton'
p89
aS'Shontayne Hape'
p90
aS'Dave Attwood'
p91
aS'Hendre Fourie'
p92
aS'Tom Wood'
p93
aS'Alex Corbisiero'
p94
aS'Manu Tuilagi'
p95
aS'Mouritz Botha'
p96
aS'Charlie Sharples'
p97
aS'Joe Simpson'
p98
aS'Brad Barritt'
p99
aS'Phil Dowson'
p100
aS'Owen Farrell'
p101
aS'Lee Dickson'
p102
aS'Ben Morgan'
p103
aS'Geoff Parling'
p104
aS'Jordan Turner-Hall'
p105
aS'Rob Webber'
p106
aS'Tom Johnson'
p107
aS'Joe Marler'
p108
aS'Jonathan Joseph'
p109
aS'Alex Goode'
p110
aS'Thomas Waldrom'
p111
aS'Tom Youngs'
p112
aS'Joe Launchbury'
p113
aS'Mako Vunipola'
p114
aS'Freddie Burns'
p115
aS'Billy Twelvetrees'
p116
aS'Matt Kvesic'
p117
aS'Christian Wade'
p118
aS'Kyle Eastmond'
p119
aS'Henry Thomas'
p120
aS'Billy Vunipola'
p121
aS'Jonny May'
p122
aS'Marland Yarde'
p123
aS'Stephen Myler'
p124
aS'Joel Tomkins'
p125
aS'Luther Burrell'
p126
aS'Jack Nowell'
p127
aS'George Ford'
p128
aS'Joe Gray'
p129
aS'Chris Pennell'
p130
aS'Kieran Brookes'
p131
aS'Semesa Rokoduguni'
p132
aS'George Kruis'
p133
aS'Anthony Watson'
p134
aS'Sam Burgess'
p135
aS'Calum Clark'
p136
aS'Henry Slade'
p137
aS'Luke Cowan-Dickie'
p138
aS'Jamie George'
p139
aS'Jack Clifford'
p140
aS'Paul Hill'
p141
aS'Maro Itoje'
p142
aS'Elliot Daly'
p143
aS'Teimana Harrison'
p144
aS'Ollie Devoto'
p145
aS'Ellis Genge'
p146
aS'Tommy Taylor'
p147
aS'Nathan Hughes'
p148
aS'Kyle Sinckler'
p149
aS"Ben Te'o"
p150
aS'Charlie Ewels'
p151
aS'Budge Pountney'
p152
aS'Martin Leslie'
p153
aS'Iain Fairley'
p154
aS'Graeme Burns'
p155
aS'Steve Brotherstone'
p156
aS'James McLaren'
p157
aS'Robbie Russell'
p158
aS'Cameron Mather'
p159
aS'Chris Paterson'
p160
aS'Craig Moir'
p161
aS'Richard Metcalfe'
p162
aS'Jason White'
p163
aS'Ross Beattie'
p164
aS'Iain Fullarton'
p165
aS'Jon Petrie'
p166
aS'Graeme Beveridge'
p167
aS'Nathan Hines'
p168
aS'Steve Scott'
p169
aS'Alan Bulloch'
p170
aS'Jon Steel'
p171
aS'Simon Taylor'
p172
aS'Andrew Henderson'
p173
aS'Andrew Mower'
p174
aS'Gordon Ross'
p175
aS'Roland Reid'
p176
aS'Brendan Laney'
p177
aS'Mike Blair'
p178
aS'Andy Craig'
p179
aS'Rory Kerr'
p180
aS'Craig Smith'
p181
aS'Ben Hinshelwood'
p182
aS'Allan Jacobsen'
p183
aS'Donnie Macfadyen'
p184
aS'Marcus di Rollo'
p185
aS'Andy Hall'
p186
aS'Bruce Douglas'
p187
aS'Stuart Moffat'
p188
aS'Nikki Walker'
p189
aS'Gavin Kerr'
p190
aS'Kevin Utterson'
p191
aS'Simon Danielli'
p192
aS'Andrew Dall'
p193
aS'Dougie Hall'
p194
aS'Simon Webster'
p195
aS'Chris Cusiter'
p196
aS'Ally Hogg'
p197
aS'Tom Philip'
p198
aS'Dan Parks'
p199
aS'Sean Lamont'
p200
aS'Hugo Southwell'
p201
aS'Graeme Morrison'
p202
aS'Craig Hamilton'
p203
aS'Scott Gray'
p204
aS'Scott Macleod'
p205
aS'Ross Ford'
p206
aS'Alastair Kellock'
p207
aS'Jon Dunbar'
p208
aS'Rory Lamont'
p209
aS'Kelly Brown'
p210
aS'Scott Lawson'
p211
aS'Phil Godman'
p212
aS'Euan Murray'
p213
aS'Andy Wilson'
p214
aS'Ben MacDougall'
p215
aS'Sam Pinder'
p216
aS'Johnnie Beattie'
p217
aS'Rob Dewey'
p218
aS'David Callam'
p219
aS'Jim Hamilton'
p220
aS'Rory Lawson'
p221
aS'Alasdair Strokosch'
p222
aS'Fergus Thomson'
p223
aS'John Barclay'
p224
aS'Alasdair Dickinson'
p225
aS'Nick de Luca'
p226
aS'Ross Rennie'
p227
aS'Ben Cairns'
p228
aS'Thom Evans'
p229
aS'Mat Mustchin'
p230
aS'Max Evans'
p231
aS'Geoff Cross'
p232
aS'Moray Low'
p233
aS'Alex Grove'
p234
aS'Kyle Traynor'
p235
aS'Richie Vernon'
p236
aS'Alan MacDonald'
p237
aS'Richie Gray'
p238
aS'Ruaridh Jackson'
p239
aS'Greig Laidlaw'
p240
aS'Joe Ansbro'
p241
aS'Jack Cuthbert'
p242
aS'David Denton'
p243
aS'Lee Jones'
p244
aS'Stuart Hogg'
p245
aS'Ed Kalman'
p246
aS'Duncan Weir'
p247
aS'Matt Scott'
p248
aS'Jon Welsh'
p249
aS'Ryan Grant'
p250
aS'Tom Brown'
p251
aS'Tim Visser'
p252
aS'Tom Ryder'
p253
aS'Rob Harley'
p254
aS'Henry Pyrgos'
p255
aS'Tom Heathcote'
p256
aS'Sean Maitland'
p257
aS'Ryan Wilson'
p258
aS'Grant Gilchrist'
p259
aS'Alex Dunbar'
p260
aS'Pat MacArthur'
p261
aS'Greig Tonks'
p262
aS'Peter Horne'
p263
aS'Steven Lawrie'
p264
aS'Duncan Taylor'
p265
aS'Peter Murchie'
p266
aS'Tommy Seymour'
p267
aS'Tim Swinson'
p268
aS'Fraser Brown'
p269
aS'Jonny Gray'
p270
aS'Kieran Low'
p271
aS'Chris Fusaro'
p272
aS'Dougie Fife'
p273
aS'Blair Cowan'
p274
aS'Gordon Reid'
p275
aS'Finn Russell'
p276
aS'Alex Allan'
p277
aS'Kevin Bryce'
p278
aS'Grayson Hart'
p279
aS'Adam Ashe'
p280
aS'Tyrone Holmes'
p281
aS'Mark Bennett'
p282
aS'Sam Hidalgo-Clyne'
p283
aS'Ben Toolis'
p284
aS'Hamish Watson'
p285
aS'Hugh Blake'
p286
aS'Mike Cusack'
p287
aS'John Hardie'
p288
aS'Rory Hughes'
p289
aS'Stuart McInally'
p290
aS'Damien Hoyland'
p291
aS'Willem Nel'
p292
aS'Josh Strauss'
p293
aS'Zander Fagerson'
p294
aS'Rory Sutherland'
p295
aS'Huw Jones'
p296
aS'Allan Dell'
p297
aS'Magnus Bradbury'
p298
aS'Ali Price'
p299
aS'Simon Berghan'
p300
aS'Cornell du Preez'
p301
aS'Pat Duignan'
p302
aS'Girvan Dempsey'
p303
aS'Cieran Scally'
p304
aS'Matt Mostyn'
p305
aS"Brian O'Driscoll"
p306
aS'Tom Tierney'
p307
aS'Mike Mullins'
p308
aS'Bob Casey'
p309
aS"Gordon D'Arcy"
p310
aS'Angus McKeen'
p311
aS'Alan Quinlan'
p312
aS'Simon Easterby'
p313
aS'John Hayes'
p314
aS'Shane Horgan'
p315
aS"Ronan O'Gara"
p316
aS'Peter Stringer'
p317
aS'Peter McKenna'
p318
aS'David Wallace'
p319
aS'Guy Easterby'
p320
aS'Tyrone Howe'
p321
aS'Geordan Murphy'
p322
aS'Marcus Horan'
p323
aS'Frank Sheahan'
p324
aS'Gary Longwell'
p325
aS'Emmet Byrne'
p326
aS'Shane Byrne'
p327
aS"Mick O'Driscoll"
p328
aS'Jeremy Staunton'
p329
aS"Paul O'Connell"
p330
aS'Keith Gleeson'
p331
aS'John Kelly'
p332
aS'Leo Cullen'
p333
aS"Donncha O'Callaghan"
p334
aS'Mark McHugh'
p335
aS'Simon Best'
p336
aS'Anthony Horgan'
p337
aS'Aidan McCullen'
p338
aS'Paul Shields'
p339
aS'Gavin Duffy'
p340
aS"Johnny O'Connor"
p341
aS'Tommy Bowe'
p342
aS'Denis Leamy'
p343
aS'Matt McCullough'
p344
aS'Roger Wilson'
p345
aS'Kieran Campbell'
p346
aS'Trevor Hogan'
p347
aS'Bernard Jackman'
p348
aS'David Quinlan'
p349
aS'Kieran Lewis'
p350
aS'Neil Best'
p351
aS'Rory Best'
p352
aS'Andrew Trimble'
p353
aS'Jerry Flannery'
p354
aS'Eoin Reddan'
p355
aS'Isaac Boss'
p356
aS'Bryan Young'
p357
aS'Paddy Wallace'
p358
aS'Stephen Ferris'
p359
aS'Luke Fitzgerald'
p360
aS'Jamie Heaslip'
p361
aS'Brian Carney'
p362
aS'Tony Buckley'
p363
aS'Barry Murphy'
p364
aS"Tomas O'Leary"
p365
aS'Shane Jennings'
p366
aS'Rob Kearney'
p367
aS'Keith Earls'
p368
aS'Donnacha Ryan'
p369
aS'Tom Court'
p370
aS'Darren Cave'
p371
aS'Ian Dowling'
p372
aS'Ian Keatley'
p373
aS'John Muldoon'
p374
aS'Niall Ronan'
p375
aS'Ian Whitten'
p376
aS'Ryan Caldwell'
p377
aS'Mike Ross'
p378
aS'Denis Hurley'
p379
aS'Cian Healy'
p380
aS'Johnny Sexton'
p381
aS'Sean Cronin'
p382
aS"Sean O'Brien"
p383
aS'Kevin McLaughlin'
p384
aS'John Fogarty'
p385
aS'Dan Tuohy'
p386
aS'Chris Henry'
p387
aS'Rhys Ruddock'
p388
aS'Damien Varley'
p389
aS'Devin Toner'
p390
aS'Fergus McFadden'
p391
aS'Mike McCarthy'
p392
aS'Felix Jones'
p393
aS'Conor Murray'
p394
aS"Peter O'Mahony"
p395
aS'Declan Fitzpatrick'
p396
aS'Simon Zebo'
p397
aS'Ronan Loughney'
p398
aS'Richardt Strauss'
p399
aS'Michael Bent'
p400
aS'Iain Henderson'
p401
aS'Dave Kilcoyne'
p402
aS'Craig Gilroy'
p403
aS'Paddy Jackson'
p404
aS'Luke Marshall'
p405
aS'Ian Madigan'
p406
aS'Stephen Archer'
p407
aS'Paul Marshall'
p408
aS'Robbie Henshaw'
p409
aS'Stuart Olding'
p410
aS'Jamie Hagan'
p411
aS"Tommy O'Donnell"
p412
aS'Mike Sherry'
p413
aS'James Downey'
p414
aS'Jack McGrath'
p415
aS'Dave Kearney'
p416
aS'Marty Moore'
p417
aS'Jordi Murphy'
p418
aS'Robbie Diack'
p419
aS'Rodney Ah You'
p420
aS'Kieran Marmion'
p421
aS'James Cronin'
p422
aS'Rob Herring'
p423
aS'Noel Reid'
p424
aS'Jared Payne'
p425
aS'Dave Foley'
p426
aS'Dominic Ryan'
p427
aS'Robin Copeland'
p428
aS'Jack Conan'
p429
aS'Nathan White'
p430
aS'Tadhg Furlong'
p431
aS'CJ Stander'
p432
aS'Stuart McCloskey'
p433
aS'Josh van der Flier'
p434
aS'Ultan Dillane'
p435
aS'Finlay Bealham'
p436
aS'Quinn Roux'
p437
aS"Tiernan O'Halloran"
p438
aS'Sean Reidy'
p439
aS'Matt Healy'
p440
aS'Joey Carbery'
p441
aS'Billy Holland'
p442
aS"Jack O'Donoghue"
p443
aS'Garry Ringrose'
p444
aS'Niyi Adeolokun'
p445
aS'Dan Leavy'
p446
aS'Luke McGrath'
p447
aS'John Ryan'
p448
aS'James Tracy'
p449
aS'Niall Scannell'
p450
aS'Andrew Conway'
p451
aS'Matt Cardey'
p452
aS'Rhys Williams'
p453
aS'Deiniol Jones'
p454
aS'Iestyn Thomas'
p455
aS'James Griffiths'
p456
aS'Mark Jones'
p457
aS'Gareth Cooper'
p458
aS'Adrian Durston'
p459
aS'Andy Lloyd'
p460
aS'Gavin Thomas'
p461
aS'Gavin Henson'
p462
aS'Steve Jones'
p463
aS'Jamie Ringer'
p464
aS'Jamie Robinson'
p465
aS'Tom Shanklin'
p466
aS'Dwayne Peel'
p467
aS'Iestyn Harris'
p468
aS'Anthony Sullivan'
p469
aS'Duncan Jones'
p470
aS'Craig Morgan'
p471
aS'Andy Marinos'
p472
aS'Michael Owen'
p473
aS'Martyn Madden'
p474
aS'Richard Parks'
p475
aS'Ryan Powell'
p476
aS'Robert Sidoli'
p477
aS'Mefin Davies'
p478
aS'Gethin Jenkins'
p479
aS'Sonny Parker'
p480
aS'Dafydd Jones'
p481
aS'Vernon Cooper'
p482
aS'Ceri Sweeney'
p483
aS'Matthew Watkins'
p484
aS'Gareth Williams'
p485
aS'Jonathan Thomas'
p486
aS'Alix Popham'
p487
aS'Rhys Oakley'
p488
aS'Nicky Robinson'
p489
aS'Huw Bennett'
p490
aS'Adam Jones'
p491
aS'Nathan Brew'
p492
aS'Brent Cockbain'
p493
aS'Paul James'
p494
aS'Mike Phillips'
p495
aS'James Bater'
p496
aS'Jon Bryant'
p497
aS'Andy Williams'
p498
aS'Paul Young'
p499
aS'Hal Luscombe'
p500
aS'Jason Forster'
p501
aS'Ryan Jones'
p502
aS'Luke Charteris'
p503
aS'John Yapp'
p504
aS'Robin Sowden-Taylor'
p505
aS'Matthew Rees'
p506
aS'Ben Broster'
p507
aS'Richie Pugh'
p508
aS'Tal Selley'
p509
aS'T.Rhys Thomas'
p510
aS'Chris Czekaj'
p511
aS'Matt Jones'
p512
aS'Lee Byrne'
p513
aS'Chris Horsman'
p514
aS'Adam Jones'
p515
aS'Gareth Delve'
p516
aS'Barry Davies'
p517
aS'Ian Evans'
p518
aS'Alun Wyn Jones'
p519
aS'Richard Hibbard'
p520
aS'James Hook'
p521
aS'Rhys M. Thomas'
p522
aS'Gavin Evans'
p523
aS'Aled Brew'
p524
aS'Ceri Jones'
p525
aS'Scott Morgan'
p526
aS'Will James'
p527
aS'Tom James'
p528
aS'Morgan Stoddart'
p529
aS'Jamie Roberts'
p530
aS'Warren Fury'
p531
aS'Andrew Bishop'
p532
aS'Leigh Halfpenny'
p533
aS'Andy Powell'
p534
aS'Martin Roberts'
p535
aS'Dan Biggar'
p536
aS'Eifion Lewis-Roberts'
p537
aS'Bradley Davies'
p538
aS'Jonathan Davies'
p539
aS'Dan Evans'
p540
aS'Craig Mitchell'
p541
aS'Jonathan Spratt'
p542
aS'Sam Warburton'
p543
aS'Dan Lydiate'
p544
aS'Richie Rees'
p545
aS'Rhys Gill'
p546
aS'Tom Prydie'
p547
aS'Rob McCusker'
p548
aS'Tavis Knoyle'
p549
aS'Will Harries'
p550
aS'George North'
p551
aS'Rhys Priestland'
p552
aS'Josh Turnbull'
p553
aS'Ryan Bevington'
p554
aS'Taulupe Faletau'
p555
aS'Scott Andrews'
p556
aS'Lloyd Burns'
p557
aS'Scott Williams'
p558
aS'Justin Tipuric'
p559
aS'Lloyd Williams'
p560
aS'Ken Owens'
p561
aS'Alex Cuthbert'
p562
aS'Aaron Shingler'
p563
aS'Lou Reed'
p564
aS'Rhys Webb'
p565
aS'Rhodri Jones'
p566
aS'Harry Robinson'
p567
aS'Liam Williams'
p568
aS'Adam Warren'
p569
aS'Ashley Beck'
p570
aS'Aaron Jarvis'
p571
aS'Andrew Coombs'
p572
aS'Olly Kohn'
p573
aS'Dafydd Howells'
p574
aS'James King'
p575
aS'Emyr Phillips'
p576
aS'Owen Williams'
p577
aS'Dan Baker'
p578
aS'Rhys Patchell'
p579
aS'Andries Pretorius'
p580
aS'Josh Navidi'
p581
aS'Scott Baldwin'
p582
aS'Cory Allen'
p583
aS'Samson Lee'
p584
aS'Hallam Amos'
p585
aS'Rhodri Williams'
p586
aS'Jake Ball'
p587
aS'Gareth Davies'
p588
aS'Matthew Morgan'
p589
aS'Nicky Smith'
p590
aS'Rob Evans'
p591
aS'Dominic Day'
p592
aS'Tyler Morgan'
p593
aS'Ross Moriarty'
p594
aS'Eli Walker'
p595
aS'Gareth Anscombe'
p596
aS'Kristian Dacey'
p597
aS'Tomas Francis'
p598
aS'Ellis Jenkins'
p599
aS'Sam Davies'
p600
aS'Cory Hill'
p601
aS'Brent Russell'
p602
aS'Quinton Davids'
p603
aS'Craig Davidson'
p604
aS'Hottie Louw'
p605
aS'Werner Greeff'
p606
aS'Danie Coetzee'
p607
aS'Delarey du Preez'
p608
aS'Shaun Sowerby'
p609
aS'Hendro Scholtz'
p610
aS'Bakkies Botha'
p611
aS'Jean de Villiers'
p612
aS'Wessel Roux'
p613
aS'Pedrie Wannenburg'
p614
aS'Marco Wentzel'
p615
aS'Deon Carstens'
p616
aS'Friedrich Lombard'
p617
aS'Pierre Uys'
p618
aS'CJ van der Linde'
p619
aS'Norman Jordaan'
p620
aS'Richard Bands'
p621
aS'Hendrik Gerber'
p622
aS'Wikus van Heerden'
p623
aS'Ashwin Willemse'
p624
aS'Juan Smith'
p625
aS'Gcobani Bobo'
p626
aS'Dale Santon'
p627
aS'Jorrie Muller'
p628
aS'Geo Cronje'
p629
aS'Christo Bezuidenhout'
p630
aS'Jaque Fourie'
p631
aS'Danie Rossouw'
p632
aS'Derick Hougaard'
p633
aS'Schalk Burger'
p634
aS'Eddie Andrews'
p635
aS'Jacques Cronje'
p636
aS'Fourie du Preez'
p637
aS'Henno Mentz'
p638
aS'Gerrie Britz'
p639
aS'Hanyani Shimange'
p640
aS'Michael Claassens'
p641
aS'Tim Dlulane'
p642
aS'Bryan Habana'
p643
aS'Gurthro Steenkamp'
p644
aS'Solly Tyibilika'
p645
aS'Tonderai Chavhanga'
p646
aS'Ricky Januarie'
p647
aS'Gary Botha'
p648
aS'Meyer Bosman'
p649
aS'Johann Muller'
p650
aS'Wynand Olivier'
p651
aS'Akona Ndungane'
p652
aS'Pierre Spies'
p653
aS'BJ Botha'
p654
aS'Ruan Pienaar'
p655
aS'Chiliboy Ralepelle'
p656
aS'JP Pietersen'
p657
aS'Bevin Fortuin'
p658
aS'Jaco Pretorius'
p659
aS'Frans Steyn'
p660
aS'Hilton Lobberts'
p661
aS'Kabamba Floors'
p662
aS'Waylon Murray'
p663
aS'Luke Watson'
p664
aS'Jannie du Plessis'
p665
aS'Bismarck du Plessis'
p666
aS'Peter Grant'
p667
aS'Ryan Kankowski'
p668
aS'Heinke van der Merwe'
p669
aS'Andries Bekker'
p670
aS'Brian Mujati'
p671
aS'Tendai Mtawarira'
p672
aS'Odwa Ndungane'
p673
aS'Schalk Brits'
p674
aS'Adriaan Strauss'
p675
aS'Jongi Nokwe'
p676
aS'Heinrich Brussow'
p677
aS'Morne Steyn'
p678
aS'Zane Kirchner'
p679
aS'Wian du Preez'
p680
aS'Jean Deysel'
p681
aS'Francois Hougaard'
p682
aS'Dewald Potgieter'
p683
aS'Gio Aplon'
p684
aS'Juan de Jongh'
p685
aS'Francois Louw'
p686
aS'Bjorn Basson'
p687
aS'Alistair Hargreaves'
p688
aS'Flip van der Merwe'
p689
aS'Bandise Maku'
p690
aS'Deon Stegmann'
p691
aS'Keegan Daniel'
p692
aS'Patrick Lambie'
p693
aS'Willem Alberts'
p694
aS'Lwazi Mvovo'
p695
aS'Dean Greyling'
p696
aS'Ashley Johnson'
p697
aS'Werner Kruger'
p698
aS'Gerhard Mostert'
p699
aS'Charl McLeod'
p700
aS'Marcell Coetzee'
p701
aS'Eben Etzebeth'
p702
aS'Juandre Kruger'
p703
aS'Coenie Oosthuizen'
p704
aS'Jacques Potgieter'
p705
aS'Pat Cilliers'
p706
aS'JJ Engelbrecht'
p707
aS'Tiaan Liebenberg'
p708
aS'Duane Vermeulen'
p709
aS'Johan Goosen'
p710
aS'Jaco Taute'
p711
aS'Elton Jantjies'
p712
aS'Arno Botha'
p713
aS'Willie le Roux'
p714
aS'Jano Vermaak'
p715
aS'Trevor Nyakane'
p716
aS'Jan Serfontein'
p717
aS'Siya Kolisi'
p718
aS'Piet van Zyl'
p719
aS'Franco van der Merwe'
p720
aS'Frans Malherbe'
p721
aS'Pieter-Steph du Toit'
p722
aS'Lourens Adriaanse'
p723
aS'Cornal Hendricks'
p724
aS'Lood de Jager'
p725
aS'Handre Pollard'
p726
aS'Marnitz Boshoff'
p727
aS'Stephan Lewies'
p728
aS'Oupa Mohoje'
p729
aS'Marcel van der Merwe'
p730
aS'Damian de Allende'
p731
aS'Warren Whiteley'
p732
aS'Cobus Reinach'
p733
aS'Nizaam Carr'
p734
aS'Julian Redelinghuys'
p735
aS'Jesse Kriel'
p736
aS'Vincent Koch'
p737
aS'Lionel Mapoe'
p738
aS'Rudy Paige'
p739
aS'Faf de Klerk'
p740
aS'Ruan Combrinck'
p741
aS'Franco Mostert'
p742
aS'Steven Kitshoff'
p743
aS'Jaco Kriel'
p744
aS'Bongi Mbonambi'
p745
aS'Malcolm Marx'
p746
aS'Francois Venter'
p747
aS'Uzair Cassiem'
p748
aS'Rohan Janse van Rensburg'
p749
aS'Jamba Ulengo'
p750
aS'Jean-Luc du Preez'
p751
aS'Mark Connors'
p752
aS'Rod Kafer'
p753
aS'Rod Moore'
p754
aS'Scott Staniforth'
p755
aS'Fletcher Dyson'
p756
aS'Stirling Mortlock'
p757
aS'Sam Cordingley'
p758
aS'David Lyons'
p759
aS'Troy Jaques'
p760
aS'Andrew Walker'
p761
aS'George Smith'
p762
aS'Bill Young'
p763
aS'Phil Waugh'
p764
aS'Nick Stiles'
p765
aS'Ben Darwin'
p766
aS'Brendan Cannon'
p767
aS'Justin Harrison'
p768
aS'Graeme Bond'
p769
aS'Steve Kefu'
p770
aS'Wendell Sailor'
p771
aS'Nathan Sharpe'
p772
aS'Mat Rogers'
p773
aS'Sean Hardman'
p774
aS'Dan Vickerman'
p775
aS'David Croft'
p776
aS'Adam Freier'
p777
aS'Matt Giteau'
p778
aS'Mark Bartholomeusz'
p779
aS'Morgan Turinui'
p780
aS'Lote Tuqiri'
p781
aS'Daniel Heenan'
p782
aS'Al Baxter'
p783
aS'Matt Dunning'
p784
aS'John Roe'
p785
aS'Clyde Rathbone'
p786
aS'Radike Samo'
p787
aS'Matt Henjak'
p788
aS'Nic Henderson'
p789
aS'Mark Chisholm'
p790
aS'Stephen Hoiles'
p791
aS'Rocky Elsom'
p792
aS'Hugh McMeniman'
p793
aS'Stephen Moore'
p794
aS'Mark Gerrard'
p795
aS'Alister Campbell'
p796
aS'Drew Mitchell'
p797
aS'Adam Ashley-Cooper'
p798
aS'Lloyd Johansson'
p799
aS'Alex Kanaar'
p800
aS'Lachie Mackay'
p801
aS'Greg Holmes'
p802
aS'Scott Fava'
p803
aS'Tatafu Polota-Nau'
p804
aS'David Fitter'
p805
aS'Rodney Blake'
p806
aS'Tai McIsaac'
p807
aS'Cameron Shepherd'
p808
aS'Josh Valentine'
p809
aS'Wycliff Palu'
p810
aS'Guy Shepherdson'
p811
aS'Benn Robinson'
p812
aS'Brett Sheehan'
p813
aS'Julian Huxley'
p814
aS'Sam Norton-Knight'
p815
aS'Digby Ioane'
p816
aS'James Horwill'
p817
aS'Berrick Barnes'
p818
aS'Luke Burgess'
p819
aS'Peter Hynes'
p820
aS'Dean Mumm'
p821
aS'Ben Alexander'
p822
aS'Ryan Cross'
p823
aS'Lachie Turner'
p824
aS'Timana Tahu'
p825
aS'Richard Brown'
p826
aS'David Pocock'
p827
aS'Quade Cooper'
p828
aS'Sekope Kepu'
p829
aS"James O'Connor"
p830
aS'Peter Kimlin'
p831
aS'Pek Cowan'
p832
aS'Will Genia'
p833
aS'Kurtley Beale'
p834
aS'Huia Edmonds'
p835
aS'Rob Horne'
p836
aS"Salesi Ma'afu"
p837
aS"Saia Fainga'a"
p838
aS'Matt Hodgson'
p839
aS'Ben Daley'
p840
aS'James Slipper'
p841
aS'Ben McCalman'
p842
aS'Rob Simmons'
p843
aS"Anthony Fainga'a"
p844
aS'Pat McCabe'
p845
aS'Scott Higginbotham'
p846
aS'Rod Davies'
p847
aS'Nick Phipps'
p848
aS'Sitaleki Timani'
p849
aS'Beau Robinson'
p850
aS'Ben Tapuai'
p851
aS'Dave Dennis'
p852
aS'Mike Harris'
p853
aS'Luke Morahan'
p854
aS'Dan Palmer'
p855
aS'Joe Tomane'
p856
aS'Michael Hooper'
p857
aS'Cooper Vuna'
p858
aS'Liam Gill'
p859
aS'Dom Shipperley'
p860
aS'Kane Douglas'
p861
aS'Nick Cummins'
p862
aS'James Hanson'
p863
aS'Paddy Ryan'
p864
aS'Israel Folau'
p865
aS"Christian Leali'ifano"
p866
aS'Ben Mowen'
p867
aS'Jesse Mogg'
p868
aS'Matt Toomua'
p869
aS'Scott Fardy'
p870
aS'Tevita Kuridrani'
p871
aS'Scott Sio'
p872
aS'Nic White'
p873
aS'Chris Feauai-Sautia'
p874
aS'Bernard Foley'
p875
aS'Peter Betham'
p876
aS'Sam Carter'
p877
aS'Nathan Charles'
p878
aS'Luke Jones'
p879
aS'Laurie Weeks'
p880
aS'Will Skelton'
p881
aS'Josh Mann-Rea'
p882
aS'Jake Schatz'
p883
aS'Sean McMahon'
p884
aS'Tetera Faulkner'
p885
aS'Henry Speight'
p886
aS'Taqele Naiyaravoro'
p887
aS'Toby Smith'
p888
aS'Rory Arnold'
p889
aS'Dane Haylett-Petty'
p890
aS'Samu Kerevi'
p891
aS'Nick Frisby'
p892
aS'Adam Coleman'
p893
aS"Allan Ala'alatoa"
p894
aS'Reece Hodge'
p895
aS'Tom Robertson'
p896
aS'Lopeti Timani'
p897
aS'Sefa Naivalu'
p898
aS'Leroy Houston'
p899
aS'Tolu Latu'
p900
aS'Kyle Godwin'
p901
aS'Richie McCaw'
p902
aS'Aaron Mauger'
p903
aS'Dave Hewett'
p904
aS'Ben Blair'
p905
aS'Dion Waller'
p906
aS'Joe McDonnell'
p907
aS'Simon Maling'
p908
aS'Tom Willis'
p909
aS'Sam Harding'
p910
aS'Sam Broomhall'
p911
aS'Steve Devine'
p912
aS'Andrew Hore'
p913
aS'Keith Lowen'
p914
aS'Keith Robinson'
p915
aS'Ali Williams'
p916
aS'Danny Lee'
p917
aS'Brad Mika'
p918
aS'Dan Braid'
p919
aS'Regan King'
p920
aS'Keven Mealamu'
p921
aS"Rodney So'oialo"
p922
aS'Tony Woodcock'
p923
aS'Paul Steinmetz'
p924
aS"Ma'a Nonu"
p925
aS'Joe Rokocoko'
p926
aS'Mils Muliaina'
p927
aS'Dan Carter'
p928
aS'Brad Thorn'
p929
aS'Corey Flynn'
p930
aS'Ben Atiga'
p931
aS'Jono Gibbes'
p932
aS'Nick Evans'
p933
aS'Sam Tuitupou'
p934
aS'Craig Newby'
p935
aS"Mose Tuiali'i"
p936
aS'Rico Gear'
p937
aS'Conrad Smith'
p938
aS'Saimone Taumoepeau'
p939
aS'Steven Bates'
p940
aS'Jimmy Cowan'
p941
aS'Casey Laulala'
p942
aS'Piri Weepu'
p943
aS'James Ryan'
p944
aS'Sitiveni Sivivatu'
p945
aS'Derren Witcombe'
p946
aS'Sosene Anesi'
p947
aS'Campbell Johnstone'
p948
aS'Sione Lauaki'
p949
aS'Luke McAlister'
p950
aS'Kevin Senio'
p951
aS'Chris Masoe'
p952
aS'Neemia Tialata'
p953
aS'Angus Macdonald'
p954
aS'John Afoa'
p955
aS'Jason Eaton'
p956
aS'Isaia Toeava'
p957
aS'Clarke Dermody'
p958
aS'Greg Rawlinson'
p959
aS'Jerome Kaino'
p960
aS'David Hill'
p961
aS'Scott Hamilton'
p962
aS'Andy Ellis'
p963
aS'Brendon Leonard'
p964
aS'Ross Filipo'
p965
aS'John Schwalger'
p966
aS'Anthony Tuitavake'
p967
aS'Adam Thomson'
p968
aS'Anthony Boric'
p969
aS'Stephen Donald'
p970
aS'Richard Kahui'
p971
aS'Rudi Wulf'
p972
aS"Kevin O'Neill"
p973
aS'Hosea Gear'
p974
aS'Cory Jane'
p975
aS'Jamie Mackintosh'
p976
aS'Liam Messam'
p977
aS'Kieran Read'
p978
aS'Isaac Ross'
p979
aS'Bryn Evans'
p980
aS'Tanerau Latimer'
p981
aS'Wyatt Crockett'
p982
aS'Lelia Masaga'
p983
aS'Aled de Malmanche'
p984
aS'Owen Franks'
p985
aS'George Whitelock'
p986
aS'Tom Donnelly'
p987
aS'Zac Guildford'
p988
aS'Mike Delany'
p989
aS'Tamati Ellison'
p990
aS'Ben Smith'
p991
aS'Israel Dagg'
p992
aS'Ben Franks'
p993
aS'Benson Stanley'
p994
aS'Aaron Cruden'
p995
aS'Victor Vito'
p996
aS'Sam Whitelock'
p997
aS'Rene Ranger'
p998
aS'Alby Mathewson'
p999
aS'Colin Slade'
p1000
aS'Sonny Bill Williams'
p1001
aS'Hika Elliot'
p1002
aS'Jarrad Hoeata'
p1003
aS'Brodie Retallick'
p1004
aS'Julian Savea'
p1005
aS'Aaron Smith'
p1006
aS'Sam Cane'
p1007
aS'Luke Romano'
p1008
aS'Beauden Barrett'
p1009
aS'Charlie Faumuina'
p1010
aS'Dane Coles'
p1011
aS'Tawera Kerr-Barlow'
p1012
aS'Ben Afeaki'
p1013
aS'Jeremy Thrush'
p1014
aS'Steven Luatua'
p1015
aS'Charles Piutau'
p1016
aS'Matt Todd'
p1017
aS'Ryan Crotty'
p1018
aS'Tom Taylor'
p1019
aS'Francis Saili'
p1020
aS'Dominic Bird'
p1021
aS'Frank Halai'
p1022
aS'Jeff Toomaga-Allen'
p1023
aS'Luke Whitelock'
p1024
aS'Malakai Fekitoa'
p1025
aS'TJ Perenara'
p1026
aS'Patrick Tuipulotu'
p1027
aS'Joe Moody'
p1028
aS'Nathan Harris'
p1029
aS'Augustine Pulu'
p1030
aS'James Parsons'
p1031
aS'George Moala'
p1032
aS'Nepo Laulala'
p1033
aS'Charlie Ngatai'
p1034
aS'Brad Weber'
p1035
aS'Waisake Naholo'
p1036
aS'Codie Taylor'
p1037
aS'James Broadhurst'
p1038
aS'Lima Sopoaga'
p1039
aS'Nehe Milner-Skudder'
p1040
aS'Ardie Savea'
p1041
aS'Seta Tamanivalu'
p1042
aS'Elliot Dixon'
p1043
aS'Liam Squire'
p1044
aS"Ofa Tu'ungafasi"
p1045
aS'Kane Hames'
p1046
aS'Anton Lienert-Brown'
p1047
aS'Damian McKenzie'
p1048
aS'Scott Barrett'
p1049
aS'Liam Coltman'
p1050
aS'Reiko Ioane'
p1051
aS'David Couzinet'
p1052
aS'Yannick Nyanga Kabasele'
p1053
aS'Alexandre Peclier'
p1054
aS'Ludovic Valbon'
p1055
aS'Romain Froment'
p1056
aS'Pierre Rabadan'
p1057
aS'Philippe Bidabe'
p1058
aS'Bernard Goutta'
p1059
aS'Ludovic Loustau'
p1060
aS'Dimitri Szarzewski'
p1061
aS'Gregory Lamboley'
p1062
aS'Jean-Philippe Grandclaude'
p1063
aS'Julien Laharrague'
p1064
aS'Benoit Baby'
p1065
aS'David Marty'
p1066
aS'Julien Candelon'
p1067
aS'Florian Fritz'
p1068
aS'Romain Millo-Chluski'
p1069
aS'Denis Avril'
p1070
aS'Guilliaume Bousses'
p1071
aS'Benjamin Boyet'
p1072
aS'David Attoub'
p1073
aS'Thierry Dusautoir'
p1074
aS'Vincent Debaty'
p1075
aS'Loic Jacquet'
p1076
aS'Lionel Beauxis'
p1077
aS'Benoit August'
p1078
aS'Jean-Francois Coux'
p1079
aS'Nicolas Durand'
p1080
aS'Gregory le Corvec'
p1081
aS'Arnaud Mignardi'
p1082
aS'Julien Pierre'
p1083
aS'Benjamin Thiery'
p1084
aS'Damien Chouly'
p1085
aS'Mickael Forest'
p1086
aS'Nicolas Laharrague'
p1087
aS'Franck Montanella'
p1088
aS'Olivier Olibeau'
p1089
aS'Lionel Mazars'
p1090
aS'Olivier Sourgens'
p1091
aS'Fulgence Ouedraogo'
p1092
aS'Julien Brugnaut'
p1093
aS'Lionel Faure'
p1094
aS'Julien Malzieu'
p1095
aS'Francois Trinh-Duc'
p1096
aS'Arnaud Mela'
p1097
aS'Morgan Parra'
p1098
aS'Louis Picamoles'
p1099
aS'Anthony Floch'
p1100
aS'Fabien Barcella'
p1101
aS'Yann David'
p1102
aS'Ibrahim Diarra'
p1103
aS'Guilhem Guirado'
p1104
aS'Julien Tomas'
p1105
aS'Benoit Lecouls'
p1106
aS'Alexis Palisson'
p1107
aS'Renaud Boyoud'
p1108
aS'David Janin'
p1109
aS'Benjamin Kayser'
p1110
aS'Thibault Lacroix'
p1111
aS'Matthieu Lievremont'
p1112
aS'Sebastien Tillous-Borde'
p1113
aS'Pierre Correia'
p1114
aS'Maxime Mermoz'
p1115
aS'Yannick Caballero'
p1116
aS'Jean-Baptiste Peyras-Loustalet'
p1117
aS'Maxime Medard'
p1118
aS'Mathieu Bastareaud'
p1119
aS'Thomas Domingo'
p1120
aS'Julien Dupuy'
p1121
aS'Julien Puricelli'
p1122
aS'Julien Arias'
p1123
aS'Benjamin Fall'
p1124
aS'Alexandre Lapandry'
p1125
aS'Luc Ducalcon'
p1126
aS'Marc Andreu'
p1127
aS'Wenceslas Lauret'
p1128
aS'Jerome Porical'
p1129
aS'Fabrice Estebanez'
p1130
aS'Jerome Schuster'
p1131
aS'Benjamin Noirot'
p1132
aS'Yoann Huget'
p1133
aS'Raphael Lakafia'
p1134
aS'Jean-Marc Doussain'
p1135
aS'Wesley Fofana'
p1136
aS'Yoann Maestri'
p1137
aS'Jean-Marcelin Buttin'
p1138
aS'Brice Dulin'
p1139
aS'Yvan Watremez'
p1140
aS'Romain Taofifenua'
p1141
aS'Christopher Tolofua'
p1142
aS'Maxime Machenaud'
p1143
aS'Christophe Samson'
p1144
aS'Yannick Forestier'
p1145
aS'Jocelino Suta'
p1146
aS'Sebastien Vahaamahina'
p1147
aS'Antonie Claassen'
p1148
aS'Gael Fickou'
p1149
aS'Camille Lopez'
p1150
aS'Adrien Plante'
p1151
aS'Alexandre Flanquart'
p1152
aS'Dan Kotze'
p1153
aS'Bernard le Roux'
p1154
aS'Remi Tales'
p1155
aS'Eddy Ben Arous'
p1156
aS'Rabah Slimani'
p1157
aS'Sofiane Guitoune'
p1158
aS'Jonathan Pelissie'
p1159
aS'Jules Plisson'
p1160
aS'Antoine Burban'
p1161
aS'Hugo Bonneval'
p1162
aS'Brice Mach'
p1163
aS'Felix le Bourhis'
p1164
aS'Remi Lamerat'
p1165
aS'Alexandre Menini'
p1166
aS'Alexandre Dumoulin'
p1167
aS'Scott Spedding'
p1168
aS'Teddy Thomas'
p1169
aS'Uini Atonio'
p1170
aS'Xavier Chiocci'
p1171
aS'Rory Kockott'
p1172
aS'Charles Ollivon'
p1173
aS'Loann Goujon'
p1174
aS'Noa Nakaitaci'
p1175
aS'Remy Grosso'
p1176
aS'Sebastien Bezy'
p1177
aS'Jonathan Danty'
p1178
aS'Paul Jedrasiak'
p1179
aS'Virimi Vakatawa'
p1180
aS'Yacouba Camara'
p1181
aS'Jefferson Poirot'
p1182
aS'Camille Chat'
p1183
aS'Djibril Camara'
p1184
aS'Vincent Pelo'
p1185
aS'Remy Bonfils'
p1186
aS'William Demotte'
p1187
aS'Kevin Gourdon'
p1188
aS'Julien le Devedec'
p1189
aS'Xavier Mignot'
p1190
aS'Julien Rey'
p1191
aS'Baptiste Serin'
p1192
aS'Clement Maynadier'
p1193
aS'Fabrice Metz'
p1194
aS'Lucas Pointud'
p1195
aS'Kelian Galletier'
p1196
aS'Cyril Baille'
p1197
aS'Arthur Iturria'
p1198
aS'Henry Chavancy'
p1199
aS'Fabien Sanconnie'
p1200
aS'Antoine Dupont'
p1201
aS'Martin Bustos Moyano'
p1202
aS'Miguel de Achaval'
p1203
aS'Juan-Pablo Estelles'
p1204
aS'Tomas Leonardi'
p1205
aS'Agustin Smidt'
p1206
aS'Esteban Bustillo'
p1207
aS'Mauricio Guidone'
p1208
aS'Martin Landajo'
p1209
aS'Ignacio Pasman'
p1210
aS'Juan Pablo Orlandi'
p1211
aS'Santiago Fernandez'
p1212
aS'Agustin Figuerola'
p1213
aS'Belisario Agulla'
p1214
aS'Lucas Alcacer Mackinlay'
p1215
aS'Rodrigo Bruno'
p1216
aS'Pedro Garzon'
p1217
aS'Santiago Gonzalez Iglesias'
p1218
aS'Juan Imhoff'
p1219
aS'Benjamin Macome'
p1220
aS'Matias Narvaez'
p1221
aS'Santiago Piccaluga'
p1222
aS'Guillermo Roan'
p1223
aS'Facundo Vega'
p1224
aS'Francisco Cubelli'
p1225
aS'Ignacio di Santi'
p1226
aS'Paolo Mac'
p1227
aS'Federico Merlo'
p1228
aS'Gabriel Pata Curello'
p1229
aS'Martin Rodriguez Gurruchage'
p1230
aS'Leandro Pereyra'
p1231
aS'Matias Viazzo'
p1232
aS'Tomas Cubelli'
p1233
aS'Marcos Lobato'
p1234
aS'Ramiro Pacheco'
p1235
aS'Luciano Proto'
p1236
aS'Nicolas Sanchez'
p1237
aS'Rodrigo Baez'
p1238
aS'Nahuel Tetaz Chaparro'
p1239
aS'Mariano Galarza'
p1240
aS'Santiago Guzman'
p1241
aS'Juan Figallo'
p1242
aS'Julio Farias Cabello'
p1243
aS'Jose Basile'
p1244
aS'Santiago Bottini'
p1245
aS'Tomas de la Vega'
p1246
aS'Tomas Rosati'
p1247
aS'Hugo Schierano'
p1248
aS'Roberto Tejerizo'
p1249
aS'Federico Alloggio'
p1250
aS'Nicolas Centurion'
p1251
aS'Gaston Cortes'
p1252
aS'Benjamin Madero'
p1253
aS'Martin Maineri'
p1254
aS'Ramiro Moyano Joya'
p1255
aS'Fernando Luna'
p1256
aS'Walter Weiss'
p1257
aS'Tomas Baravalle'
p1258
aS'Agustin Gosio'
p1259
aS'Tomas Vallejos Cinalli'
p1260
aS'Lisandro Ahualli de Chazal'
p1261
aS'Valentin Cruz Hernestrosa'
p1262
aS'Martin Garcia Veiga'
p1263
aS'Manuel Montero'
p1264
aS'Matias Orlando'
p1265
aS'Javier Ortega Desio'
p1266
aS'Diego Palma'
p1267
aS'Javier Rojas Alvarez'
p1268
aS'Stefano Ambrosio'
p1269
aS'Nicolas Azorin'
p1270
aS'Facundo Barrea'
p1271
aS'Cesar Fruttero'
p1272
aS'Bruno Postiglioni'
p1273
aS'Ignacio Saenz Lancuba'
p1274
aS'German Araoz'
p1275
aS'Santiago Craig'
p1276
aS'Joaquin Tuculet'
p1277
aS'Andres Bordoy'
p1278
aS'Nahuel Lobo'
p1279
aS'Maximiliano Bustos'
p1280
aS'Juan Cappiello'
p1281
aS'Tomas Carrio'
p1282
aS'Matias Diaz'
p1283
aS'Dan Isaack'
p1284
aS'Fidel Lamy'
p1285
aS'Tomas Lavanini'
p1286
aS'Santiago Mendez Angelillo'
p1287
aS'Francisco Panessi'
p1288
aS'Joaquin Paz'
p1289
aS'Sebastian Poet'
p1290
aS'Santiago Rocchia'
p1291
aS'German Schulz'
p1292
aS'Santiago Alvarez Fourcade'
p1293
aS'Tomas Borghi'
p1294
aS'Martin Chiappesoni Restano'
p1295
aS'Tomas Gilardon'
p1296
aS'Santiago Iglesias Valdez'
p1297
aS'Pedro Imhoff'
p1298
aS'Pato Fernandez Fiant'
p1299
aS'Santiago Garcia Botta'
p1300
aS'Pablo Matera'
p1301
aS'Joaquin Paz'
p1302
aS'Macario Villaluenga'
p1303
aS'Gonzalo Manso'
p1304
aS'Santiago Cordero'
p1305
aS'Antonio Ahualli de Chazal'
p1306
aS'Matias Alemanno'
p1307
aS'Jeronimo de la Fuente'
p1308
aS'Lucas Noguera Paz'
p1309
aS'Lucas Ponce'
p1310
aS'Felipe Ezcurra'
p1311
aS'Julian Montoya'
p1312
aS'Lucas Maguire'
p1313
aS'Ramiro Herrera'
p1314
aS'Matias Moroni'
p1315
aS'Juan Cruz Guillemain Garcia'
p1316
aS'Facundo Isa'
p1317
aS'Guido Petti Pagadizaval'
p1318
aS'Tomas Lezana'
p1319
aS'Geronimo Albertario'
p1320
aS'Gregorio del Prete'
p1321
aS'Juan Leon Novillo'
p1322
aS'Gonzalo Bertranou'
p1323
aS'Manuel Plaza'
p1324
aS'Juan Pablo Socino'
p1325
aS'Felipe Arregui'
p1326
aS'Lautaro Bavaro'
p1327
aS'Marcos Bollini'
p1328
aS'Facundo Bosch'
p1329
aS'Franco Brarda'
p1330
aS'Sebastian Cancelliere'
p1331
aS'Franco Cuaranta'
p1332
aS'Joaquin Diaz Bonilla'
p1333
aS'Ignacio Larrague'
p1334
aS'Pedro Mercerat'
p1335
aS'Pedro Ortega'
p1336
aS'Santiago Portillo'
p1337
aS'Cristian Bartoloni'
p1338
aS'Eduardo Bello'
p1339
aS'Bruno Devoto'
p1340
aS'Tomas Granella Vickers'
p1341
aS'Facundo Lavanini'
p1342
aS'Juan Manuel Lescano'
p1343
aS'Santiago Montagner'
p1344
aS'Jose Deheza'
p1345
aS'Facundo Gigena'
p1346
aS'Gonzalo Gutierrez Taboada'
p1347
aS'Enrique Pieretto Heiland'
p1348
aS'Segundo Tuculet'
p1349
aS'Sacha Casanas'
p1350
aS'Marcos Kremer'
p1351
aS'Juan Manuel Queirolo'
p1352
aS'David dal Maso'
p1353
aS'Luca Mastrodomenico'
p1354
aS'Lisandro Villagra'
p1355
aS'Maurizio Zaffiri'
p1356
aS'Filippo Frati'
p1357
aS'Andrea Muraro'
p1358
aS'Fabio Ongaro'
p1359
aS'Massimiliano Perziano'
p1360
aS'Ezio Galon'
p1361
aS'Walter Pozzebon'
p1362
aS'Giovanni Antoni'
p1363
aS'Marco Bortolami'
p1364
aS'Roberto Pedrazzi'
p1365
aS'Salvatore Garozzo'
p1366
aS'Andrea Benatti'
p1367
aS'Samuele Pace'
p1368
aS'Cristian Zanoletti'
p1369
aS'Santiago Dellape'
p1370
aS'Matthew Phillips'
p1371
aS'Mirco Bergamasco'
p1372
aS'Gert Peens'
p1373
aS'Carlos Nieto'
p1374
aS'Ramiro Martinez-Frugoni'
p1375
aS'Sergio Parisse'
p1376
aS'Matteo Barbini'
p1377
aS'Martin Castrogiovanni'
p1378
aS'Enrico Pavanello'
p1379
aS'Scott Palmer'
p1380
aS'Cristian Bezzi'
p1381
aS'Carlo Festuccia'
p1382
aS'Gonzalo Canale'
p1383
aS'Diego Sacca'
p1384
aS'Rima Wakarua-Noema'
p1385
aS'Paul Griffen'
p1386
aS'Roland de Marigny'
p1387
aS'Silvio Orlando'
p1388
aS'Roberto Mandelli'
p1389
aS'Simon Picone'
p1390
aS'Carlo Antonio del Fava'
p1391
aS'Salvatore Costanzo'
p1392
aS'Kaine Robertson'
p1393
aS'Danilo Carpente'
p1394
aS'Giorgio Intoppa'
p1395
aS'Mario Savi'
p1396
aS'Ludovico Nitoglia'
p1397
aS'Luciano Orquera'
p1398
aS'Pietro Travagli'
p1399
aS'Matteo Pratichetti'
p1400
aS'Valerio Bernabo'
p1401
aS'Antonio Mannato'
p1402
aS'Josh Sole'
p1403
aS'Antonio Pavanello'
p1404
aS'Pablo Canavosio'
p1405
aS'Michele Rizzo'
p1406
aS'Matias Aguero'
p1407
aS'Alessandro Zanni'
p1408
aS'David Bortolussi'
p1409
aS'Ben de Jager'
p1410
aS'Robert Barbieri'
p1411
aS'Leonardo Ghiraldini'
p1412
aS'Andrea Marcato'
p1413
aS'Michele Sepe'
p1414
aS'Fabio Staibano'
p1415
aS'Marko Stanojevic'
p1416
aS'Warren Spragg'
p1417
aS'Kris Burton'
p1418
aS'Enrico Patrizio'
p1419
aS'Alessio Galante'
p1420
aS'Manoa Vosawai'
p1421
aS'Lorenzo Cittadini'
p1422
aS'Tommaso Reato'
p1423
aS'Alberto Sgarbi'
p1424
aS'Paolo Buso'
p1425
aS'Jaco Erasmus'
p1426
aS'Gonzalo Garcia'
p1427
aS'Luke McLean'
p1428
aS'Ignacio Fernandez-Rouyet'
p1429
aS'Riccardo Pavan'
p1430
aS'Giulio Toniolatti'
p1431
aS'Jean-Francois Montauriol'
p1432
aS'Andrea Bacchetti'
p1433
aS'Guilio Rubini'
p1434
aS'Franco Sbaraglini'
p1435
aS'Roberto Quartaroli'
p1436
aS'Quintin Geldenhuys'
p1437
aS'Craig Gower'
p1438
aS'Paul Derbyshire'
p1439
aS'Tito Tebaldi'
p1440
aS'Simone Favaro'
p1441
aS'Riccardo Bocchino'
p1442
aS'Tommaso Benvenuti'
p1443
aS'Edoardo Gori'
p1444
aS'Fabio Semenzato'
p1445
aS"Tommaso d'Apice"
p1446
aS'Cornelius van Zyl'
p1447
aS'Joshua Furno'
p1448
aS'Giovanbattista Venditti'
p1449
aS'Tobie Botes'
p1450
aS'Luca Morisi'
p1451
aS'Alberto de Marchi'
p1452
aS'Davide Giazzon'
p1453
aS'Lorenzo Romano'
p1454
aS'Alberto Benettin'
p1455
aS'Andrea Pratichetti'
p1456
aS'Marco Fuser'
p1457
aS'Tommaso Iannone'
p1458
aS'Francesco Minto'
p1459
aS'Alberto di Bernardo'
p1460
aS'Andrea Manici'
p1461
aS'Leandro Cedaro'
p1462
aS'Leonardo Sarto'
p1463
aS'Alberto Chillon'
p1464
aS'Tommaso Allan'
p1465
aS'Michele Campagnaro'
p1466
aS'Angelo Esposito'
p1467
aS'George Fabio Biagi'
p1468
aS'Guglielmo Palazzani'
p1469
aS'Andrea de Marchi'
p1470
aS'Dario Chistolini'
p1471
aS'Kelly Haimona'
p1472
aS'Samuela Vunisa'
p1473
aS'Marco Barbini'
p1474
aS'Giulio Bisegni'
p1475
aS'Enrico Bacchin'
p1476
aS'Michele Visentin'
p1477
aS'Carlo Canna'
p1478
aS'Marcello Violi'
p1479
aS'Mattia Bellini'
p1480
aS'Ornel Gega'
p1481
aS'Andrea Lovotti'
p1482
aS'David Odiete'
p1483
aS'Dries van Schalkwyk'
p1484
aS'Matteo Zanusso'
p1485
aS'Edoardo Padovani'
p1486
aS'Braam Steyn'
p1487
aS'Pietro Ceccarelli'
p1488
aS'Oliviero Fabiani'
p1489
aS'Alberto Lucchese'
p1490
aS'Jacopo Sarto'
p1491
aS'Tommaso Castello'
p1492
aS'Sami Panico'
p1493
aS'Maxime Mbanda'
p1494
aS'Sebastian Negri da Ollegio'
p1495
aS'Tommaso Boni'
p1496
aS'Giorgio Bronzini'
p1497
aS'Simone Ferrari'
p1498
aS'Nicola Quaglio'
p1499
aS'Luca Sperandio'
p1500
aS'Federico Ruzza'
p1501
aS'Daniel Farani'
p1502
aS'Pelu Taele-Pavihi'
p1503
aS'Garrick Cowley'
p1504
aS"Jonny Fa'amatuainu"
p1505
aS'Eliota Fuimaono-Sapolu'
p1506
aS'Aukuso Collins'
p1507
aS'Kiri Mariner'
p1508
aS'Timoteo Iosua'
p1509
aS'Seilala Mapusua'
p1510
aS'Philemon Toleafoa'
p1511
aS'Alafoti Faosiliva'
p1512
aS'Doug Sanft'
p1513
aS'Chad Slade'
p1514
aS'Loki Crichton'
p1515
aS'Alapasa Cortz'
p1516
aS'Filipo Levi'
p1517
aS'Justin Purdie'
p1518
aS'Kane Thompson'
p1519
aS'Gavin Williams'
p1520
aS"Tauvaga Fa'afou"
p1521
aS"Na'ama Leleimalefaga"
p1522
aS'Junior Poluleuligaga'
p1523
aS'Joe Tekori'
p1524
aS'Jerry Meafou'
p1525
aS'Silao Vaisola Sefo'
p1526
aS"Henry Fa'afili"
p1527
aS'Esera Lauina'
p1528
aS'Samisoni Moala'
p1529
aS'Ray Stowers'
p1530
aS'Evile Telea'
p1531
aS'Paletuatoa Toelupe'
p1532
aS'Gasolo Salima'
p1533
aS'Bell Sasalu'
p1534
aS'Hiro Tea'
p1535
aS'James Johnston'
p1536
aS'Uale Mai'
p1537
aS'Egelani Fale'
p1538
aS'Ati Olive'
p1539
aS'Rupeni Levasa'
p1540
aS'Alatasi Tupou'
p1541
aS'Lafoga Aoelua'
p1542
aS'Maselino Paulino'
p1543
aS'Roysiu Tolufale'
p1544
aS'Will Brame'
p1545
aS'Ernest Skelton'
p1546
aS'Ofisa Treviranus'
p1547
aS'Andrew Williams'
p1548
aS'Ki Anufe'
p1549
aS'Misioka Timoteo'
p1550
aS'Titi Junior Esau'
p1551
aS'Mikaela Pesamino'
p1552
aS'Afa Aiono'
p1553
aS'Nifo Nifo'
p1554
aS'Pesamino Alauni'
p1555
aS'Meki Magele'
p1556
aS"Logovi'i Mulipola"
p1557
aS'Zak Taulafo'
p1558
aS'Lucky Mulipola'
p1559
aS'Jeremiah Fatialofa'
p1560
aS'Semiperive Semeane'
p1561
aS'Jamie Helleur'
p1562
aS'Anthony Perenise'
p1563
aS'George Pisi'
p1564
aS"Fa'alemiga Selesele"
p1565
aS'Paul Williams'
p1566
aS'James Afoa'
p1567
aS'Tua Otto'
p1568
aS'Manu Salavea'
p1569
aS'Uarotafou Setu'
p1570
aS'Josh Keil'
p1571
aS"Kahn Fotuali'i"
p1572
aS'Richard Muagututia'
p1573
aS'Sinoti Sinoti'
p1574
aS'Josh Tatupu'
p1575
aS"Levi Asifa'amatala"
p1576
aS'Tala Fagasoaia'
p1577
aS'Tasesa Lavea Levi'
p1578
aS"Ti'i Paulo"
p1579
aS'Tusi Pisi'
p1580
aS"James So'oialo"
p1581
aS'Ezra Taylor'
p1582
aS'Tai Tuifua'
p1583
aS'Ole Avei'
p1584
aS'Johnny Leota'
p1585
aS'Brenton Helleur'
p1586
aS'Ray Ofisa Treviranus'
p1587
aS'Herman Porter'
p1588
aS"Jeremy Su'a"
p1589
aS"Fa'atoina Autagavaia"
p1590
aS'Daniel Crichton'
p1591
aS'Steve Fualau'
p1592
aS"Fa'atiga Lemalu"
p1593
aS'Ben Masoe'
p1594
aS'Ken Pisi'
p1595
aS'Alvin Tavana'
p1596
aS'Nalu Tuigamala'
p1597
aS'Viliamu Afatia'
p1598
aS'Paul Perez'
p1599
aS'Tivaini Fomai'
p1600
aS'Robert Lilomaiava'
p1601
aS'Filo Paulo'
p1602
aS'Setaimata Sa'
p1603
aS'Ropeti Lafo'
p1604
aS'Jack Lam'
p1605
aS'Alapati Leiua'
p1606
aS'Manu Leiataua'
p1607
aS"Brando Va'aulu"
p1608
aS'Piula Faasalele'
p1609
aS'Faifili Levave'
p1610
aS'Isaiah Tuifua'
p1611
aS'Vavao Afemai'
p1612
aS"Oneone Fa'afou Soisoi"
p1613
aS"Patrick Fa'apale"
p1614
aS'Jake Grey'
p1615
aS'Aniseko Sio'
p1616
aS'Tulolo Tulolo'
p1617
aS'Sam Aiono'
p1618
aS'Lio Lolo'
p1619
aS'Vaiofaga Simanu'
p1620
aS'Kaino Thomsen-Fuataaga'
p1621
aS'Pele Cowley'
p1622
aS'Mike Stanley'
p1623
aS'Winston Stanley'
p1624
aS'Patrick Toetu'
p1625
aS'Alofa Alofa'
p1626
aS'TJ Ioane'
p1627
aS'Rey Lee-Lo'
p1628
aS'Ahsee Tuala'
p1629
aS'Tim Nanai-Williams'
p1630
aS'Faialaga Afamasaga'
p1631
aS'Vavae Tuilagi'
p1632
aS"Motu Matu'u"
p1633
aS'Faleniu Iosi'
p1634
aS'Francis Ieremia Saufoi'
p1635
aS'Jeff Lepa'
p1636
aS'Albert Nikoro'
p1637
aS'Dwayne Polataivaia'
p1638
aS'Talaga Alofipo'
p1639
aS'Malu Falaniko'
p1640
aS'Seilala Lam'
p1641
aS"Nu'uuli Lene"
p1642
aS"D'Angelo Leuila"
p1643
aS'Danny Tusitala'
p1644
aS'Greg Foe'
p1645
aS'Genesis Pelepele Lemalu'
p1646
aS'Chris Vui'
p1647
aS'Elia Elia'
p1648
aS'Hisa Sasagi'
p1649
aS'Nephi Leatigaga'
p1650
aS'Ope Peleseuma'
p1651
aS'Siope Kapeli'
p1652
aS'Samuela Lisala'
p1653
aS'Kana Fakava'
p1654
aS'Sione Niu Tonga'
p1655
aS'Sione Masima'
p1656
aS'Rodney Mahe'
p1657
aS"Fotu'aika Naitoko"
p1658
aS'Sione Taukapo'
p1659
aS"Soane Tonga'uiha"
p1660
aS'Peni Fakalelu'
p1661
aS'Alani Maka'
p1662
aS'Talite Vaioleti'
p1663
aS'Kele Hehea'
p1664
aS'Nili Latu Langilangi'
p1665
aS"Tatafu Na'aniumotu"
p1666
aS'Tevita Vaikona'
p1667
aS'Viliami Hakalo'
p1668
aS'Kaiongo Tupou'
p1669
aS'Isieli Fine'
p1670
aS'Tevita Fonua'
p1671
aS"Teu'imuli Kaufusi"
p1672
aS'Vunga Lilo'
p1673
aS'Sione Poteki'
p1674
aS'Vaea Poteki'
p1675
aS'Toma Toke'
p1676
aS'Hale T-Pole'
p1677
aS'Atonio Halangahu'
p1678
aS'Sione Kalamafoni'
p1679
aS'Hemani Paea'
p1680
aS"Folauhola Tatua'a"
p1681
aS'Makoni Finau'
p1682
aS"Tevita 'Ahoafi"
p1683
aS"Setaleki Lu'au"
p1684
aS"Sateki Mata'u"
p1685
aS'Naisa Sikalu'
p1686
aS'Tevita Tanginoa'
p1687
aS'Samiu Vahafolau'
p1688
aS'Lisiate Tafa'
p1689
aS'Patrick Tamoua'
p1690
aS'Lopeti Lolohea'
p1691
aS'Mesui Lemoto'
p1692
aS'Finau Maka'
p1693
aS'Enele Taufa'
p1694
aS'Josh Afu'
p1695
aS'Sione Lavaka'
p1696
aS'Tupou Palu'
p1697
aS'Semisi Telefoni'
p1698
aS'Samiuela Ika'
p1699
aS'Sione Timani'
p1700
aS'Semosoni Pone'
p1701
aS"'Alipate Fatafehi"
p1702
aS'David Tevita Halaifonua Tonga'
p1703
aS"Ilaisa Ma'asi"
p1704
aS"Po'alo'i Taula"
p1705
aS'Opeti Fonua'
p1706
aS'Pasuka Mapakaitolo'
p1707
aS'Mateo Malupo'
p1708
aS'Mahe Fangupo'
p1709
aS'Fou-Ki-Moana Katoa'
p1710
aS'Siosaia Palei'
p1711
aS'Kilifi Fangupo'
p1712
aS'Paula Kata'
p1713
aS'Etueni Siua'
p1714
aS'Sione Vaiomounga'
p1715
aS'Mani Vakaloa'
p1716
aS'Kurt Morath'
p1717
aS"Manu Ahota'e'iloa"
p1718
aS"Akameta Fe'ao"
p1719
aS'Saia Fekitoa'
p1720
aS'Kelepi Halafihi'
p1721
aS'Daniel Morath'
p1722
aS'Alepini Olosoni'
p1723
aS'Alaska Taufa'
p1724
aS'Samisoni Fisilau'
p1725
aS'Sione Fukofuka'
p1726
aS'Steve Mafi'
p1727
aS'Will Helu'
p1728
aS'Haani Halaeua'
p1729
aS'Viliami Pola'
p1730
aS'Aloisio Mailangi'
p1731
aS'Damien Fakafanu'
p1732
aS'Taumei Hikila'
p1733
aS'Rutikha Ilolahia'
p1734
aS'Petuliki Mateo'
p1735
aS'Kama Sakalia'
p1736
aS'Paea Siulangapo'
p1737
aS'Michael Toloke'
p1738
aS'Sione Vaioleti'
p1739
aS'Sioeli Faupula'
p1740
aS'Kuea Kolokihakaufiji'
p1741
aS'Pila Iongi'
p1742
aS'Pepa Koloamatangi'
p1743
aS"Viliami Ma'afu"
p1744
aS"Ofa Fainga'anuku"
p1745
aS'Paula Kaho'
p1746
aS'Eddie Paea'
p1747
aS'Silivenusi Taumoepeau'
p1748
aS'Sona Taumalolo'
p1749
aS'Joe Tuineau'
p1750
aS'Tevita Ula'
p1751
aS'Sila Puafisi'
p1752
aS'Maleko Latu'
p1753
aS'Tomasi Palu'
p1754
aS"Halani 'Aulika"
p1755
aS'Taniela Moa'
p1756
aS"Fetu'u Vainikolo"
p1757
aS'Siale Piutau'
p1758
aS'Mafi Kefu'
p1759
aS"Viliami Fainga'a"
p1760
aS'Tevita Mailau'
p1761
aS'Sione Piukala'
p1762
aS'Elvis Taione'
p1763
aS'Eddie Aholelei'
p1764
aS'Taione Vea'
p1765
aS'Viliami Fihaki'
p1766
aS'Samisone Masima'
p1767
aS'Fraser Anderson'
p1768
aS'Siale Fahiua'
p1769
aS'Dan Faleafa'
p1770
aS'Rocky Havili'
p1771
aS"Uili Kolo'ofai"
p1772
aS'Latiume Fosita'
p1773
aS'Suliasi Taufalele'
p1774
aS"Mata'ali Paea"
p1775
aS'Otulea Katoa'
p1776
aS'Paula Ngauamo'
p1777
aS'Tane Takulua'
p1778
aS"Paea Fa'anunu"
p1779
aS'Siua Halanukonuka'
p1780
aS'Sione Lea'
p1781
aS'Telusa Veainu'
p1782
aS"Viliami Tahitu'a"
p1783
aS'Sefo Sakalia'
p1784
aS'Jack Ram'
p1785
aS"Sefo Ma'ake"
p1786
aS'Sione Faletau'
p1787
aS'Daniel Kilioni'
p1788
aS'Nafi Tuitavake'
p1789
aS"Sione Anga'aelangi"
p1790
aS'Kali Hala'
p1791
aS"'Apakuki Ma'afu"
p1792
aS'Fusi Malimali'
p1793
aS'Sione Tau'
p1794
aS'Wayne Ngaluafe'
p1795
aS'Martin Naufahu'
p1796
aS'Tevita Koloamatangi'
p1797
aS'Kotoni Ale'
p1798
aS'Valentino Mapapalangi'
p1799
aS'Fetuli Paea'
p1800
aS'Cooper Vuna'
p1801
aS'Apisai Turukawa'
p1802
aS'Marika Vakacegu'
p1803
aS'Akuila Matanibucaca'
p1804
aS'Aca Ratuva'
p1805
aS'Sunia Koto Vuli'
p1806
aS'Jone Qovu Nailiko'
p1807
aS'Sam Tabua'
p1808
aS'Jone Railomo Taginayaviusa'
p1809
aS'Ravuama Samo'
p1810
aS'Apo Satala'
p1811
aS'Jo Tora'
p1812
aS'Mosese Luveitasau Yabakitini'
p1813
aS'Akapusi Qera'
p1814
aS'Langi Peters'
p1815
aS'Maleli Kunavore'
p1816
aS'Kameli Ratuvou'
p1817
aS'Kini Salabogi'
p1818
aS'Mo Volavola'
p1819
aS'Tiko Matawalu'
p1820
aS'Neumi Nanuku'
p1821
aS'Sikeli Gavidi Tubuvanere'
p1822
aS'Aporosa Vata Tunisau'
p1823
aS'Masi Matadigo'
p1824
aS'Seveci Takamaiwai Sauradu'
p1825
aS'Netani Talei'
p1826
aS'Emosi Vucago'
p1827
aS'Semisi Saukawa'
p1828
aS'Vereniki Goneva'
p1829
aS'Isoa Coalala Neivua'
p1830
aS'Vesi Rauluni'
p1831
aS'Dan Rawaqa Maravunawasawasa'
p1832
aS'Tomasi Soqeta'
p1833
aS'Alefoso Yalayalatabua'
p1834
aS'Vitori Buatava'
p1835
aS'Wame Lewaravu'
p1836
aS'Graham Dewes'
p1837
aS'Gabrieli Lovobalavu'
p1838
aS'Waisea Luveniyali'
p1839
aS'Michael Tagicakibau'
p1840
aS'Deryck Thomas'
p1841
aS'Vereniki Sauturaga Racagi'
p1842
aS'Dale Tonawai Mataluvu'
p1843
aS'Jone Daunivucu'
p1844
aS'Timoci Nagusa'
p1845
aS'Sireli Naqelevuki'
p1846
aS'Jonetani Ralulu'
p1847
aS'Viliame Seuseu'
p1848
aS'Saula Radidi'
p1849
aS'Nemia Kenatale Ranuku'
p1850
aS'Sailasa Rabonaqica'
p1851
aS'Jovili Domolailai'
p1852
aS'Jeremaiya Tuilevu'
p1853
aS'Iliesa Keresoni'
p1854
aS'Rupeni Nasiga'
p1855
aS'Malakai Bolatagane Volau'
p1856
aS'Filimoni Bolavucu'
p1857
aS'Alipate Noilea'
p1858
aS'Waisale Sukanaveita'
p1859
aS'Sireli Ledua'
p1860
aS'Leone Nakarawa'
p1861
aS'Ilikena Bolakoro'
p1862
aS'Ropate Ratu'
p1863
aS'Sean Morrell'
p1864
aS'Ravai Fatiaki'
p1865
aS'Aisake Tarogi'
p1866
aS'Anthony Wise'
p1867
aS'Asaeli Boko'
p1868
aS'Deacon Manu'
p1869
aS'Josh Matavesi'
p1870
aS'Napolioni Nalaga'
p1871
aS'Vili Veikoso'
p1872
aS'Jonetani Ratu Nagado'
p1873
aS'Nasoni Rokobiau'
p1874
aS'Waisale Vatuvoka'
p1875
aS'Jimilai Naikadawa'
p1876
aS'Semi Tadulala'
p1877
aS'Kele Bolatagane'
p1878
aS"Campese Ma'afu"
p1879
aS'Seko Qaraniqio'
p1880
aS'Talemaitoga Tuapati'
p1881
aS'Dominiko Waqaniburotukula'
p1882
aS'Nemani Nadolo'
p1883
aS'Jaoji Dakuvula'
p1884
aS'Kelepi Ketedromo'
p1885
aS'Nikola Matawalu'
p1886
aS'Malakai Bakaniceva Radikedike'
p1887
aS'Epeli Ruivadra'
p1888
aS'Jo Naisilisili'
p1889
aS'William Saukuru'
p1890
aS'Albert Vulivuli'
p1891
aS'Malakai Ravulo'
p1892
aS'Vesi Rarawa'
p1893
aS'Tevita Cavubati'
p1894
aS'Kini Murimurivalu'
p1895
aS'Adriu Delai'
p1896
aS'Pen Makutu'
p1897
aS'Setefano Somoca'
p1898
aS'Waisea Nailago'
p1899
aS'Isake Katonibau'
p1900
aS'Simeli Koniferedi'
p1901
aS'Setareki Koroilagilagi'
p1902
aS'Api Naikatini'
p1903
aS'Waisea Nayacalevu Vuidravuwalu'
p1904
aS'Iliesa Ratuva'
p1905
aS'Watisoni Votu'
p1906
aS'Alusio Butonidualevu'
p1907
aS'Benedito Koroi'
p1908
aS'Seremaia Naureure Namaraevu'
p1909
aS'Jerry Yanuyanutawa'
p1910
aS'Iliesa Salusalu'
p1911
aS'Metuisela Talebula Maijaina'
p1912
aS'Maikeli Mocetadra'
p1913
aS'Apakuki Vuaviri'
p1914
aS'Api Ratuniyarawa'
p1915
aS'Samu Wara'
p1916
aS'Manasa Saulo Romumu'
p1917
aS'Aisea Natoga'
p1918
aS'Nemani Nagusa'
p1919
aS'Leone Ravuetaki Tubuarua'
p1920
aS'Juita Lutumailagi'
p1921
aS'Aporosa Kenatale'
p1922
aS'Sam Matavesi'
p1923
aS'Aseli Tikoirotuma'
p1924
aS'Lepani Botia Veivuke'
p1925
aS'Alex Rokobaro'
p1926
aS'Peni Ravai Kovekalou'
p1927
aS'Henry Seniloli'
p1928
aS'Sammy Speight'
p1929
aS'Maku Koroiyadi'
p1930
aS'Isei Colati Koliavu'
p1931
aS'Lee-Roy Atalifo'
p1932
aS'Alipate Ratini'
p1933
aS'Nemia Soqeta'
p1934
aS'Taniela Koroi'
p1935
aS'Benito Masilevu'
p1936
aS'Ben Volavola'
p1937
aS'Peceli Yato'
p1938
aS'Naulia Dawai'
p1939
aS'Patrick Osborne'
p1940
aS'Samisoni Viriviri Nasagavesi'
p1941
aS'Eremasi Radrodro'
p1942
aS'Save Tabakanalagi'
p1943
aS'Serupepeli Vularika'
p1944
aS'Eroni Vasiteri Narumasa'
p1945
aS'Mosese Voka'
p1946
aS'Savenaca Rawaca'
p1947
aS'Mesake Doge'
p1948
aS'Jale Sassen'
p1949
aS'Vatemo Ravouvou'
p1950
aS'Joeli Veitayaki'
p1951
aS'Go Aruga'
p1952
aS'Tomoki Kitagawa'
p1953
aS'James Arlidge'
p1954
aS'Bryce Robins'
p1955
aS'Koji Taira'
p1956
aS'Tomoki Yoshida'
p1957
aS'Yusuke Aoki'
p1958
aS'Yuji Kitagawa'
p1959
aS'Kosei Ono'
p1960
aS'Toshiaki Hirose'
p1961
aS'Takamichi Sasaki'
p1962
aS'Luke Thompson'
p1963
aS'Taku Inokuchi'
p1964
aS'Takahiro Sugiura'
p1965
aS'Glen Marsh'
p1966
aS'Tatsuya Kusumi'
p1967
aS'Chul-Won Kim'
p1968
aS'Ryan Nicholas'
p1969
aS'Koji Shinozuka'
p1970
aS'Hiroki Yoshida'
p1971
aS'Yoshitaka Nakayama'
p1972
aS'Akira Ozaki'
p1973
aS'Takashi Sato'
p1974
aS'Yosuke Ikegaya'
p1975
aS'Yuta Inose'
p1976
aS'Taira Sato'
p1977
aS'Fumiaki Tanaka'
p1978
aS'Shaun Webb'
p1979
aS'Koliniashi Holani'
p1980
aS'Naonori Mizuyama'
p1981
aS'Kensuke Hatakeyama'
p1982
aS'Hisateru Hirashima'
p1983
aS'Kaoru Matsushita'
p1984
aS'Koji Tomioka'
p1985
aS'Michael Leitch'
p1986
aS'Masakazu Irie'
p1987
aS'Naoki Kawamata'
p1988
aS'Piei Mafileo'
p1989
aS'Masato Toyoda'
p1990
aS'Toetuu Taufa'
p1991
aS'Hiroshi Yamashita'
p1992
aS'Tateo Kanai'
p1993
aS'Shinsuke Nakamura'
p1994
aS'Jack Tarrant'
p1995
aS'Yoshimitsu Yasue'
p1996
aS'Masakazu Toyota'
p1997
aS'Shota Horie'
p1998
aS'Daniel Quate'
p1999
aS'Alisi Tupuailei'
p2000
aS'Takeshi Kizu'
p2001
aS'Shinya Makabe'
p2002
aS'Yasunori Nagatomo'
p2003
aS'Sione Vatuvei'
p2004
aS'Nozomu Fujita'
p2005
aS'Hiroki Yuhara'
p2006
aS'Ryo Kanazawa'
p2007
aS'Koji Wada'
p2008
aS'Ryohei Yamanaka'
p2009
aS'Atsushi Tanabe'
p2010
aS'Itaru Taniguchi'
p2011
aS'Atsushi Hiwasa'
p2012
aS'Justin Ives'
p2013
aS'Taihei Ueda'
p2014
aS'Takehisa Usuzuki'
p2015
aS'Ryuta Ueno'
p2016
aS'Tadasuke Nishihara'
p2017
aS'Murray Williams'
p2018
aS'Ryuhei Arita'
p2019
aS'Jun Fujii'
p2020
aS'Shoji Ito'
p2021
aS'Yuusuke Nagae'
p2022
aS'Tomohiro Senba'
p2023
aS'Yu Tamura'
p2024
aS'Yuta Mochizuki'
p2025
aS'Harumichi Tatekawa'
p2026
aS'Hidetatsu Tsuboi'
p2027
aS'Keisuke Uchida'
p2028
aS'Yoshikazu Fujita'
p2029
aS'Daiki Hashimoto'
p2030
aS'Yusaku Kuwazuru'
p2031
aS'Kaito Morikawa'
p2032
aS'Hendrik Tui'
p2033
aS'Michael Broadhurst'
p2034
aS'Masataka Mikami'
p2035
aS"Male Sa'u"
p2036
aS'Takuma Asahara'
p2037
aS'Kenki Fukuoka'
p2038
aS'Craig Wing'
p2039
aS'Ryoto Nakamura'
p2040
aS'Ryuta Yasui'
p2041
aS'Akihito Yamada'
p2042
aS'Hayden Hopgood'
p2043
aS'Kotaro Matsushima'
p2044
aS'Daishi Murata'
p2045
aS'Yasuki Hayashi'
p2046
aS'Kyosuke Horie'
p2047
aS'Karne Hesketh'
p2048
aS'Amanaki Mafi'
p2049
aS'Keita Inagaki'
p2050
aS'Shinnosuke Kakinaga'
p2051
aS'Chihito Matsui'
p2052
aS'Tsuyoshi Murata'
p2053
aS'Kazuhiko Usami'
p2054
aS'Tim Bennetts'
p2055
aS'Takayuki Watanabe'
p2056
aS'Taiyo Ando'
p2057
aS'Yu Chinen'
p2058
aS'Takuya Ishibashi'
p2059
aS'Kengo Kitagawa'
p2060
aS'Kentaro Kodama'
p2061
aS'Futoshi Mori'
p2062
aS'Ryuji Noguchi'
p2063
aS'Tevita Tatafu'
p2064
aS'Hiroki Yamamoto'
p2065
aS'Hajime Yamashita'
p2066
aS'Kotaro Yatabe'
p2067
aS'Kanta Higashionna'
p2068
aS'Daisuke Inoue'
p2069
aS'Naohiro Kotaki'
p2070
aS'Dogo Maeda'
p2071
aS'Ataata Moeakiola'
p2072
aS'Atsushi Sakate'
p2073
aS'Shokei Kin'
p2074
aS'Shogo Miura'
p2075
aS'Masato Furukawa'
p2076
aS'Takuhei Yasuda'
p2077
aS'Daigo Hashimoto'
p2078
aS'Faulua Makisi'
p2079
aS'Daiki Nakajima'
p2080
aS'Yoshiya Hosoda'
p2081
aS'Mifi Poseti Paea'
p2082
aS'Yasutaka Sasakura'
p2083
aS'Rikiya Matsuda'
p2084
aS'Kaito Shigeno'
p2085
aS'Samuela Anisi'
p2086
aS'Uwe Helu'
p2087
aS'Kyosuke Kajikawa'
p2088
aS'Lemeki Lomano Lava'
p2089
aS'Amanaki Lotoahea'
p2090
aS'Yuhimaru Mimura'
p2091
aS'Satoshi Nakatani'
p2092
aS'Malgene Ilaua'
p2093
aS'Heiichiro Ito'
p2094
aS'Timothy Lafaele'
p2095
aS'Shuhei Matsuhashi'
p2096
aS'Takahiro Ogawa'
p2097
aS'Koki Yamamoto'
p2098
aS'Shunsuke Nunomaki'
p2099
aS'Yasuo Yamaji'
p2100
aS'Takeshi Hino'
p2101
aS'David Moonlight'
p2102
aS'Chad Plater'
p2103
aS'Pat Riordan'
p2104
aS'Ryan Smith'
p2105
aS'Aaron Abrams'
p2106
aS'James Pritchard'
p2107
aS'Jim Douglas'
p2108
aS'Jeff Reid'
p2109
aS'Josh Jackson'
p2110
aS'Pat Bickerton'
p2111
aS'Forrest Gainer'
p2112
aS'Stan McKeen'
p2113
aS"Sean O'Leary"
p2114
aS'Alby Pasutto'
p2115
aS'Mike Pyke'
p2116
aS'Mike Webb'
p2117
aS'Tyler Wish'
p2118
aS'Mike Burak'
p2119
aS'Brian Collins'
p2120
aS'Pat Fleck'
p2121
aS'Tony LaCarte'
p2122
aS'Barkley Luke'
p2123
aS'Dan Pletch'
p2124
aS'Matt Weingart'
p2125
aS'Mike Langley'
p2126
aS'Stirling Richmond'
p2127
aS'Christoph Strubin'
p2128
aS'Derek Daypuck'
p2129
aS'Dave Spicer'
p2130
aS'Aaron Carpenter'
p2131
aS'Dave Ramsay'
p2132
aS'Luke Tait'
p2133
aS'Ken Goodland'
p2134
aS'Ollie Atkinson'
p2135
aS'Brodie Henderson'
p2136
aS'Dean van Camp'
p2137
aS'Kevin Parfrey'
p2138
aS'Simon Pacey'
p2139
aS'Kris Witkowski'
p2140
aS'Peter Densmore'
p2141
aS'Casey Dunning'
p2142
aS'Iain Exner'
p2143
aS'Sean-Michael Stephen'
p2144
aS'Simon Rodgers'
p2145
aS'Akio Tyler'
p2146
aS'Mike Pletch'
p2147
aS'Adam Kleeberger'
p2148
aS'Ryan McWhinney'
p2149
aS'Scott Hunter'
p2150
aS'Ryan Stewart'
p2151
aS'Justin Mensah-Coker'
p2152
aS'Chris Pack'
p2153
aS'Dave Biddle'
p2154
aS'Matt Phinney'
p2155
aS'Mike Barbieri'
p2156
aS'Ander Monro'
p2157
aS'Hubert Buydens'
p2158
aS'Craig Culpan'
p2159
aS'DTH van der Merwe'
p2160
aS'Stu Ault'
p2161
aS'Scott Franklin'
p2162
aS'Nanyak Dala'
p2163
aS'Nick Trenkel'
p2164
aS'Luke Cudmore'
p2165
aS'Tyler Hotson'
p2166
aS'Bryn Keys'
p2167
aS'Andy Wilson'
p2168
aS'Andrew Fagan'
p2169
aS'Phil MacKenzie'
p2170
aS'Nathan Hirayama'
p2171
aS'Jebb Sinclair'
p2172
aS'Ciaran Hearn'
p2173
aS'Matt Evans'
p2174
aS'Frank Walsh'
p2175
aS'Sean Duke'
p2176
aS'Jason Marshall'
p2177
aS"Chauncey O'Toole"
p2178
aS'Phil Mack'
p2179
aS'Doug Wooldridge'
p2180
aS'Andrew Tiedemann'
p2181
aS'John Moonlight'
p2182
aS'Nick Blevins'
p2183
aS'Sean White'
p2184
aS'Tom Dolezel'
p2185
aS'Brian Erichsen'
p2186
aS'Mark MacSween'
p2187
aS'Mike Scholz'
p2188
aS'Ryan Hamilton'
p2189
aS'Jeremy Kyne'
p2190
aS'Taylor Paris'
p2191
aS'Connor Braid'
p2192
aS'Mitch Gudgeon'
p2193
aS'Jamie Mackenzie'
p2194
aS'Jon Phelan'
p2195
aS'Conor Trainor'
p2196
aS'Brett Beukeboom'
p2197
aS'Tyler Ardron'
p2198
aS'Jeff Hassler'
p2199
aS'Ray Barkwill'
p2200
aS'Eric Wilson'
p2201
aS'Harry Jones'
p2202
aS'Pat Parfrey'
p2203
aS'Liam Underwood'
p2204
aS'Aaron Flagg'
p2205
aS'Michael Fuailefau'
p2206
aS'Cam Pierce'
p2207
aS'Jake Ilnicki'
p2208
aS'Benoit Piffero'
p2209
aS'Kyle Gilmour'
p2210
aS'Djustice Sears-Duru'
p2211
aS'Gordon McRorie'
p2212
aS'Jordan Wilson-Ross'
p2213
aS'Richard Thorpe'
p2214
aS'Thyssen de Goede'
p2215
aS'Callum Morrison'
p2216
aS'Evan Olmstead'
p2217
aS'Gradyn Bowd'
p2218
aS'Paul Ciulini'
p2219
aS'Dan Moor'
p2220
aS'Clay Panga'
p2221
aS'Lucas Rumball'
p2222
aS'Mozac Samson'
p2223
aS'Allistair Clark'
p2224
aS'Kyle Baille'
p2225
aS'Liam Chisholm'
p2226
aS'Andrew Ferguson'
p2227
aS'Duncan Maguire'
p2228
aS'Brock Staller'
p2229
aS'Rob Brouwer'
p2230
aS'Joe Dolesau'
p2231
aS'Michael Hamson'
p2232
aS'Eric Howard'
p2233
aS'Brett Johnson'
p2234
aS'Jacob Robinson'
p2235
aS'Ryan Kotlewski'
p2236
aS'Matt Heaton'
p2237
aS'Matt Tierney'
p2238
aS'Admir Cevjanovic'
p2239
aS'Ben LeSage'
p2240
aS'Giuseppe du Toit'
p2241
aS'Conor Keys'
p2242
aS'Oliver Nott'
p2243
aS'George Barton'
p2244
aS'Matt Beukeboom'
p2245
aS'Cole Keith'
p2246
aS"Reegan O'Gorman"
p2247
aS'Robbie Povey'
p2248
aS'Lucas Albornoz'
p2249
aS'Kainoa Lloyd'
p2250
aS'Rory McDonell'
p2251
aS'Scott Lawrence'
p2252
aS'Hayden Mexted'
p2253
aS'Justin Stencel'
p2254
aS'Chad Erskine'
p2255
aS'Adam Russell'
p2256
aS'Jon Vitale'
p2257
aS'Blake Burdette'
p2258
aS'Ron Rosser'
p2259
aS'Mark Crick'
p2260
aS'Nese Malifa'
p2261
aS'Pat Quinn'
p2262
aS'Chris Wyles'
p2263
aS'Tui Osborne'
p2264
aS'Ben Wiedemer'
p2265
aS'Inaki Basauri Flores'
p2266
aS'Dan Payne'
p2267
aS'Henry Bloomfield'
p2268
aS'Taku Ngwenya'
p2269
aS'Mate Moeakiola'
p2270
aS'Thretton Palamo'
p2271
aS'Mike Petri'
p2272
aS'Gavin DeBartolo'
p2273
aS'John van der Giessen'
p2274
aS'Brian Doyle'
p2275
aS'Mone Laulaupeaalu'
p2276
aS'Jason Lett'
p2277
aS'Chad Slaby'
p2278
aS'Justin Boyd'
p2279
aS'Robbie Shaw'
p2280
aS'Junior Sifa'
p2281
aS'Hayden Smith'
p2282
aS'JJ Gagiano'
p2283
aS'Shawn Pittman'
p2284
aS'Andrew Suniula'
p2285
aS'Joe Welch'
p2286
aS'Brian Lemay'
p2287
aS'Courtney Mackay'
p2288
aS'Chris Biller'
p2289
aS'Peter Dahl'
p2290
aS'Nic Johnson'
p2291
aS'Will Johnson'
p2292
aS'Roland Suniula'
p2293
aS'Kevin Swiryn'
p2294
aS'Ata Malifa'
p2295
aS'Tim Usasz'
p2296
aS'Brian McClenahan'
p2297
aS'Colin Hawley'
p2298
aS'Phil Thiel'
p2299
aS'Jake Sprague'
p2300
aS'Pat Danahy'
p2301
aS'Matt Hawkins'
p2302
aS'Scott LaValla'
p2303
aS'Tony Purpura'
p2304
aS'Volney Rouse'
p2305
aS'Seta Tuilevuka'
p2306
aS'Samu Manoa'
p2307
aS'Tai Enosa'
p2308
aS'Eric Fry'
p2309
aS'Troy Hall'
p2310
aS'Blaine Scully'
p2311
aS'James Paterson'
p2312
aS'Ryan Chapman'
p2313
aS'Andrew Durutalo'
p2314
aS'Will Holder'
p2315
aS'Luke Hume'
p2316
aS'Taylor Mokate'
p2317
aS'Derek Asbun'
p2318
aS'Dre Liufau'
p2319
aS'Cornelius Dirksen'
p2320
aS"Toby L'Estrange"
p2321
aS'John Quill'
p2322
aS'Zach Fenoglio'
p2323
aS'Zach Pangelinan'
p2324
aS'Graham Harriman'
p2325
aS'Adam Siddall'
p2326
aS'Seamus Kelly'
p2327
aS'Liam Murphy'
p2328
aS'Nick Wallace'
p2329
aS'Cam Dolan'
p2330
aS'Titi Lamositele'
p2331
aS'Folau Niua'
p2332
aS'Tim Maupin'
p2333
aS'Olive Kilifi'
p2334
aS'Tai Tuisamoa'
p2335
aS'Shaun Davies'
p2336
aS'Tom Coolican'
p2337
aS'Kyle Sumsion'
p2338
aS'Shalom Suniula'
p2339
aS'Danny Barrett'
p2340
aS'Chad London'
p2341
aS'Brett Thompson'
p2342
aS'Tim Stanfill'
p2343
aS'Matt Trouville'
p2344
aS'John Cullen'
p2345
aS'Greg Peterson'
p2346
aS'Ben Tarr'
p2347
aS'Ronnie McLean-Dents'
p2348
aS'Aj MacGinty'
p2349
aS'Zach Test'
p2350
aS'Al McFarland'
p2351
aS'Chris Baumann'
p2352
aS'Niku Kruger'
p2353
aS"Joe Taufete'e"
p2354
aS'Jake Anderson'
p2355
aS'James Bird'
p2356
aS'Nate Brakeley'
p2357
aS'LeMoto Fillikitonga'
p2358
aS'Ben Landry'
p2359
aS'Kingsley McGowan'
p2360
aS'Brodie Orth'
p2361
aS'Mike Sosene-Feagai'
p2362
aS'David Tameilau'
p2363
aS"Mike Te'o"
p2364
aS'Jean-Pierre Eloff'
p2365
aS'Mike Garrity'
p2366
aS'Alec Gletzer'
p2367
aS'James Hilterbrand'
p2368
aS'Tom Bliss'
p2369
aS'Nic Edwards'
p2370
aS'Lorenzo Thomas'
p2371
aS'Demecus Beach'
p2372
aS'Pat Blair'
p2373
aS'Ryan Matyas'
p2374
aS'James King'
p2375
aS'Aladdin Schirmer'
p2376
aS'Hanco Germishuys'
p2377
aS'Deion Mikesell'
p2378
aS'Nate Augspurger'
p2379
aS'Tony Lamborn'
p2380
aS'Angus MacLellan II'
p2381
aS'Langilangi Haupeakui'
p2382
aS'Harry Higgins'
p2383
aS'Stephen Tomasin'
p2384
aS'Bryce Campbell'
p2385
aS'Nick Civetta'
p2386
aS'Madison Hughes'
p2387
aS'Martin Iosefo'
p2388
aS'Matai Leuta'
p2389
aS'Dino Waldren'
p2390
aS'Marcel Brache'
p2391
aS'Ben Cima'
p2392
aS'Peter Malcolm'
p2393
aS'Matthew Jensen'
p2394
aS'Will Magie'
p2395
aS'Alex Maughan'
p2396
aS'Spike Davis'
p2397
aS'Peter Tiberio'
p2398
aS'CC Mahoni'
p2399
aS'Andrew Turner'
p2400
aS'Calvin Whiting'
p2401
a.