(lp1
VHooker
p2
aVScrum-half
p3
aVCentre
p4
aVCentre
p5
aVCentre
p6
aVLock
p7
aVFullback
p8
aVCentre
p9
aVWing
p10
aVProp
p11
aVCentre
p12
aVProp
p13
aVCentre
p14
aVFullback
p15
aVLock
p16
aVProp
p17
aVFlanker
p18
aVHooker
p19
aVProp
p20
aVWing
p21
aVBack-row
p22
aVProp
p23
aVLock
p24
aVScrum-half
p25
aVFullback
p26
aVBack-row
p27
aVProp
p28
aVFly-half
p29
aVFullback
p30
aVLock
p31
aVProp
p32
aVHooker
p33
aVWing
p34
aVLock
p35
aVFlanker
p36
aVScrum-half
p37
aVHooker
p38
aVFly-half, Scrum-half
p39
aVCentre
p40
aVScrum-half
p41
aVWing
p42
aVFly-half
p43
aVCentre
p44
aVFullback
p45
aVBack-row
p46
aVLock, No. 8
p47
aVWing
p48
aVFly-half
p49
aVBack-row
p50
aVProp
p51
aVFullback
p52
aVLock
p53
aVHooker
p54
aVProp
p55
aVLock
p56
aVBack-row
p57
aVFullback, Wing
p58
aVCentre
p59
aVNo. 8
p60
aVFly-half
p61
aVWing
p62
aVScrum-half
p63
aVBack-row
p64
aVScrum-half
p65
aVWing
p66
aVScrum-half
p67
aVHooker
p68
aVProp
p69
aVFullback
p70
aVCentre
p71
aVLock
p72
aVWing
p73
aVHooker
p74
aVBack-row
p75
aVBack-row
p76
aVFullback
p77
aVWing
p78
aVCentre
p79
aVProp
p80
aVFullback, Fly-half
p81
aVBack-row
p82
aVCentre
p83
aVLock
p84
aVProp
p85
aVProp
p86
aVProp
p87
aVScrum-half
p88
aVWing
p89
aVCentre
p90
aVLock
p91
aVFlanker
p92
aVFlanker
p93
aVProp
p94
aVCentre
p95
aVLock
p96
aVWing
p97
aVScrum-half
p98
aVCentre
p99
aVBack-row
p100
aVCentre, Fly-half
p101
aVScrum-half
p102
aVNo. 8
p103
aVLock
p104
aVCentre
p105
aVHooker
p106
aVBack-row
p107
aVProp
p108
aVCentre
p109
aVFullback, Fly-half
p110
aVNo. 8
p111
aVHooker
p112
aVLock
p113
aVProp
p114
aVFly-half
p115
aVCentre
p116
aVBack-row
p117
aVWing
p118
aVCentre
p119
aVProp
p120
aVNo. 8
p121
aVCentre
p122
aVWing
p123
aVFly-half
p124
aVCentre
p125
aVCentre
p126
aVFullback
p127
aVFly-half
p128
aVHooker
p129
aVFullback
p130
aVProp
p131
aVWing
p132
aVBack-row
p133
aVFullback, Wing
p134
aVBack-row
p135
aVFlanker
p136
aVFly-half
p137
aVProp, Hooker
p138
aVHooker
p139
aVBack-row
p140
aVProp
p141
aVLock, Back-row
p142
aVCentre
p143
aVFlanker
p144
aVFullback, Fly-half
p145
aVProp
p146
aVHooker
p147
aVBack-row
p148
aVProp
p149
aVCentre
p150
aVLock
p151
aVFlanker
p152
aVFlanker
p153
aVScrum-half
p154
aVScrum-half
p155
aVHooker
p156
aVCentre
p157
aVHooker
p158
aVBack-row
p159
aVFullback, Wing
p160
aVWing, Centre
p161
aVLock
p162
aVBack-row
p163
aVBack-row
p164
aVLock
p165
aVBack-row
p166
aVScrum-half
p167
aVLock
p168
aVHooker
p169
aVCentre
p170
aVOutside back
p171
aVBack-row
p172
aVCentre
p173
aVFlanker
p174
aVFly-half
p175
aVWing
p176
aVCentre, Fly-half
p177
aVScrum-half
p178
aVCentre
p179
aVFullback
p180
aVProp
p181
aVCentre
p182
aVProp
p183
aVFlanker
p184
aVCentre
p185
aVLock, Flanker
p186
aVProp
p187
aVFullback
p188
aVWing
p189
aVProp
p190
aVCentre
p191
aVWing
p192
aVBack-row
p193
aVHooker
p194
aVWing
p195
aVScrum-half
p196
aVBack-row
p197
aVOutside back
p198
aVFly-half
p199
aVWing
p200
aVFullback
p201
aVCentre
p202
aVLock
p203
aVBack-row
p204
aVLock
p205
aVHooker
p206
aVLock
p207
aVBack-row
p208
aVFullback, Wing
p209
aVBack-row
p210
aVHooker
p211
aVFly-half
p212
aVProp
p213
aVWing, Back-row
p214
aVCentre
p215
aVScrum-half
p216
aVNo. 8
p217
aVWing, Centre
p218
aVNo. 8
p219
aVLock
p220
aVScrum-half
p221
aVBack-row
p222
aVHooker
p223
aVBack-row
p224
aVProp
p225
aVCentre
p226
aVBack-row
p227
aVCentre
p228
aVWing
p229
aVLock
p230
aVCentre
p231
aVProp
p232
aVProp
p233
aVCentre
p234
aVProp
p235
aVCentre
p236
aVBack-row
p237
aVLock
p238
aVFly-half
p239
aVScrum-half
p240
aVCentre
p241
aVFullback, Wing
p242
aVBack-row
p243
aVWing
p244
aVFullback, Centre
p245
aVProp
p246
aVFly-half
p247
aVCentre
p248
aVProp
p249
aVProp
p250
aVWing
p251
aVWing
p252
aVLock
p253
aVFlanker
p254
aVScrum-half
p255
aVFly-half
p256
aVWing
p257
aVFlanker
p258
aVLock
p259
aVCentre
p260
aVHooker
p261
aVFullback
p262
aVCentre, Fly-half
p263
aVHooker
p264
aVWing
p265
aVFullback
p266
aVWing
p267
aVLock
p268
aVHooker
p269
aVLock
p270
aVLock
p271
aVFlanker
p272
aVWing, Centre
p273
aVFlanker
p274
aVProp
p275
aVFly-half
p276
aVProp
p277
aVProp
p278
aVScrum-half
p279
aVFlanker
p280
aVBack-row
p281
aVCentre
p282
aVScrum-half
p283
aVLock
p284
aVBack-row
p285
aVFlanker
p286
aVProp
p287
aVBack-row
p288
aVWing
p289
aVHooker
p290
aVWing
p291
aVProp
p292
aVFlanker
p293
aVProp
p294
aVProp
p295
aVCentre
p296
aVProp
p297
aVBack-row
p298
aVScrum-half
p299
aVProp
p300
aVBack-row
p301
aVWing, Centre
p302
aVFullback
p303
aVScrum-half
p304
aVFullback, Wing
p305
aVCentre
p306
aVScrum-half
p307
aVCentre
p308
aVLock
p309
aVCentre
p310
aVProp
p311
aVBack-row
p312
aVBack-row
p313
aVProp
p314
aVWing, Centre
p315
aVFly-half
p316
aVScrum-half
p317
aVFullback, Wing
p318
aVBack-row
p319
aVScrum-half
p320
aVWing
p321
aVFullback
p322
aVProp
p323
aVHooker
p324
aVLock
p325
aVProp
p326
aVHooker
p327
aVLock
p328
aVFly-half
p329
aVLock
p330
aVFlanker
p331
aVWing
p332
aVLock
p333
aVLock
p334
aVFullback, Fly-half
p335
aVProp
p336
aVWing
p337
aVFlanker
p338
aVHooker
p339
aVFullback
p340
aVBack-row
p341
aVWing
p342
aVBack-row
p343
aVLock, Flanker
p344
aVNo. 8
p345
aVScrum-half
p346
aVLock
p347
aVHooker
p348
aVCentre
p349
aVWing, Centre
p350
aVBack-row
p351
aVHooker
p352
aVWing
p353
aVHooker
p354
aVScrum-half
p355
aVScrum-half
p356
aVProp
p357
aVCentre
p358
aVFlanker
p359
aVFullback, Wing
p360
aVNo. 8
p361
aVOutside back
p362
aVProp
p363
aVWing, Centre
p364
aVScrum-half
p365
aVFlanker
p366
aVFullback, Wing
p367
aVUtility back
p368
aVLock, Flanker
p369
aVProp
p370
aVCentre
p371
aVWing
p372
aVFly-half
p373
aVBack-row
p374
aVBack-row
p375
aVCentre
p376
aVLock
p377
aVProp
p378
aVUtility back
p379
aVProp
p380
aVFly-half
p381
aVHooker
p382
aVBack-row
p383
aVLock, Back-row
p384
aVHooker
p385
aVLock
p386
aVFlanker
p387
aVBack-row
p388
aVHooker
p389
aVLock
p390
aVWing, Centre
p391
aVLock
p392
aVFullback
p393
aVScrum-half
p394
aVBack-row
p395
aVProp
p396
aVFullback, Wing
p397
aVProp
p398
aVHooker
p399
aVProp
p400
aVLock
p401
aVProp
p402
aVWing
p403
aVFly-half
p404
aVCentre
p405
aVFly-half
p406
aVProp
p407
aVScrum-half
p408
aVFullback, Centre
p409
aVCentre
p410
aVProp
p411
aVBack-row
p412
aVHooker
p413
aVCentre
p414
aVProp
p415
aVFullback, Wing
p416
aVProp
p417
aVFlanker
p418
aVNo. 8
p419
aVProp
p420
aVScrum-half
p421
aVProp
p422
aVHooker
p423
aVCentre, Fly-half
p424
aVFullback
p425
aVLock
p426
aVFlanker
p427
aVBack-row
p428
aVNo. 8
p429
aVProp
p430
aVProp
p431
aVBack-row
p432
aVCentre
p433
aVFlanker
p434
aVLock
p435
aVProp
p436
aVLock
p437
aVFullback, Wing
p438
aVBack-row
p439
aVWing
p440
aVFly-half
p441
aVLock, Back-row
p442
aVBack-row
p443
aVCentre
p444
aVWing
p445
aVFlanker
p446
aVScrum-half
p447
aVProp
p448
aVHooker
p449
aVHooker
p450
aVFullback, Wing
p451
aVFullback
p452
aVUtility back
p453
aVLock
p454
aVProp
p455
aVLock
p456
aVWing
p457
aVScrum-half
p458
aVFullback
p459
aVLock, Back-row
p460
aVBack-row
p461
aVFly-half
p462
aVHooker
p463
aVBack-row
p464
aVCentre
p465
aVWing, Centre
p466
aVScrum-half
p467
aVHalfback, Back-row
p468
aVWing
p469
aVProp
p470
aVFullback, Wing
p471
aVCentre
p472
aVBack-row
p473
aVProp
p474
aVFlanker
p475
aVScrum-half
p476
aVLock
p477
aVHooker
p478
aVProp
p479
aVCentre
p480
aVBack-row
p481
aVLock
p482
aVFly-half
p483
aVCentre
p484
aVHooker
p485
aVBack-row
p486
aVBack-row
p487
aVBack-row
p488
aVFly-half
p489
aVHooker
p490
aVProp
p491
aVWing, Centre
p492
aVLock
p493
aVProp
p494
aVScrum-half
p495
aVBack-row
p496
aVCentre
p497
aVScrum-half
p498
aVHooker
p499
aVCentre
p500
aVBack-row
p501
aVBack-row
p502
aVLock
p503
aVProp
p504
aVBack-row
p505
aVHooker
p506
aVProp
p507
aVBack-row
p508
aVWing, Centre
p509
aVHooker
p510
aVWing
p511
aVFly-half
p512
aVFullback
p513
aVProp
p514
aVLock
p515
aVNo. 8
p516
aVFullback
p517
aVLock
p518
aVLock
p519
aVHooker
p520
aVFly-half
p521
aVProp
p522
aVCentre
p523
aVWing
p524
aVProp
p525
aVLock
p526
aVLock
p527
aVWing
p528
aVFullback
p529
aVCentre
p530
aVScrum-half
p531
aVCentre
p532
aVFullback
p533
aVBack-row
p534
aVScrum-half
p535
aVFly-half
p536
aVProp
p537
aVLock
p538
aVCentre
p539
aVFullback
p540
aVProp
p541
aVCentre
p542
aVBack-row
p543
aVFlanker
p544
aVScrum-half
p545
aVProp
p546
aVWing
p547
aVNo. 8
p548
aVScrum-half
p549
aVWing
p550
aVWing
p551
aVFly-half
p552
aVBack-row
p553
aVProp
p554
aVBack-row
p555
aVProp
p556
aVHooker
p557
aVCentre
p558
aVBack-row
p559
aVScrum-half
p560
aVHooker
p561
aVWing
p562
aVBack-row
p563
aVLock
p564
aVScrum-half
p565
aVProp
p566
aVWing
p567
aVFullback
p568
aVCentre
p569
aVCentre
p570
aVProp
p571
aVBack-row
p572
aVLock
p573
aVWing
p574
aVFlanker
p575
aVHooker
p576
aVCentre
p577
aVBack-row
p578
aVFly-half
p579
aVBack-row
p580
aVFlanker
p581
aVHooker
p582
aVCentre
p583
aVProp
p584
aVWing
p585
aVScrum-half
p586
aVLock
p587
aVScrum-half
p588
aVFly-half
p589
aVProp
p590
aVProp
p591
aVLock
p592
aVCentre
p593
aVBack-row
p594
aVWing
p595
aVFullback, Fly-half
p596
aVHooker
p597
aVProp
p598
aVBack-row
p599
aVFly-half
p600
aVLock
p601
aVWing
p602
aVLock
p603
aVScrum-half
p604
aVLock
p605
aVWing
p606
aVHooker
p607
aVHooker
p608
aVNo. 8
p609
aVBack-row
p610
aVLock
p611
aVCentre
p612
aVProp
p613
aVNo. 8
p614
aVLock
p615
aVProp
p616
aVWing
p617
aVFlanker
p618
aVProp
p619
aVScrum-half
p620
aVProp, Hooker
p621
aVFlanker
p622
aVLock, Flanker
p623
aVWing
p624
aVFlanker
p625
aVCentre
p626
aVHooker
p627
aVWing
p628
aVLock
p629
aVProp
p630
aVCentre
p631
aVLock
p632
aVFly-half
p633
aVBack-row
p634
aVProp
p635
aVNo. 8
p636
aVScrum-half
p637
aVWing
p638
aVBack-row
p639
aVHooker
p640
aVScrum-half
p641
aVFlanker
p642
aVWing
p643
aVProp
p644
aVBack-row
p645
aVWing
p646
aVScrum-half
p647
aVHooker
p648
aVCentre
p649
aVLock
p650
aVCentre
p651
aVWing
p652
aVNo. 8
p653
aVProp
p654
aVScrum-half
p655
aVHooker
p656
aVWing
p657
aVFullback, Centre
p658
aVCentre
p659
aVCentre, Fly-half
p660
aVLock
p661
aVFlanker
p662
aVCentre
p663
aVNo. 8
p664
aVProp
p665
aVHooker
p666
aVFly-half
p667
aVBack-row
p668
aVProp
p669
aVLock
p670
aVProp
p671
aVProp
p672
aVWing
p673
aVHooker
p674
aVHooker
p675
aVWing
p676
aVFlanker
p677
aVFly-half
p678
aVFullback, Wing
p679
aVProp
p680
aVFlanker
p681
aVWing, Scrum-half
p682
aVBack-row
p683
aVFullback
p684
aVCentre
p685
aVFlanker
p686
aVWing
p687
aVLock
p688
aVLock
p689
aVHooker
p690
aVFlanker
p691
aVBack-row
p692
aVFly-half
p693
aVBack-row
p694
aVWing
p695
aVProp
p696
aVBack-row
p697
aVProp
p698
aVLock
p699
aVScrum-half
p700
aVBack-row
p701
aVLock
p702
aVLock
p703
aVProp
p704
aVLock
p705
aVProp
p706
aVWing, Centre
p707
aVHooker
p708
aVNo. 8
p709
aVFly-half
p710
aVFullback
p711
aVFly-half
p712
aVFlanker
p713
aVFullback
p714
aVScrum-half
p715
aVProp
p716
aVCentre
p717
aVFlanker
p718
aVScrum-half
p719
aVLock
p720
aVProp
p721
aVLock
p722
aVProp
p723
aVWing
p724
aVLock
p725
aVFly-half
p726
aVFly-half
p727
aVLock
p728
aVBack-row
p729
aVProp
p730
aVCentre
p731
aVNo. 8
p732
aVScrum-half
p733
aVBack-row
p734
aVProp
p735
aVFullback
p736
aVProp
p737
aVUtility back
p738
aVScrum-half
p739
aVScrum-half
p740
aVFullback
p741
aVLock
p742
aVProp
p743
aVFlanker
p744
aVHooker
p745
aVHooker
p746
aVCentre
p747
aVFlanker
p748
aVCentre
p749
aVWing
p750
aVFlanker
p751
aVLock, Flanker
p752
aVCentre
p753
aVProp
p754
aVFullback, Wing
p755
aVProp
p756
aVCentre
p757
aVScrum-half
p758
aVNo. 8
p759
aVBack-row
p760
aVFullback, Wing
p761
aVBack-row
p762
aVProp
p763
aVFlanker
p764
aVProp
p765
aVProp
p766
aVHooker
p767
aVLock
p768
aVWing, Centre
p769
aVCentre
p770
aVOutside back
p771
aVLock
p772
aVUtility back
p773
aVHooker
p774
aVLock
p775
aVFlanker
p776
aVHooker
p777
aVCentre
p778
aVUtility back
p779
aVCentre
p780
aVOutside back
p781
aVLock, Flanker
p782
aVProp
p783
aVProp
p784
aVNo. 8
p785
aVCentre
p786
aVNo. 8
p787
aVScrum-half
p788
aVProp
p789
aVLock
p790
aVBack-row
p791
aVFlanker
p792
aVLock, Flanker
p793
aVHooker
p794
aVUtility back
p795
aVLock
p796
aVWing
p797
aVCentre
p798
aVCentre
p799
aVLock, Flanker
p800
aVCentre, Fly-half
p801
aVProp
p802
aVNo. 8
p803
aVHooker
p804
aVProp
p805
aVProp
p806
aVHooker
p807
aVFullback, Wing
p808
aVScrum-half
p809
aVNo. 8
p810
aVProp
p811
aVProp
p812
aVScrum-half
p813
aVFullback, Fly-half
p814
aVFly-half
p815
aVWing, Centre
p816
aVLock
p817
aVUtility back
p818
aVScrum-half
p819
aVFullback, Wing
p820
aVLock
p821
aVProp
p822
aVCentre
p823
aVWing
p824
aVWing
p825
aVBack-row
p826
aVFlanker
p827
aVFly-half
p828
aVProp
p829
aVWing
p830
aVLock
p831
aVProp
p832
aVScrum-half
p833
aVUtility back
p834
aVHooker
p835
aVCentre
p836
aVProp
p837
aVHooker
p838
aVBack-row
p839
aVProp
p840
aVProp
p841
aVBack-row
p842
aVLock
p843
aVCentre
p844
aVCentre
p845
aVNo. 8
p846
aVWing
p847
aVScrum-half
p848
aVLock
p849
aVFlanker
p850
aVCentre
p851
aVLock
p852
aVCentre
p853
aVFullback
p854
aVProp
p855
aVWing
p856
aVFlanker
p857
aVWing, Centre
p858
aVFlanker
p859
aVWing
p860
aVLock
p861
aVWing, Centre
p862
aVHooker
p863
aVProp
p864
aVFullback
p865
aVFly-half
p866
aVNo. 8
p867
aVFullback
p868
aVFly-half
p869
aVFlanker
p870
aVCentre
p871
aVProp
p872
aVScrum-half
p873
aVCentre
p874
aVFly-half
p875
aVWing
p876
aVLock
p877
aVHooker
p878
aVLock
p879
aVProp
p880
aVLock
p881
aVHooker
p882
aVNo. 8
p883
aVFlanker
p884
aVProp
p885
aVWing
p886
aVWing
p887
aVProp
p888
aVLock
p889
aVFullback
p890
aVCentre
p891
aVScrum-half
p892
aVLock
p893
aVProp
p894
aVUtility back
p895
aVProp
p896
aVNo. 8
p897
aVCentre
p898
aVBack-row
p899
aVHooker
p900
aVCentre
p901
aVFlanker
p902
aVCentre
p903
aVProp
p904
aVFullback
p905
aVLock
p906
aVProp
p907
aVLock
p908
aVHooker
p909
aVFlanker
p910
aVBack-row
p911
aVScrum-half
p912
aVHooker
p913
aVCentre
p914
aVLock
p915
aVLock
p916
aVScrum-half
p917
aVBack-row
p918
aVFlanker
p919
aVCentre
p920
aVHooker
p921
aVBack-row
p922
aVProp
p923
aVCentre
p924
aVCentre
p925
aVCentre
p926
aVFullback
p927
aVFly-half
p928
aVLock
p929
aVHooker
p930
aVCentre
p931
aVLock, Flanker
p932
aVFullback, Fly-half
p933
aVCentre
p934
aVBack-row
p935
aVBack-row
p936
aVWing, Centre
p937
aVCentre
p938
aVProp
p939
aVBack-row
p940
aVScrum-half
p941
aVCentre
p942
aVScrum-half
p943
aVLock
p944
aVWing
p945
aVHooker
p946
aVFullback, Wing
p947
aVProp
p948
aVNo. 8
p949
aVFly-half
p950
aVScrum-half
p951
aVNo. 8
p952
aVProp
p953
aVBack-row
p954
aVProp
p955
aVLock
p956
aVFullback, Centre
p957
aVProp
p958
aVLock
p959
aVBack-row
p960
aVFly-half
p961
aVFullback, Wing
p962
aVScrum-half
p963
aVScrum-half
p964
aVFlanker
p965
aVProp
p966
aVWing
p967
aVFlanker
p968
aVLock
p969
aVFly-half
p970
aVWing, Centre
p971
aVWing
p972
aVLock
p973
aVWing
p974
aVWing
p975
aVProp
p976
aVFlanker
p977
aVNo. 8
p978
aVLock
p979
aVLock
p980
aVBack-row
p981
aVProp
p982
aVWing
p983
aVHooker
p984
aVProp
p985
aVFlanker
p986
aVLock
p987
aVWing
p988
aVFly-half
p989
aVCentre
p990
aVFullback
p991
aVFullback
p992
aVProp
p993
aVCentre
p994
aVFly-half
p995
aVBack-row
p996
aVLock
p997
aVCentre
p998
aVScrum-half
p999
aVFly-half
p1000
aVCentre
p1001
aVHooker
p1002
aVLock
p1003
aVLock
p1004
aVWing
p1005
aVScrum-half
p1006
aVFlanker
p1007
aVLock
p1008
aVFly-half
p1009
aVProp
p1010
aVHooker
p1011
aVScrum-half
p1012
aVProp
p1013
aVLock
p1014
aVFlanker
p1015
aVFullback
p1016
aVFlanker
p1017
aVCentre
p1018
aVFly-half
p1019
aVCentre
p1020
aVLock
p1021
aVWing
p1022
aVProp
p1023
aVBack-row
p1024
aVCentre
p1025
aVScrum-half
p1026
aVLock
p1027
aVProp
p1028
aVHooker
p1029
aVScrum-half
p1030
aVHooker
p1031
aVWing
p1032
aVProp
p1033
aVCentre
p1034
aVScrum-half
p1035
aVWing
p1036
aVHooker
p1037
aVLock
p1038
aVFly-half
p1039
aVFullback
p1040
aVBack-row
p1041
aVCentre
p1042
aVNo. 8
p1043
aVBack-row
p1044
aVProp
p1045
aVProp
p1046
aVCentre
p1047
aVUtility back
p1048
aVLock
p1049
aVHooker
p1050
aVCentre
p1051
aVLock
p1052
aVBack-row
p1053
aVFullback
p1054
aVWing, Centre
p1055
aVBack-row
p1056
aVFlanker
p1057
aVWing
p1058
aVFlanker
p1059
aVScrum-half
p1060
aVHooker
p1061
aVBack-row
p1062
aVCentre
p1063
aVFullback
p1064
aVCentre
p1065
aVCentre
p1066
aVWing
p1067
aVCentre
p1068
aVLock
p1069
aVProp
p1070
aVCentre
p1071
aVFly-half
p1072
aVProp
p1073
aVBack-row
p1074
aVProp
p1075
aVLock
p1076
aVFly-half
p1077
aVHooker
p1078
aVWing
p1079
aVScrum-half
p1080
aVBack-row
p1081
aVCentre
p1082
aVLock
p1083
aVFullback
p1084
aVNo. 8
p1085
aVScrum-half
p1086
aVFly-half
p1087
aVProp
p1088
aVLock
p1089
aVCentre
p1090
aVProp
p1091
aVFlanker
p1092
aVProp
p1093
aVProp
p1094
aVWing
p1095
aVFly-half
p1096
aVLock
p1097
aVScrum-half
p1098
aVBack-row
p1099
aVFullback
p1100
aVProp
p1101
aVCentre
p1102
aVFlanker
p1103
aVHooker
p1104
aVScrum-half
p1105
aVProp
p1106
aVWing
p1107
aVProp
p1108
aVCentre
p1109
aVHooker
p1110
aVCentre
p1111
aVBack-row
p1112
aVScrum-half
p1113
aVProp
p1114
aVCentre
p1115
aVFlanker
p1116
aVFullback
p1117
aVWing
p1118
aVCentre
p1119
aVProp
p1120
aVScrum-half
p1121
aVFlanker
p1122
aVWing
p1123
aVWing
p1124
aVFlanker
p1125
aVProp
p1126
aVWing
p1127
aVFlanker
p1128
aVFullback
p1129
aVCentre
p1130
aVProp
p1131
aVHooker
p1132
aVWing
p1133
aVNo. 8
p1134
aVFly-half, Scrum-half
p1135
aVCentre
p1136
aVLock
p1137
aVFullback
p1138
aVFullback
p1139
aVProp
p1140
aVLock
p1141
aVHooker
p1142
aVScrum-half
p1143
aVLock
p1144
aVProp
p1145
aVLock
p1146
aVLock
p1147
aVNo. 8
p1148
aVCentre
p1149
aVFly-half
p1150
aVWing
p1151
aVLock
p1152
aVProp
p1153
aVFlanker
p1154
aVFly-half
p1155
aVProp
p1156
aVProp
p1157
aVFullback
p1158
aVScrum-half
p1159
aVFly-half
p1160
aVFlanker
p1161
aVFullback
p1162
aVHooker
p1163
aVCentre
p1164
aVCentre
p1165
aVProp
p1166
aVCentre
p1167
aVFullback
p1168
aVWing
p1169
aVProp
p1170
aVProp
p1171
aVScrum-half
p1172
aVFlanker
p1173
aVNo. 8
p1174
aVWing
p1175
aVWing
p1176
aVScrum-half
p1177
aVCentre
p1178
aVLock
p1179
aVWing
p1180
aVBack-row
p1181
aVProp
p1182
aVHooker
p1183
aVFullback
p1184
aVProp
p1185
aVHooker
p1186
aVLock
p1187
aVFlanker
p1188
aVLock
p1189
aVCentre
p1190
aVCentre
p1191
aVScrum-half
p1192
aVHooker
p1193
aVLock
p1194
aVProp
p1195
aVFlanker
p1196
aVProp
p1197
aVLock
p1198
aVWing, Centre
p1199
aVFlanker
p1200
aVScrum-half
p1201
aVWing
p1202
aVBack-row
p1203
aVCentre
p1204
aVBack-row
p1205
aVLock
p1206
aVHooker
p1207
aVProp, Hooker
p1208
aVScrum-half
p1209
aVBack-row
p1210
aVProp
p1211
aVCentre
p1212
aVScrum-half
p1213
aVFullback
p1214
aVScrum-half
p1215
aVFlanker
p1216
aVFullback
p1217
aVFly-half
p1218
aVWing
p1219
aVNo. 8
p1220
aVProp
p1221
aVCentre
p1222
aVProp
p1223
aVCentre
p1224
aVScrum-half
p1225
aVHooker
p1226
aVCentre
p1227
aVProp
p1228
aVBack-row
p1229
aVCentre
p1230
aVProp
p1231
aVCentre
p1232
aVScrum-half
p1233
aVLock
p1234
aVProp
p1235
aVHooker
p1236
aVFly-half
p1237
aVFlanker
p1238
aVProp
p1239
aVLock
p1240
aVLock
p1241
aVProp
p1242
aVBack-row
p1243
aVNo. 8
p1244
aVFly-half
p1245
aVFlanker
p1246
aVFly-half
p1247
aVLock
p1248
aVHooker
p1249
aVLock
p1250
aVBack-row
p1251
aVProp
p1252
aVFly-half
p1253
aVScrum-half
p1254
aVFullback
p1255
aVFullback
p1256
aVCentre
p1257
aVProp
p1258
aVWing
p1259
aVLock
p1260
aVFlanker
p1261
aVFly-half
p1262
aVHooker
p1263
aVWing
p1264
aVCentre
p1265
aVFlanker
p1266
aVWing
p1267
aVCentre
p1268
aVCentre, Fly-half
p1269
aVFlanker
p1270
aVWing
p1271
aVLock
p1272
aVProp
p1273
aVProp
p1274
aVProp
p1275
aVCentre
p1276
aVFullback
p1277
aVHooker
p1278
aVProp
p1279
aVProp
p1280
aVCentre
p1281
aVFullback
p1282
aVProp
p1283
aVCentre
p1284
aVFlanker
p1285
aVLock
p1286
aVScrum-half
p1287
aVNo. 8
p1288
aVFly-half
p1289
aVFly-half
p1290
aVFlanker
p1291
aVWing
p1292
aVCentre
p1293
aVLock
p1294
aVBack-row
p1295
aVProp
p1296
aVHooker
p1297
aVScrum-half
p1298
aVFullback
p1299
aVProp
p1300
aVFlanker
p1301
aVFullback
p1302
aVWing
p1303
aVHooker
p1304
aVWing
p1305
aVNo. 8
p1306
aVLock
p1307
aVCentre
p1308
aVProp
p1309
aVLock
p1310
aVScrum-half
p1311
aVHooker
p1312
aVBack-row
p1313
aVProp
p1314
aVCentre
p1315
aVLock
p1316
aVFlanker
p1317
aVLock
p1318
aVFlanker
p1319
aVLock
p1320
aVScrum-half
p1321
aVWing
p1322
aVScrum-half
p1323
aVLock
p1324
aVCentre
p1325
aVProp
p1326
aVBack-row
p1327
aVScrum-half
p1328
aVHooker
p1329
aVProp
p1330
aVWing
p1331
aVWing
p1332
aVFly-half
p1333
aVLock
p1334
aVFullback
p1335
aVLock
p1336
aVBack-row
p1337
aVProp
p1338
aVProp
p1339
aVCentre
p1340
aVFly-half
p1341
aVLock
p1342
aVScrum-half
p1343
aVBack-row
p1344
aVBack-row
p1345
aVProp
p1346
aVFullback
p1347
aVProp
p1348
aVFullback, Centre
p1349
aVLock
p1350
aVLock, Back-row
p1351
aVScrum-half
p1352
aVBack-row
p1353
aVLock
p1354
aVScrum-half
p1355
aVFlanker
p1356
aVScrum-half
p1357
aVProp
p1358
aVHooker
p1359
aVWing
p1360
aVUtility back
p1361
aVCentre
p1362
aVFullback
p1363
aVLock
p1364
aVWing, Centre
p1365
aVLock, Back-row
p1366
aVBack-row
p1367
aVCentre
p1368
aVCentre
p1369
aVLock
p1370
aVNo. 8
p1371
aVUtility back
p1372
aVFullback
p1373
aVProp
p1374
aVProp
p1375
aVNo. 8
p1376
aVCentre
p1377
aVProp
p1378
aVLock
p1379
aVBack-row
p1380
aVLock
p1381
aVHooker
p1382
aVCentre
p1383
aVCentre
p1384
aVFullback
p1385
aVScrum-half
p1386
aVUtility back
p1387
aVFlanker
p1388
aVLock, Back-row
p1389
aVScrum-half
p1390
aVBack-row
p1391
aVProp
p1392
aVWing
p1393
aVFullback
p1394
aVHooker
p1395
aVProp
p1396
aVWing
p1397
aVFly-half
p1398
aVScrum-half
p1399
aVCentre
p1400
aVLock
p1401
aVBack-row
p1402
aVFlanker
p1403
aVLock
p1404
aVScrum-half
p1405
aVProp
p1406
aVProp
p1407
aVBack-row
p1408
aVFullback
p1409
aVWing
p1410
aVBack-row
p1411
aVHooker
p1412
aVFly-half
p1413
aVWing
p1414
aVProp
p1415
aVWing
p1416
aVWing
p1417
aVFly-half
p1418
aVCentre
p1419
aVUtility back
p1420
aVBack-row
p1421
aVProp
p1422
aVLock
p1423
aVCentre
p1424
aVFly-half
p1425
aVFlanker
p1426
aVCentre
p1427
aVFullback
p1428
aVProp
p1429
aVWing, Centre
p1430
aVWing
p1431
aVLock
p1432
aVWing
p1433
aVUtility back
p1434
aVHooker
p1435
aVCentre
p1436
aVLock
p1437
aVHalfback
p1438
aVFlanker
p1439
aVScrum-half
p1440
aVFlanker
p1441
aVScrum-half
p1442
aVCentre
p1443
aVScrum-half
p1444
aVScrum-half
p1445
aVHooker
p1446
aVLock
p1447
aVLock
p1448
aVWing
p1449
aVScrum-half
p1450
aVCentre
p1451
aVProp
p1452
aVHooker
p1453
aVProp
p1454
aVCentre, Fly-half
p1455
aVCentre
p1456
aVLock
p1457
aVCentre
p1458
aVBack-row
p1459
aVFly-half
p1460
aVHooker
p1461
aVLock
p1462
aVWing
p1463
aVScrum-half
p1464
aVFly-half
p1465
aVFullback, Centre
p1466
aVWing
p1467
aVLock
p1468
aVScrum-half
p1469
aVProp
p1470
aVProp
p1471
aVFly-half
p1472
aVBack-row
p1473
aVBack-row
p1474
aVCentre
p1475
aVCentre
p1476
aVWing
p1477
aVFly-half
p1478
aVScrum-half
p1479
aVUtility back
p1480
aVHooker
p1481
aVProp
p1482
aVUtility back
p1483
aVNo. 8
p1484
aVProp
p1485
aVFly-half
p1486
aVBack-row
p1487
aVProp
p1488
aVHooker
p1489
aVScrum-half
p1490
aVFlanker
p1491
aVCentre
p1492
aVProp
p1493
aVBack-row
p1494
aVLock
p1495
aVCentre
p1496
aVScrum-half
p1497
aVProp
p1498
aVProp
p1499
aVWing
p1500
aVLock
p1501
aVBack-row
p1502
aVLock
p1503
aVScrum-half
p1504
aVLock, Back-row
p1505
aVCentre
p1506
aVCentre
p1507
aVCentre
p1508
aVFullback, Wing
p1509
aVCentre
p1510
aVProp
p1511
aVFlanker
p1512
aVCentre, Fly-half
p1513
aVNo. 8
p1514
aVUtility back
p1515
aVFlanker
p1516
aVLock
p1517
aVBack-row
p1518
aVLock
p1519
aVCentre
p1520
aVWing
p1521
aVProp
p1522
aVScrum-half
p1523
aVLock
p1524
aVCentre
p1525
aVHooker
p1526
aVWing, Centre
p1527
aVWing
p1528
aVCentre
p1529
aVBack-row
p1530
aVProp
p1531
aVCentre
p1532
aVWing
p1533
aVLock
p1534
aVProp
p1535
aVProp
p1536
aVFly-half
p1537
aVProp
p1538
aVBack-row
p1539
aVCentre
p1540
aVScrum-half
p1541
aVHooker
p1542
aVLock
p1543
aVProp
p1544
aVFlanker
p1545
aVProp
p1546
aVFlanker
p1547
aVHooker
p1548
aVFly-half
p1549
aVFlanker
p1550
aVFullback
p1551
aVWing
p1552
aVFlanker
p1553
aVLock, Back-row
p1554
aVWing
p1555
aVWing
p1556
aVProp
p1557
aVProp
p1558
aVWing, Centre
p1559
aVProp
p1560
aVFlanker
p1561
aVCentre
p1562
aVProp
p1563
aVCentre
p1564
aVFlanker
p1565
aVCentre
p1566
aVProp
p1567
aVCentre
p1568
aVNo. 8
p1569
aVCentre
p1570
aVFly-half
p1571
aVScrum-half
p1572
aVFlanker
p1573
aVWing
p1574
aVCentre
p1575
aVLock
p1576
aVScrum-half
p1577
aVFly-half
p1578
aVHooker
p1579
aVFly-half
p1580
aVCentre
p1581
aVLock, Back-row
p1582
aVNo. 8
p1583
aVHooker
p1584
aVCentre
p1585
aVScrum-half
p1586
aVBack-row
p1587
aVCentre
p1588
aVScrum-half
p1589
aVWing
p1590
aVBack-row
p1591
aVHooker
p1592
aVLock
p1593
aVBack-row
p1594
aVWing
p1595
aVFly-half
p1596
aVUtility back
p1597
aVProp
p1598
aVWing
p1599
aVFlanker
p1600
aVWing
p1601
aVLock
p1602
aVCentre
p1603
aVHooker
p1604
aVBack-row
p1605
aVCentre
p1606
aVHooker
p1607
aVWing
p1608
aVFlanker
p1609
aVBack-row
p1610
aVCentre
p1611
aVScrum-half
p1612
aVFlanker
p1613
aVFly-half
p1614
aVProp
p1615
aVProp
p1616
aVFullback
p1617
aVProp
p1618
aV
aVScrum-half
p1619
aVCentre
p1620
aVScrum-half
p1621
aVFly-half
p1622
aVCentre
p1623
aVProp
p1624
aVWing
p1625
aVBack-row
p1626
aVCentre
p1627
aVFullback
p1628
aVUtility back
p1629
aVFly-half
p1630
aVBack-row
p1631
aVHooker
p1632
aVWing
p1633
aVLock, Back-row
p1634
aVLock
p1635
aVWing
p1636
aVScrum-half
p1637
aVLock
p1638
aVWing
p1639
aVBack-row
p1640
aVProp
p1641
aVFly-half
p1642
aVScrum-half
p1643
aVFlanker
p1644
aVNo. 8
p1645
aVLock
p1646
aVHooker
p1647
aVProp
p1648
aVProp
p1649
aVCentre
p1650
aVBack-row
p1651
aVWing, Centre
p1652
aVProp
p1653
aVOutside back
p1654
aVScrum-half
p1655
aVBack-row
p1656
aVProp
p1657
aVCentre
p1658
aVProp
p1659
aVProp
p1660
aVProp
p1661
aVLock
p1662
aVLock
p1663
aVBack-row
p1664
aVCentre
p1665
aVWing, Centre
p1666
aVFullback, Centre
p1667
aVCentre
p1668
aVLock
p1669
aVProp
p1670
aVLock
p1671
aVWing
p1672
aVHooker
p1673
aVFly-half
p1674
aVProp
p1675
aVLock, Flanker
p1676
aVHooker
p1677
aVBack-row
p1678
aVCentre
p1679
aV
aVProp
p1680
aVScrum-half
p1681
aVFullback
p1682
aVProp
p1683
aVFlanker
p1684
aVLock
p1685
aVNo. 8
p1686
aVWing, Centre
p1687
aV
aVFlanker
p1688
aVFullback
p1689
aVBack-row
p1690
aVScrum-half
p1691
aVBack-row
p1692
aVWing
p1693
aVWing
p1694
aVProp
p1695
aVLock
p1696
aVLock
p1697
aVFullback
p1698
aVCentre
p1699
aVWing
p1700
aVHooker
p1701
aVProp
p1702
aVNo. 8
p1703
aVBack-row
p1704
aVWing
p1705
aVCentre, Fly-half
p1706
aVWing
p1707
aVWing
p1708
aVScrum-half
p1709
aVFlanker
p1710
aVWing
p1711
aVHooker, Flanker
p1712
aVWing
p1713
aVFly-half
p1714
aVCentre
p1715
aVLock
p1716
aVWing
p1717
aVLock
p1718
aVScrum-half
p1719
aVLock, Flanker
p1720
aVWing
p1721
aVScrum-half
p1722
aVProp
p1723
aVFlanker
p1724
aVWing
p1725
aVFlanker
p1726
aVProp
p1727
aVFlanker
p1728
aVWing, Centre
p1729
aVLock
p1730
aVBack-row
p1731
aVCentre
p1732
aVHooker
p1733
aVBack-row
p1734
aVFullback
p1735
aVFlanker
p1736
aV
aVFlanker
p1737
aVWing
p1738
aVFlanker
p1739
aVNo. 8
p1740
aVProp
p1741
aVNo. 8
p1742
aVHalfback
p1743
aVCentre
p1744
aVProp
p1745
aVLock
p1746
aVFlanker
p1747
aVProp
p1748
aVProp
p1749
aVScrum-half
p1750
aVProp
p1751
aVScrum-half
p1752
aVWing
p1753
aVWing, Centre
p1754
aVCentre
p1755
aVProp, Back-row
p1756
aVProp
p1757
aVCentre
p1758
aVHooker
p1759
aVProp
p1760
aVProp
p1761
aVBack-row
p1762
aVLock
p1763
aVWing, Centre
p1764
aVScrum-half
p1765
aVLock, Flanker
p1766
aVWing, Centre
p1767
aVLock
p1768
aVFly-half
p1769
aVHooker
p1770
aVCentre
p1771
aVWing
p1772
aVHooker
p1773
aVScrum-half
p1774
aVProp
p1775
aVProp
p1776
aVProp
p1777
aVWing
p1778
aVCentre
p1779
aVHooker
p1780
aVBack-row
p1781
aVScrum-half
p1782
aVProp
p1783
aVWing
p1784
aVWing
p1785
aVHooker
p1786
aVFullback
p1787
aVFullback
p1788
aVProp
p1789
aVBack-row
p1790
aVScrum-half
p1791
aVFly-half
p1792
aVFlanker
p1793
aVFlanker
p1794
aVLock
p1795
aVWing
p1796
aVWing, Centre
p1797
aVProp, Hooker
p1798
aVFullback
p1799
aVLock
p1800
aVFlanker
p1801
aVHooker
p1802
aVLock
p1803
aVFlanker
p1804
aVProp
p1805
aVProp
p1806
aVLock, Back-row
p1807
aVUtility back
p1808
aVWing
p1809
aVBack-row
p1810
aVLock
p1811
aVWing, Centre
p1812
aVCentre
p1813
aVBack-row
p1814
aVBack-row
p1815
aVProp
p1816
aVWing
p1817
aVProp, Hooker
p1818
aVScrum-half
p1819
aVNo. 8
p1820
aVScrum-half
p1821
aVBack-row
p1822
aVScrum-half
p1823
aVFlanker
p1824
aVWing, Centre
p1825
aVWing
p1826
aVWing
p1827
aVFullback, Wing
p1828
aVLock, Back-row
p1829
aVProp
p1830
aVScrum-half
p1831
aVLock
p1832
aVProp
p1833
aVCentre
p1834
aVCentre, Fly-half
p1835
aVCentre
p1836
aVLock
p1837
aVHooker
p1838
aVBack-row
p1839
aVWing
p1840
aVWing
p1841
aVWing, Centre
p1842
aVFly-half
p1843
aVProp
p1844
aVWing
p1845
aVScrum-half
p1846
aVNo. 8
p1847
aVFlanker
p1848
aVWing
p1849
aVFullback
p1850
aVLock
p1851
aVFlanker
p1852
aVWing
p1853
aVOutside back
p1854
aVCentre
p1855
aVHooker
p1856
aVLock
p1857
aVWing
p1858
aVWing
p1859
aVFlanker
p1860
aVCentre
p1861
aVProp
p1862
aVLock
p1863
aVNo. 8
p1864
aVProp
p1865
aVCentre
p1866
aVWing
p1867
aVHooker
p1868
aVCentre
p1869
aVWing
p1870
aVScrum-half
p1871
aVNo. 8
p1872
aVWing
p1873
aVScrum-half
p1874
aVProp
p1875
aVLock
p1876
aVHooker
p1877
aVFlanker
p1878
aVWing
p1879
aVFullback
p1880
aVFlanker
p1881
aVScrum-half
p1882
aVWing
p1883
aVUtility back
p1884
aVCentre
p1885
aVUtility back
p1886
aVCentre
p1887
aVBack-row
p1888
aVProp
p1889
aVLock
p1890
aVFullback
p1891
aVCentre
p1892
aVUtility forward
p1893
aVProp
p1894
aVProp
p1895
aVCentre
p1896
aVFullback
p1897
aVWing
p1898
aVLock
p1899
aVWing
p1900
aVFlanker
p1901
aVWing
p1902
aVCentre
p1903
aVCentre
p1904
aVProp
p1905
aVProp
p1906
aVCentre
p1907
aVWing
p1908
aVWing
p1909
aVBack-row
p1910
aVLock
p1911
aVWing
p1912
aVProp
p1913
aVWing
p1914
aVNo. 8
p1915
aVCentre
p1916
aVFly-half
p1917
aVScrum-half
p1918
aVHooker
p1919
aVWing
p1920
aVCentre
p1921
aVFullback
p1922
aVProp
p1923
aVScrum-half
p1924
aVWing
p1925
aVScrum-half
p1926
aVProp
p1927
aVProp
p1928
aVWing
p1929
aVLock, Flanker
p1930
aVProp
p1931
aVWing
p1932
aVFly-half
p1933
aVFlanker
p1934
aVFlanker
p1935
aVWing
p1936
aVWing
p1937
aVBack-row
p1938
aVLock
p1939
aVScrum-half
p1940
aVCentre
p1941
aVBack-row
p1942
aVCentre
p1943
aVProp
p1944
aVHooker
p1945
aVFullback
p1946
aVProp
p1947
aVFullback, Centre
p1948
aVWing
p1949
aVFly-half
p1950
aVCentre, Fly-half
p1951
aVCentre
p1952
aVScrum-half
p1953
aVHooker
p1954
aVLock
p1955
aVCentre, Fly-half
p1956
aVWing, Fly-half
p1957
aVFlanker
p1958
aVLock, Flanker
p1959
aVFront-row
p1960
aVProp
p1961
aVFlanker
p1962
aVFullback, Wing
p1963
aVScrum-half
p1964
aVCentre, Fly-half
p1965
aVLock, Flanker
p1966
aVFullback, Wing
p1967
aVFlanker
p1968
aVProp
p1969
aVScrum-half
p1970
aVProp
p1971
aVProp
p1972
aVLock
p1973
aVScrum-half
p1974
aVFullback, Fly-half
p1975
aVLock, Back-row
p1976
aVHooker
p1977
aVProp
p1978
aVProp
p1979
aVFullback, Wing
p1980
aVFullback, Wing
p1981
aVFlanker
p1982
aVCentre, Fly-half
p1983
aVProp
p1984
aVFullback
p1985
aVLock, No. 8
p1986
aVBack-row
p1987
aVProp
p1988
aVProp, Hooker
p1989
aVProp
p1990
aVCentre
p1991
aVProp, Hooker
p1992
aVBack-row
p1993
aVHooker
p1994
aVLock, Flanker
p1995
aVCentre
p1996
aVHooker
p1997
aVLock
p1998
aVWing
p1999
aVBack-row
p2000
aVProp
p2001
aVHooker
p2002
aVCentre
p2003
aVWing, Scrum-half
p2004
aVCentre
p2005
aVFullback, Centre
p2006
aVBack-row
p2007
aVScrum-half
p2008
aVLock, Flanker
p2009
aVFullback, Wing
p2010
aVFullback, Wing
p2011
aVHooker
p2012
aVFlanker
p2013
aVFly-half
p2014
aVHooker
p2015
aVScrum-half
p2016
aVLock, Flanker
p2017
aVProp
p2018
aVWing, Centre
p2019
aVFly-half
p2020
aVLock, Flanker
p2021
aVFly-half
p2022
aVProp
p2023
aVScrum-half
p2024
aVWing
p2025
aVFlanker
p2026
aVLock, Flanker
p2027
aVWing, Centre
p2028
aVNo. 8
p2029
aVFlanker
p2030
aVProp
p2031
aVCentre
p2032
aVProp
p2033
aVWing
p2034
aVCentre, Fly-half
p2035
aVCentre, Fly-half
p2036
aVLock, Flanker
p2037
aVWing
p2038
aVLock, Flanker
p2039
aVUtility back
p2040
aVWing, Centre
p2041
aVCentre, Fly-half
p2042
aVProp, Back-row
p2043
aVWing, Centre
p2044
aVNo. 8
p2045
aVProp
p2046
aVProp
p2047
aVWing
p2048
aVFlanker
p2049
aVLock
p2050
aVCentre
p2051
aVProp
p2052
aVBack-row
p2053
aVProp
p2054
aVCentre, Flanker
p2055
aVProp
p2056
aVFullback, Wing
p2057
aVHooker
p2058
aVFullback
p2059
aVNo. 8
p2060
aVBack-row
p2061
aVFullback
p2062
aVLock, Flanker
p2063
aVProp
p2064
aVScrum-half
p2065
aVLock
p2066
aVFly-half
p2067
aVCentre
p2068
aVHooker
p2069
aVFlanker
p2070
aVProp
p2071
aVFlanker
p2072
aVWing
p2073
aVHooker
p2074
aVFlanker
p2075
aVScrum-half
p2076
aVLock
p2077
aVCentre
p2078
aVCentre
p2079
aVFullback
p2080
aVScrum-half
p2081
aVLock
p2082
aVLock, Flanker
p2083
aVLock, Flanker
p2084
aVFullback, Wing
p2085
aVWing
p2086
aVBack-row
p2087
aVProp, Hooker
p2088
aVFlanker
p2089
aVProp, Hooker
p2090
aVFly-half
p2091
aVNo. 8
p2092
aVScrum-half
p2093
aVProp
p2094
aVCentre, Flanker
p2095
aVProp
p2096
aVHooker
p2097
aVWing
p2098
aVProp
p2099
aVHooker
p2100
aVCentre
p2101
aVHooker
p2102
aVFullback, Wing
p2103
aVFlanker
p2104
aVNo. 8
p2105
aVLock
p2106
aVBack-row
p2107
aVProp
p2108
aVBack-row
p2109
aVLock
p2110
aVProp
p2111
aVFullback, Wing
p2112
aVFlanker
p2113
aVWing
p2114
aVLock
p2115
aVFlanker
p2116
aVScrum-half
p2117
aVWing
p2118
aVCentre
p2119
aVProp
p2120
aVScrum-half
p2121
aVFlanker
p2122
aVWing
p2123
aVProp
p2124
aVCentre, Fly-half
p2125
aVCentre, Fly-half
p2126
aVHooker, Back-row
p2127
aVFlanker
p2128
aVLock
p2129
aVBack-row
p2130
aVLock, Flanker
p2131
aVWing
p2132
aVWing, Centre
p2133
aVFlanker
p2134
aVWing
p2135
aVCentre
p2136
aVHooker
p2137
aVProp
p2138
aVProp
p2139
aVLock, Back-row
p2140
aVFly-half
p2141
aVCentre
p2142
aVProp, Hooker
p2143
aVFlanker
p2144
aVCentre
p2145
aVLock
p2146
aVWing
p2147
aVWing
p2148
aVCentre
p2149
aVFlanker
p2150
aVLock, Back-row
p2151
aVProp
p2152
aVFly-half
p2153
aVProp
p2154
aVCentre
p2155
aVWing
p2156
aVLock, Back-row
p2157
aVProp
p2158
aVFlanker
p2159
aVCentre
p2160
aVLock
p2161
aVLock
p2162
aVCentre
p2163
aVLock
p2164
aVFlanker
p2165
aVWing
p2166
aVFly-half
p2167
aVLock
p2168
aVFullback, Centre
p2169
aVWing
p2170
aVProp
p2171
aVWing
p2172
aVProp
p2173
aVFlanker
p2174
aVScrum-half
p2175
aVProp
p2176
aVProp
p2177
aVBack-row
p2178
aVCentre
p2179
aVScrum-half
p2180
aVProp
p2181
aVLock
p2182
aVFlanker
p2183
aVCentre
p2184
aVHooker
p2185
aVFlanker
p2186
aVWing
p2187
aVCentre, Fly-half
p2188
aVLock
p2189
aVScrum-half
p2190
aVLock
p2191
aVCentre
p2192
aVLock
p2193
aVFlanker
p2194
aVWing
p2195
aVHooker
p2196
aVFullback
p2197
aVFullback, Fly-half
p2198
aVCentre
p2199
aVFly-half
p2200
aVLock
p2201
aVCentre
p2202
aVLock
p2203
aVProp
p2204
aVHooker
p2205
aVFlanker
p2206
aVProp
p2207
aVScrum-half
p2208
aVFullback, Wing
p2209
aVFlanker
p2210
aVFlanker
p2211
aVFlanker
p2212
aVFlanker
p2213
aVCentre
p2214
aVLock
p2215
aVWing
p2216
aVCentre
p2217
aVBack-row
p2218
aVFullback
p2219
aVFlanker
p2220
aVLock
p2221
aVLock
p2222
aVScrum-half
p2223
aVWing
p2224
aVCentre
p2225
aVLock
p2226
aVWing
p2227
aVNo. 8
p2228
aVHooker
p2229
aVWing
p2230
aVWing
p2231
aVProp
p2232
aVLock
p2233
aVProp
p2234
aVLock
p2235
aVCentre
p2236
aVFly-half
p2237
aVLock
p2238
aVFlanker
p2239
aV
aVLock
p2240
aV
aVLock
p2241
aVFly-half
p2242
aVLock
p2243
aVWing
p2244
aVWing
p2245
aVFlanker
p2246
aVLock
p2247
aVFlanker
p2248
aVScrum-half
p2249
aVLock
p2250
aVProp
p2251
aVProp
p2252
aVBack-row
p2253
aVHooker
p2254
aVFly-half
p2255
aVBack-row
p2256
aVFullback, Wing
p2257
aVFullback, Wing
p2258
aVLock
p2259
aVBack-row
p2260
aVBack-row
p2261
aVNo. 8
p2262
aVWing
p2263
aVProp
p2264
aVWing
p2265
aVScrum-half
p2266
aVFullback, Wing
p2267
aVLock
p2268
aVLock
p2269
aVHooker
p2270
aVFlanker
p2271
aVProp
p2272
aVWing
p2273
aVScrum-half
p2274
aVCentre
p2275
aVLock
p2276
aVBack-row
p2277
aVProp
p2278
aVCentre
p2279
aVHooker
p2280
aVProp
p2281
aVLock
p2282
aVHooker
p2283
aVFlanker
p2284
aVBack-row
p2285
aVProp
p2286
aVCentre, Fly-half
p2287
aVWing
p2288
aVFly-half
p2289
aVScrum-half
p2290
aVHooker
p2291
aVWing
p2292
aVProp, Hooker
p2293
aVProp
p2294
aVLock
p2295
aVNo. 8
p2296
aVLock
p2297
aVProp
p2298
aVFly-half
p2299
aVCentre
p2300
aVLock, Back-row
p2301
aVCentre, Fly-half
p2302
aVProp
p2303
aVCentre
p2304
aVFullback, Wing
p2305
aVWing
p2306
aVBack-row
p2307
aVFlanker
p2308
aVFly-half
p2309
aVWing
p2310
aVNo. 8
p2311
aVHooker
p2312
aVProp
p2313
aVWing
p2314
aVFullback
p2315
aVBack-row
p2316
aVProp
p2317
aVWing
p2318
aVLock
p2319
aVFly-half
p2320
aVCentre
p2321
aVFlanker
p2322
aVProp
p2323
aVLock, No. 8
p2324
aVProp
p2325
aVCentre
p2326
aVWing
p2327
aVProp
p2328
aVLock
p2329
aVScrum-half
p2330
aVHooker
p2331
aVFlanker
p2332
aVHalfback
p2333
aVFlanker
p2334
aVCentre
p2335
aVWing
p2336
aVWing
p2337
aVFlanker
p2338
aVLock
p2339
aVLock
p2340
aVProp
p2341
aVCentre
p2342
aVFly-half
p2343
aVWing
p2344
aVFlanker
p2345
aVHooker
p2346
aVScrum-half
p2347
aVProp, Hooker
p2348
aVFullback
p2349
aVFly-half
p2350
aVLock
p2351
aVCentre
p2352
aVLock
p2353
aVCentre
p2354
aVLock
p2355
aVHooker
p2356
aVLock
p2357
aVScrum-half
p2358
aVFullback, Fly-half
p2359
aVCentre
p2360
aVFlanker
p2361
aVHooker
p2362
aVScrum-half
p2363
aVFullback
p2364
aVCentre
p2365
aVProp
p2366
aVBack-row
p2367
aVFly-half
p2368
aVLock, Flanker
p2369
aVBack-row
p2370
aVBack-row
p2371
aVWing
p2372
aVScrum-half
p2373
aVBack-row
p2374
aVProp
p2375
aVBack-row
p2376
aVFlanker
p2377
aVCentre
p2378
aVCentre
p2379
aVLock
p2380
aVWing
p2381
aVCentre
p2382
aVWing
p2383
aVProp
p2384
aVCentre
p2385
aVFly-half
p2386
aVBack-row
p2387
aVLock
p2388
aVFly-half
p2389
aVProp
p2390
aVWing
p2391
aVCentre
p2392
aVLock
p2393
aVWing
p2394
aV
a.