(lp1
VCentre
p2
aVProp
p3
aVCentre
p4
aVFullback
p5
aVFlanker
p6
aV
aVNo. 8
p7
aVProp
p8
aVNo. 8
p9
aVScrum-half
p10
aVWing
p11
aVWing
p12
aVHooker
p13
aVLock
p14
aVLock
p15
aVLock
p16
aVFly-half, Centre
p17
aVScrum-half
p18
aVFlanker
p19
aVProp
p20
aVHooker
p21
aVFly-half
p22
aVFullback
p23
aVWing
p24
aVLock
p25
aV
aV
aVScrum-half
p26
aV
aVCentre
p27
aV
aV
aVFront-row
p28
aVSecond-row
p29
aVFront-row
p30
aVLock
p31
aV
aVWing
p32
aV
aVSecond-row
p33
aVBack-row
p34
aVFullback
p35
aVSecond-row
p36
aVWing
p37
aVFive-eighth
p38
aVBack-row
p39
aVWing-forward
p40
aV
aVFive-eighth
p41
aVFive-eighth
p42
aVWing
p43
aVHooker
p44
aVCentre
p45
aVProp
p46
aV
aV
aVFlanker
p47
aV
aVBack-row
p48
aVNo. 8
p49
aVWing
p50
aVWing
p51
aVFly-half
p52
aVLock
p53
aVWing
p54
aVHooker
p55
aVFlanker
p56
aVFlanker
p57
aVProp
p58
aVFullback
p59
aVCentre
p60
aVNo. 8
p61
aVCentre
p62
aVProp
p63
aVLock
p64
aVScrum-half
p65
aVNo. 8
p66
aVFly-half
p67
aVWing
p68
aVProp
p69
aVHooker
p70
aVScrum-half
p71
aVWing
p72
aVCentre
p73
aVFlanker
p74
aVLock
p75
aVHooker
p76
aVProp
p77
aVFullback
p78
aVScrum-half
p79
aVWing
p80
aVFlanker
p81
aVProp
p82
aVFlanker
p83
aVWing
p84
aVCentre
p85
aVProp
p86
aVLock
p87
aVNo. 8
p88
aVLock
p89
aVHooker
p90
aVProp
p91
aVProp
p92
aVProp
p93
aVLock
p94
aVScrum-half
p95
aVCentre
p96
aVHooker
p97
aVCentre
p98
aVWing
p99
aVWing
p100
aVFlanker
p101
aVLock
p102
aVWing
p103
aVLock
p104
aVFullback
p105
aVFly-half
p106
aVWing
p107
aVLock
p108
aVFullback
p109
aVCentre
p110
aVCentre
p111
aVNo. 8
p112
aVCentre
p113
aVFlanker
p114
aVFlanker
p115
aVHooker
p116
aVScrum-half
p117
aVProp
p118
aVFly-half
p119
aVHooker
p120
aVFullback
p121
aVProp
p122
aVProp
p123
aVLock
p124
aVFullback
p125
aVWing
p126
aVScrum-half
p127
aVFlanker
p128
aVFlanker
p129
aVLock
p130
aVProp
p131
aVNo. 8
p132
aVWing
p133
aV
aVFly-half
p134
aVHooker
p135
aVProp
p136
aVCentre
p137
aVFlanker
p138
aVCentre
p139
aVFullback
p140
aVWing
p141
aVLock
p142
aVHooker
p143
aVFly-half
p144
aVScrum-half
p145
aVProp
p146
aVNo. 8
p147
aVFly-half
p148
aVScrum-half
p149
aVCentre
p150
aVFullback
p151
aVFullback
p152
aVWing
p153
aVScrum-half
p154
aVHooker
p155
aVNo. 8
p156
aVFlanker
p157
aVHooker
p158
aVFlanker
p159
aVCentre
p160
aVLock
p161
aVCentre
p162
aVFlanker
p163
aVFly-half
p164
aVWing
p165
aVWing
p166
aVLock
p167
aV
aVFlanker
p168
aVProp
p169
aVFlanker
p170
aVLock
p171
aVProp
p172
aVWing
p173
aVScrum-half
p174
aVHooker
p175
aV
aVProp
p176
aVFlanker
p177
aVCentre
p178
aVFly-half
p179
aVProp
p180
aVWing
p181
aVWing
p182
aVFlanker
p183
aVHooker
p184
aVWing
p185
aVFullback
p186
aVFlanker
p187
aVFly-half
p188
aVScrum-half
p189
aVHooker
p190
aVLock
p191
aVFullback
p192
aVFlanker
p193
aVProp
p194
aVLock
p195
aVScrum-half
p196
aVWing
p197
aVFly-half
p198
aVScrum-half
p199
aVNo. 8
p200
aVNo. 8
p201
aVWing
p202
aVCentre
p203
aVWing
p204
aV
aVScrum-half
p205
aVHooker
p206
aVFlanker
p207
aVCentre
p208
aVCentre
p209
aVProp
p210
aVWing
p211
aVFullback
p212
aVLock
p213
aVCentre
p214
aVCentre
p215
aVFlanker
p216
aVFullback
p217
aVNo. 8
p218
aVCentre
p219
aVProp
p220
aVCentre
p221
aVNo. 8
p222
aVFly-half
p223
aVFullback
p224
aVLock
p225
aVFlanker
p226
aVProp
p227
aVWing
p228
aV
aVWing
p229
aVLock
p230
aVProp
p231
aVFlanker
p232
aVLock
p233
aVLock
p234
aVHooker
p235
aVProp
p236
aV
aVFlanker
p237
aVProp
p238
aVCentre
p239
aVWing
p240
aVScrum-half
p241
aVBack-row
p242
aVWing
p243
aVFullback
p244
aVCentre
p245
aVProp
p246
aVWing
p247
aVFullback
p248
aVFlanker
p249
aV
aVFlanker
p250
aVFlanker
p251
aVProp
p252
aVWing
p253
aVWing
p254
aVProp
p255
aVWing
p256
aVBack-row
p257
aVFlanker
p258
aVProp, Hooker
p259
aVWing
p260
aVScrum-half
p261
aVNo. 8
p262
aVHooker
p263
aVLock
p264
aVFly-half
p265
aVLock
p266
aVFly-half
p267
aVProp
p268
aVProp
p269
aVScrum-half
p270
aVLock
p271
aVCentre
p272
aVLock
p273
aVBack-row
p274
aVFly-half
p275
aVFlanker
p276
aVLock
p277
aVFlanker
p278
aVHooker
p279
aVFly-half
p280
aVFlanker
p281
aVProp
p282
aVWing
p283
aVFlanker
p284
aVScrum-half
p285
aVWing
p286
aVProp
p287
aVWing
p288
aVFlanker
p289
aVFullback
p290
aVScrum-half
p291
aVFullback, Wing
p292
aVProp
p293
aVLock
p294
aVFly-half
p295
aVNo. 8
p296
aVHooker
p297
aVFlanker
p298
aVProp
p299
aVProp
p300
aVWing
p301
aVCentre
p302
aVHooker
p303
aVFullback
p304
aVCentre
p305
aVWing
p306
aVCentre, Fullback
p307
aVHooker
p308
aVLock
p309
aVProp
p310
aVFlanker
p311
aVFly-half
p312
aVLock
p313
aVProp
p314
aVBack-row
p315
aVHooker
p316
aVCentre, Wing
p317
aVCentre
p318
aVScrum-half
p319
aVFullback
p320
aVFlanker
p321
aVProp
p322
aVLock
p323
aVWing
p324
aVFlanker
p325
aVLock
p326
aVWing
p327
aVNo. 8
p328
aVHooker
p329
aVScrum-half
p330
aVProp
p331
aVWing, Centre
p332
aVFullback, Wing
p333
aVLock
p334
aVCentre
p335
aVWing
p336
aVHooker, Flanker
p337
aVScrum-half
p338
aVFly-half, Centre
p339
aVBack-row
p340
aVWing
p341
aVProp, Hooker
p342
aVLock
p343
aVFly-half
p344
aVWing
p345
aVFlanker
p346
aVLock
p347
aVFlanker
p348
aVScrum-half
p349
aVLock
p350
aVProp
p351
aVProp
p352
aVBack-row
p353
aVHooker
p354
aVFly-half
p355
aVBack-row
p356
aVFullback, Wing
p357
aVFullback, Wing
p358
aVLock
p359
aVBack-row
p360
aVBack-row
p361
aVNo. 8
p362
aVWing
p363
aVProp
p364
aVWing
p365
aVScrum-half
p366
aVFullback, Wing
p367
aVLock
p368
aVLock
p369
aVHooker
p370
aVFlanker
p371
aVProp
p372
aVWing
p373
aVScrum-half
p374
aVCentre
p375
aVLock
p376
aVBack-row
p377
aVProp
p378
aVCentre
p379
aVHooker
p380
aVProp
p381
aVLock
p382
aVHooker
p383
aVFlanker
p384
aVBack-row
p385
aVProp
p386
aVCentre, Fly-half
p387
aVWing
p388
aVFly-half
p389
aVScrum-half
p390
aVHooker
p391
aVWing
p392
aVProp, Hooker
p393
aVProp
p394
aVLock
p395
aVNo. 8
p396
aVLock
p397
aVProp
p398
aVFly-half
p399
aVCentre
p400
aVLock, Back-row
p401
aVFly-half, Centre
p402
aVProp
p403
aVCentre
p404
aVFullback, Wing
p405
aVWing
p406
aVBack-row
p407
aVHooker
p408
aVFly-half
p409
aVWing
p410
aVNo. 8
p411
aVHooker
p412
aVProp
p413
aVWing
p414
aVFullback
p415
aVBack-row
p416
aVProp
p417
aVWing
p418
aVLock
p419
aVFly-half
p420
aVCentre
p421
aVFlanker
p422
aVProp
p423
aVNo. 8
p424
aVProp
p425
aVCentre
p426
aVWing
p427
aVProp
p428
aVLock
p429
aVScrum-half
p430
aVHooker
p431
aVFlanker
p432
aVHalfback
p433
aVFlanker
p434
aVCentre
p435
aVWing
p436
aVWing
p437
aVFlanker
p438
aVLock
p439
aVLock
p440
aVProp
p441
aVCentre
p442
a.