(lp1
(dp2
S'Pens'
p3
S'0'
sS'Sub'
p4
S'0'
sS'Lost'
p5
S'1'
sS'Drop'
p6
S'0'
sS'Start'
p7
S'1'
sS'Won'
p8
S'0'
sS'GfM'
p9
S'0'
sS'Draw'
p10
S'0'
sS'Mat'
p11
S'1'
sS'Conv'
p12
S'0'
sS'Tries'
p13
S'0'
sS'Pts'
p14
S'0'
sa(dp15
S'Pens'
p16
S'0'
sS'Sub'
p17
S'0'
sS'Lost'
p18
S'1'
sS'Drop'
p19
S'0'
sS'Start'
p20
S'1'
sS'Won'
p21
S'0'
sS'GfM'
p22
S'0'
sS'Draw'
p23
S'0'
sS'Mat'
p24
S'1'
sS'Conv'
p25
S'0'
sS'Tries'
p26
S'0'
sS'Pts'
p27
S'0'
sa(dp28
S'Pens'
p29
S'0'
sS'Sub'
p30
S'0'
sS'Lost'
p31
S'2'
sS'Drop'
p32
S'0'
sS'Start'
p33
S'2'
sS'Won'
p34
S'0'
sS'GfM'
p35
S'0'
sS'Draw'
p36
S'0'
sS'Mat'
p37
S'2'
sS'Conv'
p38
S'0'
sS'Tries'
p39
S'0'
sS'Pts'
p40
S'0'
sa(dp41
S'Pens'
p42
S'1'
sS'Sub'
p43
S'0'
sS'Lost'
p44
S'1'
sS'Drop'
p45
S'0'
sS'Start'
p46
S'1'
sS'Won'
p47
S'0'
sS'GfM'
p48
S'0'
sS'Draw'
p49
S'0'
sS'Mat'
p50
S'1'
sS'Conv'
p51
S'1'
sS'Tries'
p52
S'0'
sS'Pts'
p53
S'5'
sa(dp54
S'Pens'
p55
S'0'
sS'Sub'
p56
S'0'
sS'Lost'
p57
S'2'
sS'Drop'
p58
S'0'
sS'Start'
p59
S'2'
sS'Won'
p60
S'0'
sS'GfM'
p61
S'0'
sS'Draw'
p62
S'0'
sS'Mat'
p63
S'2'
sS'Conv'
p64
S'0'
sS'Tries'
p65
S'0'
sS'Pts'
p66
S'0'
sa(dp67
S'Pens'
p68
S'0'
sS'Sub'
p69
S'0'
sS'Lost'
p70
S'1'
sS'Drop'
p71
S'0'
sS'Start'
p72
S'1'
sS'Won'
p73
S'0'
sS'GfM'
p74
S'0'
sS'Draw'
p75
S'0'
sS'Mat'
p76
S'1'
sS'Conv'
p77
S'0'
sS'Tries'
p78
S'1'
sS'Pts'
p79
S'3'
sa(dp80
S'Pens'
p81
S'0'
sS'Sub'
p82
S'0'
sS'Lost'
p83
S'2'
sS'Drop'
p84
S'0'
sS'Start'
p85
S'2'
sS'Won'
p86
S'0'
sS'GfM'
p87
S'0'
sS'Draw'
p88
S'0'
sS'Mat'
p89
S'2'
sS'Conv'
p90
S'0'
sS'Tries'
p91
S'0'
sS'Pts'
p92
S'0'
sa(dp93
S'Pens'
p94
S'0'
sS'Sub'
p95
S'0'
sS'Lost'
p96
S'2'
sS'Drop'
p97
S'0'
sS'Start'
p98
S'2'
sS'Won'
p99
S'0'
sS'GfM'
p100
S'0'
sS'Draw'
p101
S'0'
sS'Mat'
p102
S'2'
sS'Conv'
p103
S'0'
sS'Tries'
p104
S'0'
sS'Pts'
p105
S'0'
sa(dp106
S'Pens'
p107
S'0'
sS'Sub'
p108
S'0'
sS'Lost'
p109
S'1'
sS'Drop'
p110
S'0'
sS'Start'
p111
S'1'
sS'Won'
p112
S'0'
sS'GfM'
p113
S'0'
sS'Draw'
p114
S'0'
sS'Mat'
p115
S'1'
sS'Conv'
p116
S'0'
sS'Tries'
p117
S'0'
sS'Pts'
p118
S'0'
sa(dp119
S'Pens'
p120
S'0'
sS'Sub'
p121
S'0'
sS'Lost'
p122
S'1'
sS'Drop'
p123
S'0'
sS'Start'
p124
S'1'
sS'Won'
p125
S'0'
sS'GfM'
p126
S'0'
sS'Draw'
p127
S'0'
sS'Mat'
p128
S'1'
sS'Conv'
p129
S'0'
sS'Tries'
p130
S'0'
sS'Pts'
p131
S'0'
sa(dp132
S'Pens'
p133
S'0'
sS'Sub'
p134
S'0'
sS'Lost'
p135
S'1'
sS'Drop'
p136
S'0'
sS'Start'
p137
S'1'
sS'Won'
p138
S'0'
sS'GfM'
p139
S'0'
sS'Draw'
p140
S'0'
sS'Mat'
p141
S'1'
sS'Conv'
p142
S'0'
sS'Tries'
p143
S'0'
sS'Pts'
p144
S'0'
sa(dp145
S'Pens'
p146
S'1'
sS'Sub'
p147
S'0'
sS'Lost'
p148
S'2'
sS'Drop'
p149
S'0'
sS'Start'
p150
S'2'
sS'Won'
p151
S'0'
sS'GfM'
p152
S'0'
sS'Draw'
p153
S'0'
sS'Mat'
p154
S'2'
sS'Conv'
p155
S'0'
sS'Tries'
p156
S'0'
sS'Pts'
p157
S'3'
sa(dp158
S'Pens'
p159
S'0'
sS'Sub'
p160
S'0'
sS'Lost'
p161
S'1'
sS'Drop'
p162
S'0'
sS'Start'
p163
S'1'
sS'Won'
p164
S'0'
sS'GfM'
p165
S'0'
sS'Draw'
p166
S'0'
sS'Mat'
p167
S'1'
sS'Conv'
p168
S'0'
sS'Tries'
p169
S'0'
sS'Pts'
p170
S'0'
sa(dp171
S'Pens'
p172
S'0'
sS'Sub'
p173
S'0'
sS'Lost'
p174
S'1'
sS'Drop'
p175
S'0'
sS'Start'
p176
S'1'
sS'Won'
p177
S'0'
sS'GfM'
p178
S'0'
sS'Draw'
p179
S'0'
sS'Mat'
p180
S'1'
sS'Conv'
p181
S'0'
sS'Tries'
p182
S'0'
sS'Pts'
p183
S'0'
sa(dp184
S'Pens'
p185
S'0'
sS'Sub'
p186
S'0'
sS'Lost'
p187
S'1'
sS'Drop'
p188
S'0'
sS'Start'
p189
S'1'
sS'Won'
p190
S'0'
sS'GfM'
p191
S'0'
sS'Draw'
p192
S'0'
sS'Mat'
p193
S'1'
sS'Conv'
p194
S'0'
sS'Tries'
p195
S'0'
sS'Pts'
p196
S'0'
sa(dp197
S'Pens'
p198
S'0'
sS'Sub'
p199
S'0'
sS'Lost'
p200
S'1'
sS'Drop'
p201
S'0'
sS'Start'
p202
S'1'
sS'Won'
p203
S'0'
sS'GfM'
p204
S'0'
sS'Draw'
p205
S'0'
sS'Mat'
p206
S'1'
sS'Conv'
p207
S'0'
sS'Tries'
p208
S'0'
sS'Pts'
p209
S'0'
sa(dp210
S'Pens'
p211
S'0'
sS'Sub'
p212
S'0'
sS'Lost'
p213
S'3'
sS'Drop'
p214
S'0'
sS'Start'
p215
S'5'
sS'Won'
p216
S'2'
sS'GfM'
p217
S'0'
sS'Draw'
p218
S'0'
sS'Mat'
p219
S'5'
sS'Conv'
p220
S'0'
sS'Tries'
p221
S'1'
sS'Pts'
p222
S'3'
sa(dp223
S'Pens'
p224
S'0'
sS'Sub'
p225
S'0'
sS'Lost'
p226
S'1'
sS'Drop'
p227
S'0'
sS'Start'
p228
S'1'
sS'Won'
p229
S'0'
sS'GfM'
p230
S'0'
sS'Draw'
p231
S'0'
sS'Mat'
p232
S'1'
sS'Conv'
p233
S'0'
sS'Tries'
p234
S'0'
sS'Pts'
p235
S'0'
sa(dp236
S'Pens'
p237
S'0'
sS'Sub'
p238
S'0'
sS'Lost'
p239
S'1'
sS'Drop'
p240
S'0'
sS'Start'
p241
S'1'
sS'Won'
p242
S'0'
sS'GfM'
p243
S'0'
sS'Draw'
p244
S'0'
sS'Mat'
p245
S'1'
sS'Conv'
p246
S'0'
sS'Tries'
p247
S'0'
sS'Pts'
p248
S'0'
sa(dp249
S'Pens'
p250
S'0'
sS'Sub'
p251
S'0'
sS'Lost'
p252
S'1'
sS'Drop'
p253
S'0'
sS'Start'
p254
S'1'
sS'Won'
p255
S'0'
sS'GfM'
p256
S'0'
sS'Draw'
p257
S'0'
sS'Mat'
p258
S'1'
sS'Conv'
p259
S'0'
sS'Tries'
p260
S'0'
sS'Pts'
p261
S'0'
sa(dp262
S'Pens'
p263
S'0'
sS'Sub'
p264
S'0'
sS'Lost'
p265
S'1'
sS'Drop'
p266
S'0'
sS'Start'
p267
S'1'
sS'Won'
p268
S'0'
sS'GfM'
p269
S'0'
sS'Draw'
p270
S'0'
sS'Mat'
p271
S'1'
sS'Conv'
p272
S'0'
sS'Tries'
p273
S'0'
sS'Pts'
p274
S'0'
sa(dp275
S'Pens'
p276
S'0'
sS'Sub'
p277
S'0'
sS'Lost'
p278
S'1'
sS'Drop'
p279
S'0'
sS'Start'
p280
S'1'
sS'Won'
p281
S'0'
sS'GfM'
p282
S'0'
sS'Draw'
p283
S'0'
sS'Mat'
p284
S'1'
sS'Conv'
p285
S'0'
sS'Tries'
p286
S'0'
sS'Pts'
p287
S'0'
sa(dp288
S'Pens'
p289
S'0'
sS'Sub'
p290
S'0'
sS'Lost'
p291
S'1'
sS'Drop'
p292
S'0'
sS'Start'
p293
S'1'
sS'Won'
p294
S'0'
sS'GfM'
p295
S'0'
sS'Draw'
p296
S'0'
sS'Mat'
p297
S'1'
sS'Conv'
p298
S'0'
sS'Tries'
p299
S'0'
sS'Pts'
p300
S'0'
sa(dp301
S'Pens'
p302
S'0'
sS'Sub'
p303
S'0'
sS'Lost'
p304
S'1'
sS'Drop'
p305
S'0'
sS'Start'
p306
S'1'
sS'Won'
p307
S'0'
sS'GfM'
p308
S'0'
sS'Draw'
p309
S'0'
sS'Mat'
p310
S'1'
sS'Conv'
p311
S'0'
sS'Tries'
p312
S'0'
sS'Pts'
p313
S'0'
sa(dp314
S'Pens'
p315
S'0'
sS'Sub'
p316
S'0'
sS'Lost'
p317
S'1'
sS'Drop'
p318
S'0'
sS'Start'
p319
S'1'
sS'Won'
p320
S'0'
sS'GfM'
p321
S'0'
sS'Draw'
p322
S'0'
sS'Mat'
p323
S'1'
sS'Conv'
p324
S'0'
sS'Tries'
p325
S'0'
sS'Pts'
p326
S'0'
sa(dp327
S'Pens'
p328
S'0'
sS'Sub'
p329
S'1'
sS'Lost'
p330
S'1'
sS'Drop'
p331
S'0'
sS'Start'
p332
S'0'
sS'Won'
p333
S'0'
sS'GfM'
p334
S'0'
sS'Draw'
p335
S'0'
sS'Mat'
p336
S'1'
sS'Conv'
p337
S'0'
sS'Tries'
p338
S'0'
sS'Pts'
p339
S'0'
sa(dp340
S'Pens'
p341
S'0'
sS'Sub'
p342
S'1'
sS'Lost'
p343
S'1'
sS'Drop'
p344
S'0'
sS'Start'
p345
S'0'
sS'Won'
p346
S'0'
sS'GfM'
p347
S'0'
sS'Draw'
p348
S'0'
sS'Mat'
p349
S'1'
sS'Conv'
p350
S'0'
sS'Tries'
p351
S'0'
sS'Pts'
p352
S'0'
sa(dp353
S'Pens'
p354
S'1'
sS'Sub'
p355
S'0'
sS'Lost'
p356
S'1'
sS'Drop'
p357
S'0'
sS'Start'
p358
S'4'
sS'Won'
p359
S'3'
sS'GfM'
p360
S'0'
sS'Draw'
p361
S'0'
sS'Mat'
p362
S'4'
sS'Conv'
p363
S'6'
sS'Tries'
p364
S'0'
sS'Pts'
p365
S'15'
p366
sa(dp367
S'Pens'
p368
S'0'
sS'Sub'
p369
S'0'
sS'Lost'
p370
S'0'
sS'Drop'
p371
S'0'
sS'Start'
p372
S'1'
sS'Won'
p373
S'1'
sS'GfM'
p374
S'0'
sS'Draw'
p375
S'0'
sS'Mat'
p376
S'1'
sS'Conv'
p377
S'0'
sS'Tries'
p378
S'0'
sS'Pts'
p379
S'0'
sa(dp380
S'Pens'
p381
S'0'
sS'Sub'
p382
S'0'
sS'Lost'
p383
S'1'
sS'Drop'
p384
S'0'
sS'Start'
p385
S'2'
sS'Won'
p386
S'1'
sS'GfM'
p387
S'0'
sS'Draw'
p388
S'0'
sS'Mat'
p389
S'2'
sS'Conv'
p390
S'0'
sS'Tries'
p391
S'0'
sS'Pts'
p392
S'0'
sa(dp393
S'Pens'
p394
S'0'
sS'Sub'
p395
S'0'
sS'Lost'
p396
S'0'
sS'Drop'
p397
S'0'
sS'Start'
p398
S'1'
sS'Won'
p399
S'1'
sS'GfM'
p400
S'0'
sS'Draw'
p401
S'0'
sS'Mat'
p402
S'1'
sS'Conv'
p403
S'0'
sS'Tries'
p404
S'1'
sS'Pts'
p405
S'3'
sa(dp406
S'Pens'
p407
S'0'
sS'Sub'
p408
S'0'
sS'Lost'
p409
S'0'
sS'Drop'
p410
S'0'
sS'Start'
p411
S'1'
sS'Won'
p412
S'1'
sS'GfM'
p413
S'0'
sS'Draw'
p414
S'0'
sS'Mat'
p415
S'1'
sS'Conv'
p416
S'0'
sS'Tries'
p417
S'0'
sS'Pts'
p418
S'0'
sa(dp419
S'Pens'
p420
S'0'
sS'Sub'
p421
S'0'
sS'Lost'
p422
S'1'
sS'Drop'
p423
S'0'
sS'Start'
p424
S'2'
sS'Won'
p425
S'1'
sS'GfM'
p426
S'0'
sS'Draw'
p427
S'0'
sS'Mat'
p428
S'2'
sS'Conv'
p429
S'0'
sS'Tries'
p430
S'0'
sS'Pts'
p431
S'0'
sa(dp432
S'Pens'
p433
S'0'
sS'Sub'
p434
S'0'
sS'Lost'
p435
S'1'
sS'Drop'
p436
S'0'
sS'Start'
p437
S'2'
sS'Won'
p438
S'1'
sS'GfM'
p439
S'0'
sS'Draw'
p440
S'0'
sS'Mat'
p441
S'2'
sS'Conv'
p442
S'0'
sS'Tries'
p443
S'0'
sS'Pts'
p444
S'0'
sa(dp445
S'Pens'
p446
S'0'
sS'Sub'
p447
S'0'
sS'Lost'
p448
S'1'
sS'Drop'
p449
S'0'
sS'Start'
p450
S'4'
sS'Won'
p451
S'3'
sS'GfM'
p452
S'0'
sS'Draw'
p453
S'0'
sS'Mat'
p454
S'4'
sS'Conv'
p455
S'0'
sS'Tries'
p456
S'0'
sS'Pts'
p457
S'0'
sa(dp458
S'Pens'
p459
S'0'
sS'Sub'
p460
S'0'
sS'Lost'
p461
S'0'
sS'Drop'
p462
S'0'
sS'Start'
p463
S'3'
sS'Won'
p464
S'3'
sS'GfM'
p465
S'0'
sS'Draw'
p466
S'0'
sS'Mat'
p467
S'3'
sS'Conv'
p468
S'0'
sS'Tries'
p469
S'4'
sS'Pts'
p470
S'12'
p471
sa(dp472
S'Pens'
p473
S'0'
sS'Sub'
p474
S'0'
sS'Lost'
p475
S'0'
sS'Drop'
p476
S'0'
sS'Start'
p477
S'1'
sS'Won'
p478
S'1'
sS'GfM'
p479
S'0'
sS'Draw'
p480
S'0'
sS'Mat'
p481
S'1'
sS'Conv'
p482
S'0'
sS'Tries'
p483
S'0'
sS'Pts'
p484
S'0'
sa(dp485
S'Pens'
p486
S'0'
sS'Sub'
p487
S'0'
sS'Lost'
p488
S'1'
sS'Drop'
p489
S'0'
sS'Start'
p490
S'4'
sS'Won'
p491
S'3'
sS'GfM'
p492
S'0'
sS'Draw'
p493
S'0'
sS'Mat'
p494
S'4'
sS'Conv'
p495
S'0'
sS'Tries'
p496
S'0'
sS'Pts'
p497
S'0'
sa(dp498
S'Pens'
p499
S'0'
sS'Sub'
p500
S'0'
sS'Lost'
p501
S'0'
sS'Drop'
p502
S'0'
sS'Start'
p503
S'1'
sS'Won'
p504
S'1'
sS'GfM'
p505
S'1'
sS'Draw'
p506
S'0'
sS'Mat'
p507
S'1'
sS'Conv'
p508
S'1'
sS'Tries'
p509
S'0'
sS'Pts'
p510
S'5'
sa(dp511
S'Pens'
p512
S'0'
sS'Sub'
p513
S'0'
sS'Lost'
p514
S'1'
sS'Drop'
p515
S'0'
sS'Start'
p516
S'2'
sS'Won'
p517
S'1'
sS'GfM'
p518
S'0'
sS'Draw'
p519
S'0'
sS'Mat'
p520
S'2'
sS'Conv'
p521
S'0'
sS'Tries'
p522
S'0'
sS'Pts'
p523
S'0'
sa(dp524
S'Pens'
p525
S'0'
sS'Sub'
p526
S'0'
sS'Lost'
p527
S'1'
sS'Drop'
p528
S'0'
sS'Start'
p529
S'2'
sS'Won'
p530
S'1'
sS'GfM'
p531
S'0'
sS'Draw'
p532
S'0'
sS'Mat'
p533
S'2'
sS'Conv'
p534
S'0'
sS'Tries'
p535
S'0'
sS'Pts'
p536
S'0'
sa(dp537
S'Pens'
p538
S'0'
sS'Sub'
p539
S'0'
sS'Lost'
p540
S'1'
sS'Drop'
p541
S'0'
sS'Start'
p542
S'1'
sS'Won'
p543
S'0'
sS'GfM'
p544
S'0'
sS'Draw'
p545
S'0'
sS'Mat'
p546
S'1'
sS'Conv'
p547
S'1'
sS'Tries'
p548
S'0'
sS'Pts'
p549
S'2'
sa(dp550
S'Pens'
p551
S'0'
sS'Sub'
p552
S'0'
sS'Lost'
p553
S'1'
sS'Drop'
p554
S'0'
sS'Start'
p555
S'2'
sS'Won'
p556
S'1'
sS'GfM'
p557
S'0'
sS'Draw'
p558
S'0'
sS'Mat'
p559
S'2'
sS'Conv'
p560
S'0'
sS'Tries'
p561
S'0'
sS'Pts'
p562
S'0'
sa(dp563
S'Pens'
p564
S'0'
sS'Sub'
p565
S'0'
sS'Lost'
p566
S'1'
sS'Drop'
p567
S'0'
sS'Start'
p568
S'1'
sS'Won'
p569
S'0'
sS'GfM'
p570
S'0'
sS'Draw'
p571
S'0'
sS'Mat'
p572
S'1'
sS'Conv'
p573
S'0'
sS'Tries'
p574
S'0'
sS'Pts'
p575
S'0'
sa(dp576
S'Pens'
p577
S'0'
sS'Sub'
p578
S'0'
sS'Lost'
p579
S'1'
sS'Drop'
p580
S'0'
sS'Start'
p581
S'1'
sS'Won'
p582
S'0'
sS'GfM'
p583
S'0'
sS'Draw'
p584
S'0'
sS'Mat'
p585
S'1'
sS'Conv'
p586
S'0'
sS'Tries'
p587
S'1'
sS'Pts'
p588
S'3'
sa(dp589
S'Pens'
p590
S'0'
sS'Sub'
p591
S'0'
sS'Lost'
p592
S'1'
sS'Drop'
p593
S'0'
sS'Start'
p594
S'1'
sS'Won'
p595
S'0'
sS'GfM'
p596
S'0'
sS'Draw'
p597
S'0'
sS'Mat'
p598
S'1'
sS'Conv'
p599
S'0'
sS'Tries'
p600
S'0'
sS'Pts'
p601
S'0'
sa(dp602
S'Pens'
p603
S'0'
sS'Sub'
p604
S'0'
sS'Lost'
p605
S'1'
sS'Drop'
p606
S'0'
sS'Start'
p607
S'1'
sS'Won'
p608
S'0'
sS'GfM'
p609
S'0'
sS'Draw'
p610
S'0'
sS'Mat'
p611
S'1'
sS'Conv'
p612
S'0'
sS'Tries'
p613
S'0'
sS'Pts'
p614
S'0'
sa(dp615
S'Pens'
p616
S'0'
sS'Sub'
p617
S'0'
sS'Lost'
p618
S'0'
sS'Drop'
p619
S'0'
sS'Start'
p620
S'1'
sS'Won'
p621
S'1'
sS'GfM'
p622
S'0'
sS'Draw'
p623
S'0'
sS'Mat'
p624
S'1'
sS'Conv'
p625
S'0'
sS'Tries'
p626
S'0'
sS'Pts'
p627
S'0'
sa(dp628
S'Pens'
p629
S'0'
sS'Sub'
p630
S'0'
sS'Lost'
p631
S'0'
sS'Drop'
p632
S'0'
sS'Start'
p633
S'2'
sS'Won'
p634
S'2'
sS'GfM'
p635
S'0'
sS'Draw'
p636
S'0'
sS'Mat'
p637
S'2'
sS'Conv'
p638
S'0'
sS'Tries'
p639
S'1'
sS'Pts'
p640
S'3'
sa(dp641
S'Pens'
p642
S'0'
sS'Sub'
p643
S'0'
sS'Lost'
p644
S'0'
sS'Drop'
p645
S'0'
sS'Start'
p646
S'2'
sS'Won'
p647
S'2'
sS'GfM'
p648
S'0'
sS'Draw'
p649
S'0'
sS'Mat'
p650
S'2'
sS'Conv'
p651
S'0'
sS'Tries'
p652
S'0'
sS'Pts'
p653
S'0'
sa(dp654
S'Pens'
p655
S'0'
sS'Sub'
p656
S'0'
sS'Lost'
p657
S'0'
sS'Drop'
p658
S'0'
sS'Start'
p659
S'2'
sS'Won'
p660
S'2'
sS'GfM'
p661
S'0'
sS'Draw'
p662
S'0'
sS'Mat'
p663
S'2'
sS'Conv'
p664
S'0'
sS'Tries'
p665
S'0'
sS'Pts'
p666
S'0'
sa(dp667
S'Pens'
p668
S'0'
sS'Sub'
p669
S'0'
sS'Lost'
p670
S'0'
sS'Drop'
p671
S'0'
sS'Start'
p672
S'2'
sS'Won'
p673
S'2'
sS'GfM'
p674
S'0'
sS'Draw'
p675
S'0'
sS'Mat'
p676
S'2'
sS'Conv'
p677
S'0'
sS'Tries'
p678
S'0'
sS'Pts'
p679
S'0'
sa(dp680
S'Pens'
p681
S'0'
sS'Sub'
p682
S'0'
sS'Lost'
p683
S'0'
sS'Drop'
p684
S'0'
sS'Start'
p685
S'2'
sS'Won'
p686
S'2'
sS'GfM'
p687
S'0'
sS'Draw'
p688
S'0'
sS'Mat'
p689
S'2'
sS'Conv'
p690
S'0'
sS'Tries'
p691
S'4'
sS'Pts'
p692
S'12'
p693
sa(dp694
S'Pens'
p695
S'0'
sS'Sub'
p696
S'0'
sS'Lost'
p697
S'0'
sS'Drop'
p698
S'0'
sS'Start'
p699
S'2'
sS'Won'
p700
S'2'
sS'GfM'
p701
S'0'
sS'Draw'
p702
S'0'
sS'Mat'
p703
S'2'
sS'Conv'
p704
S'0'
sS'Tries'
p705
S'1'
sS'Pts'
p706
S'3'
sa(dp707
S'Pens'
p708
S'0'
sS'Sub'
p709
S'0'
sS'Lost'
p710
S'0'
sS'Drop'
p711
S'0'
sS'Start'
p712
S'1'
sS'Won'
p713
S'1'
sS'GfM'
p714
S'0'
sS'Draw'
p715
S'0'
sS'Mat'
p716
S'1'
sS'Conv'
p717
S'0'
sS'Tries'
p718
S'0'
sS'Pts'
p719
S'0'
sa(dp720
S'Pens'
p721
S'0'
sS'Sub'
p722
S'0'
sS'Lost'
p723
S'0'
sS'Drop'
p724
S'0'
sS'Start'
p725
S'1'
sS'Won'
p726
S'1'
sS'GfM'
p727
S'0'
sS'Draw'
p728
S'0'
sS'Mat'
p729
S'1'
sS'Conv'
p730
S'0'
sS'Tries'
p731
S'0'
sS'Pts'
p732
S'0'
sa(dp733
S'Pens'
p734
S'0'
sS'Sub'
p735
S'0'
sS'Lost'
p736
S'0'
sS'Drop'
p737
S'0'
sS'Start'
p738
S'2'
sS'Won'
p739
S'2'
sS'GfM'
p740
S'0'
sS'Draw'
p741
S'0'
sS'Mat'
p742
S'2'
sS'Conv'
p743
S'0'
sS'Tries'
p744
S'0'
sS'Pts'
p745
S'0'
sa(dp746
S'Pens'
p747
S'0'
sS'Sub'
p748
S'0'
sS'Lost'
p749
S'0'
sS'Drop'
p750
S'0'
sS'Start'
p751
S'1'
sS'Won'
p752
S'1'
sS'GfM'
p753
S'0'
sS'Draw'
p754
S'0'
sS'Mat'
p755
S'1'
sS'Conv'
p756
S'0'
sS'Tries'
p757
S'0'
sS'Pts'
p758
S'0'
sa(dp759
S'Pens'
p760
S'0'
sS'Sub'
p761
S'0'
sS'Lost'
p762
S'0'
sS'Drop'
p763
S'0'
sS'Start'
p764
S'1'
sS'Won'
p765
S'1'
sS'GfM'
p766
S'0'
sS'Draw'
p767
S'0'
sS'Mat'
p768
S'1'
sS'Conv'
p769
S'0'
sS'Tries'
p770
S'0'
sS'Pts'
p771
S'0'
sa(dp772
S'Pens'
p773
S'0'
sS'Sub'
p774
S'0'
sS'Lost'
p775
S'0'
sS'Drop'
p776
S'0'
sS'Start'
p777
S'1'
sS'Won'
p778
S'1'
sS'GfM'
p779
S'0'
sS'Draw'
p780
S'0'
sS'Mat'
p781
S'1'
sS'Conv'
p782
S'0'
sS'Tries'
p783
S'2'
sS'Pts'
p784
S'6'
sa(dp785
S'Pens'
p786
S'0'
sS'Sub'
p787
S'0'
sS'Lost'
p788
S'0'
sS'Drop'
p789
S'0'
sS'Start'
p790
S'1'
sS'Won'
p791
S'1'
sS'GfM'
p792
S'0'
sS'Draw'
p793
S'0'
sS'Mat'
p794
S'1'
sS'Conv'
p795
S'0'
sS'Tries'
p796
S'1'
sS'Pts'
p797
S'3'
sa(dp798
S'Pens'
p799
S'0'
sS'Sub'
p800
S'0'
sS'Lost'
p801
S'1'
sS'Drop'
p802
S'0'
sS'Start'
p803
S'1'
sS'Won'
p804
S'0'
sS'GfM'
p805
S'0'
sS'Draw'
p806
S'0'
sS'Mat'
p807
S'1'
sS'Conv'
p808
S'0'
sS'Tries'
p809
S'0'
sS'Pts'
p810
S'0'
sa(dp811
S'Pens'
p812
S'0'
sS'Sub'
p813
S'0'
sS'Lost'
p814
S'4'
sS'Drop'
p815
S'0'
sS'Start'
p816
S'5'
sS'Won'
p817
S'1'
sS'GfM'
p818
S'0'
sS'Draw'
p819
S'0'
sS'Mat'
p820
S'5'
sS'Conv'
p821
S'0'
sS'Tries'
p822
S'0'
sS'Pts'
p823
S'0'
sa(dp824
S'Pens'
p825
S'0'
sS'Sub'
p826
S'0'
sS'Lost'
p827
S'3'
sS'Drop'
p828
S'0'
sS'Start'
p829
S'3'
sS'Won'
p830
S'0'
sS'GfM'
p831
S'0'
sS'Draw'
p832
S'0'
sS'Mat'
p833
S'3'
sS'Conv'
p834
S'0'
sS'Tries'
p835
S'0'
sS'Pts'
p836
S'0'
sa(dp837
S'Pens'
p838
S'0'
sS'Sub'
p839
S'0'
sS'Lost'
p840
S'1'
sS'Drop'
p841
S'0'
sS'Start'
p842
S'2'
sS'Won'
p843
S'1'
sS'GfM'
p844
S'0'
sS'Draw'
p845
S'0'
sS'Mat'
p846
S'2'
sS'Conv'
p847
S'0'
sS'Tries'
p848
S'0'
sS'Pts'
p849
S'0'
sa(dp850
S'Pens'
p851
S'0'
sS'Sub'
p852
S'0'
sS'Lost'
p853
S'1'
sS'Drop'
p854
S'0'
sS'Start'
p855
S'1'
sS'Won'
p856
S'0'
sS'GfM'
p857
S'0'
sS'Draw'
p858
S'0'
sS'Mat'
p859
S'1'
sS'Conv'
p860
S'0'
sS'Tries'
p861
S'0'
sS'Pts'
p862
S'0'
sa(dp863
S'Pens'
p864
S'0'
sS'Sub'
p865
S'0'
sS'Lost'
p866
S'2'
sS'Drop'
p867
S'0'
sS'Start'
p868
S'3'
sS'Won'
p869
S'1'
sS'GfM'
p870
S'0'
sS'Draw'
p871
S'0'
sS'Mat'
p872
S'3'
sS'Conv'
p873
S'0'
sS'Tries'
p874
S'1'
sS'Pts'
p875
S'4'
sa(dp876
S'Pens'
p877
S'0'
sS'Sub'
p878
S'0'
sS'Lost'
p879
S'8'
sS'Drop'
p880
S'0'
sS'Start'
p881
S'9'
sS'Won'
p882
S'0'
sS'GfM'
p883
S'0'
sS'Draw'
p884
S'1'
sS'Mat'
p885
S'9'
sS'Conv'
p886
S'0'
sS'Tries'
p887
S'0'
sS'Pts'
p888
S'0'
sa(dp889
S'Pens'
p890
S'0'
sS'Sub'
p891
S'0'
sS'Lost'
p892
S'3'
sS'Drop'
p893
S'0'
sS'Start'
p894
S'4'
sS'Won'
p895
S'1'
sS'GfM'
p896
S'0'
sS'Draw'
p897
S'0'
sS'Mat'
p898
S'4'
sS'Conv'
p899
S'0'
sS'Tries'
p900
S'0'
sS'Pts'
p901
S'0'
sa(dp902
S'Pens'
p903
S'4'
sS'Sub'
p904
S'0'
sS'Lost'
p905
S'1'
sS'Drop'
p906
S'0'
sS'Start'
p907
S'1'
sS'Won'
p908
S'0'
sS'GfM'
p909
S'0'
sS'Draw'
p910
S'0'
sS'Mat'
p911
S'1'
sS'Conv'
p912
S'0'
sS'Tries'
p913
S'0'
sS'Pts'
p914
S'12'
p915
sa(dp916
S'Pens'
p917
S'0'
sS'Sub'
p918
S'0'
sS'Lost'
p919
S'2'
sS'Drop'
p920
S'0'
sS'Start'
p921
S'2'
sS'Won'
p922
S'0'
sS'GfM'
p923
S'0'
sS'Draw'
p924
S'0'
sS'Mat'
p925
S'2'
sS'Conv'
p926
S'0'
sS'Tries'
p927
S'0'
sS'Pts'
p928
S'0'
sa(dp929
S'Pens'
p930
S'0'
sS'Sub'
p931
S'0'
sS'Lost'
p932
S'5'
sS'Drop'
p933
S'0'
sS'Start'
p934
S'5'
sS'Won'
p935
S'0'
sS'GfM'
p936
S'0'
sS'Draw'
p937
S'0'
sS'Mat'
p938
S'5'
sS'Conv'
p939
S'0'
sS'Tries'
p940
S'0'
sS'Pts'
p941
S'0'
sa(dp942
S'Pens'
p943
S'0'
sS'Sub'
p944
S'0'
sS'Lost'
p945
S'3'
sS'Drop'
p946
S'0'
sS'Start'
p947
S'3'
sS'Won'
p948
S'0'
sS'GfM'
p949
S'0'
sS'Draw'
p950
S'0'
sS'Mat'
p951
S'3'
sS'Conv'
p952
S'0'
sS'Tries'
p953
S'0'
sS'Pts'
p954
S'0'
sa(dp955
S'Pens'
p956
S'0'
sS'Sub'
p957
S'0'
sS'Lost'
p958
S'1'
sS'Drop'
p959
S'0'
sS'Start'
p960
S'1'
sS'Won'
p961
S'0'
sS'GfM'
p962
S'0'
sS'Draw'
p963
S'0'
sS'Mat'
p964
S'1'
sS'Conv'
p965
S'0'
sS'Tries'
p966
S'0'
sS'Pts'
p967
S'0'
sa(dp968
S'Pens'
p969
S'0'
sS'Sub'
p970
S'0'
sS'Lost'
p971
S'4'
sS'Drop'
p972
S'0'
sS'Start'
p973
S'4'
sS'Won'
p974
S'0'
sS'GfM'
p975
S'0'
sS'Draw'
p976
S'0'
sS'Mat'
p977
S'4'
sS'Conv'
p978
S'0'
sS'Tries'
p979
S'0'
sS'Pts'
p980
S'0'
sa(dp981
S'Pens'
p982
S'0'
sS'Sub'
p983
S'0'
sS'Lost'
p984
S'1'
sS'Drop'
p985
S'0'
sS'Start'
p986
S'1'
sS'Won'
p987
S'0'
sS'GfM'
p988
S'0'
sS'Draw'
p989
S'0'
sS'Mat'
p990
S'1'
sS'Conv'
p991
S'0'
sS'Tries'
p992
S'0'
sS'Pts'
p993
S'0'
sa(dp994
S'Pens'
p995
S'0'
sS'Sub'
p996
S'0'
sS'Lost'
p997
S'2'
sS'Drop'
p998
S'0'
sS'Start'
p999
S'2'
sS'Won'
p1000
S'0'
sS'GfM'
p1001
S'0'
sS'Draw'
p1002
S'0'
sS'Mat'
p1003
S'2'
sS'Conv'
p1004
S'0'
sS'Tries'
p1005
S'2'
sS'Pts'
p1006
S'8'
sa(dp1007
S'Pens'
p1008
S'0'
sS'Sub'
p1009
S'0'
sS'Lost'
p1010
S'6'
sS'Drop'
p1011
S'0'
sS'Start'
p1012
S'6'
sS'Won'
p1013
S'0'
sS'GfM'
p1014
S'0'
sS'Draw'
p1015
S'0'
sS'Mat'
p1016
S'6'
sS'Conv'
p1017
S'0'
sS'Tries'
p1018
S'0'
sS'Pts'
p1019
S'0'
sa(dp1020
S'Pens'
p1021
S'0'
sS'Sub'
p1022
S'0'
sS'Lost'
p1023
S'2'
sS'Drop'
p1024
S'0'
sS'Start'
p1025
S'2'
sS'Won'
p1026
S'0'
sS'GfM'
p1027
S'0'
sS'Draw'
p1028
S'0'
sS'Mat'
p1029
S'2'
sS'Conv'
p1030
S'0'
sS'Tries'
p1031
S'0'
sS'Pts'
p1032
S'0'
sa(dp1033
S'Pens'
p1034
S'0'
sS'Sub'
p1035
S'0'
sS'Lost'
p1036
S'1'
sS'Drop'
p1037
S'0'
sS'Start'
p1038
S'1'
sS'Won'
p1039
S'0'
sS'GfM'
p1040
S'0'
sS'Draw'
p1041
S'0'
sS'Mat'
p1042
S'1'
sS'Conv'
p1043
S'0'
sS'Tries'
p1044
S'0'
sS'Pts'
p1045
S'0'
sa(dp1046
S'Pens'
p1047
S'0'
sS'Sub'
p1048
S'0'
sS'Lost'
p1049
S'1'
sS'Drop'
p1050
S'0'
sS'Start'
p1051
S'1'
sS'Won'
p1052
S'0'
sS'GfM'
p1053
S'0'
sS'Draw'
p1054
S'0'
sS'Mat'
p1055
S'1'
sS'Conv'
p1056
S'0'
sS'Tries'
p1057
S'0'
sS'Pts'
p1058
S'0'
sa(dp1059
S'Pens'
p1060
S'2'
sS'Sub'
p1061
S'0'
sS'Lost'
p1062
S'1'
sS'Drop'
p1063
S'0'
sS'Start'
p1064
S'1'
sS'Won'
p1065
S'0'
sS'GfM'
p1066
S'0'
sS'Draw'
p1067
S'0'
sS'Mat'
p1068
S'1'
sS'Conv'
p1069
S'0'
sS'Tries'
p1070
S'0'
sS'Pts'
p1071
S'6'
sa(dp1072
S'Pens'
p1073
S'0'
sS'Sub'
p1074
S'0'
sS'Lost'
p1075
S'1'
sS'Drop'
p1076
S'0'
sS'Start'
p1077
S'1'
sS'Won'
p1078
S'0'
sS'GfM'
p1079
S'0'
sS'Draw'
p1080
S'0'
sS'Mat'
p1081
S'1'
sS'Conv'
p1082
S'0'
sS'Tries'
p1083
S'0'
sS'Pts'
p1084
S'0'
sa(dp1085
S'Pens'
p1086
S'0'
sS'Sub'
p1087
S'0'
sS'Lost'
p1088
S'3'
sS'Drop'
p1089
S'0'
sS'Start'
p1090
S'4'
sS'Won'
p1091
S'1'
sS'GfM'
p1092
S'0'
sS'Draw'
p1093
S'0'
sS'Mat'
p1094
S'4'
sS'Conv'
p1095
S'0'
sS'Tries'
p1096
S'0'
sS'Pts'
p1097
S'0'
sa(dp1098
S'Pens'
p1099
S'0'
sS'Sub'
p1100
S'0'
sS'Lost'
p1101
S'1'
sS'Drop'
p1102
S'0'
sS'Start'
p1103
S'1'
sS'Won'
p1104
S'0'
sS'GfM'
p1105
S'0'
sS'Draw'
p1106
S'0'
sS'Mat'
p1107
S'1'
sS'Conv'
p1108
S'0'
sS'Tries'
p1109
S'0'
sS'Pts'
p1110
S'0'
sa(dp1111
S'Pens'
p1112
S'0'
sS'Sub'
p1113
S'0'
sS'Lost'
p1114
S'5'
sS'Drop'
p1115
S'0'
sS'Start'
p1116
S'8'
sS'Won'
p1117
S'1'
sS'GfM'
p1118
S'0'
sS'Draw'
p1119
S'2'
sS'Mat'
p1120
S'8'
sS'Conv'
p1121
S'0'
sS'Tries'
p1122
S'0'
sS'Pts'
p1123
S'0'
sa(dp1124
S'Pens'
p1125
S'0'
sS'Sub'
p1126
S'0'
sS'Lost'
p1127
S'7'
sS'Drop'
p1128
S'0'
sS'Start'
p1129
S'7'
sS'Won'
p1130
S'0'
sS'GfM'
p1131
S'0'
sS'Draw'
p1132
S'0'
sS'Mat'
p1133
S'7'
sS'Conv'
p1134
S'0'
sS'Tries'
p1135
S'0'
sS'Pts'
p1136
S'0'
sa(dp1137
S'Pens'
p1138
S'0'
sS'Sub'
p1139
S'0'
sS'Lost'
p1140
S'1'
sS'Drop'
p1141
S'0'
sS'Start'
p1142
S'1'
sS'Won'
p1143
S'0'
sS'GfM'
p1144
S'0'
sS'Draw'
p1145
S'0'
sS'Mat'
p1146
S'1'
sS'Conv'
p1147
S'0'
sS'Tries'
p1148
S'0'
sS'Pts'
p1149
S'0'
sa(dp1150
S'Pens'
p1151
S'8'
sS'Sub'
p1152
S'0'
sS'Lost'
p1153
S'3'
sS'Drop'
p1154
S'0'
sS'Start'
p1155
S'4'
sS'Won'
p1156
S'1'
sS'GfM'
p1157
S'0'
sS'Draw'
p1158
S'0'
sS'Mat'
p1159
S'4'
sS'Conv'
p1160
S'2'
sS'Tries'
p1161
S'0'
sS'Pts'
p1162
S'28'
p1163
sa(dp1164
S'Pens'
p1165
S'0'
sS'Sub'
p1166
S'0'
sS'Lost'
p1167
S'2'
sS'Drop'
p1168
S'0'
sS'Start'
p1169
S'3'
sS'Won'
p1170
S'1'
sS'GfM'
p1171
S'0'
sS'Draw'
p1172
S'0'
sS'Mat'
p1173
S'3'
sS'Conv'
p1174
S'0'
sS'Tries'
p1175
S'1'
sS'Pts'
p1176
S'4'
sa(dp1177
S'Pens'
p1178
S'0'
sS'Sub'
p1179
S'0'
sS'Lost'
p1180
S'2'
sS'Drop'
p1181
S'0'
sS'Start'
p1182
S'3'
sS'Won'
p1183
S'1'
sS'GfM'
p1184
S'0'
sS'Draw'
p1185
S'0'
sS'Mat'
p1186
S'3'
sS'Conv'
p1187
S'0'
sS'Tries'
p1188
S'0'
sS'Pts'
p1189
S'0'
sa(dp1190
S'Pens'
p1191
S'0'
sS'Sub'
p1192
S'0'
sS'Lost'
p1193
S'3'
sS'Drop'
p1194
S'0'
sS'Start'
p1195
S'3'
sS'Won'
p1196
S'0'
sS'GfM'
p1197
S'0'
sS'Draw'
p1198
S'0'
sS'Mat'
p1199
S'3'
sS'Conv'
p1200
S'0'
sS'Tries'
p1201
S'0'
sS'Pts'
p1202
S'0'
sa(dp1203
S'Pens'
p1204
S'0'
sS'Sub'
p1205
S'0'
sS'Lost'
p1206
S'1'
sS'Drop'
p1207
S'0'
sS'Start'
p1208
S'1'
sS'Won'
p1209
S'0'
sS'GfM'
p1210
S'0'
sS'Draw'
p1211
S'0'
sS'Mat'
p1212
S'1'
sS'Conv'
p1213
S'0'
sS'Tries'
p1214
S'0'
sS'Pts'
p1215
S'0'
sa(dp1216
S'Pens'
p1217
S'0'
sS'Sub'
p1218
S'0'
sS'Lost'
p1219
S'1'
sS'Drop'
p1220
S'0'
sS'Start'
p1221
S'2'
sS'Won'
p1222
S'1'
sS'Draw'
p1223
S'0'
sS'%'
S'50.00'
p1224
sS'Mat'
p1225
S'2'
sS'Conv'
p1226
S'0'
sS'Tries'
p1227
S'0'
sS'Pts'
p1228
S'0'
sa(dp1229
S'Pens'
p1230
S'0'
sS'Sub'
p1231
S'0'
sS'Lost'
p1232
S'1'
sS'Drop'
p1233
S'0'
sS'Start'
p1234
S'1'
sS'Won'
p1235
S'0'
sS'Draw'
p1236
S'0'
sS'%'
S'0.00'
p1237
sS'Mat'
p1238
S'1'
sS'Conv'
p1239
S'0'
sS'Tries'
p1240
S'1'
sS'Pts'
p1241
S'4'
sa(dp1242
S'Pens'
p1243
S'2'
sS'Sub'
p1244
S'0'
sS'Lost'
p1245
S'4'
sS'Drop'
p1246
S'0'
sS'Start'
p1247
S'6'
sS'Won'
p1248
S'1'
sS'Draw'
p1249
S'1'
sS'%'
S'25.00'
p1250
sS'Mat'
p1251
S'6'
sS'Conv'
p1252
S'0'
sS'Tries'
p1253
S'0'
sS'Pts'
p1254
S'6'
sa(dp1255
S'Pens'
p1256
S'0'
sS'Sub'
p1257
S'0'
sS'Lost'
p1258
S'1'
sS'Drop'
p1259
S'0'
sS'Start'
p1260
S'1'
sS'Won'
p1261
S'0'
sS'Draw'
p1262
S'0'
sS'%'
S'0.00'
p1263
sS'Mat'
p1264
S'1'
sS'Conv'
p1265
S'0'
sS'Tries'
p1266
S'0'
sS'Pts'
p1267
S'0'
sa(dp1268
S'Pens'
p1269
S'0'
sS'Sub'
p1270
S'0'
sS'Lost'
p1271
S'0'
sS'Drop'
p1272
S'0'
sS'Start'
p1273
S'1'
sS'Won'
p1274
S'1'
sS'Draw'
p1275
S'0'
sS'%'
S'100.00'
p1276
sS'Mat'
p1277
S'1'
sS'Conv'
p1278
S'0'
sS'Tries'
p1279
S'0'
sS'Pts'
p1280
S'0'
sa(dp1281
S'Pens'
p1282
S'0'
sS'Sub'
p1283
S'0'
sS'Lost'
p1284
S'1'
sS'Drop'
p1285
S'0'
sS'Start'
p1286
S'2'
sS'Won'
p1287
S'1'
sS'Draw'
p1288
S'0'
sS'%'
S'50.00'
p1289
sS'Mat'
p1290
S'2'
sS'Conv'
p1291
S'0'
sS'Tries'
p1292
S'0'
sS'Pts'
p1293
S'0'
sa(dp1294
S'Pens'
p1295
S'0'
sS'Sub'
p1296
S'0'
sS'Lost'
p1297
S'1'
sS'Drop'
p1298
S'0'
sS'Start'
p1299
S'2'
sS'Won'
p1300
S'1'
sS'Draw'
p1301
S'0'
sS'%'
S'50.00'
p1302
sS'Mat'
p1303
S'2'
sS'Conv'
p1304
S'0'
sS'Tries'
p1305
S'0'
sS'Pts'
p1306
S'0'
sa(dp1307
S'Pens'
p1308
S'0'
sS'Sub'
p1309
S'0'
sS'Lost'
p1310
S'0'
sS'Drop'
p1311
S'0'
sS'Start'
p1312
S'1'
sS'Won'
p1313
S'1'
sS'Draw'
p1314
S'0'
sS'%'
S'100.00'
p1315
sS'Mat'
p1316
S'1'
sS'Conv'
p1317
S'0'
sS'Tries'
p1318
S'0'
sS'Pts'
p1319
S'0'
sa(dp1320
S'Pens'
p1321
S'0'
sS'Sub'
p1322
S'0'
sS'Lost'
p1323
S'4'
sS'Drop'
p1324
S'0'
sS'Start'
p1325
S'5'
sS'Won'
p1326
S'1'
sS'Draw'
p1327
S'0'
sS'%'
S'20.00'
p1328
sS'Mat'
p1329
S'5'
sS'Conv'
p1330
S'0'
sS'Tries'
p1331
S'0'
sS'Pts'
p1332
S'0'
sa(dp1333
S'Pens'
p1334
S'0'
sS'Sub'
p1335
S'0'
sS'Lost'
p1336
S'8'
sS'Drop'
p1337
S'0'
sS'Start'
p1338
S'11'
p1339
sS'Won'
p1340
S'2'
sS'Draw'
p1341
S'1'
sS'%'
S'22.72'
p1342
sS'Mat'
p1343
S'11'
p1344
sS'Conv'
p1345
S'0'
sS'Tries'
p1346
S'0'
sS'Pts'
p1347
S'0'
sa(dp1348
S'Pens'
p1349
S'0'
sS'Sub'
p1350
S'0'
sS'Lost'
p1351
S'4'
sS'Drop'
p1352
S'0'
sS'Start'
p1353
S'4'
sS'Won'
p1354
S'0'
sS'Draw'
p1355
S'0'
sS'%'
S'0.00'
p1356
sS'Mat'
p1357
S'4'
sS'Conv'
p1358
S'0'
sS'Tries'
p1359
S'0'
sS'Pts'
p1360
S'0'
sa(dp1361
S'Pens'
p1362
S'0'
sS'Sub'
p1363
S'0'
sS'Lost'
p1364
S'2'
sS'Drop'
p1365
S'0'
sS'Start'
p1366
S'2'
sS'Won'
p1367
S'0'
sS'Draw'
p1368
S'0'
sS'%'
S'0.00'
p1369
sS'Mat'
p1370
S'2'
sS'Conv'
p1371
S'0'
sS'Tries'
p1372
S'0'
sS'Pts'
p1373
S'0'
sa(dp1374
S'Pens'
p1375
S'6'
sS'Sub'
p1376
S'0'
sS'Lost'
p1377
S'6'
sS'Drop'
p1378
S'1'
sS'Start'
p1379
S'6'
sS'Won'
p1380
S'0'
sS'Draw'
p1381
S'0'
sS'%'
S'0.00'
p1382
sS'Mat'
p1383
S'6'
sS'Conv'
p1384
S'0'
sS'Tries'
p1385
S'0'
sS'Pts'
p1386
S'21'
p1387
sa(dp1388
S'Pens'
p1389
S'0'
sS'Sub'
p1390
S'1'
sS'Lost'
p1391
S'3'
sS'Drop'
p1392
S'0'
sS'Start'
p1393
S'2'
sS'Won'
p1394
S'0'
sS'Draw'
p1395
S'0'
sS'%'
S'0.00'
p1396
sS'Mat'
p1397
S'3'
sS'Conv'
p1398
S'0'
sS'Tries'
p1399
S'0'
sS'Pts'
p1400
S'0'
sa(dp1401
S'Pens'
p1402
S'0'
sS'Sub'
p1403
S'0'
sS'Lost'
p1404
S'2'
sS'Drop'
p1405
S'0'
sS'Start'
p1406
S'2'
sS'Won'
p1407
S'0'
sS'Draw'
p1408
S'0'
sS'%'
S'0.00'
p1409
sS'Mat'
p1410
S'2'
sS'Conv'
p1411
S'0'
sS'Tries'
p1412
S'0'
sS'Pts'
p1413
S'0'
sa(dp1414
S'Pens'
p1415
S'0'
sS'Sub'
p1416
S'0'
sS'Lost'
p1417
S'2'
sS'Drop'
p1418
S'0'
sS'Start'
p1419
S'2'
sS'Won'
p1420
S'0'
sS'Draw'
p1421
S'0'
sS'%'
S'0.00'
p1422
sS'Mat'
p1423
S'2'
sS'Conv'
p1424
S'0'
sS'Tries'
p1425
S'0'
sS'Pts'
p1426
S'0'
sa(dp1427
S'Pens'
p1428
S'0'
sS'Sub'
p1429
S'1'
sS'Lost'
p1430
S'5'
sS'Drop'
p1431
S'0'
sS'Start'
p1432
S'5'
sS'Won'
p1433
S'0'
sS'Draw'
p1434
S'1'
sS'%'
S'8.33'
p1435
sS'Mat'
p1436
S'6'
sS'Conv'
p1437
S'0'
sS'Tries'
p1438
S'0'
sS'Pts'
p1439
S'0'
sa(dp1440
S'Pens'
p1441
S'0'
sS'Sub'
p1442
S'0'
sS'Lost'
p1443
S'1'
sS'Drop'
p1444
S'0'
sS'Start'
p1445
S'1'
sS'Won'
p1446
S'0'
sS'Draw'
p1447
S'0'
sS'%'
S'0.00'
p1448
sS'Mat'
p1449
S'1'
sS'Conv'
p1450
S'0'
sS'Tries'
p1451
S'0'
sS'Pts'
p1452
S'0'
sa(dp1453
S'Pens'
p1454
S'0'
sS'Sub'
p1455
S'0'
sS'Lost'
p1456
S'6'
sS'Drop'
p1457
S'0'
sS'Start'
p1458
S'7'
sS'Won'
p1459
S'0'
sS'Draw'
p1460
S'1'
sS'%'
S'7.14'
p1461
sS'Mat'
p1462
S'7'
sS'Conv'
p1463
S'0'
sS'Tries'
p1464
S'0'
sS'Pts'
p1465
S'0'
sa(dp1466
S'Pens'
p1467
S'0'
sS'Sub'
p1468
S'0'
sS'Lost'
p1469
S'1'
sS'Drop'
p1470
S'0'
sS'Start'
p1471
S'1'
sS'Won'
p1472
S'0'
sS'Draw'
p1473
S'0'
sS'%'
S'0.00'
p1474
sS'Mat'
p1475
S'1'
sS'Conv'
p1476
S'0'
sS'Tries'
p1477
S'0'
sS'Pts'
p1478
S'0'
sa(dp1479
S'Pens'
p1480
S'0'
sS'Sub'
p1481
S'0'
sS'Lost'
p1482
S'9'
sS'Drop'
p1483
S'0'
sS'Start'
p1484
S'14'
p1485
sS'Won'
p1486
S'3'
sS'Draw'
p1487
S'2'
sS'%'
S'28.57'
p1488
sS'Mat'
p1489
S'14'
p1490
sS'Conv'
p1491
S'0'
sS'Tries'
p1492
S'4'
sS'Pts'
p1493
S'16'
p1494
sa(dp1495
S'Pens'
p1496
S'0'
sS'Sub'
p1497
S'0'
sS'Lost'
p1498
S'3'
sS'Drop'
p1499
S'0'
sS'Start'
p1500
S'3'
sS'Won'
p1501
S'0'
sS'Draw'
p1502
S'0'
sS'%'
S'0.00'
p1503
sS'Mat'
p1504
S'3'
sS'Conv'
p1505
S'0'
sS'Tries'
p1506
S'0'
sS'Pts'
p1507
S'0'
sa(dp1508
S'Pens'
p1509
S'0'
sS'Sub'
p1510
S'0'
sS'Lost'
p1511
S'1'
sS'Drop'
p1512
S'0'
sS'Start'
p1513
S'1'
sS'Won'
p1514
S'0'
sS'Draw'
p1515
S'0'
sS'%'
S'0.00'
p1516
sS'Mat'
p1517
S'1'
sS'Conv'
p1518
S'0'
sS'Tries'
p1519
S'0'
sS'Pts'
p1520
S'0'
sa(dp1521
S'Pens'
p1522
S'1'
sS'Sub'
p1523
S'0'
sS'Lost'
p1524
S'4'
sS'Drop'
p1525
S'0'
sS'Start'
p1526
S'4'
sS'Won'
p1527
S'0'
sS'Draw'
p1528
S'0'
sS'%'
S'0.00'
p1529
sS'Mat'
p1530
S'4'
sS'Conv'
p1531
S'0'
sS'Tries'
p1532
S'0'
sS'Pts'
p1533
S'3'
sa(dp1534
S'Pens'
p1535
S'0'
sS'Sub'
p1536
S'0'
sS'Lost'
p1537
S'4'
sS'Drop'
p1538
S'0'
sS'Start'
p1539
S'4'
sS'Won'
p1540
S'0'
sS'Draw'
p1541
S'0'
sS'%'
S'0.00'
p1542
sS'Mat'
p1543
S'4'
sS'Conv'
p1544
S'0'
sS'Tries'
p1545
S'1'
sS'Pts'
p1546
S'4'
sa(dp1547
S'Pens'
p1548
S'0'
sS'Sub'
p1549
S'0'
sS'Lost'
p1550
S'9'
sS'Drop'
p1551
S'0'
sS'Start'
p1552
S'14'
p1553
sS'Won'
p1554
S'3'
sS'Draw'
p1555
S'2'
sS'%'
S'28.57'
p1556
sS'Mat'
p1557
S'14'
p1558
sS'Conv'
p1559
S'0'
sS'Tries'
p1560
S'0'
sS'Pts'
p1561
S'0'
sa(dp1562
S'Pens'
p1563
S'0'
sS'Sub'
p1564
S'0'
sS'Lost'
p1565
S'1'
sS'Drop'
p1566
S'0'
sS'Start'
p1567
S'1'
sS'Won'
p1568
S'0'
sS'Draw'
p1569
S'0'
sS'%'
S'0.00'
p1570
sS'Mat'
p1571
S'1'
sS'Conv'
p1572
S'0'
sS'Tries'
p1573
S'0'
sS'Pts'
p1574
S'0'
sa(dp1575
S'Pens'
p1576
S'0'
sS'Sub'
p1577
S'0'
sS'Lost'
p1578
S'3'
sS'Drop'
p1579
S'0'
sS'Start'
p1580
S'3'
sS'Won'
p1581
S'0'
sS'Draw'
p1582
S'0'
sS'%'
S'0.00'
p1583
sS'Mat'
p1584
S'3'
sS'Conv'
p1585
S'0'
sS'Tries'
p1586
S'0'
sS'Pts'
p1587
S'0'
sa(dp1588
S'Pens'
p1589
S'0'
sS'Sub'
p1590
S'1'
sS'Lost'
p1591
S'5'
sS'Drop'
p1592
S'0'
sS'Start'
p1593
S'8'
sS'Won'
p1594
S'2'
sS'Draw'
p1595
S'2'
sS'%'
S'33.33'
p1596
sS'Mat'
p1597
S'9'
sS'Conv'
p1598
S'0'
sS'Tries'
p1599
S'0'
sS'Pts'
p1600
S'0'
sa(dp1601
S'Pens'
p1602
S'0'
sS'Sub'
p1603
S'0'
sS'Lost'
p1604
S'2'
sS'Drop'
p1605
S'0'
sS'Start'
p1606
S'2'
sS'Won'
p1607
S'0'
sS'Draw'
p1608
S'0'
sS'%'
S'0.00'
p1609
sS'Mat'
p1610
S'2'
sS'Conv'
p1611
S'0'
sS'Tries'
p1612
S'0'
sS'Pts'
p1613
S'0'
sa(dp1614
S'Pens'
p1615
S'0'
sS'Sub'
p1616
S'0'
sS'Lost'
p1617
S'8'
sS'Drop'
p1618
S'0'
sS'Start'
p1619
S'12'
p1620
sS'Won'
p1621
S'3'
sS'Draw'
p1622
S'1'
sS'%'
S'29.16'
p1623
sS'Mat'
p1624
S'12'
p1625
sS'Conv'
p1626
S'0'
sS'Tries'
p1627
S'2'
sS'Pts'
p1628
S'8'
sa(dp1629
S'Pens'
p1630
S'0'
sS'Sub'
p1631
S'1'
sS'Lost'
p1632
S'11'
p1633
sS'Drop'
p1634
S'0'
sS'Start'
p1635
S'17'
p1636
sS'Won'
p1637
S'6'
sS'Draw'
p1638
S'1'
sS'%'
S'36.11'
p1639
sS'Mat'
p1640
S'18'
p1641
sS'Conv'
p1642
S'0'
sS'Tries'
p1643
S'3'
sS'Pts'
p1644
S'12'
p1645
sa(dp1646
S'Pens'
p1647
S'0'
sS'Sub'
p1648
S'1'
sS'Lost'
p1649
S'6'
sS'Drop'
p1650
S'0'
sS'Start'
p1651
S'5'
sS'Won'
p1652
S'0'
sS'Draw'
p1653
S'0'
sS'%'
S'0.00'
p1654
sS'Mat'
p1655
S'6'
sS'Conv'
p1656
S'0'
sS'Tries'
p1657
S'0'
sS'Pts'
p1658
S'0'
sa(dp1659
S'Pens'
p1660
S'0'
sS'Sub'
p1661
S'0'
sS'Lost'
p1662
S'1'
sS'Drop'
p1663
S'0'
sS'Start'
p1664
S'1'
sS'Won'
p1665
S'0'
sS'Draw'
p1666
S'0'
sS'%'
S'0.00'
p1667
sS'Mat'
p1668
S'1'
sS'Conv'
p1669
S'0'
sS'Tries'
p1670
S'0'
sS'Pts'
p1671
S'0'
sa(dp1672
S'Pens'
p1673
S'0'
sS'Sub'
p1674
S'0'
sS'Lost'
p1675
S'3'
sS'Drop'
p1676
S'0'
sS'Start'
p1677
S'5'
sS'Won'
p1678
S'1'
sS'Draw'
p1679
S'1'
sS'%'
S'30.00'
p1680
sS'Mat'
p1681
S'5'
sS'Conv'
p1682
S'0'
sS'Tries'
p1683
S'0'
sS'Pts'
p1684
S'0'
sa(dp1685
S'Pens'
p1686
S'0'
sS'Sub'
p1687
S'0'
sS'Lost'
p1688
S'1'
sS'Drop'
p1689
S'0'
sS'Start'
p1690
S'2'
sS'Won'
p1691
S'0'
sS'Draw'
p1692
S'1'
sS'%'
S'25.00'
p1693
sS'Mat'
p1694
S'2'
sS'Conv'
p1695
S'0'
sS'Tries'
p1696
S'0'
sS'Pts'
p1697
S'0'
sa(dp1698
S'Pens'
p1699
S'1'
sS'Sub'
p1700
S'1'
sS'Lost'
p1701
S'3'
sS'Drop'
p1702
S'0'
sS'Start'
p1703
S'4'
sS'Won'
p1704
S'1'
sS'Draw'
p1705
S'1'
sS'%'
S'30.00'
p1706
sS'Mat'
p1707
S'5'
sS'Conv'
p1708
S'0'
sS'Tries'
p1709
S'0'
sS'Pts'
p1710
S'3'
sa(dp1711
S'Pens'
p1712
S'0'
sS'Sub'
p1713
S'0'
sS'Lost'
p1714
S'1'
sS'Drop'
p1715
S'0'
sS'Start'
p1716
S'2'
sS'Won'
p1717
S'0'
sS'Draw'
p1718
S'1'
sS'%'
S'25.00'
p1719
sS'Mat'
p1720
S'2'
sS'Conv'
p1721
S'0'
sS'Tries'
p1722
S'0'
sS'Pts'
p1723
S'0'
sa(dp1724
S'Pens'
p1725
S'0'
sS'Sub'
p1726
S'0'
sS'Lost'
p1727
S'1'
sS'Drop'
p1728
S'0'
sS'Start'
p1729
S'1'
sS'Won'
p1730
S'0'
sS'Draw'
p1731
S'0'
sS'%'
S'0.00'
p1732
sS'Mat'
p1733
S'1'
sS'Conv'
p1734
S'0'
sS'Tries'
p1735
S'0'
sS'Pts'
p1736
S'0'
sa(dp1737
S'Pens'
p1738
S'0'
sS'Sub'
p1739
S'0'
sS'Lost'
p1740
S'3'
sS'Drop'
p1741
S'0'
sS'Start'
p1742
S'5'
sS'Won'
p1743
S'2'
sS'Draw'
p1744
S'0'
sS'%'
S'40.00'
p1745
sS'Mat'
p1746
S'5'
sS'Conv'
p1747
S'0'
sS'Tries'
p1748
S'0'
sS'Pts'
p1749
S'0'
sa(dp1750
S'Pens'
p1751
S'0'
sS'Sub'
p1752
S'1'
sS'Lost'
p1753
S'13'
p1754
sS'Drop'
p1755
S'0'
sS'Start'
p1756
S'19'
p1757
sS'Won'
p1758
S'6'
sS'Draw'
p1759
S'1'
sS'%'
S'32.50'
p1760
sS'Mat'
p1761
S'20'
p1762
sS'Conv'
p1763
S'0'
sS'Tries'
p1764
S'0'
sS'Pts'
p1765
S'0'
sa(dp1766
S'Pens'
p1767
S'0'
sS'Sub'
p1768
S'1'
sS'Lost'
p1769
S'3'
sS'Drop'
p1770
S'0'
sS'Start'
p1771
S'2'
sS'Won'
p1772
S'0'
sS'Draw'
p1773
S'0'
sS'%'
S'0.00'
p1774
sS'Mat'
p1775
S'3'
sS'Conv'
p1776
S'0'
sS'Tries'
p1777
S'1'
sS'Pts'
p1778
S'4'
sa(dp1779
S'Pens'
p1780
S'9'
sS'Sub'
p1781
S'2'
sS'Lost'
p1782
S'17'
p1783
sS'Drop'
p1784
S'0'
sS'Start'
p1785
S'23'
p1786
sS'Won'
p1787
S'7'
sS'Draw'
p1788
S'1'
sS'%'
S'30.00'
p1789
sS'Mat'
p1790
S'25'
p1791
sS'Conv'
p1792
S'9'
sS'Tries'
p1793
S'5'
sS'Pts'
p1794
S'65'
p1795
sa(dp1796
S'Pens'
p1797
S'0'
sS'Sub'
p1798
S'0'
sS'Lost'
p1799
S'1'
sS'Drop'
p1800
S'0'
sS'Start'
p1801
S'1'
sS'Won'
p1802
S'0'
sS'Draw'
p1803
S'0'
sS'%'
S'0.00'
p1804
sS'Mat'
p1805
S'1'
sS'Conv'
p1806
S'0'
sS'Tries'
p1807
S'0'
sS'Pts'
p1808
S'0'
sa(dp1809
S'Pens'
p1810
S'0'
sS'Sub'
p1811
S'0'
sS'Lost'
p1812
S'1'
sS'Drop'
p1813
S'0'
sS'Start'
p1814
S'2'
sS'Won'
p1815
S'1'
sS'Draw'
p1816
S'0'
sS'%'
S'50.00'
p1817
sS'Mat'
p1818
S'2'
sS'Conv'
p1819
S'0'
sS'Tries'
p1820
S'0'
sS'Pts'
p1821
S'0'
sa(dp1822
S'Pens'
p1823
S'0'
sS'Sub'
p1824
S'0'
sS'Lost'
p1825
S'4'
sS'Drop'
p1826
S'0'
sS'Start'
p1827
S'9'
sS'Won'
p1828
S'4'
sS'Draw'
p1829
S'1'
sS'%'
S'50.00'
p1830
sS'Mat'
p1831
S'9'
sS'Conv'
p1832
S'0'
sS'Tries'
p1833
S'2'
sS'Pts'
p1834
S'8'
sa(dp1835
S'Pens'
p1836
S'0'
sS'Sub'
p1837
S'1'
sS'Lost'
p1838
S'2'
sS'Drop'
p1839
S'0'
sS'Start'
p1840
S'1'
sS'Won'
p1841
S'0'
sS'Draw'
p1842
S'0'
sS'%'
S'0.00'
p1843
sS'Mat'
p1844
S'2'
sS'Conv'
p1845
S'0'
sS'Tries'
p1846
S'0'
sS'Pts'
p1847
S'0'
sa(dp1848
S'Pens'
p1849
S'0'
sS'Sub'
p1850
S'1'
sS'Lost'
p1851
S'3'
sS'Drop'
p1852
S'0'
sS'Start'
p1853
S'3'
sS'Won'
p1854
S'1'
sS'Draw'
p1855
S'0'
sS'%'
S'25.00'
p1856
sS'Mat'
p1857
S'4'
sS'Conv'
p1858
S'0'
sS'Tries'
p1859
S'0'
sS'Pts'
p1860
S'0'
sa(dp1861
S'Pens'
p1862
S'0'
sS'Sub'
p1863
S'1'
sS'Lost'
p1864
S'3'
sS'Drop'
p1865
S'0'
sS'Start'
p1866
S'5'
sS'Won'
p1867
S'3'
sS'Draw'
p1868
S'0'
sS'%'
S'50.00'
p1869
sS'Mat'
p1870
S'6'
sS'Conv'
p1871
S'0'
sS'Tries'
p1872
S'0'
sS'Pts'
p1873
S'0'
sa(dp1874
S'Pens'
p1875
S'0'
sS'Sub'
p1876
S'0'
sS'Lost'
p1877
S'1'
sS'Drop'
p1878
S'0'
sS'Start'
p1879
S'3'
sS'Won'
p1880
S'2'
sS'Draw'
p1881
S'0'
sS'%'
S'66.66'
p1882
sS'Mat'
p1883
S'3'
sS'Conv'
p1884
S'0'
sS'Tries'
p1885
S'0'
sS'Pts'
p1886
S'0'
sa(dp1887
S'Pens'
p1888
S'0'
sS'Sub'
p1889
S'0'
sS'Lost'
p1890
S'1'
sS'Drop'
p1891
S'0'
sS'Start'
p1892
S'2'
sS'Won'
p1893
S'1'
sS'Draw'
p1894
S'0'
sS'%'
S'50.00'
p1895
sS'Mat'
p1896
S'2'
sS'Conv'
p1897
S'0'
sS'Tries'
p1898
S'1'
sS'Pts'
p1899
S'4'
sa(dp1900
S'Pens'
p1901
S'0'
sS'Sub'
p1902
S'1'
sS'Lost'
p1903
S'1'
sS'Drop'
p1904
S'0'
sS'Start'
p1905
S'0'
sS'Won'
p1906
S'0'
sS'Draw'
p1907
S'0'
sS'%'
S'0.00'
p1908
sS'Mat'
p1909
S'1'
sS'Conv'
p1910
S'0'
sS'Tries'
p1911
S'0'
sS'Pts'
p1912
S'0'
sa(dp1913
S'Pens'
p1914
S'0'
sS'Sub'
p1915
S'0'
sS'Lost'
p1916
S'2'
sS'Drop'
p1917
S'0'
sS'Start'
p1918
S'3'
sS'Won'
p1919
S'1'
sS'Draw'
p1920
S'0'
sS'%'
S'33.33'
p1921
sS'Mat'
p1922
S'3'
sS'Conv'
p1923
S'0'
sS'Tries'
p1924
S'1'
sS'Pts'
p1925
S'4'
sa(dp1926
S'Pens'
p1927
S'0'
sS'Sub'
p1928
S'0'
sS'Lost'
p1929
S'2'
sS'Drop'
p1930
S'0'
sS'Start'
p1931
S'7'
sS'Won'
p1932
S'4'
sS'Draw'
p1933
S'1'
sS'%'
S'64.28'
p1934
sS'Mat'
p1935
S'7'
sS'Conv'
p1936
S'0'
sS'Tries'
p1937
S'0'
sS'Pts'
p1938
S'0'
sa(dp1939
S'Pens'
p1940
S'0'
sS'Sub'
p1941
S'1'
sS'Lost'
p1942
S'4'
sS'Drop'
p1943
S'0'
sS'Start'
p1944
S'6'
sS'Won'
p1945
S'3'
sS'Draw'
p1946
S'0'
sS'%'
S'42.85'
p1947
sS'Mat'
p1948
S'7'
sS'Conv'
p1949
S'0'
sS'Tries'
p1950
S'0'
sS'Pts'
p1951
S'0'
sa(dp1952
S'Pens'
p1953
S'0'
sS'Sub'
p1954
S'0'
sS'Lost'
p1955
S'1'
sS'Drop'
p1956
S'0'
sS'Start'
p1957
S'3'
sS'Won'
p1958
S'1'
sS'Draw'
p1959
S'1'
sS'%'
S'50.00'
p1960
sS'Mat'
p1961
S'3'
sS'Conv'
p1962
S'0'
sS'Tries'
p1963
S'0'
sS'Pts'
p1964
S'0'
sa(dp1965
S'Pens'
p1966
S'0'
sS'Sub'
p1967
S'0'
sS'Lost'
p1968
S'1'
sS'Drop'
p1969
S'0'
sS'Start'
p1970
S'3'
sS'Won'
p1971
S'1'
sS'Draw'
p1972
S'1'
sS'%'
S'50.00'
p1973
sS'Mat'
p1974
S'3'
sS'Conv'
p1975
S'0'
sS'Tries'
p1976
S'1'
sS'Pts'
p1977
S'4'
sa(dp1978
S'Pens'
p1979
S'0'
sS'Sub'
p1980
S'0'
sS'Lost'
p1981
S'18'
p1982
sS'Drop'
p1983
S'0'
sS'Start'
p1984
S'28'
p1985
sS'Won'
p1986
S'9'
sS'Draw'
p1987
S'1'
sS'%'
S'33.92'
p1988
sS'Mat'
p1989
S'28'
p1990
sS'Conv'
p1991
S'0'
sS'Tries'
p1992
S'4'
sS'Pts'
p1993
S'16'
p1994
sa(dp1995
S'Pens'
p1996
S'6'
sS'Sub'
p1997
S'0'
sS'Lost'
p1998
S'2'
sS'Drop'
p1999
S'0'
sS'Start'
p2000
S'3'
sS'Won'
p2001
S'1'
sS'Draw'
p2002
S'0'
sS'%'
S'33.33'
p2003
sS'Mat'
p2004
S'3'
sS'Conv'
p2005
S'2'
sS'Tries'
p2006
S'0'
sS'Pts'
p2007
S'22'
p2008
sa(dp2009
S'Pens'
p2010
S'0'
sS'Sub'
p2011
S'0'
sS'Lost'
p2012
S'5'
sS'Drop'
p2013
S'0'
sS'Start'
p2014
S'6'
sS'Won'
p2015
S'1'
sS'Draw'
p2016
S'0'
sS'%'
S'16.66'
p2017
sS'Mat'
p2018
S'6'
sS'Conv'
p2019
S'0'
sS'Tries'
p2020
S'2'
sS'Pts'
p2021
S'8'
sa(dp2022
S'Pens'
p2023
S'0'
sS'Sub'
p2024
S'0'
sS'Lost'
p2025
S'25'
p2026
sS'Drop'
p2027
S'0'
sS'Start'
p2028
S'36'
p2029
sS'Won'
p2030
S'11'
p2031
sS'Draw'
p2032
S'0'
sS'%'
S'30.55'
p2033
sS'Mat'
p2034
S'36'
p2035
sS'Conv'
p2036
S'0'
sS'Tries'
p2037
S'2'
sS'Pts'
p2038
S'8'
sa(dp2039
S'Pens'
p2040
S'0'
sS'Sub'
p2041
S'0'
sS'Lost'
p2042
S'1'
sS'Drop'
p2043
S'0'
sS'Start'
p2044
S'1'
sS'Won'
p2045
S'0'
sS'Draw'
p2046
S'0'
sS'%'
S'0.00'
p2047
sS'Mat'
p2048
S'1'
sS'Conv'
p2049
S'0'
sS'Tries'
p2050
S'0'
sS'Pts'
p2051
S'0'
sa(dp2052
S'Pens'
p2053
S'3'
sS'Sub'
p2054
S'0'
sS'Lost'
p2055
S'2'
sS'Drop'
p2056
S'0'
sS'Start'
p2057
S'5'
sS'Won'
p2058
S'2'
sS'Draw'
p2059
S'1'
sS'%'
S'50.00'
p2060
sS'Mat'
p2061
S'5'
sS'Conv'
p2062
S'0'
sS'Tries'
p2063
S'1'
sS'Pts'
p2064
S'13'
p2065
sa(dp2066
S'Pens'
p2067
S'0'
sS'Sub'
p2068
S'0'
sS'Lost'
p2069
S'1'
sS'Drop'
p2070
S'0'
sS'Start'
p2071
S'2'
sS'Won'
p2072
S'0'
sS'Draw'
p2073
S'1'
sS'%'
S'25.00'
p2074
sS'Mat'
p2075
S'2'
sS'Conv'
p2076
S'0'
sS'Tries'
p2077
S'0'
sS'Pts'
p2078
S'0'
sa(dp2079
S'Pens'
p2080
S'0'
sS'Sub'
p2081
S'3'
sS'Lost'
p2082
S'5'
sS'Drop'
p2083
S'0'
sS'Start'
p2084
S'5'
sS'Won'
p2085
S'2'
sS'Draw'
p2086
S'1'
sS'%'
S'31.25'
p2087
sS'Mat'
p2088
S'8'
sS'Conv'
p2089
S'0'
sS'Tries'
p2090
S'0'
sS'Pts'
p2091
S'0'
sa(dp2092
S'Pens'
p2093
S'0'
sS'Sub'
p2094
S'0'
sS'Lost'
p2095
S'14'
p2096
sS'Drop'
p2097
S'0'
sS'Start'
p2098
S'22'
p2099
sS'Won'
p2100
S'7'
sS'Draw'
p2101
S'1'
sS'%'
S'34.09'
p2102
sS'Mat'
p2103
S'22'
p2104
sS'Conv'
p2105
S'0'
sS'Tries'
p2106
S'0'
sS'Pts'
p2107
S'0'
sa(dp2108
S'Pens'
p2109
S'1'
sS'Sub'
p2110
S'0'
sS'Lost'
p2111
S'3'
sS'Drop'
p2112
S'2'
sS'Start'
p2113
S'3'
sS'Won'
p2114
S'0'
sS'Draw'
p2115
S'0'
sS'%'
S'0.00'
p2116
sS'Mat'
p2117
S'3'
sS'Conv'
p2118
S'0'
sS'Tries'
p2119
S'0'
sS'Pts'
p2120
S'9'
sa(dp2121
S'Pens'
p2122
S'0'
sS'Sub'
p2123
S'0'
sS'Lost'
p2124
S'1'
sS'Drop'
p2125
S'0'
sS'Start'
p2126
S'1'
sS'Won'
p2127
S'0'
sS'Draw'
p2128
S'0'
sS'%'
S'0.00'
p2129
sS'Mat'
p2130
S'1'
sS'Conv'
p2131
S'0'
sS'Tries'
p2132
S'0'
sS'Pts'
p2133
S'0'
sa(dp2134
S'Pens'
p2135
S'0'
sS'Sub'
p2136
S'0'
sS'Lost'
p2137
S'3'
sS'Drop'
p2138
S'0'
sS'Start'
p2139
S'3'
sS'Won'
p2140
S'0'
sS'Draw'
p2141
S'0'
sS'%'
S'0.00'
p2142
sS'Mat'
p2143
S'3'
sS'Conv'
p2144
S'0'
sS'Tries'
p2145
S'0'
sS'Pts'
p2146
S'0'
sa(dp2147
S'Pens'
p2148
S'0'
sS'Sub'
p2149
S'2'
sS'Lost'
p2150
S'5'
sS'Drop'
p2151
S'0'
sS'Start'
p2152
S'4'
sS'Won'
p2153
S'1'
sS'Draw'
p2154
S'0'
sS'%'
S'16.66'
p2155
sS'Mat'
p2156
S'6'
sS'Conv'
p2157
S'0'
sS'Tries'
p2158
S'0'
sS'Pts'
p2159
S'0'
sa(dp2160
S'Pens'
p2161
S'1'
sS'Sub'
p2162
S'0'
sS'Lost'
p2163
S'0'
sS'Drop'
p2164
S'0'
sS'Start'
p2165
S'1'
sS'Won'
p2166
S'1'
sS'Draw'
p2167
S'0'
sS'%'
S'100.00'
p2168
sS'Mat'
p2169
S'1'
sS'Conv'
p2170
S'4'
sS'Tries'
p2171
S'0'
sS'Pts'
p2172
S'11'
p2173
sa(dp2174
S'Pens'
p2175
S'0'
sS'Sub'
p2176
S'0'
sS'Lost'
p2177
S'18'
p2178
sS'Drop'
p2179
S'0'
sS'Start'
p2180
S'25'
p2181
sS'Won'
p2182
S'7'
sS'Draw'
p2183
S'0'
sS'%'
S'28.00'
p2184
sS'Mat'
p2185
S'25'
p2186
sS'Conv'
p2187
S'0'
sS'Tries'
p2188
S'3'
sS'Pts'
p2189
S'12'
p2190
sa(dp2191
S'Pens'
p2192
S'0'
sS'Sub'
p2193
S'1'
sS'Lost'
p2194
S'8'
sS'Drop'
p2195
S'0'
sS'Start'
p2196
S'11'
p2197
sS'Won'
p2198
S'4'
sS'Draw'
p2199
S'0'
sS'%'
S'33.33'
p2200
sS'Mat'
p2201
S'12'
p2202
sS'Conv'
p2203
S'0'
sS'Tries'
p2204
S'2'
sS'Pts'
p2205
S'8'
sa(dp2206
S'Pens'
p2207
S'0'
sS'Sub'
p2208
S'2'
sS'Lost'
p2209
S'13'
p2210
sS'Drop'
p2211
S'0'
sS'Start'
p2212
S'14'
p2213
sS'Won'
p2214
S'3'
sS'Draw'
p2215
S'0'
sS'%'
S'18.75'
p2216
sS'Mat'
p2217
S'16'
p2218
sS'Conv'
p2219
S'0'
sS'Tries'
p2220
S'1'
sS'Pts'
p2221
S'4'
sa(dp2222
S'Pens'
p2223
S'0'
sS'Sub'
p2224
S'0'
sS'Lost'
p2225
S'10'
p2226
sS'Drop'
p2227
S'0'
sS'Start'
p2228
S'14'
p2229
sS'Won'
p2230
S'4'
sS'Draw'
p2231
S'0'
sS'%'
S'28.57'
p2232
sS'Mat'
p2233
S'14'
p2234
sS'Conv'
p2235
S'0'
sS'Tries'
p2236
S'1'
sS'Pts'
p2237
S'4'
sa(dp2238
S'Pens'
p2239
S'0'
sS'Sub'
p2240
S'0'
sS'Lost'
p2241
S'2'
sS'Drop'
p2242
S'0'
sS'Start'
p2243
S'2'
sS'Won'
p2244
S'0'
sS'Draw'
p2245
S'0'
sS'%'
S'0.00'
p2246
sS'Mat'
p2247
S'2'
sS'Conv'
p2248
S'0'
sS'Tries'
p2249
S'0'
sS'Pts'
p2250
S'0'
sa(dp2251
S'Pens'
p2252
S'0'
sS'Sub'
p2253
S'0'
sS'Lost'
p2254
S'1'
sS'Drop'
p2255
S'0'
sS'Start'
p2256
S'1'
sS'Won'
p2257
S'0'
sS'Draw'
p2258
S'0'
sS'%'
S'0.00'
p2259
sS'Mat'
p2260
S'1'
sS'Conv'
p2261
S'0'
sS'Tries'
p2262
S'0'
sS'Pts'
p2263
S'0'
sa(dp2264
S'Pens'
p2265
S'0'
sS'Sub'
p2266
S'0'
sS'Lost'
p2267
S'2'
sS'Drop'
p2268
S'0'
sS'Start'
p2269
S'2'
sS'Won'
p2270
S'0'
sS'Draw'
p2271
S'0'
sS'%'
S'0.00'
p2272
sS'Mat'
p2273
S'2'
sS'Conv'
p2274
S'0'
sS'Tries'
p2275
S'0'
sS'Pts'
p2276
S'0'
sa(dp2277
S'Pens'
p2278
S'35'
p2279
sS'Sub'
p2280
S'3'
sS'Lost'
p2281
S'26'
p2282
sS'Drop'
p2283
S'0'
sS'Start'
p2284
S'34'
p2285
sS'Won'
p2286
S'11'
p2287
sS'Draw'
p2288
S'0'
sS'%'
S'29.72'
p2289
sS'Mat'
p2290
S'37'
p2291
sS'Conv'
p2292
S'13'
p2293
sS'Tries'
p2294
S'3'
sS'Pts'
p2295
S'143'
p2296
sa(dp2297
S'Pens'
p2298
S'0'
sS'Sub'
p2299
S'0'
sS'Lost'
p2300
S'2'
sS'Drop'
p2301
S'0'
sS'Start'
p2302
S'2'
sS'Won'
p2303
S'0'
sS'Draw'
p2304
S'0'
sS'%'
S'0.00'
p2305
sS'Mat'
p2306
S'2'
sS'Conv'
p2307
S'0'
sS'Tries'
p2308
S'0'
sS'Pts'
p2309
S'0'
sa(dp2310
S'Pens'
p2311
S'0'
sS'Sub'
p2312
S'1'
sS'Lost'
p2313
S'1'
sS'Drop'
p2314
S'0'
sS'Start'
p2315
S'0'
sS'Won'
p2316
S'0'
sS'Draw'
p2317
S'0'
sS'%'
S'0.00'
p2318
sS'Mat'
p2319
S'1'
sS'Conv'
p2320
S'0'
sS'Tries'
p2321
S'0'
sS'Pts'
p2322
S'0'
sa(dp2323
S'Pens'
p2324
S'0'
sS'Sub'
p2325
S'1'
sS'Lost'
p2326
S'5'
sS'Drop'
p2327
S'0'
sS'Start'
p2328
S'8'
sS'Won'
p2329
S'4'
sS'Draw'
p2330
S'0'
sS'%'
S'44.44'
p2331
sS'Mat'
p2332
S'9'
sS'Conv'
p2333
S'0'
sS'Tries'
p2334
S'0'
sS'Pts'
p2335
S'0'
sa(dp2336
S'Pens'
p2337
S'22'
p2338
sS'Sub'
p2339
S'1'
sS'Lost'
p2340
S'14'
p2341
sS'Drop'
p2342
S'0'
sS'Start'
p2343
S'19'
p2344
sS'Won'
p2345
S'6'
sS'Draw'
p2346
S'0'
sS'%'
S'30.00'
p2347
sS'Mat'
p2348
S'20'
p2349
sS'Conv'
p2350
S'24'
p2351
sS'Tries'
p2352
S'7'
sS'Pts'
p2353
S'144'
p2354
sa(dp2355
S'Pens'
p2356
S'0'
sS'Sub'
p2357
S'0'
sS'Lost'
p2358
S'0'
sS'Drop'
p2359
S'0'
sS'Start'
p2360
S'1'
sS'Won'
p2361
S'1'
sS'Draw'
p2362
S'0'
sS'%'
S'100.00'
p2363
sS'Mat'
p2364
S'1'
sS'Conv'
p2365
S'0'
sS'Tries'
p2366
S'0'
sS'Pts'
p2367
S'0'
sa(dp2368
S'Pens'
p2369
S'0'
sS'Sub'
p2370
S'0'
sS'Lost'
p2371
S'2'
sS'Drop'
p2372
S'0'
sS'Start'
p2373
S'4'
sS'Won'
p2374
S'2'
sS'Draw'
p2375
S'0'
sS'%'
S'50.00'
p2376
sS'Mat'
p2377
S'4'
sS'Conv'
p2378
S'0'
sS'Tries'
p2379
S'3'
sS'Pts'
p2380
S'12'
p2381
sa(dp2382
S'Pens'
p2383
S'0'
sS'Sub'
p2384
S'1'
sS'Lost'
p2385
S'9'
sS'Drop'
p2386
S'0'
sS'Start'
p2387
S'14'
p2388
sS'Won'
p2389
S'6'
sS'Draw'
p2390
S'0'
sS'%'
S'40.00'
p2391
sS'Mat'
p2392
S'15'
p2393
sS'Conv'
p2394
S'0'
sS'Tries'
p2395
S'3'
sS'Pts'
p2396
S'12'
p2397
sa(dp2398
S'Pens'
p2399
S'0'
sS'Sub'
p2400
S'1'
sS'Lost'
p2401
S'1'
sS'Drop'
p2402
S'0'
sS'Start'
p2403
S'0'
sS'Won'
p2404
S'0'
sS'Draw'
p2405
S'0'
sS'%'
S'0.00'
p2406
sS'Mat'
p2407
S'1'
sS'Conv'
p2408
S'0'
sS'Tries'
p2409
S'0'
sS'Pts'
p2410
S'0'
sa(dp2411
S'Pens'
p2412
S'0'
sS'Sub'
p2413
S'1'
sS'Lost'
p2414
S'11'
p2415
sS'Drop'
p2416
S'0'
sS'Start'
p2417
S'15'
p2418
sS'Won'
p2419
S'5'
sS'Draw'
p2420
S'0'
sS'%'
S'31.25'
p2421
sS'Mat'
p2422
S'16'
p2423
sS'Conv'
p2424
S'0'
sS'Tries'
p2425
S'1'
sS'Pts'
p2426
S'4'
sa(dp2427
S'Pens'
p2428
S'0'
sS'Sub'
p2429
S'0'
sS'Lost'
p2430
S'3'
sS'Drop'
p2431
S'0'
sS'Start'
p2432
S'3'
sS'Won'
p2433
S'0'
sS'Draw'
p2434
S'0'
sS'%'
S'0.00'
p2435
sS'Mat'
p2436
S'3'
sS'Conv'
p2437
S'0'
sS'Tries'
p2438
S'0'
sS'Pts'
p2439
S'0'
sa(dp2440
S'Pens'
p2441
S'0'
sS'Sub'
p2442
S'0'
sS'Lost'
p2443
S'3'
sS'Drop'
p2444
S'0'
sS'Start'
p2445
S'4'
sS'Won'
p2446
S'1'
sS'Draw'
p2447
S'0'
sS'%'
S'25.00'
p2448
sS'Mat'
p2449
S'4'
sS'Conv'
p2450
S'0'
sS'Tries'
p2451
S'2'
sS'Pts'
p2452
S'8'
sa(dp2453
S'Pens'
p2454
S'0'
sS'Sub'
p2455
S'0'
sS'Lost'
p2456
S'2'
sS'Drop'
p2457
S'0'
sS'Start'
p2458
S'2'
sS'Won'
p2459
S'0'
sS'Draw'
p2460
S'0'
sS'%'
S'0.00'
p2461
sS'Mat'
p2462
S'2'
sS'Conv'
p2463
S'0'
sS'Tries'
p2464
S'0'
sS'Pts'
p2465
S'0'
sa(dp2466
S'Pens'
p2467
S'0'
sS'Sub'
p2468
S'0'
sS'Lost'
p2469
S'26'
p2470
sS'Drop'
p2471
S'0'
sS'Start'
p2472
S'38'
p2473
sS'Won'
p2474
S'12'
p2475
sS'Draw'
p2476
S'0'
sS'%'
S'31.57'
p2477
sS'Mat'
p2478
S'38'
p2479
sS'Conv'
p2480
S'0'
sS'Tries'
p2481
S'0'
sS'Pts'
p2482
S'0'
sa(dp2483
S'Pens'
p2484
S'0'
sS'Sub'
p2485
S'0'
sS'Lost'
p2486
S'2'
sS'Drop'
p2487
S'0'
sS'Start'
p2488
S'3'
sS'Won'
p2489
S'1'
sS'Draw'
p2490
S'0'
sS'%'
S'33.33'
p2491
sS'Mat'
p2492
S'3'
sS'Conv'
p2493
S'0'
sS'Tries'
p2494
S'2'
sS'Pts'
p2495
S'8'
sa(dp2496
S'Pens'
p2497
S'0'
sS'Sub'
p2498
S'0'
sS'Lost'
p2499
S'7'
sS'Drop'
p2500
S'0'
sS'Start'
p2501
S'12'
p2502
sS'Won'
p2503
S'5'
sS'Draw'
p2504
S'0'
sS'%'
S'41.66'
p2505
sS'Mat'
p2506
S'12'
p2507
sS'Conv'
p2508
S'0'
sS'Tries'
p2509
S'4'
sS'Pts'
p2510
S'16'
p2511
sa(dp2512
S'Pens'
p2513
S'0'
sS'Sub'
p2514
S'0'
sS'Lost'
p2515
S'2'
sS'Drop'
p2516
S'0'
sS'Start'
p2517
S'4'
sS'Won'
p2518
S'2'
sS'Draw'
p2519
S'0'
sS'%'
S'50.00'
p2520
sS'Mat'
p2521
S'4'
sS'Conv'
p2522
S'0'
sS'Tries'
p2523
S'1'
sS'Pts'
p2524
S'4'
sa(dp2525
S'Pens'
p2526
S'0'
sS'Sub'
p2527
S'2'
sS'Lost'
p2528
S'1'
sS'Drop'
p2529
S'0'
sS'Start'
p2530
S'0'
sS'Won'
p2531
S'1'
sS'Draw'
p2532
S'0'
sS'%'
S'50.00'
p2533
sS'Mat'
p2534
S'2'
sS'Conv'
p2535
S'0'
sS'Tries'
p2536
S'0'
sS'Pts'
p2537
S'0'
sa(dp2538
S'Pens'
p2539
S'0'
sS'Sub'
p2540
S'0'
sS'Lost'
p2541
S'7'
sS'Drop'
p2542
S'0'
sS'Start'
p2543
S'9'
sS'Won'
p2544
S'2'
sS'Draw'
p2545
S'0'
sS'%'
S'22.22'
p2546
sS'Mat'
p2547
S'9'
sS'Conv'
p2548
S'0'
sS'Tries'
p2549
S'0'
sS'Pts'
p2550
S'0'
sa(dp2551
S'Pens'
p2552
S'0'
sS'Sub'
p2553
S'1'
sS'Lost'
p2554
S'3'
sS'Drop'
p2555
S'0'
sS'Start'
p2556
S'5'
sS'Won'
p2557
S'3'
sS'Draw'
p2558
S'0'
sS'%'
S'50.00'
p2559
sS'Mat'
p2560
S'6'
sS'Conv'
p2561
S'0'
sS'Tries'
p2562
S'0'
sS'Pts'
p2563
S'0'
sa(dp2564
S'Pens'
p2565
S'0'
sS'Sub'
p2566
S'1'
sS'Lost'
p2567
S'5'
sS'Drop'
p2568
S'0'
sS'Start'
p2569
S'8'
sS'Won'
p2570
S'4'
sS'Draw'
p2571
S'0'
sS'%'
S'44.44'
p2572
sS'Mat'
p2573
S'9'
sS'Conv'
p2574
S'0'
sS'Tries'
p2575
S'0'
sS'Pts'
p2576
S'0'
sa(dp2577
S'Pens'
p2578
S'5'
sS'Sub'
p2579
S'2'
sS'Lost'
p2580
S'6'
sS'Drop'
p2581
S'1'
sS'Start'
p2582
S'7'
sS'Won'
p2583
S'3'
sS'Draw'
p2584
S'0'
sS'%'
S'33.33'
p2585
sS'Mat'
p2586
S'9'
sS'Conv'
p2587
S'0'
sS'Tries'
p2588
S'0'
sS'Pts'
p2589
S'18'
p2590
sa(dp2591
S'Pens'
p2592
S'0'
sS'Sub'
p2593
S'0'
sS'Lost'
p2594
S'7'
sS'Drop'
p2595
S'0'
sS'Start'
p2596
S'9'
sS'Won'
p2597
S'2'
sS'Draw'
p2598
S'0'
sS'%'
S'22.22'
p2599
sS'Mat'
p2600
S'9'
sS'Conv'
p2601
S'0'
sS'Tries'
p2602
S'0'
sS'Pts'
p2603
S'0'
sa(dp2604
S'Pens'
p2605
S'0'
sS'Sub'
p2606
S'0'
sS'Lost'
p2607
S'1'
sS'Drop'
p2608
S'0'
sS'Start'
p2609
S'2'
sS'Won'
p2610
S'1'
sS'Draw'
p2611
S'0'
sS'%'
S'50.00'
p2612
sS'Mat'
p2613
S'2'
sS'Conv'
p2614
S'0'
sS'Tries'
p2615
S'1'
sS'Pts'
p2616
S'4'
sa(dp2617
S'Pens'
p2618
S'0'
sS'Sub'
p2619
S'0'
sS'Lost'
p2620
S'3'
sS'Drop'
p2621
S'0'
sS'Start'
p2622
S'6'
sS'Won'
p2623
S'3'
sS'Draw'
p2624
S'0'
sS'%'
S'50.00'
p2625
sS'Mat'
p2626
S'6'
sS'Conv'
p2627
S'0'
sS'Tries'
p2628
S'1'
sS'Pts'
p2629
S'4'
sa(dp2630
S'Pens'
p2631
S'0'
sS'Sub'
p2632
S'0'
sS'Lost'
p2633
S'2'
sS'Drop'
p2634
S'0'
sS'Start'
p2635
S'3'
sS'Won'
p2636
S'1'
sS'Draw'
p2637
S'0'
sS'%'
S'33.33'
p2638
sS'Mat'
p2639
S'3'
sS'Conv'
p2640
S'0'
sS'Tries'
p2641
S'0'
sS'Pts'
p2642
S'0'
sa(dp2643
S'Pens'
p2644
S'0'
sS'Sub'
p2645
S'0'
sS'Lost'
p2646
S'4'
sS'Drop'
p2647
S'0'
sS'Start'
p2648
S'7'
sS'Won'
p2649
S'3'
sS'Draw'
p2650
S'0'
sS'%'
S'42.85'
p2651
sS'Mat'
p2652
S'7'
sS'Conv'
p2653
S'0'
sS'Tries'
p2654
S'1'
sS'Pts'
p2655
S'4'
sa(dp2656
S'Pens'
p2657
S'0'
sS'Sub'
p2658
S'1'
sS'Lost'
p2659
S'4'
sS'Drop'
p2660
S'0'
sS'Start'
p2661
S'4'
sS'Won'
p2662
S'1'
sS'Draw'
p2663
S'0'
sS'%'
S'20.00'
p2664
sS'Mat'
p2665
S'5'
sS'Conv'
p2666
S'0'
sS'Tries'
p2667
S'0'
sS'Pts'
p2668
S'0'
sa(dp2669
S'Pens'
p2670
S'0'
sS'Sub'
p2671
S'0'
sS'Lost'
p2672
S'1'
sS'Drop'
p2673
S'0'
sS'Start'
p2674
S'2'
sS'Won'
p2675
S'1'
sS'Draw'
p2676
S'0'
sS'%'
S'50.00'
p2677
sS'Mat'
p2678
S'2'
sS'Conv'
p2679
S'0'
sS'Tries'
p2680
S'0'
sS'Pts'
p2681
S'0'
sa(dp2682
S'Pens'
p2683
S'0'
sS'Sub'
p2684
S'0'
sS'Lost'
p2685
S'2'
sS'Drop'
p2686
S'0'
sS'Start'
p2687
S'3'
sS'Won'
p2688
S'1'
sS'Draw'
p2689
S'0'
sS'%'
S'33.33'
p2690
sS'Mat'
p2691
S'3'
sS'Conv'
p2692
S'0'
sS'Tries'
p2693
S'0'
sS'Pts'
p2694
S'0'
sa(dp2695
S'Pens'
p2696
S'4'
sS'Sub'
p2697
S'0'
sS'Lost'
p2698
S'1'
sS'Drop'
p2699
S'0'
sS'Start'
p2700
S'2'
sS'Won'
p2701
S'1'
sS'Draw'
p2702
S'0'
sS'%'
S'50.00'
p2703
sS'Mat'
p2704
S'2'
sS'Conv'
p2705
S'2'
sS'Tries'
p2706
S'0'
sS'Pts'
p2707
S'16'
p2708
sa(dp2709
S'Pens'
p2710
S'0'
sS'Sub'
p2711
S'0'
sS'Lost'
p2712
S'3'
sS'Drop'
p2713
S'0'
sS'Start'
p2714
S'3'
sS'Won'
p2715
S'0'
sS'Draw'
p2716
S'0'
sS'%'
S'0.00'
p2717
sS'Mat'
p2718
S'3'
sS'Conv'
p2719
S'0'
sS'Tries'
p2720
S'0'
sS'Pts'
p2721
S'0'
sa(dp2722
S'Pens'
p2723
S'0'
sS'Sub'
p2724
S'1'
sS'Lost'
p2725
S'2'
sS'Drop'
p2726
S'0'
sS'Start'
p2727
S'1'
sS'Won'
p2728
S'0'
sS'Draw'
p2729
S'0'
sS'%'
S'0.00'
p2730
sS'Mat'
p2731
S'2'
sS'Conv'
p2732
S'0'
sS'Tries'
p2733
S'0'
sS'Pts'
p2734
S'0'
sa(dp2735
S'Pens'
p2736
S'0'
sS'Sub'
p2737
S'0'
sS'Lost'
p2738
S'3'
sS'Drop'
p2739
S'0'
sS'Start'
p2740
S'4'
sS'Won'
p2741
S'1'
sS'Draw'
p2742
S'0'
sS'%'
S'25.00'
p2743
sS'Mat'
p2744
S'4'
sS'Conv'
p2745
S'0'
sS'Tries'
p2746
S'0'
sS'Pts'
p2747
S'0'
sa(dp2748
S'Pens'
p2749
S'0'
sS'Sub'
p2750
S'0'
sS'Lost'
p2751
S'3'
sS'Drop'
p2752
S'0'
sS'Start'
p2753
S'4'
sS'Won'
p2754
S'1'
sS'Draw'
p2755
S'0'
sS'%'
S'25.00'
p2756
sS'Mat'
p2757
S'4'
sS'Conv'
p2758
S'0'
sS'Tries'
p2759
S'1'
sS'Pts'
p2760
S'4'
sa(dp2761
S'Pens'
p2762
S'0'
sS'Sub'
p2763
S'4'
sS'Lost'
p2764
S'11'
p2765
sS'Drop'
p2766
S'0'
sS'Start'
p2767
S'13'
p2768
sS'Won'
p2769
S'6'
sS'Draw'
p2770
S'0'
sS'%'
S'35.29'
p2771
sS'Mat'
p2772
S'17'
p2773
sS'Conv'
p2774
S'0'
sS'Tries'
p2775
S'1'
sS'Pts'
p2776
S'5'
sa(dp2777
S'Pens'
p2778
S'0'
sS'Sub'
p2779
S'0'
sS'Lost'
p2780
S'0'
sS'Drop'
p2781
S'0'
sS'Start'
p2782
S'1'
sS'Won'
p2783
S'1'
sS'Draw'
p2784
S'0'
sS'%'
S'100.00'
p2785
sS'Mat'
p2786
S'1'
sS'Conv'
p2787
S'0'
sS'Tries'
p2788
S'0'
sS'Pts'
p2789
S'0'
sa(dp2790
S'Pens'
p2791
S'0'
sS'Sub'
p2792
S'0'
sS'Lost'
p2793
S'1'
sS'Drop'
p2794
S'0'
sS'Start'
p2795
S'2'
sS'Won'
p2796
S'1'
sS'Draw'
p2797
S'0'
sS'%'
S'50.00'
p2798
sS'Mat'
p2799
S'2'
sS'Conv'
p2800
S'0'
sS'Tries'
p2801
S'0'
sS'Pts'
p2802
S'0'
sa(dp2803
S'Pens'
p2804
S'0'
sS'Sub'
p2805
S'0'
sS'Lost'
p2806
S'0'
sS'Drop'
p2807
S'0'
sS'Start'
p2808
S'1'
sS'Won'
p2809
S'1'
sS'Draw'
p2810
S'0'
sS'%'
S'100.00'
p2811
sS'Mat'
p2812
S'1'
sS'Conv'
p2813
S'0'
sS'Tries'
p2814
S'0'
sS'Pts'
p2815
S'0'
sa(dp2816
S'Pens'
p2817
S'0'
sS'Sub'
p2818
S'0'
sS'Lost'
p2819
S'3'
sS'Drop'
p2820
S'0'
sS'Start'
p2821
S'5'
sS'Won'
p2822
S'2'
sS'Draw'
p2823
S'0'
sS'%'
S'40.00'
p2824
sS'Mat'
p2825
S'5'
sS'Conv'
p2826
S'0'
sS'Tries'
p2827
S'3'
sS'Pts'
p2828
S'14'
p2829
sa(dp2830
S'Pens'
p2831
S'2'
sS'Sub'
p2832
S'0'
sS'Lost'
p2833
S'1'
sS'Drop'
p2834
S'1'
sS'Start'
p2835
S'1'
sS'Won'
p2836
S'0'
sS'Draw'
p2837
S'0'
sS'%'
S'0.00'
p2838
sS'Mat'
p2839
S'1'
sS'Conv'
p2840
S'0'
sS'Tries'
p2841
S'0'
sS'Pts'
p2842
S'9'
sa(dp2843
S'Pens'
p2844
S'0'
sS'Sub'
p2845
S'0'
sS'Lost'
p2846
S'1'
sS'Drop'
p2847
S'0'
sS'Start'
p2848
S'1'
sS'Won'
p2849
S'0'
sS'Draw'
p2850
S'0'
sS'%'
S'0.00'
p2851
sS'Mat'
p2852
S'1'
sS'Conv'
p2853
S'0'
sS'Tries'
p2854
S'0'
sS'Pts'
p2855
S'0'
sa(dp2856
S'Pens'
p2857
S'0'
sS'Sub'
p2858
S'0'
sS'Lost'
p2859
S'1'
sS'Drop'
p2860
S'0'
sS'Start'
p2861
S'1'
sS'Won'
p2862
S'0'
sS'Draw'
p2863
S'0'
sS'%'
S'0.00'
p2864
sS'Mat'
p2865
S'1'
sS'Conv'
p2866
S'0'
sS'Tries'
p2867
S'0'
sS'Pts'
p2868
S'0'
sa(dp2869
S'Pens'
p2870
S'0'
sS'Sub'
p2871
S'0'
sS'Lost'
p2872
S'2'
sS'Drop'
p2873
S'0'
sS'Start'
p2874
S'2'
sS'Won'
p2875
S'0'
sS'Draw'
p2876
S'0'
sS'%'
S'0.00'
p2877
sS'Mat'
p2878
S'2'
sS'Conv'
p2879
S'0'
sS'Tries'
p2880
S'0'
sS'Pts'
p2881
S'0'
sa(dp2882
S'Pens'
p2883
S'0'
sS'Sub'
p2884
S'0'
sS'Lost'
p2885
S'1'
sS'Drop'
p2886
S'0'
sS'Start'
p2887
S'1'
sS'Won'
p2888
S'0'
sS'Draw'
p2889
S'0'
sS'%'
S'0.00'
p2890
sS'Mat'
p2891
S'1'
sS'Conv'
p2892
S'0'
sS'Tries'
p2893
S'0'
sS'Pts'
p2894
S'0'
sa(dp2895
S'Pens'
p2896
S'0'
sS'Sub'
p2897
S'0'
sS'Lost'
p2898
S'1'
sS'Drop'
p2899
S'0'
sS'Start'
p2900
S'1'
sS'Won'
p2901
S'0'
sS'Draw'
p2902
S'0'
sS'%'
S'0.00'
p2903
sS'Mat'
p2904
S'1'
sS'Conv'
p2905
S'0'
sS'Tries'
p2906
S'0'
sS'Pts'
p2907
S'0'
sa(dp2908
S'Pens'
p2909
S'0'
sS'Sub'
p2910
S'2'
sS'Lost'
p2911
S'33'
p2912
sS'Drop'
p2913
S'0'
sS'Start'
p2914
S'45'
p2915
sS'Won'
p2916
S'14'
p2917
sS'Draw'
p2918
S'0'
sS'%'
S'29.78'
p2919
sS'Mat'
p2920
S'47'
p2921
sS'Conv'
p2922
S'0'
sS'Tries'
p2923
S'26'
p2924
sS'Pts'
p2925
S'130'
p2926
sa(dp2927
S'Pens'
p2928
S'0'
sS'Sub'
p2929
S'1'
sS'Lost'
p2930
S'1'
sS'Drop'
p2931
S'0'
sS'Start'
p2932
S'0'
sS'Won'
p2933
S'0'
sS'Draw'
p2934
S'0'
sS'%'
S'0.00'
p2935
sS'Mat'
p2936
S'1'
sS'Conv'
p2937
S'0'
sS'Tries'
p2938
S'0'
sS'Pts'
p2939
S'0'
sa(dp2940
S'Pens'
p2941
S'5'
sS'Sub'
p2942
S'0'
sS'Lost'
p2943
S'22'
p2944
sS'Drop'
p2945
S'0'
sS'Start'
p2946
S'33'
p2947
sS'Won'
p2948
S'11'
p2949
sS'Draw'
p2950
S'0'
sS'%'
S'33.33'
p2951
sS'Mat'
p2952
S'33'
p2953
sS'Conv'
p2954
S'3'
sS'Tries'
p2955
S'7'
sS'Pts'
p2956
S'56'
p2957
sa(dp2958
S'Pens'
p2959
S'0'
sS'Sub'
p2960
S'0'
sS'Lost'
p2961
S'30'
p2962
sS'Drop'
p2963
S'0'
sS'Start'
p2964
S'44'
p2965
sS'Won'
p2966
S'14'
p2967
sS'Draw'
p2968
S'0'
sS'%'
S'31.81'
p2969
sS'Mat'
p2970
S'44'
p2971
sS'Conv'
p2972
S'0'
sS'Tries'
p2973
S'2'
sS'Pts'
p2974
S'10'
p2975
sa(dp2976
S'Pens'
p2977
S'0'
sS'Sub'
p2978
S'0'
sS'Lost'
p2979
S'4'
sS'Drop'
p2980
S'0'
sS'Start'
p2981
S'5'
sS'Won'
p2982
S'1'
sS'Draw'
p2983
S'0'
sS'%'
S'20.00'
p2984
sS'Mat'
p2985
S'5'
sS'Conv'
p2986
S'0'
sS'Tries'
p2987
S'1'
sS'Pts'
p2988
S'5'
sa(dp2989
S'Pens'
p2990
S'0'
sS'Sub'
p2991
S'0'
sS'Lost'
p2992
S'1'
sS'Drop'
p2993
S'0'
sS'Start'
p2994
S'1'
sS'Won'
p2995
S'0'
sS'Draw'
p2996
S'0'
sS'%'
S'0.00'
p2997
sS'Mat'
p2998
S'1'
sS'Conv'
p2999
S'0'
sS'Tries'
p3000
S'0'
sS'Pts'
p3001
S'0'
sa(dp3002
S'Pens'
p3003
S'0'
sS'Sub'
p3004
S'0'
sS'Lost'
p3005
S'1'
sS'Drop'
p3006
S'0'
sS'Start'
p3007
S'1'
sS'Won'
p3008
S'0'
sS'Draw'
p3009
S'0'
sS'%'
S'0.00'
p3010
sS'Mat'
p3011
S'1'
sS'Conv'
p3012
S'0'
sS'Tries'
p3013
S'0'
sS'Pts'
p3014
S'0'
sa(dp3015
S'Pens'
p3016
S'0'
sS'Sub'
p3017
S'0'
sS'Lost'
p3018
S'1'
sS'Drop'
p3019
S'0'
sS'Start'
p3020
S'1'
sS'Won'
p3021
S'0'
sS'Draw'
p3022
S'0'
sS'%'
S'0.00'
p3023
sS'Mat'
p3024
S'1'
sS'Conv'
p3025
S'0'
sS'Tries'
p3026
S'0'
sS'Pts'
p3027
S'0'
sa(dp3028
S'Pens'
p3029
S'0'
sS'Sub'
p3030
S'0'
sS'Lost'
p3031
S'2'
sS'Drop'
p3032
S'0'
sS'Start'
p3033
S'3'
sS'Won'
p3034
S'1'
sS'Draw'
p3035
S'0'
sS'%'
S'33.33'
p3036
sS'Mat'
p3037
S'3'
sS'Conv'
p3038
S'0'
sS'Tries'
p3039
S'0'
sS'Pts'
p3040
S'0'
sa(dp3041
S'Pens'
p3042
S'0'
sS'Sub'
p3043
S'2'
sS'Lost'
p3044
S'11'
p3045
sS'Drop'
p3046
S'0'
sS'Start'
p3047
S'15'
p3048
sS'Won'
p3049
S'6'
sS'Draw'
p3050
S'0'
sS'%'
S'35.29'
p3051
sS'Mat'
p3052
S'17'
p3053
sS'Conv'
p3054
S'0'
sS'Tries'
p3055
S'1'
sS'Pts'
p3056
S'5'
sa(dp3057
S'Pens'
p3058
S'0'
sS'Sub'
p3059
S'2'
sS'Lost'
p3060
S'9'
sS'Drop'
p3061
S'0'
sS'Start'
p3062
S'10'
p3063
sS'Won'
p3064
S'3'
sS'Draw'
p3065
S'0'
sS'%'
S'25.00'
p3066
sS'Mat'
p3067
S'12'
p3068
sS'Conv'
p3069
S'0'
sS'Tries'
p3070
S'0'
sS'Pts'
p3071
S'0'
sa(dp3072
S'Pens'
p3073
S'0'
sS'Sub'
p3074
S'6'
sS'Lost'
p3075
S'24'
p3076
sS'Drop'
p3077
S'0'
sS'Start'
p3078
S'33'
p3079
sS'Won'
p3080
S'15'
p3081
sS'Draw'
p3082
S'0'
sS'%'
S'38.46'
p3083
sS'Mat'
p3084
S'39'
p3085
sS'Conv'
p3086
S'0'
sS'Tries'
p3087
S'8'
sS'Pts'
p3088
S'40'
p3089
sa(dp3090
S'Pens'
p3091
S'0'
sS'Sub'
p3092
S'1'
sS'Lost'
p3093
S'5'
sS'Drop'
p3094
S'0'
sS'Start'
p3095
S'6'
sS'Won'
p3096
S'2'
sS'Draw'
p3097
S'0'
sS'%'
S'28.57'
p3098
sS'Mat'
p3099
S'7'
sS'Conv'
p3100
S'0'
sS'Tries'
p3101
S'1'
sS'Pts'
p3102
S'5'
sa(dp3103
S'Pens'
p3104
S'0'
sS'Sub'
p3105
S'4'
sS'Lost'
p3106
S'16'
p3107
sS'Drop'
p3108
S'0'
sS'Start'
p3109
S'20'
p3110
sS'Won'
p3111
S'8'
sS'Draw'
p3112
S'0'
sS'%'
S'33.33'
p3113
sS'Mat'
p3114
S'24'
p3115
sS'Conv'
p3116
S'0'
sS'Tries'
p3117
S'2'
sS'Pts'
p3118
S'10'
p3119
sa(dp3120
S'Pens'
p3121
S'0'
sS'Sub'
p3122
S'2'
sS'Lost'
p3123
S'3'
sS'Drop'
p3124
S'0'
sS'Start'
p3125
S'1'
sS'Won'
p3126
S'0'
sS'Draw'
p3127
S'0'
sS'%'
S'0.00'
p3128
sS'Mat'
p3129
S'3'
sS'Conv'
p3130
S'0'
sS'Tries'
p3131
S'0'
sS'Pts'
p3132
S'0'
sa(dp3133
S'Pens'
p3134
S'0'
sS'Sub'
p3135
S'1'
sS'Lost'
p3136
S'20'
p3137
sS'Drop'
p3138
S'0'
sS'Start'
p3139
S'28'
p3140
sS'Won'
p3141
S'9'
sS'Draw'
p3142
S'0'
sS'%'
S'31.03'
p3143
sS'Mat'
p3144
S'29'
p3145
sS'Conv'
p3146
S'0'
sS'Tries'
p3147
S'4'
sS'Pts'
p3148
S'20'
p3149
sa(dp3150
S'Pens'
p3151
S'0'
sS'Sub'
p3152
S'4'
sS'Lost'
p3153
S'19'
p3154
sS'Drop'
p3155
S'0'
sS'Start'
p3156
S'21'
p3157
sS'Won'
p3158
S'6'
sS'Draw'
p3159
S'0'
sS'%'
S'24.00'
p3160
sS'Mat'
p3161
S'25'
p3162
sS'Conv'
p3163
S'0'
sS'Tries'
p3164
S'6'
sS'Pts'
p3165
S'30'
p3166
sa(dp3167
S'Pens'
p3168
S'0'
sS'Sub'
p3169
S'1'
sS'Lost'
p3170
S'1'
sS'Drop'
p3171
S'0'
sS'Start'
p3172
S'1'
sS'Won'
p3173
S'1'
sS'Draw'
p3174
S'0'
sS'%'
S'50.00'
p3175
sS'Mat'
p3176
S'2'
sS'Conv'
p3177
S'0'
sS'Tries'
p3178
S'0'
sS'Pts'
p3179
S'0'
sa(dp3180
S'Pens'
p3181
S'0'
sS'Sub'
p3182
S'0'
sS'Lost'
p3183
S'7'
sS'Drop'
p3184
S'0'
sS'Start'
p3185
S'11'
p3186
sS'Won'
p3187
S'4'
sS'Draw'
p3188
S'0'
sS'%'
S'36.36'
p3189
sS'Mat'
p3190
S'11'
p3191
sS'Conv'
p3192
S'0'
sS'Tries'
p3193
S'1'
sS'Pts'
p3194
S'5'
sa(dp3195
S'Pens'
p3196
S'0'
sS'Sub'
p3197
S'0'
sS'Lost'
p3198
S'28'
p3199
sS'Drop'
p3200
S'0'
sS'Start'
p3201
S'45'
p3202
sS'Won'
p3203
S'17'
p3204
sS'Draw'
p3205
S'0'
sS'%'
S'37.77'
p3206
sS'Mat'
p3207
S'45'
p3208
sS'Conv'
p3209
S'0'
sS'Tries'
p3210
S'6'
sS'Pts'
p3211
S'30'
p3212
sa(dp3213
S'Pens'
p3214
S'55'
p3215
sS'Sub'
p3216
S'0'
sS'Lost'
p3217
S'13'
p3218
sS'Drop'
p3219
S'2'
sS'Start'
p3220
S'24'
p3221
sS'Won'
p3222
S'11'
p3223
sS'Draw'
p3224
S'0'
sS'%'
S'45.83'
p3225
sS'Mat'
p3226
S'24'
p3227
sS'Conv'
p3228
S'45'
p3229
sS'Tries'
p3230
S'5'
sS'Pts'
p3231
S'286'
p3232
sa(dp3233
S'Pens'
p3234
S'0'
sS'Sub'
p3235
S'0'
sS'Lost'
p3236
S'0'
sS'Drop'
p3237
S'0'
sS'Start'
p3238
S'1'
sS'Won'
p3239
S'1'
sS'Draw'
p3240
S'0'
sS'%'
S'100.00'
p3241
sS'Mat'
p3242
S'1'
sS'Conv'
p3243
S'0'
sS'Tries'
p3244
S'0'
sS'Pts'
p3245
S'0'
sa(dp3246
S'Pens'
p3247
S'0'
sS'Sub'
p3248
S'0'
sS'Lost'
p3249
S'1'
sS'Drop'
p3250
S'0'
sS'Start'
p3251
S'2'
sS'Won'
p3252
S'1'
sS'Draw'
p3253
S'0'
sS'%'
S'50.00'
p3254
sS'Mat'
p3255
S'2'
sS'Conv'
p3256
S'0'
sS'Tries'
p3257
S'0'
sS'Pts'
p3258
S'0'
sa(dp3259
S'Pens'
p3260
S'0'
sS'Sub'
p3261
S'0'
sS'Lost'
p3262
S'2'
sS'Drop'
p3263
S'0'
sS'Start'
p3264
S'4'
sS'Won'
p3265
S'2'
sS'Draw'
p3266
S'0'
sS'%'
S'50.00'
p3267
sS'Mat'
p3268
S'4'
sS'Conv'
p3269
S'0'
sS'Tries'
p3270
S'0'
sS'Pts'
p3271
S'0'
sa(dp3272
S'Pens'
p3273
S'0'
sS'Sub'
p3274
S'10'
p3275
sS'Lost'
p3276
S'22'
p3277
sS'Drop'
p3278
S'0'
sS'Start'
p3279
S'27'
p3280
sS'Won'
p3281
S'15'
p3282
sS'Draw'
p3283
S'0'
sS'%'
S'40.54'
p3284
sS'Mat'
p3285
S'37'
p3286
sS'Conv'
p3287
S'0'
sS'Tries'
p3288
S'0'
sS'Pts'
p3289
S'0'
sa(dp3290
S'Pens'
p3291
S'0'
sS'Sub'
p3292
S'0'
sS'Lost'
p3293
S'2'
sS'Drop'
p3294
S'0'
sS'Start'
p3295
S'4'
sS'Won'
p3296
S'2'
sS'Draw'
p3297
S'0'
sS'%'
S'50.00'
p3298
sS'Mat'
p3299
S'4'
sS'Conv'
p3300
S'0'
sS'Tries'
p3301
S'0'
sS'Pts'
p3302
S'0'
sa(dp3303
S'Pens'
p3304
S'0'
sS'Sub'
p3305
S'1'
sS'Lost'
p3306
S'0'
sS'Drop'
p3307
S'0'
sS'Start'
p3308
S'0'
sS'Won'
p3309
S'1'
sS'Draw'
p3310
S'0'
sS'%'
S'100.00'
p3311
sS'Mat'
p3312
S'1'
sS'Conv'
p3313
S'0'
sS'Tries'
p3314
S'0'
sS'Pts'
p3315
S'0'
sa(dp3316
S'Pens'
p3317
S'0'
sS'Sub'
p3318
S'1'
sS'Lost'
p3319
S'10'
p3320
sS'Drop'
p3321
S'0'
sS'Start'
p3322
S'14'
p3323
sS'Won'
p3324
S'5'
sS'Draw'
p3325
S'0'
sS'%'
S'33.33'
p3326
sS'Mat'
p3327
S'15'
p3328
sS'Conv'
p3329
S'0'
sS'Tries'
p3330
S'3'
sS'Pts'
p3331
S'15'
p3332
sa(dp3333
S'Pens'
p3334
S'0'
sS'Sub'
p3335
S'1'
sS'Lost'
p3336
S'41'
p3337
sS'Drop'
p3338
S'0'
sS'Start'
p3339
S'61'
p3340
sS'Won'
p3341
S'21'
p3342
sS'Draw'
p3343
S'0'
sS'%'
S'33.87'
p3344
sS'Mat'
p3345
S'62'
p3346
sS'Conv'
p3347
S'0'
sS'Tries'
p3348
S'0'
sS'Pts'
p3349
S'0'
sa(dp3350
S'Pens'
p3351
S'0'
sS'Sub'
p3352
S'0'
sS'Lost'
p3353
S'3'
sS'Drop'
p3354
S'0'
sS'Start'
p3355
S'5'
sS'Won'
p3356
S'2'
sS'Draw'
p3357
S'0'
sS'%'
S'40.00'
p3358
sS'Mat'
p3359
S'5'
sS'Conv'
p3360
S'0'
sS'Tries'
p3361
S'0'
sS'Pts'
p3362
S'0'
sa(dp3363
S'Pens'
p3364
S'0'
sS'Sub'
p3365
S'18'
p3366
sS'Lost'
p3367
S'17'
p3368
sS'Drop'
p3369
S'0'
sS'Start'
p3370
S'7'
sS'Won'
p3371
S'8'
sS'Draw'
p3372
S'0'
sS'%'
S'32.00'
p3373
sS'Mat'
p3374
S'25'
p3375
sS'Conv'
p3376
S'0'
sS'Tries'
p3377
S'4'
sS'Pts'
p3378
S'20'
p3379
sa(dp3380
S'Pens'
p3381
S'0'
sS'Sub'
p3382
S'2'
sS'Lost'
p3383
S'8'
sS'Drop'
p3384
S'0'
sS'Start'
p3385
S'10'
p3386
sS'Won'
p3387
S'4'
sS'Draw'
p3388
S'0'
sS'%'
S'33.33'
p3389
sS'Mat'
p3390
S'12'
p3391
sS'Conv'
p3392
S'0'
sS'Tries'
p3393
S'0'
sS'Pts'
p3394
S'0'
sa(dp3395
S'Pens'
p3396
S'0'
sS'Sub'
p3397
S'7'
sS'Lost'
p3398
S'35'
p3399
sS'Drop'
p3400
S'0'
sS'Start'
p3401
S'51'
p3402
sS'Won'
p3403
S'23'
p3404
sS'Draw'
p3405
S'0'
sS'%'
S'39.65'
p3406
sS'Mat'
p3407
S'58'
p3408
sS'Conv'
p3409
S'0'
sS'Tries'
p3410
S'1'
sS'Pts'
p3411
S'5'
sa(dp3412
S'Pens'
p3413
S'0'
sS'Sub'
p3414
S'3'
sS'Lost'
p3415
S'5'
sS'Drop'
p3416
S'0'
sS'Start'
p3417
S'4'
sS'Won'
p3418
S'2'
sS'Draw'
p3419
S'0'
sS'%'
S'28.57'
p3420
sS'Mat'
p3421
S'7'
sS'Conv'
p3422
S'0'
sS'Tries'
p3423
S'0'
sS'Pts'
p3424
S'0'
sa(dp3425
S'Pens'
p3426
S'0'
sS'Sub'
p3427
S'4'
sS'Lost'
p3428
S'4'
sS'Drop'
p3429
S'0'
sS'Start'
p3430
S'1'
sS'Won'
p3431
S'1'
sS'Draw'
p3432
S'0'
sS'%'
S'20.00'
p3433
sS'Mat'
p3434
S'5'
sS'Conv'
p3435
S'0'
sS'Tries'
p3436
S'0'
sS'Pts'
p3437
S'0'
sa(dp3438
S'Pens'
p3439
S'0'
sS'Sub'
p3440
S'1'
sS'Lost'
p3441
S'1'
sS'Drop'
p3442
S'0'
sS'Start'
p3443
S'0'
sS'Won'
p3444
S'0'
sS'Draw'
p3445
S'0'
sS'%'
S'0.00'
p3446
sS'Mat'
p3447
S'1'
sS'Conv'
p3448
S'0'
sS'Tries'
p3449
S'0'
sS'Pts'
p3450
S'0'
sa(dp3451
S'Pens'
p3452
S'0'
sS'Sub'
p3453
S'0'
sS'Lost'
p3454
S'0'
sS'Drop'
p3455
S'0'
sS'Start'
p3456
S'1'
sS'Won'
p3457
S'1'
sS'Draw'
p3458
S'0'
sS'%'
S'100.00'
p3459
sS'Mat'
p3460
S'1'
sS'Conv'
p3461
S'0'
sS'Tries'
p3462
S'0'
sS'Pts'
p3463
S'0'
sa(dp3464
S'Pens'
p3465
S'0'
sS'Sub'
p3466
S'5'
sS'Lost'
p3467
S'5'
sS'Drop'
p3468
S'0'
sS'Start'
p3469
S'7'
sS'Won'
p3470
S'7'
sS'Draw'
p3471
S'0'
sS'%'
S'58.33'
p3472
sS'Mat'
p3473
S'12'
p3474
sS'Conv'
p3475
S'0'
sS'Tries'
p3476
S'3'
sS'Pts'
p3477
S'15'
p3478
sa(dp3479
S'Pens'
p3480
S'0'
sS'Sub'
p3481
S'4'
sS'Lost'
p3482
S'23'
p3483
sS'Drop'
p3484
S'0'
sS'Start'
p3485
S'29'
p3486
sS'Won'
p3487
S'10'
p3488
sS'Draw'
p3489
S'0'
sS'%'
S'30.30'
p3490
sS'Mat'
p3491
S'33'
p3492
sS'Conv'
p3493
S'0'
sS'Tries'
p3494
S'7'
sS'Pts'
p3495
S'35'
p3496
sa(dp3497
S'Pens'
p3498
S'0'
sS'Sub'
p3499
S'0'
sS'Lost'
p3500
S'1'
sS'Drop'
p3501
S'0'
sS'Start'
p3502
S'2'
sS'Won'
p3503
S'1'
sS'Draw'
p3504
S'0'
sS'%'
S'50.00'
p3505
sS'Mat'
p3506
S'2'
sS'Conv'
p3507
S'0'
sS'Tries'
p3508
S'0'
sS'Pts'
p3509
S'0'
sa(dp3510
S'Pens'
p3511
S'17'
p3512
sS'Sub'
p3513
S'5'
sS'Lost'
p3514
S'27'
p3515
sS'Drop'
p3516
S'0'
sS'Start'
p3517
S'37'
p3518
sS'Won'
p3519
S'15'
p3520
sS'Draw'
p3521
S'0'
sS'%'
S'35.71'
p3522
sS'Mat'
p3523
S'42'
p3524
sS'Conv'
p3525
S'9'
sS'Tries'
p3526
S'8'
sS'Pts'
p3527
S'109'
p3528
sa(dp3529
S'Pens'
p3530
S'0'
sS'Sub'
p3531
S'5'
sS'Lost'
p3532
S'36'
p3533
sS'Drop'
p3534
S'0'
sS'Start'
p3535
S'48'
p3536
sS'Won'
p3537
S'17'
p3538
sS'Draw'
p3539
S'0'
sS'%'
S'32.07'
p3540
sS'Mat'
p3541
S'53'
p3542
sS'Conv'
p3543
S'0'
sS'Tries'
p3544
S'4'
sS'Pts'
p3545
S'20'
p3546
sa(dp3547
S'Pens'
p3548
S'0'
sS'Sub'
p3549
S'0'
sS'Lost'
p3550
S'11'
p3551
sS'Drop'
p3552
S'0'
sS'Start'
p3553
S'17'
p3554
sS'Won'
p3555
S'6'
sS'Draw'
p3556
S'0'
sS'%'
S'35.29'
p3557
sS'Mat'
p3558
S'17'
p3559
sS'Conv'
p3560
S'0'
sS'Tries'
p3561
S'8'
sS'Pts'
p3562
S'40'
p3563
sa(dp3564
S'Pens'
p3565
S'1'
sS'Sub'
p3566
S'2'
sS'Lost'
p3567
S'9'
sS'Drop'
p3568
S'0'
sS'Start'
p3569
S'10'
p3570
sS'Won'
p3571
S'3'
sS'Draw'
p3572
S'0'
sS'%'
S'25.00'
p3573
sS'Mat'
p3574
S'12'
p3575
sS'Conv'
p3576
S'2'
sS'Tries'
p3577
S'0'
sS'Pts'
p3578
S'7'
sa(dp3579
S'Pens'
p3580
S'0'
sS'Sub'
p3581
S'4'
sS'Lost'
p3582
S'14'
p3583
sS'Drop'
p3584
S'0'
sS'Start'
p3585
S'16'
p3586
sS'Won'
p3587
S'6'
sS'Draw'
p3588
S'0'
sS'%'
S'30.00'
p3589
sS'Mat'
p3590
S'20'
p3591
sS'Conv'
p3592
S'0'
sS'Tries'
p3593
S'6'
sS'Pts'
p3594
S'30'
p3595
sa(dp3596
S'Pens'
p3597
S'0'
sS'Sub'
p3598
S'1'
sS'Lost'
p3599
S'5'
sS'Drop'
p3600
S'0'
sS'Start'
p3601
S'5'
sS'Won'
p3602
S'1'
sS'Draw'
p3603
S'0'
sS'%'
S'16.66'
p3604
sS'Mat'
p3605
S'6'
sS'Conv'
p3606
S'0'
sS'Tries'
p3607
S'0'
sS'Pts'
p3608
S'0'
sa(dp3609
S'Pens'
p3610
S'0'
sS'Sub'
p3611
S'2'
sS'Lost'
p3612
S'4'
sS'Drop'
p3613
S'0'
sS'Start'
p3614
S'3'
sS'Won'
p3615
S'1'
sS'Draw'
p3616
S'0'
sS'%'
S'20.00'
p3617
sS'Mat'
p3618
S'5'
sS'Conv'
p3619
S'0'
sS'Tries'
p3620
S'0'
sS'Pts'
p3621
S'0'
sa(dp3622
S'Pens'
p3623
S'0'
sS'Sub'
p3624
S'9'
sS'Lost'
p3625
S'21'
p3626
sS'Drop'
p3627
S'0'
sS'Start'
p3628
S'20'
p3629
sS'Won'
p3630
S'8'
sS'Draw'
p3631
S'0'
sS'%'
S'27.58'
p3632
sS'Mat'
p3633
S'29'
p3634
sS'Conv'
p3635
S'0'
sS'Tries'
p3636
S'3'
sS'Pts'
p3637
S'15'
p3638
sa(dp3639
S'Pens'
p3640
S'0'
sS'Sub'
p3641
S'1'
sS'Lost'
p3642
S'2'
sS'Drop'
p3643
S'0'
sS'Start'
p3644
S'3'
sS'Won'
p3645
S'2'
sS'Draw'
p3646
S'0'
sS'%'
S'50.00'
p3647
sS'Mat'
p3648
S'4'
sS'Conv'
p3649
S'0'
sS'Tries'
p3650
S'0'
sS'Pts'
p3651
S'0'
sa(dp3652
S'Pens'
p3653
S'0'
sS'Sub'
p3654
S'0'
sS'Lost'
p3655
S'2'
sS'Drop'
p3656
S'0'
sS'Start'
p3657
S'5'
sS'Won'
p3658
S'3'
sS'Draw'
p3659
S'0'
sS'%'
S'60.00'
p3660
sS'Mat'
p3661
S'5'
sS'Conv'
p3662
S'0'
sS'Tries'
p3663
S'3'
sS'Pts'
p3664
S'15'
p3665
sa(dp3666
S'Pens'
p3667
S'0'
sS'Sub'
p3668
S'1'
sS'Lost'
p3669
S'1'
sS'Drop'
p3670
S'0'
sS'Start'
p3671
S'1'
sS'Won'
p3672
S'1'
sS'Draw'
p3673
S'0'
sS'%'
S'50.00'
p3674
sS'Mat'
p3675
S'2'
sS'Conv'
p3676
S'0'
sS'Tries'
p3677
S'0'
sS'Pts'
p3678
S'0'
sa(dp3679
S'Pens'
p3680
S'0'
sS'Sub'
p3681
S'1'
sS'Lost'
p3682
S'1'
sS'Drop'
p3683
S'0'
sS'Start'
p3684
S'2'
sS'Won'
p3685
S'2'
sS'Draw'
p3686
S'0'
sS'%'
S'66.66'
p3687
sS'Mat'
p3688
S'3'
sS'Conv'
p3689
S'0'
sS'Tries'
p3690
S'0'
sS'Pts'
p3691
S'0'
sa(dp3692
S'Pens'
p3693
S'0'
sS'Sub'
p3694
S'2'
sS'Lost'
p3695
S'6'
sS'Drop'
p3696
S'0'
sS'Start'
p3697
S'9'
sS'Won'
p3698
S'5'
sS'Draw'
p3699
S'0'
sS'%'
S'45.45'
p3700
sS'Mat'
p3701
S'11'
p3702
sS'Conv'
p3703
S'0'
sS'Tries'
p3704
S'0'
sS'Pts'
p3705
S'0'
sa(dp3706
S'Pens'
p3707
S'0'
sS'Sub'
p3708
S'0'
sS'Lost'
p3709
S'8'
sS'Drop'
p3710
S'0'
sS'Start'
p3711
S'13'
p3712
sS'Won'
p3713
S'5'
sS'Draw'
p3714
S'0'
sS'%'
S'38.46'
p3715
sS'Mat'
p3716
S'13'
p3717
sS'Conv'
p3718
S'2'
sS'Tries'
p3719
S'5'
sS'Pts'
p3720
S'29'
p3721
sa(dp3722
S'Pens'
p3723
S'0'
sS'Sub'
p3724
S'0'
sS'Lost'
p3725
S'2'
sS'Drop'
p3726
S'0'
sS'Start'
p3727
S'2'
sS'Won'
p3728
S'0'
sS'Draw'
p3729
S'0'
sS'%'
S'0.00'
p3730
sS'Mat'
p3731
S'2'
sS'Conv'
p3732
S'0'
sS'Tries'
p3733
S'0'
sS'Pts'
p3734
S'0'
sa(dp3735
S'Pens'
p3736
S'0'
sS'Sub'
p3737
S'4'
sS'Lost'
p3738
S'4'
sS'Drop'
p3739
S'0'
sS'Start'
p3740
S'0'
sS'Won'
p3741
S'0'
sS'Draw'
p3742
S'0'
sS'%'
S'0.00'
p3743
sS'Mat'
p3744
S'4'
sS'Conv'
p3745
S'0'
sS'Tries'
p3746
S'0'
sS'Pts'
p3747
S'0'
sa(dp3748
S'Pens'
p3749
S'0'
sS'Sub'
p3750
S'0'
sS'Lost'
p3751
S'2'
sS'Drop'
p3752
S'0'
sS'Start'
p3753
S'2'
sS'Won'
p3754
S'0'
sS'Draw'
p3755
S'0'
sS'%'
S'0.00'
p3756
sS'Mat'
p3757
S'2'
sS'Conv'
p3758
S'0'
sS'Tries'
p3759
S'0'
sS'Pts'
p3760
S'0'
sa(dp3761
S'Pens'
p3762
S'0'
sS'Sub'
p3763
S'10'
p3764
sS'Lost'
p3765
S'16'
p3766
sS'Drop'
p3767
S'0'
sS'Start'
p3768
S'10'
p3769
sS'Won'
p3770
S'4'
sS'Draw'
p3771
S'0'
sS'%'
S'20.00'
p3772
sS'Mat'
p3773
S'20'
p3774
sS'Conv'
p3775
S'0'
sS'Tries'
p3776
S'2'
sS'Pts'
p3777
S'10'
p3778
sa(dp3779
S'Pens'
p3780
S'0'
sS'Sub'
p3781
S'10'
p3782
sS'Lost'
p3783
S'11'
p3784
sS'Drop'
p3785
S'0'
sS'Start'
p3786
S'5'
sS'Won'
p3787
S'4'
sS'Draw'
p3788
S'0'
sS'%'
S'26.66'
p3789
sS'Mat'
p3790
S'15'
p3791
sS'Conv'
p3792
S'0'
sS'Tries'
p3793
S'3'
sS'Pts'
p3794
S'15'
p3795
sa(dp3796
S'Pens'
p3797
S'0'
sS'Sub'
p3798
S'1'
sS'Lost'
p3799
S'11'
p3800
sS'Drop'
p3801
S'0'
sS'Start'
p3802
S'14'
p3803
sS'Won'
p3804
S'4'
sS'Draw'
p3805
S'0'
sS'%'
S'26.66'
p3806
sS'Mat'
p3807
S'15'
p3808
sS'Conv'
p3809
S'0'
sS'Tries'
p3810
S'1'
sS'Pts'
p3811
S'5'
sa(dp3812
S'Pens'
p3813
S'0'
sS'Sub'
p3814
S'0'
sS'Lost'
p3815
S'1'
sS'Drop'
p3816
S'0'
sS'Start'
p3817
S'1'
sS'Won'
p3818
S'0'
sS'Draw'
p3819
S'0'
sS'%'
S'0.00'
p3820
sS'Mat'
p3821
S'1'
sS'Conv'
p3822
S'0'
sS'Tries'
p3823
S'0'
sS'Pts'
p3824
S'0'
sa(dp3825
S'Pens'
p3826
S'0'
sS'Sub'
p3827
S'1'
sS'Lost'
p3828
S'4'
sS'Drop'
p3829
S'0'
sS'Start'
p3830
S'3'
sS'Won'
p3831
S'0'
sS'Draw'
p3832
S'0'
sS'%'
S'0.00'
p3833
sS'Mat'
p3834
S'4'
sS'Conv'
p3835
S'0'
sS'Tries'
p3836
S'0'
sS'Pts'
p3837
S'0'
sa(dp3838
S'Pens'
p3839
S'0'
sS'Sub'
p3840
S'1'
sS'Lost'
p3841
S'1'
sS'Drop'
p3842
S'0'
sS'Start'
p3843
S'1'
sS'Won'
p3844
S'1'
sS'Draw'
p3845
S'0'
sS'%'
S'50.00'
p3846
sS'Mat'
p3847
S'2'
sS'Conv'
p3848
S'0'
sS'Tries'
p3849
S'0'
sS'Pts'
p3850
S'0'
sa(dp3851
S'Pens'
p3852
S'0'
sS'Sub'
p3853
S'9'
sS'Lost'
p3854
S'25'
p3855
sS'Drop'
p3856
S'0'
sS'Start'
p3857
S'28'
p3858
sS'Won'
p3859
S'12'
p3860
sS'Draw'
p3861
S'0'
sS'%'
S'32.43'
p3862
sS'Mat'
p3863
S'37'
p3864
sS'Conv'
p3865
S'0'
sS'Tries'
p3866
S'3'
sS'Pts'
p3867
S'15'
p3868
sa(dp3869
S'Pens'
p3870
S'0'
sS'Sub'
p3871
S'0'
sS'Lost'
p3872
S'1'
sS'Drop'
p3873
S'0'
sS'Start'
p3874
S'2'
sS'Won'
p3875
S'1'
sS'Draw'
p3876
S'0'
sS'%'
S'50.00'
p3877
sS'Mat'
p3878
S'2'
sS'Conv'
p3879
S'0'
sS'Tries'
p3880
S'0'
sS'Pts'
p3881
S'0'
sa(dp3882
S'Pens'
p3883
S'0'
sS'Sub'
p3884
S'0'
sS'Lost'
p3885
S'1'
sS'Drop'
p3886
S'0'
sS'Start'
p3887
S'1'
sS'Won'
p3888
S'0'
sS'Draw'
p3889
S'0'
sS'%'
S'0.00'
p3890
sS'Mat'
p3891
S'1'
sS'Conv'
p3892
S'2'
sS'Tries'
p3893
S'0'
sS'Pts'
p3894
S'4'
sa(dp3895
S'Pens'
p3896
S'0'
sS'Sub'
p3897
S'2'
sS'Lost'
p3898
S'11'
p3899
sS'Drop'
p3900
S'0'
sS'Start'
p3901
S'16'
p3902
sS'Won'
p3903
S'7'
sS'Draw'
p3904
S'0'
sS'%'
S'38.88'
p3905
sS'Mat'
p3906
S'18'
p3907
sS'Conv'
p3908
S'0'
sS'Tries'
p3909
S'1'
sS'Pts'
p3910
S'5'
sa(dp3911
S'Pens'
p3912
S'0'
sS'Sub'
p3913
S'2'
sS'Lost'
p3914
S'5'
sS'Drop'
p3915
S'1'
sS'Start'
p3916
S'6'
sS'Won'
p3917
S'3'
sS'Draw'
p3918
S'0'
sS'%'
S'37.50'
p3919
sS'Mat'
p3920
S'8'
sS'Conv'
p3921
S'0'
sS'Tries'
p3922
S'1'
sS'Pts'
p3923
S'8'
sa(dp3924
S'Pens'
p3925
S'0'
sS'Sub'
p3926
S'4'
sS'Lost'
p3927
S'8'
sS'Drop'
p3928
S'0'
sS'Start'
p3929
S'7'
sS'Won'
p3930
S'3'
sS'Draw'
p3931
S'0'
sS'%'
S'27.27'
p3932
sS'Mat'
p3933
S'11'
p3934
sS'Conv'
p3935
S'0'
sS'Tries'
p3936
S'1'
sS'Pts'
p3937
S'5'
sa(dp3938
S'Pens'
p3939
S'0'
sS'Sub'
p3940
S'2'
sS'Lost'
p3941
S'2'
sS'Drop'
p3942
S'0'
sS'Start'
p3943
S'0'
sS'Won'
p3944
S'0'
sS'Draw'
p3945
S'0'
sS'%'
S'0.00'
p3946
sS'Mat'
p3947
S'2'
sS'Conv'
p3948
S'0'
sS'Tries'
p3949
S'0'
sS'Pts'
p3950
S'0'
sa(dp3951
S'Pens'
p3952
S'0'
sS'Sub'
p3953
S'1'
sS'Lost'
p3954
S'1'
sS'Drop'
p3955
S'0'
sS'Start'
p3956
S'0'
sS'Won'
p3957
S'0'
sS'Draw'
p3958
S'0'
sS'%'
S'0.00'
p3959
sS'Mat'
p3960
S'1'
sS'Conv'
p3961
S'0'
sS'Tries'
p3962
S'0'
sS'Pts'
p3963
S'0'
sa(dp3964
S'Pens'
p3965
S'0'
sS'Sub'
p3966
S'3'
sS'Lost'
p3967
S'6'
sS'Drop'
p3968
S'0'
sS'Start'
p3969
S'4'
sS'Won'
p3970
S'1'
sS'Draw'
p3971
S'0'
sS'%'
S'14.28'
p3972
sS'Mat'
p3973
S'7'
sS'Conv'
p3974
S'0'
sS'Tries'
p3975
S'0'
sS'Pts'
p3976
S'0'
sa(dp3977
S'Pens'
p3978
S'0'
sS'Sub'
p3979
S'1'
sS'Lost'
p3980
S'20'
p3981
sS'Drop'
p3982
S'0'
sS'Start'
p3983
S'34'
p3984
sS'Won'
p3985
S'15'
p3986
sS'Draw'
p3987
S'0'
sS'%'
S'42.85'
p3988
sS'Mat'
p3989
S'35'
p3990
sS'Conv'
p3991
S'0'
sS'Tries'
p3992
S'10'
p3993
sS'Pts'
p3994
S'50'
p3995
sa(dp3996
S'Pens'
p3997
S'0'
sS'Sub'
p3998
S'3'
sS'Lost'
p3999
S'5'
sS'Drop'
p4000
S'0'
sS'Start'
p4001
S'4'
sS'Won'
p4002
S'2'
sS'Draw'
p4003
S'0'
sS'%'
S'28.57'
p4004
sS'Mat'
p4005
S'7'
sS'Conv'
p4006
S'0'
sS'Tries'
p4007
S'0'
sS'Pts'
p4008
S'0'
sa(dp4009
S'Pens'
p4010
S'0'
sS'Sub'
p4011
S'1'
sS'Lost'
p4012
S'33'
p4013
sS'Drop'
p4014
S'0'
sS'Start'
p4015
S'48'
p4016
sS'Won'
p4017
S'16'
p4018
sS'Draw'
p4019
S'0'
sS'%'
S'32.65'
p4020
sS'Mat'
p4021
S'49'
p4022
sS'Conv'
p4023
S'0'
sS'Tries'
p4024
S'4'
sS'Pts'
p4025
S'20'
p4026
sa(dp4027
S'Pens'
p4028
S'22'
p4029
sS'Sub'
p4030
S'0'
sS'Lost'
p4031
S'9'
sS'Drop'
p4032
S'2'
sS'Start'
p4033
S'12'
p4034
sS'Won'
p4035
S'3'
sS'Draw'
p4036
S'0'
sS'%'
S'25.00'
p4037
sS'Mat'
p4038
S'12'
p4039
sS'Conv'
p4040
S'14'
p4041
sS'Tries'
p4042
S'0'
sS'Pts'
p4043
S'100'
p4044
sa(dp4045
S'Pens'
p4046
S'0'
sS'Sub'
p4047
S'1'
sS'Lost'
p4048
S'2'
sS'Drop'
p4049
S'0'
sS'Start'
p4050
S'3'
sS'Won'
p4051
S'2'
sS'Draw'
p4052
S'0'
sS'%'
S'50.00'
p4053
sS'Mat'
p4054
S'4'
sS'Conv'
p4055
S'0'
sS'Tries'
p4056
S'0'
sS'Pts'
p4057
S'0'
sa(dp4058
S'Pens'
p4059
S'0'
sS'Sub'
p4060
S'1'
sS'Lost'
p4061
S'3'
sS'Drop'
p4062
S'0'
sS'Start'
p4063
S'4'
sS'Won'
p4064
S'2'
sS'Draw'
p4065
S'0'
sS'%'
S'40.00'
p4066
sS'Mat'
p4067
S'5'
sS'Conv'
p4068
S'0'
sS'Tries'
p4069
S'0'
sS'Pts'
p4070
S'0'
sa(dp4071
S'Pens'
p4072
S'0'
sS'Sub'
p4073
S'2'
sS'Lost'
p4074
S'1'
sS'Drop'
p4075
S'0'
sS'Start'
p4076
S'0'
sS'Won'
p4077
S'1'
sS'Draw'
p4078
S'0'
sS'%'
S'50.00'
p4079
sS'Mat'
p4080
S'2'
sS'Conv'
p4081
S'0'
sS'Tries'
p4082
S'0'
sS'Pts'
p4083
S'0'
sa(dp4084
S'Pens'
p4085
S'0'
sS'Sub'
p4086
S'5'
sS'Lost'
p4087
S'7'
sS'Drop'
p4088
S'0'
sS'Start'
p4089
S'4'
sS'Won'
p4090
S'2'
sS'Draw'
p4091
S'0'
sS'%'
S'22.22'
p4092
sS'Mat'
p4093
S'9'
sS'Conv'
p4094
S'0'
sS'Tries'
p4095
S'1'
sS'Pts'
p4096
S'5'
sa(dp4097
S'Pens'
p4098
S'14'
p4099
sS'Sub'
p4100
S'7'
sS'Lost'
p4101
S'13'
p4102
sS'Drop'
p4103
S'0'
sS'Start'
p4104
S'13'
p4105
sS'Won'
p4106
S'7'
sS'Draw'
p4107
S'0'
sS'%'
S'35.00'
p4108
sS'Mat'
p4109
S'20'
p4110
sS'Conv'
p4111
S'3'
sS'Tries'
p4112
S'3'
sS'Pts'
p4113
S'63'
p4114
sa(dp4115
S'Pens'
p4116
S'0'
sS'Sub'
p4117
S'7'
sS'Lost'
p4118
S'15'
p4119
sS'Drop'
p4120
S'0'
sS'Start'
p4121
S'10'
p4122
sS'Won'
p4123
S'2'
sS'Draw'
p4124
S'0'
sS'%'
S'11.76'
p4125
sS'Mat'
p4126
S'17'
p4127
sS'Conv'
p4128
S'0'
sS'Tries'
p4129
S'1'
sS'Pts'
p4130
S'5'
sa(dp4131
S'Pens'
p4132
S'0'
sS'Sub'
p4133
S'11'
p4134
sS'Lost'
p4135
S'46'
p4136
sS'Drop'
p4137
S'0'
sS'Start'
p4138
S'56'
p4139
sS'Won'
p4140
S'21'
p4141
sS'Draw'
p4142
S'0'
sS'%'
S'31.34'
p4143
sS'Mat'
p4144
S'67'
p4145
sS'Conv'
p4146
S'0'
sS'Tries'
p4147
S'6'
sS'Pts'
p4148
S'30'
p4149
sa(dp4150
S'Pens'
p4151
S'0'
sS'Sub'
p4152
S'0'
sS'Lost'
p4153
S'1'
sS'Drop'
p4154
S'0'
sS'Start'
p4155
S'1'
sS'Won'
p4156
S'0'
sS'Draw'
p4157
S'0'
sS'%'
S'0.00'
p4158
sS'Mat'
p4159
S'1'
sS'Conv'
p4160
S'0'
sS'Tries'
p4161
S'0'
sS'Pts'
p4162
S'0'
sa(dp4163
S'Pens'
p4164
S'0'
sS'Sub'
p4165
S'1'
sS'Lost'
p4166
S'1'
sS'Drop'
p4167
S'0'
sS'Start'
p4168
S'0'
sS'Won'
p4169
S'0'
sS'Draw'
p4170
S'0'
sS'%'
S'0.00'
p4171
sS'Mat'
p4172
S'1'
sS'Conv'
p4173
S'0'
sS'Tries'
p4174
S'0'
sS'Pts'
p4175
S'0'
sa(dp4176
S'Pens'
p4177
S'0'
sS'Sub'
p4178
S'14'
p4179
sS'Lost'
p4180
S'22'
p4181
sS'Drop'
p4182
S'0'
sS'Start'
p4183
S'18'
p4184
sS'Won'
p4185
S'10'
p4186
sS'Draw'
p4187
S'0'
sS'%'
S'31.25'
p4188
sS'Mat'
p4189
S'32'
p4190
sS'Conv'
p4191
S'0'
sS'Tries'
p4192
S'3'
sS'Pts'
p4193
S'15'
p4194
sa(dp4195
S'Pens'
p4196
S'0'
sS'Sub'
p4197
S'2'
sS'Lost'
p4198
S'8'
sS'Drop'
p4199
S'0'
sS'Start'
p4200
S'8'
sS'Won'
p4201
S'2'
sS'Draw'
p4202
S'0'
sS'%'
S'20.00'
p4203
sS'Mat'
p4204
S'10'
p4205
sS'Conv'
p4206
S'0'
sS'Tries'
p4207
S'4'
sS'Pts'
p4208
S'20'
p4209
sa(dp4210
S'Pens'
p4211
S'0'
sS'Sub'
p4212
S'0'
sS'Lost'
p4213
S'6'
sS'Drop'
p4214
S'0'
sS'Start'
p4215
S'7'
sS'Won'
p4216
S'1'
sS'Draw'
p4217
S'0'
sS'%'
S'14.28'
p4218
sS'Mat'
p4219
S'7'
sS'Conv'
p4220
S'0'
sS'Tries'
p4221
S'0'
sS'Pts'
p4222
S'0'
sa(dp4223
S'Pens'
p4224
S'0'
sS'Sub'
p4225
S'6'
sS'Lost'
p4226
S'12'
p4227
sS'Drop'
p4228
S'1'
sS'Start'
p4229
S'11'
p4230
sS'Won'
p4231
S'5'
sS'Draw'
p4232
S'0'
sS'%'
S'29.41'
p4233
sS'Mat'
p4234
S'17'
p4235
sS'Conv'
p4236
S'0'
sS'Tries'
p4237
S'2'
sS'Pts'
p4238
S'13'
p4239
sa(dp4240
S'Pens'
p4241
S'0'
sS'Sub'
p4242
S'3'
sS'Lost'
p4243
S'3'
sS'Drop'
p4244
S'0'
sS'Start'
p4245
S'1'
sS'Won'
p4246
S'1'
sS'Draw'
p4247
S'0'
sS'%'
S'25.00'
p4248
sS'Mat'
p4249
S'4'
sS'Conv'
p4250
S'0'
sS'Tries'
p4251
S'0'
sS'Pts'
p4252
S'0'
sa(dp4253
S'Pens'
p4254
S'0'
sS'Sub'
p4255
S'4'
sS'Lost'
p4256
S'7'
sS'Drop'
p4257
S'0'
sS'Start'
p4258
S'5'
sS'Won'
p4259
S'2'
sS'Draw'
p4260
S'0'
sS'%'
S'22.22'
p4261
sS'Mat'
p4262
S'9'
sS'Conv'
p4263
S'0'
sS'Tries'
p4264
S'0'
sS'Pts'
p4265
S'0'
sa(dp4266
S'Pens'
p4267
S'0'
sS'Sub'
p4268
S'7'
sS'Lost'
p4269
S'15'
p4270
sS'Drop'
p4271
S'0'
sS'Start'
p4272
S'12'
p4273
sS'Won'
p4274
S'4'
sS'Draw'
p4275
S'0'
sS'%'
S'21.05'
p4276
sS'Mat'
p4277
S'19'
p4278
sS'Conv'
p4279
S'0'
sS'Tries'
p4280
S'2'
sS'Pts'
p4281
S'10'
p4282
sa(dp4283
S'Pens'
p4284
S'0'
sS'Sub'
p4285
S'1'
sS'Lost'
p4286
S'6'
sS'Drop'
p4287
S'0'
sS'Start'
p4288
S'7'
sS'Won'
p4289
S'2'
sS'Draw'
p4290
S'0'
sS'%'
S'25.00'
p4291
sS'Mat'
p4292
S'8'
sS'Conv'
p4293
S'0'
sS'Tries'
p4294
S'2'
sS'Pts'
p4295
S'10'
p4296
sa(dp4297
S'Pens'
p4298
S'0'
sS'Sub'
p4299
S'3'
sS'Lost'
p4300
S'14'
p4301
sS'Drop'
p4302
S'0'
sS'Start'
p4303
S'21'
p4304
sS'Won'
p4305
S'10'
p4306
sS'Draw'
p4307
S'0'
sS'%'
S'41.66'
p4308
sS'Mat'
p4309
S'24'
p4310
sS'Conv'
p4311
S'0'
sS'Tries'
p4312
S'1'
sS'Pts'
p4313
S'5'
sa(dp4314
S'Pens'
p4315
S'0'
sS'Sub'
p4316
S'6'
sS'Lost'
p4317
S'9'
sS'Drop'
p4318
S'0'
sS'Start'
p4319
S'6'
sS'Won'
p4320
S'3'
sS'Draw'
p4321
S'0'
sS'%'
S'25.00'
p4322
sS'Mat'
p4323
S'12'
p4324
sS'Conv'
p4325
S'0'
sS'Tries'
p4326
S'0'
sS'Pts'
p4327
S'0'
sa(dp4328
S'Pens'
p4329
S'76'
p4330
sS'Sub'
p4331
S'3'
sS'Lost'
p4332
S'29'
p4333
sS'Drop'
p4334
S'4'
sS'Start'
p4335
S'45'
p4336
sS'Won'
p4337
S'19'
p4338
sS'Draw'
p4339
S'0'
sS'%'
S'39.58'
p4340
sS'Mat'
p4341
S'48'
p4342
sS'Conv'
p4343
S'90'
p4344
sS'Tries'
p4345
S'9'
sS'Pts'
p4346
S'465'
p4347
sa(dp4348
S'Pens'
p4349
S'0'
sS'Sub'
p4350
S'1'
sS'Lost'
p4351
S'1'
sS'Drop'
p4352
S'0'
sS'Start'
p4353
S'1'
sS'Won'
p4354
S'1'
sS'Draw'
p4355
S'0'
sS'%'
S'50.00'
p4356
sS'Mat'
p4357
S'2'
sS'Conv'
p4358
S'0'
sS'Tries'
p4359
S'0'
sS'Pts'
p4360
S'0'
sa(dp4361
S'Pens'
p4362
S'0'
sS'Sub'
p4363
S'1'
sS'Lost'
p4364
S'1'
sS'Drop'
p4365
S'0'
sS'Start'
p4366
S'0'
sS'Won'
p4367
S'0'
sS'Draw'
p4368
S'0'
sS'%'
S'0.00'
p4369
sS'Mat'
p4370
S'1'
sS'Conv'
p4371
S'0'
sS'Tries'
p4372
S'0'
sS'Pts'
p4373
S'0'
sa(dp4374
S'Pens'
p4375
S'0'
sS'Sub'
p4376
S'4'
sS'Lost'
p4377
S'5'
sS'Drop'
p4378
S'0'
sS'Start'
p4379
S'7'
sS'Won'
p4380
S'6'
sS'Draw'
p4381
S'0'
sS'%'
S'54.54'
p4382
sS'Mat'
p4383
S'11'
p4384
sS'Conv'
p4385
S'0'
sS'Tries'
p4386
S'2'
sS'Pts'
p4387
S'10'
p4388
sa(dp4389
S'Pens'
p4390
S'0'
sS'Sub'
p4391
S'2'
sS'Lost'
p4392
S'1'
sS'Drop'
p4393
S'0'
sS'Start'
p4394
S'0'
sS'Won'
p4395
S'1'
sS'Draw'
p4396
S'0'
sS'%'
S'50.00'
p4397
sS'Mat'
p4398
S'2'
sS'Conv'
p4399
S'0'
sS'Tries'
p4400
S'0'
sS'Pts'
p4401
S'0'
sa(dp4402
S'Pens'
p4403
S'0'
sS'Sub'
p4404
S'8'
sS'Lost'
p4405
S'7'
sS'Drop'
p4406
S'0'
sS'Start'
p4407
S'4'
sS'Won'
p4408
S'5'
sS'Draw'
p4409
S'0'
sS'%'
S'41.66'
p4410
sS'Mat'
p4411
S'12'
p4412
sS'Conv'
p4413
S'0'
sS'Tries'
p4414
S'0'
sS'Pts'
p4415
S'0'
sa(dp4416
S'Pens'
p4417
S'0'
sS'Sub'
p4418
S'0'
sS'Lost'
p4419
S'16'
p4420
sS'Drop'
p4421
S'0'
sS'Start'
p4422
S'28'
p4423
sS'Won'
p4424
S'12'
p4425
sS'Draw'
p4426
S'0'
sS'%'
S'42.85'
p4427
sS'Mat'
p4428
S'28'
p4429
sS'Conv'
p4430
S'0'
sS'Tries'
p4431
S'9'
sS'Pts'
p4432
S'45'
p4433
sa(dp4434
S'Pens'
p4435
S'0'
sS'Sub'
p4436
S'2'
sS'Lost'
p4437
S'2'
sS'Drop'
p4438
S'0'
sS'Start'
p4439
S'2'
sS'Won'
p4440
S'2'
sS'Draw'
p4441
S'0'
sS'%'
S'50.00'
p4442
sS'Mat'
p4443
S'4'
sS'Conv'
p4444
S'0'
sS'Tries'
p4445
S'2'
sS'Pts'
p4446
S'10'
p4447
sa(dp4448
S'Pens'
p4449
S'0'
sS'Sub'
p4450
S'2'
sS'Lost'
p4451
S'1'
sS'Drop'
p4452
S'0'
sS'Start'
p4453
S'0'
sS'Won'
p4454
S'1'
sS'Draw'
p4455
S'0'
sS'%'
S'50.00'
p4456
sS'Mat'
p4457
S'2'
sS'Conv'
p4458
S'0'
sS'Tries'
p4459
S'0'
sS'Pts'
p4460
S'0'
sa(dp4461
S'Pens'
p4462
S'0'
sS'Sub'
p4463
S'0'
sS'Lost'
p4464
S'4'
sS'Drop'
p4465
S'0'
sS'Start'
p4466
S'4'
sS'Won'
p4467
S'0'
sS'Draw'
p4468
S'0'
sS'%'
S'0.00'
p4469
sS'Mat'
p4470
S'4'
sS'Conv'
p4471
S'0'
sS'Tries'
p4472
S'0'
sS'Pts'
p4473
S'0'
sa(dp4474
S'Pens'
p4475
S'0'
sS'Sub'
p4476
S'0'
sS'Lost'
p4477
S'6'
sS'Drop'
p4478
S'0'
sS'Start'
p4479
S'12'
p4480
sS'Won'
p4481
S'6'
sS'Draw'
p4482
S'0'
sS'%'
S'50.00'
p4483
sS'Mat'
p4484
S'12'
p4485
sS'Conv'
p4486
S'0'
sS'Tries'
p4487
S'5'
sS'Pts'
p4488
S'25'
p4489
sa(dp4490
S'Pens'
p4491
S'0'
sS'Sub'
p4492
S'1'
sS'Lost'
p4493
S'6'
sS'Drop'
p4494
S'0'
sS'Start'
p4495
S'12'
p4496
sS'Won'
p4497
S'7'
sS'Draw'
p4498
S'0'
sS'%'
S'53.84'
p4499
sS'Mat'
p4500
S'13'
p4501
sS'Conv'
p4502
S'0'
sS'Tries'
p4503
S'9'
sS'Pts'
p4504
S'45'
p4505
sa(dp4506
S'Pens'
p4507
S'0'
sS'Sub'
p4508
S'4'
sS'Lost'
p4509
S'32'
p4510
sS'Drop'
p4511
S'0'
sS'Start'
p4512
S'49'
p4513
sS'Won'
p4514
S'21'
p4515
sS'Draw'
p4516
S'0'
sS'%'
S'39.62'
p4517
sS'Mat'
p4518
S'53'
p4519
sS'Conv'
p4520
S'0'
sS'Tries'
p4521
S'17'
p4522
sS'Pts'
p4523
S'85'
p4524
sa(dp4525
S'Pens'
p4526
S'0'
sS'Sub'
p4527
S'6'
sS'Lost'
p4528
S'5'
sS'Drop'
p4529
S'0'
sS'Start'
p4530
S'3'
sS'Won'
p4531
S'4'
sS'Draw'
p4532
S'0'
sS'%'
S'44.44'
p4533
sS'Mat'
p4534
S'9'
sS'Conv'
p4535
S'0'
sS'Tries'
p4536
S'0'
sS'Pts'
p4537
S'0'
sa(dp4538
S'Pens'
p4539
S'0'
sS'Sub'
p4540
S'1'
sS'Lost'
p4541
S'0'
sS'Drop'
p4542
S'0'
sS'Start'
p4543
S'0'
sS'Won'
p4544
S'1'
sS'Draw'
p4545
S'0'
sS'%'
S'100.00'
p4546
sS'Mat'
p4547
S'1'
sS'Conv'
p4548
S'0'
sS'Tries'
p4549
S'0'
sS'Pts'
p4550
S'0'
sa(dp4551
S'Pens'
p4552
S'0'
sS'Sub'
p4553
S'6'
sS'Lost'
p4554
S'10'
p4555
sS'Drop'
p4556
S'0'
sS'Start'
p4557
S'9'
sS'Won'
p4558
S'5'
sS'Draw'
p4559
S'0'
sS'%'
S'33.33'
p4560
sS'Mat'
p4561
S'15'
p4562
sS'Conv'
p4563
S'0'
sS'Tries'
p4564
S'1'
sS'Pts'
p4565
S'5'
sa(dp4566
S'Pens'
p4567
S'0'
sS'Sub'
p4568
S'4'
sS'Lost'
p4569
S'6'
sS'Drop'
p4570
S'0'
sS'Start'
p4571
S'4'
sS'Won'
p4572
S'2'
sS'Draw'
p4573
S'0'
sS'%'
S'25.00'
p4574
sS'Mat'
p4575
S'8'
sS'Conv'
p4576
S'0'
sS'Tries'
p4577
S'0'
sS'Pts'
p4578
S'0'
sa(dp4579
S'Pens'
p4580
S'2'
sS'Sub'
p4581
S'4'
sS'Lost'
p4582
S'6'
sS'Drop'
p4583
S'0'
sS'Start'
p4584
S'3'
sS'Won'
p4585
S'1'
sS'Draw'
p4586
S'0'
sS'%'
S'14.28'
p4587
sS'Mat'
p4588
S'7'
sS'Conv'
p4589
S'0'
sS'Tries'
p4590
S'0'
sS'Pts'
p4591
S'6'
sa(dp4592
S'Pens'
p4593
S'0'
sS'Sub'
p4594
S'1'
sS'Lost'
p4595
S'5'
sS'Drop'
p4596
S'0'
sS'Start'
p4597
S'7'
sS'Won'
p4598
S'3'
sS'Draw'
p4599
S'0'
sS'%'
S'37.50'
p4600
sS'Mat'
p4601
S'8'
sS'Conv'
p4602
S'0'
sS'Tries'
p4603
S'0'
sS'Pts'
p4604
S'0'
sa(dp4605
S'Pens'
p4606
S'0'
sS'Sub'
p4607
S'4'
sS'Lost'
p4608
S'3'
sS'Drop'
p4609
S'0'
sS'Start'
p4610
S'1'
sS'Won'
p4611
S'2'
sS'Draw'
p4612
S'0'
sS'%'
S'40.00'
p4613
sS'Mat'
p4614
S'5'
sS'Conv'
p4615
S'0'
sS'Tries'
p4616
S'1'
sS'Pts'
p4617
S'5'
sa(dp4618
S'Pens'
p4619
S'0'
sS'Sub'
p4620
S'2'
sS'Lost'
p4621
S'41'
p4622
sS'Drop'
p4623
S'0'
sS'Start'
p4624
S'61'
p4625
sS'Won'
p4626
S'21'
p4627
sS'Draw'
p4628
S'1'
sS'%'
S'34.12'
p4629
sS'Mat'
p4630
S'63'
p4631
sS'Conv'
p4632
S'0'
sS'Tries'
p4633
S'11'
p4634
sS'Pts'
p4635
S'55'
p4636
sa(dp4637
S'Pens'
p4638
S'0'
sS'Sub'
p4639
S'5'
sS'Lost'
p4640
S'10'
p4641
sS'Drop'
p4642
S'0'
sS'Start'
p4643
S'10'
p4644
sS'Won'
p4645
S'5'
sS'Draw'
p4646
S'0'
sS'%'
S'33.33'
p4647
sS'Mat'
p4648
S'15'
p4649
sS'Conv'
p4650
S'0'
sS'Tries'
p4651
S'2'
sS'Pts'
p4652
S'10'
p4653
sa(dp4654
S'Pens'
p4655
S'0'
sS'Sub'
p4656
S'6'
sS'Lost'
p4657
S'18'
p4658
sS'Drop'
p4659
S'0'
sS'Start'
p4660
S'16'
p4661
sS'Won'
p4662
S'4'
sS'Draw'
p4663
S'0'
sS'%'
S'18.18'
p4664
sS'Mat'
p4665
S'22'
p4666
sS'Conv'
p4667
S'0'
sS'Tries'
p4668
S'5'
sS'Pts'
p4669
S'25'
p4670
sa(dp4671
S'Pens'
p4672
S'0'
sS'Sub'
p4673
S'3'
sS'Lost'
p4674
S'14'
p4675
sS'Drop'
p4676
S'0'
sS'Start'
p4677
S'16'
p4678
sS'Won'
p4679
S'5'
sS'Draw'
p4680
S'0'
sS'%'
S'26.31'
p4681
sS'Mat'
p4682
S'19'
p4683
sS'Conv'
p4684
S'0'
sS'Tries'
p4685
S'3'
sS'Pts'
p4686
S'15'
p4687
sa(dp4688
S'Pens'
p4689
S'0'
sS'Sub'
p4690
S'11'
p4691
sS'Lost'
p4692
S'8'
sS'Drop'
p4693
S'0'
sS'Start'
p4694
S'0'
sS'Won'
p4695
S'3'
sS'Draw'
p4696
S'0'
sS'%'
S'27.27'
p4697
sS'Mat'
p4698
S'11'
p4699
sS'Conv'
p4700
S'0'
sS'Tries'
p4701
S'0'
sS'Pts'
p4702
S'0'
sa(dp4703
S'Pens'
p4704
S'16'
p4705
sS'Sub'
p4706
S'0'
sS'Lost'
p4707
S'13'
p4708
sS'Drop'
p4709
S'0'
sS'Start'
p4710
S'18'
p4711
sS'Won'
p4712
S'5'
sS'Draw'
p4713
S'0'
sS'%'
S'27.77'
p4714
sS'Mat'
p4715
S'18'
p4716
sS'Conv'
p4717
S'8'
sS'Tries'
p4718
S'1'
sS'Pts'
p4719
S'69'
p4720
sa(dp4721
S'Pens'
p4722
S'0'
sS'Sub'
p4723
S'2'
sS'Lost'
p4724
S'7'
sS'Drop'
p4725
S'0'
sS'Start'
p4726
S'7'
sS'Won'
p4727
S'2'
sS'Draw'
p4728
S'0'
sS'%'
S'22.22'
p4729
sS'Mat'
p4730
S'9'
sS'Conv'
p4731
S'0'
sS'Tries'
p4732
S'0'
sS'Pts'
p4733
S'0'
sa(dp4734
S'Pens'
p4735
S'0'
sS'Sub'
p4736
S'6'
sS'Lost'
p4737
S'14'
p4738
sS'Drop'
p4739
S'0'
sS'Start'
p4740
S'12'
p4741
sS'Won'
p4742
S'4'
sS'Draw'
p4743
S'0'
sS'%'
S'22.22'
p4744
sS'Mat'
p4745
S'18'
p4746
sS'Conv'
p4747
S'0'
sS'Tries'
p4748
S'0'
sS'Pts'
p4749
S'0'
sa(dp4750
S'Pens'
p4751
S'0'
sS'Sub'
p4752
S'0'
sS'Lost'
p4753
S'2'
sS'Drop'
p4754
S'0'
sS'Start'
p4755
S'3'
sS'Won'
p4756
S'1'
sS'Draw'
p4757
S'0'
sS'%'
S'33.33'
p4758
sS'Mat'
p4759
S'3'
sS'Conv'
p4760
S'0'
sS'Tries'
p4761
S'0'
sS'Pts'
p4762
S'0'
sa(dp4763
S'Pens'
p4764
S'0'
sS'Sub'
p4765
S'1'
sS'Lost'
p4766
S'9'
sS'Drop'
p4767
S'0'
sS'Start'
p4768
S'10'
p4769
sS'Won'
p4770
S'2'
sS'Draw'
p4771
S'0'
sS'%'
S'18.18'
p4772
sS'Mat'
p4773
S'11'
p4774
sS'Conv'
p4775
S'0'
sS'Tries'
p4776
S'3'
sS'Pts'
p4777
S'15'
p4778
sa(dp4779
S'Pens'
p4780
S'0'
sS'Sub'
p4781
S'1'
sS'Lost'
p4782
S'2'
sS'Drop'
p4783
S'0'
sS'Start'
p4784
S'3'
sS'Won'
p4785
S'2'
sS'Draw'
p4786
S'0'
sS'%'
S'50.00'
p4787
sS'Mat'
p4788
S'4'
sS'Conv'
p4789
S'0'
sS'Tries'
p4790
S'0'
sS'Pts'
p4791
S'0'
sa(dp4792
S'Pens'
p4793
S'0'
sS'Sub'
p4794
S'8'
sS'Lost'
p4795
S'36'
p4796
sS'Drop'
p4797
S'0'
sS'Start'
p4798
S'43'
p4799
sS'Won'
p4800
S'14'
p4801
sS'Draw'
p4802
S'1'
sS'%'
S'28.43'
p4803
sS'Mat'
p4804
S'51'
p4805
sS'Conv'
p4806
S'0'
sS'Tries'
p4807
S'3'
sS'Pts'
p4808
S'15'
p4809
sa(dp4810
S'Pens'
p4811
S'0'
sS'Sub'
p4812
S'2'
sS'Lost'
p4813
S'2'
sS'Drop'
p4814
S'0'
sS'Start'
p4815
S'0'
sS'Won'
p4816
S'0'
sS'Draw'
p4817
S'0'
sS'%'
S'0.00'
p4818
sS'Mat'
p4819
S'2'
sS'Conv'
p4820
S'0'
sS'Tries'
p4821
S'0'
sS'Pts'
p4822
S'0'
sa(dp4823
S'Pens'
p4824
S'0'
sS'Sub'
p4825
S'3'
sS'Lost'
p4826
S'13'
p4827
sS'Drop'
p4828
S'0'
sS'Start'
p4829
S'14'
p4830
sS'Won'
p4831
S'4'
sS'Draw'
p4832
S'0'
sS'%'
S'23.52'
p4833
sS'Mat'
p4834
S'17'
p4835
sS'Conv'
p4836
S'0'
sS'Tries'
p4837
S'0'
sS'Pts'
p4838
S'0'
sa(dp4839
S'Pens'
p4840
S'0'
sS'Sub'
p4841
S'1'
sS'Lost'
p4842
S'0'
sS'Drop'
p4843
S'0'
sS'Start'
p4844
S'0'
sS'Won'
p4845
S'1'
sS'Draw'
p4846
S'0'
sS'%'
S'100.00'
p4847
sS'Mat'
p4848
S'1'
sS'Conv'
p4849
S'0'
sS'Tries'
p4850
S'0'
sS'Pts'
p4851
S'0'
sa(dp4852
S'Pens'
p4853
S'0'
sS'Sub'
p4854
S'1'
sS'Lost'
p4855
S'1'
sS'Drop'
p4856
S'0'
sS'Start'
p4857
S'1'
sS'Won'
p4858
S'1'
sS'Draw'
p4859
S'0'
sS'%'
S'50.00'
p4860
sS'Mat'
p4861
S'2'
sS'Conv'
p4862
S'0'
sS'Tries'
p4863
S'0'
sS'Pts'
p4864
S'0'
sa(dp4865
S'Pens'
p4866
S'0'
sS'Sub'
p4867
S'4'
sS'Lost'
p4868
S'6'
sS'Drop'
p4869
S'0'
sS'Start'
p4870
S'4'
sS'Won'
p4871
S'2'
sS'Draw'
p4872
S'0'
sS'%'
S'25.00'
p4873
sS'Mat'
p4874
S'8'
sS'Conv'
p4875
S'0'
sS'Tries'
p4876
S'0'
sS'Pts'
p4877
S'0'
sa(dp4878
S'Pens'
p4879
S'0'
sS'Sub'
p4880
S'1'
sS'Lost'
p4881
S'1'
sS'Drop'
p4882
S'0'
sS'Start'
p4883
S'1'
sS'Won'
p4884
S'1'
sS'Draw'
p4885
S'0'
sS'%'
S'50.00'
p4886
sS'Mat'
p4887
S'2'
sS'Conv'
p4888
S'0'
sS'Tries'
p4889
S'0'
sS'Pts'
p4890
S'0'
sa(dp4891
S'Pens'
p4892
S'0'
sS'Sub'
p4893
S'2'
sS'Lost'
p4894
S'1'
sS'Drop'
p4895
S'0'
sS'Start'
p4896
S'0'
sS'Won'
p4897
S'1'
sS'Draw'
p4898
S'0'
sS'%'
S'50.00'
p4899
sS'Mat'
p4900
S'2'
sS'Conv'
p4901
S'0'
sS'Tries'
p4902
S'0'
sS'Pts'
p4903
S'0'
sa(dp4904
S'Pens'
p4905
S'0'
sS'Sub'
p4906
S'1'
sS'Lost'
p4907
S'3'
sS'Drop'
p4908
S'0'
sS'Start'
p4909
S'3'
sS'Won'
p4910
S'1'
sS'Draw'
p4911
S'0'
sS'%'
S'25.00'
p4912
sS'Mat'
p4913
S'4'
sS'Conv'
p4914
S'0'
sS'Tries'
p4915
S'0'
sS'Pts'
p4916
S'0'
sa(dp4917
S'Pens'
p4918
S'0'
sS'Sub'
p4919
S'5'
sS'Lost'
p4920
S'10'
p4921
sS'Drop'
p4922
S'0'
sS'Start'
p4923
S'8'
sS'Won'
p4924
S'3'
sS'Draw'
p4925
S'0'
sS'%'
S'23.07'
p4926
sS'Mat'
p4927
S'13'
p4928
sS'Conv'
p4929
S'0'
sS'Tries'
p4930
S'4'
sS'Pts'
p4931
S'20'
p4932
sa(dp4933
S'Pens'
p4934
S'0'
sS'Sub'
p4935
S'0'
sS'Lost'
p4936
S'2'
sS'Drop'
p4937
S'0'
sS'Start'
p4938
S'5'
sS'Won'
p4939
S'3'
sS'Draw'
p4940
S'0'
sS'%'
S'60.00'
p4941
sS'Mat'
p4942
S'5'
sS'Conv'
p4943
S'0'
sS'Tries'
p4944
S'6'
sS'Pts'
p4945
S'30'
p4946
sa(dp4947
S'Pens'
p4948
S'0'
sS'Sub'
p4949
S'3'
sS'Lost'
p4950
S'7'
sS'Drop'
p4951
S'0'
sS'Start'
p4952
S'5'
sS'Won'
p4953
S'1'
sS'Draw'
p4954
S'0'
sS'%'
S'12.50'
p4955
sS'Mat'
p4956
S'8'
sS'Conv'
p4957
S'0'
sS'Tries'
p4958
S'0'
sS'Pts'
p4959
S'0'
sa(dp4960
S'Pens'
p4961
S'0'
sS'Sub'
p4962
S'1'
sS'Lost'
p4963
S'3'
sS'Drop'
p4964
S'0'
sS'Start'
p4965
S'3'
sS'Won'
p4966
S'1'
sS'Draw'
p4967
S'0'
sS'%'
S'25.00'
p4968
sS'Mat'
p4969
S'4'
sS'Conv'
p4970
S'0'
sS'Tries'
p4971
S'0'
sS'Pts'
p4972
S'0'
sa(dp4973
S'Pens'
p4974
S'0'
sS'Sub'
p4975
S'8'
sS'Lost'
p4976
S'5'
sS'Drop'
p4977
S'0'
sS'Start'
p4978
S'2'
sS'Won'
p4979
S'5'
sS'Draw'
p4980
S'0'
sS'%'
S'50.00'
p4981
sS'Mat'
p4982
S'10'
p4983
sS'Conv'
p4984
S'1'
sS'Tries'
p4985
S'2'
sS'Pts'
p4986
S'12'
p4987
sa(dp4988
S'Pens'
p4989
S'0'
sS'Sub'
p4990
S'6'
sS'Lost'
p4991
S'8'
sS'Drop'
p4992
S'0'
sS'Start'
p4993
S'5'
sS'Won'
p4994
S'3'
sS'Draw'
p4995
S'0'
sS'%'
S'27.27'
p4996
sS'Mat'
p4997
S'11'
p4998
sS'Conv'
p4999
S'0'
sS'Tries'
p5000
S'0'
sS'Pts'
p5001
S'0'
sa(dp5002
S'Pens'
p5003
S'0'
sS'Sub'
p5004
S'1'
sS'Lost'
p5005
S'3'
sS'Drop'
p5006
S'0'
sS'Start'
p5007
S'3'
sS'Won'
p5008
S'1'
sS'Draw'
p5009
S'0'
sS'%'
S'25.00'
p5010
sS'Mat'
p5011
S'4'
sS'Conv'
p5012
S'0'
sS'Tries'
p5013
S'1'
sS'Pts'
p5014
S'5'
sa(dp5015
S'Pens'
p5016
S'0'
sS'Sub'
p5017
S'2'
sS'Lost'
p5018
S'4'
sS'Drop'
p5019
S'0'
sS'Start'
p5020
S'5'
sS'Won'
p5021
S'3'
sS'Draw'
p5022
S'0'
sS'%'
S'42.85'
p5023
sS'Mat'
p5024
S'7'
sS'Conv'
p5025
S'0'
sS'Tries'
p5026
S'2'
sS'Pts'
p5027
S'10'
p5028
sa(dp5029
S'Pens'
p5030
S'0'
sS'Sub'
p5031
S'3'
sS'Lost'
p5032
S'3'
sS'Drop'
p5033
S'0'
sS'Start'
p5034
S'0'
sS'Won'
p5035
S'0'
sS'Draw'
p5036
S'0'
sS'%'
S'0.00'
p5037
sS'Mat'
p5038
S'3'
sS'Conv'
p5039
S'0'
sS'Tries'
p5040
S'0'
sS'Pts'
p5041
S'0'
sa(dp5042
S'Pens'
p5043
S'2'
sS'Sub'
p5044
S'1'
sS'Lost'
p5045
S'2'
sS'Drop'
p5046
S'0'
sS'Start'
p5047
S'2'
sS'Won'
p5048
S'1'
sS'Draw'
p5049
S'0'
sS'%'
S'33.33'
p5050
sS'Mat'
p5051
S'3'
sS'Conv'
p5052
S'0'
sS'Tries'
p5053
S'0'
sS'Pts'
p5054
S'6'
sa(dp5055
S'Pens'
p5056
S'0'
sS'Sub'
p5057
S'0'
sS'Lost'
p5058
S'2'
sS'Drop'
p5059
S'0'
sS'Start'
p5060
S'2'
sS'Won'
p5061
S'0'
sS'Draw'
p5062
S'0'
sS'%'
S'0.00'
p5063
sS'Mat'
p5064
S'2'
sS'Conv'
p5065
S'0'
sS'Tries'
p5066
S'0'
sS'Pts'
p5067
S'0'
sa(dp5068
S'Pens'
p5069
S'0'
sS'Sub'
p5070
S'2'
sS'Lost'
p5071
S'2'
sS'Drop'
p5072
S'0'
sS'Start'
p5073
S'3'
sS'Won'
p5074
S'3'
sS'Draw'
p5075
S'0'
sS'%'
S'60.00'
p5076
sS'Mat'
p5077
S'5'
sS'Conv'
p5078
S'0'
sS'Tries'
p5079
S'0'
sS'Pts'
p5080
S'0'
sa(dp5081
S'Pens'
p5082
S'0'
sS'Sub'
p5083
S'1'
sS'Lost'
p5084
S'5'
sS'Drop'
p5085
S'0'
sS'Start'
p5086
S'7'
sS'Won'
p5087
S'3'
sS'Draw'
p5088
S'0'
sS'%'
S'37.50'
p5089
sS'Mat'
p5090
S'8'
sS'Conv'
p5091
S'0'
sS'Tries'
p5092
S'0'
sS'Pts'
p5093
S'0'
sa(dp5094
S'Pens'
p5095
S'0'
sS'Sub'
p5096
S'0'
sS'Lost'
p5097
S'1'
sS'Drop'
p5098
S'0'
sS'Start'
p5099
S'1'
sS'Won'
p5100
S'0'
sS'Draw'
p5101
S'0'
sS'%'
S'0.00'
p5102
sS'Mat'
p5103
S'1'
sS'Conv'
p5104
S'0'
sS'Tries'
p5105
S'0'
sS'Pts'
p5106
S'0'
sa(dp5107
S'Pens'
p5108
S'0'
sS'Sub'
p5109
S'4'
sS'Lost'
p5110
S'7'
sS'Drop'
p5111
S'0'
sS'Start'
p5112
S'6'
sS'Won'
p5113
S'3'
sS'Draw'
p5114
S'0'
sS'%'
S'30.00'
p5115
sS'Mat'
p5116
S'10'
p5117
sS'Conv'
p5118
S'0'
sS'Tries'
p5119
S'1'
sS'Pts'
p5120
S'5'
sa(dp5121
S'Pens'
p5122
S'0'
sS'Sub'
p5123
S'2'
sS'Lost'
p5124
S'1'
sS'Drop'
p5125
S'0'
sS'Start'
p5126
S'0'
sS'Won'
p5127
S'1'
sS'Draw'
p5128
S'0'
sS'%'
S'50.00'
p5129
sS'Mat'
p5130
S'2'
sS'Conv'
p5131
S'0'
sS'Tries'
p5132
S'0'
sS'Pts'
p5133
S'0'
sa(dp5134
S'Pens'
p5135
S'0'
sS'Sub'
p5136
S'2'
sS'Lost'
p5137
S'2'
sS'Drop'
p5138
S'0'
sS'Start'
p5139
S'1'
sS'Won'
p5140
S'1'
sS'Draw'
p5141
S'0'
sS'%'
S'33.33'
p5142
sS'Mat'
p5143
S'3'
sS'Conv'
p5144
S'0'
sS'Tries'
p5145
S'0'
sS'Pts'
p5146
S'0'
sa(dp5147
S'Pens'
p5148
S'0'
sS'Sub'
p5149
S'9'
sS'Lost'
p5150
S'7'
sS'Drop'
p5151
S'0'
sS'Start'
p5152
S'0'
sS'Won'
p5153
S'2'
sS'Draw'
p5154
S'0'
sS'%'
S'22.22'
p5155
sS'Mat'
p5156
S'9'
sS'Conv'
p5157
S'0'
sS'Tries'
p5158
S'0'
sS'Pts'
p5159
S'0'
sa(dp5160
S'Pens'
p5161
S'0'
sS'Sub'
p5162
S'2'
sS'Lost'
p5163
S'0'
sS'Drop'
p5164
S'0'
sS'Start'
p5165
S'0'
sS'Won'
p5166
S'2'
sS'Draw'
p5167
S'0'
sS'%'
S'100.00'
p5168
sS'Mat'
p5169
S'2'
sS'Conv'
p5170
S'0'
sS'Tries'
p5171
S'0'
sS'Pts'
p5172
S'0'
sa(dp5173
S'Pens'
p5174
S'0'
sS'Sub'
p5175
S'0'
sS'Lost'
p5176
S'8'
sS'Drop'
p5177
S'0'
sS'Start'
p5178
S'9'
sS'Won'
p5179
S'1'
sS'Draw'
p5180
S'0'
sS'%'
S'11.11'
p5181
sS'Mat'
p5182
S'9'
sS'Conv'
p5183
S'0'
sS'Tries'
p5184
S'0'
sS'Pts'
p5185
S'0'
sa(dp5186
S'Pens'
p5187
S'10'
p5188
sS'Sub'
p5189
S'11'
p5190
sS'Lost'
p5191
S'17'
p5192
sS'Drop'
p5193
S'1'
sS'Start'
p5194
S'12'
p5195
sS'Won'
p5196
S'6'
sS'Draw'
p5197
S'0'
sS'%'
S'26.08'
p5198
sS'Mat'
p5199
S'23'
p5200
sS'Conv'
p5201
S'16'
p5202
sS'Tries'
p5203
S'0'
sS'Pts'
p5204
S'65'
p5205
sa(dp5206
S'Pens'
p5207
S'0'
sS'Sub'
p5208
S'0'
sS'Lost'
p5209
S'3'
sS'Drop'
p5210
S'0'
sS'Start'
p5211
S'4'
sS'Won'
p5212
S'1'
sS'Draw'
p5213
S'0'
sS'%'
S'25.00'
p5214
sS'Mat'
p5215
S'4'
sS'Conv'
p5216
S'0'
sS'Tries'
p5217
S'0'
sS'Pts'
p5218
S'0'
sa(dp5219
S'Pens'
p5220
S'31'
p5221
sS'Sub'
p5222
S'2'
sS'Lost'
p5223
S'29'
p5224
sS'Drop'
p5225
S'1'
sS'Start'
p5226
S'43'
p5227
sS'Won'
p5228
S'15'
p5229
sS'Draw'
p5230
S'1'
sS'%'
S'34.44'
p5231
sS'Mat'
p5232
S'45'
p5233
sS'Conv'
p5234
S'23'
p5235
sS'Tries'
p5236
S'14'
p5237
sS'Pts'
p5238
S'212'
p5239
sa(dp5240
S'Pens'
p5241
S'0'
sS'Sub'
p5242
S'2'
sS'Lost'
p5243
S'2'
sS'Drop'
p5244
S'0'
sS'Start'
p5245
S'0'
sS'Won'
p5246
S'0'
sS'Draw'
p5247
S'0'
sS'%'
S'0.00'
p5248
sS'Mat'
p5249
S'2'
sS'Conv'
p5250
S'0'
sS'Tries'
p5251
S'0'
sS'Pts'
p5252
S'0'
sa(dp5253
S'Pens'
p5254
S'0'
sS'Sub'
p5255
S'1'
sS'Lost'
p5256
S'4'
sS'Drop'
p5257
S'0'
sS'Start'
p5258
S'3'
sS'Won'
p5259
S'0'
sS'Draw'
p5260
S'0'
sS'%'
S'0.00'
p5261
sS'Mat'
p5262
S'4'
sS'Conv'
p5263
S'0'
sS'Tries'
p5264
S'0'
sS'Pts'
p5265
S'0'
sa(dp5266
S'Pens'
p5267
S'0'
sS'Sub'
p5268
S'8'
sS'Lost'
p5269
S'10'
p5270
sS'Drop'
p5271
S'0'
sS'Start'
p5272
S'7'
sS'Won'
p5273
S'5'
sS'Draw'
p5274
S'0'
sS'%'
S'33.33'
p5275
sS'Mat'
p5276
S'15'
p5277
sS'Conv'
p5278
S'0'
sS'Tries'
p5279
S'0'
sS'Pts'
p5280
S'0'
sa(dp5281
S'Pens'
p5282
S'0'
sS'Sub'
p5283
S'1'
sS'Lost'
p5284
S'2'
sS'Drop'
p5285
S'0'
sS'Start'
p5286
S'1'
sS'Won'
p5287
S'0'
sS'Draw'
p5288
S'0'
sS'%'
S'0.00'
p5289
sS'Mat'
p5290
S'2'
sS'Conv'
p5291
S'0'
sS'Tries'
p5292
S'0'
sS'Pts'
p5293
S'0'
sa(dp5294
S'Pens'
p5295
S'0'
sS'Sub'
p5296
S'2'
sS'Lost'
p5297
S'5'
sS'Drop'
p5298
S'0'
sS'Start'
p5299
S'3'
sS'Won'
p5300
S'0'
sS'Draw'
p5301
S'0'
sS'%'
S'0.00'
p5302
sS'Mat'
p5303
S'5'
sS'Conv'
p5304
S'0'
sS'Tries'
p5305
S'0'
sS'Pts'
p5306
S'0'
sa(dp5307
S'Pens'
p5308
S'0'
sS'Sub'
p5309
S'0'
sS'Lost'
p5310
S'19'
p5311
sS'Drop'
p5312
S'0'
sS'Start'
p5313
S'29'
p5314
sS'Won'
p5315
S'10'
p5316
sS'Draw'
p5317
S'0'
sS'%'
S'34.48'
p5318
sS'Mat'
p5319
S'29'
p5320
sS'Conv'
p5321
S'0'
sS'Tries'
p5322
S'12'
p5323
sS'Pts'
p5324
S'60'
p5325
sa(dp5326
S'Pens'
p5327
S'0'
sS'Sub'
p5328
S'8'
sS'Lost'
p5329
S'20'
p5330
sS'Drop'
p5331
S'0'
sS'Start'
p5332
S'21'
p5333
sS'Won'
p5334
S'9'
sS'Draw'
p5335
S'0'
sS'%'
S'31.03'
p5336
sS'Mat'
p5337
S'29'
p5338
sS'Conv'
p5339
S'0'
sS'Tries'
p5340
S'1'
sS'Pts'
p5341
S'5'
sa(dp5342
S'Pens'
p5343
S'0'
sS'Sub'
p5344
S'3'
sS'Lost'
p5345
S'4'
sS'Drop'
p5346
S'0'
sS'Start'
p5347
S'2'
sS'Won'
p5348
S'1'
sS'Draw'
p5349
S'0'
sS'%'
S'20.00'
p5350
sS'Mat'
p5351
S'5'
sS'Conv'
p5352
S'0'
sS'Tries'
p5353
S'0'
sS'Pts'
p5354
S'0'
sa(dp5355
S'Pens'
p5356
S'0'
sS'Sub'
p5357
S'15'
p5358
sS'Lost'
p5359
S'31'
p5360
sS'Drop'
p5361
S'1'
sS'Start'
p5362
S'33'
p5363
sS'Won'
p5364
S'16'
p5365
sS'Draw'
p5366
S'1'
sS'%'
S'34.37'
p5367
sS'Mat'
p5368
S'48'
p5369
sS'Conv'
p5370
S'0'
sS'Tries'
p5371
S'4'
sS'Pts'
p5372
S'23'
p5373
sa(dp5374
S'Pens'
p5375
S'1'
sS'Sub'
p5376
S'0'
sS'Lost'
p5377
S'5'
sS'Drop'
p5378
S'0'
sS'Start'
p5379
S'6'
sS'Won'
p5380
S'1'
sS'Draw'
p5381
S'0'
sS'%'
S'16.66'
p5382
sS'Mat'
p5383
S'6'
sS'Conv'
p5384
S'1'
sS'Tries'
p5385
S'2'
sS'Pts'
p5386
S'15'
p5387
sa(dp5388
S'Pens'
p5389
S'0'
sS'Sub'
p5390
S'2'
sS'Lost'
p5391
S'12'
p5392
sS'Drop'
p5393
S'0'
sS'Start'
p5394
S'19'
p5395
sS'Won'
p5396
S'9'
sS'Draw'
p5397
S'0'
sS'%'
S'42.85'
p5398
sS'Mat'
p5399
S'21'
p5400
sS'Conv'
p5401
S'0'
sS'Tries'
p5402
S'1'
sS'Pts'
p5403
S'5'
sa(dp5404
S'Pens'
p5405
S'0'
sS'Sub'
p5406
S'4'
sS'Lost'
p5407
S'13'
p5408
sS'Drop'
p5409
S'0'
sS'Start'
p5410
S'11'
p5411
sS'Won'
p5412
S'2'
sS'Draw'
p5413
S'0'
sS'%'
S'13.33'
p5414
sS'Mat'
p5415
S'15'
p5416
sS'Conv'
p5417
S'0'
sS'Tries'
p5418
S'1'
sS'Pts'
p5419
S'5'
sa(dp5420
S'Pens'
p5421
S'0'
sS'Sub'
p5422
S'3'
sS'Lost'
p5423
S'3'
sS'Drop'
p5424
S'0'
sS'Start'
p5425
S'0'
sS'Won'
p5426
S'0'
sS'Draw'
p5427
S'0'
sS'%'
S'0.00'
p5428
sS'Mat'
p5429
S'3'
sS'Conv'
p5430
S'0'
sS'Tries'
p5431
S'0'
sS'Pts'
p5432
S'0'
sa(dp5433
S'Pens'
p5434
S'0'
sS'Sub'
p5435
S'1'
sS'Lost'
p5436
S'3'
sS'Drop'
p5437
S'0'
sS'Start'
p5438
S'2'
sS'Won'
p5439
S'0'
sS'Draw'
p5440
S'0'
sS'%'
S'0.00'
p5441
sS'Mat'
p5442
S'3'
sS'Conv'
p5443
S'0'
sS'Tries'
p5444
S'0'
sS'Pts'
p5445
S'0'
sa(dp5446
S'Pens'
p5447
S'0'
sS'Sub'
p5448
S'2'
sS'Lost'
p5449
S'2'
sS'Drop'
p5450
S'0'
sS'Start'
p5451
S'0'
sS'Won'
p5452
S'0'
sS'Draw'
p5453
S'0'
sS'%'
S'0.00'
p5454
sS'Mat'
p5455
S'2'
sS'Conv'
p5456
S'0'
sS'Tries'
p5457
S'0'
sS'Pts'
p5458
S'0'
sa(dp5459
S'Pens'
p5460
S'0'
sS'Sub'
p5461
S'0'
sS'Lost'
p5462
S'2'
sS'Drop'
p5463
S'0'
sS'Start'
p5464
S'2'
sS'Won'
p5465
S'0'
sS'Draw'
p5466
S'0'
sS'%'
S'0.00'
p5467
sS'Mat'
p5468
S'2'
sS'Conv'
p5469
S'0'
sS'Tries'
p5470
S'0'
sS'Pts'
p5471
S'0'
sa(dp5472
S'Pens'
p5473
S'0'
sS'Sub'
p5474
S'6'
sS'Lost'
p5475
S'9'
sS'Drop'
p5476
S'0'
sS'Start'
p5477
S'6'
sS'Won'
p5478
S'3'
sS'Draw'
p5479
S'0'
sS'%'
S'25.00'
p5480
sS'Mat'
p5481
S'12'
p5482
sS'Conv'
p5483
S'0'
sS'Tries'
p5484
S'3'
sS'Pts'
p5485
S'15'
p5486
sa(dp5487
S'Pens'
p5488
S'0'
sS'Sub'
p5489
S'1'
sS'Lost'
p5490
S'4'
sS'Drop'
p5491
S'0'
sS'Start'
p5492
S'7'
sS'Won'
p5493
S'4'
sS'Draw'
p5494
S'0'
sS'%'
S'50.00'
p5495
sS'Mat'
p5496
S'8'
sS'Conv'
p5497
S'0'
sS'Tries'
p5498
S'1'
sS'Pts'
p5499
S'5'
sa(dp5500
S'Pens'
p5501
S'0'
sS'Sub'
p5502
S'1'
sS'Lost'
p5503
S'14'
p5504
sS'Drop'
p5505
S'0'
sS'Start'
p5506
S'21'
p5507
sS'Won'
p5508
S'7'
sS'Draw'
p5509
S'1'
sS'%'
S'34.09'
p5510
sS'Mat'
p5511
S'22'
p5512
sS'Conv'
p5513
S'0'
sS'Tries'
p5514
S'0'
sS'Pts'
p5515
S'0'
sa(dp5516
S'Pens'
p5517
S'0'
sS'Sub'
p5518
S'10'
p5519
sS'Lost'
p5520
S'7'
sS'Drop'
p5521
S'0'
sS'Start'
p5522
S'4'
sS'Won'
p5523
S'7'
sS'Draw'
p5524
S'0'
sS'%'
S'50.00'
p5525
sS'Mat'
p5526
S'14'
p5527
sS'Conv'
p5528
S'0'
sS'Tries'
p5529
S'2'
sS'Pts'
p5530
S'10'
p5531
sa(dp5532
S'Pens'
p5533
S'0'
sS'Sub'
p5534
S'7'
sS'Lost'
p5535
S'20'
p5536
sS'Drop'
p5537
S'0'
sS'Start'
p5538
S'23'
p5539
sS'Won'
p5540
S'10'
p5541
sS'Draw'
p5542
S'0'
sS'%'
S'33.33'
p5543
sS'Mat'
p5544
S'30'
p5545
sS'Conv'
p5546
S'0'
sS'Tries'
p5547
S'0'
sS'Pts'
p5548
S'0'
sa(dp5549
S'Pens'
p5550
S'0'
sS'Sub'
p5551
S'2'
sS'Lost'
p5552
S'21'
p5553
sS'Drop'
p5554
S'0'
sS'Start'
p5555
S'31'
p5556
sS'Won'
p5557
S'11'
p5558
sS'Draw'
p5559
S'1'
sS'%'
S'34.84'
p5560
sS'Mat'
p5561
S'33'
p5562
sS'Conv'
p5563
S'0'
sS'Tries'
p5564
S'6'
sS'Pts'
p5565
S'30'
p5566
sa(dp5567
S'Pens'
p5568
S'0'
sS'Sub'
p5569
S'5'
sS'Lost'
p5570
S'4'
sS'Drop'
p5571
S'0'
sS'Start'
p5572
S'0'
sS'Won'
p5573
S'1'
sS'Draw'
p5574
S'0'
sS'%'
S'20.00'
p5575
sS'Mat'
p5576
S'5'
sS'Conv'
p5577
S'0'
sS'Tries'
p5578
S'1'
sS'Pts'
p5579
S'5'
sa(dp5580
S'Pens'
p5581
S'0'
sS'Sub'
p5582
S'0'
sS'Lost'
p5583
S'1'
sS'Drop'
p5584
S'0'
sS'Start'
p5585
S'1'
sS'Won'
p5586
S'0'
sS'Draw'
p5587
S'0'
sS'%'
S'0.00'
p5588
sS'Mat'
p5589
S'1'
sS'Conv'
p5590
S'0'
sS'Tries'
p5591
S'0'
sS'Pts'
p5592
S'0'
sa(dp5593
S'Pens'
p5594
S'0'
sS'Sub'
p5595
S'3'
sS'Lost'
p5596
S'3'
sS'Drop'
p5597
S'0'
sS'Start'
p5598
S'0'
sS'Won'
p5599
S'0'
sS'Draw'
p5600
S'0'
sS'%'
S'0.00'
p5601
sS'Mat'
p5602
S'3'
sS'Conv'
p5603
S'0'
sS'Tries'
p5604
S'0'
sS'Pts'
p5605
S'0'
sa(dp5606
S'Pens'
p5607
S'0'
sS'Sub'
p5608
S'7'
sS'Lost'
p5609
S'19'
p5610
sS'Drop'
p5611
S'0'
sS'Start'
p5612
S'21'
p5613
sS'Won'
p5614
S'9'
sS'Draw'
p5615
S'0'
sS'%'
S'32.14'
p5616
sS'Mat'
p5617
S'28'
p5618
sS'Conv'
p5619
S'0'
sS'Tries'
p5620
S'0'
sS'Pts'
p5621
S'0'
sa(dp5622
S'Pens'
p5623
S'0'
sS'Sub'
p5624
S'3'
sS'Lost'
p5625
S'10'
p5626
sS'Drop'
p5627
S'0'
sS'Start'
p5628
S'9'
sS'Won'
p5629
S'2'
sS'Draw'
p5630
S'0'
sS'%'
S'16.66'
p5631
sS'Mat'
p5632
S'12'
p5633
sS'Conv'
p5634
S'0'
sS'Tries'
p5635
S'0'
sS'Pts'
p5636
S'0'
sa(dp5637
S'Pens'
p5638
S'0'
sS'Sub'
p5639
S'4'
sS'Lost'
p5640
S'11'
p5641
sS'Drop'
p5642
S'0'
sS'Start'
p5643
S'14'
p5644
sS'Won'
p5645
S'7'
sS'Draw'
p5646
S'0'
sS'%'
S'38.88'
p5647
sS'Mat'
p5648
S'18'
p5649
sS'Conv'
p5650
S'0'
sS'Tries'
p5651
S'0'
sS'Pts'
p5652
S'0'
sa(dp5653
S'Pens'
p5654
S'0'
sS'Sub'
p5655
S'0'
sS'Lost'
p5656
S'2'
sS'Drop'
p5657
S'0'
sS'Start'
p5658
S'4'
sS'Won'
p5659
S'2'
sS'Draw'
p5660
S'0'
sS'%'
S'50.00'
p5661
sS'Mat'
p5662
S'4'
sS'Conv'
p5663
S'0'
sS'Tries'
p5664
S'0'
sS'Pts'
p5665
S'0'
sa(dp5666
S'Pens'
p5667
S'0'
sS'Sub'
p5668
S'7'
sS'Lost'
p5669
S'12'
p5670
sS'Drop'
p5671
S'0'
sS'Start'
p5672
S'10'
p5673
sS'Won'
p5674
S'5'
sS'Draw'
p5675
S'0'
sS'%'
S'29.41'
p5676
sS'Mat'
p5677
S'17'
p5678
sS'Conv'
p5679
S'0'
sS'Tries'
p5680
S'1'
sS'Pts'
p5681
S'5'
sa(dp5682
S'Pens'
p5683
S'0'
sS'Sub'
p5684
S'0'
sS'Lost'
p5685
S'8'
sS'Drop'
p5686
S'0'
sS'Start'
p5687
S'13'
p5688
sS'Won'
p5689
S'5'
sS'Draw'
p5690
S'0'
sS'%'
S'38.46'
p5691
sS'Mat'
p5692
S'13'
p5693
sS'Conv'
p5694
S'0'
sS'Tries'
p5695
S'6'
sS'Pts'
p5696
S'30'
p5697
sa(dp5698
S'Pens'
p5699
S'0'
sS'Sub'
p5700
S'3'
sS'Lost'
p5701
S'3'
sS'Drop'
p5702
S'1'
sS'Start'
p5703
S'1'
sS'Won'
p5704
S'1'
sS'Draw'
p5705
S'0'
sS'%'
S'25.00'
p5706
sS'Mat'
p5707
S'4'
sS'Conv'
p5708
S'1'
sS'Tries'
p5709
S'0'
sS'Pts'
p5710
S'5'
sa(dp5711
S'Pens'
p5712
S'0'
sS'Sub'
p5713
S'9'
sS'Lost'
p5714
S'11'
p5715
sS'Drop'
p5716
S'0'
sS'Start'
p5717
S'10'
p5718
sS'Won'
p5719
S'8'
sS'Draw'
p5720
S'0'
sS'%'
S'42.10'
p5721
sS'Mat'
p5722
S'19'
p5723
sS'Conv'
p5724
S'0'
sS'Tries'
p5725
S'2'
sS'Pts'
p5726
S'10'
p5727
sa(dp5728
S'Pens'
p5729
S'0'
sS'Sub'
p5730
S'3'
sS'Lost'
p5731
S'2'
sS'Drop'
p5732
S'0'
sS'Start'
p5733
S'0'
sS'Won'
p5734
S'1'
sS'Draw'
p5735
S'0'
sS'%'
S'33.33'
p5736
sS'Mat'
p5737
S'3'
sS'Conv'
p5738
S'0'
sS'Tries'
p5739
S'0'
sS'Pts'
p5740
S'0'
sa(dp5741
S'Pens'
p5742
S'0'
sS'Sub'
p5743
S'2'
sS'Lost'
p5744
S'4'
sS'Drop'
p5745
S'0'
sS'Start'
p5746
S'5'
sS'Won'
p5747
S'3'
sS'Draw'
p5748
S'0'
sS'%'
S'42.85'
p5749
sS'Mat'
p5750
S'7'
sS'Conv'
p5751
S'0'
sS'Tries'
p5752
S'1'
sS'Pts'
p5753
S'5'
sa(dp5754
S'Pens'
p5755
S'0'
sS'Sub'
p5756
S'6'
sS'Lost'
p5757
S'16'
p5758
sS'Drop'
p5759
S'0'
sS'Start'
p5760
S'20'
p5761
sS'Won'
p5762
S'9'
sS'Draw'
p5763
S'1'
sS'%'
S'36.53'
p5764
sS'Mat'
p5765
S'26'
p5766
sS'Conv'
p5767
S'0'
sS'Tries'
p5768
S'1'
sS'Pts'
p5769
S'5'
sa(dp5770
S'Pens'
p5771
S'0'
sS'Sub'
p5772
S'2'
sS'Lost'
p5773
S'0'
sS'Drop'
p5774
S'0'
sS'Start'
p5775
S'0'
sS'Won'
p5776
S'2'
sS'Draw'
p5777
S'0'
sS'%'
S'100.00'
p5778
sS'Mat'
p5779
S'2'
sS'Conv'
p5780
S'0'
sS'Tries'
p5781
S'0'
sS'Pts'
p5782
S'0'
sa(dp5783
S'Pens'
p5784
S'0'
sS'Sub'
p5785
S'4'
sS'Lost'
p5786
S'3'
sS'Drop'
p5787
S'0'
sS'Start'
p5788
S'2'
sS'Won'
p5789
S'3'
sS'Draw'
p5790
S'0'
sS'%'
S'50.00'
p5791
sS'Mat'
p5792
S'6'
sS'Conv'
p5793
S'0'
sS'Tries'
p5794
S'1'
sS'Pts'
p5795
S'5'
sa(dp5796
S'Pens'
p5797
S'0'
sS'Sub'
p5798
S'0'
sS'Lost'
p5799
S'0'
sS'Drop'
p5800
S'0'
sS'Start'
p5801
S'1'
sS'Won'
p5802
S'1'
sS'Draw'
p5803
S'0'
sS'%'
S'100.00'
p5804
sS'Mat'
p5805
S'1'
sS'Conv'
p5806
S'0'
sS'Tries'
p5807
S'0'
sS'Pts'
p5808
S'0'
sa(dp5809
S'Pens'
p5810
S'0'
sS'Sub'
p5811
S'3'
sS'Lost'
p5812
S'18'
p5813
sS'Drop'
p5814
S'0'
sS'Start'
p5815
S'26'
p5816
sS'Won'
p5817
S'10'
p5818
sS'Draw'
p5819
S'1'
sS'%'
S'36.20'
p5820
sS'Mat'
p5821
S'29'
p5822
sS'Conv'
p5823
S'0'
sS'Tries'
p5824
S'1'
sS'Pts'
p5825
S'5'
sa(dp5826
S'Pens'
p5827
S'0'
sS'Sub'
p5828
S'1'
sS'Lost'
p5829
S'0'
sS'Drop'
p5830
S'0'
sS'Start'
p5831
S'0'
sS'Won'
p5832
S'1'
sS'Draw'
p5833
S'0'
sS'%'
S'100.00'
p5834
sS'Mat'
p5835
S'1'
sS'Conv'
p5836
S'0'
sS'Tries'
p5837
S'0'
sS'Pts'
p5838
S'0'
sa(dp5839
S'Pens'
p5840
S'1'
sS'Sub'
p5841
S'1'
sS'Lost'
p5842
S'0'
sS'Drop'
p5843
S'0'
sS'Start'
p5844
S'0'
sS'Won'
p5845
S'1'
sS'Draw'
p5846
S'0'
sS'%'
S'100.00'
p5847
sS'Mat'
p5848
S'1'
sS'Conv'
p5849
S'0'
sS'Tries'
p5850
S'0'
sS'Pts'
p5851
S'3'
sa(dp5852
S'Pens'
p5853
S'0'
sS'Sub'
p5854
S'0'
sS'Lost'
p5855
S'0'
sS'Drop'
p5856
S'0'
sS'Start'
p5857
S'1'
sS'Won'
p5858
S'1'
sS'Draw'
p5859
S'0'
sS'%'
S'100.00'
p5860
sS'Mat'
p5861
S'1'
sS'Conv'
p5862
S'0'
sS'Tries'
p5863
S'0'
sS'Pts'
p5864
S'0'
sa(dp5865
S'Pens'
p5866
S'0'
sS'Sub'
p5867
S'0'
sS'Lost'
p5868
S'5'
sS'Drop'
p5869
S'0'
sS'Start'
p5870
S'10'
p5871
sS'Won'
p5872
S'4'
sS'Draw'
p5873
S'1'
sS'%'
S'45.00'
p5874
sS'Mat'
p5875
S'10'
p5876
sS'Conv'
p5877
S'0'
sS'Tries'
p5878
S'2'
sS'Pts'
p5879
S'10'
p5880
sa(dp5881
S'Pens'
p5882
S'0'
sS'Sub'
p5883
S'4'
sS'Lost'
p5884
S'5'
sS'Drop'
p5885
S'0'
sS'Start'
p5886
S'2'
sS'Won'
p5887
S'1'
sS'Draw'
p5888
S'0'
sS'%'
S'16.66'
p5889
sS'Mat'
p5890
S'6'
sS'Conv'
p5891
S'1'
sS'Tries'
p5892
S'1'
sS'Pts'
p5893
S'7'
sa(dp5894
S'Pens'
p5895
S'0'
sS'Sub'
p5896
S'7'
sS'Lost'
p5897
S'18'
p5898
sS'Drop'
p5899
S'0'
sS'Start'
p5900
S'20'
p5901
sS'Won'
p5902
S'8'
sS'Draw'
p5903
S'1'
sS'%'
S'31.48'
p5904
sS'Mat'
p5905
S'27'
p5906
sS'Conv'
p5907
S'0'
sS'Tries'
p5908
S'3'
sS'Pts'
p5909
S'15'
p5910
sa(dp5911
S'Pens'
p5912
S'0'
sS'Sub'
p5913
S'1'
sS'Lost'
p5914
S'2'
sS'Drop'
p5915
S'0'
sS'Start'
p5916
S'1'
sS'Won'
p5917
S'0'
sS'Draw'
p5918
S'0'
sS'%'
S'0.00'
p5919
sS'Mat'
p5920
S'2'
sS'Conv'
p5921
S'0'
sS'Tries'
p5922
S'0'
sS'Pts'
p5923
S'0'
sa(dp5924
S'Pens'
p5925
S'0'
sS'Sub'
p5926
S'4'
sS'Lost'
p5927
S'14'
p5928
sS'Drop'
p5929
S'0'
sS'Start'
p5930
S'17'
p5931
sS'Won'
p5932
S'6'
sS'Draw'
p5933
S'1'
sS'%'
S'30.95'
p5934
sS'Mat'
p5935
S'21'
p5936
sS'Conv'
p5937
S'0'
sS'Tries'
p5938
S'7'
sS'Pts'
p5939
S'35'
p5940
sa(dp5941
S'Pens'
p5942
S'1'
sS'Sub'
p5943
S'1'
sS'Lost'
p5944
S'10'
p5945
sS'Drop'
p5946
S'0'
sS'Start'
p5947
S'11'
p5948
sS'Won'
p5949
S'2'
sS'Draw'
p5950
S'0'
sS'%'
S'16.66'
p5951
sS'Mat'
p5952
S'12'
p5953
sS'Conv'
p5954
S'1'
sS'Tries'
p5955
S'2'
sS'Pts'
p5956
S'15'
p5957
sa(dp5958
S'Pens'
p5959
S'0'
sS'Sub'
p5960
S'1'
sS'Lost'
p5961
S'1'
sS'Drop'
p5962
S'0'
sS'Start'
p5963
S'0'
sS'Won'
p5964
S'0'
sS'Draw'
p5965
S'0'
sS'%'
S'0.00'
p5966
sS'Mat'
p5967
S'1'
sS'Conv'
p5968
S'0'
sS'Tries'
p5969
S'0'
sS'Pts'
p5970
S'0'
sa(dp5971
S'Pens'
p5972
S'0'
sS'Sub'
p5973
S'2'
sS'Lost'
p5974
S'2'
sS'Drop'
p5975
S'0'
sS'Start'
p5976
S'1'
sS'Won'
p5977
S'1'
sS'Draw'
p5978
S'0'
sS'%'
S'33.33'
p5979
sS'Mat'
p5980
S'3'
sS'Conv'
p5981
S'0'
sS'Tries'
p5982
S'0'
sS'Pts'
p5983
S'0'
sa(dp5984
S'Pens'
p5985
S'2'
sS'Sub'
p5986
S'2'
sS'Lost'
p5987
S'2'
sS'Drop'
p5988
S'0'
sS'Start'
p5989
S'1'
sS'Won'
p5990
S'1'
sS'Draw'
p5991
S'0'
sS'%'
S'33.33'
p5992
sS'Mat'
p5993
S'3'
sS'Conv'
p5994
S'2'
sS'Tries'
p5995
S'0'
sS'Pts'
p5996
S'10'
p5997
sa(dp5998
S'Pens'
p5999
S'0'
sS'Sub'
p6000
S'4'
sS'Lost'
p6001
S'9'
sS'Drop'
p6002
S'0'
sS'Start'
p6003
S'13'
p6004
sS'Won'
p6005
S'7'
sS'Draw'
p6006
S'1'
sS'%'
S'44.11'
p6007
sS'Mat'
p6008
S'17'
p6009
sS'Conv'
p6010
S'0'
sS'Tries'
p6011
S'2'
sS'Pts'
p6012
S'10'
p6013
sa(dp6014
S'Pens'
p6015
S'0'
sS'Sub'
p6016
S'1'
sS'Lost'
p6017
S'2'
sS'Drop'
p6018
S'0'
sS'Start'
p6019
S'2'
sS'Won'
p6020
S'1'
sS'Draw'
p6021
S'0'
sS'%'
S'33.33'
p6022
sS'Mat'
p6023
S'3'
sS'Conv'
p6024
S'0'
sS'Tries'
p6025
S'1'
sS'Pts'
p6026
S'5'
sa(dp6027
S'Pens'
p6028
S'0'
sS'Sub'
p6029
S'6'
sS'Lost'
p6030
S'3'
sS'Drop'
p6031
S'0'
sS'Start'
p6032
S'1'
sS'Won'
p6033
S'4'
sS'Draw'
p6034
S'0'
sS'%'
S'57.14'
p6035
sS'Mat'
p6036
S'7'
sS'Conv'
p6037
S'0'
sS'Tries'
p6038
S'0'
sS'Pts'
p6039
S'0'
sa(dp6040
S'Pens'
p6041
S'0'
sS'Sub'
p6042
S'2'
sS'Lost'
p6043
S'1'
sS'Drop'
p6044
S'0'
sS'Start'
p6045
S'0'
sS'Won'
p6046
S'1'
sS'Draw'
p6047
S'0'
sS'%'
S'50.00'
p6048
sS'Mat'
p6049
S'2'
sS'Conv'
p6050
S'0'
sS'Tries'
p6051
S'0'
sS'Pts'
p6052
S'0'
sa(dp6053
S'Pens'
p6054
S'0'
sS'Sub'
p6055
S'0'
sS'Lost'
p6056
S'1'
sS'Drop'
p6057
S'0'
sS'Start'
p6058
S'2'
sS'Won'
p6059
S'1'
sS'Draw'
p6060
S'0'
sS'%'
S'50.00'
p6061
sS'Mat'
p6062
S'2'
sS'Conv'
p6063
S'0'
sS'Tries'
p6064
S'0'
sS'Pts'
p6065
S'0'
sa(dp6066
S'Pens'
p6067
S'0'
sS'Sub'
p6068
S'0'
sS'Lost'
p6069
S'8'
sS'Drop'
p6070
S'0'
sS'Start'
p6071
S'12'
p6072
sS'Won'
p6073
S'3'
sS'Draw'
p6074
S'1'
sS'%'
S'29.16'
p6075
sS'Mat'
p6076
S'12'
p6077
sS'Conv'
p6078
S'0'
sS'Tries'
p6079
S'1'
sS'Pts'
p6080
S'5'
sa(dp6081
S'Pens'
p6082
S'0'
sS'Sub'
p6083
S'2'
sS'Lost'
p6084
S'6'
sS'Drop'
p6085
S'0'
sS'Start'
p6086
S'8'
sS'Won'
p6087
S'4'
sS'Draw'
p6088
S'0'
sS'%'
S'40.00'
p6089
sS'Mat'
p6090
S'10'
p6091
sS'Conv'
p6092
S'0'
sS'Tries'
p6093
S'1'
sS'Pts'
p6094
S'5'
sa(dp6095
S'Pens'
p6096
S'0'
sS'Sub'
p6097
S'5'
sS'Lost'
p6098
S'6'
sS'Drop'
p6099
S'0'
sS'Start'
p6100
S'2'
sS'Won'
p6101
S'1'
sS'Draw'
p6102
S'0'
sS'%'
S'14.28'
p6103
sS'Mat'
p6104
S'7'
sS'Conv'
p6105
S'0'
sS'Tries'
p6106
S'0'
sS'Pts'
p6107
S'0'
sa(dp6108
S'Pens'
p6109
S'2'
sS'Sub'
p6110
S'1'
sS'Lost'
p6111
S'1'
sS'Drop'
p6112
S'0'
sS'Start'
p6113
S'1'
sS'Won'
p6114
S'1'
sS'Draw'
p6115
S'0'
sS'%'
S'50.00'
p6116
sS'Mat'
p6117
S'2'
sS'Conv'
p6118
S'1'
sS'Tries'
p6119
S'0'
sS'Pts'
p6120
S'8'
sa(dp6121
S'Pens'
p6122
S'0'
sS'Sub'
p6123
S'2'
sS'Lost'
p6124
S'1'
sS'Drop'
p6125
S'0'
sS'Start'
p6126
S'2'
sS'Won'
p6127
S'3'
sS'Draw'
p6128
S'0'
sS'%'
S'75.00'
p6129
sS'Mat'
p6130
S'4'
sS'Conv'
p6131
S'0'
sS'Tries'
p6132
S'0'
sS'Pts'
p6133
S'0'
sa(dp6134
S'Pens'
p6135
S'12'
p6136
sS'Sub'
p6137
S'1'
sS'Lost'
p6138
S'5'
sS'Drop'
p6139
S'0'
sS'Start'
p6140
S'7'
sS'Won'
p6141
S'3'
sS'Draw'
p6142
S'0'
sS'%'
S'37.50'
p6143
sS'Mat'
p6144
S'8'
sS'Conv'
p6145
S'8'
sS'Tries'
p6146
S'0'
sS'Pts'
p6147
S'52'
p6148
sa(dp6149
S'Pens'
p6150
S'0'
sS'Sub'
p6151
S'3'
sS'Lost'
p6152
S'11'
p6153
sS'Drop'
p6154
S'0'
sS'Start'
p6155
S'12'
p6156
sS'Won'
p6157
S'4'
sS'Draw'
p6158
S'0'
sS'%'
S'26.66'
p6159
sS'Mat'
p6160
S'15'
p6161
sS'Conv'
p6162
S'0'
sS'Tries'
p6163
S'1'
sS'Pts'
p6164
S'5'
sa(dp6165
S'Pens'
p6166
S'0'
sS'Sub'
p6167
S'2'
sS'Lost'
p6168
S'2'
sS'Drop'
p6169
S'0'
sS'Start'
p6170
S'0'
sS'Won'
p6171
S'0'
sS'Draw'
p6172
S'0'
sS'%'
S'0.00'
p6173
sS'Mat'
p6174
S'2'
sS'Conv'
p6175
S'0'
sS'Tries'
p6176
S'0'
sS'Pts'
p6177
S'0'
sa(dp6178
S'Pens'
p6179
S'0'
sS'Sub'
p6180
S'7'
sS'Lost'
p6181
S'8'
sS'Drop'
p6182
S'0'
sS'Start'
p6183
S'7'
sS'Won'
p6184
S'5'
sS'Draw'
p6185
S'1'
sS'%'
S'39.28'
p6186
sS'Mat'
p6187
S'14'
p6188
sS'Conv'
p6189
S'0'
sS'Tries'
p6190
S'1'
sS'Pts'
p6191
S'5'
sa(dp6192
S'Pens'
p6193
S'0'
sS'Sub'
p6194
S'3'
sS'Lost'
p6195
S'6'
sS'Drop'
p6196
S'0'
sS'Start'
p6197
S'7'
sS'Won'
p6198
S'3'
sS'Draw'
p6199
S'1'
sS'%'
S'35.00'
p6200
sS'Mat'
p6201
S'10'
p6202
sS'Conv'
p6203
S'0'
sS'Tries'
p6204
S'2'
sS'Pts'
p6205
S'10'
p6206
sa(dp6207
S'Pens'
p6208
S'0'
sS'Sub'
p6209
S'7'
sS'Lost'
p6210
S'4'
sS'Drop'
p6211
S'0'
sS'Start'
p6212
S'1'
sS'Won'
p6213
S'3'
sS'Draw'
p6214
S'1'
sS'%'
S'43.75'
p6215
sS'Mat'
p6216
S'8'
sS'Conv'
p6217
S'0'
sS'Tries'
p6218
S'0'
sS'Pts'
p6219
S'0'
sa(dp6220
S'Pens'
p6221
S'2'
sS'Sub'
p6222
S'6'
sS'Lost'
p6223
S'6'
sS'Drop'
p6224
S'0'
sS'Start'
p6225
S'6'
sS'Won'
p6226
S'5'
sS'Draw'
p6227
S'1'
sS'%'
S'45.83'
p6228
sS'Mat'
p6229
S'12'
p6230
sS'Conv'
p6231
S'4'
sS'Tries'
p6232
S'1'
sS'Pts'
p6233
S'19'
p6234
sa(dp6235
S'Pens'
p6236
S'0'
sS'Sub'
p6237
S'2'
sS'Lost'
p6238
S'3'
sS'Drop'
p6239
S'0'
sS'Start'
p6240
S'5'
sS'Won'
p6241
S'3'
sS'Draw'
p6242
S'1'
sS'%'
S'50.00'
p6243
sS'Mat'
p6244
S'7'
sS'Conv'
p6245
S'0'
sS'Tries'
p6246
S'0'
sS'Pts'
p6247
S'0'
sa(dp6248
S'Pens'
p6249
S'0'
sS'Sub'
p6250
S'2'
sS'Lost'
p6251
S'4'
sS'Drop'
p6252
S'0'
sS'Start'
p6253
S'8'
sS'Won'
p6254
S'5'
sS'Draw'
p6255
S'1'
sS'%'
S'55.00'
p6256
sS'Mat'
p6257
S'10'
p6258
sS'Conv'
p6259
S'0'
sS'Tries'
p6260
S'0'
sS'Pts'
p6261
S'0'
sa(dp6262
S'Pens'
p6263
S'0'
sS'Sub'
p6264
S'4'
sS'Lost'
p6265
S'3'
sS'Drop'
p6266
S'0'
sS'Start'
p6267
S'2'
sS'Won'
p6268
S'3'
sS'Draw'
p6269
S'0'
sS'%'
S'50.00'
p6270
sS'Mat'
p6271
S'6'
sS'Conv'
p6272
S'0'
sS'Tries'
p6273
S'0'
sS'Pts'
p6274
S'0'
sa(dp6275
S'Pens'
p6276
S'0'
sS'Sub'
p6277
S'1'
sS'Lost'
p6278
S'0'
sS'Drop'
p6279
S'0'
sS'Start'
p6280
S'0'
sS'Won'
p6281
S'1'
sS'Draw'
p6282
S'0'
sS'%'
S'100.00'
p6283
sS'Mat'
p6284
S'1'
sS'Conv'
p6285
S'0'
sS'Tries'
p6286
S'0'
sS'Pts'
p6287
S'0'
sa(dp6288
S'Pens'
p6289
S'0'
sS'Sub'
p6290
S'8'
sS'Lost'
p6291
S'4'
sS'Drop'
p6292
S'0'
sS'Start'
p6293
S'0'
sS'Won'
p6294
S'3'
sS'Draw'
p6295
S'1'
sS'%'
S'43.75'
p6296
sS'Mat'
p6297
S'8'
sS'Conv'
p6298
S'0'
sS'Tries'
p6299
S'0'
sS'Pts'
p6300
S'0'
sa(dp6301
S'Pens'
p6302
S'0'
sS'Sub'
p6303
S'5'
sS'Lost'
p6304
S'3'
sS'Drop'
p6305
S'0'
sS'Start'
p6306
S'0'
sS'Won'
p6307
S'1'
sS'Draw'
p6308
S'1'
sS'%'
S'30.00'
p6309
sS'Mat'
p6310
S'5'
sS'Conv'
p6311
S'0'
sS'Tries'
p6312
S'0'
sS'Pts'
p6313
S'0'
sa(dp6314
S'Pens'
p6315
S'0'
sS'Sub'
p6316
S'4'
sS'Lost'
p6317
S'5'
sS'Drop'
p6318
S'0'
sS'Start'
p6319
S'5'
sS'Won'
p6320
S'3'
sS'Draw'
p6321
S'1'
sS'%'
S'38.88'
p6322
sS'Mat'
p6323
S'9'
sS'Conv'
p6324
S'0'
sS'Tries'
p6325
S'1'
sS'Pts'
p6326
S'5'
sa(dp6327
S'Pens'
p6328
S'0'
sS'Sub'
p6329
S'1'
sS'Lost'
p6330
S'3'
sS'Drop'
p6331
S'0'
sS'Start'
p6332
S'3'
sS'Won'
p6333
S'1'
sS'Draw'
p6334
S'0'
sS'%'
S'25.00'
p6335
sS'Mat'
p6336
S'4'
sS'Conv'
p6337
S'0'
sS'Tries'
p6338
S'0'
sS'Pts'
p6339
S'0'
sa(dp6340
S'Pens'
p6341
S'0'
sS'Sub'
p6342
S'1'
sS'Lost'
p6343
S'1'
sS'Drop'
p6344
S'0'
sS'Start'
p6345
S'0'
sS'Won'
p6346
S'0'
sS'Draw'
p6347
S'0'
sS'%'
S'0.00'
p6348
sS'Mat'
p6349
S'1'
sS'Conv'
p6350
S'0'
sS'Tries'
p6351
S'0'
sS'Pts'
p6352
S'0'
sa(dp6353
S'Pens'
p6354
S'0'
sS'Sub'
p6355
S'0'
sS'Lost'
p6356
S'1'
sS'Drop'
p6357
S'0'
sS'Start'
p6358
S'2'
sS'Won'
p6359
S'1'
sS'Draw'
p6360
S'0'
sS'%'
S'50.00'
p6361
sS'Mat'
p6362
S'2'
sS'Conv'
p6363
S'0'
sS'Tries'
p6364
S'1'
sS'Pts'
p6365
S'5'
sa(dp6366
S'Pens'
p6367
S'0'
sS'Sub'
p6368
S'1'
sS'Lost'
p6369
S'3'
sS'Drop'
p6370
S'0'
sS'Start'
p6371
S'3'
sS'Won'
p6372
S'1'
sS'Draw'
p6373
S'0'
sS'%'
S'25.00'
p6374
sS'Mat'
p6375
S'4'
sS'Conv'
p6376
S'0'
sS'Tries'
p6377
S'2'
sS'Pts'
p6378
S'10'
p6379
sa(dp6380
S'Pens'
p6381
S'0'
sS'Sub'
p6382
S'1'
sS'Lost'
p6383
S'2'
sS'Drop'
p6384
S'0'
sS'Start'
p6385
S'2'
sS'Won'
p6386
S'1'
sS'Draw'
p6387
S'0'
sS'%'
S'33.33'
p6388
sS'Mat'
p6389
S'3'
sS'Conv'
p6390
S'0'
sS'Tries'
p6391
S'0'
sS'Pts'
p6392
S'0'
sa(dp6393
S'Pens'
p6394
S'0'
sS'Sub'
p6395
S'1'
sS'Lost'
p6396
S'2'
sS'Drop'
p6397
S'0'
sS'Start'
p6398
S'2'
sS'Won'
p6399
S'1'
sS'Draw'
p6400
S'0'
sS'%'
S'33.33'
p6401
sS'Mat'
p6402
S'3'
sS'Conv'
p6403
S'0'
sS'Tries'
p6404
S'0'
sS'Pts'
p6405
S'0'
sa(dp6406
S'Pens'
p6407
S'0'
sS'Sub'
p6408
S'1'
sS'Lost'
p6409
S'2'
sS'Drop'
p6410
S'0'
sS'Start'
p6411
S'2'
sS'Won'
p6412
S'1'
sS'Draw'
p6413
S'0'
sS'%'
S'33.33'
p6414
sS'Mat'
p6415
S'3'
sS'Conv'
p6416
S'0'
sS'Tries'
p6417
S'0'
sS'Pts'
p6418
S'0'
sa(dp6419
S'Pens'
p6420
S'0'
sS'Sub'
p6421
S'2'
sS'Lost'
p6422
S'1'
sS'Drop'
p6423
S'0'
sS'Start'
p6424
S'0'
sS'Won'
p6425
S'1'
sS'Draw'
p6426
S'0'
sS'%'
S'50.00'
p6427
sS'Mat'
p6428
S'2'
sS'Conv'
p6429
S'0'
sS'Tries'
p6430
S'0'
sS'Pts'
p6431
S'0'
sa(dp6432
S'Pens'
p6433
S'0'
sS'Sub'
p6434
S'0'
sS'Lost'
p6435
S'1'
sS'Drop'
p6436
S'0'
sS'Start'
p6437
S'1'
sS'Won'
p6438
S'0'
sS'Draw'
p6439
S'0'
sS'%'
S'0.00'
p6440
sS'Mat'
p6441
S'1'
sS'Conv'
p6442
S'2'
sS'Tries'
p6443
S'0'
sS'Pts'
p6444
S'4'
sa.