(lp1
VSeptember 17, 1873, Paris
p2
aVNovember 15, 1879, Saint-Vivien-de-Medo
p3
aVDecember 22, 1879, Andance
p4
aVSeptember 11, 1885, Beauvais
p5
aVDecember 1881, Cockermouth
p6
aVDecember 11, 1880, Moulineaux
p7
aVAugust 19, 1881, Salies-de-Bearn
p8
aVcirca 1883, Cayenne
p9
aVDecember 27, 1883, Viella
p10
aVJanuary 31, 1883, Paris
p11
aVMarch 17, 1885, Paris
p12
aVJanuary 23, 1882, Philadelphia, PA, United States
p13
aVMay 10, 1883, Toulouse
p14
aVJanuary 15, 1885, Dijon
p15
aVdate unknown, ?
p16
aVOctober 20, 1882, Paris
p17
aVDecember 6, 1884, Noisy-le-Sec
p18
aVSeptember 16, 1885, Paris
p19
aVJuly 28, 1876, Cardiff
p20
aVAugust 19, 1883, Amazy
p21
aVdate unknown, ?
p22
aVApril 29, 1884, Lyon
p23
aVOctober 25, 1879, Paris
p24
aVFebruary 15, 1881, Bordeaux
p25
aVMay 7, 1883, Basse-Terre, Guadeloupe
p26
aVAugust 29, 1888, Cayenne
p27
aVMay 27, 1887, Neuville-sur-Saone
p28
aVdate unknown, ?
p29
aVcirca 1886, Saigon
p30
aVDecember 25, 1885, Bordeaux
p31
aVSeptember 7, 1886, Paris
p32
aVSeptember 13, 1887, Bonnevaux
p33
aVFebruary 10, 1884, Lavernose
p34
aVDecember 9, 1882, Bordeaux
p35
aVNovember 2, 1885, Paris
p36
aVJune 28, 1881, Saint-Loubes
p37
aVMay 23, 1883, Saint-Christophe-de-
p38
aVJuly 31, 1888, Saint-Girons
p39
aVApril 26, 1885, Saint-Pierre-sur-Dro
p40
aVcirca 1883, ?
p41
aVdate unknown, ?
p42
aVMarch 29, 1887, Lyon
p43
aVFebruary 28, 1889, Paris
p44
aVJune 29, 1888, Gagny
p45
aVJanuary 30, 1890, St Petersburg
p46
aVJuly 6, 1881, Bordeaux
p47
aVSeptember 12, 1884, Bordeaux
p48
aVJune 14, 1890, Paris
p49
aVJune 16, 1888, Lyon
p50
aVJune 4, 1881, Avesnes-sur-Helpe
p51
aVApril 24, 1882, Bayonne
p52
aVNovember 27, 1880, Paris
p53
aVDecember 1, 1883, Bordeaux
p54
aVOctober 1, 1886, Osserain
p55
aVdate unknown, ?
p56
aVcirca 1883, ?
p57
aVSeptember 18, 1885, Beziers
p58
aVcirca 1887, ?
p59
aVMarch 4, 1887, Houailou, New Caledo
p60
aVMay 19, 1889, Tarbes
p61
aVDecember 29, 1890, Versailles
p62
aVFebruary 17, 1885, La Mas d'Azil
p63
aVMay 26, 1887, Lyon
p64
aVJanuary 14, 1884, Paris
p65
aVFebruary 25, 1887, Paris
p66
aVNovember 30, 1884, Pau
p67
aVAugust 15, 1889, Rochefort-sur-Mer
p68
aVFebruary 9, 1887, Luz-Saint-Sauveur
p69
aVJuly 15, 1888, Ondres
p70
aVNovember 1, 1886, Pissotte
p71
aVDecember 6, 1886, Moissat
p72
aVAugust 13, 1881, Tarbes
p73
aVMay 7, 1890, Tours
p74
aVFebruary 20, 1885, Bordeaux
p75
aVNovember 24, 1887, Courtalain
p76
aVMay 8, 1888, Mustapha
p77
aVApril 12, 1890, Cauderan
p78
aVDecember 20, 1886, Orthez
p79
aVFebruary 16, 1888, Biarritz
p80
aVJanuary 13, 1889, Ilharre
p81
aVMarch 2, 1889, Anglet
p82
aVSeptember 15, 1884, London
p83
aVJune 27, 1890, Aix-les-Bains
p84
aVMarch 17, 1885, Paris
p85
aVFebruary 20, 1890, Bordeaux
p86
aVFebruary 14, 1886, Tarbes
p87
aVFebruary 10, 1881, Bosdarros
p88
aVFebruary 3, 1891, Anglet
p89
aVMay 28, 1891, Ostabat
p90
aVDecember 12, 1890, Saint-Jean-de-Luz
p91
aVAugust 13, 1889, Paris
p92
aVFebruary 11, 1893, Urrugne
p93
aVAugust 31, 1888, La Roche-sur-Foron
p94
aVOctober 9, 1893, Toulouse
p95
aVDecember 14, 1884, Paris
p96
aVApril 30, 1892, Ars-en-Re
p97
aVMarch 11, 1891, Toulouse
p98
aVJanuary 10, 1888, Cayenne
p99
aVJune 16, 1888, Saint-Just-en-Chauss
p100
aVNovember 15, 1892, Paris
p101
aVJanuary 4, 1890, Aureilhan
p102
aVcirca 1893, ?
p103
aVOctober 9, 1895, Bayonne
p104
aVJanuary 18, 1888, Bordeaux
p105
aVJuly 21, 1891, Agen
p106
aVFebruary 3, 1889, Bizanos
p107
aVJanuary 7, 1891, Bayonne
p108
aVJanuary 4, 1892, Paris
p109
aVNovember 10, 1894, Neuilly-sur-Seine
p110
aVMarch 15, 1889, Urrugne
p111
aVMarch 17, 1889, Siran
p112
aVDecember 9, 1889, Bayonne
p113
aVMarch 16, 1898, Bayonne
p114
aVApril 9, 1893, Mont-de-Marsan
p115
aVJuly 5, 1898, Bordeaux
p116
aVFebruary 7, 1899, Saint-Sever
p117
aVFebruary 18, 1898, Ostabat
p118
aVMarch 21, 1894, Bayonne
p119
aVFebruary 16, 1892, Angouleme
p120
aVSeptember 16, 1894, Llupia
p121
aVDecember 4, 1894, Gorses
p122
aVDecember 13, 1895, Clairac
p123
aVJune 23, 1893, Brienon-sur-Armencon
p124
aVMarch 24, 1894, Bordeaux
p125
aVAugust 23, 1889, Dax
p126
aVMarch 27, 1894, Levignacq
p127
aVcirca 1898, Paris
p128
aVMay 20, 1892, Dax
p129
aVApril 13, 1899, Perpignan
p130
aVDecember 8, 1899, Lourdes
p131
aVMay 1, 1898, Laroque-Timbaut
p132
aVFebruary 11, 1900, Perpignan
p133
aVJune 2, 1895, Toulouse
p134
aVAugust 24, 1895, Larrau
p135
aVOctober 11, 1900, Biarritz
p136
aVSeptember 25, 1899, Tarbes
p137
aVDecember 18, 1900, Beziers
p138
aVNovember 28, 1900, Bone
p139
aVMay 14, 1899, Pau
p140
aVJune 22, 1889, Latour-bas-Elne
p141
aVAugust 14, 1899, Beziers
p142
aVJuly 1, 1898, Tarbes
p143
aVNovember 3, 1897, Laon
p144
aVNovember 25, 1895, Saint-Medard-en-Jall
p145
aVJanuary 11, 1899, Buenos Aires
p146
aVJanuary 8, 1899, Lourdes
p147
aVJuly 4, 1892, Pamiers
p148
aVDecember 11, 1897, Port-Vendres
p149
aVJuly 31, 1902, Le Bouceau
p150
aVMarch 29, 1902, Perpignan
p151
aVDecember 7, 1894, Neuf-Mesnil
p152
aVJune 4, 1893, Toulouse
p153
aVNovember 8, 1898, Biaudos
p154
aVDecember 25, 1899, Perpignan
p155
aVOctober 23, 1897, Toulouse
p156
aVApril 18, 1899, Argeles-Gazost
p157
aVSeptember 28, 1901, Chateaurenard
p158
aVOctober 18, 1898, Bayonne
p159
aVSeptember 7, 1900, Le Boucau
p160
aVAugust 27, 1901, Le Boucau
p161
aVMarch 4, 1901, Dax
p162
aVOctober 19, 1900, Bayonne
p163
aVFebruary 10, 1900, Sarraziet
p164
aVJanuary 15, 1903, Perigueux
p165
aVFebruary 4, 1897, Toulouse
p166
aVMay 14, 1892, Dax
p167
aVJuly 14, 1901, Langeac
p168
aVAugust 20, 1902, Lons
p169
aVJuly 18, 1897, Villefranche-de-Conf
p170
aVAugust 29, 1898, Moussan
p171
aVJune 15, 1901, Perpignan
p172
aVMarch 31, 1901, Verrieres-en-Forez
p173
aVJanuary 3, 1902, Bordeaux
p174
aVNovember 14, 1897, Urrugne
p175
aVJune 14, 1902, Thuir
p176
aVApril 11, 1902, San Nicola
p177
aVMarch 19, 1900, Coursan
p178
aVMarch 17, 1901, Toulouse
p179
aVSeptember 16, 1894, Argelliers
p180
aVFebruary 21, 1901, Carignan
p181
aVOctober 18, 1902, Narbonne
p182
aVAugust 16, 1902, Saint-Etienne
p183
aVApril 28, 1900, Carmaux
p184
aVOctober 12, 1904, Perpignan
p185
aVAugust 11, 1904, Vaucresson
p186
aVcirca 1896, ?
p187
aVMay 31, 1898, Agen
p188
aVApril 1, 1901, Villenueve-de-la-Rah
p189
aVMarch 17, 1899, Le Mans
p190
aVApril 18, 1901, Anglet
p191
aVMay 12, 1900, Tarbes
p192
aVJanuary 8, 1902, Beziers
p193
aVDecember 12, 1898, Saint-Macaire
p194
aVJanuary 23, 1898, Saint-Jean-de-Luz
p195
aVJanuary 27, 1898, Paris
p196
aVcirca 1902, ?
p197
aVSeptember 1, 1902, Tarbes
p198
aVApril 5, 1903, Saint-Gaudens
p199
aVApril 3, 1901, Terrats
p200
aVFebruary 1, 1900, Vic-Bigorre
p201
aVJuly 17, 1902, Castelan-Magnoac
p202
aVJuly 24, 1904, Bayonne
p203
aVJanuary 22, 1904, Perpignan
p204
aVcirca 1899, Paris
p205
aVOctober 6, 1901, Argein
p206
aVAugust 12, 1898, Toulouges
p207
aVJuly 26, 1899, Ferrieres-en-Brie
p208
aVMarch 19, 1903, Villeneuve-les-Bezie
p209
aVMay 5, 1894, Saint-Girons
p210
aVSeptember 3, 1903, Ychoux
p211
aVJuly 7, 1898, Auch
p212
aVSeptember 23, 1903, Paris
p213
aVFebruary 18, 1907, Bordeaux
p214
aVFebruary 14, 1897, Chambery
p215
aVJanuary 12, 1905, Paris
p216
aVNovember 6, 1902, Sorede
p217
aVMay 28, 1906, Limoges
p218
aVMarch 7, 1902, Nay
p219
aVMarch 20, 1905, Ille-sur-Tet
p220
aVMarch 17, 1904, Aixe-sur-Vienne
p221
aVMay 11, 1900, Paris
p222
aVMay 8, 1902, Castelnau-Magnoac
p223
aVMay 7, 1899, Tarbes
p224
aVApril 28, 1903, Leon
p225
aVApril 18, 1899, La Teste
p226
aVDecember 29, 1903, Badens
p227
aVJanuary 9, 1905, Toulouse
p228
aVOctober 11, 1902, Beziers
p229
aVOctober 24, 1905, Le Boucau
p230
aVOctober 13, 1905, Biarritz
p231
aVOctober 29, 1904, Foix
p232
aVDecember 13, 1905, Saint-Jean-d'Angely
p233
aVFebruary 22, 1906, San Fernando
p234
aVDecember 6, 1903, Palau-del-Vidre
p235
aVMay 1, 1906, Ondres
p236
aVFebruary 24, 1906, Vitrac
p237
aVApril 11, 1898, Laroquebrou
p238
aVMay 20, 1905, Maureilhan
p239
aVNovember 8, 1902, Antignac
p240
aVJune 10, 1905, Paris
p241
aVJuly 4, 1906, Hendaye
p242
aVFebruary 19, 1904, Aire-sur-l'Adour
p243
aVMarch 19, 1904, Dax
p244
aVJuly 27, 1903, Toulouse
p245
aVOctober 7, 1910, Saint-Pee-de-Bigorre
p246
aVOctober 9, 1905, Elne
p247
aVMarch 31, 1905, Lezignan
p248
aVJune 4, 1904, Trouillas
p249
aVMarch 13, 1907, Limoges
p250
aVApril 22, 1905, Thuir
p251
aVMarch 15, 1902, Beziers
p252
aVFebruary 4, 1906, Lezignan
p253
aVAugust 19, 1905, Homps
p254
aVApril 16, 1909, Toulouse
p255
aVFebruary 17, 1905, Pau
p256
aVFebruary 6, 1907, Toulouse
p257
aVAugust 13, 1912, La Chatre
p258
aVMay 29, 1902, Saint-Feliu d'Avall
p259
aVMay 17, 1906, Perpignan
p260
aVMarch 16, 1908, Mauleon
p261
aVSeptember 22, 1906, Clermont-Ferrand
p262
aVSeptember 22, 1906, Saint-Andre-de-Roque
p263
aVFebruary 5, 1900, Juillan
p264
aVJuly 18, 1912, Marmande
p265
aVApril 28, 1909, Tunis
p266
aVMay 17, 1902, Saigon
p267
aVJanuary 6, 1903, Saint-Ouen
p268
aVNovember 28, 1906, Villereal
p269
aVAugust 4, 1904, Beziers
p270
aVMarch 10, 1906, Parthenay
p271
aVDecember 12, 1909, Montauban
p272
aVAugust 10, 1902, Cognac
p273
aVDecember 16, 1904, Condom
p274
aVApril 15, 1907, Toulouse
p275
aVMarch 2, 1906, Roanne
p276
aVApril 10, 1911, Chartres
p277
aVAugust 10, 1909, Espira-de-Algy
p278
aVMay 22, 1909, Vichy
p279
aVFebruary 9, 1910, Ajaccio
p280
aVJune 15, 1909, Chalon-sur-Saone
p281
aVNovember 13, 1905, Limoges
p282
aVApril 17, 1909, Auch
p283
aVSeptember 18, 1903, Oviedo
p284
aVDecember 21, 1908, Bayonne
p285
aVSeptember 12, 1907, Saint-Pierre-et-Miqu
p286
aVFebruary 1, 1911, Narbonne
p287
aVApril 24, 1912, Limoux
p288
aVDecember 24, 1911, Limoux
p289
aVAugust 21, 1909, Arcachon
p290
aVFebruary 1, 1912, Collioure
p291
aVJuly 2, 1911, Castres
p292
aVNovember 14, 1910, Bois-Colombes
p293
aVFebruary 10, 1906, Narbonne
p294
aVApril 11, 1909, Le Treport
p295
aVMay 19, 1908, Arthes
p296
aVMay 17, 1911, Saint-Palais
p297
aVNovember 4, 1906, Pergamino
p298
aVFebruary 16, 1904, Saint-Nazaire
p299
aVJuly 2, 1914, Bayonne
p300
aVOctober 31, 1908, Saint-Pierre-et-Miqu
p301
aVMarch 31, 1911, Wattrelos
p302
aVJune 27, 1910, Saint-Jean-sur-Veyle
p303
aVMay 17, 1905, Bayonne
p304
aVFebruary 29, 1912, ?
p305
aVMarch 29, 1906, Chastreix
p306
aVApril 16, 1914, Thiers
p307
aVJanuary 11, 1914, Le Boucau
p308
aVMarch 2, 1915, Montgaillard
p309
aVJanuary 30, 1908, Biarritz
p310
aVMarch 27, 1913, Alberville
p311
aVNovember 13, 1910, Marsoulas
p312
aVNovember 25, 1905, Pau
p313
aVJuly 27, 1909, Labenne
p314
aVJuly 12, 1917, Perpignan
p315
aVNovember 7, 1908, Loriol
p316
aVMarch 23, 1915, Toulon
p317
aVJuly 7, 1911, Castelbiague
p318
aVAugust 28, 1908, Ardoix
p319
aVApril 9, 1916, Toulouse
p320
aVMarch 19, 1913, Pezens
p321
aVMay 7, 1914, Aveze
p322
aVOctober 13, 1912, Saint-Girons
p323
aVFebruary 22, 1908, Biarritz
p324
aVFebruary 28, 1914, Bayonne
p325
aVJanuary 30, 1913, Bordeaux
p326
aVMarch 7, 1909, Charmant
p327
aVJuly 4, 1913, Paris
p328
aVFebruary 22, 1913, Clermont-Ferrand
p329
aVApril 18, 1911, Bordeaux
p330
aVNovember 12, 1914, Carcassonne
p331
aVMay 25, 1915, Saint-Cyprien
p332
aVDecember 13, 1913, Saint-Maur-des-Fosse
p333
aVSeptember 17, 1914, Puan
p334
aVJanuary 4, 1909, Le Creusot
p335
aVMay 8, 1914, Pontacq
p336
aVJune 15, 1911, Sauxillanges
p337
aVDecember 30, 1917, Borderes-sur-l'Echez
p338
aVJuly 31, 1914, Saint-Girons
p339
aVMay 19, 1916, Pau
p340
aVMay 20, 1917, Ville-d'Avray
p341
aVMay 8, 1924, Toulouse
p342
aVNovember 12, 1919, Cambo
p343
aVMarch 12, 1921, Angouleme
p344
aVFebruary 12, 1915, Ussel
p345
aVSeptember 11, 1920, Saint-Vincent-de-Tyr
p346
aVAugust 29, 1922, Fontenay-sous-Bois
p347
aVAugust 3, 1920, Venissieux
p348
aVMay 1, 1923, Bordeaux
p349
aVAugust 1, 1923, Lourdes
p350
aVJuly 15, 1912, Marseille
p351
aVAugust 4, 1914, Castelnau-Montratier
p352
aVNovember 28, 1922, Odos
p353
aVMay 26, 1923, Bayonne
p354
aVMarch 7, 1915, Paris
p355
aVFebruary 29, 1920, Toulouse
p356
aVJanuary 6, 1924, Narbonne
p357
aVJune 21, 1918, Saint-Etienne
p358
aVJuly 13, 1921, Layrac
p359
aVJuly 3, 1922, Toulouse
p360
aVJune 23, 1920, Gelos
p361
aVJanuary 27, 1923, Seilhac
p362
aVJanuary 30, 1923, Bourg-en-Bresse
p363
aVJune 27, 1917, Gonfreville l'Orcher
p364
aVMarch 30, 1921, Itxassou
p365
aVFebruary 13, 1917, Benejacq
p366
aVJuly 16, 1919, Hendaye
p367
aVFebruary 15, 1924, Rieumes
p368
aVMarch 16, 1923, Biarritz
p369
aVDecember 13, 1916, Lyon
p370
aVAugust 27, 1924, Dax
p371
aVFebruary 3, 1924, Port Vendres
p372
aVSeptember 28, 1920, Pau
p373
aVMarch 18, 1924, Bourg-en-Bresse
p374
aVMay 11, 1920, Odos
p375
aVOctober 4, 1929, Saint-Vincent-de-Tyr
p376
aVJanuary 30, 1922, Captieux
p377
aVOctober 18, 1920, Arette
p378
aVJuly 12, 1924, Clermont-Ferrand
p379
aVApril 1, 1914, Saint-Exupery-les-Ro
p380
aVOctober 14, 1925, Bayonne
p381
aVFebruary 9, 1926, Collioure
p382
aVDecember 12, 1924, Lannemezan
p383
aVJune 1, 1927, Tarbes
p384
aVAugust 2, 1923, Toulouse
p385
aVAugust 25, 1924, Toulon
p386
aVNovember 9, 1924, Riscle
p387
aVJanuary 17, 1922, Lucq-de-Bearn
p388
aVMarch 18, 1922, Ciboure
p389
aVSeptember 26, 1929, Souillac
p390
aVSeptember 7, 1921, Saint-Emiliosen
p391
aVJuly 13, 1927, Dax
p392
aVSeptember 21, 1926, Saint-Gein
p393
aVDecember 23, 1922, Aix-les-Bains
p394
aVNovember 26, 1924, Orthez
p395
aVNovember 26, 1922, Clermont-Ferrand
p396
aVMay 11, 1925, Bergerac
p397
aVOctober 10, 1929, Boe
p398
aVAugust 29, 1925, Issus
p399
aVSeptember 28, 1930, Saint-Germain-de-Cal
p400
aVJuly 15, 1929, Vervins
p401
aVMarch 13, 1927, Perigueux
p402
aVOctober 27, 1927, Meximieux
p403
aVJuly 12, 1924, Claira
p404
aVNovember 17, 1928, Lourdes
p405
aVJanuary 6, 1927, Gan
p406
aVAugust 12, 1929, Aureilhan
p407
aVDecember 7, 1925, Rougnat
p408
aVJanuary 22, 1928, Saint-Nazaire
p409
aVApril 27, 1928, Bayonne
p410
aVOctober 5, 1924, Gan
p411
aVJanuary 3, 1930, Bellocq
p412
aVJuly 26, 1926, Junay
p413
aVFebruary 9, 1929, Carcassonne
p414
aVSeptember 23, 1928, Saint-Julien-en-Gene
p415
aVDecember 15, 1924, Usseau
p416
aVMay 1, 1929, Rignac
p417
aVJuly 3, 1926, Troyes
p418
aVOctober 19, 1932, Cessenon
p419
aVAugust 4, 1929, Trouillas
p420
aVOctober 30, 1933, Quillan
p421
aVMay 26, 1933, Toulouse
p422
aVSeptember 11, 1924, Irun
p423
aVMarch 13, 1921, Saint-Sever
p424
aVJuly 4, 1930, Biarritz
p425
aVApril 26, 1931, Biarritz
p426
aVJanuary 11, 1930, Le Boucau
p427
aVAugust 9, 1932, Lourdes
p428
aVDecember 22, 1929, Bages
p429
aVJuly 21, 1931, Etain
p430
aVMarch 6, 1924, Peyrehorade
p431
aVSeptember 21, 1928, Bayonne
p432
aVOctober 21, 1930, Le Boucau
p433
aVJune 3, 1933, Tullins
p434
aVAugust 14, 1934, Monfort-en-Chalosse
p435
aVJanuary 21, 1925, Lourdes
p436
aVMay 3, 1933, Narbonne
p437
aVDecember 14, 1933, Dax
p438
aVOctober 2, 1928, Le Coteau
p439
aVMay 3, 1928, Biarritz
p440
aVMay 6, 1931, Mouguerre
p441
aVSeptember 25, 1929, Salleles d'Aude
p442
aVFebruary 9, 1932, Paris
p443
aVJuly 22, 1932, Lourdes
p444
aVAugust 30, 1934, Hendaye
p445
aVJuly 31, 1928, Frassivoro
p446
aVJune 4, 1929, Toulouse
p447
aVDecember 24, 1932, Samatan
p448
aVSeptember 28, 1935, Cognac
p449
aVNovember 1, 1929, Belloc-St-Clamens
p450
aVNovember 20, 1927, Grenoble
p451
aVFebruary 6, 1933, Bram
p452
aVSeptember 7, 1929, Sauveterre-de-Bearn
p453
aVOctober 12, 1933, Montelimar
p454
aVDecember 19, 1927, Ciboure
p455
aVApril 5, 1930, Argeles-sur-Mer
p456
aVMay 25, 1934, Vic-en-Bigorre
p457
aVAugust 13, 1932, Rivesaltes
p458
aVFebruary 11, 1931, Vichy
p459
aVDecember 31, 1931, Baixas
p460
aVDecember 5, 1926, Lanobre
p461
aVOctober 24, 1932, Graulhet
p462
aVJune 27, 1933, Rivesaltes
p463
aVApril 1, 1932, Louvie-Juzon
p464
aVJanuary 2, 1934, Theza
p465
aVJanuary 13, 1937, Pouydesseaux
p466
aVSeptember 20, 1932, Levallois-Perret
p467
aVJanuary 22, 1931, Tarbes
p468
aVJanuary 20, 1933, Dax
p469
aVDecember 10, 1937, Perigueux
p470
aVJuly 6, 1934, Saint-Laurent-de-Gos
p471
aVOctober 11, 1932, Orthevielle
p472
aVJune 5, 1934, Biarritz
p473
aVFebruary 17, 1932, Saverdun
p474
aVJanuary 23, 1935, Houeill
p475
aVFebruary 17, 1925, Cazes-Mondenard
p476
aVMay 18, 1929, Labouheyre
p477
aVJuly 14, 1934, Mauleon
p478
aVMay 18, 1934, Paris
p479
aVMay 4, 1934, Pontacq
p480
aVJuly 15, 1938, Tarbes
p481
aVMarch 5, 1936, Pau
p482
aVJune 16, 1937, La Reole
p483
aVDecember 9, 1935, Romans-sur-Isere
p484
aVJune 1, 1934, Strasbourg
p485
aVMarch 6, 1937, Monfort-en-Chalosse
p486
aVJuly 5, 1935, Boissezon
p487
aVNovember 13, 1928, Paris
p488
aVMarch 3, 1928, Beziers
p489
aVJanuary 31, 1936, Saint-Sever
p490
aVSeptember 28, 1935, Bagneres-de-Bigorre
p491
aVMay 6, 1937, Bugnein
p492
aVSeptember 24, 1932, Treveray
p493
aVAugust 18, 1934, Bayonne
p494
aVJune 18, 1934, Ciboure
p495
aVDecember 23, 1941, Bagneres-de-Bigorre
p496
aVNovember 24, 1935, Quimerch
p497
aVSeptember 28, 1940, Limoux
p498
aVMay 13, 1933, Tarbes
p499
aVFebruary 8, 1931, Mont-de-Marsan
p500
aVJanuary 3, 1934, Soustons
p501
aVMarch 5, 1940, Pontacq
p502
aVSeptember 19, 1936, La Flamengrie
p503
aVSeptember 17, 1935, Pau
p504
aVMay 17, 1936, Soubion
p505
aVJanuary 1, 1934, Gousse
p506
aVFebruary 14, 1940, Salles
p507
aVApril 17, 1932, Saint-Malo-de-Guersa
p508
aVNovember 21, 1937, Pontacq
p509
aVFebruary 4, 1934, Severac-le-Chateau
p510
aVSeptember 21, 1935, Sigean
p511
aVAugust 25, 1940, Peyrehorade
p512
aVFebruary 8, 1934, Penne-d'Agenais
p513
aVApril 30, 1931, La Mure
p514
aVNovember 8, 1936, Cazouls-les-Beziers
p515
aVOctober 15, 1940, Fumel
p516
aVApril 11, 1940, Saint-Astier
p517
aVNovember 7, 1935, Rodez
p518
aVFebruary 27, 1942, Saint-Lys
p519
aVMay 8, 1933, Toulouse
p520
aVSeptember 27, 1942, Elne
p521
aVOctober 13, 1938, Cabrerolles
p522
aVMay 12, 1938, Hussein Dey
p523
aVJune 22, 1939, Ordan-Larroque
p524
aVAugust 17, 1937, Bouilh Devant
p525
aVApril 20, 1939, Decazeville
p526
aVMay 13, 1936, Lavilledieu-du-Templ
p527
aVJanuary 28, 1938, Puisserguier
p528
aVMarch 7, 1938, Saint-Jean-de-Marsac
p529
aVJanuary 25, 1934, Macon
p530
aVMay 8, 1942, Montgaillard
p531
aVAugust 28, 1935, Ustaritz
p532
aVNovember 4, 1939, Soustons
p533
aVFebruary 5, 1938, Bagnara
p534
aVDecember 7, 1941, Bourg-en-Bresse
p535
aVSeptember 13, 1942, Castelsagrat
p536
aVJanuary 31, 1932, Aureilhan
p537
aVMarch 11, 1943, Lourdes
p538
aVAugust 31, 1942, Salies-de-Bearn
p539
aVDecember 21, 1943, Payra-sur-l'Hers
p540
aVJuly 15, 1937, Saint-Vincent-de-Tyr
p541
aVMarch 30, 1944, Lourdes
p542
aVJuly 27, 1934, Toulouse
p543
aVJuly 27, 1942, L'Isle-Jourdain
p544
aVMarch 19, 1943, Brive
p545
aVJuly 17, 1943, Bayonne
p546
aVDecember 4, 1942, Perigueux
p547
aVDecember 27, 1944, Toulouse
p548
aVJuly 27, 1943, Tarbes
p549
aVNovember 20, 1948, Magescq
p550
aVApril 14, 1943, Beaumont-de-Lomagne
p551
aVJuly 6, 1947, Saint-Lary
p552
aVJanuary 9, 1946, Saint-Vincent-de-Tyr
p553
aVJanuary 16, 1938, Bordeaux
p554
aVJuly 5, 1943, Pompadour
p555
aVApril 24, 1943, Hendaye
p556
aVOctober 28, 1941, Coursan
p557
aVMay 6, 1944, Mont-de-Marsan
p558
aVJanuary 21, 1940, Le Cause
p559
aVAugust 28, 1937, Larresingle
p560
aVDecember 26, 1942, Colombes
p561
aVMarch 21, 1946, Narbonne
p562
aVJanuary 14, 1946, Montauban
p563
aVOctober 27, 1944, Condom
p564
aVApril 7, 1944, Foix
p565
aVMarch 5, 1941, Ciboure
p566
aVMarch 23, 1943, Saint-Prix
p567
aVFebruary 21, 1945, Saint-Lary
p568
aVMay 31, 1943, Saint-Cirgues-de-Jor
p569
aVDecember 29, 1944, Marseille
p570
aVJuly 25, 1946, Tulle
p571
aVOctober 27, 1940, Lyon
p572
aVJune 16, 1946, Larroque
p573
aVJuly 6, 1941, Larressore
p574
aVDecember 1, 1947, Moissac
p575
aVAugust 29, 1942, Jarrie
p576
aVDecember 9, 1944, Thomes
p577
aVJuly 28, 1947, Dax
p578
aVJuly 16, 1943, Salles-sur-Garonne
p579
aVFebruary 9, 1943, Grenoble
p580
aVJanuary 1, 1947, La Rochelle
p581
aVMay 27, 1946, Rochefort
p582
aVAugust 4, 1947, Anglet
p583
aVMarch 30, 1947, Semeac
p584
aVNovember 15, 1946, Marciac
p585
aVApril 11, 1943, Mas d'Auvignon
p586
aVJuly 10, 1945, Lourdes
p587
aVJanuary 2, 1946, Marseille
p588
aVJuly 28, 1947, Saint-Mayme-de-Perey
p589
aVMay 8, 1945, Urrugne
p590
aVAugust 29, 1944, Orthez
p591
aVMay 19, 1945, Saint-Jean-de-Saucie
p592
aVApril 11, 1949, Pouillon
p593
aVApril 21, 1947, Toulouse
p594
aVDecember 10, 1939, Saint-Paul-les-Dax
p595
aVMarch 11, 1948, Bergerac
p596
aVOctober 21, 1946, Sarrians
p597
aVMay 11, 1948, Carmaux
p598
aVJune 21, 1948, Brive
p599
aVNovember 26, 1950, Beaumont-de-Lomagne
p600
aVJune 17, 1944, Le Havre
p601
aVAugust 23, 1942, Pau
p602
aVDecember 6, 1949, Ibos
p603
aVJune 5, 1948, Payra-sur-l'Hers
p604
aVSeptember 15, 1946, Castelnaudary
p605
aVOctober 1, 1949, Cornebarrieu
p606
aVNovember 2, 1951, Tostat
p607
aVMarch 20, 1947, Arques
p608
aVSeptember 19, 1946, Sete
p609
aVApril 25, 1950, Saubion
p610
aVMay 28, 1947, Marseillan
p611
aVJuly 17, 1948, Beziers
p612
aVAugust 28, 1948, Toulouse
p613
aVJune 7, 1949, Le Poujol-sur-Oub
p614
aVFebruary 21, 1951, Severac-le-Chateau
p615
aVJuly 24, 1947, Auch
p616
aVFebruary 11, 1947, Bize-Minervois
p617
aVSeptember 19, 1946, Sete
p618
aVAugust 10, 1945, Grignols
p619
aVOctober 30, 1949, Meaux
p620
aVApril 15, 1948, Thuir
p621
aVJune 4, 1947, Saint-Jean-de-Luz
p622
aVSeptember 11, 1949, Pont-de-Vaux
p623
aVNovember 23, 1950, Fort-de-l'Eau
p624
aVNovember 23, 1949, Sainte-Colombe
p625
aVJune 21, 1945, Pamiers
p626
aVMarch 19, 1943, Toulon
p627
aVSeptember 8, 1949, Vendres
p628
aVSeptember 28, 1944, Montauban
p629
aVOctober 31, 1952, Le Creusot
p630
aVMarch 3, 1951, Ibos
p631
aVSeptember 28, 1954, Paris
p632
aVOctober 1, 1949, Sauveterre-de-Bearn
p633
aVMay 1, 1952, Beziers
p634
aVApril 21, 1947, Serignan
p635
aVMay 19, 1948, Brive
p636
aVJanuary 17, 1954, Ustaritz
p637
aVMay 25, 1950, Peyrehorade
p638
aVJune 6, 1945, Fontaine-les-Luxeuil
p639
aVSeptember 28, 1950, Saint-Maur-des-Fosse
p640
aVDecember 31, 1952, Toulouse
p641
aVOctober 22, 1954, Beziers
p642
aVJuly 10, 1943, Bayonne
p643
aVSeptember 8, 1952, Narbonne
p644
aVAugust 25, 1950, Peyrestortes
p645
aVFebruary 26, 1956, Saint-Cere
p646
aVDecember 1, 1951, Beziers
p647
aVJuly 5, 1948, Laruns
p648
aVJune 20, 1949, Colombes
p649
aVNovember 12, 1954, Vendres
p650
aVJanuary 21, 1953, Bourg-les-Valence
p651
aVOctober 17, 1951, Perpignan
p652
aVOctober 28, 1949, Encausse-les-Thermes
p653
aVOctober 23, 1950, Lourdes
p654
aVJune 2, 1948, Aucamville
p655
aVJanuary 11, 1956, Carcassonne
p656
aVSeptember 21, 1953, Saint-Vincent-de-Cos
p657
aVFebruary 5, 1954, Toulouse
p658
aVDecember 24, 1949, Graulhet
p659
aVNovember 1, 1953, Biarritz
p660
aVMay 15, 1950, Itxassou
p661
aVApril 4, 1955, Toulon
p662
aVSeptember 3, 1953, Rieumes
p663
aVSeptember 14, 1956, Saint-Jean-de-Luz
p664
aVJuly 27, 1952, Juillan
p665
aVNovember 3, 1955, Oloron-Sainte-Marie
p666
aVJanuary 16, 1953, Chaville
p667
aVJuly 10, 1952, Oloron-Sainte-Marie
p668
aVJune 27, 1957, La Rochelle
p669
aVMarch 13, 1957, Mauleon
p670
aVMay 7, 1956, Sigean
p671
aVDecember 16, 1949, Paris
p672
aVJuly 26, 1955, Layrac
p673
aVFebruary 13, 1958, Narbonne
p674
aVJuly 11, 1955, Narbonne
p675
aVJanuary 29, 1957, Tarbes
p676
aVAugust 19, 1954, Montlucon
p677
aVMarch 3, 1954, Narbonne
p678
aVApril 25, 1954, Aiguillon
p679
aVJuly 7, 1948, Clermont-Ferrand
p680
aVOctober 15, 1959, Calais
p681
aVJuly 11, 1955, Bagneres-de-Bigorre
p682
aVFebruary 6, 1955, Montrejeau
p683
aVMarch 30, 1955, Menzel-Bou-Zulfa
p684
aVAugust 31, 1958, Caracas
p685
aVDecember 31, 1953, La Rochelle
p686
aVApril 23, 1957, Lezignan
p687
aVFebruary 19, 1958, Bayonne
p688
aVNovember 7, 1960, Montreuil-sous-Bois
p689
aVNovember 28, 1957, Nice
p690
aVApril 26, 1956, Betbezer
p691
aVFebruary 9, 1956, Castillonnes
p692
aVJune 17, 1958, Saint-Gaudens
p693
aVAugust 20, 1948, Rabastens
p694
aVDecember 15, 1952, Beaufort
p695
aVAugust 16, 1956, Eymet
p696
aVSeptember 11, 1956, Pezenas
p697
aVMarch 26, 1956, La Tronche
p698
aVJune 25, 1960, Poitiers
p699
aVJuly 5, 1953, Galan
p700
aVApril 6, 1960, Dax
p701
aVJanuary 19, 1961, Monein
p702
aVMarch 30, 1955, Montrejeau
p703
aVJanuary 20, 1957, Bayonne
p704
aVJanuary 9, 1961, Valence
p705
aVMay 3, 1959, Ussel
p706
aVAugust 15, 1960, Saint-Andre-de-Seign
p707
aVFebruary 14, 1959, Lavelanet
p708
aVFebruary 14, 1962, Tonneins
p709
aVAugust 4, 1959, St-Denis-du-Sig
p710
aVJanuary 6, 1958, Cannes
p711
aVApril 22, 1957, Dax
p712
aVJanuary 16, 1954, Brive
p713
aVMarch 17, 1956, Beaumont-de-Lomagne
p714
aVSeptember 19, 1957, Toulon
p715
aVJune 15, 1953, Lourdes
p716
aVDecember 29, 1961, Neuilly-sur-Seine
p717
aVSeptember 4, 1962, Arcachon
p718
aVJune 17, 1956, Paris
p719
aVNovember 29, 1957, Lectoure
p720
aVNovember 19, 1963, Toulouse
p721
aVAugust 23, 1954, Castillonnes
p722
aVJune 8, 1962, Toulon
p723
aVAugust 20, 1959, Cavaillon
p724
aVNovember 10, 1956, Saint-Sauves-d'Auver
p725
aVJune 14, 1960, Cintegabelle
p726
aVMay 12, 1962, Cahors
p727
aVJuly 31, 1961, Pau
p728
aVSeptember 19, 1959, Carmaux
p729
aVDecember 16, 1960, Auterive
p730
aVJuly 7, 1960, Saint-Cloud
p731
aVJanuary 29, 1965, Tarbes
p732
aVAugust 17, 1966, Champagnole
p733
aVJune 30, 1961, Neuilly-sur-Seine
p734
aVApril 1, 1956, Meharin
p735
aVJuly 24, 1963, Lourdes
p736
aVMarch 26, 1959, Paris
p737
aVJune 13, 1957, Montagnac-sur-Auvign
p738
aVJanuary 12, 1960, Oujda
p739
aVJanuary 30, 1959, Bourgoin
p740
aVMarch 10, 1961, Alfou
p741
aVJanuary 31, 1964, Evereux
p742
aVJanuary 17, 1963, Versailles
p743
aVApril 2, 1963, Mauleon
p744
aVJuly 27, 1966, Marseille
p745
aVFebruary 14, 1967, Escalans
p746
aVMarch 31, 1964, Sort-en-Chalosse
p747
aVAugust 1, 1961, Lannemezan
p748
aVJune 16, 1966, Mont-de-Marsan
p749
aVMay 17, 1968, Cahors
p750
aVFebruary 8, 1963, Rouen
p751
aVSeptember 18, 1962, Nimes
p752
aVAugust 12, 1960, Tulle
p753
aVJune 13, 1966, Juvisy-sur-Orge
p754
aVMarch 2, 1967, Nogaro
p755
aVJuly 19, 1966, Biarritz
p756
aVAugust 14, 1967, Montlucon
p757
aVJune 27, 1961, Cape Town
p758
aVDecember 18, 1962, Beziers
p759
aVFebruary 2, 1963, Clermont-Ferrand
p760
aVApril 19, 1967, Romans-sur-Isere
p761
aVAugust 20, 1968, Ouija
p762
aVJanuary 2, 1965, Saint-Monde
p763
aVNovember 5, 1965, Clermont Ferrand
p764
aVAugust 28, 1967, Lagny-sur-Marne
p765
aVApril 5, 1967, Tarbes
p766
aVJune 11, 1970, Toulouse
p767
aVNovember 20, 1963, Condom
p768
aVFebruary 6, 1964, Reims
p769
aVApril 3, 1962, Saint-Pee-sur-Nivell
p770
aVJune 6, 1962, Asnieres
p771
aVOctober 16, 1963, Tulle
p772
aVApril 27, 1965, Fumel
p773
aVMarch 20, 1969, Cahors
p774
aVMarch 20, 1966, Firminy
p775
aVJuly 28, 1965, Paris
p776
aVJuly 1967, Nice
p777
aVAugust 1, 1964, Nice
p778
aVAugust 26, 1966, Toulouse
p779
aVNovember 22, 1963, Dijon
p780
aVJuly 19, 1969, Juillac
p781
aVJune 24, 1971, Aurillac
p782
aVOctober 6, 1961, Cape Town
p783
aVFebruary 7, 1963, Castelsarrasin
p784
aVOctober 15, 1962, Chatellerault
p785
aVOctober 2, 1964, Portet
p786
aVMarch 6, 1970, Pamiers
p787
aVOctober 5, 1967, Toulouse
p788
aVJuly 10, 1967, Bayonne
p789
aVMarch 26, 1968, Rodez
p790
aVFebruary 17, 1970, Pau
p791
aVDecember 19, 1970, Villefranche
p792
aVMay 1, 1966, Auch
p793
aVAugust 29, 1965, ?
p794
aVMarch 29, 1967, Paris
p795
aVOctober 21, 1965, ?
p796
aVNovember 14, 1965, Chamalieres
p797
aVMarch 15, 1970, Condom
p798
aVApril 19, 1966, La Seyne
p799
aVJune 25, 1970, Lyon
p800
aVDecember 19, 1966, Pamiers
p801
aVFebruary 12, 1966, Bordeaux
p802
aVNovember 22, 1972, Beziers
p803
aVApril 5, 1973, Vienne
p804
aVMay 15, 1966, Perpignan
p805
aVMay 5, 1967, Vittel
p806
aVMay 16, 1972, Toulon
p807
aVJune 16, 1973, Tulle
p808
aVMay 24, 1972, Marseille
p809
aVSeptember 25, 1960, Toulouse
p810
aVNovember 28, 1965, Aix-le-Province
p811
aVOctober 28, 1968, Dakar
p812
aVDecember 4, 1972, Narbonne
p813
aVApril 4, 1972, Perpignan
p814
aVOctober 21, 1974, Tarbes
p815
aVApril 15, 1971, Toulouse
p816
aVJanuary 21, 1975, Mont-de-Marsan
p817
aVDecember 13, 1974, Dax
p818
aVMarch 20, 1969, Villeneuve-sur-Lot
p819
aVDecember 7, 1973, Toulouse
p820
aVSeptember 20, 1969, Le Pradet
p821
aVNovember 12, 1973, Bourgoin
p822
aVDecember 31, 1972, Vendres
p823
aVFebruary 8, 1968, Saint-Girons
p824
aVFebruary 17, 1973, Dax
p825
aVNovember 25, 1966, Castelnaudary
p826
aVMay 4, 1970, Perigueux
p827
aVOctober 30, 1968, Fumel
p828
aVJanuary 15, 1972, Nice
p829
aVJune 1, 1973, Bellegarde
p830
aVNovember 7, 1968, Lavelanet
p831
aVNovember 6, 1973, Perpignan
p832
aVJanuary 21, 1970, Agen
p833
aVApril 8, 1971, Dax
p834
aVApril 4, 1968, Cherbourg
p835
aVApril 3, 1969, Marmande
p836
aVFebruary 14, 1973, Vichy
p837
aVApril 11, 1973, Aurillac
p838
aVApril 10, 1971, Brive
p839
aVJuly 30, 1970, Ville Lauragais
p840
aVMay 14, 1973, Saint-Foy-la-Grande
p841
aVMarch 25, 1974, Kumba
p842
aVJanuary 10, 1970, Paris
p843
aVMay 15, 1966, Auch
p844
aVSeptember 13, 1972, Oloron
p845
aVApril 30, 1969, Toulouse
p846
aVDecember 17, 1973, Tarbes
p847
aVMay 30, 1972, Beziers
p848
aVAugust 7, 1976, Pau
p849
aVFebruary 28, 1977, Toulon
p850
aVMay 20, 1972, Toulon
p851
aVJanuary 12, 1971, Soissons
p852
aVDecember 5, 1976, Toulouse
p853
aVMay 10, 1973, Carmaux
p854
aVMarch 16, 1971, Hyeres
p855
aVOctober 5, 1969, Canedo Ribeira dPena
p856
aVJanuary 2, 1972, Perpignan
p857
aVMay 25, 1977
p858
aVJune 5, 1975, Le Chesnay
p859
aVApril 8, 1976, Givors
p860
aVMarch 19, 1973, Narbonne
p861
aVJune 1, 1974, Belfort
p862
aVNovember 13, 1973, Harfleur
p863
aVFebruary 11, 1971, Lezignan
p864
aVMay 20, 1973, Bordeaux
p865
aVMarch 3, 1968, Aubagne
p866
aVOctober 25, 1977, Frejus
p867
aVMarch 6, 1974, Grenoble
p868
aVOctober 20, 1975, Tarbes
p869
aVFebruary 25, 1973, Cognac
p870
aVJuly 16, 1970, Lourdes
p871
aVMarch 13, 1972, Valence
p872
aVNovember 26, 1977, Toulon
p873
aVSeptember 30, 1969, Mont-de-Marsan
p874
aVJuly 3, 1972, Malmesbury
p875
aVNovember 9, 1971, Givors
p876
aVJanuary 17, 1969, Auckland
p877
aVDecember 8, 1977, Valence
p878
aVOctober 20, 1973, Nimes
p879
aVNovember 23, 1977, La Rochelle
p880
aVMarch 8, 1976, Vichy
p881
aVMarch 18, 1972, Athis-Mons
p882
aVJuly 20, 1978, Brive-la-Gallarde
p883
aVAugust 4, 1977, Suresnes
p884
aVJune 20, 1979, Perpignan
p885
aVApril 27, 1974, La Seyne-sur-Mer
p886
aVFebruary 9, 1971, Lagarenne
p887
aVSeptember 14, 1976, Bourg-en-Bresse
p888
aVApril 9, 1975, Pau
p889
aVJuly 22, 1974, Auch
p890
aVMay 29, 1974, Dakar
p891
aVDecember 9, 1975, Saint-Vallier
p892
aVAugust 1, 1968, Angouleme
p893
aVJuly 22, 1976, Dax
p894
aVSeptember 22, 1977, Bergerac
p895
aVJanuary 3, 1972, Saint-Saulve
p896
aVJuly 28, 1978, Castres
p897
aVMay 13, 1981, Montpellier
p898
aVMarch 23, 1974, Toulouse
p899
aVApril 5, 1979, Senlis
p900
aVDecember 7, 1978, Pau
p901
aVJanuary 6, 1978, Agboville
p902
aVMarch 2, 1979, Toulouse
p903
aVJanuary 15, 1979, Tyrosse
p904
aVAugust 12, 1972, Auckland
p905
aVOctober 15, 1972, Lyon
p906
aVMay 20, 1982, Castres
p907
aVFebruary 6, 1979, Nimes
p908
aVSeptember 26, 1980, Beaumont
p909
aVJune 12, 1979, Pau
p910
aVOctober 16, 1982, Toulouse
p911
aVMay 22, 1973, Auch
p912
aVSeptember 26, 1979, Beziers
p913
aVSeptember 17, 1972, Johannesburg
p914
aVMay 26, 1979, Castres
p915
aVFebruary 20, 1980, Bayonne
p916
aVAugust 26, 1974, Nimes
p917
aVAugust 10, 1979, Aubenas
p918
aVMay 5, 1971, Mauvezin
p919
aVFebruary 24, 1976, Narbonne
p920
aVMay 7, 1981, Echirolles
p921
aVJuly 6, 1974, Nanterre
p922
aVSeptember 19, 1980, Brive-la-Gallarde
p923
aVDecember 2, 1977, Senlis
p924
aVMay 23, 1980, Perpignan
p925
aVSeptember 19, 1979, Benoni
p926
aVOctober 5, 1980, Lyon
p927
aVFebruary 9, 1978, Saint-Gaudens
p928
aVApril 2, 1981, Bayonne
p929
aVSeptember 20, 1978, Bourgoin
p930
aVSeptember 3, 1977, Beaumont
p931
aVJune 7, 1975, Toulouse
p932
aVDecember 19, 1983, Kinshasa, Zaire
p933
aVJanuary 26, 1975, Villefranche
p934
aVMay 22, 1976, Neuilly-sur-Seine
p935
aVMay 26, 1977, Clamart
p936
aVJuly 3, 1980, Aix-en-Province
p937
aVJanuary 13, 1978, Bayonne
p938
aVSeptember 28, 1972, Perpignan
p939
aVAugust 15, 1973, Talence
p940
aVJanuary 26, 1983, Beziers
p941
aVJanuary 12, 1982, Paris
p942
aVAugust 4, 1982, Frejus
p943
aVJuly 29, 1978, Tarbes
p944
aVSeptember 7, 1983, Lavelanet
p945
aVOctober 30, 1982, Perpignan
p946
aVJuly 8, 1980, Agen
p947
aVJanuary 17, 1984, Sens, Burgundy
p948
aVApril 20, 1983, Ris-Orangis
p949
aVOctober 31, 1972, Thouars
p950
aVOctober 12, 1981, Toulouse
p951
aVAugust 8, 1979, Vienne
p952
aVJune 7, 1981, Valence
p953
aVNovember 18, 1981, Abidjan, Ivory Coas
p954
aVOctober 2, 1981, Woluwe-Saint-Lambert
p955
aVMarch 31, 1985, Saint-Doulchard
p956
aVOctober 24, 1985, Tarbes
p957
aVDecember 20, 1976, Mont-de-Marsan
p958
aVDecember 23, 1980, Grenoble
p959
aVOctober 4, 1982, Toulouse
p960
aVMarch 4, 1977, Toulon
p961
aVNovember 1, 1986, Auch
p962
aVJuly 31, 1981, Rodez
p963
aVJune 2, 1984, Reims
p964
aVNovember 27, 1985, Limoges
p965
aVAugust 9, 1975, Chambery
p966
aVOctober 30, 1981, Tarbes
p967
aVMarch 26, 1982, Cannes
p968
aVApril 13, 1977, Perpignan
p969
aVJune 26, 1984, Toulouse
p970
aVJanuary 17, 1972, Cenon
p971
aVJuly 21, 1986, Ouagadougou
p972
aVNovember 17, 1981, Lille
p973
aVNovember 26, 1977, Montauban
p974
aVMay 4, 1983, Le Puy-en-Velay
p975
aVNovember 11, 1986, Herault
p976
aVJanuary 19, 1980, Saint-Gaudens
p977
aVNovember 15, 1988, Metz
p978
aVFebruary 5, 1986, Paris
p979
aVFebruary 12, 1983, Clermont-Ferrand
p980
aVOctober 27, 1983, Agen
p981
aVApril 15, 1988, Bourgoin
p982
aVMay 25, 1983, Savignu-sur-Orge
p983
aVJune 17, 1986, Ceret
p984
aVApril 21, 1985, Montpellier
p985
aVMarch 22, 1978, Agen
p986
aVSeptember 9, 1987, Montauban
p987
aVMay 7, 1980, Grenoble
p988
aVMay 9, 1977, Tremblay-les-Gonesse
p989
aVJuly 26, 1984, Paris
p990
aVMay 14, 1985, Niort
p991
aVNovember 6, 1975, Perpignan
p992
aVApril 29, 1985, Oloron-Sainte-Marie
p993
aVDecember 4, 1983, Talence
p994
aVJuly 28, 1986, Epinal
p995
aVApril 3, 1983, Castres
p996
aVJanuary 5, 1984, Pau
p997
aVNovember 16, 1986, Toulouse
p998
aVSeptember 17, 1988, Creteil
p999
aVAugust 20, 1985, Tulle
p1000
aVDecember 19, 1983, Perigueux
p1001
aVAugust 1, 1981, Grenoble
p1002
aVOctober 26, 1983, Marseille
p1003
aVMarch 3, 1989, Langon
p1004
aVApril 13, 1989, Paray-le-Monial
p1005
aVJanuary 2, 1984, La Fere
p1006
aVDecember 27, 1985, Frejus
p1007
aVMarch 28, 1989, Tarbes
p1008
aVSeptember 20, 1985, Perpignan
p1009
aVDecember 26, 1981, Carcassonne
p1010
aVJune 29, 1985, Perpignan
p1011
aVDecember 17, 1980, Dijon
p1012
aVJune 2, 1987, Pamiers
p1013
aVOctober 28, 1988, Tours
p1014
aVFebruary 12, 1991, Toulouse
p1015
aVJanuary 20, 1988, Paris
p1016
aVJanuary 14, 1988, Hyeres
p1017
aVDecember 16, 1991, Colmar
p1018
aVApril 13, 1990, Lot-et-Garonne
p1019
aVApril 21, 1989, Foix
p1020
aVSeptember 14, 1990, Mont-de-Marsan
p1021
aVDecember 31, 1993, Frejus
p1022
aVDecember 30, 1988, Bordeaux
p1023
aVMarch 1, 1984, Clermont-Ferrand
p1024
aVJanuary 2, 1982, Narbonne
p1025
aVNovember 18, 1982, Port Vila
p1026
aVOctober 21, 1991, Noumea, New Caledo
p1027
aVOctober 20, 1984, Durban
p1028
aVMarch 26, 1994, La Seyne-sur-Mer
p1029
aVApril 3, 1989, Oloron-Sainte-Marie
p1030
aVApril 21, 1985, Longjumeau
p1031
aVOctober 9, 1989, Cambrai
p1032
aVMarch 28, 1987, Frankfort
p1033
aVJune 4, 1989, Moorreesburg
p1034
aVMay 2, 1984, Mont-de-Marsan
p1035
aVAugust 25, 1990, Trappes
p1036
aVOctober 18, 1989, Sarcelles
p1037
aVMarch 27, 1989, Algiers
p1038
aVJune 6, 1988, Aubergenville
p1039
aVAugust 20, 1991, Neuilly-sur-Seine
p1040
aVJuly 22, 1987, Neuilly-sur-Seine
p1041
aVNovember 19, 1990, Toulouse
p1042
aVApril 2, 1986, Perpignan
p1043
aVApril 7, 1988, Pithiviers
p1044
aVJanuary 14, 1990, Sainte-Foy-la-Grande
p1045
aVAugust 5, 1983, Basse-Ham
p1046
aVAugust 24, 1989, Bourgoin
p1047
aVMay 4, 1986, Krugersdorp
p1048
aVSeptember 18, 1993, Biarritz
p1049
aVMarch 26, 1990, Timaru
p1050
aVFebruary 13, 1990, Toulon
p1051
aVJune 25, 1986, East London
p1052
aVMay 11, 1993, Saint-Pee-sur-Nivell
p1053
aVApril 23, 1989, Combronde
p1054
aVJuly 11, 1990, Naluwai
p1055
a.