(lp1
VSeptember 17, 1873, Paris
p2
aVNovember 15, 1879, Saint-Vivien-de-Medo
p3
aVDecember 22, 1879, Andance
p4
aVSeptember 11, 1885, Beauvais
p5
aVDecember 1881, Cockermouth
p6
aVDecember 11, 1880, Moulineaux
p7
aVAugust 19, 1881, Salies-de-Bearn
p8
aVcirca 1883, Cayenne
p9
aVDecember 27, 1883, Viella
p10
aVJanuary 31, 1883, Paris
p11
aVMarch 17, 1885, Paris
p12
aVJanuary 23, 1882, Philadelphia, PA, United States
p13
aVMay 10, 1883, Toulouse
p14
aVJanuary 15, 1885, Dijon
p15
aVdate unknown, ?
p16
aVOctober 20, 1882, Paris
p17
aVDecember 6, 1884, Noisy-le-Sec
p18
aVSeptember 16, 1885, Paris
p19
aVJuly 28, 1876, Cardiff
p20
aVAugust 19, 1883, Amazy
p21
aVdate unknown, ?
p22
aVApril 29, 1884, Lyon
p23
aVOctober 25, 1879, Paris
p24
aVFebruary 15, 1881, Bordeaux
p25
aVMay 7, 1883, Basse-Terre, Guadeloupe
p26
aVAugust 29, 1888, Cayenne
p27
aVMay 27, 1887, Neuville-sur-Saone
p28
aVdate unknown, ?
p29
aVcirca 1886, Saigon
p30
aVDecember 25, 1885, Bordeaux
p31
aVSeptember 7, 1886, Paris
p32
aVSeptember 13, 1887, Bonnevaux
p33
aVFebruary 10, 1884, Lavernose
p34
aVDecember 9, 1882, Bordeaux
p35
aVNovember 2, 1885, Paris
p36
aVJune 28, 1881, Saint-Loubes
p37
aVMay 23, 1883, Saint-Christophe-de-
p38
aVJuly 31, 1888, Saint-Girons
p39
aVApril 26, 1885, Saint-Pierre-sur-Dro
p40
aVcirca 1883, ?
p41
aVdate unknown, ?
p42
aVMarch 29, 1887, Lyon
p43
aVFebruary 28, 1889, Paris
p44
aVJune 29, 1888, Gagny
p45
aVJanuary 30, 1890, St Petersburg
p46
aVJuly 6, 1881, Bordeaux
p47
aVSeptember 12, 1884, Bordeaux
p48
aVJune 14, 1890, Paris
p49
aVJune 16, 1888, Lyon
p50
aVJune 4, 1881, Avesnes-sur-Helpe
p51
aVApril 24, 1882, Bayonne
p52
aVNovember 27, 1880, Paris
p53
aVDecember 1, 1883, Bordeaux
p54
aVOctober 1, 1886, Osserain
p55
aVdate unknown, ?
p56
aVcirca 1883, ?
p57
aVSeptember 18, 1885, Beziers
p58
aVcirca 1887, ?
p59
aVMarch 4, 1887, Houailou, New Caledo
p60
aVMay 19, 1889, Tarbes
p61
aVDecember 29, 1890, Versailles
p62
aVFebruary 17, 1885, La Mas d'Azil
p63
aVMay 26, 1887, Lyon
p64
aVJanuary 14, 1884, Paris
p65
aVFebruary 25, 1887, Paris
p66
aVNovember 30, 1884, Pau
p67
aVAugust 15, 1889, Rochefort-sur-Mer
p68
aVFebruary 9, 1887, Luz-Saint-Sauveur
p69
aVJuly 15, 1888, Ondres
p70
aVNovember 1, 1886, Pissotte
p71
aVDecember 6, 1886, Moissat
p72
aVAugust 13, 1881, Tarbes
p73
aVMay 7, 1890, Tours
p74
aVFebruary 20, 1885, Bordeaux
p75
aVNovember 24, 1887, Courtalain
p76
aVMay 8, 1888, Mustapha
p77
aVApril 12, 1890, Cauderan
p78
aVDecember 20, 1886, Orthez
p79
aVFebruary 16, 1888, Biarritz
p80
aVJanuary 13, 1889, Ilharre
p81
aVMarch 2, 1889, Anglet
p82
aVSeptember 15, 1884, London
p83
aVJune 27, 1890, Aix-les-Bains
p84
aVMarch 17, 1885, Paris
p85
aVFebruary 20, 1890, Bordeaux
p86
aVFebruary 14, 1886, Tarbes
p87
aVFebruary 10, 1881, Bosdarros
p88
aVFebruary 3, 1891, Anglet
p89
aVMay 28, 1891, Ostabat
p90
aVDecember 12, 1890, Saint-Jean-de-Luz
p91
aVAugust 13, 1889, Paris
p92
aVFebruary 11, 1893, Urrugne
p93
aVAugust 31, 1888, La Roche-sur-Foron
p94
aVOctober 9, 1893, Toulouse
p95
aVDecember 14, 1884, Paris
p96
aVApril 30, 1892, Ars-en-Re
p97
aVMarch 11, 1891, Toulouse
p98
aVJanuary 10, 1888, Cayenne
p99
aVJune 16, 1888, Saint-Just-en-Chauss
p100
aVNovember 15, 1892, Paris
p101
aVJanuary 4, 1890, Aureilhan
p102
aVcirca 1893, ?
p103
aVOctober 9, 1895, Bayonne
p104
aVJanuary 18, 1888, Bordeaux
p105
aVJuly 21, 1891, Agen
p106
aVFebruary 3, 1889, Bizanos
p107
aVJanuary 7, 1891, Bayonne
p108
aVJanuary 4, 1892, Paris
p109
aVNovember 10, 1894, Neuilly-sur-Seine
p110
aVMarch 15, 1889, Urrugne
p111
aVMarch 17, 1889, Siran
p112
aVDecember 9, 1889, Bayonne
p113
aVMarch 16, 1898, Bayonne
p114
aVApril 9, 1893, Mont-de-Marsan
p115
aVJuly 5, 1898, Bordeaux
p116
aVFebruary 7, 1899, Saint-Sever
p117
aVFebruary 18, 1898, Ostabat
p118
aVMarch 21, 1894, Bayonne
p119
aVFebruary 16, 1892, Angouleme
p120
aVSeptember 16, 1894, Llupia
p121
aVDecember 4, 1894, Gorses
p122
aVDecember 13, 1895, Clairac
p123
aVJune 23, 1893, Brienon-sur-Armencon
p124
aVMarch 24, 1894, Bordeaux
p125
aVAugust 23, 1889, Dax
p126
aVMarch 27, 1894, Levignacq
p127
aVcirca 1898, Paris
p128
aVMay 20, 1892, Dax
p129
aVApril 13, 1899, Perpignan
p130
aVDecember 8, 1899, Lourdes
p131
aVMay 1, 1898, Laroque-Timbaut
p132
aVFebruary 11, 1900, Perpignan
p133
aVJune 2, 1895, Toulouse
p134
aVAugust 24, 1895, Larrau
p135
aVOctober 11, 1900, Biarritz
p136
aVSeptember 25, 1899, Tarbes
p137
aVDecember 18, 1900, Beziers
p138
aVNovember 28, 1900, Bone
p139
aVMay 14, 1899, Pau
p140
aVJune 22, 1889, Latour-bas-Elne
p141
aVAugust 14, 1899, Beziers
p142
aVJuly 1, 1898, Tarbes
p143
aVNovember 3, 1897, Laon
p144
aVNovember 25, 1895, Saint-Medard-en-Jall
p145
aVJanuary 11, 1899, Buenos Aires
p146
aVJanuary 8, 1899, Lourdes
p147
aVJuly 4, 1892, Pamiers
p148
aVDecember 11, 1897, Port-Vendres
p149
aVJuly 31, 1902, Le Bouceau
p150
aVMarch 29, 1902, Perpignan
p151
aVDecember 7, 1894, Neuf-Mesnil
p152
aVJune 4, 1893, Toulouse
p153
aVNovember 8, 1898, Biaudos
p154
aVDecember 25, 1899, Perpignan
p155
aVOctober 23, 1897, Toulouse
p156
aVApril 18, 1899, Argeles-Gazost
p157
aVSeptember 28, 1901, Chateaurenard
p158
aVOctober 18, 1898, Bayonne
p159
aVSeptember 7, 1900, Le Boucau
p160
aVAugust 27, 1901, Le Boucau
p161
aVMarch 4, 1901, Dax
p162
aVOctober 19, 1900, Bayonne
p163
aVFebruary 10, 1900, Sarraziet
p164
aVJanuary 15, 1903, Perigueux
p165
aVFebruary 4, 1897, Toulouse
p166
aVMay 14, 1892, Dax
p167
aVJuly 14, 1901, Langeac
p168
aVAugust 20, 1902, Lons
p169
aVJuly 18, 1897, Villefranche-de-Conf
p170
aVAugust 29, 1898, Moussan
p171
aVJune 15, 1901, Perpignan
p172
aVMarch 31, 1901, Verrieres-en-Forez
p173
aVJanuary 3, 1902, Bordeaux
p174
aVNovember 14, 1897, Urrugne
p175
aVJune 14, 1902, Thuir
p176
aVApril 11, 1902, San Nicola
p177
aVMarch 19, 1900, Coursan
p178
aVMarch 17, 1901, Toulouse
p179
aVSeptember 16, 1894, Argelliers
p180
aVFebruary 21, 1901, Carignan
p181
aVOctober 18, 1902, Narbonne
p182
aVAugust 16, 1902, Saint-Etienne
p183
aVApril 28, 1900, Carmaux
p184
aVOctober 12, 1904, Perpignan
p185
aVAugust 11, 1904, Vaucresson
p186
aVcirca 1896, ?
p187
aVMay 31, 1898, Agen
p188
aVApril 1, 1901, Villenueve-de-la-Rah
p189
aVMarch 17, 1899, Le Mans
p190
aVApril 18, 1901, Anglet
p191
aVMay 12, 1900, Tarbes
p192
aVJanuary 8, 1902, Beziers
p193
aVDecember 12, 1898, Saint-Macaire
p194
aVJanuary 23, 1898, Saint-Jean-de-Luz
p195
aVJanuary 27, 1898, Paris
p196
aVcirca 1902, ?
p197
aVSeptember 1, 1902, Tarbes
p198
aVApril 5, 1903, Saint-Gaudens
p199
aVApril 3, 1901, Terrats
p200
aVFebruary 1, 1900, Vic-Bigorre
p201
aVJuly 17, 1902, Castelan-Magnoac
p202
aVJuly 24, 1904, Bayonne
p203
aVJanuary 22, 1904, Perpignan
p204
aVcirca 1899, Paris
p205
aVOctober 6, 1901, Argein
p206
aVAugust 12, 1898, Toulouges
p207
aVJuly 26, 1899, Ferrieres-en-Brie
p208
aVMarch 19, 1903, Villeneuve-les-Bezie
p209
aVMay 5, 1894, Saint-Girons
p210
aVSeptember 3, 1903, Ychoux
p211
aVJuly 7, 1898, Auch
p212
aVSeptember 23, 1903, Paris
p213
aVFebruary 18, 1907, Bordeaux
p214
aVFebruary 14, 1897, Chambery
p215
aVJanuary 12, 1905, Paris
p216
aVNovember 6, 1902, Sorede
p217
aVMay 28, 1906, Limoges
p218
aVMarch 7, 1902, Nay
p219
aVMarch 20, 1905, Ille-sur-Tet
p220
aVMarch 17, 1904, Aixe-sur-Vienne
p221
aVMay 11, 1900, Paris
p222
aVMay 8, 1902, Castelnau-Magnoac
p223
aVMay 7, 1899, Tarbes
p224
aVApril 28, 1903, Leon
p225
aVApril 18, 1899, La Teste
p226
aVDecember 29, 1903, Badens
p227
aVJanuary 9, 1905, Toulouse
p228
aVOctober 11, 1902, Beziers
p229
aVOctober 24, 1905, Le Boucau
p230
aVOctober 13, 1905, Biarritz
p231
aVOctober 29, 1904, Foix
p232
aVDecember 13, 1905, Saint-Jean-d'Angely
p233
aVFebruary 22, 1906, San Fernando
p234
aVDecember 6, 1903, Palau-del-Vidre
p235
aVMay 1, 1906, Ondres
p236
aVFebruary 24, 1906, Vitrac
p237
aVApril 11, 1898, Laroquebrou
p238
aVMay 20, 1905, Maureilhan
p239
aVNovember 8, 1902, Antignac
p240
aVJune 10, 1905, Paris
p241
aVJuly 4, 1906, Hendaye
p242
aVFebruary 19, 1904, Aire-sur-l'Adour
p243
aVMarch 19, 1904, Dax
p244
aVJuly 27, 1903, Toulouse
p245
aVOctober 7, 1910, Saint-Pee-de-Bigorre
p246
aVOctober 9, 1905, Elne
p247
aVMarch 31, 1905, Lezignan
p248
aVJune 4, 1904, Trouillas
p249
aVMarch 13, 1907, Limoges
p250
aVApril 22, 1905, Thuir
p251
aVMarch 15, 1902, Beziers
p252
aVFebruary 4, 1906, Lezignan
p253
aVAugust 19, 1905, Homps
p254
aVApril 16, 1909, Toulouse
p255
aVFebruary 17, 1905, Pau
p256
aVFebruary 6, 1907, Toulouse
p257
aVAugust 13, 1912, La Chatre
p258
aVMay 29, 1902, Saint-Feliu d'Avall
p259
aVMay 17, 1906, Perpignan
p260
aVMarch 16, 1908, Mauleon
p261
aVSeptember 22, 1906, Clermont-Ferrand
p262
aVSeptember 22, 1906, Saint-Andre-de-Roque
p263
aVFebruary 5, 1900, Juillan
p264
aVJuly 18, 1912, Marmande
p265
aVApril 28, 1909, Tunis
p266
aVMay 17, 1902, Saigon
p267
aVJanuary 6, 1903, Saint-Ouen
p268
aVNovember 28, 1906, Villereal
p269
aVAugust 4, 1904, Beziers
p270
aVMarch 10, 1906, Parthenay
p271
aVDecember 12, 1909, Montauban
p272
aVAugust 10, 1902, Cognac
p273
aVDecember 16, 1904, Condom
p274
aVApril 15, 1907, Toulouse
p275
aVMarch 2, 1906, Roanne
p276
aVApril 10, 1911, Chartres
p277
aVAugust 10, 1909, Espira-de-Algy
p278
aVMay 22, 1909, Vichy
p279
aVFebruary 9, 1910, Ajaccio
p280
aVJune 15, 1909, Chalon-sur-Saone
p281
aVNovember 13, 1905, Limoges
p282
aVApril 17, 1909, Auch
p283
aVSeptember 18, 1903, Oviedo
p284
aVDecember 21, 1908, Bayonne
p285
aVSeptember 12, 1907, Saint-Pierre-et-Miqu
p286
aVFebruary 1, 1911, Narbonne
p287
aVApril 24, 1912, Limoux
p288
aVDecember 24, 1911, Limoux
p289
aVAugust 21, 1909, Arcachon
p290
aVFebruary 1, 1912, Collioure
p291
aVJuly 2, 1911, Castres
p292
aVNovember 14, 1910, Bois-Colombes
p293
aVFebruary 10, 1906, Narbonne
p294
aVApril 11, 1909, Le Treport
p295
aVMay 19, 1908, Arthes
p296
aVMay 17, 1911, Saint-Palais
p297
aVNovember 4, 1906, Pergamino
p298
aVFebruary 16, 1904, Saint-Nazaire
p299
aVJuly 2, 1914, Bayonne
p300
aVOctober 31, 1908, Saint-Pierre-et-Miqu
p301
aVMarch 31, 1911, Wattrelos
p302
aVJune 27, 1910, Saint-Jean-sur-Veyle
p303
aVMay 17, 1905, Bayonne
p304
aVFebruary 29, 1912, ?
p305
aVMarch 29, 1906, Chastreix
p306
aVApril 16, 1914, Thiers
p307
aVJanuary 11, 1914, Le Boucau
p308
aVMarch 2, 1915, Montgaillard
p309
aVJanuary 30, 1908, Biarritz
p310
aVMarch 27, 1913, Alberville
p311
aVNovember 13, 1910, Marsoulas
p312
aVNovember 25, 1905, Pau
p313
aVJuly 27, 1909, Labenne
p314
aVJuly 12, 1917, Perpignan
p315
aVNovember 7, 1908, Loriol
p316
aVMarch 23, 1915, Toulon
p317
aVJuly 7, 1911, Castelbiague
p318
aVAugust 28, 1908, Ardoix
p319
aVApril 9, 1916, Toulouse
p320
aVMarch 19, 1913, Pezens
p321
aVMay 7, 1914, Aveze
p322
aVOctober 13, 1912, Saint-Girons
p323
aVFebruary 22, 1908, Biarritz
p324
aVFebruary 28, 1914, Bayonne
p325
aVJanuary 30, 1913, Bordeaux
p326
aVMarch 7, 1909, Charmant
p327
aVJuly 4, 1913, Paris
p328
aVFebruary 22, 1913, Clermont-Ferrand
p329
aVApril 18, 1911, Bordeaux
p330
aVNovember 12, 1914, Carcassonne
p331
aVMay 25, 1915, Saint-Cyprien
p332
aVDecember 13, 1913, Saint-Maur-des-Fosse
p333
aVSeptember 17, 1914, Puan
p334
aVJanuary 4, 1909, Le Creusot
p335
aVMay 8, 1914, Pontacq
p336
aVJune 15, 1911, Sauxillanges
p337
aVDecember 30, 1917, Borderes-sur-l'Echez
p338
aVJuly 31, 1914, Saint-Girons
p339
aVMay 19, 1916, Pau
p340
aVMay 20, 1917, Ville-d'Avray
p341
aVMay 8, 1924, Toulouse
p342
aVNovember 12, 1919, Cambo
p343
aVMarch 12, 1921, Angouleme
p344
aVFebruary 12, 1915, Ussel
p345
aVSeptember 11, 1920, Saint-Vincent-de-Tyr
p346
aVAugust 29, 1922, Fontenay-sous-Bois
p347
aVAugust 3, 1920, Venissieux
p348
aVMay 1, 1923, Bordeaux
p349
aVAugust 1, 1923, Lourdes
p350
aVJuly 15, 1912, Marseille
p351
aVAugust 4, 1914, Castelnau-Montratier
p352
aVNovember 28, 1922, Odos
p353
aVMay 26, 1923, Bayonne
p354
aVMarch 7, 1915, Paris
p355
aVFebruary 29, 1920, Toulouse
p356
aVJanuary 6, 1924, Narbonne
p357
aVJune 21, 1918, Saint-Etienne
p358
aVJuly 13, 1921, Layrac
p359
aVJuly 3, 1922, Toulouse
p360
aVJune 23, 1920, Gelos
p361
aVJanuary 27, 1923, Seilhac
p362
aVJanuary 30, 1923, Bourg-en-Bresse
p363
aVJune 27, 1917, Gonfreville l'Orcher
p364
aVMarch 30, 1921, Itxassou
p365
aVFebruary 13, 1917, Benejacq
p366
aVJuly 16, 1919, Hendaye
p367
aVFebruary 15, 1924, Rieumes
p368
aVMarch 16, 1923, Biarritz
p369
aVDecember 13, 1916, Lyon
p370
aVAugust 27, 1924, Dax
p371
aVFebruary 3, 1924, Port Vendres
p372
aVSeptember 28, 1920, Pau
p373
aVMarch 18, 1924, Bourg-en-Bresse
p374
aVMay 11, 1920, Odos
p375
aVOctober 4, 1929, Saint-Vincent-de-Tyr
p376
aVJanuary 30, 1922, Captieux
p377
aVOctober 18, 1920, Arette
p378
aVJuly 12, 1924, Clermont-Ferrand
p379
aVApril 1, 1914, Saint-Exupery-les-Ro
p380
aVOctober 14, 1925, Bayonne
p381
aVFebruary 9, 1926, Collioure
p382
aVDecember 12, 1924, Lannemezan
p383
aVJune 1, 1927, Tarbes
p384
aVAugust 2, 1923, Toulouse
p385
aVAugust 25, 1924, Toulon
p386
aVNovember 9, 1924, Riscle
p387
aVJanuary 17, 1922, Lucq-de-Bearn
p388
aVMarch 18, 1922, Ciboure
p389
aVSeptember 26, 1929, Souillac
p390
aVSeptember 7, 1921, Saint-Emiliosen
p391
aVJuly 13, 1927, Dax
p392
aVSeptember 21, 1926, Saint-Gein
p393
aVDecember 23, 1922, Aix-les-Bains
p394
aVNovember 26, 1924, Orthez
p395
aVNovember 26, 1922, Clermont-Ferrand
p396
aVMay 11, 1925, Bergerac
p397
aVOctober 10, 1929, Boe
p398
aVAugust 29, 1925, Issus
p399
aVSeptember 28, 1930, Saint-Germain-de-Cal
p400
aVJuly 15, 1929, Vervins
p401
aVMarch 13, 1927, Perigueux
p402
aVOctober 27, 1927, Meximieux
p403
aVJuly 12, 1924, Claira
p404
aVNovember 17, 1928, Lourdes
p405
aVJanuary 6, 1927, Gan
p406
aVAugust 12, 1929, Aureilhan
p407
aVDecember 7, 1925, Rougnat
p408
aVJanuary 22, 1928, Saint-Nazaire
p409
aVApril 27, 1928, Bayonne
p410
aVOctober 5, 1924, Gan
p411
aVJanuary 3, 1930, Bellocq
p412
aVJuly 26, 1926, Junay
p413
aVFebruary 9, 1929, Carcassonne
p414
aVSeptember 23, 1928, Saint-Julien-en-Gene
p415
aVDecember 15, 1924, Usseau
p416
aVMay 1, 1929, Rignac
p417
aVJuly 3, 1926, Troyes
p418
aVOctober 19, 1932, Cessenon
p419
aVAugust 4, 1929, Trouillas
p420
aVOctober 30, 1933, Quillan
p421
aVMay 26, 1933, Toulouse
p422
aVSeptember 11, 1924, Irun
p423
aVMarch 13, 1921, Saint-Sever
p424
aVJuly 4, 1930, Biarritz
p425
aVApril 26, 1931, Biarritz
p426
aVJanuary 11, 1930, Le Boucau
p427
aVAugust 9, 1932, Lourdes
p428
aVDecember 22, 1929, Bages
p429
aVJuly 21, 1931, Etain
p430
aVMarch 6, 1924, Peyrehorade
p431
aVSeptember 21, 1928, Bayonne
p432
aVOctober 21, 1930, Le Boucau
p433
aVJune 3, 1933, Tullins
p434
aVAugust 14, 1934, Monfort-en-Chalosse
p435
aVJanuary 21, 1925, Lourdes
p436
aVMay 3, 1933, Narbonne
p437
aVDecember 14, 1933, Dax
p438
aVOctober 2, 1928, Le Coteau
p439
aVMay 3, 1928, Biarritz
p440
aVMay 6, 1931, Mouguerre
p441
aVSeptember 25, 1929, Salleles d'Aude
p442
aVFebruary 9, 1932, Paris
p443
aVJuly 22, 1932, Lourdes
p444
aVAugust 30, 1934, Hendaye
p445
aVJuly 31, 1928, Frassivoro
p446
aVJune 4, 1929, Toulouse
p447
aVDecember 24, 1932, Samatan
p448
aVSeptember 28, 1935, Cognac
p449
aVNovember 1, 1929, Belloc-St-Clamens
p450
aVNovember 20, 1927, Grenoble
p451
aVFebruary 6, 1933, Bram
p452
aVSeptember 7, 1929, Sauveterre-de-Bearn
p453
aVOctober 12, 1933, Montelimar
p454
aVDecember 19, 1927, Ciboure
p455
aVApril 5, 1930, Argeles-sur-Mer
p456
aVMay 25, 1934, Vic-en-Bigorre
p457
aVAugust 13, 1932, Rivesaltes
p458
aVFebruary 11, 1931, Vichy
p459
a.