(lp1
VFrance v New Zealand at Parc des Princes, Jan 1, 1906
p2
aVFrance v New Zealand at Parc des Princes, Jan 1, 1906
p3
aVFrance v New Zealand at Parc des Princes, Jan 1, 1906
p4
aVFrance v New Zealand at Parc des Princes, Jan 1, 1906
p5
aVFrance v New Zealand at Parc des Princes, Jan 1, 1906
p6
aVFrance v New Zealand at Parc des Princes, Jan 1, 1906
p7
aVFrance v New Zealand at Parc des Princes, Jan 1, 1906
p8
aVFrance v New Zealand at Parc des Princes, Jan 1, 1906
p9
aVFrance v New Zealand at Parc des Princes, Jan 1, 1906
p10
aVFrance v New Zealand at Parc des Princes, Jan 1, 1906
p11
aVFrance v New Zealand at Parc des Princes, Jan 1, 1906
p12
aVFrance v New Zealand at Parc des Princes, Jan 1, 1906
p13
aVFrance v New Zealand at Parc des Princes, Jan 1, 1906
p14
aVFrance v New Zealand at Parc des Princes, Jan 1, 1906
p15
aVFrance v New Zealand at Parc des Princes, Jan 1, 1906
p16
aVFrance v England at Parc des Princes, Mar 22, 1906
p17
aVFrance v England at Parc des Princes, Mar 22, 1906
p18
aVFrance v England at Parc des Princes, Mar 22, 1906
p19
aVFrance v England at Parc des Princes, Mar 22, 1906
p20
aVFrance v England at Parc des Princes, Mar 22, 1906
p21
aVFrance v England at Parc des Princes, Mar 22, 1906
p22
aVFrance v England at Parc des Princes, Mar 22, 1906
p23
aVEngland v France at Richmond, Jan 5, 1907
p24
aVEngland v France at Richmond, Jan 5, 1907
p25
aVEngland v France at Richmond, Jan 5, 1907
p26
aVEngland v France at Richmond, Jan 5, 1907
p27
aVEngland v France at Richmond, Jan 5, 1907
p28
aVEngland v France at Richmond, Jan 5, 1907
p29
aVEngland v France at Richmond, Jan 5, 1907
p30
aVFrance v England at Colombes, Jan 1, 1908
p31
aVFrance v England at Colombes, Jan 1, 1908
p32
aVFrance v England at Colombes, Jan 1, 1908
p33
aVFrance v England at Colombes, Jan 1, 1908
p34
aVFrance v England at Colombes, Jan 1, 1908
p35
aVFrance v England at Colombes, Jan 1, 1908
p36
aVWales v France at Cardiff, Mar 2, 1908
p37
aVWales v France at Cardiff, Mar 2, 1908
p38
aVEngland v France at Leicester, Jan 30, 1909
p39
aVEngland v France at Leicester, Jan 30, 1909
p40
aVEngland v France at Leicester, Jan 30, 1909
p41
aVEngland v France at Leicester, Jan 30, 1909
p42
aVEngland v France at Leicester, Jan 30, 1909
p43
aVFrance v Wales at Colombes, Feb 23, 1909
p44
aVFrance v Wales at Colombes, Feb 23, 1909
p45
aVIreland v France at Lansdowne Road, Mar 20, 1909
p46
aVIreland v France at Lansdowne Road, Mar 20, 1909
p47
aVIreland v France at Lansdowne Road, Mar 20, 1909
p48
aVIreland v France at Lansdowne Road, Mar 20, 1909
p49
aVIreland v France at Lansdowne Road, Mar 20, 1909
p50
aVIreland v France at Lansdowne Road, Mar 20, 1909
p51
aVWales v France at Swansea, Jan 1, 1910
p52
aVWales v France at Swansea, Jan 1, 1910
p53
aVWales v France at Swansea, Jan 1, 1910
p54
aVWales v France at Swansea, Jan 1, 1910
p55
aVWales v France at Swansea, Jan 1, 1910
p56
aVWales v France at Swansea, Jan 1, 1910
p57
aVScotland v France at Inverleith, Jan 22, 1910
p58
aVScotland v France at Inverleith, Jan 22, 1910
p59
aVScotland v France at Inverleith, Jan 22, 1910
p60
aVFrance v England at Parc des Princes, Mar 3, 1910
p61
aVFrance v Ireland at Parc des Princes, Mar 28, 1910
p62
aVFrance v Ireland at Parc des Princes, Mar 28, 1910
p63
aVFrance v Scotland at Colombes, Jan 2, 1911
p64
aVFrance v Scotland at Colombes, Jan 2, 1911
p65
aVFrance v Scotland at Colombes, Jan 2, 1911
p66
aVFrance v Scotland at Colombes, Jan 2, 1911
p67
aVFrance v Scotland at Colombes, Jan 2, 1911
p68
aVFrance v Scotland at Colombes, Jan 2, 1911
p69
aVFrance v Scotland at Colombes, Jan 2, 1911
p70
aVEngland v France at Twickenham, Jan 28, 1911
p71
aVEngland v France at Twickenham, Jan 28, 1911
p72
aVFrance v Wales at Parc des Princes, Feb 28, 1911
p73
aVFrance v Wales at Parc des Princes, Feb 28, 1911
p74
aVIreland v France at Cork, Mar 25, 1911
p75
aVIreland v France at Cork, Mar 25, 1911
p76
aVFrance v Ireland at Parc des Princes, Jan 1, 1912
p77
aVFrance v Ireland at Parc des Princes, Jan 1, 1912
p78
aVFrance v Ireland at Parc des Princes, Jan 1, 1912
p79
aVFrance v Ireland at Parc des Princes, Jan 1, 1912
p80
aVFrance v Ireland at Parc des Princes, Jan 1, 1912
p81
aVFrance v Ireland at Parc des Princes, Jan 1, 1912
p82
aVScotland v France at Inverleith, Jan 20, 1912
p83
aVWales v France at Newport, Mar 25, 1912
p84
aVWales v France at Newport, Mar 25, 1912
p85
aVWales v France at Newport, Mar 25, 1912
p86
aVWales v France at Newport, Mar 25, 1912
p87
aVWales v France at Newport, Mar 25, 1912
p88
aVFrance v Scotland at Parc des Princes, Jan 1, 1913
p89
aVFrance v Scotland at Parc des Princes, Jan 1, 1913
p90
aVFrance v Scotland at Parc des Princes, Jan 1, 1913
p91
aVFrance v South Africa at Bordeaux, Jan 11, 1913
p92
aVFrance v South Africa at Bordeaux, Jan 11, 1913
p93
aVEngland v France at Twickenham, Jan 25, 1913
p94
aVFrance v Wales at Parc des Princes, Feb 27, 1913
p95
aVFrance v Wales at Parc des Princes, Feb 27, 1913
p96
aVFrance v Wales at Parc des Princes, Feb 27, 1913
p97
aVFrance v Wales at Parc des Princes, Feb 27, 1913
p98
aVIreland v France at Cork, Mar 24, 1913
p99
aVIreland v France at Cork, Mar 24, 1913
p100
aVFrance v Ireland at Parc des Princes, Jan 1, 1914
p101
aVFrance v Ireland at Parc des Princes, Jan 1, 1914
p102
aVFrance v Ireland at Parc des Princes, Jan 1, 1914
p103
aVFrance v Ireland at Parc des Princes, Jan 1, 1914
p104
aVFrance v Ireland at Parc des Princes, Jan 1, 1914
p105
aVFrance v Ireland at Parc des Princes, Jan 1, 1914
p106
aVFrance v Ireland at Parc des Princes, Jan 1, 1914
p107
aVFrance v Ireland at Parc des Princes, Jan 1, 1914
p108
aVWales v France at Swansea, Mar 2, 1914
p109
aVWales v France at Swansea, Mar 2, 1914
p110
aVFrance v England at Colombes, Apr 13, 1914
p111
aVFrance v England at Colombes, Apr 13, 1914
p112
aVFrance v England at Colombes, Apr 13, 1914
p113
aVFrance v Scotland at Parc des Princes, Jan 1, 1920
p114
aVFrance v Scotland at Parc des Princes, Jan 1, 1920
p115
aVFrance v Scotland at Parc des Princes, Jan 1, 1920
p116
aVFrance v Scotland at Parc des Princes, Jan 1, 1920
p117
aVFrance v Scotland at Parc des Princes, Jan 1, 1920
p118
aVFrance v Scotland at Parc des Princes, Jan 1, 1920
p119
aVFrance v Scotland at Parc des Princes, Jan 1, 1920
p120
aVFrance v Scotland at Parc des Princes, Jan 1, 1920
p121
aVFrance v Scotland at Parc des Princes, Jan 1, 1920
p122
aVFrance v Scotland at Parc des Princes, Jan 1, 1920
p123
aVFrance v Scotland at Parc des Princes, Jan 1, 1920
p124
aVEngland v France at Twickenham, Jan 31, 1920
p125
aVEngland v France at Twickenham, Jan 31, 1920
p126
aVEngland v France at Twickenham, Jan 31, 1920
p127
aVEngland v France at Twickenham, Jan 31, 1920
p128
aVFrance v Wales at Colombes, Feb 17, 1920
p129
aVFrance v Wales at Colombes, Feb 17, 1920
p130
aVIreland v France at Lansdowne Road, Apr 3, 1920
p131
aVIreland v France at Lansdowne Road, Apr 3, 1920
p132
aVIreland v France at Lansdowne Road, Apr 3, 1920
p133
aVIreland v France at Lansdowne Road, Apr 3, 1920
p134
aVIreland v France at Lansdowne Road, Apr 3, 1920
p135
aVScotland v France at Inverleith, Jan 22, 1921
p136
aVScotland v France at Inverleith, Jan 22, 1921
p137
aVScotland v France at Inverleith, Jan 22, 1921
p138
aVScotland v France at Inverleith, Jan 22, 1921
p139
aVScotland v France at Inverleith, Jan 22, 1921
p140
aVScotland v France at Inverleith, Jan 22, 1921
p141
aVFrance v England at Colombes, Mar 28, 1921
p142
aVFrance v England at Colombes, Mar 28, 1921
p143
aVFrance v England at Colombes, Mar 28, 1921
p144
aVFrance v Ireland at Colombes, Apr 9, 1921
p145
aVFrance v Ireland at Colombes, Apr 9, 1921
p146
aVFrance v Ireland at Colombes, Apr 9, 1921
p147
aVFrance v Scotland at Colombes, Jan 2, 1922
p148
aVFrance v Scotland at Colombes, Jan 2, 1922
p149
aVEngland v France at Twickenham, Feb 25, 1922
p150
aVEngland v France at Twickenham, Feb 25, 1922
p151
aVIreland v France at Lansdowne Road, Apr 8, 1922
p152
aVIreland v France at Lansdowne Road, Apr 8, 1922
p153
aVIreland v France at Lansdowne Road, Apr 8, 1922
p154
aVIreland v France at Lansdowne Road, Apr 8, 1922
p155
aVScotland v France at Inverleith, Jan 20, 1923
p156
aVScotland v France at Inverleith, Jan 20, 1923
p157
aVScotland v France at Inverleith, Jan 20, 1923
p158
aVWales v France at Swansea, Feb 24, 1923
p159
aVWales v France at Swansea, Feb 24, 1923
p160
aVWales v France at Swansea, Feb 24, 1923
p161
aVWales v France at Swansea, Feb 24, 1923
p162
aVFrance v England at Colombes, Apr 2, 1923
p163
aVFrance v England at Colombes, Apr 2, 1923
p164
aVFrance v England at Colombes, Apr 2, 1923
p165
aVFrance v England at Colombes, Apr 2, 1923
p166
aVFrance v Ireland at Colombes, Apr 14, 1923
p167
aVFrance v Scotland at Paris, Jan 1, 1924
p168
aVFrance v Scotland at Paris, Jan 1, 1924
p169
aVFrance v Scotland at Paris, Jan 1, 1924
p170
aVFrance v Scotland at Paris, Jan 1, 1924
p171
aVFrance v Scotland at Paris, Jan 1, 1924
p172
aVIreland v France at Lansdowne Road, Jan 26, 1924
p173
aVIreland v France at Lansdowne Road, Jan 26, 1924
p174
aVIreland v France at Lansdowne Road, Jan 26, 1924
p175
aVIreland v France at Lansdowne Road, Jan 26, 1924
p176
aVEngland v France at Twickenham, Feb 23, 1924
p177
aVEngland v France at Twickenham, Feb 23, 1924
p178
aVFrance v Wales at Colombes, Mar 27, 1924
p179
aVFrance v Wales at Colombes, Mar 27, 1924
p180
aVFrance v Wales at Colombes, Mar 27, 1924
p181
aVFrance v Romania at Colombes, May 4, 1924
p182
aVFrance v Romania at Colombes, May 4, 1924
p183
aVFrance v United States of America at Colombes, May 18, 1924
p184
aVFrance v Ireland at Colombes, Jan 1, 1925
p185
aVFrance v Ireland at Colombes, Jan 1, 1925
p186
aVFrance v Ireland at Colombes, Jan 1, 1925
p187
aVFrance v Ireland at Colombes, Jan 1, 1925
p188
aVFrance v Ireland at Colombes, Jan 1, 1925
p189
aVFrance v New Zealand at Toulouse, Jan 18, 1925
p190
aVFrance v New Zealand at Toulouse, Jan 18, 1925
p191
aVScotland v France at Inverleith, Jan 24, 1925
p192
aVScotland v France at Inverleith, Jan 24, 1925
p193
aVWales v France at Cardiff, Feb 28, 1925
p194
aVWales v France at Cardiff, Feb 28, 1925
p195
aVWales v France at Cardiff, Feb 28, 1925
p196
aVFrance v Scotland at Colombes, Jan 2, 1926
p197
aVFrance v Scotland at Colombes, Jan 2, 1926
p198
aVFrance v Scotland at Colombes, Jan 2, 1926
p199
aVFrance v Scotland at Colombes, Jan 2, 1926
p200
aVIreland v France at Belfast, Jan 23, 1926
p201
aVIreland v France at Belfast, Jan 23, 1926
p202
aVIreland v France at Belfast, Jan 23, 1926
p203
aVIreland v France at Belfast, Jan 23, 1926
p204
aVIreland v France at Belfast, Jan 23, 1926
p205
aVFrance v Wales at Colombes, Apr 5, 1926
p206
aVFrance v Wales at Colombes, Apr 5, 1926
p207
aVFrance v New Zealand Maori at Colombes, Dec 26, 1926
p208
aVFrance v New Zealand Maori at Colombes, Dec 26, 1926
p209
aVFrance v New Zealand Maori at Colombes, Dec 26, 1926
p210
aVFrance v New Zealand Maori at Colombes, Dec 26, 1926
p211
aVFrance v New Zealand Maori at Colombes, Dec 26, 1926
p212
aVFrance v Ireland at Colombes, Jan 1, 1927
p213
aVFrance v Ireland at Colombes, Jan 1, 1927
p214
aVFrance v Ireland at Colombes, Jan 1, 1927
p215
aVScotland v France at Murrayfield, Jan 22, 1927
p216
aVWales v France at Swansea, Feb 26, 1927
p217
aVWales v France at Swansea, Feb 26, 1927
p218
aVFrance v England at Colombes, Apr 2, 1927
p219
aVFrance v England at Colombes, Apr 2, 1927
p220
aVFrance v England at Colombes, Apr 2, 1927
p221
aVFrance v England at Colombes, Apr 2, 1927
p222
aVFrance v England at Colombes, Apr 2, 1927
p223
aVGermany v France at Frankfurt, May 15, 1927
p224
aVGermany v France at Frankfurt, May 15, 1927
p225
aVGermany v France at Frankfurt, May 15, 1927
p226
aVFrance v Scotland at Colombes, Jan 2, 1928
p227
aVFrance v Scotland at Colombes, Jan 2, 1928
p228
aVFrance v Scotland at Colombes, Jan 2, 1928
p229
aVFrance v Scotland at Colombes, Jan 2, 1928
p230
aVFrance v Scotland at Colombes, Jan 2, 1928
p231
aVFrance v Scotland at Colombes, Jan 2, 1928
p232
aVFrance v Australia at Colombes, Jan 22, 1928
p233
aVFrance v Australia at Colombes, Jan 22, 1928
p234
aVFrance v Australia at Colombes, Jan 22, 1928
p235
aVIreland v France at Belfast, Jan 28, 1928
p236
aVIreland v France at Belfast, Jan 28, 1928
p237
aVIreland v France at Belfast, Jan 28, 1928
p238
aVEngland v France at Twickenham, Feb 25, 1928
p239
aVEngland v France at Twickenham, Feb 25, 1928
p240
aVFrance v Wales at Colombes, Apr 9, 1928
p241
aVFrance v Ireland at Colombes, Dec 31, 1928
p242
aVFrance v Ireland at Colombes, Dec 31, 1928
p243
aVScotland v France at Murrayfield, Jan 19, 1929
p244
aVWales v France at Cardiff, Feb 23, 1929
p245
aVWales v France at Cardiff, Feb 23, 1929
p246
aVFrance v Germany at Colombes, Apr 28, 1929
p247
aVFrance v Germany at Colombes, Apr 28, 1929
p248
aVFrance v Germany at Colombes, Apr 28, 1929
p249
aVFrance v Germany at Colombes, Apr 28, 1929
p250
aVFrance v Germany at Colombes, Apr 28, 1929
p251
aVFrance v Scotland at Colombes, Jan 1, 1930
p252
aVFrance v Scotland at Colombes, Jan 1, 1930
p253
aVFrance v Scotland at Colombes, Jan 1, 1930
p254
aVFrance v Scotland at Colombes, Jan 1, 1930
p255
aVIreland v France at Belfast, Jan 25, 1930
p256
aVGermany v France at Berlin, Apr 6, 1930
p257
aVFrance v Ireland at Colombes, Jan 1, 1931
p258
aVFrance v Ireland at Colombes, Jan 1, 1931
p259
aVFrance v Ireland at Colombes, Jan 1, 1931
p260
aVFrance v Ireland at Colombes, Jan 1, 1931
p261
aVFrance v Ireland at Colombes, Jan 1, 1931
p262
aVFrance v Ireland at Colombes, Jan 1, 1931
p263
aVScotland v France at Murrayfield, Jan 24, 1931
p264
aVScotland v France at Murrayfield, Jan 24, 1931
p265
aVScotland v France at Murrayfield, Jan 24, 1931
p266
aVWales v France at Swansea, Feb 28, 1931
p267
aVWales v France at Swansea, Feb 28, 1931
p268
aVWales v France at Swansea, Feb 28, 1931
p269
aVFrance v England at Colombes, Apr 6, 1931
p270
aVFrance v England at Colombes, Apr 6, 1931
p271
aVFrance v England at Colombes, Apr 6, 1931
p272
aVFrance v England at Colombes, Apr 6, 1931
p273
aVFrance v Germany at Colombes, Apr 19, 1931
p274
aVGermany v France at Frankfurt, Apr 17, 1932
p275
aVGermany v France at Frankfurt, Apr 17, 1932
p276
aVGermany v France at Frankfurt, Apr 17, 1932
p277
aVGermany v France at Frankfurt, Apr 17, 1932
p278
aVGermany v France at Frankfurt, Apr 17, 1932
p279
aVGermany v France at Frankfurt, Apr 17, 1932
p280
aVGermany v France at Frankfurt, Apr 17, 1932
p281
aVGermany v France at Frankfurt, Apr 17, 1932
p282
aVGermany v France at Frankfurt, Apr 17, 1932
p283
aVGermany v France at Frankfurt, Apr 17, 1932
p284
aVFrance v Germany at Parc des Princes, Mar 26, 1933
p285
aVFrance v Germany at Parc des Princes, Mar 26, 1933
p286
aVFrance v Germany at Parc des Princes, Mar 26, 1933
p287
aVFrance v Germany at Parc des Princes, Mar 26, 1933
p288
aVGermany v France at Hanover, Mar 25, 1934
p289
aVGermany v France at Hanover, Mar 25, 1934
p290
aVGermany v France at Hanover, Mar 25, 1934
p291
aVGermany v France at Hanover, Mar 25, 1934
p292
aVGermany v France at Hanover, Mar 25, 1934
p293
aVGermany v France at Hanover, Mar 25, 1934
p294
aVFrance v Germany at Parc des Princes, Mar 24, 1935
p295
aVFrance v Germany at Parc des Princes, Mar 24, 1935
p296
aVFrance v Germany at Parc des Princes, Mar 24, 1935
p297
aVFrance v Germany at Parc des Princes, Mar 24, 1935
p298
aVFrance v Germany at Parc des Princes, Mar 24, 1935
p299
aVFrance v Germany at Parc des Princes, Mar 24, 1935
p300
aVGermany v France at Berlin, May 17, 1936
p301
aVGermany v France at Berlin, May 17, 1936
p302
aVGermany v France at Berlin, May 17, 1936
p303
aVGermany v France at Berlin, May 17, 1936
p304
aVGermany v France at Berlin, May 17, 1936
p305
aVGermany v France at Berlin, May 17, 1936
p306
aVGermany v France at Berlin, May 17, 1936
p307
aVGermany v France at Hanover, Nov 1, 1936
p308
aVGermany v France at Hanover, Nov 1, 1936
p309
aVGermany v France at Hanover, Nov 1, 1936
p310
aVGermany v France at Hanover, Nov 1, 1936
p311
aVGermany v France at Hanover, Nov 1, 1936
p312
aVFrance v Germany at Parc des Princes, Apr 18, 1937
p313
aVFrance v Germany at Parc des Princes, Apr 18, 1937
p314
aVFrance v Germany at Parc des Princes, Apr 18, 1937
p315
aVFrance v Germany at Parc des Princes, Apr 18, 1937
p316
aVFrance v Italy at Parc des Princes, Oct 17, 1937
p317
aVFrance v Italy at Parc des Princes, Oct 17, 1937
p318
aVFrance v Italy at Parc des Princes, Oct 17, 1937
p319
aVFrance v Italy at Parc des Princes, Oct 17, 1937
p320
aVGermany v France at Frankfurt, Mar 27, 1938
p321
aVGermany v France at Frankfurt, Mar 27, 1938
p322
aVGermany v France at Frankfurt, Mar 27, 1938
p323
aVGermany v France at Frankfurt, Mar 27, 1938
p324
aVRomania v France at Bucharest, May 15, 1938
p325
aVRomania v France at Bucharest, May 15, 1938
p326
aVRomania v France at Bucharest, May 15, 1938
p327
aVRomania v France at Bucharest, May 15, 1938
p328
aVRomania v France at Bucharest, May 15, 1938
p329
aVRomania v France at Bucharest, May 15, 1938
p330
aVRomania v France at Bucharest, May 15, 1938
p331
aVFrance v Germany at Bucharest, May 22, 1938
p332
aVFrance v British Army at Parc des Princes, Feb 25, 1940
p333
aVFrance v British Army at Parc des Princes, Feb 25, 1940
p334
aVFrance v British Army at Parc des Princes, Feb 25, 1940
p335
aVFrance v British Army at Parc des Princes, Feb 25, 1940
p336
aVFrance v British Army at Parc des Princes, Feb 25, 1940
p337
aVFrance v British Army at Parc des Princes, Feb 25, 1940
p338
aVFrance v British Army at Parc des Princes, Feb 25, 1940
p339
aVFrance v British Army at Parc des Princes, Feb 25, 1940
p340
aVFrance v British Army at Parc des Princes, Jan 1, 1945
p341
aVFrance v British Army at Parc des Princes, Jan 1, 1945
p342
aVFrance v British Army at Parc des Princes, Jan 1, 1945
p343
aVFrance v British Army at Parc des Princes, Jan 1, 1945
p344
aVFrance v British Army at Parc des Princes, Jan 1, 1945
p345
aVFrance v British Army at Parc des Princes, Jan 1, 1945
p346
aVFrance v British Army at Parc des Princes, Jan 1, 1945
p347
aVFrance v British Army at Parc des Princes, Jan 1, 1945
p348
aVFrance v British Army at Parc des Princes, Jan 1, 1945
p349
aVFrance v British Army at Parc des Princes, Jan 1, 1945
p350
aVFrance v British Army at Parc des Princes, Jan 1, 1945
p351
aVFrance v British Army at Parc des Princes, Jan 1, 1945
p352
aVFrance v British Army at Parc des Princes, Jan 1, 1945
p353
aVBritish Empire Forces v France at Richmond, Apr 28, 1945
p354
aVBritish Empire Forces v France at Richmond, Apr 28, 1945
p355
aVBritish Empire Forces v France at Richmond, Apr 28, 1945
p356
aVBritish Empire Forces v France at Richmond, Apr 28, 1945
p357
aVBritish Empire Forces v France at Richmond, Apr 28, 1945
p358
aVWales XV v France at Swansea, Dec 22, 1945
p359
aVWales XV v France at Swansea, Dec 22, 1945
p360
aVWales XV v France at Swansea, Dec 22, 1945
p361
aVWales XV v France at Swansea, Dec 22, 1945
p362
aVWales XV v France at Swansea, Dec 22, 1945
p363
aVWales XV v France at Swansea, Dec 22, 1945
p364
aVFrance v British Empire Services at Parc des Princes, Jan 1, 1946
p365
aVFrance v Kiwis at Colombes, Mar 10, 1946
p366
aVFrance v Kiwis at Colombes, Mar 10, 1946
p367
aVFrance v Wales XV at Colombes, Apr 22, 1946
p368
aVFrance v Scotland at Colombes, Jan 1, 1947
p369
aVEngland v France at Twickenham, Apr 19, 1947
p370
aVFrance v Ireland at Colombes, Jan 1, 1948
p371
aVFrance v Ireland at Colombes, Jan 1, 1948
p372
aVFrance v Ireland at Colombes, Jan 1, 1948
p373
aVFrance v Ireland at Colombes, Jan 1, 1948
p374
aVFrance v Australia at Colombes, Jan 11, 1948
p375
aVFrance v Australia at Colombes, Jan 11, 1948
p376
aVFrance v Australia at Colombes, Jan 11, 1948
p377
aVScotland v France at Murrayfield, Jan 24, 1948
p378
aVFrance v England at Colombes, Mar 29, 1948
p379
aVFrance v Scotland at Colombes, Jan 15, 1949
p380
aVEngland v France at Twickenham, Feb 26, 1949
p381
aVArgentina v France at Buenos Aires, Aug 28, 1949
p382
aVArgentina v France at Buenos Aires, Sep 4, 1949
p383
aVScotland v France at Murrayfield, Jan 14, 1950
p384
aVScotland v France at Murrayfield, Jan 14, 1950
p385
aVScotland v France at Murrayfield, Jan 14, 1950
p386
aVScotland v France at Murrayfield, Jan 14, 1950
p387
aVScotland v France at Murrayfield, Jan 14, 1950
p388
aVScotland v France at Murrayfield, Jan 14, 1950
p389
aVScotland v France at Murrayfield, Jan 14, 1950
p390
aVFrance v Ireland at Colombes, Jan 28, 1950
p391
aVFrance v Ireland at Colombes, Jan 28, 1950
p392
aVFrance v Ireland at Colombes, Jan 28, 1950
p393
aVFrance v England at Colombes, Feb 25, 1950
p394
aVFrance v England at Colombes, Feb 25, 1950
p395
aVWales v France at Cardiff, Mar 25, 1950
p396
aVFrance v Scotland at Colombes, Jan 13, 1951
p397
aVFrance v Scotland at Colombes, Jan 13, 1951
p398
aVFrance v Scotland at Colombes, Jan 13, 1951
p399
aVFrance v Scotland at Colombes, Jan 13, 1951
p400
aVFrance v Scotland at Colombes, Jan 13, 1951
p401
aVIreland v France at Lansdowne Road, Jan 27, 1951
p402
aVIreland v France at Lansdowne Road, Jan 27, 1951
p403
aVIreland v France at Lansdowne Road, Jan 27, 1951
p404
aVIreland v France at Lansdowne Road, Jan 27, 1951
p405
aVScotland v France at Murrayfield, Jan 12, 1952
p406
aVScotland v France at Murrayfield, Jan 12, 1952
p407
aVScotland v France at Murrayfield, Jan 12, 1952
p408
aVScotland v France at Murrayfield, Jan 12, 1952
p409
aVScotland v France at Murrayfield, Jan 12, 1952
p410
aVScotland v France at Murrayfield, Jan 12, 1952
p411
aVScotland v France at Murrayfield, Jan 12, 1952
p412
aVScotland v France at Murrayfield, Jan 12, 1952
p413
aVFrance v Ireland at Colombes, Jan 26, 1952
p414
aVFrance v South Africa at Colombes, Feb 16, 1952
p415
aVFrance v South Africa at Colombes, Feb 16, 1952
p416
aVFrance v South Africa at Colombes, Feb 16, 1952
p417
aVItaly v France at Milan, May 17, 1952
p418
aVItaly v France at Milan, May 17, 1952
p419
aVItaly v France at Milan, May 17, 1952
p420
aVFrance v Scotland at Colombes, Jan 10, 1953
p421
aVFrance v Scotland at Colombes, Jan 10, 1953
p422
aVEngland v France at Twickenham, Feb 28, 1953
p423
aVEngland v France at Twickenham, Feb 28, 1953
p424
aVEngland v France at Twickenham, Feb 28, 1953
p425
aVEngland v France at Twickenham, Feb 28, 1953
p426
aVFrance v Wales at Colombes, Mar 28, 1953
p427
aVFrance v Wales at Colombes, Mar 28, 1953
p428
aVFrance v Wales at Colombes, Mar 28, 1953
p429
aVFrance v Wales at Colombes, Mar 28, 1953
p430
aVFrance v Italy at Lyon, Apr 26, 1953
p431
aVFrance v Italy at Lyon, Apr 26, 1953
p432
aVScotland v France at Murrayfield, Jan 9, 1954
p433
aVScotland v France at Murrayfield, Jan 9, 1954
p434
aVFrance v Ireland at Colombes, Jan 23, 1954
p435
aVFrance v New Zealand at Colombes, Feb 27, 1954
p436
aVWales v France at Cardiff, Mar 27, 1954
p437
aVFrance v England at Colombes, Apr 10, 1954
p438
aVItaly v France at Rome, Apr 24, 1954
p439
aVItaly v France at Rome, Apr 24, 1954
p440
aVItaly v France at Rome, Apr 24, 1954
p441
aVItaly v France at Rome, Apr 24, 1954
p442
aVItaly v France at Rome, Apr 24, 1954
p443
aVArgentina v France at Buenos Aires, Aug 29, 1954
p444
aVArgentina v France at Buenos Aires, Aug 29, 1954
p445
aVArgentina v France at Buenos Aires, Aug 29, 1954
p446
aVArgentina v France at Buenos Aires, Aug 29, 1954
p447
aVArgentina v France at Buenos Aires, Aug 29, 1954
p448
aVArgentina v France at Buenos Aires, Aug 29, 1954
p449
aVArgentina v France at Buenos Aires, Sep 12, 1954
p450
aVArgentina v France at Buenos Aires, Sep 12, 1954
p451
aVEngland v France at Twickenham, Feb 26, 1955
p452
aVFrance v Italy at Grenoble, Apr 10, 1955
p453
aVFrance v Italy at Grenoble, Apr 10, 1955
p454
aVFrance v Italy at Grenoble, Apr 10, 1955
p455
aVScotland v France at Murrayfield, Jan 14, 1956
p456
aVScotland v France at Murrayfield, Jan 14, 1956
p457
aVScotland v France at Murrayfield, Jan 14, 1956
p458
aVScotland v France at Murrayfield, Jan 14, 1956
p459
a.