(lp1
S'Henri Amand'
p2
aS'Albert Branlat'
p3
aS'Noel Cessieux'
p4
aS'Marcel Communeau'
p5
aS'William Crichton'
p6
aS'Paul Dedeyn'
p7
aS'Jacques Dufourcq'
p8
aS'Georges Jerome'
p9
aS'Henri Lacassagne'
p10
aS'Gaston Lane'
p11
aS'Henri Levee'
p12
aS'Allan Muhr'
p13
aS'Augustin Pujol'
p14
aS'Paul Sagot'
p15
aS'Andre Verges'
p16
aS'Pierre Gaudermen'
p17
aS'Albert Hubert'
p18
aS'Emile Lesieur'
p19
aS'Ernest Lewis'
p20
aS'Paul Maclos'
p21
aS'G. Maurin'
p22
aS'Theodore Varvier'
p23
aS'Charles Beaurin-Gressier'
p24
aS'Marc Giacardy'
p25
aS'Henri Isaac'
p26
aS'Henri Martin'
p27
aS'Paul Mauriat'
p28
aS'A. Poirier'
p29
aS'Charles Vareilles'
p30
aS'Georges Borchard'
p31
aS'Rene Duval'
p32
aS'Pierre Guillemin'
p33
aS'Alfred Mayssonnie'
p34
aS'Henri Moure'
p35
aS'Rene von Malmann'
p36
aS'Maurice Leuvielle'
p37
aS'Alphonse Masse'
p38
aS'Jean Caujolle'
p39
aS'Georges Fourcade'
p40
aS'Henri Houblain'
p41
aS'Jules Icard'
p42
aS'Andre Theuriet'
p43
aS'Etienne de Jouvencel'
p44
aS'Paul Dupre'
p45
aS'Marcel Burgun'
p46
aS'Jacques Gommes'
p47
aS'Augustin Hourdebaigt'
p48
aS'Marcel Legrain'
p49
aS'Claude Martin'
p50
aS'Francis Mouronval'
p51
aS'Joe Anduran'
p52
aS'Rene Boudreaux'
p53
aS'Maurice Bruneau'
p54
aS'Remi Laffitte'
p55
aS'R. Menrath'
p56
aS'M. Thevenot'
p57
aS'Jules Cadenat'
p58
aS'Julien Combe'
p59
aS'Jacques Dedet'
p60
aS'Guillaume Laterrade'
p61
aS'Joseph de Muizon'
p62
aS'Fernand Roujas'
p63
aS'Joseph Bavozet'
p64
aS'Paul Decamps'
p65
aS'Pierre Failliot'
p66
aS'Fernand Forgues'
p67
aS'Andre Francquenelle'
p68
aS'Pierre Mouniq'
p69
aS'Georges Peyroutou'
p70
aS'Gilbert Charpentier'
p71
aS'Francois Dutour'
p72
aS'Rene Duffour'
p73
aS'Charles du Souich'
p74
aS'Robert Monier'
p75
aS'Raymond Simonpaoli'
p76
aS'Maurice Boyau'
p77
aS'Jean-Jacques Conilh de Beyssac'
p78
aS'Jean Domercq'
p79
aS'Julien Dufau'
p80
aS'Daniel Ihingoue'
p81
aS'Jean Larribau'
p82
aS'Edouard Vallot'
p83
aS'Jacques Forestier'
p84
aS'Marcel Monniot'
p85
aS'Jean-Rene Pascarel'
p86
aS'Jean Sentilles'
p87
aS'Helier Tilh'
p88
aS'Maurice Hedembaigt'
p89
aS'Pierre Jaureguy'
p90
aS'Jean Sebedio'
p91
aS'Geo Andre'
p92
aS'Albert Chatau'
p93
aS'Marcel Favre'
p94
aS'Clovis Bioussa'
p95
aS'Gustave Podevin'
p96
aS'Jean Semmartin'
p97
aS'Philippe Struxiano'
p98
aS'Albert Eutropius'
p99
aS'Henri Tavernier'
p100
aS'Jean-Marie Arnal'
p101
aS'Paul Faure'
p102
aS'Robert Lacoste'
p103
aS'Rene Lasserre'
p104
aS'Raphael Lavaud'
p105
aS'Marcel-Frederic Lubin-Lebrere'
p106
aS'Gilbert Pierrot'
p107
aS'Francois Poeydebasque'
p108
aS'Lucien Besset'
p109
aS'Robert Desvouges'
p110
aS'Paulin Bascou'
p111
aS'Jean-Louis Capmau'
p112
aS'Emmanuel Iguiniz'
p113
aS'Eugene Billac'
p114
aS'Aime Cassayet-Armagnac'
p115
aS'Andre Chilo'
p116
aS'Rene Crabos'
p117
aS'Adolphe Jaureguy'
p118
aS'Joseph Laurent'
p119
aS'Robert Marchand'
p120
aS'Pierre Pons'
p121
aS'Louis Puech'
p122
aS'Paul Serre'
p123
aS'Robert Thierry'
p124
aS'Theophile Cambre'
p125
aS'Abel Guichemerre'
p126
aS'Jean Lavigne'
p127
aS'Eugene Soulie'
p128
aS'Maurice Biraben'
p129
aS'Georges Constant'
p130
aS'Francois Borde'
p131
aS'William Gayraud-Hirigoyen'
p132
aS'Raoul Got'
p133
aS'Jean Larrieu'
p134
aS'Pierre Moureu'
p135
aS'Jean Boubee'
p136
aS'Jean Clement'
p137
aS'Gilbert Coscolla'
p138
aS'Jean Lobies'
p139
aS'Roger Piteu'
p140
aS'Fernand Vaquer'
p141
aS'Adolphe Bousquet'
p142
aS'Edmond Cayrefourcq'
p143
aS'Charles-Anthoin Gonnet'
p144
aS'Jacques Baquey'
p145
aS'Marcel de Laborderie'
p146
aS'Maurice Jeangrand'
p147
aS'Francois Cahuc'
p148
aS'Joseph Pascot'
p149
aS'Andre Lafond'
p150
aS'Roger Ramis'
p151
aS'Louis Beguet'
p152
aS'Jean Bernon'
p153
aS'Albert Etchepare'
p154
aS'Noel Sicart'
p155
aS'Jean Bayard'
p156
aS'Clement Dupont'
p157
aS'Max Lalande'
p158
aS'Henri Behoteguy'
p159
aS'Jean Castets'
p160
aS'Jean Etcheberry'
p161
aS'Charles Lacazedieu'
p162
aS'Andre Behoteguy'
p163
aS'Marcel Loustau'
p164
aS'Christian Magnanou'
p165
aS'Rene Salinie'
p166
aS'Georges Fargues'
p167
aS'Edmond Besset'
p168
aS'Louis Cluchague'
p169
aS'Henri Galau'
p170
aS'Louis Lepatey'
p171
aS'Etienne Piquiral'
p172
aS'Marcel Besson'
p173
aS'Jean Danion'
p174
aS'Laurent Pardo'
p175
aS'Eugene Ribere'
p176
aS'Jacques Ballarin'
p177
aS'Francois Clauzel'
p178
aS'Alex Bioussa'
p179
aS'Etienne Bonnes'
p180
aS'Albert Dupouy'
p181
aS'Rene Araou'
p182
aS'Gilbert Gerintes'
p183
aS'Jean Vaysse'
p184
aS'Marcel Baillette'
p185
aS'Yves du Manoir'
p186
aS'Jean Marcet'
p187
aS'Andre Maury'
p188
aS'Camille Montade'
p189
aS'Rene Halet'
p190
aS'Auguste Laurent'
p191
aS'Jean Ducousso'
p192
aS'Francois Raymond'
p193
aS'Fernand Barthe'
p194
aS'Adolphe Bringeon'
p195
aS'Robert Levasseur'
p196
aS'Leon Chapuy'
p197
aS'Louis Destarac'
p198
aS'Roger Llari'
p199
aS'Alphonse Puig'
p200
aS'Bernard Berges'
p201
aS'Clement Dulaurens'
p202
aS'Rene Graciet'
p203
aS'Vincent Graule'
p204
aS'Jean Revillon'
p205
aS'Honore Laffont'
p206
aS'Joseph Sayrou'
p207
aS'Edouard Bader'
p208
aS'Rene Bousquet'
p209
aS'Alfred Prevost'
p210
aS'Joseph Sourgens'
p211
aS'Ernest Vila'
p212
aS'Robert Hutin'
p213
aS'Maixent Piquemal'
p214
aS'Edmond Vellat'
p215
aS'Robert Houdet'
p216
aS'Jean Carbonne'
p217
aS'Andre Verger'
p218
aS'Albert Cazenave'
p219
aS'Jean Galia'
p220
aS'Georges Gerald'
p221
aS'Andre Loury'
p222
aS'Jean Morere'
p223
aS'Fernand Camicas'
p224
aS'Paul Descamps'
p225
aS'Maurice Larrieux'
p226
aS'Gerald Branca'
p227
aS'Andre Camel'
p228
aS'Edouard Coulon'
p229
aS'Georges Daudignon'
p230
aS'Henri Haget'
p231
aS'Louis Magnol'
p232
aS'Raoul Bonamy'
p233
aS'Louis Pellissier'
p234
aS'Georges Vaills'
p235
aS'Jean Duhau'
p236
aS'Jean Jardel'
p237
aS'Henri Lacaze'
p238
aS'Jules Hauc'
p239
aS'Lucien Serin'
p240
aS'Richard Majerus'
p241
aS'Georges Caussarieu'
p242
aS'Robert Sarrade'
p243
aS'Joseph Auge'
p244
aS'Marcel Camel'
p245
aS'Albert Domec'
p246
aS'Paul Barrere'
p247
aS'Andre Clady'
p248
aS'Amedee Cutzach'
p249
aS'Andre Duche'
p250
aS'Marcel Soler'
p251
aS'Albert Ambert'
p252
aS'Charles Bigot'
p253
aS'Joseph Choy'
p254
aS'Robert Samatan'
p255
aS'Fernand Taillantou'
p256
aS'Leopold Fabre'
p257
aS'Lucien Augras-Fabre'
p258
aS'Ernest Camo'
p259
aS'Maurice Porra'
p260
aS'Marius Rodrigo'
p261
aS'Maurice Savy'
p262
aS'Leopold Servole'
p263
aS'Antoine Duclos'
p264
aS'Max Rousie'
p265
aS'Robert Scohy'
p266
aS'Georges Clement'
p267
aS'Charles Petit'
p268
aS'Max Vigerie'
p269
aS'Henri Empereur-Buisson'
p270
aS'Pierre Guelorget'
p271
aS'Rene Namur'
p272
aS'Roger Triviaux'
p273
aS'Marius Guiral'
p274
aS'Antonin Barbazanges'
p275
aS'Eugene Chaud'
p276
aS'Roger Claudel'
p277
aS'Jean Coderc'
p278
aS'Lucien Cognet'
p279
aS'Henri de Malherbe'
p280
aS'Rene Finat'
p281
aS'Joseph Griffard'
p282
aS'Marcel Laurent'
p283
aS'Albert Potel'
p284
aS'Edouard Ainciart'
p285
aS'Jean Daguerre'
p286
aS'Pierre Escaffre'
p287
aS'Firmin Raynaud'
p288
aS'Antoine Blain'
p289
aS'Pierre Cussac'
p290
aS'Joseph Desclaux'
p291
aS'Andre Duluc'
p292
aS'Louis Dupont'
p293
aS'Francois Lombard'
p294
aS'Jean Blond'
p295
aS'Paul Boyer'
p296
aS'Maurice Celhay'
p297
aS'Jacques Dorot'
p298
aS'Francois Raynal'
p299
aS'Armand Vigneau'
p300
aS'Francis Daguerre'
p301
aS'Pierre Geschwind'
p302
aS'Andre Goyard'
p303
aS'Etienne Ithurra'
p304
aS'Georges Libaros'
p305
aS'Andre Rochon'
p306
aS'Pierre Thiers'
p307
aS'Felix Bergese'
p308
aS'Jean Clave'
p309
aS'Edmond Elissalde'
p310
aS'Pierre Milliand'
p311
aS'Frantz Sahuc'
p312
aS'David Aguilar'
p313
aS'Pierre Daulouede'
p314
aS'Gilbert Lavail'
p315
aS'Henri Masse'
p316
aS'Michel Bonnus'
p317
aS'Antonin Delque'
p318
aS'Marcel Deygas'
p319
aS'Emile Fabre'
p320
aS'Robert Cals'
p321
aS'Jean Chassagne'
p322
aS'Henri Clarac'
p323
aS'Jean-Baptiste Lefort'
p324
aS'Rene Arotca'
p325
aS'Robert Caunegre'
p326
aS'Emile Doussau'
p327
aS'Raymond le Goff'
p328
aS'Rene Lombarteix'
p329
aS'Andre Rapin'
p330
aS'Guy Vassal'
p331
aS'Jacques Palat'
p332
aS'Pierre Charton'
p333
aS'Joseph Dutrey'
p334
aS'Lucien Ferrand'
p335
aS'Francois Meret'
p336
aS'Roger Paul'
p337
aS'Henri Peyralade'
p338
aS'Robert Tourte'
p339
aS'Marcel Tucoo-Chala'
p340
aS'Georges Baladie'
p341
aS'Yves Bergougnan'
p342
aS'Jean Dauger'
p343
aS'Robert Geneste'
p344
aS'Auguste Jarasse'
p345
aS'Louis Junquas'
p346
aS'Jean Massare'
p347
aS'Roger Minjat'
p348
aS'Alban Moga'
p349
aS'Jean Prat'
p350
aS'Jean Prin-Clary'
p351
aS'Andre Sahuc'
p352
aS'Robert Soro'
p353
aS'Andre Alvarez'
p354
aS'Jacques Chaban-Delmas'
p355
aS'Gaston Combes'
p356
aS'Lucien Rouffia'
p357
aS'Jean Vilagra'
p358
aS'Guy Basquet'
p359
aS'Henri Dutrain'
p360
aS'Jean Matheu-Cambas'
p361
aS'Elie Pebeyre'
p362
aS'Maurice Terreau'
p363
aS'Marcel Volot'
p364
aS'Albert Kaempf'
p365
aS'Eugene Buzy'
p366
aS'Michel Sorondo'
p367
aS'Jean Lassegue'
p368
aS'Marcel Jol'
p369
aS'Lucien Caron'
p370
aS'Gerard Dufau'
p371
aS'Pierre Jeanjean'
p372
aS'Lucien Martin'
p373
aS'Michel Pomathios'
p374
aS'Leon Bordenave'
p375
aS'Pierre Dizabo'
p376
aS'Roger Lacaussade'
p377
aS'Pierre Aristouy'
p378
aS'Maurice Siman'
p379
aS'Noel Baudry'
p380
aS'Jean Pilon'
p381
aS'Francis Desclaux'
p382
aS'Felix Lacrampe'
p383
aS'Roger Arcalis'
p384
aS'Rene Bienes'
p385
aS'Firmin Bonnus'
p386
aS'Roger Ferrien'
p387
aS'Pierre Lauga'
p388
aS'Pierre Lavergne'
p389
aS'Jacques Merquey'
p390
aS'Daniel Herice'
p391
aS'Paul Lasaosa'
p392
aS'Pierre Pascalin'
p393
aS'Georges Brun'
p394
aS'Fernand Cazenave'
p395
aS'Franck Fournet'
p396
aS'Rene Bernard'
p397
aS'Georges Carabignac'
p398
aS'Henri Foures'
p399
aS'Lucien Mias'
p400
aS'Alain Porthault'
p401
aS'Guy Belletante'
p402
aS'Pierre Bertrand'
p403
aS'Dacien Olive'
p404
aS'Maurice Prat'
p405
aS'Jean-Roger Bourdeu'
p406
aS'Rene Brejassou'
p407
aS'Bernard Chevallier'
p408
aS'Roger Furcade'
p409
aS'Paul Labadie'
p410
aS'Robert Labarthete'
p411
aS'Roger Martine'
p412
aS'Francois Varenne'
p413
aS'Antoine Labazuy'
p414
aS'Jean Colombier'
p415
aS'Pierre Guilleux'
p416
aS'Jacques Mauran'
p417
aS'Michel Lecointre'
p418
aS'Lucien Roge'
p419
aS'Andre Sanac'
p420
aS'Jean-Claude Rouan'
p421
aS'Paul Tignol'
p422
aS'Julien Arrieta'
p423
aS'Robert Carrere'
p424
aS'Michel Celaya'
p425
aS'Andre Haget'
p426
aS'Laurent Bidart'
p427
aS'Henri Domec'
p428
aS'Joseph Galy'
p429
aS'Michel Vannier'
p430
aS'Jean Darrieussecq'
p431
aS'Jean-Henri Pargade'
p432
aS'Robert Baulon'
p433
aS'Jacques Bouquet'
p434
aS'Andre Boniface'
p435
aS'Henri Claverie'
p436
aS'Amedee Domenech'
p437
aS'Pierre Albaladejo'
p438
aS'Jean Benetiere'
p439
aS'Jean Bichindaritz'
p440
aS'Gilbert Larreguy'
p441
aS'Jacques Lepatey'
p442
aS'Gerard Murillo'
p443
aS'Jean Barthe'
p444
aS'Robert Basauri'
p445
aS'Philibert Capitani'
p446
aS'Pierre Danos'
p447
aS'Yves Duffaut'
p448
aS'Jacques Meynard'
p449
aS'Henri Lazies'
p450
aS'Andre Morel'
p451
aS'Henri Rancoule'
p452
aS'Jacques Chiberry'
p453
aS'Michel Escommier'
p454
aS'Thomas Manterola'
p455
aS'Jean Carrere'
p456
aS'Jean-Vincent Dupuy'
p457
aS'Gerard Roucaries'
p458
aS'Guy Stener'
p459
aS'Serge Torreilles'
p460
aS'Robert Vigier'
p461
aS'Guy Pauthe'
p462
aS'Georges Gauby'
p463
aS'Francois Moncla'
p464
aS'Rene Monie'
p465
aS'Christian Darrouy'
p466
aS'Michel Hoche'
p467
aS'Paul Cassagne'
p468
aS'Roland Darracq'
p469
aS'Gerard Mauduy'
p470
aS'Michel Crauste'
p471
aS'Adrien Normand'
p472
aS'Christian Vignes'
p473
aS'Aldo Quaglio'
p474
aS'Pierre Lacroix'
p475
aS'Alfred Roques'
p476
aS'Pierre Tarricq'
p477
aS'Arnaud Marquesuzaa'
p478
aS'Bernard Mommejat'
p479
aS'Pierre Lacaze'
p480
aS'Louis Casaux'
p481
aS'Claude Mantoulan'
p482
aS'Serge Mericq'
p483
aS'Jean de Gregorio'
p484
aS'Sylvain Meyer'
p485
aS'Guy Boniface'
p486
aS'Herve Larrue'
p487
aS'Jean-Pierre Saux'
p488
aS'Raoul Barriere'
p489
aS'Roger Brethes'
p490
aS'Michel Lacome'
p491
aS'Jean Othats'
p492
aS'Roland Crancee'
p493
aS'Jacques Rollet'
p494
aS'Louis Echave'
p495
aS'Jean Gachassin'
p496
aS'Gerard Bouguyon'
p497
aS'Marcel Puget'
p498
aS'Guy Calvo'
p499
aS'Pierre Cazals'
p500
aS'Jean Laudouar'
p501
aS'Claude Lacaze'
p502
aS'Roland Lefevre'
p503
aS'Jean Pique'
p504
aS'Guy Camberabero'
p505
aS'Marcel Cassiede'
p506
aS'Serge Plantey'
p507
aS'Rene le Bourhis'
p508
aS'Henri Marracq'
p509
aS'Roger Gensane'
p510
aS'Henri Romero'
p511
aS'Claude Laborde'
p512
aS'Michel Arino'
p513
aS'Maurice Lira'
p514
aS'Francis Mas'
p515
aS'Pierre Razat'
p516
aS'Pierre Besson'
p517
aS'Jean Fabre'
p518
aS'Fernand Zago'
p519
aS'Paul Dedieu'
p520
aS'Raymond Rebujent'
p521
aS'Roger Fite'
p522
aS'Jean-Claude Lasserre'
p523
aS'Jean le Droff'
p524
aS'Lucien Abadie'
p525
aS'Jean-Claude Berejnoi'
p526
aS'Jean-Michel Cabanier'
p527
aS'Andre Herrero'
p528
aS'Jean-Joseph Rupert'
p529
aS'Jacques Bayardon'
p530
aS'Benoit Dauga'
p531
aS'Jean-Baptiste Amestoy'
p532
aS'Jean-Claude Hiquet'
p533
aS'Arnaldo Gruarin'
p534
aS'Yves Menthillier'
p535
aS'Michel Sitjar'
p536
aS'Andre Abadie'
p537
aS'Michel Arnaudet'
p538
aS'Jean Capdouze'
p539
aS'Walter Spanghero'
p540
aS'Lilian Camberabero'
p541
aS'Andre Campaes'
p542
aS'Andre Abadie'
p543
aS'Elie Cester'
p544
aS'Jean-Claude Roques'
p545
aS'Bernard Duprat'
p546
aS'Jean-Claude Lagrange'
p547
aS'Jo Maso'
p548
aS'Christian Carrere'
p549
aS'Claude Dourthe'
p550
aS'Jean Salut'
p551
aS'Jean-Pierre Mir'
p552
aS'Jean-Pierre Lux'
p553
aS'Jacques Fort'
p554
aS'Pierre Villepreux'
p555
aS'Jean-Michel Esponda'
p556
aS'Andre Quilis'
p557
aS'Jean-Louis Dehez'
p558
aS'Michel Lasserre'
p559
aS'Jean-Claude Malbet'
p560
aS'Alain Plantefol'
p561
aS'Gerard Sutra'
p562
aS'Jacques Londios'
p563
aS'Jean Trillo'
p564
aS'Jacques Crampagne'
p565
aS'Jean-Michel Capendeguy'
p566
aS'Jean-Jacques Lenient'
p567
aS'Jean-Henri Mir'
p568
aS'Jean-Marie Bonal'
p569
aS'Jean-Claude Noble'
p570
aS'Michel Yachvili'
p571
aS'Michel Greffe'
p572
aS'Jean-Paul Baux'
p573
aS'Jean Iracabal'
p574
aS'Andre Piazza'
p575
aS'Christian Boujet'
p576
aS'Bernard Dutin'
p577
aS'Jean-Louis Berot'
p578
aS'Michel Billiere'
p579
aS'Claude Chenevay'
p580
aS'Henri Magois'
p581
aS'Dominique Bontemps'
p582
aS'Lucien Paries'
p583
aS'Andre Ruiz'
p584
aS'Jean Sillieres'
p585
aS'Pierre Biemouret'
p586
aS'Michel Hauser'
p587
aS'Basile Moraitis'
p588
aS'Christian Swierczinski'
p589
aS'Jean-Louis Azarete'
p590
aS'Rene Benesis'
p591
aS'Gerard Viard'
p592
aS'Jean-Pierre Bastiat'
p593
aS'Roger Bourgarel'
p594
aS'Pierre Darbos'
p595
aS'Alain Marot'
p596
aS'Michel Savitsky'
p597
aS'Jack Cantoni'
p598
aS'Michel Pebeyre'
p599
aS'Max Barrau'
p600
aS'Daniel Dubois'
p601
aS'Marc Etcheverry'
p602
aS'Roland Bertranne'
p603
aS'Claude Spanghero'
p604
aS'Alain Esteve'
p605
aS'Jean-Claude Skrela'
p606
aS'Jean-Michel Aguirre'
p607
aS'Victor Boffelli'
p608
aS'Yvan Buonomo'
p609
aS'Andre Dubertrand'
p610
aS'Jean-Pierre Hortoland'
p611
aS'Jean-Louis Martin'
p612
aS'Richard Astre'
p613
aS'Olivier Saisset'
p614
aS'Armand Vaquerin'
p615
aS'Jacques Fouroux'
p616
aS'Henri Cabrol'
p617
aS'Andre Lubrano'
p618
aS'Jean-Claude Rossignol'
p619
aS'Michel Droitecourt'
p620
aS'Jean-Pierre Romeu'
p621
aS'Andre Darrieussecq'
p622
aS'Christian Badin'
p623
aS'Jean-Francois Phliponeau'
p624
aS'Gilles Delaigue'
p625
aS'Jacques Rougerie'
p626
aS'Michel Sappa'
p627
aS'Rene Seguier'
p628
aS'Jean Costantino'
p629
aS'Daniel Kaczorowski'
p630
aS'Joel Pecune'
p631
aS'Jean-Francois Gourdon'
p632
aS'Francis Haget'
p633
aS'Alain Paco'
p634
aS'Georges Senal'
p635
aS'Laurent Desnoyer'
p636
aS'Jean-Martin Etchenique'
p637
aS'Michel Taffary'
p638
aS'Gerard Cholley'
p639
aS'Alain Guilbert'
p640
aS'Jean-Pierre Rives'
p641
aS'Jean-Luc Averous'
p642
aS'Jean-Louis Ugartemendia'
p643
aS'Francois Sangalli'
p644
aS'Yves Brunet'
p645
aS'Dominique Harize'
p646
aS'Michel Palmie'
p647
aS'Robert Paparemborde'
p648
aS'Patrice Peron'
p649
aS'Jean-Pierre Pesteil'
p650
aS'Gerard Rousset'
p651
aS'Jean-Francois Imbernon'
p652
aS'Rene Berges-Cau'
p653
aS'Jacques Cimarosti'
p654
aS'Guy Gasparotto'
p655
aS'Daniel Bustaffa'
p656
aS'Jean-Luc Joinel'
p657
aS'Guy Noves'
p658
aS'Jacques Gasc'
p659
aS'Christian Belascain'
p660
aS'Pierre Dospital'
p661
aS'Jerome Gallion'
p662
aS'Bernard Vivies'
p663
aS'Louis Bilbao'
p664
aS'Alain Caussade'
p665
aS'Michel Clemente'
p666
aS'Yves Lafarge'
p667
aS'Alain Maleig'
p668
aS'Frederic Costes'
p669
aS'Roger Aguerre'
p670
aS'Yves Malquier'
p671
aS'Jean-Francois Marchal'
p672
aS'Christian Beguerie'
p673
aS'Didier Codorniou'
p674
aS'Guy Colomine'
p675
aS'Philippe Dintrans'
p676
aS'Patrick Mesny'
p677
aS'Patrick Salas'
p678
aS'Daniel Dubroca'
p679
aS'Jacques Cristina'
p680
aS'Manuel Carpentier'
p681
aS'Yves Duhard'
p682
aS'Serge Gabernet'
p683
aS'Pierre Pedeutour'
p684
aS'Serge Blanco'
p685
aS'Jean-Pierre Elissalde'
p686
aS'Pierre Lacans'
p687
aS'Laurent Pardo'
p688
aS'Jean-Paul Wolf'
p689
aS'Eric Buchet'
p690
aS'Michel Cremaschi'
p691
aS'Jean-Pierre Fauvel'
p692
aS'Pierre Berbizier'
p693
aS'Daniel Revailler'
p694
aS'Guy Laporte'
p695
aS'Dominique Erbani'
p696
aS'Michel Fabre'
p697
aS'Alain Lorieux'
p698
aS'Laurent Rodriguez'
p699
aS'Adrien Mournet'
p700
aS'Marc Sallefranque'
p701
aS'Jean-Patrick Lescarboura'
p702
aS'Gerard Martinez'
p703
aS'Patrick Perrier'
p704
aS'Didier Camberabero'
p705
aS'Pierre Chadebech'
p706
aS'Jean Condom'
p707
aS'Patrick Esteve'
p708
aS'Philippe Sella'
p709
aS'Thierry Janeczek'
p710
aS'Jean-Charles Orso'
p711
aS'Jacques Begu'
p712
aS'Christian Delage'
p713
aS'Jean-Louis Dupont'
p714
aS'Bernard Herrero'
p715
aS'Jean-Pierre Garuet-Lempirou'
p716
aS'Jean-Baptiste Lafond'
p717
aS'Patrice Lagisquet'
p718
aS'Pierre-Edouard Detrez'
p719
aS'Jacques Gratton'
p720
aS'Eric Bonneval'
p721
aS'Bernard Lavigne'
p722
aS'Eric Champ'
p723
aS'Herve Chabowski'
p724
aS'Thierry Picard'
p725
aS'Philippe Marocco'
p726
aS'Denis Charvet'
p727
aS'Jerome Bianchi'
p728
aS'Marc Andrieu'
p729
aS'Claude Portolan'
p730
aS'Patrick Serriere'
p731
aS'Philippe Berot'
p732
aS'Alain Carminati'
p733
aS'Franck Mesnel'
p734
aS'Pascal Ondarts'
p735
aS'Louis Armary'
p736
aS'Rodolphe Modin'
p737
aS'Jean-Louis Tolot'
p738
aS'Karl Janik'
p739
aS'Marc Cecillon'
p740
aS'Michel Hondagne-Monge'
p741
aS'Gilles Bourguignon'
p742
aS'Henri Sanz'
p743
aS'Pierre Harislur-Arthapignet'
p744
aS'Thierry Devergie'
p745
aS'Marc dal Maso'
p746
aS'Dominique Bouet'
p747
aS'Philippe Rouge-Thomas'
p748
aS'Olivier Roumat'
p749
aS'Philippe Benetton'
p750
aS'Bernard Lacombe'
p751
aS'Marc Pujolle'
p752
aS'Laurent Seigne'
p753
aS'Stephane Weller'
p754
aS'Thierry Lacroix'
p755
aS'Peyo Hontas'
p756
aS'Jean-Marc Lhermet'
p757
aS'Eric Melville'
p758
aS'Philippe Gallart'
p759
aS'Jean-Claude Langlade'
p760
aS'Philippe Saint-Andre'
p761
aS'Abdelatif Benazzi'
p762
aS'Christophe Deslandes'
p763
aS'Fabrice Heyer'
p764
aS'Xavier Blond'
p765
aS'Aubin Hueber'
p766
aS'David Berty'
p767
aS'Jean-Francois Gourragne'
p768
aS'Laurent Cabannes'
p769
aS'Gregoire Lascube'
p770
aS'Michel Tachdjian'
p771
aS'Jean-Marie Cadieu'
p772
aS'Michel Courtiols'
p773
aS'Fabien Galthie'
p774
aS'Philippe Gimbert'
p775
aS'Vincent Moscato'
p776
aS'Serge Simon'
p777
aS'Jean-Francois Tordo'
p778
aS'Jean-Luc Sadourny'
p779
aS'Christophe Mougeot'
p780
aS'Alain Penaud'
p781
aS'Sebastien Viars'
p782
aS'Andries van Heerden'
p783
aS'Pierre Montlaur'
p784
aS'Jean-Pierre Genet'
p785
aS'Christophe Deylaud'
p786
aS'Michel Marfaing'
p787
aS'Stephane Ougier'
p788
aS'Jean-Michel Gonzalez'
p789
aS'Christian Coeurveille'
p790
aS'Philippe Bernat-Salles'
p791
aS'Laurent Mazas'
p792
aS'Stephane Graou'
p793
aS'Herve Couffignal'
p794
aS'Yann Lemeur'
p795
aS'Laurent Verge'
p796
aS'Olivier Merle'
p797
aS'Olivier Campan'
p798
aS'Leon Loppy'
p799
aS'Emile Ntamack'
p800
aS'Laurent Benezech'
p801
aS'William Techoueyres'
p802
aS'Olivier Brouzet'
p803
aS'Yann Delaigue'
p804
aS'Alain Macabiau'
p805
aS'Guy Accoceberry'
p806
aS'Christian Califano'
p807
aS'Arnaud Costes'
p808
aS'Marc de Rougemont'
p809
aS'Albert Cigagna'
p810
aS'Alain Hyardet'
p811
aS'Marc Lievremont'
p812
aS'Franck Tournaire'
p813
aS'Patrick Arlettaz'
p814
aS'Olivier Azam'
p815
aS'Philippe Carbonneau'
p816
aS'Thomas Castaignede'
p817
aS'Richard Dourthe'
p818
aS'Christophe Juillet'
p819
aS'Fabien Pelous'
p820
aS'Michel Perie'
p821
aS'Stephane Glas'
p822
aS'Richard Castel'
p823
aS'Sylvain Dispagne'
p824
aS'Raphael Ibanez'
p825
aS'Herve Guiraud'
p826
aS'Thierry Labrousse'
p827
aS'Hugues Miorin'
p828
aS'Christophe Moni'
p829
aS'David Venditti'
p830
aS'Jean-Louis Jordana'
p831
aS'Thomas Lievremont'
p832
aS'Guillaume Bouic'
p833
aS'Christophe Lamaison'
p834
aS'Laurent Leflamand'
p835
aS'Jean-Jacques Crenca'
p836
aS'David Aucagne'
p837
aS'Olivier Magne'
p838
aS'Didier Casadei'
p839
aS'Pierre Bondouy'
p840
aS'Ugo Mola'
p841
aS'Serge Betsen Tchoua'
p842
aS'David Dantiacq'
p843
aS'Frederic Torossian'
p844
aS'David Laperne'
p845
aS'Jerome Cazalbou'
p846
aS'Nicolas Bacque'
p847
aS'Cedric Soulette'
p848
aS'Nicolas Brusque'
p849
aS'Pierre Mignoni'
p850
aS'Christophe Dominici'
p851
aS'Thierry Cleda'
p852
aS'Xavier Garbajosa'
p853
aS'Jean-Marc Aue'
p854
aS'Franck Comba'
p855
aS'Arthur Gomes'
p856
aS'Stephane de Besombes'
p857
aS'Jimmy Marlu'
p858
aS'Thomas Lombard'
p859
aS'Sylvain Marconnet'
p860
aS'Marc Raynaud'
p861
aS'Pascal Giordani'
p862
aS'David Auradou'
p863
aS'Christian Labit'
p864
aS'Christophe Laussucq'
p865
aS'Jean-Luc Aqua'
p866
aS'Guillaume Delmotte'
p867
aS'Lionel Mallier'
p868
aS'Olivier Sarramea'
p869
aS'Gerald Merceron'
p870
aS'Eric Artiguste'
p871
aS'Alexandre Chazalet'
p872
aS'David Gerard'
p873
aS'Stephane Castaignede'
p874
aS'Pieter de Villiers'
p875
aS'Cedric Desbrosse'
p876
aS'Legi Matiu'
p877
aS'Sebastien Chabal'
p878
aS'Jean Daude'
p879
aS'Jean-Baptiste Elissalde'
p880
aS'David Bory'
p881
aS'Franck Belot'
p882
aS'Cedric Heymans'
p883
aS'Alexandre Audebert'
p884
aS'Frederic Cermeno'
p885
aS'Patrice Collazo'
p886
aS'Fabrice Lalanne'
p887
aS'Lionel Nallet'
p888
aS'Jean-Marc Souverbie'
p889
aS'Jean-Charles Cistacq'
p890
aS'Alessio Galasso'
p891
aS'Olivier Milloud'
p892
aS'Fabrice Landreau'
p893
aS'Mathieu Dourthe'
p894
aS'Sebastien Bonetti'
p895
aS'Christophe Milheres'
p896
aS'Yannick Jauzion'
p897
aS'Nicolas Jeanjean'
p898
aS'Patrick Tabacco'
p899
aS'Elvis Vermeulen'
p900
aS'Jean Bouilhou'
p901
aS'Pepito Elhorga'
p902
aS'David Skrela'
p903
aS'Francois Gelez'
p904
aS'Tony Marsh'
p905
aS'Francis Ntamack'
p906
aS'Clement Poitrenaud'
p907
aS'Thibault Privat'
p908
aS'Aurelien Rougerie'
p909
aS'Damien Traille'
p910
aS'Frederic Michalak'
p911
aS'Yannick Bru'
p912
aS'Jean-Baptiste Poux'
p913
aS'Steven Hall'
p914
aS'Alexandre Albouy'
p915
aS'Imanol Harinordoquy'
p916
aS'Sebastien Bruno'
p917
aS'Remy Martin'
p918
aS'Christophe Porcu'
p919
aS'Arnaud Martinez'
p920
aS'Vincent Clerc'
p921
aS'Jean-Baptiste Rue'
p922
aS'Dimitri Yachvili'
p923
aS'Jerome Thion'
p924
aS'Nicolas Mas'
p925
aS'Brian Liebenberg'
p926
aS'Pascal Pape'
p927
aS'William Servat'
p928
aS'Julien Peyrelongue'
p929
aS'Julien Bonnaire'
p930
aS'Mathieu Barrau'
p931
aS'David Couzinet'
p932
aS'Yannick Nyanga Kabasele'
p933
aS'Alexandre Peclier'
p934
aS'Ludovic Valbon'
p935
aS'Romain Froment'
p936
aS'Pierre Rabadan'
p937
aS'Philippe Bidabe'
p938
aS'Bernard Goutta'
p939
aS'Ludovic Loustau'
p940
aS'Dimitri Szarzewski'
p941
aS'Gregory Lamboley'
p942
aS'Jean-Philippe Grandclaude'
p943
aS'Julien Laharrague'
p944
aS'Benoit Baby'
p945
aS'David Marty'
p946
aS'Julien Candelon'
p947
aS'Florian Fritz'
p948
aS'Romain Millo-Chluski'
p949
aS'Denis Avril'
p950
aS'Guilliaume Bousses'
p951
aS'Benjamin Boyet'
p952
aS'David Attoub'
p953
aS'Thierry Dusautoir'
p954
aS'Vincent Debaty'
p955
aS'Loic Jacquet'
p956
aS'Lionel Beauxis'
p957
aS'Benoit August'
p958
aS'Jean-Francois Coux'
p959
aS'Nicolas Durand'
p960
aS'Gregory le Corvec'
p961
aS'Arnaud Mignardi'
p962
aS'Julien Pierre'
p963
aS'Benjamin Thiery'
p964
aS'Damien Chouly'
p965
aS'Mickael Forest'
p966
aS'Nicolas Laharrague'
p967
aS'Franck Montanella'
p968
aS'Olivier Olibeau'
p969
aS'Lionel Mazars'
p970
aS'Olivier Sourgens'
p971
aS'Fulgence Ouedraogo'
p972
aS'Julien Brugnaut'
p973
aS'Lionel Faure'
p974
aS'Julien Malzieu'
p975
aS'Francois Trinh-Duc'
p976
aS'Arnaud Mela'
p977
aS'Morgan Parra'
p978
aS'Louis Picamoles'
p979
aS'Anthony Floch'
p980
aS'Fabien Barcella'
p981
aS'Yann David'
p982
aS'Ibrahim Diarra'
p983
aS'Guilhem Guirado'
p984
aS'Julien Tomas'
p985
aS'Benoit Lecouls'
p986
aS'Alexis Palisson'
p987
aS'Renaud Boyoud'
p988
aS'David Janin'
p989
aS'Benjamin Kayser'
p990
aS'Thibault Lacroix'
p991
aS'Matthieu Lievremont'
p992
aS'Sebastien Tillous-Borde'
p993
aS'Pierre Correia'
p994
aS'Maxime Mermoz'
p995
aS'Yannick Caballero'
p996
aS'Jean-Baptiste Peyras-Loustalet'
p997
aS'Maxime Medard'
p998
aS'Mathieu Bastareaud'
p999
aS'Thomas Domingo'
p1000
aS'Julien Dupuy'
p1001
aS'Julien Puricelli'
p1002
aS'Julien Arias'
p1003
aS'Benjamin Fall'
p1004
aS'Alexandre Lapandry'
p1005
aS'Luc Ducalcon'
p1006
aS'Marc Andreu'
p1007
aS'Wenceslas Lauret'
p1008
aS'Jerome Porical'
p1009
aS'Fabrice Estebanez'
p1010
aS'Jerome Schuster'
p1011
aS'Benjamin Noirot'
p1012
aS'Yoann Huget'
p1013
aS'Raphael Lakafia'
p1014
aS'Jean-Marc Doussain'
p1015
aS'Wesley Fofana'
p1016
aS'Yoann Maestri'
p1017
aS'Jean-Marcelin Buttin'
p1018
aS'Brice Dulin'
p1019
aS'Yvan Watremez'
p1020
aS'Romain Taofifenua'
p1021
aS'Christopher Tolofua'
p1022
aS'Maxime Machenaud'
p1023
aS'Christophe Samson'
p1024
aS'Yannick Forestier'
p1025
aS'Jocelino Suta'
p1026
aS'Sebastien Vahaamahina'
p1027
aS'Antonie Claassen'
p1028
aS'Gael Fickou'
p1029
aS'Camille Lopez'
p1030
aS'Adrien Plante'
p1031
aS'Alexandre Flanquart'
p1032
aS'Dan Kotze'
p1033
aS'Bernard le Roux'
p1034
aS'Remi Tales'
p1035
aS'Eddy Ben Arous'
p1036
aS'Rabah Slimani'
p1037
aS'Sofiane Guitoune'
p1038
aS'Jonathan Pelissie'
p1039
aS'Jules Plisson'
p1040
aS'Antoine Burban'
p1041
aS'Hugo Bonneval'
p1042
aS'Brice Mach'
p1043
aS'Felix le Bourhis'
p1044
aS'Remi Lamerat'
p1045
aS'Alexandre Menini'
p1046
aS'Alexandre Dumoulin'
p1047
aS'Scott Spedding'
p1048
aS'Teddy Thomas'
p1049
aS'Uini Atonio'
p1050
aS'Xavier Chiocci'
p1051
aS'Rory Kockott'
p1052
aS'Charles Ollivon'
p1053
aS'Loann Goujon'
p1054
aS'Noa Nakaitaci'
p1055
a.