(lp1
S'Henri Amand'
p2
aS'Albert Branlat'
p3
aS'Noel Cessieux'
p4
aS'Marcel Communeau'
p5
aS'William Crichton'
p6
aS'Paul Dedeyn'
p7
aS'Jacques Dufourcq'
p8
aS'Georges Jerome'
p9
aS'Henri Lacassagne'
p10
aS'Gaston Lane'
p11
aS'Henri Levee'
p12
aS'Allan Muhr'
p13
aS'Augustin Pujol'
p14
aS'Paul Sagot'
p15
aS'Andre Verges'
p16
aS'Pierre Gaudermen'
p17
aS'Albert Hubert'
p18
aS'Emile Lesieur'
p19
aS'Ernest Lewis'
p20
aS'Paul Maclos'
p21
aS'G. Maurin'
p22
aS'Theodore Varvier'
p23
aS'Charles Beaurin-Gressier'
p24
aS'Marc Giacardy'
p25
aS'Henri Isaac'
p26
aS'Henri Martin'
p27
aS'Paul Mauriat'
p28
aS'A. Poirier'
p29
aS'Charles Vareilles'
p30
aS'Georges Borchard'
p31
aS'Rene Duval'
p32
aS'Pierre Guillemin'
p33
aS'Alfred Mayssonnie'
p34
aS'Henri Moure'
p35
aS'Rene von Malmann'
p36
aS'Maurice Leuvielle'
p37
aS'Alphonse Masse'
p38
aS'Jean Caujolle'
p39
aS'Georges Fourcade'
p40
aS'Henri Houblain'
p41
aS'Jules Icard'
p42
aS'Andre Theuriet'
p43
aS'Etienne de Jouvencel'
p44
aS'Paul Dupre'
p45
aS'Marcel Burgun'
p46
aS'Jacques Gommes'
p47
aS'Augustin Hourdebaigt'
p48
aS'Marcel Legrain'
p49
aS'Claude Martin'
p50
aS'Francis Mouronval'
p51
aS'Joe Anduran'
p52
aS'Rene Boudreaux'
p53
aS'Maurice Bruneau'
p54
aS'Remi Laffitte'
p55
aS'R. Menrath'
p56
aS'M. Thevenot'
p57
aS'Jules Cadenat'
p58
aS'Julien Combe'
p59
aS'Jacques Dedet'
p60
aS'Guillaume Laterrade'
p61
aS'Joseph de Muizon'
p62
aS'Fernand Roujas'
p63
aS'Joseph Bavozet'
p64
aS'Paul Decamps'
p65
aS'Pierre Failliot'
p66
aS'Fernand Forgues'
p67
aS'Andre Francquenelle'
p68
aS'Pierre Mouniq'
p69
aS'Georges Peyroutou'
p70
aS'Gilbert Charpentier'
p71
aS'Francois Dutour'
p72
aS'Rene Duffour'
p73
aS'Charles du Souich'
p74
aS'Robert Monier'
p75
aS'Raymond Simonpaoli'
p76
aS'Maurice Boyau'
p77
aS'Jean-Jacques Conilh de Beyssac'
p78
aS'Jean Domercq'
p79
aS'Julien Dufau'
p80
aS'Daniel Ihingoue'
p81
aS'Leon Larribau'
p82
aS'Edouard Vallot'
p83
aS'Jacques Forestier'
p84
aS'Marcel Monniot'
p85
aS'Jean-Rene Pascarel'
p86
aS'Jean Sentilles'
p87
aS'Helier Tilh'
p88
aS'Maurice Hedembaigt'
p89
aS'Pierre Jaureguy'
p90
aS'Jean Sebedio'
p91
aS'Geo Andre'
p92
aS'Albert Chatau'
p93
aS'Marcel Favre'
p94
aS'Clovis Bioussa'
p95
aS'Gustave Podevin'
p96
aS'Jean Semmartin'
p97
aS'Philippe Struxiano'
p98
aS'Albert Eutropius'
p99
aS'Henri Tavernier'
p100
aS'Jean-Marie Arnal'
p101
aS'Paul Faure'
p102
aS'Robert Lacoste'
p103
aS'Rene Lasserre'
p104
aS'Raphael Lavaud'
p105
aS'Marcel-Frederic Lubin-Lebrere'
p106
aS'Gilbert Pierrot'
p107
aS'Francois Poeydebasque'
p108
aS'Lucien Besset'
p109
aS'Robert Desvouges'
p110
aS'Paulin Bascou'
p111
aS'Jean-Louis Capmau'
p112
aS'Emmanuel Iguiniz'
p113
aS'Eugene Billac'
p114
aS'Aime Cassayet-Armagnac'
p115
aS'Andre Chilo'
p116
aS'Rene Crabos'
p117
aS'Adolphe Jaureguy'
p118
aS'Joseph Laurent'
p119
aS'Robert Marchand'
p120
aS'Pierre Pons'
p121
aS'Louis Puech'
p122
aS'Paul Serre'
p123
aS'Robert Thierry'
p124
aS'Theophile Cambre'
p125
aS'Abel Guichemerre'
p126
aS'Jean Lavigne'
p127
aS'Eugene Soulie'
p128
aS'Maurice Biraben'
p129
aS'Georges Constant'
p130
aS'Francois Borde'
p131
aS'William Gayraud-Hirigoyen'
p132
aS'Raoul Got'
p133
aS'Jean Larrieu'
p134
aS'Pierre Moureu'
p135
aS'Jean Boubee'
p136
aS'Jean Clement'
p137
aS'Gilbert Coscolla'
p138
aS'Jean Lobies'
p139
aS'Roger Piteu'
p140
aS'Fernand Vaquer'
p141
aS'Adolphe Bousquet'
p142
aS'Edmond Cayrefourcq'
p143
aS'Charles-Anthoin Gonnet'
p144
aS'Jacques Baquey'
p145
aS'Marcel de Laborderie'
p146
aS'Maurice Jeangrand'
p147
aS'Francois Cahuc'
p148
aS'Joseph Pascot'
p149
aS'Andre Lafond'
p150
aS'Roger Ramis'
p151
aS'Louis Beguet'
p152
aS'Jean Bernon'
p153
aS'Albert Etchepare'
p154
aS'Noel Sicart'
p155
aS'Jean Bayard'
p156
aS'Clement Dupont'
p157
aS'Max Lalande'
p158
aS'Henri Behoteguy'
p159
aS'Jean Castets'
p160
aS'Jean Etcheberry'
p161
aS'Charles Lacazedieu'
p162
aS'Andre Behoteguy'
p163
aS'Marcel Loustau'
p164
aS'Christian Magnanou'
p165
aS'Rene Salinie'
p166
aS'Georges Fargues'
p167
aS'Edmond Besset'
p168
aS'Louis Cluchague'
p169
aS'Henri Galau'
p170
aS'Louis Lepatey'
p171
aS'Etienne Piquiral'
p172
aS'Marcel Besson'
p173
aS'Jean Danion'
p174
aS'Laurent Pardo'
p175
aS'Eugene Ribere'
p176
aS'Jacques Ballarin'
p177
aS'Francois Clauzel'
p178
aS'Alex Bioussa'
p179
aS'Etienne Bonnes'
p180
aS'Albert Dupouy'
p181
aS'Rene Araou'
p182
aS'Gilbert Gerintes'
p183
aS'Jean Vaysse'
p184
aS'Marcel Baillette'
p185
aS'Yves du Manoir'
p186
aS'Jean Marcet'
p187
aS'Andre Maury'
p188
aS'Camille Montade'
p189
aS'Rene Halet'
p190
aS'Auguste Laurent'
p191
aS'Jean Ducousso'
p192
aS'Francois Raymond'
p193
aS'Fernand Barthe'
p194
aS'Adolphe Bringeon'
p195
aS'Robert Levasseur'
p196
aS'Leon Chapuy'
p197
aS'Louis Destarac'
p198
aS'Roger Llari'
p199
aS'Alphonse Puig'
p200
aS'Bernard Berges'
p201
aS'Clement Dulaurens'
p202
aS'Rene Graciet'
p203
aS'Vincent Graule'
p204
aS'Jean Revillon'
p205
aS'Honore Laffont'
p206
aS'Joseph Sayrou'
p207
aS'Edouard Bader'
p208
aS'Rene Bousquet'
p209
aS'Alfred Prevost'
p210
aS'Joseph Sourgens'
p211
aS'Ernest Vila'
p212
aS'Robert Hutin'
p213
aS'Maixent Piquemal'
p214
aS'Edmond Vellat'
p215
aS'Robert Houdet'
p216
aS'Jean Carbonne'
p217
aS'Andre Verger'
p218
aS'Albert Cazenave'
p219
aS'Jean Galia'
p220
aS'Georges Gerald'
p221
aS'Andre Loury'
p222
aS'Jean Morere'
p223
aS'Fernand Camicas'
p224
aS'Paul Descamps'
p225
aS'Maurice Larrieux'
p226
aS'Gerald Branca'
p227
aS'Andre Camel'
p228
aS'Edouard Coulon'
p229
aS'Georges Daudignon'
p230
aS'Henri Haget'
p231
aS'Louis Magnol'
p232
aS'Raoul Bonamy'
p233
aS'Louis Pellissier'
p234
aS'Georges Vaills'
p235
aS'Jean Duhau'
p236
aS'Jean Jardel'
p237
aS'Henri Lacaze'
p238
aS'Jules Hauc'
p239
aS'Lucien Serin'
p240
aS'Richard Majerus'
p241
aS'Georges Caussarieu'
p242
aS'Robert Sarrade'
p243
aS'Joseph Auge'
p244
aS'Marcel Camel'
p245
aS'Albert Domec'
p246
aS'Paul Barrere'
p247
aS'Andre Clady'
p248
aS'Amedee Cutzach'
p249
aS'Andre Duche'
p250
aS'Marcel Soler'
p251
aS'Albert Ambert'
p252
aS'Charles Bigot'
p253
aS'Joseph Choy'
p254
aS'Robert Samatan'
p255
aS'Fernand Taillantou'
p256
aS'Leopold Fabre'
p257
aS'Lucien Augras-Fabre'
p258
aS'Ernest Camo'
p259
aS'Maurice Porra'
p260
aS'Marius Rodrigo'
p261
aS'Maurice Savy'
p262
aS'Leopold Servole'
p263
aS'Antoine Duclos'
p264
aS'Max Rousie'
p265
aS'Robert Scohy'
p266
aS'Georges Clement'
p267
aS'Charles Petit'
p268
aS'Max Vigerie'
p269
aS'Henri Empereur-Buisson'
p270
aS'Pierre Guelorget'
p271
aS'Rene Namur'
p272
aS'Roger Triviaux'
p273
aS'Marius Guiral'
p274
aS'Antonin Barbazanges'
p275
aS'Eugene Chaud'
p276
aS'Roger Claudel'
p277
aS'Jean Coderc'
p278
aS'Lucien Cognet'
p279
aS'Henri de Malherbe'
p280
aS'Rene Finat'
p281
aS'Joseph Griffard'
p282
aS'Marcel Laurent'
p283
aS'Albert Potel'
p284
aS'Edouard Ainciart'
p285
aS'Jean Daguerre'
p286
aS'Pierre Escaffre'
p287
aS'Firmin Raynaud'
p288
aS'Antoine Blain'
p289
aS'Pierre Cussac'
p290
aS'Joseph Desclaux'
p291
aS'Andre Duluc'
p292
aS'Louis Dupont'
p293
aS'Francois Lombard'
p294
aS'Jean Blond'
p295
aS'Paul Boyer'
p296
aS'Maurice Celhay'
p297
aS'Jacques Dorot'
p298
aS'Francois Raynal'
p299
aS'Armand Vigneau'
p300
aS'Francis Daguerre'
p301
aS'Pierre Geschwind'
p302
aS'Andre Goyard'
p303
aS'Etienne Ithurra'
p304
aS'Georges Libaros'
p305
aS'Andre Rochon'
p306
aS'Pierre Thiers'
p307
aS'Felix Bergese'
p308
aS'Jean Clave'
p309
aS'Edmond Elissalde'
p310
aS'Pierre Milliand'
p311
aS'Frantz Sahuc'
p312
aS'David Aguilar'
p313
aS'Pierre Daulouede'
p314
aS'Gilbert Lavail'
p315
aS'Henri Masse'
p316
aS'Michel Bonnus'
p317
aS'Antonin Delque'
p318
aS'Marcel Deygas'
p319
aS'Emile Fabre'
p320
aS'Robert Cals'
p321
aS'Jean Chassagne'
p322
aS'Henri Clarac'
p323
aS'Jean-Baptiste Lefort'
p324
aS'Rene Arotca'
p325
aS'Robert Caunegre'
p326
aS'Emile Doussau'
p327
aS'Raymond le Goff'
p328
aS'Rene Lombarteix'
p329
aS'Andre Rapin'
p330
aS'Guy Vassal'
p331
aS'Jacques Palat'
p332
aS'Pierre Charton'
p333
aS'Joseph Dutrey'
p334
aS'Lucien Ferrand'
p335
aS'Francois Meret'
p336
aS'Roger Paul'
p337
aS'Henri Peyralade'
p338
aS'Robert Tourte'
p339
aS'Marcel Tucoo-Chala'
p340
aS'Georges Baladie'
p341
aS'Yves Bergougnan'
p342
aS'Jean Dauger'
p343
aS'Robert Geneste'
p344
aS'Auguste Jarasse'
p345
aS'Louis Junquas'
p346
aS'Jean Massare'
p347
aS'Roger Minjat'
p348
aS'Alban Moga'
p349
aS'Jean Prat'
p350
aS'Jean Prin-Clary'
p351
aS'Andre Sahuc'
p352
aS'Robert Soro'
p353
aS'Andre Alvarez'
p354
aS'Jacques Chaban-Delmas'
p355
aS'Gaston Combes'
p356
aS'Lucien Rouffia'
p357
aS'Jean Vilagra'
p358
aS'Guy Basquet'
p359
aS'Henri Dutrain'
p360
aS'Jean Matheu-Cambas'
p361
aS'Elie Pebeyre'
p362
aS'Maurice Terreau'
p363
aS'Marcel Volot'
p364
aS'Albert Kaempf'
p365
aS'Eugene Buzy'
p366
aS'Michel Sorondo'
p367
aS'Jean Lassegue'
p368
aS'Marcel Jol'
p369
aS'Lucien Caron'
p370
aS'Gerard Dufau'
p371
aS'Pierre Jeanjean'
p372
aS'Lucien Martin'
p373
aS'Michel Pomathios'
p374
aS'Leon Bordenave'
p375
aS'Pierre Dizabo'
p376
aS'Roger Lacaussade'
p377
aS'Pierre Aristouy'
p378
aS'Maurice Siman'
p379
aS'Noel Baudry'
p380
aS'Jean Pilon'
p381
aS'Francis Desclaux'
p382
aS'Felix Lacrampe'
p383
aS'Roger Arcalis'
p384
aS'Rene Bienes'
p385
aS'Firmin Bonnus'
p386
aS'Roger Ferrien'
p387
aS'Pierre Lauga'
p388
aS'Pierre Lavergne'
p389
aS'Jacques Merquey'
p390
aS'Daniel Herice'
p391
aS'Paul Lasaosa'
p392
aS'Pierre Pascalin'
p393
aS'Georges Brun'
p394
aS'Fernand Cazenave'
p395
aS'Franck Fournet'
p396
aS'Rene Bernard'
p397
aS'Georges Carabignac'
p398
aS'Henri Foures'
p399
aS'Lucien Mias'
p400
aS'Alain Porthault'
p401
aS'Guy Belletante'
p402
aS'Pierre Bertrand'
p403
aS'Dacien Olive'
p404
aS'Maurice Prat'
p405
aS'Jean-Roger Bourdeu'
p406
aS'Rene Brejassou'
p407
aS'Bernard Chevallier'
p408
aS'Roger Furcade'
p409
aS'Paul Labadie'
p410
aS'Robert Labarthete'
p411
aS'Roger Martine'
p412
aS'Francois Varenne'
p413
aS'Antoine Labazuy'
p414
aS'Jean Colombier'
p415
aS'Pierre Guilleux'
p416
aS'Jacques Mauran'
p417
aS'Michel Lecointre'
p418
aS'Lucien Roge'
p419
aS'Andre Sanac'
p420
aS'Jean-Claude Rouan'
p421
aS'Paul Tignol'
p422
aS'Julien Arrieta'
p423
aS'Robert Carrere'
p424
aS'Michel Celaya'
p425
aS'Andre Haget'
p426
aS'Laurent Bidart'
p427
aS'Henri Domec'
p428
aS'Joseph Galy'
p429
aS'Michel Vannier'
p430
aS'Jean Darrieussecq'
p431
aS'Jean-Henri Pargade'
p432
aS'Robert Baulon'
p433
aS'Jacques Bouquet'
p434
aS'Andre Boniface'
p435
aS'Henri Claverie'
p436
aS'Amedee Domenech'
p437
aS'Pierre Albaladejo'
p438
aS'Jean Benetiere'
p439
aS'Jean Bichindaritz'
p440
aS'Gilbert Larreguy'
p441
aS'Jacques Lepatey'
p442
aS'Gerard Murillo'
p443
aS'Jean Barthe'
p444
aS'Robert Basauri'
p445
aS'Philibert Capitani'
p446
aS'Pierre Danos'
p447
aS'Yves Duffaut'
p448
aS'Jacques Meynard'
p449
aS'Henri Lazies'
p450
aS'Andre Morel'
p451
aS'Henri Rancoule'
p452
aS'Jacques Chiberry'
p453
aS'Michel Escommier'
p454
aS'Thomas Manterola'
p455
aS'Jean Carrere'
p456
aS'Jean-Vincent Dupuy'
p457
aS'Gerard Roucaries'
p458
aS'Guy Stener'
p459
a.