(lp1
S'http://www.espnscrum.com/france/rugby/player/1767.html'
p2
aS'http://www.espnscrum.com/france/rugby/player/1769.html'
p3
aS'http://www.espnscrum.com/france/rugby/player/1770.html'
p4
aS'http://www.espnscrum.com/france/rugby/player/1771.html'
p5
aS'http://www.espnscrum.com/france/rugby/player/1772.html'
p6
aS'http://www.espnscrum.com/france/rugby/player/1774.html'
p7
aS'http://www.espnscrum.com/france/rugby/player/1775.html'
p8
aS'http://www.espnscrum.com/france/rugby/player/1776.html'
p9
aS'http://www.espnscrum.com/france/rugby/player/1777.html'
p10
aS'http://www.espnscrum.com/france/rugby/player/1778.html'
p11
aS'http://www.espnscrum.com/france/rugby/player/1779.html'
p12
aS'http://www.espnscrum.com/france/rugby/player/1781.html'
p13
aS'http://www.espnscrum.com/france/rugby/player/1782.html'
p14
aS'http://www.espnscrum.com/france/rugby/player/1783.html'
p15
aS'http://www.espnscrum.com/france/rugby/player/1784.html'
p16
aS'http://www.espnscrum.com/france/rugby/player/1814.html'
p17
aS'http://www.espnscrum.com/france/rugby/player/1816.html'
p18
aS'http://www.espnscrum.com/france/rugby/player/1817.html'
p19
aS'http://www.espnscrum.com/france/rugby/player/1818.html'
p20
aS'http://www.espnscrum.com/france/rugby/player/1819.html'
p21
aS'http://www.espnscrum.com/france/rugby/player/1820.html'
p22
aS'http://www.espnscrum.com/france/rugby/player/1821.html'
p23
aS'http://www.espnscrum.com/france/rugby/player/1853.html'
p24
aS'http://www.espnscrum.com/france/rugby/player/1854.html'
p25
aS'http://www.espnscrum.com/france/rugby/player/1856.html'
p26
aS'http://www.espnscrum.com/france/rugby/player/1859.html'
p27
aS'http://www.espnscrum.com/france/rugby/player/1860.html'
p28
aS'http://www.espnscrum.com/france/rugby/player/1862.html'
p29
aS'http://www.espnscrum.com/france/rugby/player/1864.html'
p30
aS'http://www.espnscrum.com/france/rugby/player/1922.html'
p31
aS'http://www.espnscrum.com/france/rugby/player/1925.html'
p32
aS'http://www.espnscrum.com/france/rugby/player/1926.html'
p33
aS'http://www.espnscrum.com/france/rugby/player/1929.html'
p34
aS'http://www.espnscrum.com/france/rugby/player/1930.html'
p35
aS'http://www.espnscrum.com/france/rugby/player/1934.html'
p36
aS'http://www.espnscrum.com/france/rugby/player/1953.html'
p37
aS'http://www.espnscrum.com/france/rugby/player/1954.html'
p38
aS'http://www.espnscrum.com/france/rugby/player/2017.html'
p39
aS'http://www.espnscrum.com/france/rugby/player/2018.html'
p40
aS'http://www.espnscrum.com/france/rugby/player/2019.html'
p41
aS'http://www.espnscrum.com/france/rugby/player/2021.html'
p42
aS'http://www.espnscrum.com/france/rugby/player/2023.html'
p43
aS'http://www.espnscrum.com/france/rugby/player/2035.html'
p44
aS'http://www.espnscrum.com/france/rugby/player/2036.html'
p45
aS'http://www.espnscrum.com/france/rugby/player/2049.html'
p46
aS'http://www.espnscrum.com/france/rugby/player/2050.html'
p47
aS'http://www.espnscrum.com/france/rugby/player/2052.html'
p48
aS'http://www.espnscrum.com/france/rugby/player/2054.html'
p49
aS'http://www.espnscrum.com/france/rugby/player/2055.html'
p50
aS'http://www.espnscrum.com/france/rugby/player/2057.html'
p51
aS'http://www.espnscrum.com/france/rugby/player/2059.html'
p52
aS'http://www.espnscrum.com/france/rugby/player/2060.html'
p53
aS'http://www.espnscrum.com/france/rugby/player/2061.html'
p54
aS'http://www.espnscrum.com/france/rugby/player/2063.html'
p55
aS'http://www.espnscrum.com/france/rugby/player/2064.html'
p56
aS'http://www.espnscrum.com/france/rugby/player/2066.html'
p57
aS'http://www.espnscrum.com/france/rugby/player/2077.html'
p58
aS'http://www.espnscrum.com/france/rugby/player/2078.html'
p59
aS'http://www.espnscrum.com/france/rugby/player/2079.html'
p60
aS'http://www.espnscrum.com/france/rugby/player/2103.html'
p61
aS'http://www.espnscrum.com/france/rugby/player/2115.html'
p62
aS'http://www.espnscrum.com/france/rugby/player/2116.html'
p63
aS'http://www.espnscrum.com/france/rugby/player/2193.html'
p64
aS'http://www.espnscrum.com/france/rugby/player/2194.html'
p65
aS'http://www.espnscrum.com/france/rugby/player/2195.html'
p66
aS'http://www.espnscrum.com/france/rugby/player/2196.html'
p67
aS'http://www.espnscrum.com/france/rugby/player/2197.html'
p68
aS'http://www.espnscrum.com/france/rugby/player/2199.html'
p69
aS'http://www.espnscrum.com/france/rugby/player/2201.html'
p70
aS'http://www.espnscrum.com/france/rugby/player/2214.html'
p71
aS'http://www.espnscrum.com/france/rugby/player/2215.html'
p72
aS'http://www.espnscrum.com/france/rugby/player/2227.html'
p73
aS'http://www.espnscrum.com/france/rugby/player/2228.html'
p74
aS'http://www.espnscrum.com/france/rugby/player/2238.html'
p75
aS'http://www.espnscrum.com/france/rugby/player/2239.html'
p76
aS'http://www.espnscrum.com/france/rugby/player/2240.html'
p77
aS'http://www.espnscrum.com/france/rugby/player/2241.html'
p78
aS'http://www.espnscrum.com/france/rugby/player/2242.html'
p79
aS'http://www.espnscrum.com/france/rugby/player/2243.html'
p80
aS'http://www.espnscrum.com/france/rugby/player/2246.html'
p81
aS'http://www.espnscrum.com/france/rugby/player/2247.html'
p82
aS'http://www.espnscrum.com/france/rugby/player/2270.html'
p83
aS'http://www.espnscrum.com/france/rugby/player/2289.html'
p84
aS'http://www.espnscrum.com/france/rugby/player/2290.html'
p85
aS'http://www.espnscrum.com/france/rugby/player/2291.html'
p86
aS'http://www.espnscrum.com/france/rugby/player/2292.html'
p87
aS'http://www.espnscrum.com/france/rugby/player/2294.html'
p88
aS'http://www.espnscrum.com/france/rugby/player/2349.html'
p89
aS'http://www.espnscrum.com/france/rugby/player/2350.html'
p90
aS'http://www.espnscrum.com/france/rugby/player/2353.html'
p91
aS'http://www.espnscrum.com/france/rugby/player/2362.html'
p92
aS'http://www.espnscrum.com/france/rugby/player/2363.html'
p93
aS'http://www.espnscrum.com/france/rugby/player/2368.html'
p94
aS'http://www.espnscrum.com/france/rugby/player/2384.html'
p95
aS'http://www.espnscrum.com/france/rugby/player/2387.html'
p96
aS'http://www.espnscrum.com/france/rugby/player/2388.html'
p97
aS'http://www.espnscrum.com/france/rugby/player/2389.html'
p98
aS'http://www.espnscrum.com/france/rugby/player/2400.html'
p99
aS'http://www.espnscrum.com/france/rugby/player/2401.html'
p100
aS'http://www.espnscrum.com/france/rugby/player/2461.html'
p101
aS'http://www.espnscrum.com/france/rugby/player/2465.html'
p102
aS'http://www.espnscrum.com/france/rugby/player/2466.html'
p103
aS'http://www.espnscrum.com/france/rugby/player/2467.html'
p104
aS'http://www.espnscrum.com/france/rugby/player/2468.html'
p105
aS'http://www.espnscrum.com/france/rugby/player/2469.html'
p106
aS'http://www.espnscrum.com/france/rugby/player/2471.html'
p107
aS'http://www.espnscrum.com/france/rugby/player/2472.html'
p108
aS'http://www.espnscrum.com/france/rugby/player/2500.html'
p109
aS'http://www.espnscrum.com/france/rugby/player/2501.html'
p110
aS'http://www.espnscrum.com/france/rugby/player/2506.html'
p111
aS'http://www.espnscrum.com/france/rugby/player/2507.html'
p112
aS'http://www.espnscrum.com/france/rugby/player/2508.html'
p113
aS'http://www.espnscrum.com/france/rugby/player/2573.html'
p114
aS'http://www.espnscrum.com/france/rugby/player/2574.html'
p115
aS'http://www.espnscrum.com/france/rugby/player/2575.html'
p116
aS'http://www.espnscrum.com/france/rugby/player/2576.html'
p117
aS'http://www.espnscrum.com/france/rugby/player/2581.html'
p118
aS'http://www.espnscrum.com/france/rugby/player/2583.html'
p119
aS'http://www.espnscrum.com/france/rugby/player/2584.html'
p120
aS'http://www.espnscrum.com/france/rugby/player/2587.html'
p121
aS'http://www.espnscrum.com/france/rugby/player/2588.html'
p122
aS'http://www.espnscrum.com/france/rugby/player/2589.html'
p123
aS'http://www.espnscrum.com/france/rugby/player/2590.html'
p124
aS'http://www.espnscrum.com/france/rugby/player/2612.html'
p125
aS'http://www.espnscrum.com/france/rugby/player/2614.html'
p126
aS'http://www.espnscrum.com/france/rugby/player/2615.html'
p127
aS'http://www.espnscrum.com/france/rugby/player/2620.html'
p128
aS'http://www.espnscrum.com/france/rugby/player/2640.html'
p129
aS'http://www.espnscrum.com/france/rugby/player/2641.html'
p130
aS'http://www.espnscrum.com/france/rugby/player/2659.html'
p131
aS'http://www.espnscrum.com/france/rugby/player/2661.html'
p132
aS'http://www.espnscrum.com/france/rugby/player/2662.html'
p133
aS'http://www.espnscrum.com/france/rugby/player/2663.html'
p134
aS'http://www.espnscrum.com/france/rugby/player/2664.html'
p135
aS'http://www.espnscrum.com/france/rugby/player/2736.html'
p136
aS'http://www.espnscrum.com/france/rugby/player/2738.html'
p137
aS'http://www.espnscrum.com/france/rugby/player/2739.html'
p138
aS'http://www.espnscrum.com/france/rugby/player/2744.html'
p139
aS'http://www.espnscrum.com/france/rugby/player/2745.html'
p140
aS'http://www.espnscrum.com/france/rugby/player/2747.html'
p141
aS'http://www.espnscrum.com/france/rugby/player/2700.html'
p142
aS'http://www.espnscrum.com/france/rugby/player/2777.html'
p143
aS'http://www.espnscrum.com/france/rugby/player/2779.html'
p144
aS'http://www.espnscrum.com/france/rugby/player/2780.html'
p145
aS'http://www.espnscrum.com/france/rugby/player/2782.html'
p146
aS'http://www.espnscrum.com/france/rugby/player/2783.html'
p147
aS'http://www.espnscrum.com/france/rugby/player/2847.html'
p148
aS'http://www.espnscrum.com/france/rugby/player/2854.html'
p149
aS'http://www.espnscrum.com/france/rugby/player/2881.html'
p150
aS'http://www.espnscrum.com/france/rugby/player/2883.html'
p151
aS'http://www.espnscrum.com/france/rugby/player/2891.html'
p152
aS'http://www.espnscrum.com/france/rugby/player/2892.html'
p153
aS'http://www.espnscrum.com/france/rugby/player/2893.html'
p154
aS'http://www.espnscrum.com/france/rugby/player/2894.html'
p155
aS'http://www.espnscrum.com/france/rugby/player/2942.html'
p156
aS'http://www.espnscrum.com/france/rugby/player/2946.html'
p157
aS'http://www.espnscrum.com/france/rugby/player/2950.html'
p158
aS'http://www.espnscrum.com/france/rugby/player/2968.html'
p159
aS'http://www.espnscrum.com/france/rugby/player/2969.html'
p160
aS'http://www.espnscrum.com/france/rugby/player/2971.html'
p161
aS'http://www.espnscrum.com/france/rugby/player/2973.html'
p162
aS'http://www.espnscrum.com/france/rugby/player/2987.html'
p163
aS'http://www.espnscrum.com/france/rugby/player/2989.html'
p164
aS'http://www.espnscrum.com/france/rugby/player/2990.html'
p165
aS'http://www.espnscrum.com/france/rugby/player/2991.html'
p166
aS'http://www.espnscrum.com/france/rugby/player/2993.html'
p167
aS'http://www.espnscrum.com/france/rugby/player/3043.html'
p168
aS'http://www.espnscrum.com/france/rugby/player/3044.html'
p169
aS'http://www.espnscrum.com/france/rugby/player/3045.html'
p170
aS'http://www.espnscrum.com/france/rugby/player/3048.html'
p171
aS'http://www.espnscrum.com/france/rugby/player/3050.html'
p172
aS'http://www.espnscrum.com/france/rugby/player/3068.html'
p173
aS'http://www.espnscrum.com/france/rugby/player/3070.html'
p174
aS'http://www.espnscrum.com/france/rugby/player/3074.html'
p175
aS'http://www.espnscrum.com/france/rugby/player/3075.html'
p176
aS'http://www.espnscrum.com/france/rugby/player/3085.html'
p177
aS'http://www.espnscrum.com/france/rugby/player/3086.html'
p178
aS'http://www.espnscrum.com/france/rugby/player/3097.html'
p179
aS'http://www.espnscrum.com/france/rugby/player/3098.html'
p180
aS'http://www.espnscrum.com/france/rugby/player/3099.html'
p181
aS'http://www.espnscrum.com/france/rugby/player/3105.html'
p182
aS'http://www.espnscrum.com/france/rugby/player/3109.html'
p183
aS'http://www.espnscrum.com/france/rugby/player/3130.html'
p184
aS'http://www.espnscrum.com/france/rugby/player/3191.html'
p185
aS'http://www.espnscrum.com/france/rugby/player/3192.html'
p186
aS'http://www.espnscrum.com/france/rugby/player/3194.html'
p187
aS'http://www.espnscrum.com/france/rugby/player/3195.html'
p188
aS'http://www.espnscrum.com/france/rugby/player/3196.html'
p189
aS'http://www.espnscrum.com/france/rugby/player/3212.html'
p190
aS'http://www.espnscrum.com/france/rugby/player/3213.html'
p191
aS'http://www.espnscrum.com/france/rugby/player/3215.html'
p192
aS'http://www.espnscrum.com/france/rugby/player/3220.html'
p193
aS'http://www.espnscrum.com/france/rugby/player/3231.html'
p194
aS'http://www.espnscrum.com/france/rugby/player/3233.html'
p195
aS'http://www.espnscrum.com/france/rugby/player/2707.html'
p196
aS'http://www.espnscrum.com/france/rugby/player/3284.html'
p197
aS'http://www.espnscrum.com/france/rugby/player/3285.html'
p198
aS'http://www.espnscrum.com/france/rugby/player/3286.html'
p199
aS'http://www.espnscrum.com/france/rugby/player/3288.html'
p200
aS'http://www.espnscrum.com/france/rugby/player/3304.html'
p201
aS'http://www.espnscrum.com/france/rugby/player/3305.html'
p202
aS'http://www.espnscrum.com/france/rugby/player/3307.html'
p203
aS'http://www.espnscrum.com/france/rugby/player/3308.html'
p204
aS'http://www.espnscrum.com/france/rugby/player/3311.html'
p205
aS'http://www.espnscrum.com/france/rugby/player/3330.html'
p206
aS'http://www.espnscrum.com/france/rugby/player/3331.html'
p207
aS'http://www.espnscrum.com/france/rugby/player/2699.html'
p208
aS'http://www.espnscrum.com/france/rugby/player/3369.html'
p209
aS'http://www.espnscrum.com/france/rugby/player/3380.html'
p210
aS'http://www.espnscrum.com/france/rugby/player/3382.html'
p211
aS'http://www.espnscrum.com/france/rugby/player/3383.html'
p212
aS'http://www.espnscrum.com/france/rugby/player/3387.html'
p213
aS'http://www.espnscrum.com/france/rugby/player/3389.html'
p214
aS'http://www.espnscrum.com/france/rugby/player/3392.html'
p215
aS'http://www.espnscrum.com/france/rugby/player/3403.html'
p216
aS'http://www.espnscrum.com/france/rugby/player/3415.html'
p217
aS'http://www.espnscrum.com/france/rugby/player/3417.html'
p218
aS'http://www.espnscrum.com/france/rugby/player/3422.html'
p219
aS'http://www.espnscrum.com/france/rugby/player/3423.html'
p220
aS'http://www.espnscrum.com/france/rugby/player/3424.html'
p221
aS'http://www.espnscrum.com/france/rugby/player/3425.html'
p222
aS'http://www.espnscrum.com/france/rugby/player/3426.html'
p223
aS'http://www.espnscrum.com/france/rugby/player/3429.html'
p224
aS'http://www.espnscrum.com/france/rugby/player/3430.html'
p225
aS'http://www.espnscrum.com/france/rugby/player/3434.html'
p226
aS'http://www.espnscrum.com/france/rugby/player/3505.html'
p227
aS'http://www.espnscrum.com/france/rugby/player/3506.html'
p228
aS'http://www.espnscrum.com/france/rugby/player/3507.html'
p229
aS'http://www.espnscrum.com/france/rugby/player/3508.html'
p230
aS'http://www.espnscrum.com/france/rugby/player/3509.html'
p231
aS'http://www.espnscrum.com/france/rugby/player/3510.html'
p232
aS'http://www.espnscrum.com/france/rugby/player/3518.html'
p233
aS'http://www.espnscrum.com/france/rugby/player/3520.html'
p234
aS'http://www.espnscrum.com/france/rugby/player/3521.html'
p235
aS'http://www.espnscrum.com/france/rugby/player/3525.html'
p236
aS'http://www.espnscrum.com/france/rugby/player/3526.html'
p237
aS'http://www.espnscrum.com/france/rugby/player/3527.html'
p238
aS'http://www.espnscrum.com/france/rugby/player/3535.html'
p239
aS'http://www.espnscrum.com/france/rugby/player/3538.html'
p240
aS'http://www.espnscrum.com/france/rugby/player/3544.html'
p241
aS'http://www.espnscrum.com/france/rugby/player/3636.html'
p242
aS'http://www.espnscrum.com/france/rugby/player/3638.html'
p243
aS'http://www.espnscrum.com/france/rugby/player/3639.html'
p244
aS'http://www.espnscrum.com/france/rugby/player/3661.html'
p245
aS'http://www.espnscrum.com/france/rugby/player/3662.html'
p246
aS'http://www.espnscrum.com/france/rugby/player/3676.html'
p247
aS'http://www.espnscrum.com/france/rugby/player/3677.html'
p248
aS'http://www.espnscrum.com/france/rugby/player/3678.html'
p249
aS'http://www.espnscrum.com/france/rugby/player/3679.html'
p250
aS'http://www.espnscrum.com/france/rugby/player/3680.html'
p251
aS'http://www.espnscrum.com/france/rugby/player/3734.html'
p252
aS'http://www.espnscrum.com/france/rugby/player/3735.html'
p253
aS'http://www.espnscrum.com/france/rugby/player/3736.html'
p254
aS'http://www.espnscrum.com/france/rugby/player/3740.html'
p255
aS'http://www.espnscrum.com/france/rugby/player/3758.html'
p256
aS'http://www.espnscrum.com/france/rugby/player/3780.html'
p257
aS'http://www.espnscrum.com/france/rugby/player/3822.html'
p258
aS'http://www.espnscrum.com/france/rugby/player/3823.html'
p259
aS'http://www.espnscrum.com/france/rugby/player/3826.html'
p260
aS'http://www.espnscrum.com/france/rugby/player/3827.html'
p261
aS'http://www.espnscrum.com/france/rugby/player/3829.html'
p262
aS'http://www.espnscrum.com/france/rugby/player/3830.html'
p263
aS'http://www.espnscrum.com/france/rugby/player/3842.html'
p264
aS'http://www.espnscrum.com/france/rugby/player/3844.html'
p265
aS'http://www.espnscrum.com/france/rugby/player/3845.html'
p266
aS'http://www.espnscrum.com/france/rugby/player/3860.html'
p267
aS'http://www.espnscrum.com/france/rugby/player/3864.html'
p268
aS'http://www.espnscrum.com/france/rugby/player/3866.html'
p269
aS'http://www.espnscrum.com/france/rugby/player/3873.html'
p270
aS'http://www.espnscrum.com/france/rugby/player/3874.html'
p271
aS'http://www.espnscrum.com/france/rugby/player/3875.html'
p272
aS'http://www.espnscrum.com/france/rugby/player/3876.html'
p273
aS'http://www.espnscrum.com/france/rugby/player/3877.html'
p274
aS'http://www.espnscrum.com/france/rugby/player/3982.html'
p275
aS'http://www.espnscrum.com/france/rugby/player/3983.html'
p276
aS'http://www.espnscrum.com/france/rugby/player/3984.html'
p277
aS'http://www.espnscrum.com/france/rugby/player/3985.html'
p278
aS'http://www.espnscrum.com/france/rugby/player/3986.html'
p279
aS'http://www.espnscrum.com/france/rugby/player/3987.html'
p280
aS'http://www.espnscrum.com/france/rugby/player/3988.html'
p281
aS'http://www.espnscrum.com/france/rugby/player/3989.html'
p282
aS'http://www.espnscrum.com/france/rugby/player/3990.html'
p283
aS'http://www.espnscrum.com/france/rugby/player/3991.html'
p284
aS'http://www.espnscrum.com/france/rugby/player/4097.html'
p285
aS'http://www.espnscrum.com/france/rugby/player/4098.html'
p286
aS'http://www.espnscrum.com/france/rugby/player/4099.html'
p287
aS'http://www.espnscrum.com/france/rugby/player/4100.html'
p288
aS'http://www.espnscrum.com/france/rugby/player/4130.html'
p289
aS'http://www.espnscrum.com/france/rugby/player/4132.html'
p290
aS'http://www.espnscrum.com/france/rugby/player/4197.html'
p291
aS'http://www.espnscrum.com/france/rugby/player/4198.html'
p292
aS'http://www.espnscrum.com/france/rugby/player/4199.html'
p293
aS'http://www.espnscrum.com/france/rugby/player/4201.html'
p294
aS'http://www.espnscrum.com/france/rugby/player/4131.html'
p295
aS'http://www.espnscrum.com/france/rugby/player/4272.html'
p296
aS'http://www.espnscrum.com/france/rugby/player/4273.html'
p297
aS'http://www.espnscrum.com/france/rugby/player/4274.html'
p298
aS'http://www.espnscrum.com/france/rugby/player/4277.html'
p299
aS'http://www.espnscrum.com/france/rugby/player/4278.html'
p300
aS'http://www.espnscrum.com/france/rugby/player/4378.html'
p301
aS'http://www.espnscrum.com/france/rugby/player/4379.html'
p302
aS'http://www.espnscrum.com/france/rugby/player/4380.html'
p303
aS'http://www.espnscrum.com/france/rugby/player/4383.html'
p304
aS'http://www.espnscrum.com/france/rugby/player/4384.html'
p305
aS'http://www.espnscrum.com/france/rugby/player/4385.html'
p306
aS'http://www.espnscrum.com/france/rugby/player/4386.html'
p307
aS'http://www.espnscrum.com/france/rugby/player/4454.html'
p308
aS'http://www.espnscrum.com/france/rugby/player/4455.html'
p309
aS'http://www.espnscrum.com/france/rugby/player/4456.html'
p310
aS'http://www.espnscrum.com/france/rugby/player/4457.html'
p311
aS'http://www.espnscrum.com/france/rugby/player/4458.html'
p312
aS'http://www.espnscrum.com/france/rugby/player/4493.html'
p313
aS'http://www.espnscrum.com/france/rugby/player/4494.html'
p314
aS'http://www.espnscrum.com/france/rugby/player/4495.html'
p315
aS'http://www.espnscrum.com/france/rugby/player/4496.html'
p316
aS'http://www.espnscrum.com/france/rugby/player/4550.html'
p317
aS'http://www.espnscrum.com/france/rugby/player/4551.html'
p318
aS'http://www.espnscrum.com/france/rugby/player/4552.html'
p319
aS'http://www.espnscrum.com/france/rugby/player/4553.html'
p320
aS'http://www.espnscrum.com/france/rugby/player/4585.html'
p321
aS'http://www.espnscrum.com/france/rugby/player/4586.html'
p322
aS'http://www.espnscrum.com/france/rugby/player/4587.html'
p323
aS'http://www.espnscrum.com/france/rugby/player/4589.html'
p324
aS'http://www.espnscrum.com/france/rugby/player/4590.html'
p325
aS'http://www.espnscrum.com/france/rugby/player/4591.html'
p326
aS'http://www.espnscrum.com/france/rugby/player/4593.html'
p327
aS'http://www.espnscrum.com/france/rugby/player/4594.html'
p328
aS'http://www.espnscrum.com/france/rugby/player/4595.html'
p329
aS'http://www.espnscrum.com/france/rugby/player/4597.html'
p330
aS'http://www.espnscrum.com/france/rugby/player/4600.html'
p331
aS'http://www.espnscrum.com/france/rugby/player/4603.html'
p332
aS'http://www.espnscrum.com/france/rugby/player/4734.html'
p333
aS'http://www.espnscrum.com/france/rugby/player/4735.html'
p334
aS'http://www.espnscrum.com/france/rugby/player/4736.html'
p335
aS'http://www.espnscrum.com/france/rugby/player/4737.html'
p336
aS'http://www.espnscrum.com/france/rugby/player/4738.html'
p337
aS'http://www.espnscrum.com/france/rugby/player/4739.html'
p338
aS'http://www.espnscrum.com/france/rugby/player/4740.html'
p339
aS'http://www.espnscrum.com/france/rugby/player/4741.html'
p340
aS'http://www.espnscrum.com/france/rugby/player/4764.html'
p341
aS'http://www.espnscrum.com/france/rugby/player/4765.html'
p342
aS'http://www.espnscrum.com/france/rugby/player/4766.html'
p343
aS'http://www.espnscrum.com/france/rugby/player/4767.html'
p344
aS'http://www.espnscrum.com/france/rugby/player/4768.html'
p345
aS'http://www.espnscrum.com/france/rugby/player/4769.html'
p346
aS'http://www.espnscrum.com/france/rugby/player/4770.html'
p347
aS'http://www.espnscrum.com/france/rugby/player/4771.html'
p348
aS'http://www.espnscrum.com/france/rugby/player/4772.html'
p349
aS'http://www.espnscrum.com/france/rugby/player/4773.html'
p350
aS'http://www.espnscrum.com/france/rugby/player/4774.html'
p351
aS'http://www.espnscrum.com/france/rugby/player/4775.html'
p352
aS'http://www.espnscrum.com/france/rugby/player/4776.html'
p353
aS'http://www.espnscrum.com/france/rugby/player/4777.html'
p354
aS'http://www.espnscrum.com/france/rugby/player/4778.html'
p355
aS'http://www.espnscrum.com/france/rugby/player/4779.html'
p356
aS'http://www.espnscrum.com/france/rugby/player/4780.html'
p357
aS'http://www.espnscrum.com/france/rugby/player/4781.html'
p358
aS'http://www.espnscrum.com/france/rugby/player/4782.html'
p359
aS'http://www.espnscrum.com/france/rugby/player/4786.html'
p360
aS'http://www.espnscrum.com/france/rugby/player/4795.html'
p361
aS'http://www.espnscrum.com/france/rugby/player/4797.html'
p362
aS'http://www.espnscrum.com/france/rugby/player/4798.html'
p363
aS'http://www.espnscrum.com/france/rugby/player/4799.html'
p364
aS'http://www.espnscrum.com/france/rugby/player/4801.html'
p365
aS'http://www.espnscrum.com/france/rugby/player/4815.html'
p366
aS'http://www.espnscrum.com/france/rugby/player/4816.html'
p367
aS'http://www.espnscrum.com/france/rugby/player/4823.html'
p368
aS'http://www.espnscrum.com/france/rugby/player/4893.html'
p369
aS'http://www.espnscrum.com/france/rugby/player/4957.html'
p370
aS'http://www.espnscrum.com/france/rugby/player/5018.html'
p371
aS'http://www.espnscrum.com/france/rugby/player/5019.html'
p372
aS'http://www.espnscrum.com/france/rugby/player/5021.html'
p373
aS'http://www.espnscrum.com/france/rugby/player/5023.html'
p374
aS'http://www.espnscrum.com/france/rugby/player/5028.html'
p375
aS'http://www.espnscrum.com/france/rugby/player/5029.html'
p376
aS'http://www.espnscrum.com/france/rugby/player/5030.html'
p377
aS'http://www.espnscrum.com/france/rugby/player/5035.html'
p378
aS'http://www.espnscrum.com/france/rugby/player/5065.html'
p379
aS'http://www.espnscrum.com/france/rugby/player/5134.html'
p380
aS'http://www.espnscrum.com/france/rugby/player/5158.html'
p381
aS'http://www.espnscrum.com/france/rugby/player/5223.html'
p382
aS'http://www.espnscrum.com/france/rugby/player/5252.html'
p383
aS'http://www.espnscrum.com/france/rugby/player/5279.html'
p384
aS'http://www.espnscrum.com/france/rugby/player/5280.html'
p385
aS'http://www.espnscrum.com/france/rugby/player/5281.html'
p386
aS'http://www.espnscrum.com/france/rugby/player/5284.html'
p387
aS'http://www.espnscrum.com/france/rugby/player/5286.html'
p388
aS'http://www.espnscrum.com/france/rugby/player/5287.html'
p389
aS'http://www.espnscrum.com/france/rugby/player/5289.html'
p390
aS'http://www.espnscrum.com/france/rugby/player/5308.html'
p391
aS'http://www.espnscrum.com/france/rugby/player/5309.html'
p392
aS'http://www.espnscrum.com/france/rugby/player/5311.html'
p393
aS'http://www.espnscrum.com/france/rugby/player/5316.html'
p394
aS'http://www.espnscrum.com/france/rugby/player/5317.html'
p395
aS'http://www.espnscrum.com/france/rugby/player/5326.html'
p396
aS'http://www.espnscrum.com/france/rugby/player/5339.html'
p397
aS'http://www.espnscrum.com/france/rugby/player/5341.html'
p398
aS'http://www.espnscrum.com/france/rugby/player/5343.html'
p399
aS'http://www.espnscrum.com/france/rugby/player/5347.html'
p400
aS'http://www.espnscrum.com/france/rugby/player/5348.html'
p401
aS'http://www.espnscrum.com/france/rugby/player/5364.html'
p402
aS'http://www.espnscrum.com/france/rugby/player/5365.html'
p403
aS'http://www.espnscrum.com/france/rugby/player/5368.html'
p404
aS'http://www.espnscrum.com/france/rugby/player/5370.html'
p405
aS'http://www.espnscrum.com/france/rugby/player/5500.html'
p406
aS'http://www.espnscrum.com/france/rugby/player/5501.html'
p407
aS'http://www.espnscrum.com/france/rugby/player/5502.html'
p408
aS'http://www.espnscrum.com/france/rugby/player/5507.html'
p409
aS'http://www.espnscrum.com/france/rugby/player/5509.html'
p410
aS'http://www.espnscrum.com/france/rugby/player/5510.html'
p411
aS'http://www.espnscrum.com/france/rugby/player/5511.html'
p412
aS'http://www.espnscrum.com/france/rugby/player/5513.html'
p413
aS'http://www.espnscrum.com/france/rugby/player/5517.html'
p414
aS'http://www.espnscrum.com/france/rugby/player/5519.html'
p415
aS'http://www.espnscrum.com/france/rugby/player/5520.html'
p416
aS'http://www.espnscrum.com/france/rugby/player/5521.html'
p417
aS'http://www.espnscrum.com/france/rugby/player/5560.html'
p418
aS'http://www.espnscrum.com/france/rugby/player/5562.html'
p419
aS'http://www.espnscrum.com/france/rugby/player/5563.html'
p420
aS'http://www.espnscrum.com/france/rugby/player/5648.html'
p421
aS'http://www.espnscrum.com/france/rugby/player/5649.html'
p422
aS'http://www.espnscrum.com/france/rugby/player/5664.html'
p423
aS'http://www.espnscrum.com/france/rugby/player/5668.html'
p424
aS'http://www.espnscrum.com/france/rugby/player/5669.html'
p425
aS'http://www.espnscrum.com/france/rugby/player/5670.html'
p426
aS'http://www.espnscrum.com/france/rugby/player/5683.html'
p427
aS'http://www.espnscrum.com/france/rugby/player/5684.html'
p428
aS'http://www.espnscrum.com/france/rugby/player/5685.html'
p429
aS'http://www.espnscrum.com/france/rugby/player/5686.html'
p430
aS'http://www.espnscrum.com/france/rugby/player/5687.html'
p431
aS'http://www.espnscrum.com/france/rugby/player/5689.html'
p432
aS'http://www.espnscrum.com/france/rugby/player/5747.html'
p433
aS'http://www.espnscrum.com/france/rugby/player/5748.html'
p434
aS'http://www.espnscrum.com/france/rugby/player/5765.html'
p435
aS'http://www.espnscrum.com/france/rugby/player/5773.html'
p436
aS'http://www.espnscrum.com/france/rugby/player/5789.html'
p437
aS'http://www.espnscrum.com/france/rugby/player/5805.html'
p438
aS'http://www.espnscrum.com/france/rugby/player/5817.html'
p439
aS'http://www.espnscrum.com/france/rugby/player/5810.html'
p440
aS'http://www.espnscrum.com/france/rugby/player/5811.html'
p441
aS'http://www.espnscrum.com/france/rugby/player/5812.html'
p442
aS'http://www.espnscrum.com/france/rugby/player/5813.html'
p443
aS'http://www.espnscrum.com/france/rugby/player/5809.html'
p444
aS'http://www.espnscrum.com/france/rugby/player/5853.html'
p445
aS'http://www.espnscrum.com/france/rugby/player/5855.html'
p446
aS'http://www.espnscrum.com/france/rugby/player/5857.html'
p447
aS'http://www.espnscrum.com/france/rugby/player/5858.html'
p448
aS'http://www.espnscrum.com/france/rugby/player/5863.html'
p449
aS'http://www.espnscrum.com/france/rugby/player/5868.html'
p450
aS'http://www.espnscrum.com/france/rugby/player/5871.html'
p451
aS'http://www.espnscrum.com/france/rugby/player/5906.html'
p452
aS'http://www.espnscrum.com/france/rugby/player/5921.html'
p453
aS'http://www.espnscrum.com/france/rugby/player/5922.html'
p454
aS'http://www.espnscrum.com/france/rugby/player/5923.html'
p455
aS'http://www.espnscrum.com/france/rugby/player/5989.html'
p456
aS'http://www.espnscrum.com/france/rugby/player/5990.html'
p457
aS'http://www.espnscrum.com/france/rugby/player/5992.html'
p458
aS'http://www.espnscrum.com/france/rugby/player/5993.html'
p459
a.