(lp1
VFly-half
p2
aVLock, Prop
p3
aVNo. 8
p4
aVLock, No. 8, Wing
p5
aVFullback
p6
aVHooker
p7
aVLock, Flanker
p8
aVLock
p9
aVScrum-half
p10
aVWing, Centre
p11
aVCentre
p12
aVLock, Prop
p13
aVWing
p14
aVCentre, Wing
p15
aVProp, Lock
p16
aVNo. 8
p17
aVFly-half
p18
aVWing, Centre
p19
aVCentre
p20
aVWing, Centre, Flanker
p21
aVFlanker
p22
aVFullback, Centre, Fly-half
p23
aVProp, No. 8
p24
aVFly-half, Flanker, Halfback
p25
aVFullback
p26
aVFullback, Centre
p27
aVLock, Prop, Hooker
p28
aVHooker
p29
aVWing
p30
aVHooker, Lock, Flanker
p31
aVFly-half, Flanker
p32
aVLock, Prop
p33
aVFly-half, Scrum-half
p34
aVFlanker
p35
aVProp, Lock
p36
aVLock, No. 8, Centre
p37
aVLock, Flanker
p38
aVFullback
p39
aVHooker
p40
aVCentre
p41
aVLock
p42
aVScrum-half
p43
aVFullback
p44
aVFlanker
p45
aVCentre, Fly-half, Wing
p46
aVScrum-half, Flanker
p47
aVLock
p48
aVCentre, Flanker, No. 8
p49
aVFly-half
p50
aVCentre, Flanker
p51
aVHooker
p52
aVProp
p53
aVWing, Centre, Fly-half
p54
aVFlanker, Centre
p55
aVFullback
p56
aVProp, Lock
p57
aVLock, No. 8, Prop
p58
aVFullback
p59
aVCentre, Fly-half
p60
aVHalfback, Scrum-half
p61
aVWing
p62
aVFly-half
p63
aVLock, Flanker
p64
aVFlanker, Lock
p65
aVWing
p66
aVLock, Flanker
p67
aVCentre
p68
aVProp, Lock
p69
aVFly-half
p70
aVWing, Fly-half
p71
aVFullback
p72
aVHooker
p73
aVCentre
p74
aVProp
p75
aVLock
p76
aVFlanker
p77
aVProp, Lock
p78
aVBack-row
p79
aVWing, Centre
p80
aVCentre
p81
aVScrum-half, Wing
p82
aVHooker
p83
aVProp
p84
aVProp, Lock
p85
aVHooker
p86
aVCentre
p87
aVWing, Prop, Lock
p88
aVScrum-half, Halfback
p89
aVWing, Centre
p90
aVProp, Flanker, No. 8
p91
aVWing
p92
aVFly-half
p93
aVProp
p94
aVFly-half
p95
aVLock
p96
aVFullback
p97
aVScrum-half
p98
aVFlanker
p99
aVProp
p100
aVLock
p101
aVProp, Hooker
p102
aVWing
p103
aVFullback, Centre, Flanker
p104
aVLock, Flanker
p105
aVProp, Lock
p106
aVCentre
p107
aVCentre, Fly-half
p108
aVFly-half, Centre
p109
aVLock
p110
aVLock
p111
aVFlanker
p112
aVHooker
p113
aVFly-half
p114
aVLock, No. 8
p115
aVWing, Fullback
p116
aVCentre
p117
aVWing
p118
aVFlanker
p119
aVNo. 8
p120
aVProp, Hooker
p121
aVLock
p122
aVWing
p123
aVLock, Flanker
p124
aVFullback
p125
aVFlanker
p126
aVCentre
p127
aVProp, Lock
p128
aVProp
p129
aVFlanker
p130
aVCentre
p131
aVHooker
p132
aVWing
p133
aVHooker, Flanker
p134
aVProp, Lock, No. 8
p135
aVBack-row
p136
aVFly-half, Halfback, Fullback
p137
aVProp, Lock
p138
aVWing
p139
aVScrum-half
p140
aVLock, No. 8
p141
aVFly-half
p142
aVWing
p143
aVHooker
p144
aVWing
p145
aVCentre, Wing
p146
aVWing, Centre
p147
aVFlanker
p148
aVFly-half
p149
aVWing
p150
aVWing, Centre
p151
aVProp, Hooker
p152
aVLock, Prop
p153
aVFlanker
p154
aVBack-row
p155
aVHooker
p156
aVScrum-half
p157
aVWing
p158
aVCentre
p159
aVLock
p160
aVProp, Flanker, No. 8
p161
aVFly-half, Scrum-half
p162
aVCentre
p163
aVWing
p164
aVUtility back
p165
aVCentre
p166
aVFlanker
p167
aVFullback
p168
aVWing
p169
aVFly-half
p170
aVProp
p171
aVBack-row
p172
aVWing, Centre
p173
aVProp
p174
aVFullback
p175
aVBack-row
p176
aVWing, Centre
p177
aVFlanker
p178
aVFlanker
p179
aVFullback
p180
aVCentre
p181
aVProp, Lock
p182
aVFlanker
p183
aVCentre
p184
aVWing, Centre
p185
aVFly-half
p186
aVHooker
p187
aVProp
p188
aVProp, Lock
p189
aVWing
p190
aVLock
p191
aVFullback
p192
aVWing
p193
aVFlanker
p194
aVWing
p195
aVLock
p196
aVCentre
p197
aVFullback
p198
aVScrum-half, Halfback
p199
aVLock
p200
aVScrum-half
p201
aVWing
p202
aVCentre, Fly-half
p203
aVFly-half, Centre
p204
aVWing
p205
aVScrum-half
p206
aVProp
p207
aVScrum-half
p208
aVLock, Prop
p209
aVBack-row
p210
aVFly-half
p211
aVWing
p212
aVProp
p213
aVFullback
p214
aVWing
p215
aVWing
p216
aVScrum-half
p217
aVFly-half
p218
aVBack-row
p219
aVNo. 8, Lock
p220
aVWing, Centre
p221
aVProp
p222
aVProp
p223
aVHooker
p224
aVNo. 8
p225
aVLock
p226
aVBack-row
p227
aVLock
p228
aVCentre
p229
aVScrum-half
p230
aVCentre, Fly-half
p231
aVFullback
p232
aVFlanker
p233
aVFullback
p234
aVHooker
p235
aVProp, Hooker, Lock, Flanker
p236
aVWing
p237
aVProp, Lock
p238
aVProp, Lock
p239
aVScrum-half
p240
aVProp, Lock
p241
aVCentre
p242
aVFly-half
p243
aVNo. 8
p244
aVBack-row
p245
aVWing
p246
aVLock
p247
aVLock, Flanker
p248
aVFly-half
p249
aVWing
p250
aVWing
p251
aVProp, Hooker
p252
aVHooker, Flanker
p253
aVLock, Prop
p254
aVWing
p255
aVWing
p256
aVProp, Hooker
p257
aVWing
p258
aVNo. 8, Lock, Flanker
p259
aVHooker
p260
aVProp, Lock
p261
aVFullback, Centre
p262
aVFly-half
p263
aVProp
p264
aVScrum-half, Halfback
p265
aVProp, Hooker
p266
aVCentre
p267
aVLock
p268
aVCentre
p269
aVProp
p270
aVWing
p271
aVHooker
p272
aVFlanker
p273
aVFullback
p274
aVFly-half
p275
aVFullback, Wing
p276
aVFlanker
p277
aVCentre
p278
aVBack-row
p279
aVBack-row
p280
aVWing
p281
aVLock, Prop
p282
aVProp, Hooker
p283
aVHooker
p284
aVHooker
p285
aVFly-half
p286
aVProp
p287
aVWing
p288
aVFlanker
p289
aVWing
p290
aVCentre, Fly-half
p291
aVWing
p292
aVNo. 8
p293
aVScrum-half, Flanker
p294
aVFlanker
p295
aVScrum-half
p296
aVCentre, Wing
p297
aVLock
p298
aVFlanker
p299
aVWing
p300
aVProp
p301
aVWing
p302
aVProp, Lock
p303
aVLock
p304
aVFly-half
p305
aVHooker, Flanker
p306
aVScrum-half, Flanker
p307
aVCentre
p308
aVHooker
p309
aVCentre, Fly-half
p310
aVWing
p311
aVFullback
p312
aVLock
p313
aVProp
p314
aVFly-half
p315
aVFullback
p316
aVFullback
p317
aVLock
p318
aVCentre
p319
aVLock
p320
aVWing
p321
aVFly-half
p322
aVFlanker
p323
aVNo. 8
p324
aVFlanker
p325
aVWing
p326
aVProp
p327
aVWing
p328
aVLock, Prop
p329
aVCentre
p330
aVFly-half, Scrum-half
p331
aVFlanker
p332
aVNo. 8
p333
aVLock
p334
aVFlanker
p335
aVProp
p336
aVHooker
p337
aVScrum-half
p338
aVWing
p339
aVLock
p340
aVWing, Centre
p341
aVScrum-half
p342
aVCentre
p343
aVWing
p344
aVHooker
p345
aVCentre
p346
aVProp, Lock
p347
aVFullback
p348
aVLock
p349
aVFlanker
p350
aVProp, Lock
p351
aVNo. 8
p352
aVLock
p353
aVFly-half, Fullback
p354
aVWing
p355
aVScrum-half
p356
aVFullback
p357
aVHooker
p358
aVBack-row
p359
aVWing, Centre
p360
aVFlanker
p361
aVWing
p362
aVCentre, Fly-half
p363
aVHooker
p364
aVWing
p365
aVProp, Lock
p366
aVFullback, Centre
p367
aVWing
p368
aVHooker
p369
aVProp
p370
aVScrum-half
p371
aVWing
p372
aVHooker
p373
aVWing
p374
aVFly-half, Centre
p375
aVCentre, Fly-half
p376
aVWing
p377
aVProp, Lock
p378
aVWing
p379
aVFullback
p380
aVFly-half
p381
aVCentre
p382
aVNo. 8
p383
aVFullback
p384
aVProp, Flanker
p385
aVLock
p386
aVProp
p387
aVCentre, Fly-half
p388
aVProp
p389
aVCentre
p390
aVFlanker
p391
aVHalfback, Centre, Scrum-half
p392
aVHooker
p393
aVCentre, Fullback, Wing
p394
aVWing
p395
aVFly-half
p396
aVProp
p397
aVFly-half
p398
aVLock
p399
aVLock
p400
aVWing
p401
aVCentre
p402
aVProp
p403
aVWing
p404
aVFullback
p405
aVFlanker
p406
aVLock, Prop
p407
aVLock
p408
aVFly-half
p409
aVHooker
p410
aVFullback, Scrum-half
p411
aVFullback, Centre, Fly-half
p412
aVLock
p413
aVFly-half
p414
aVWing
p415
aVFullback
p416
aVCentre
p417
aVFly-half
p418
aVCentre, Wing
p419
aVProp, Lock
p420
aVFullback
p421
aVLock, No. 8
p422
aVHooker
p423
aVProp
p424
aVBack-row
p425
aVFly-half
p426
aVFly-half
p427
aVFlanker
p428
aVCentre
p429
aVFullback
p430
aVScrum-half
p431
aVCentre
p432
aVBack-row
p433
aVCentre, Fly-half
p434
aVWing, Centre
p435
aVFullback
p436
aVProp, No. 8
p437
aVFullback, Fly-half
p438
aVHooker
p439
aVProp
p440
aVFlanker
p441
aVWing
p442
aVWing, Centre
p443
aVFlanker, No. 8, Lock
p444
aVFly-half
p445
aVLock
p446
aVScrum-half
p447
aVFlanker
p448
aVFullback, Centre
p449
aVLock, No. 8, Prop
p450
aVWing
p451
aVWing
p452
aVWing
p453
aVHooker
p454
aVProp, No. 8
p455
aVFlanker
p456
aVWing, Centre
p457
aVLock
p458
aVWing, Centre
p459
a.