(lp1
VFly-half
p2
aVLock, Prop
p3
aVNo. 8
p4
aVWing, Lock, No. 8
p5
aVFullback
p6
aVHooker
p7
aVLock, Flanker
p8
aVLock
p9
aVScrum-half
p10
aVWing, Centre
p11
aVCentre
p12
aVLock, Prop
p13
aVWing
p14
aVWing, Centre
p15
aVProp, Lock
p16
aVNo. 8
p17
aVFly-half
p18
aVCentre, Wing
p19
aVCentre
p20
aVFlanker, Wing, Centre
p21
aVFlanker
p22
aVFullback, Centre, Fly-half
p23
aVProp, No. 8
p24
aVFly-half, Flanker, Halfback
p25
aVFullback
p26
aVCentre, Fullback
p27
aVLock, Prop, Hooker
p28
aVHooker
p29
aVWing
p30
aVLock, Flanker, Hooker
p31
aVFly-half, Flanker
p32
aVProp, Lock
p33
aVFly-half, Scrum-half
p34
aVFlanker
p35
aVProp, Lock
p36
aVLock, No. 8, Centre
p37
aVLock, Flanker
p38
aVFullback
p39
aVHooker
p40
aVCentre
p41
aVLock
p42
aVScrum-half
p43
aVFullback
p44
aVFlanker
p45
aVWing, Centre, Fly-half
p46
aVFlanker, Scrum-half
p47
aVLock
p48
aVCentre, Flanker, No. 8
p49
aVFly-half
p50
aVCentre, Flanker
p51
aVHooker
p52
aVProp
p53
aVWing, Centre, Fly-half
p54
aVFlanker, Centre
p55
aVFullback
p56
aVProp, Lock
p57
aVProp, Lock, No. 8
p58
aVFullback
p59
aVCentre, Fly-half
p60
aVScrum-half, Halfback
p61
aVWing
p62
aVFly-half
p63
aVLock, Flanker
p64
aVLock, Flanker
p65
aVWing
p66
aVFlanker, Lock
p67
aVCentre
p68
aVProp, Lock
p69
aVFly-half
p70
aVFly-half, Wing
p71
aVFullback
p72
aVHooker
p73
aVCentre
p74
aVProp
p75
aVLock
p76
aVFlanker
p77
aVProp, Lock
p78
aVBack-row
p79
aVWing, Centre
p80
aVCentre
p81
aVWing, Scrum-half
p82
aVHooker
p83
aVProp
p84
aVLock, Prop
p85
aVHooker
p86
aVCentre
p87
aVLock, Wing, Prop
p88
aVHalfback, Scrum-half
p89
aVWing, Centre
p90
aVProp, Flanker, No. 8
p91
aVWing
p92
aVFly-half
p93
aVProp
p94
aVFly-half
p95
aVLock
p96
aVFullback
p97
aVScrum-half
p98
aVFlanker
p99
aVProp
p100
aVLock
p101
aVProp, Hooker
p102
aVWing
p103
aVFullback, Centre, Flanker
p104
aVLock, Flanker
p105
aVProp, Lock
p106
aVCentre
p107
aVFly-half, Centre
p108
aVCentre, Fly-half
p109
aVLock
p110
aVLock
p111
aVFlanker
p112
aVHooker
p113
aVFly-half
p114
aVLock, No. 8
p115
aVFullback, Wing
p116
aVCentre
p117
aVWing
p118
aVFlanker
p119
aVNo. 8
p120
aVHooker, Prop
p121
aVLock
p122
aVWing
p123
aVFlanker, Lock
p124
aVFullback
p125
aVFlanker
p126
aVCentre
p127
aVProp, Lock
p128
aVProp
p129
aVFlanker
p130
aVCentre
p131
aVHooker
p132
aVWing
p133
aVHooker, Flanker
p134
aVNo. 8, Prop, Lock
p135
aVBack-row
p136
aVFullback, Fly-half, Halfback
p137
aVProp, Lock
p138
aVWing
p139
aVScrum-half
p140
aVLock, No. 8
p141
aVFly-half
p142
aVWing
p143
aVHooker
p144
aVWing
p145
aVWing, Centre
p146
aVWing, Centre
p147
aVFlanker
p148
aVFly-half
p149
aVWing
p150
aVWing, Centre
p151
aVHooker, Prop
p152
aVLock, Prop
p153
aVFlanker
p154
aVBack-row
p155
aVHooker
p156
aVScrum-half
p157
aVWing
p158
aVCentre
p159
aVLock
p160
aVProp, Flanker, No. 8
p161
aVFly-half, Scrum-half
p162
aVCentre
p163
aVWing
p164
aVUtility back
p165
aVCentre
p166
aVFlanker
p167
aVFullback
p168
aVWing
p169
aVFly-half
p170
aVProp
p171
aVBack-row
p172
aVWing, Centre
p173
aVProp
p174
aVFullback
p175
aVBack-row
p176
aVWing, Centre
p177
aVFlanker
p178
aVFlanker
p179
aVFullback
p180
aVCentre
p181
aVProp, Lock
p182
aVFlanker
p183
aVCentre
p184
aVCentre, Wing
p185
aVFly-half
p186
aVHooker
p187
aVProp
p188
aVProp, Lock
p189
aVWing
p190
aVLock
p191
aVFullback
p192
aVWing
p193
aVFlanker
p194
aVWing
p195
aVLock
p196
aVCentre
p197
aVFullback
p198
aVScrum-half, Halfback
p199
aVLock
p200
aVScrum-half
p201
aVWing
p202
aVCentre, Fly-half
p203
aVCentre, Fly-half
p204
aVWing
p205
aVScrum-half
p206
aVProp
p207
aVScrum-half
p208
aVLock, Prop
p209
aVBack-row
p210
aVFly-half
p211
aVWing
p212
aVProp
p213
aVFullback
p214
aVWing
p215
aVWing
p216
aVScrum-half
p217
aVFly-half
p218
aVBack-row
p219
aVNo. 8, Lock
p220
aVWing, Centre
p221
aVProp
p222
aVProp
p223
aVHooker
p224
aVNo. 8
p225
aVLock
p226
aVBack-row
p227
aVLock
p228
aVCentre
p229
aVScrum-half
p230
aVFly-half, Centre
p231
aVFullback
p232
aVFlanker
p233
aVFullback
p234
aVHooker
p235
aVProp, Hooker, Lock, Flanker
p236
aVWing
p237
aVProp, Lock
p238
aVProp, Lock
p239
aVScrum-half
p240
aVLock, Prop
p241
aVCentre
p242
aVFly-half
p243
aVNo. 8
p244
aVBack-row
p245
aVWing
p246
aVLock
p247
aVLock, Flanker
p248
aVFly-half
p249
aVWing
p250
aVWing
p251
aVProp, Hooker
p252
aVHooker, Flanker
p253
aVProp, Lock
p254
aVWing
p255
aVWing
p256
aVProp, Hooker
p257
aVWing
p258
aVFlanker, No. 8, Lock
p259
aVHooker
p260
aVLock, Prop
p261
aVFullback, Centre
p262
aVFly-half
p263
aVProp
p264
aVHalfback, Scrum-half
p265
aVProp, Hooker
p266
aVCentre
p267
aVLock
p268
aVCentre
p269
aVProp
p270
aVWing
p271
aVHooker
p272
aVFlanker
p273
aVFullback
p274
aVFly-half
p275
aVWing, Fullback
p276
aVFlanker
p277
aVCentre
p278
aVBack-row
p279
aVBack-row
p280
aVWing
p281
aVProp, Lock
p282
aVProp, Hooker
p283
aVHooker
p284
aVHooker
p285
aVFly-half
p286
aVProp
p287
aVWing
p288
aVFlanker
p289
aVWing
p290
aVCentre, Fly-half
p291
aVWing
p292
aVNo. 8
p293
aVScrum-half, Flanker
p294
aVFlanker
p295
aVScrum-half
p296
aVWing, Centre
p297
aVLock
p298
aVFlanker
p299
aVWing
p300
aVProp
p301
aVWing
p302
aVProp, Lock
p303
aVLock
p304
aVFly-half
p305
aVHooker, Flanker
p306
aVScrum-half, Flanker
p307
aVCentre
p308
aVHooker
p309
aVCentre, Fly-half
p310
aVWing
p311
aVFullback
p312
aVLock
p313
aVProp
p314
aVFly-half
p315
aVFullback
p316
aVFullback
p317
aVLock
p318
aVCentre
p319
aVLock
p320
aVWing
p321
aVFly-half
p322
aVFlanker
p323
aVNo. 8
p324
aVFlanker
p325
aVWing
p326
aVProp
p327
aVWing
p328
aVLock, Prop
p329
aVCentre
p330
aVFly-half, Scrum-half
p331
aVFlanker
p332
aVNo. 8
p333
aVLock
p334
aVFlanker
p335
aVProp
p336
aVHooker
p337
aVScrum-half
p338
aVWing
p339
aVLock
p340
aVWing, Centre
p341
aVScrum-half
p342
aVCentre
p343
aVWing
p344
aVHooker
p345
aVCentre
p346
aVLock, Prop
p347
aVFullback
p348
aVLock
p349
aVFlanker
p350
aVLock, Prop
p351
aVNo. 8
p352
aVLock
p353
aVFullback, Fly-half
p354
aVWing
p355
aVScrum-half
p356
aVFullback
p357
aVHooker
p358
aVBack-row
p359
aVCentre, Wing
p360
aVFlanker
p361
aVWing
p362
aVCentre, Fly-half
p363
aVHooker
p364
aVWing
p365
aVProp, Lock
p366
aVFullback, Centre
p367
aVWing
p368
aVHooker
p369
aVProp
p370
aVScrum-half
p371
aVWing
p372
aVHooker
p373
aVWing
p374
aVFly-half, Centre
p375
aVCentre, Fly-half
p376
aVWing
p377
aVProp, Lock
p378
aVWing
p379
aVFullback
p380
aVFly-half
p381
aVCentre
p382
aVNo. 8
p383
aVFullback
p384
aVProp, Flanker
p385
aVLock
p386
aVProp
p387
aVCentre, Fly-half
p388
aVProp
p389
aVCentre
p390
aVFlanker
p391
aVCentre, Scrum-half, Halfback
p392
aVHooker
p393
aVFullback, Wing, Centre
p394
aVWing
p395
aVFly-half
p396
aVProp
p397
aVFly-half
p398
aVLock
p399
aVLock
p400
aVWing
p401
aVCentre
p402
aVProp
p403
aVWing
p404
aVFullback
p405
aVFlanker
p406
aVProp, Lock
p407
aVLock
p408
aVFly-half
p409
aVHooker
p410
aVScrum-half, Fullback
p411
aVFullback, Centre, Fly-half
p412
aVLock
p413
aVFly-half
p414
aVWing
p415
aVFullback
p416
aVCentre
p417
aVFly-half
p418
aVWing, Centre
p419
aVProp, Lock
p420
aVFullback
p421
aVLock, No. 8
p422
aVHooker
p423
aVProp
p424
aVBack-row
p425
aVFly-half
p426
aVFly-half
p427
aVFlanker
p428
aVCentre
p429
aVFullback
p430
aVScrum-half
p431
aVCentre
p432
aVBack-row
p433
aVCentre, Fly-half
p434
aVCentre, Wing
p435
aVFullback
p436
aVProp, No. 8
p437
aVFullback, Fly-half
p438
aVHooker
p439
aVProp
p440
aVFlanker
p441
aVWing
p442
aVWing, Centre
p443
aVFlanker, No. 8, Lock
p444
aVFly-half
p445
aVLock
p446
aVScrum-half
p447
aVFlanker
p448
aVFullback, Centre
p449
aVLock, No. 8, Prop
p450
aVWing
p451
aVWing
p452
aVWing
p453
aVHooker
p454
aVProp, No. 8
p455
aVFlanker
p456
aVWing, Centre
p457
aVLock
p458
aVWing, Centre
p459
aVWing
p460
aVHooker
p461
aVScrum-half
p462
aVScrum-half
p463
aVLock, Flanker
p464
aVCentre
p465
aVWing
p466
aVLock
p467
aVLock
p468
aVFlanker
p469
aVWing
p470
aVBack-row
p471
aVLock
p472
aVCentre, Fly-half
p473
aVProp, Flanker
p474
aVScrum-half
p475
aVProp
p476
aVWing
p477
aVCentre
p478
aVLock
p479
aVFullback
p480
aVFullback, Centre
p481
aVFly-half
p482
aVWing
p483
aVHooker
p484
aVBack-row
p485
aVCentre
p486
aVLock
p487
aVProp, Lock
p488
aVProp
p489
aVFullback
p490
aVCentre
p491
aVWing
p492
aVNo. 8
p493
aVHooker
p494
aVLock, Flanker
p495
aVFullback, Wing, Centre, Fly-half
p496
aVProp, Lock
p497
aVScrum-half
p498
aVCentre, Fullback, Wing
p499
aVProp
p500
aVHooker
p501
aVFullback
p502
aVNo. 8
p503
aVCentre, Wing
p504
aVFly-half
p505
aVLock
p506
aVWing, Fly-half
p507
aVLock
p508
aVFlanker
p509
aVFlanker
p510
aVBack-row
p511
aVWing, Scrum-half
p512
aVWing
p513
aVLock, Flanker, No. 8
p514
aVProp
p515
aVFullback, Centre
p516
aVWing
p517
aVNo. 8
p518
aVProp
p519
aVFullback
p520
aVHooker
p521
aVNo. 8, Lock
p522
aVScrum-half, Halfback
p523
aVLock
p524
aVProp
p525
aVProp
p526
aVHooker
p527
aVBack-row
p528
aVFlanker
p529
aVProp
p530
aVLock, No. 8
p531
aVProp
p532
aVFly-half
p533
aVProp
p534
aVHooker
p535
aVFlanker
p536
aVHooker
p537
aVWing, Centre
p538
aVCentre, Fly-half
p539
aVNo. 8, Lock, Flanker
p540
aVScrum-half
p541
aVWing
p542
aVProp
p543
aVLock
p544
aVFly-half
p545
aVWing
p546
aVCentre
p547
aVCentre, Fly-half
p548
aVFlanker
p549
aVCentre
p550
aVFlanker
p551
aVCentre
p552
aVWing, Centre
p553
aVProp, Lock
p554
aVFly-half, Fullback
p555
aVProp
p556
aVFlanker, Wing
p557
aVFullback, Fly-half
p558
aVProp, Lock, No. 8
p559
aVHooker
p560
aVLock
p561
aVScrum-half
p562
aVWing
p563
aVCentre
p564
aVWing, Fullback
p565
aVWing
p566
aVWing
p567
aVScrum-half
p568
aVWing
p569
aVProp
p570
aVHooker, Flanker
p571
aVBack-row
p572
aVHooker
p573
aVProp
p574
aVWing
p575
aVFullback, Fly-half
p576
aVLock, Flanker
p577
aVFly-half, Scrum-half
p578
aVBack-row
p579
aVFlanker
p580
aVFullback
p581
aVFlanker
p582
aVFly-half
p583
aVCentre
p584
aVWing
p585
aVFlanker
p586
aVFlanker
p587
aVWing
p588
aVHooker
p589
aVProp
p590
aVHooker
p591
aVCentre, Flanker
p592
aVLock, No. 8
p593
aVWing
p594
aVFlanker
p595
aVCentre
p596
aVLock
p597
aVWing, Fullback
p598
aVScrum-half
p599
aVScrum-half
p600
aVFlanker
p601
aVProp
p602
aVWing, Centre
p603
aVLock, No. 8
p604
aVLock, Flanker, No. 8
p605
aVFlanker
p606
aVFullback, Scrum-half
p607
aVFlanker
p608
aVNo. 8
p609
aVWing
p610
aVProp
p611
aVProp
p612
aVScrum-half
p613
aVBack-row
p614
aVProp
p615
aVScrum-half
p616
aVFly-half
p617
aVHooker
p618
aVLock, Prop
p619
aVFullback, Wing
p620
aVFly-half
p621
aVProp
p622
aVCentre
p623
aVWing
p624
aVCentre
p625
aVProp, Hooker
p626
aVLock
p627
aVWing
p628
aVProp, Hooker
p629
aVFlanker
p630
aVCentre, Wing
p631
aVWing
p632
aVLock
p633
aVHooker, Prop
p634
aVLock
p635
aVWing
p636
aVCentre
p637
aVFullback
p638
aVProp, Lock
p639
aVLock, No. 8
p640
aVFlanker
p641
aVWing
p642
aVHooker
p643
aVCentre
p644
aVHooker
p645
aVWing
p646
aVLock
p647
aVProp
p648
aVFlanker
p649
aVUtility back
p650
aVBack-row
p651
aVLock
p652
aVFullback
p653
aVCentre
p654
aVLock
p655
aVWing
p656
aVBack-row
p657
aVWing
p658
aVFlanker
p659
aVCentre
p660
aVProp
p661
aVScrum-half
p662
aVFullback, Fly-half
p663
aVWing
p664
aVWing, Fly-half
p665
aVNo. 8
p666
aVCentre, Scrum-half
p667
aVLock, No. 8
p668
aVWing
p669
aVFly-half
p670
aVNo. 8
p671
aVLock
p672
aVBack-row
p673
aVCentre
p674
aVProp
p675
aVHooker
p676
aVCentre
p677
aVProp, Lock, No. 8
p678
aVProp, Hooker
p679
aVNo. 8
p680
aVLock, No. 8
p681
aVLock
p682
aVFullback
p683
aVFly-half
p684
aVWing, Fullback
p685
aVScrum-half
p686
aVFlanker
p687
aVFullback, Wing, Centre
p688
aVProp, Lock
p689
aVFlanker
p690
aVProp
p691
aVFlanker
p692
aVScrum-half
p693
aVLock
p694
aVFly-half
p695
aVBack-row
p696
aVWing
p697
aVLock
p698
aVBack-row
p699
aVScrum-half
p700
aVFly-half, Fullback
p701
aVFly-half
p702
aVScrum-half
p703
aVCentre
p704
aVFullback, Wing, Fly-half
p705
aVCentre
p706
aVLock
p707
aVWing
p708
aVWing, Centre
p709
aVFlanker
p710
aVLock, No. 8
p711
aVWing
p712
aVFly-half
p713
aVHooker
p714
aVHooker
p715
aVProp
p716
aVWing, Fullback
p717
aVWing
p718
aVProp
p719
aVFlanker
p720
aVCentre, Wing
p721
aVWing
p722
aVFlanker
p723
aVProp
p724
aVNo. 8, Lock
p725
aVHooker, Prop
p726
aVWing, Centre
p727
aVFullback
p728
aVWing, Centre
p729
aVProp
p730
aVLock
p731
aVFullback, Wing
p732
aVBack-row
p733
aVCentre, Fly-half
p734
aVProp, Hooker
p735
aVProp
p736
aVScrum-half
p737
aVProp
p738
aVFlanker
p739
aVNo. 8
p740
aVScrum-half
p741
aVLock
p742
aVScrum-half
p743
aVHooker, No. 8
p744
aVLock
p745
aVHooker
p746
aVHooker
p747
aVFly-half
p748
aVLock, Flanker, No. 8
p749
aVFlanker
p750
aVWing
p751
aVProp, Lock
p752
aVProp
p753
aVWing
p754
aVFly-half
p755
aVWing
p756
aVFlanker
p757
aVFlanker
p758
aVProp
p759
aVCentre
p760
aVWing
p761
aVLock
p762
aVNo. 8
p763
aVProp
p764
aVFlanker
p765
aVScrum-half
p766
aVWing
p767
aVLock
p768
aVFlanker
p769
aVProp
p770
aVLock
p771
aVLock
p772
aVFlanker
p773
aVScrum-half
p774
aVProp
p775
aVHooker
p776
aVProp
p777
aVFlanker
p778
aVFullback
p779
aVLock
p780
aVFly-half
p781
aVFullback
p782
aVNo. 8
p783
aVFullback, Fly-half
p784
aVHooker
p785
aVFly-half
p786
aVCentre
p787
aVFullback
p788
aVHooker
p789
aVCentre
p790
aVWing
p791
aVFly-half
p792
aVProp
p793
aVCentre
p794
aVLock
p795
aVProp
p796
aVLock
p797
aVCentre
p798
aVFlanker
p799
aVWing
p800
aVProp
p801
aVWing
p802
aVLock
p803
aVFly-half
p804
aVScrum-half
p805
aVScrum-half
p806
aVProp
p807
aVFlanker
p808
aVHooker
p809
aVBack-row
p810
aVCentre
p811
aVFlanker
p812
aVProp
p813
aVCentre
p814
aVHooker
p815
aVScrum-half
p816
aVFullback, Fly-half
p817
aVCentre
p818
aVNo. 8
p819
aVLock, No. 8
p820
aVProp
p821
aVCentre
p822
aVFlanker
p823
aVNo. 8
p824
aVHooker
p825
aVHooker
p826
aVBack-row
p827
aVLock
p828
aVFlanker
p829
aVWing
p830
aVProp
p831
aVNo. 8
p832
aVCentre
p833
aVCentre, Fly-half
p834
aVWing
p835
aVProp
p836
aVFly-half
p837
aVFlanker
p838
aVProp
p839
aVFullback
p840
aVWing
p841
aVFlanker
p842
aVCentre
p843
aVScrum-half
p844
aVProp
p845
aVScrum-half
p846
aVFlanker
p847
aVProp
p848
aVFullback, Wing
p849
aVScrum-half
p850
aVWing, Fullback
p851
aVLock
p852
aVCentre
p853
aVCentre
p854
aVCentre
p855
aVFullback
p856
aVProp
p857
aVWing
p858
aVWing, Centre
p859
aVProp
p860
aVBack-row
p861
aVCentre
p862
aVLock
p863
aVBack-row
p864
aVScrum-half
p865
aVFlanker
p866
aVCentre
p867
aVBack-row
p868
aVWing, Fullback
p869
aVFly-half
p870
aVCentre
p871
aVFlanker
p872
aVLock
p873
aVScrum-half
p874
aVProp
p875
aVCentre
p876
aVLock
p877
aVNo. 8
p878
aVLock
p879
aVFly-half, Scrum-half
p880
aVWing
p881
aVLock
p882
aVFullback
p883
aVBack-row
p884
aVUtility back
p885
aVProp
p886
aVLock
p887
aVLock
p888
aVFullback
p889
aVCentre
p890
aVProp
p891
aVProp
p892
aVHooker
p893
aVWing
p894
aVCentre, Fullback
p895
aVFlanker
p896
aVCentre
p897
aVWing
p898
aVBack-row
p899
aVNo. 8
p900
aVFlanker
p901
aVFullback
p902
aVFly-half
p903
aVFly-half
p904
aVCentre
p905
aVNo. 8
p906
aVFullback
p907
aVLock
p908
aVCentre
p909
aVCentre
p910
aVFly-half
p911
aVHooker
p912
aVHooker, Prop
p913
aVLock
p914
aVScrum-half
p915
aVNo. 8
p916
aVHooker
p917
aVLock
p918
aVLock
p919
aVProp
p920
aVWing
p921
aVHooker
p922
aVScrum-half
p923
aVLock
p924
aVProp
p925
aVCentre
p926
aVLock
p927
aVHooker
p928
aVFly-half
p929
aVFlanker
p930
aVScrum-half
p931
aVLock
p932
aVBack-row
p933
aVFullback
p934
aVCentre, Wing
p935
aVBack-row
p936
aVFlanker
p937
aVWing
p938
aVFlanker
p939
aVScrum-half
p940
aVHooker
p941
aVBack-row
p942
aVCentre
p943
aVFullback
p944
aVCentre
p945
aVCentre
p946
aVWing
p947
aVCentre
p948
aVLock
p949
aVProp
p950
aVCentre
p951
aVFly-half
p952
aVProp
p953
aVBack-row
p954
aVProp
p955
aVLock
p956
aVFly-half
p957
aVHooker
p958
aVWing
p959
aVScrum-half
p960
aVBack-row
p961
aVCentre
p962
aVLock
p963
aVFullback
p964
aVNo. 8
p965
aVScrum-half
p966
aVFly-half
p967
aVProp
p968
aVLock
p969
aVCentre
p970
aVProp
p971
aVFlanker
p972
aVProp
p973
aVProp
p974
aVWing
p975
aVFly-half
p976
aVLock
p977
aVScrum-half
p978
aVNo. 8
p979
aVFullback
p980
aVProp
p981
aVCentre
p982
aVFlanker
p983
aVHooker
p984
aVScrum-half
p985
aVProp
p986
aVWing
p987
aVProp
p988
aVCentre
p989
aVHooker
p990
aVCentre
p991
aVBack-row
p992
aVScrum-half
p993
aVProp
p994
aVCentre
p995
aVFlanker
p996
aVFullback
p997
aVWing
p998
aVCentre
p999
aVProp
p1000
aVScrum-half
p1001
aVFlanker
p1002
aVWing
p1003
aVWing
p1004
aVFlanker
p1005
aVProp
p1006
aVWing
p1007
aVFlanker
p1008
aVFullback
p1009
aVCentre
p1010
aVProp
p1011
aVHooker
p1012
aVWing
p1013
aVNo. 8
p1014
aVScrum-half
p1015
aVCentre
p1016
aVLock
p1017
aVFullback
p1018
aVFullback
p1019
aVProp
p1020
aVLock
p1021
aVHooker
p1022
aVScrum-half
p1023
aVLock
p1024
aVProp
p1025
aVLock
p1026
aVLock
p1027
aVNo. 8
p1028
aVCentre
p1029
aVFly-half
p1030
aVWing
p1031
aVLock
p1032
aVProp
p1033
aVFlanker
p1034
aVFly-half
p1035
aVProp
p1036
aVProp
p1037
aVFullback
p1038
aVScrum-half
p1039
aVFly-half
p1040
aVFlanker
p1041
aVFullback
p1042
aVHooker
p1043
aVCentre
p1044
aVCentre
p1045
aVProp
p1046
aVCentre
p1047
aVFullback
p1048
aVWing
p1049
aVProp
p1050
aVProp
p1051
aVScrum-half
p1052
aVFlanker
p1053
aVNo. 8
p1054
aVWing
p1055
aVWing
p1056
aVScrum-half
p1057
aVCentre
p1058
aVLock
p1059
aVWing
p1060
aVBack-row
p1061
aVProp
p1062
aVHooker
p1063
aVFullback
p1064
aVProp
p1065
a.