(lp1
S'http://www.espnscrum.com/other/rugby/player/3936.html'
p2
aS'http://www.espnscrum.com/other/rugby/player/3937.html'
p3
aS'http://www.espnscrum.com/other/rugby/player/3938.html'
p4
aS'http://www.espnscrum.com/other/rugby/player/3939.html'
p5
aS'http://www.espnscrum.com/other/rugby/player/3941.html'
p6
aS'http://www.espnscrum.com/other/rugby/player/3946.html'
p7
aS'http://www.espnscrum.com/other/rugby/player/3947.html'
p8
aS'http://www.espnscrum.com/other/rugby/player/3948.html'
p9
aS'http://www.espnscrum.com/other/rugby/player/3953.html'
p10
aS'http://www.espnscrum.com/other/rugby/player/3954.html'
p11
aS'http://www.espnscrum.com/other/rugby/player/3955.html'
p12
aS'http://www.espnscrum.com/other/rugby/player/3956.html'
p13
aS'http://www.espnscrum.com/other/rugby/player/3957.html'
p14
aS'http://www.espnscrum.com/other/rugby/player/3959.html'
p15
aS'http://www.espnscrum.com/other/rugby/player/3960.html'
p16
aS'http://www.espnscrum.com/other/rugby/player/3962.html'
p17
aS'http://www.espnscrum.com/other/rugby/player/3963.html'
p18
aS'http://www.espnscrum.com/other/rugby/player/3964.html'
p19
aS'http://www.espnscrum.com/other/rugby/player/3966.html'
p20
aS'http://www.espnscrum.com/other/rugby/player/6726.html'
p21
aS'http://www.espnscrum.com/other/rugby/player/6727.html'
p22
aS'http://www.espnscrum.com/other/rugby/player/6728.html'
p23
aS'http://www.espnscrum.com/other/rugby/player/6729.html'
p24
aS'http://www.espnscrum.com/other/rugby/player/6733.html'
p25
aS'http://www.espnscrum.com/other/rugby/player/6734.html'
p26
aS'http://www.espnscrum.com/other/rugby/player/6737.html'
p27
aS'http://www.espnscrum.com/other/rugby/player/6738.html'
p28
aS'http://www.espnscrum.com/other/rugby/player/6739.html'
p29
aS'http://www.espnscrum.com/other/rugby/player/6740.html'
p30
aS'http://www.espnscrum.com/other/rugby/player/6742.html'
p31
aS'http://www.espnscrum.com/other/rugby/player/6743.html'
p32
aS'http://www.espnscrum.com/other/rugby/player/6744.html'
p33
aS'http://www.espnscrum.com/other/rugby/player/6745.html'
p34
aS'http://www.espnscrum.com/other/rugby/player/6747.html'
p35
aS'http://www.espnscrum.com/other/rugby/player/6748.html'
p36
aS'http://www.espnscrum.com/other/rugby/player/6749.html'
p37
aS'http://www.espnscrum.com/other/rugby/player/6750.html'
p38
aS'http://www.espnscrum.com/other/rugby/player/6751.html'
p39
aS'http://www.espnscrum.com/other/rugby/player/6752.html'
p40
aS'http://www.espnscrum.com/other/rugby/player/7121.html'
p41
aS'http://www.espnscrum.com/other/rugby/player/7122.html'
p42
aS'http://www.espnscrum.com/other/rugby/player/7123.html'
p43
aS'http://www.espnscrum.com/other/rugby/player/7124.html'
p44
aS'http://www.espnscrum.com/other/rugby/player/7125.html'
p45
aS'http://www.espnscrum.com/other/rugby/player/7126.html'
p46
aS'http://www.espnscrum.com/other/rugby/player/7127.html'
p47
aS'http://www.espnscrum.com/other/rugby/player/7128.html'
p48
aS'http://www.espnscrum.com/other/rugby/player/7129.html'
p49
aS'http://www.espnscrum.com/other/rugby/player/7130.html'
p50
aS'http://www.espnscrum.com/other/rugby/player/7131.html'
p51
aS'http://www.espnscrum.com/other/rugby/player/7132.html'
p52
aS'http://www.espnscrum.com/other/rugby/player/7133.html'
p53
aS'http://www.espnscrum.com/other/rugby/player/7301.html'
p54
aS'http://www.espnscrum.com/other/rugby/player/7302.html'
p55
aS'http://www.espnscrum.com/other/rugby/player/7304.html'
p56
aS'http://www.espnscrum.com/other/rugby/player/7305.html'
p57
aS'http://www.espnscrum.com/other/rugby/player/7306.html'
p58
aS'http://www.espnscrum.com/other/rugby/player/7307.html'
p59
aS'http://www.espnscrum.com/other/rugby/player/7308.html'
p60
aS'http://www.espnscrum.com/other/rugby/player/7311.html'
p61
aS'http://www.espnscrum.com/other/rugby/player/7312.html'
p62
aS'http://www.espnscrum.com/other/rugby/player/7687.html'
p63
aS'http://www.espnscrum.com/other/rugby/player/7688.html'
p64
aS'http://www.espnscrum.com/other/rugby/player/7689.html'
p65
aS'http://www.espnscrum.com/other/rugby/player/7690.html'
p66
aS'http://www.espnscrum.com/other/rugby/player/7693.html'
p67
aS'http://www.espnscrum.com/other/rugby/player/7694.html'
p68
aS'http://www.espnscrum.com/other/rugby/player/7695.html'
p69
aS'http://www.espnscrum.com/other/rugby/player/7696.html'
p70
aS'http://www.espnscrum.com/other/rugby/player/7697.html'
p71
aS'http://www.espnscrum.com/other/rugby/player/7830.html'
p72
aS'http://www.espnscrum.com/other/rugby/player/7831.html'
p73
aS'http://www.espnscrum.com/other/rugby/player/7832.html'
p74
aS'http://www.espnscrum.com/other/rugby/player/7834.html'
p75
aS'http://www.espnscrum.com/other/rugby/player/7835.html'
p76
aS'http://www.espnscrum.com/other/rugby/player/7836.html'
p77
aS'http://www.espnscrum.com/other/rugby/player/7837.html'
p78
aS'http://www.espnscrum.com/other/rugby/player/7838.html'
p79
aS'http://www.espnscrum.com/other/rugby/player/8066.html'
p80
aS'http://www.espnscrum.com/other/rugby/player/8067.html'
p81
aS'http://www.espnscrum.com/other/rugby/player/8068.html'
p82
aS'http://www.espnscrum.com/other/rugby/player/8069.html'
p83
aS'http://www.espnscrum.com/other/rugby/player/8070.html'
p84
aS'http://www.espnscrum.com/other/rugby/player/8071.html'
p85
aS'http://www.espnscrum.com/other/rugby/player/8072.html'
p86
aS'http://www.espnscrum.com/other/rugby/player/8073.html'
p87
aS'http://www.espnscrum.com/other/rugby/player/8074.html'
p88
aS'http://www.espnscrum.com/other/rugby/player/8075.html'
p89
aS'http://www.espnscrum.com/other/rugby/player/8076.html'
p90
aS'http://www.espnscrum.com/other/rugby/player/8079.html'
p91
aS'http://www.espnscrum.com/other/rugby/player/8077.html'
p92
aS'http://www.espnscrum.com/other/rugby/player/8311.html'
p93
aS'http://www.espnscrum.com/other/rugby/player/8313.html'
p94
aS'http://www.espnscrum.com/other/rugby/player/8314.html'
p95
aS'http://www.espnscrum.com/other/rugby/player/8315.html'
p96
aS'http://www.espnscrum.com/other/rugby/player/8316.html'
p97
aS'http://www.espnscrum.com/other/rugby/player/8317.html'
p98
aS'http://www.espnscrum.com/other/rugby/player/8318.html'
p99
aS'http://www.espnscrum.com/other/rugby/player/8319.html'
p100
aS'http://www.espnscrum.com/other/rugby/player/8320.html'
p101
aS'http://www.espnscrum.com/other/rugby/player/8321.html'
p102
aS'http://www.espnscrum.com/other/rugby/player/8322.html'
p103
aS'http://www.espnscrum.com/other/rugby/player/8542.html'
p104
aS'http://www.espnscrum.com/other/rugby/player/8545.html'
p105
aS'http://www.espnscrum.com/other/rugby/player/8550.html'
p106
aS'http://www.espnscrum.com/other/rugby/player/8554.html'
p107
aS'http://www.espnscrum.com/other/rugby/player/8556.html'
p108
aS'http://www.espnscrum.com/other/rugby/player/8563.html'
p109
aS'http://www.espnscrum.com/other/rugby/player/8564.html'
p110
aS'http://www.espnscrum.com/other/rugby/player/8702.html'
p111
aS'http://www.espnscrum.com/other/rugby/player/8704.html'
p112
aS'http://www.espnscrum.com/other/rugby/player/8705.html'
p113
aS'http://www.espnscrum.com/other/rugby/player/8706.html'
p114
aS'http://www.espnscrum.com/other/rugby/player/8707.html'
p115
aS'http://www.espnscrum.com/other/rugby/player/8708.html'
p116
aS'http://www.espnscrum.com/other/rugby/player/8716.html'
p117
aS'http://www.espnscrum.com/other/rugby/player/8718.html'
p118
aS'http://www.espnscrum.com/other/rugby/player/8721.html'
p119
aS'http://www.espnscrum.com/other/rugby/player/8720.html'
p120
aS'http://www.espnscrum.com/other/rugby/player/8724.html'
p121
aS'http://www.espnscrum.com/other/rugby/player/8844.html'
p122
aS'http://www.espnscrum.com/other/rugby/player/8845.html'
p123
aS'http://www.espnscrum.com/other/rugby/player/8875.html'
p124
aS'http://www.espnscrum.com/other/rugby/player/8876.html'
p125
aS'http://www.espnscrum.com/other/rugby/player/8877.html'
p126
aS'http://www.espnscrum.com/other/rugby/player/8878.html'
p127
aS'http://www.espnscrum.com/other/rugby/player/8879.html'
p128
aS'http://www.espnscrum.com/other/rugby/player/8874.html'
p129
aS'http://www.espnscrum.com/other/rugby/player/8880.html'
p130
aS'http://www.espnscrum.com/other/rugby/player/8986.html'
p131
aS'http://www.espnscrum.com/other/rugby/player/8994.html'
p132
aS'http://www.espnscrum.com/other/rugby/player/9050.html'
p133
aS'http://www.espnscrum.com/other/rugby/player/9052.html'
p134
aS'http://www.espnscrum.com/other/rugby/player/9175.html'
p135
aS'http://www.espnscrum.com/other/rugby/player/9177.html'
p136
aS'http://www.espnscrum.com/other/rugby/player/9200.html'
p137
aS'http://www.espnscrum.com/other/rugby/player/9201.html'
p138
aS'http://www.espnscrum.com/other/rugby/player/9273.html'
p139
aS'http://www.espnscrum.com/other/rugby/player/9373.html'
p140
aS'http://www.espnscrum.com/other/rugby/player/9374.html'
p141
aS'http://www.espnscrum.com/other/rugby/player/9375.html'
p142
aS'http://www.espnscrum.com/other/rugby/player/8373.html'
p143
aS'http://www.espnscrum.com/other/rugby/player/9377.html'
p144
aS'http://www.espnscrum.com/other/rugby/player/9441.html'
p145
aS'http://www.espnscrum.com/other/rugby/player/9443.html'
p146
aS'http://www.espnscrum.com/other/rugby/player/9445.html'
p147
aS'http://www.espnscrum.com/other/rugby/player/9448.html'
p148
aS'http://www.espnscrum.com/other/rugby/player/9440.html'
p149
aS'http://www.espnscrum.com/other/rugby/player/9444.html'
p150
aS'http://www.espnscrum.com/other/rugby/player/9582.html'
p151
aS'http://www.espnscrum.com/other/rugby/player/9585.html'
p152
aS'http://www.espnscrum.com/other/rugby/player/9586.html'
p153
aS'http://www.espnscrum.com/other/rugby/player/9603.html'
p154
aS'http://www.espnscrum.com/other/rugby/player/9673.html'
p155
aS'http://www.espnscrum.com/other/rugby/player/9674.html'
p156
aS'http://www.espnscrum.com/other/rugby/player/9675.html'
p157
aS'http://www.espnscrum.com/other/rugby/player/9676.html'
p158
aS'http://www.espnscrum.com/other/rugby/player/9677.html'
p159
aS'http://www.espnscrum.com/other/rugby/player/9679.html'
p160
aS'http://www.espnscrum.com/other/rugby/player/9680.html'
p161
aS'http://www.espnscrum.com/other/rugby/player/9681.html'
p162
aS'http://www.espnscrum.com/other/rugby/player/9760.html'
p163
aS'http://www.espnscrum.com/other/rugby/player/9765.html'
p164
aS'http://www.espnscrum.com/other/rugby/player/9766.html'
p165
aS'http://www.espnscrum.com/other/rugby/player/9772.html'
p166
aS'http://www.espnscrum.com/other/rugby/player/9774.html'
p167
aS'http://www.espnscrum.com/other/rugby/player/9920.html'
p168
aS'http://www.espnscrum.com/other/rugby/player/9921.html'
p169
aS'http://www.espnscrum.com/other/rugby/player/9922.html'
p170
aS'http://www.espnscrum.com/other/rugby/player/9923.html'
p171
aS'http://www.espnscrum.com/other/rugby/player/9926.html'
p172
aS'http://www.espnscrum.com/other/rugby/player/9927.html'
p173
aS'http://www.espnscrum.com/other/rugby/player/9928.html'
p174
aS'http://www.espnscrum.com/other/rugby/player/9929.html'
p175
aS'http://www.espnscrum.com/other/rugby/player/9447.html'
p176
aS'http://www.espnscrum.com/other/rugby/player/9935.html'
p177
aS'http://www.espnscrum.com/other/rugby/player/9974.html'
p178
aS'http://www.espnscrum.com/other/rugby/player/9975.html'
p179
aS'http://www.espnscrum.com/other/rugby/player/9976.html'
p180
aS'http://www.espnscrum.com/other/rugby/player/9978.html'
p181
aS'http://www.espnscrum.com/other/rugby/player/10045.html'
p182
aS'http://www.espnscrum.com/other/rugby/player/10046.html'
p183
aS'http://www.espnscrum.com/other/rugby/player/10047.html'
p184
aS'http://www.espnscrum.com/other/rugby/player/10132.html'
p185
aS'http://www.espnscrum.com/other/rugby/player/10137.html'
p186
aS'http://www.espnscrum.com/other/rugby/player/10138.html'
p187
aS'http://www.espnscrum.com/other/rugby/player/10130.html'
p188
aS'http://www.espnscrum.com/other/rugby/player/10131.html'
p189
aS'http://www.espnscrum.com/other/rugby/player/10323.html'
p190
aS'http://www.espnscrum.com/other/rugby/player/10324.html'
p191
aS'http://www.espnscrum.com/other/rugby/player/10326.html'
p192
aS'http://www.espnscrum.com/other/rugby/player/10397.html'
p193
aS'http://www.espnscrum.com/other/rugby/player/10398.html'
p194
aS'http://www.espnscrum.com/other/rugby/player/10400.html'
p195
aS'http://www.espnscrum.com/other/rugby/player/10401.html'
p196
aS'http://www.espnscrum.com/other/rugby/player/10408.html'
p197
aS'http://www.espnscrum.com/other/rugby/player/10604.html'
p198
aS'http://www.espnscrum.com/other/rugby/player/10606.html'
p199
aS'http://www.espnscrum.com/other/rugby/player/10609.html'
p200
aS'http://www.espnscrum.com/other/rugby/player/10610.html'
p201
aS'http://www.espnscrum.com/other/rugby/player/10634.html'
p202
aS'http://www.espnscrum.com/other/rugby/player/10734.html'
p203
aS'http://www.espnscrum.com/other/rugby/player/10867.html'
p204
aS'http://www.espnscrum.com/other/rugby/player/10981.html'
p205
aS'http://www.espnscrum.com/other/rugby/player/10991.html'
p206
aS'http://www.espnscrum.com/other/rugby/player/10989.html'
p207
aS'http://www.espnscrum.com/other/rugby/player/11215.html'
p208
aS'http://www.espnscrum.com/other/rugby/player/11216.html'
p209
aS'http://www.espnscrum.com/other/rugby/player/11324.html'
p210
aS'http://www.espnscrum.com/other/rugby/player/11331.html'
p211
aS'http://www.espnscrum.com/other/rugby/player/11332.html'
p212
aS'http://www.espnscrum.com/other/rugby/player/11485.html'
p213
aS'http://www.espnscrum.com/other/rugby/player/11495.html'
p214
aS'http://www.espnscrum.com/other/rugby/player/11532.html'
p215
aS'http://www.espnscrum.com/other/rugby/player/11611.html'
p216
aS'http://www.espnscrum.com/other/rugby/player/11612.html'
p217
aS'http://www.espnscrum.com/other/rugby/player/11665.html'
p218
aS'http://www.espnscrum.com/other/rugby/player/11662.html'
p219
aS'http://www.espnscrum.com/other/rugby/player/11762.html'
p220
aS'http://www.espnscrum.com/other/rugby/player/11763.html'
p221
aS'http://www.espnscrum.com/other/rugby/player/11923.html'
p222
aS'http://www.espnscrum.com/other/rugby/player/11938.html'
p223
aS'http://www.espnscrum.com/other/rugby/player/11960.html'
p224
aS'http://www.espnscrum.com/other/rugby/player/11962.html'
p225
aS'http://www.espnscrum.com/other/rugby/player/11963.html'
p226
aS'http://www.espnscrum.com/other/rugby/player/11964.html'
p227
aS'http://www.espnscrum.com/other/rugby/player/11965.html'
p228
aS'http://www.espnscrum.com/other/rugby/player/11966.html'
p229
aS'http://www.espnscrum.com/other/rugby/player/11967.html'
p230
aS'http://www.espnscrum.com/other/rugby/player/11999.html'
p231
aS'http://www.espnscrum.com/other/rugby/player/12048.html'
p232
aS'http://www.espnscrum.com/other/rugby/player/12083.html'
p233
aS'http://www.espnscrum.com/other/rugby/player/12077.html'
p234
aS'http://www.espnscrum.com/other/rugby/player/12213.html'
p235
aS'http://www.espnscrum.com/other/rugby/player/12226.html'
p236
aS'http://www.espnscrum.com/other/rugby/player/12228.html'
p237
aS'http://www.espnscrum.com/other/rugby/player/12229.html'
p238
aS'http://www.espnscrum.com/other/rugby/player/12249.html'
p239
aS'http://www.espnscrum.com/other/rugby/player/12282.html'
p240
aS'http://www.espnscrum.com/other/rugby/player/12286.html'
p241
aS'http://www.espnscrum.com/other/rugby/player/12320.html'
p242
aS'http://www.espnscrum.com/other/rugby/player/12323.html'
p243
aS'http://www.espnscrum.com/other/rugby/player/12324.html'
p244
aS'http://www.espnscrum.com/other/rugby/player/12326.html'
p245
aS'http://www.espnscrum.com/other/rugby/player/12266.html'
p246
aS'http://www.espnscrum.com/other/rugby/player/12330.html'
p247
aS'http://www.espnscrum.com/other/rugby/player/12327.html'
p248
aS'http://www.espnscrum.com/other/rugby/player/12337.html'
p249
aS'http://www.espnscrum.com/other/rugby/player/12489.html'
p250
aS'http://www.espnscrum.com/other/rugby/player/12497.html'
p251
aS'http://www.espnscrum.com/other/rugby/player/12500.html'
p252
aS'http://www.espnscrum.com/other/rugby/player/12498.html'
p253
aS'http://www.espnscrum.com/other/rugby/player/12499.html'
p254
aS'http://www.espnscrum.com/other/rugby/player/12727.html'
p255
aS'http://www.espnscrum.com/other/rugby/player/12808.html'
p256
aS'http://www.espnscrum.com/other/rugby/player/12809.html'
p257
aS'http://www.espnscrum.com/other/rugby/player/12823.html'
p258
aS'http://www.espnscrum.com/other/rugby/player/12812.html'
p259
aS'http://www.espnscrum.com/other/rugby/player/12836.html'
p260
aS'http://www.espnscrum.com/other/rugby/player/12885.html'
p261
aS'http://www.espnscrum.com/other/rugby/player/12910.html'
p262
aS'http://www.espnscrum.com/other/rugby/player/12900.html'
p263
aS'http://www.espnscrum.com/other/rugby/player/12817.html'
p264
aS'http://www.espnscrum.com/other/rugby/player/13131.html'
p265
aS'http://www.espnscrum.com/other/rugby/player/13137.html'
p266
aS'http://www.espnscrum.com/other/rugby/player/13190.html'
p267
aS'http://www.espnscrum.com/other/rugby/player/13242.html'
p268
aS'http://www.espnscrum.com/other/rugby/player/13349.html'
p269
aS'http://www.espnscrum.com/other/rugby/player/13350.html'
p270
aS'http://www.espnscrum.com/other/rugby/player/13352.html'
p271
aS'http://www.espnscrum.com/other/rugby/player/13364.html'
p272
aS'http://www.espnscrum.com/other/rugby/player/13369.html'
p273
aS'http://www.espnscrum.com/other/rugby/player/13382.html'
p274
aS'http://www.espnscrum.com/other/rugby/player/13386.html'
p275
aS'http://www.espnscrum.com/other/rugby/player/13358.html'
p276
aS'http://www.espnscrum.com/other/rugby/player/13367.html'
p277
aS'http://www.espnscrum.com/other/rugby/player/13415.html'
p278
aS'http://www.espnscrum.com/other/rugby/player/13387.html'
p279
aS'http://www.espnscrum.com/other/rugby/player/13508.html'
p280
aS'http://www.espnscrum.com/other/rugby/player/12810.html'
p281
aS'http://www.espnscrum.com/other/rugby/player/13626.html'
p282
aS'http://www.espnscrum.com/other/rugby/player/13217.html'
p283
aS'http://www.espnscrum.com/other/rugby/player/13617.html'
p284
aS'http://www.espnscrum.com/other/rugby/player/13361.html'
p285
aS'http://www.espnscrum.com/other/rugby/player/13631.html'
p286
aS'http://www.espnscrum.com/other/rugby/player/13633.html'
p287
aS'http://www.espnscrum.com/other/rugby/player/13716.html'
p288
aS'http://www.espnscrum.com/other/rugby/player/13717.html'
p289
aS'http://www.espnscrum.com/other/rugby/player/13721.html'
p290
aS'http://www.espnscrum.com/other/rugby/player/14007.html'
p291
aS'http://www.espnscrum.com/other/rugby/player/14018.html'
p292
aS'http://www.espnscrum.com/other/rugby/player/14019.html'
p293
aS'http://www.espnscrum.com/other/rugby/player/14023.html'
p294
aS'http://www.espnscrum.com/other/rugby/player/14244.html'
p295
aS'http://www.espnscrum.com/other/rugby/player/14647.html'
p296
aS'http://www.espnscrum.com/other/rugby/player/14026.html'
p297
aS'http://www.espnscrum.com/other/rugby/player/14485.html'
p298
aS'http://www.espnscrum.com/other/rugby/player/14315.html'
p299
aS'http://www.espnscrum.com/other/rugby/player/14243.html'
p300
aS'http://www.espnscrum.com/other/rugby/player/14313.html'
p301
aS'http://www.espnscrum.com/other/rugby/player/14308.html'
p302
aS'http://www.espnscrum.com/other/rugby/player/14322.html'
p303
aS'http://www.espnscrum.com/other/rugby/player/14024.html'
p304
aS'http://www.espnscrum.com/other/rugby/player/14466.html'
p305
aS'http://www.espnscrum.com/other/rugby/player/14472.html'
p306
aS'http://www.espnscrum.com/other/rugby/player/14478.html'
p307
aS'http://www.espnscrum.com/other/rugby/player/14480.html'
p308
aS'http://www.espnscrum.com/other/rugby/player/14481.html'
p309
aS'http://www.espnscrum.com/other/rugby/player/14484.html'
p310
aS'http://www.espnscrum.com/other/rugby/player/14491.html'
p311
aS'http://www.espnscrum.com/other/rugby/player/14493.html'
p312
aS'http://www.espnscrum.com/other/rugby/player/14467.html'
p313
aS'http://www.espnscrum.com/other/rugby/player/14468.html'
p314
aS'http://www.espnscrum.com/other/rugby/player/14471.html'
p315
aS'http://www.espnscrum.com/other/rugby/player/14476.html'
p316
aS'http://www.espnscrum.com/other/rugby/player/14477.html'
p317
aS'http://www.espnscrum.com/other/rugby/player/14482.html'
p318
aS'http://www.espnscrum.com/other/rugby/player/14503.html'
p319
aS'http://www.espnscrum.com/other/rugby/player/14983.html'
p320
aS'http://www.espnscrum.com/other/rugby/player/14561.html'
p321
aS'http://www.espnscrum.com/other/rugby/player/14652.html'
p322
aS'http://www.espnscrum.com/other/rugby/player/14593.html'
p323
aS'http://www.espnscrum.com/other/rugby/player/14651.html'
p324
aS'http://www.espnscrum.com/other/rugby/player/14820.html'
p325
aS'http://www.espnscrum.com/other/rugby/player/14827.html'
p326
aS'http://www.espnscrum.com/other/rugby/player/14831.html'
p327
aS'http://www.espnscrum.com/other/rugby/player/14821.html'
p328
aS'http://www.espnscrum.com/other/rugby/player/14833.html'
p329
aS'http://www.espnscrum.com/other/rugby/player/14836.html'
p330
aS'http://www.espnscrum.com/other/rugby/player/14832.html'
p331
aS'http://www.espnscrum.com/other/rugby/player/14837.html'
p332
aS'http://www.espnscrum.com/other/rugby/player/14889.html'
p333
aS'http://www.espnscrum.com/other/rugby/player/14992.html'
p334
aS'http://www.espnscrum.com/other/rugby/player/14968.html'
p335
aS'http://www.espnscrum.com/other/rugby/player/14969.html'
p336
aS'http://www.espnscrum.com/other/rugby/player/14970.html'
p337
aS'http://www.espnscrum.com/other/rugby/player/14973.html'
p338
aS'http://www.espnscrum.com/other/rugby/player/14972.html'
p339
aS'http://www.espnscrum.com/other/rugby/player/14991.html'
p340
aS'http://www.espnscrum.com/other/rugby/player/14985.html'
p341
aS'http://www.espnscrum.com/other/rugby/player/15062.html'
p342
aS'http://www.espnscrum.com/other/rugby/player/15065.html'
p343
aS'http://www.espnscrum.com/other/rugby/player/15079.html'
p344
aS'http://www.espnscrum.com/other/rugby/player/15082.html'
p345
aS'http://www.espnscrum.com/other/rugby/player/15307.html'
p346
aS'http://www.espnscrum.com/other/rugby/player/15309.html'
p347
aS'http://www.espnscrum.com/other/rugby/player/15321.html'
p348
aS'http://www.espnscrum.com/other/rugby/player/142726.html'
p349
aS'http://www.espnscrum.com/other/rugby/player/15298.html'
p350
aS'http://www.espnscrum.com/other/rugby/player/15308.html'
p351
aS'http://www.espnscrum.com/other/rugby/player/15323.html'
p352
aS'http://www.espnscrum.com/other/rugby/player/15635.html'
p353
aS'http://www.espnscrum.com/other/rugby/player/15338.html'
p354
aS'http://www.espnscrum.com/other/rugby/player/15424.html'
p355
aS'http://www.espnscrum.com/other/rugby/player/15639.html'
p356
aS'http://www.espnscrum.com/other/rugby/player/15636.html'
p357
aS'http://www.espnscrum.com/other/rugby/player/15756.html'
p358
aS'http://www.espnscrum.com/other/rugby/player/16042.html'
p359
aS'http://www.espnscrum.com/other/rugby/player/16045.html'
p360
aS'http://www.espnscrum.com/other/rugby/player/16046.html'
p361
aS'http://www.espnscrum.com/other/rugby/player/16049.html'
p362
aS'http://www.espnscrum.com/other/rugby/player/84810.html'
p363
aS'http://www.espnscrum.com/other/rugby/player/84813.html'
p364
aS'http://www.espnscrum.com/other/rugby/player/84811.html'
p365
aS'http://www.espnscrum.com/other/rugby/player/84815.html'
p366
aS'http://www.espnscrum.com/other/rugby/player/85490.html'
p367
aS'http://www.espnscrum.com/other/rugby/player/85485.html'
p368
aS'http://www.espnscrum.com/other/rugby/player/84816.html'
p369
aS'http://www.espnscrum.com/other/rugby/player/84809.html'
p370
aS'http://www.espnscrum.com/other/rugby/player/86897.html'
p371
aS'http://www.espnscrum.com/other/rugby/player/97060.html'
p372
aS'http://www.espnscrum.com/other/rugby/player/97059.html'
p373
aS'http://www.espnscrum.com/other/rugby/player/97426.html'
p374
aS'http://www.espnscrum.com/other/rugby/player/97063.html'
p375
aS'http://www.espnscrum.com/other/rugby/player/97874.html'
p376
aS'http://www.espnscrum.com/other/rugby/player/105785.html'
p377
aS'http://www.espnscrum.com/other/rugby/player/84817.html'
p378
aS'http://www.espnscrum.com/other/rugby/player/106976.html'
p379
aS'http://www.espnscrum.com/other/rugby/player/106977.html'
p380
aS'http://www.espnscrum.com/other/rugby/player/106028.html'
p381
aS'http://www.espnscrum.com/other/rugby/player/106989.html'
p382
aS'http://www.espnscrum.com/other/rugby/player/117538.html'
p383
aS'http://www.espnscrum.com/other/rugby/player/128735.html'
p384
aS'http://www.espnscrum.com/other/rugby/player/128737.html'
p385
aS'http://www.espnscrum.com/other/rugby/player/118035.html'
p386
aS'http://www.espnscrum.com/other/rugby/player/128734.html'
p387
aS'http://www.espnscrum.com/other/rugby/player/128736.html'
p388
aS'http://www.espnscrum.com/other/rugby/player/128738.html'
p389
aS'http://www.espnscrum.com/other/rugby/player/140891.html'
p390
aS'http://www.espnscrum.com/other/rugby/player/165556.html'
p391
aS'http://www.espnscrum.com/other/rugby/player/165553.html'
p392
aS'http://www.espnscrum.com/other/rugby/player/165561.html'
p393
aS'http://www.espnscrum.com/other/rugby/player/171301.html'
p394
aS'http://www.espnscrum.com/other/rugby/player/117270.html'
p395
aS'http://www.espnscrum.com/other/rugby/player/173292.html'
p396
aS'http://www.espnscrum.com/other/rugby/player/171312.html'
p397
aS'http://www.espnscrum.com/other/rugby/player/165749.html'
p398
aS'http://www.espnscrum.com/other/rugby/player/171304.html'
p399
aS'http://www.espnscrum.com/other/rugby/player/186709.html'
p400
aS'http://www.espnscrum.com/other/rugby/player/183455.html'
p401
aS'http://www.espnscrum.com/other/rugby/player/204743.html'
p402
aS'http://www.espnscrum.com/other/rugby/player/205239.html'
p403
aS'http://www.espnscrum.com/other/rugby/player/204747.html'
p404
aS'http://www.espnscrum.com/other/rugby/player/205237.html'
p405
aS'http://www.espnscrum.com/other/rugby/player/228947.html'
p406
aS'http://www.espnscrum.com/other/rugby/player/171315.html'
p407
aS'http://www.espnscrum.com/other/rugby/player/27828.html'
p408
aS'http://www.espnscrum.com/other/rugby/player/269653.html'
p409
aS'http://www.espnscrum.com/other/rugby/player/269657.html'
p410
aS'http://www.espnscrum.com/other/rugby/player/270345.html'
p411
aS'http://www.espnscrum.com/other/rugby/player/286251.html'
p412
aS'http://www.espnscrum.com/other/rugby/player/286257.html'
p413
aS'http://www.espnscrum.com/other/rugby/player/286285.html'
p414
aS'http://www.espnscrum.com/other/rugby/player/286293.html'
p415
aS'http://www.espnscrum.com/other/rugby/player/286297.html'
p416
aS'http://www.espnscrum.com/other/rugby/player/286299.html'
p417
aS'http://www.espnscrum.com/other/rugby/player/171302.html'
p418
aS'http://www.espnscrum.com/other/rugby/player/286247.html'
p419
aS'http://www.espnscrum.com/other/rugby/player/286903.html'
p420
aS'http://www.espnscrum.com/other/rugby/player/286263.html'
p421
aS'http://www.espnscrum.com/other/rugby/player/286279.html'
p422
aS'http://www.espnscrum.com/other/rugby/player/287375.html'
p423
aS'http://www.espnscrum.com/other/rugby/player/286253.html'
p424
aS'http://www.espnscrum.com/other/rugby/player/287355.html'
p425
aS'http://www.espnscrum.com/other/rugby/player/286273.html'
p426
aS'http://www.espnscrum.com/other/rugby/player/286275.html'
p427
aS'http://www.espnscrum.com/other/rugby/player/287363.html'
p428
aS'http://www.espnscrum.com/other/rugby/player/287371.html'
p429
aS'http://www.espnscrum.com/other/rugby/player/288391.html'
p430
aS'http://www.espnscrum.com/other/rugby/player/290821.html'
p431
aS'http://www.espnscrum.com/other/rugby/player/290861.html'
p432
aS'http://www.espnscrum.com/other/rugby/player/294238.html'
p433
aS'http://www.espnscrum.com/other/rugby/player/294272.html'
p434
aS'http://www.espnscrum.com/other/rugby/player/294578.html'
p435
aS'http://www.espnscrum.com/other/rugby/player/294273.html'
p436
aS'http://www.espnscrum.com/other/rugby/player/294678.html'
p437
aS'http://www.espnscrum.com/other/rugby/player/294572.html'
p438
aS'http://www.espnscrum.com/other/rugby/player/294574.html'
p439
aS'http://www.espnscrum.com/other/rugby/player/294583.html'
p440
aS'http://www.espnscrum.com/other/rugby/player/294587.html'
p441
aS'http://www.espnscrum.com/other/rugby/player/294590.html'
p442
aS'http://www.espnscrum.com/other/rugby/player/294695.html'
p443
aS'http://www.espnscrum.com/other/rugby/player/294758.html'
p444
aS'http://www.espnscrum.com/other/rugby/player/294770.html'
p445
a.